TMS320C6x Assembler PC v7.4.2 Thu Mar 19 12:41:44 2015

Tools Copyright (c) 1996-2012 Texas Instruments Incorporated
package/lib/Regression/regress_d_c/./../packages/ti/vlib/src/VLIB_histogram_1D_U8/VLIB_histogram_1D_U8_d.se66 PAGE    1

       1                    ;******************************************************************************
       2                    ;* TMS320C6x C/C++ Codegen                                          PC v7.4.2 *
       3                    ;* Date/Time created: Thu Mar 19 12:41:43 2015                                *
       4                    ;******************************************************************************
       5                            .compiler_opts --abi=eabi --c64p_l1d_workaround=off --endian=little --hll_source=on --long_pre
       6                    
       7                    ;******************************************************************************
       8                    ;* GLOBAL FILE PARAMETERS                                                     *
       9                    ;*                                                                            *
      10                    ;*   Architecture      : TMS320C66xx                                          *
      11                    ;*   Optimization      : Enabled at level 3                                   *
      12                    ;*   Optimizing for    : Speed                                                *
      13                    ;*                       Based on options: -o3, no -ms                        *
      14                    ;*   Endian            : Little                                               *
      15                    ;*   Interrupt Thrshld : 10000                                                *
      16                    ;*   Data Access Model : Far                                                  *
      17                    ;*   Pipelining        : Enabled                                              *
      18                    ;*   Speculate Loads   : Enabled with threshold = 0                           *
      19                    ;*   Memory Aliases    : Presume are aliases (pessimistic)                    *
      20                    ;*   Debug Info        : DWARF Debug w/Optimization                           *
      21                    ;*                                                                            *
      22                    ;******************************************************************************
      23                    
      24                            .asg    A15, FP
      25                            .asg    B14, DP
      26                            .asg    B15, SP
      27                            .global $bss
      28                    
      29                    
      30                    $C$DW$CU        .dwtag  DW_TAG_compile_unit
      31                            .dwattr $C$DW$CU, DW_AT_name("./../packages/ti/vlib/src/VLIB_histogram_1D_U8/VLIB_histogram_1D
      32                            .dwattr $C$DW$CU, DW_AT_producer("TI TMS320C6x C/C++ Codegen PC v7.4.2 Copyright (c) 1996-2012
      33                            .dwattr $C$DW$CU, DW_AT_TI_version(0x01)
      34                            .dwattr $C$DW$CU, DW_AT_comp_dir("c:\nightlybuilds\vlib\ti\vlib\vlib\examples")
      35                    
      36                    $C$DW$1 .dwtag  DW_TAG_subprogram, DW_AT_name("_itoll")
      37                            .dwattr $C$DW$1, DW_AT_TI_symbol_name("_itoll")
      38                            .dwattr $C$DW$1, DW_AT_type(*$C$DW$T$14)
      39                            .dwattr $C$DW$1, DW_AT_declaration
      40                            .dwattr $C$DW$1, DW_AT_external
      41                            .dwattr $C$DW$1, DW_AT_decl_file("C:/VLIB_Tools/CCSV5_4_0/ccsv5/tools/compiler/C6000/include/c
      42                            .dwattr $C$DW$1, DW_AT_decl_line(0xdf)
      43                            .dwattr $C$DW$1, DW_AT_decl_column(0x0b)
      44                    $C$DW$2 .dwtag  DW_TAG_formal_parameter
      45                            .dwattr $C$DW$2, DW_AT_type(*$C$DW$T$11)
      46                    $C$DW$3 .dwtag  DW_TAG_formal_parameter
      47                            .dwattr $C$DW$3, DW_AT_type(*$C$DW$T$11)
      48                            .dwendtag $C$DW$1
      49                    
      50                    
      51                    $C$DW$4 .dwtag  DW_TAG_subprogram, DW_AT_name("printf")
      52                            .dwattr $C$DW$4, DW_AT_TI_symbol_name("printf")
      53                            .dwattr $C$DW$4, DW_AT_type(*$C$DW$T$10)
      54                            .dwattr $C$DW$4, DW_AT_declaration
      55                            .dwattr $C$DW$4, DW_AT_external
TMS320C6x Assembler PC v7.4.2 Thu Mar 19 12:41:44 2015

Tools Copyright (c) 1996-2012 Texas Instruments Incorporated
package/lib/Regression/regress_d_c/./../packages/ti/vlib/src/VLIB_histogram_1D_U8/VLIB_histogram_1D_U8_d.se66 PAGE    2

      56                            .dwattr $C$DW$4, DW_AT_decl_file("C:/VLIB_Tools/CCSV5_4_0/ccsv5/tools/compiler/C6000/include/s
      57                            .dwattr $C$DW$4, DW_AT_decl_line(0xb8)
      58                            .dwattr $C$DW$4, DW_AT_decl_column(0x19)
      59                    $C$DW$5 .dwtag  DW_TAG_formal_parameter
      60                            .dwattr $C$DW$5, DW_AT_type(*$C$DW$T$106)
      61                    $C$DW$6 .dwtag  DW_TAG_unspecified_parameters
      62                            .dwendtag $C$DW$4
      63                    
      64                    
      65                    $C$DW$7 .dwtag  DW_TAG_subprogram, DW_AT_name("sprintf")
      66                            .dwattr $C$DW$7, DW_AT_TI_symbol_name("sprintf")
      67                            .dwattr $C$DW$7, DW_AT_type(*$C$DW$T$10)
      68                            .dwattr $C$DW$7, DW_AT_declaration
      69                            .dwattr $C$DW$7, DW_AT_external
      70                            .dwattr $C$DW$7, DW_AT_decl_file("C:/VLIB_Tools/CCSV5_4_0/ccsv5/tools/compiler/C6000/include/s
      71                            .dwattr $C$DW$7, DW_AT_decl_line(0xbc)
      72                            .dwattr $C$DW$7, DW_AT_decl_column(0x19)
      73                    $C$DW$8 .dwtag  DW_TAG_formal_parameter
      74                            .dwattr $C$DW$8, DW_AT_type(*$C$DW$T$60)
      75                    $C$DW$9 .dwtag  DW_TAG_formal_parameter
      76                            .dwattr $C$DW$9, DW_AT_type(*$C$DW$T$106)
      77                    $C$DW$10        .dwtag  DW_TAG_unspecified_parameters
      78                            .dwendtag $C$DW$7
      79                    
      80                    
      81                    $C$DW$11        .dwtag  DW_TAG_subprogram, DW_AT_name("memset")
      82                            .dwattr $C$DW$11, DW_AT_TI_symbol_name("memset")
      83                            .dwattr $C$DW$11, DW_AT_type(*$C$DW$T$3)
      84                            .dwattr $C$DW$11, DW_AT_declaration
      85                            .dwattr $C$DW$11, DW_AT_external
      86                            .dwattr $C$DW$11, DW_AT_decl_file("C:/VLIB_Tools/CCSV5_4_0/ccsv5/tools/compiler/C6000/include/
      87                            .dwattr $C$DW$11, DW_AT_decl_line(0x5b)
      88                            .dwattr $C$DW$11, DW_AT_decl_column(0x16)
      89                    $C$DW$12        .dwtag  DW_TAG_formal_parameter
      90                            .dwattr $C$DW$12, DW_AT_type(*$C$DW$T$3)
      91                    $C$DW$13        .dwtag  DW_TAG_formal_parameter
      92                            .dwattr $C$DW$13, DW_AT_type(*$C$DW$T$10)
      93                    $C$DW$14        .dwtag  DW_TAG_formal_parameter
      94                            .dwattr $C$DW$14, DW_AT_type(*$C$DW$T$53)
      95                            .dwendtag $C$DW$11
      96                    
      97                    
      98                    $C$DW$15        .dwtag  DW_TAG_subprogram, DW_AT_name("malloc")
      99                            .dwattr $C$DW$15, DW_AT_TI_symbol_name("malloc")
     100                            .dwattr $C$DW$15, DW_AT_type(*$C$DW$T$3)
     101                            .dwattr $C$DW$15, DW_AT_declaration
     102                            .dwattr $C$DW$15, DW_AT_external
     103                            .dwattr $C$DW$15, DW_AT_decl_file("C:/VLIB_Tools/CCSV5_4_0/ccsv5/tools/compiler/C6000/include/
     104                            .dwattr $C$DW$15, DW_AT_decl_line(0x82)
     105                            .dwattr $C$DW$15, DW_AT_decl_column(0x19)
     106                    $C$DW$16        .dwtag  DW_TAG_formal_parameter
     107                            .dwattr $C$DW$16, DW_AT_type(*$C$DW$T$53)
     108                            .dwendtag $C$DW$15
     109                    
     110                    
TMS320C6x Assembler PC v7.4.2 Thu Mar 19 12:41:44 2015

Tools Copyright (c) 1996-2012 Texas Instruments Incorporated
package/lib/Regression/regress_d_c/./../packages/ti/vlib/src/VLIB_histogram_1D_U8/VLIB_histogram_1D_U8_d.se66 PAGE    3

     111                    $C$DW$17        .dwtag  DW_TAG_subprogram, DW_AT_name("free")
     112                            .dwattr $C$DW$17, DW_AT_TI_symbol_name("free")
     113                            .dwattr $C$DW$17, DW_AT_declaration
     114                            .dwattr $C$DW$17, DW_AT_external
     115                            .dwattr $C$DW$17, DW_AT_decl_file("C:/VLIB_Tools/CCSV5_4_0/ccsv5/tools/compiler/C6000/include/
     116                            .dwattr $C$DW$17, DW_AT_decl_line(0x86)
     117                            .dwattr $C$DW$17, DW_AT_decl_column(0x19)
     118                    $C$DW$18        .dwtag  DW_TAG_formal_parameter
     119                            .dwattr $C$DW$18, DW_AT_type(*$C$DW$T$3)
     120                            .dwendtag $C$DW$17
     121                    
     122                    
     123                    $C$DW$19        .dwtag  DW_TAG_subprogram, DW_AT_name("VLIB_cache_inval")
     124                            .dwattr $C$DW$19, DW_AT_TI_symbol_name("VLIB_cache_inval")
     125                            .dwattr $C$DW$19, DW_AT_type(*$C$DW$T$10)
     126                            .dwattr $C$DW$19, DW_AT_declaration
     127                            .dwattr $C$DW$19, DW_AT_external
     128                            .dwattr $C$DW$19, DW_AT_decl_file(".\..\packages\ti\vlib\src\VLIB_histogram_1D_U8\..\common\c6
     129                            .dwattr $C$DW$19, DW_AT_decl_line(0x58)
     130                            .dwattr $C$DW$19, DW_AT_decl_column(0x05)
     131                    
     132                    $C$DW$20        .dwtag  DW_TAG_subprogram, DW_AT_name("VLIB_profile_init")
     133                            .dwattr $C$DW$20, DW_AT_TI_symbol_name("VLIB_profile_init")
     134                            .dwattr $C$DW$20, DW_AT_declaration
     135                            .dwattr $C$DW$20, DW_AT_external
     136                            .dwattr $C$DW$20, DW_AT_decl_file(".\..\packages\ti\vlib\src\VLIB_histogram_1D_U8\..\common\VL
     137                            .dwattr $C$DW$20, DW_AT_decl_line(0x7b)
     138                            .dwattr $C$DW$20, DW_AT_decl_column(0x06)
     139                    $C$DW$21        .dwtag  DW_TAG_formal_parameter
     140                            .dwattr $C$DW$21, DW_AT_type(*$C$DW$T$10)
     141                    $C$DW$22        .dwtag  DW_TAG_formal_parameter
     142                            .dwattr $C$DW$22, DW_AT_type(*$C$DW$T$60)
     143                            .dwendtag $C$DW$20
     144                    
     145                    
     146                    $C$DW$23        .dwtag  DW_TAG_subprogram, DW_AT_name("VLIB_formula_add_test")
     147                            .dwattr $C$DW$23, DW_AT_TI_symbol_name("VLIB_formula_add_test")
     148                            .dwattr $C$DW$23, DW_AT_declaration
     149                            .dwattr $C$DW$23, DW_AT_external
     150                            .dwattr $C$DW$23, DW_AT_decl_file(".\..\packages\ti\vlib\src\VLIB_histogram_1D_U8\..\common\VL
     151                            .dwattr $C$DW$23, DW_AT_decl_line(0x7d)
     152                            .dwattr $C$DW$23, DW_AT_decl_column(0x06)
     153                    $C$DW$24        .dwtag  DW_TAG_formal_parameter
     154                            .dwattr $C$DW$24, DW_AT_type(*$C$DW$T$10)
     155                    $C$DW$25        .dwtag  DW_TAG_formal_parameter
     156                            .dwattr $C$DW$25, DW_AT_type(*$C$DW$T$10)
     157                    $C$DW$26        .dwtag  DW_TAG_formal_parameter
     158                            .dwattr $C$DW$26, DW_AT_type(*$C$DW$T$10)
     159                    $C$DW$27        .dwtag  DW_TAG_formal_parameter
     160                            .dwattr $C$DW$27, DW_AT_type(*$C$DW$T$10)
     161                    $C$DW$28        .dwtag  DW_TAG_formal_parameter
     162                            .dwattr $C$DW$28, DW_AT_type(*$C$DW$T$60)
     163                    $C$DW$29        .dwtag  DW_TAG_formal_parameter
     164                            .dwattr $C$DW$29, DW_AT_type(*$C$DW$T$10)
     165                            .dwendtag $C$DW$23
TMS320C6x Assembler PC v7.4.2 Thu Mar 19 12:41:44 2015

Tools Copyright (c) 1996-2012 Texas Instruments Incorporated
package/lib/Regression/regress_d_c/./../packages/ti/vlib/src/VLIB_histogram_1D_U8/VLIB_histogram_1D_U8_d.se66 PAGE    4

     166                    
     167                    
     168                    $C$DW$30        .dwtag  DW_TAG_subprogram, DW_AT_name("VLIB_skip_test")
     169                            .dwattr $C$DW$30, DW_AT_TI_symbol_name("VLIB_skip_test")
     170                            .dwattr $C$DW$30, DW_AT_declaration
     171                            .dwattr $C$DW$30, DW_AT_external
     172                            .dwattr $C$DW$30, DW_AT_decl_file(".\..\packages\ti\vlib\src\VLIB_histogram_1D_U8\..\common\VL
     173                            .dwattr $C$DW$30, DW_AT_decl_line(0x7e)
     174                            .dwattr $C$DW$30, DW_AT_decl_column(0x06)
     175                    $C$DW$31        .dwtag  DW_TAG_formal_parameter
     176                            .dwattr $C$DW$31, DW_AT_type(*$C$DW$T$60)
     177                            .dwendtag $C$DW$30
     178                    
     179                    
     180                    $C$DW$32        .dwtag  DW_TAG_subprogram, DW_AT_name("VLIB_profile_cycle_report")
     181                            .dwattr $C$DW$32, DW_AT_TI_symbol_name("VLIB_profile_cycle_report")
     182                            .dwattr $C$DW$32, DW_AT_declaration
     183                            .dwattr $C$DW$32, DW_AT_external
     184                            .dwattr $C$DW$32, DW_AT_decl_file(".\..\packages\ti\vlib\src\VLIB_histogram_1D_U8\..\common\VL
     185                            .dwattr $C$DW$32, DW_AT_decl_line(0x7f)
     186                            .dwattr $C$DW$32, DW_AT_decl_column(0x06)
     187                    $C$DW$33        .dwtag  DW_TAG_formal_parameter
     188                            .dwattr $C$DW$33, DW_AT_type(*$C$DW$T$10)
     189                    $C$DW$34        .dwtag  DW_TAG_formal_parameter
     190                            .dwattr $C$DW$34, DW_AT_type(*$C$DW$T$60)
     191                    $C$DW$35        .dwtag  DW_TAG_formal_parameter
     192                            .dwattr $C$DW$35, DW_AT_type(*$C$DW$T$60)
     193                            .dwendtag $C$DW$32
     194                    
     195                    
     196                    $C$DW$36        .dwtag  DW_TAG_subprogram, DW_AT_name("initStack")
     197                            .dwattr $C$DW$36, DW_AT_TI_symbol_name("initStack")
     198                            .dwattr $C$DW$36, DW_AT_declaration
     199                            .dwattr $C$DW$36, DW_AT_external
     200                            .dwattr $C$DW$36, DW_AT_decl_file(".\..\packages\ti\vlib\src\VLIB_histogram_1D_U8\..\common\VL
     201                            .dwattr $C$DW$36, DW_AT_decl_line(0x80)
     202                            .dwattr $C$DW$36, DW_AT_decl_column(0x06)
     203                    $C$DW$37        .dwtag  DW_TAG_formal_parameter
     204                            .dwattr $C$DW$37, DW_AT_type(*$C$DW$T$69)
     205                            .dwendtag $C$DW$36
     206                    
     207                    
     208                    $C$DW$38        .dwtag  DW_TAG_subprogram, DW_AT_name("setStackDepth")
     209                            .dwattr $C$DW$38, DW_AT_TI_symbol_name("setStackDepth")
     210                            .dwattr $C$DW$38, DW_AT_declaration
     211                            .dwattr $C$DW$38, DW_AT_external
     212                            .dwattr $C$DW$38, DW_AT_decl_file(".\..\packages\ti\vlib\src\VLIB_histogram_1D_U8\..\common\VL
     213                            .dwattr $C$DW$38, DW_AT_decl_line(0x81)
     214                            .dwattr $C$DW$38, DW_AT_decl_column(0x06)
     215                    
     216                    $C$DW$39        .dwtag  DW_TAG_subprogram, DW_AT_name("getSP")
     217                            .dwattr $C$DW$39, DW_AT_TI_symbol_name("getSP")
     218                            .dwattr $C$DW$39, DW_AT_type(*$C$DW$T$69)
     219                            .dwattr $C$DW$39, DW_AT_declaration
     220                            .dwattr $C$DW$39, DW_AT_external
TMS320C6x Assembler PC v7.4.2 Thu Mar 19 12:41:44 2015

Tools Copyright (c) 1996-2012 Texas Instruments Incorporated
package/lib/Regression/regress_d_c/./../packages/ti/vlib/src/VLIB_histogram_1D_U8/VLIB_histogram_1D_U8_d.se66 PAGE    5

     221                            .dwattr $C$DW$39, DW_AT_decl_file(".\..\packages\ti\vlib\src\VLIB_histogram_1D_U8\..\common\VL
     222                            .dwattr $C$DW$39, DW_AT_decl_line(0x82)
     223                            .dwattr $C$DW$39, DW_AT_decl_column(0x0a)
     224                    
     225                    $C$DW$40        .dwtag  DW_TAG_subprogram, DW_AT_name("VLIB_stack_memory")
     226                            .dwattr $C$DW$40, DW_AT_TI_symbol_name("VLIB_stack_memory")
     227                            .dwattr $C$DW$40, DW_AT_declaration
     228                            .dwattr $C$DW$40, DW_AT_external
     229                            .dwattr $C$DW$40, DW_AT_decl_file(".\..\packages\ti\vlib\src\VLIB_histogram_1D_U8\..\common\VL
     230                            .dwattr $C$DW$40, DW_AT_decl_line(0x83)
     231                            .dwattr $C$DW$40, DW_AT_decl_column(0x06)
     232                    
     233                    $C$DW$41        .dwtag  DW_TAG_subprogram, DW_AT_name("VLIB_compare_mem")
     234                            .dwattr $C$DW$41, DW_AT_TI_symbol_name("VLIB_compare_mem")
     235                            .dwattr $C$DW$41, DW_AT_type(*$C$DW$T$23)
     236                            .dwattr $C$DW$41, DW_AT_declaration
     237                            .dwattr $C$DW$41, DW_AT_external
     238                            .dwattr $C$DW$41, DW_AT_decl_file(".\..\packages\ti\vlib\src\VLIB_histogram_1D_U8\../common/VL
     239                            .dwattr $C$DW$41, DW_AT_decl_line(0x6f)
     240                            .dwattr $C$DW$41, DW_AT_decl_column(0x11)
     241                    $C$DW$42        .dwtag  DW_TAG_formal_parameter
     242                            .dwattr $C$DW$42, DW_AT_type(*$C$DW$T$52)
     243                    $C$DW$43        .dwtag  DW_TAG_formal_parameter
     244                            .dwattr $C$DW$43, DW_AT_type(*$C$DW$T$52)
     245                    $C$DW$44        .dwtag  DW_TAG_formal_parameter
     246                            .dwattr $C$DW$44, DW_AT_type(*$C$DW$T$23)
     247                            .dwendtag $C$DW$41
     248                    
     249                    
     250                    $C$DW$45        .dwtag  DW_TAG_subprogram, DW_AT_name("VLIB_fillBuffer")
     251                            .dwattr $C$DW$45, DW_AT_TI_symbol_name("VLIB_fillBuffer")
     252                            .dwattr $C$DW$45, DW_AT_declaration
     253                            .dwattr $C$DW$45, DW_AT_external
     254                            .dwattr $C$DW$45, DW_AT_decl_file(".\..\packages\ti\vlib\src\VLIB_histogram_1D_U8\../common/VL
     255                            .dwattr $C$DW$45, DW_AT_decl_line(0x77)
     256                            .dwattr $C$DW$45, DW_AT_decl_column(0x06)
     257                    $C$DW$46        .dwtag  DW_TAG_formal_parameter
     258                            .dwattr $C$DW$46, DW_AT_type(*$C$DW$T$19)
     259                    $C$DW$47        .dwtag  DW_TAG_formal_parameter
     260                            .dwattr $C$DW$47, DW_AT_type(*$C$DW$T$19)
     261                    $C$DW$48        .dwtag  DW_TAG_formal_parameter
     262                            .dwattr $C$DW$48, DW_AT_type(*$C$DW$T$3)
     263                    $C$DW$49        .dwtag  DW_TAG_formal_parameter
     264                            .dwattr $C$DW$49, DW_AT_type(*$C$DW$T$3)
     265                    $C$DW$50        .dwtag  DW_TAG_formal_parameter
     266                            .dwattr $C$DW$50, DW_AT_type(*$C$DW$T$21)
     267                    $C$DW$51        .dwtag  DW_TAG_formal_parameter
     268                            .dwattr $C$DW$51, DW_AT_type(*$C$DW$T$21)
     269                    $C$DW$52        .dwtag  DW_TAG_formal_parameter
     270                            .dwattr $C$DW$52, DW_AT_type(*$C$DW$T$21)
     271                    $C$DW$53        .dwtag  DW_TAG_formal_parameter
     272                            .dwattr $C$DW$53, DW_AT_type(*$C$DW$T$19)
     273                    $C$DW$54        .dwtag  DW_TAG_formal_parameter
     274                            .dwattr $C$DW$54, DW_AT_type(*$C$DW$T$60)
     275                            .dwendtag $C$DW$45
TMS320C6x Assembler PC v7.4.2 Thu Mar 19 12:41:44 2015

Tools Copyright (c) 1996-2012 Texas Instruments Incorporated
package/lib/Regression/regress_d_c/./../packages/ti/vlib/src/VLIB_histogram_1D_U8/VLIB_histogram_1D_U8_d.se66 PAGE    6

     276                    
     277                    
     278                    $C$DW$55        .dwtag  DW_TAG_subprogram, DW_AT_name("VLIB_malloc")
     279                            .dwattr $C$DW$55, DW_AT_TI_symbol_name("VLIB_malloc")
     280                            .dwattr $C$DW$55, DW_AT_type(*$C$DW$T$3)
     281                            .dwattr $C$DW$55, DW_AT_declaration
     282                            .dwattr $C$DW$55, DW_AT_external
     283                            .dwattr $C$DW$55, DW_AT_decl_file(".\..\packages\ti\vlib\src\VLIB_histogram_1D_U8\../common/VL
     284                            .dwattr $C$DW$55, DW_AT_decl_line(0xaf)
     285                            .dwattr $C$DW$55, DW_AT_decl_column(0x07)
     286                    $C$DW$56        .dwtag  DW_TAG_formal_parameter
     287                            .dwattr $C$DW$56, DW_AT_type(*$C$DW$T$53)
     288                            .dwendtag $C$DW$55
     289                    
     290                    
     291                    $C$DW$57        .dwtag  DW_TAG_subprogram, DW_AT_name("VLIB_free")
     292                            .dwattr $C$DW$57, DW_AT_TI_symbol_name("VLIB_free")
     293                            .dwattr $C$DW$57, DW_AT_declaration
     294                            .dwattr $C$DW$57, DW_AT_external
     295                            .dwattr $C$DW$57, DW_AT_decl_file(".\..\packages\ti\vlib\src\VLIB_histogram_1D_U8\../common/VL
     296                            .dwattr $C$DW$57, DW_AT_decl_line(0xb4)
     297                            .dwattr $C$DW$57, DW_AT_decl_column(0x07)
     298                    $C$DW$58        .dwtag  DW_TAG_formal_parameter
     299                            .dwattr $C$DW$58, DW_AT_type(*$C$DW$T$3)
     300                            .dwendtag $C$DW$57
     301                    
     302                    
     303                    $C$DW$59        .dwtag  DW_TAG_subprogram, DW_AT_name("VLIB_histogram_1D_U8")
     304                            .dwattr $C$DW$59, DW_AT_TI_symbol_name("VLIB_histogram_1D_U8")
     305                            .dwattr $C$DW$59, DW_AT_type(*$C$DW$T$23)
     306                            .dwattr $C$DW$59, DW_AT_declaration
     307                            .dwattr $C$DW$59, DW_AT_external
     308                            .dwattr $C$DW$59, DW_AT_decl_file(".\..\packages\ti\vlib\src\VLIB_histogram_1D_U8\c66/VLIB_his
     309                            .dwattr $C$DW$59, DW_AT_decl_line(0x7b)
     310                            .dwattr $C$DW$59, DW_AT_decl_column(0x09)
     311                    $C$DW$60        .dwtag  DW_TAG_formal_parameter
     312                            .dwattr $C$DW$60, DW_AT_type(*$C$DW$T$96)
     313                    $C$DW$61        .dwtag  DW_TAG_formal_parameter
     314                            .dwattr $C$DW$61, DW_AT_type(*$C$DW$T$115)
     315                    $C$DW$62        .dwtag  DW_TAG_formal_parameter
     316                            .dwattr $C$DW$62, DW_AT_type(*$C$DW$T$115)
     317                    $C$DW$63        .dwtag  DW_TAG_formal_parameter
     318                            .dwattr $C$DW$63, DW_AT_type(*$C$DW$T$103)
     319                    $C$DW$64        .dwtag  DW_TAG_formal_parameter
     320                            .dwattr $C$DW$64, DW_AT_type(*$C$DW$T$96)
     321                    $C$DW$65        .dwtag  DW_TAG_formal_parameter
     322                            .dwattr $C$DW$65, DW_AT_type(*$C$DW$T$102)
     323                    $C$DW$66        .dwtag  DW_TAG_formal_parameter
     324                            .dwattr $C$DW$66, DW_AT_type(*$C$DW$T$102)
     325                    $C$DW$67        .dwtag  DW_TAG_formal_parameter
     326                            .dwattr $C$DW$67, DW_AT_type(*$C$DW$T$102)
     327                    $C$DW$68        .dwtag  DW_TAG_formal_parameter
     328                            .dwattr $C$DW$68, DW_AT_type(*$C$DW$T$102)
     329                            .dwendtag $C$DW$59
     330                    
TMS320C6x Assembler PC v7.4.2 Thu Mar 19 12:41:44 2015

Tools Copyright (c) 1996-2012 Texas Instruments Incorporated
package/lib/Regression/regress_d_c/./../packages/ti/vlib/src/VLIB_histogram_1D_U8/VLIB_histogram_1D_U8_d.se66 PAGE    7

     331                    
     332                    $C$DW$69        .dwtag  DW_TAG_subprogram, DW_AT_name("VLIB_histogram_1D_U8_cn")
     333                            .dwattr $C$DW$69, DW_AT_TI_symbol_name("VLIB_histogram_1D_U8_cn")
     334                            .dwattr $C$DW$69, DW_AT_type(*$C$DW$T$23)
     335                            .dwattr $C$DW$69, DW_AT_declaration
     336                            .dwattr $C$DW$69, DW_AT_external
     337                            .dwattr $C$DW$69, DW_AT_decl_file(".\..\packages\ti\vlib\src\VLIB_histogram_1D_U8\VLIB_histogr
     338                            .dwattr $C$DW$69, DW_AT_decl_line(0x20)
     339                            .dwattr $C$DW$69, DW_AT_decl_column(0x0a)
     340                    $C$DW$70        .dwtag  DW_TAG_formal_parameter
     341                            .dwattr $C$DW$70, DW_AT_type(*$C$DW$T$93)
     342                    $C$DW$71        .dwtag  DW_TAG_formal_parameter
     343                            .dwattr $C$DW$71, DW_AT_type(*$C$DW$T$115)
     344                    $C$DW$72        .dwtag  DW_TAG_formal_parameter
     345                            .dwattr $C$DW$72, DW_AT_type(*$C$DW$T$115)
     346                    $C$DW$73        .dwtag  DW_TAG_formal_parameter
     347                            .dwattr $C$DW$73, DW_AT_type(*$C$DW$T$103)
     348                    $C$DW$74        .dwtag  DW_TAG_formal_parameter
     349                            .dwattr $C$DW$74, DW_AT_type(*$C$DW$T$93)
     350                    $C$DW$75        .dwtag  DW_TAG_formal_parameter
     351                            .dwattr $C$DW$75, DW_AT_type(*$C$DW$T$102)
     352                    $C$DW$76        .dwtag  DW_TAG_formal_parameter
     353                            .dwattr $C$DW$76, DW_AT_type(*$C$DW$T$102)
     354                    $C$DW$77        .dwtag  DW_TAG_formal_parameter
     355                            .dwattr $C$DW$77, DW_AT_type(*$C$DW$T$102)
     356                    $C$DW$78        .dwtag  DW_TAG_formal_parameter
     357                            .dwattr $C$DW$78, DW_AT_type(*$C$DW$T$102)
     358                            .dwendtag $C$DW$69
     359                    
     360                    
     361                    $C$DW$79        .dwtag  DW_TAG_subprogram, DW_AT_name("histogram_1D_U8_getTestParams")
     362                            .dwattr $C$DW$79, DW_AT_TI_symbol_name("histogram_1D_U8_getTestParams")
     363                            .dwattr $C$DW$79, DW_AT_declaration
     364                            .dwattr $C$DW$79, DW_AT_external
     365                            .dwattr $C$DW$79, DW_AT_decl_file(".\..\packages\ti\vlib\src\VLIB_histogram_1D_U8\VLIB_histogr
     366                            .dwattr $C$DW$79, DW_AT_decl_line(0x2e)
     367                            .dwattr $C$DW$79, DW_AT_decl_column(0x06)
     368                    $C$DW$80        .dwtag  DW_TAG_formal_parameter
     369                            .dwattr $C$DW$80, DW_AT_type(*$C$DW$T$45)
     370                    $C$DW$81        .dwtag  DW_TAG_formal_parameter
     371                            .dwattr $C$DW$81, DW_AT_type(*$C$DW$T$77)
     372                            .dwendtag $C$DW$79
     373                    
     374                    
     375                    $C$DW$82        .dwtag  DW_TAG_subprogram, DW_AT_name("VLIB_histogram_1D_Init_U8_cn")
     376                            .dwattr $C$DW$82, DW_AT_TI_symbol_name("VLIB_histogram_1D_Init_U8_cn")
     377                            .dwattr $C$DW$82, DW_AT_type(*$C$DW$T$23)
     378                            .dwattr $C$DW$82, DW_AT_declaration
     379                            .dwattr $C$DW$82, DW_AT_external
     380                            .dwattr $C$DW$82, DW_AT_decl_file(".\..\packages\ti\vlib\src\VLIB_histogram_1D_U8\../VLIB_hist
     381                            .dwattr $C$DW$82, DW_AT_decl_line(0x20)
     382                            .dwattr $C$DW$82, DW_AT_decl_column(0x09)
     383                    $C$DW$83        .dwtag  DW_TAG_formal_parameter
     384                            .dwattr $C$DW$83, DW_AT_type(*$C$DW$T$93)
     385                    $C$DW$84        .dwtag  DW_TAG_formal_parameter
TMS320C6x Assembler PC v7.4.2 Thu Mar 19 12:41:44 2015

Tools Copyright (c) 1996-2012 Texas Instruments Incorporated
package/lib/Regression/regress_d_c/./../packages/ti/vlib/src/VLIB_histogram_1D_U8/VLIB_histogram_1D_U8_d.se66 PAGE    8

     386                            .dwattr $C$DW$84, DW_AT_type(*$C$DW$T$115)
     387                    $C$DW$85        .dwtag  DW_TAG_formal_parameter
     388                            .dwattr $C$DW$85, DW_AT_type(*$C$DW$T$93)
     389                            .dwendtag $C$DW$82
     390                    
     391                    $C$DW$86        .dwtag  DW_TAG_variable, DW_AT_name("test_cases")
     392                            .dwattr $C$DW$86, DW_AT_TI_symbol_name("test_cases")
     393                            .dwattr $C$DW$86, DW_AT_type(*$C$DW$T$23)
     394                            .dwattr $C$DW$86, DW_AT_declaration
     395                            .dwattr $C$DW$86, DW_AT_external
     396                            .dwattr $C$DW$86, DW_AT_decl_file(".\..\packages\ti\vlib\src\VLIB_histogram_1D_U8\../common/VL
     397                            .dwattr $C$DW$86, DW_AT_decl_line(0x60)
     398                            .dwattr $C$DW$86, DW_AT_decl_column(0x13)
     399                    $C$DW$87        .dwtag  DW_TAG_variable, DW_AT_name("act_kernel")
     400                            .dwattr $C$DW$87, DW_AT_TI_symbol_name("act_kernel")
     401                            .dwattr $C$DW$87, DW_AT_type(*$C$DW$T$10)
     402                            .dwattr $C$DW$87, DW_AT_declaration
     403                            .dwattr $C$DW$87, DW_AT_external
     404                            .dwattr $C$DW$87, DW_AT_decl_file(".\..\packages\ti\vlib\src\VLIB_histogram_1D_U8\../common/VL
     405                            .dwattr $C$DW$87, DW_AT_decl_line(0x62)
     406                            .dwattr $C$DW$87, DW_AT_decl_column(0x13)
     407                    $C$DW$88        .dwtag  DW_TAG_variable, DW_AT_name("desc")
     408                            .dwattr $C$DW$88, DW_AT_TI_symbol_name("desc")
     409                            .dwattr $C$DW$88, DW_AT_type(*$C$DW$T$169)
     410                            .dwattr $C$DW$88, DW_AT_declaration
     411                            .dwattr $C$DW$88, DW_AT_external
     412                            .dwattr $C$DW$88, DW_AT_decl_file(".\..\packages\ti\vlib\src\VLIB_histogram_1D_U8\../common/VL
     413                            .dwattr $C$DW$88, DW_AT_decl_line(0x63)
     414                            .dwattr $C$DW$88, DW_AT_decl_column(0x13)
     415                    $C$DW$89        .dwtag  DW_TAG_variable, DW_AT_name("testPatternString")
     416                            .dwattr $C$DW$89, DW_AT_TI_symbol_name("testPatternString")
     417                            .dwattr $C$DW$89, DW_AT_type(*$C$DW$T$169)
     418                            .dwattr $C$DW$89, DW_AT_declaration
     419                            .dwattr $C$DW$89, DW_AT_external
     420                            .dwattr $C$DW$89, DW_AT_decl_file(".\..\packages\ti\vlib\src\VLIB_histogram_1D_U8\../common/VL
     421                            .dwattr $C$DW$89, DW_AT_decl_line(0x64)
     422                            .dwattr $C$DW$89, DW_AT_decl_column(0x13)
     423                    $C$DW$90        .dwtag  DW_TAG_variable, DW_AT_name("est_test")
     424                            .dwattr $C$DW$90, DW_AT_TI_symbol_name("est_test")
     425                            .dwattr $C$DW$90, DW_AT_type(*$C$DW$T$10)
     426                            .dwattr $C$DW$90, DW_AT_declaration
     427                            .dwattr $C$DW$90, DW_AT_external
     428                            .dwattr $C$DW$90, DW_AT_decl_file(".\..\packages\ti\vlib\src\VLIB_histogram_1D_U8\..\common\VL
     429                            .dwattr $C$DW$90, DW_AT_decl_line(0x75)
     430                            .dwattr $C$DW$90, DW_AT_decl_column(0x14)
     431                    $C$DW$91        .dwtag  DW_TAG_variable, DW_AT_name("beg_count")
     432                            .dwattr $C$DW$91, DW_AT_TI_symbol_name("beg_count")
     433                            .dwattr $C$DW$91, DW_AT_type(*$C$DW$T$159)
     434                            .dwattr $C$DW$91, DW_AT_declaration
     435                            .dwattr $C$DW$91, DW_AT_external
     436                            .dwattr $C$DW$91, DW_AT_decl_file(".\..\packages\ti\vlib\src\VLIB_histogram_1D_U8\..\common\VL
     437                            .dwattr $C$DW$91, DW_AT_decl_line(0x76)
     438                            .dwattr $C$DW$91, DW_AT_decl_column(0x14)
     439                    $C$DW$92        .dwtag  DW_TAG_variable, DW_AT_name("end_count")
     440                            .dwattr $C$DW$92, DW_AT_TI_symbol_name("end_count")
TMS320C6x Assembler PC v7.4.2 Thu Mar 19 12:41:44 2015

Tools Copyright (c) 1996-2012 Texas Instruments Incorporated
package/lib/Regression/regress_d_c/./../packages/ti/vlib/src/VLIB_histogram_1D_U8/VLIB_histogram_1D_U8_d.se66 PAGE    9

     441                            .dwattr $C$DW$92, DW_AT_type(*$C$DW$T$159)
     442                            .dwattr $C$DW$92, DW_AT_declaration
     443                            .dwattr $C$DW$92, DW_AT_external
     444                            .dwattr $C$DW$92, DW_AT_decl_file(".\..\packages\ti\vlib\src\VLIB_histogram_1D_U8\..\common\VL
     445                            .dwattr $C$DW$92, DW_AT_decl_line(0x77)
     446                            .dwattr $C$DW$92, DW_AT_decl_column(0x14)
     447                    $C$DW$93        .dwtag  DW_TAG_variable, DW_AT_name("overhead")
     448                            .dwattr $C$DW$93, DW_AT_TI_symbol_name("overhead")
     449                            .dwattr $C$DW$93, DW_AT_type(*$C$DW$T$159)
     450                            .dwattr $C$DW$93, DW_AT_declaration
     451                            .dwattr $C$DW$93, DW_AT_external
     452                            .dwattr $C$DW$93, DW_AT_decl_file(".\..\packages\ti\vlib\src\VLIB_histogram_1D_U8\..\common\VL
     453                            .dwattr $C$DW$93, DW_AT_decl_line(0x78)
     454                            .dwattr $C$DW$93, DW_AT_decl_column(0x14)
     455                    $C$DW$94        .dwtag  DW_TAG_variable, DW_AT_name("cycles")
     456                            .dwattr $C$DW$94, DW_AT_TI_symbol_name("cycles")
     457                            .dwattr $C$DW$94, DW_AT_type(*$C$DW$T$160)
     458                            .dwattr $C$DW$94, DW_AT_declaration
     459                            .dwattr $C$DW$94, DW_AT_external
     460                            .dwattr $C$DW$94, DW_AT_decl_file(".\..\packages\ti\vlib\src\VLIB_histogram_1D_U8\..\common\VL
     461                            .dwattr $C$DW$94, DW_AT_decl_line(0x79)
     462                            .dwattr $C$DW$94, DW_AT_decl_column(0x14)
     463                    ;       C:\VLIB_Tools\CCSV5_4_0\ccsv5\tools\compiler\C6000\bin\opt6x.exe C:\\Users\\gtbldadm\\AppData\
     464 00000000                   .sect   ".text"
     465                            .clink
     466                            .global VLIB_histogram_1D_U8_d
     467                    
     468                    $C$DW$95        .dwtag  DW_TAG_subprogram, DW_AT_name("VLIB_histogram_1D_U8_d")
     469                            .dwattr $C$DW$95, DW_AT_low_pc(VLIB_histogram_1D_U8_d)
     470                            .dwattr $C$DW$95, DW_AT_high_pc(0x00)
     471                            .dwattr $C$DW$95, DW_AT_TI_symbol_name("VLIB_histogram_1D_U8_d")
     472                            .dwattr $C$DW$95, DW_AT_external
     473                            .dwattr $C$DW$95, DW_AT_TI_begin_file("./../packages/ti/vlib/src/VLIB_histogram_1D_U8/VLIB_his
     474                            .dwattr $C$DW$95, DW_AT_TI_begin_line(0x28)
     475                            .dwattr $C$DW$95, DW_AT_TI_begin_column(0x06)
     476                            .dwattr $C$DW$95, DW_AT_decl_file("./../packages/ti/vlib/src/VLIB_histogram_1D_U8/VLIB_histogr
     477                            .dwattr $C$DW$95, DW_AT_decl_line(0x28)
     478                            .dwattr $C$DW$95, DW_AT_decl_column(0x06)
     479                            .dwattr $C$DW$95, DW_AT_TI_max_frame_size(0x78)
     480                            .dwpsn  file "./../packages/ti/vlib/src/VLIB_histogram_1D_U8/VLIB_histogram_1D_U8_d.c",line 41
     481                    
     482                            .dwfde $C$DW$CIE, VLIB_histogram_1D_U8_d
     483                    $C$DW$96        .dwtag  DW_TAG_formal_parameter, DW_AT_name("LevelOfFeedback")
     484                            .dwattr $C$DW$96, DW_AT_TI_symbol_name("LevelOfFeedback")
     485                            .dwattr $C$DW$96, DW_AT_type(*$C$DW$T$19)
     486                            .dwattr $C$DW$96, DW_AT_location[DW_OP_reg4]
     487                    ;----------------------------------------------------------------------
     488                    ;  40 | void VLIB_histogram_1D_U8_d (uint8_t LevelOfFeedback)                  
     489                    ;----------------------------------------------------------------------
     490                    
     491                    ;******************************************************************************
     492                    ;* FUNCTION NAME: VLIB_histogram_1D_U8_d                                      *
     493                    ;*                                                                            *
     494                    ;*   Regs Modified     : A0,A1,A2,A3,A4,A5,A6,A7,A8,A9,A10,A11,A12,A13,A14,   *
     495                    ;*                           A15,B0,B1,B2,B3,B4,B5,B6,B7,B8,B9,B10,B11,B12,   *
TMS320C6x Assembler PC v7.4.2 Thu Mar 19 12:41:44 2015

Tools Copyright (c) 1996-2012 Texas Instruments Incorporated
package/lib/Regression/regress_d_c/./../packages/ti/vlib/src/VLIB_histogram_1D_U8/VLIB_histogram_1D_U8_d.se66 PAGE   10

     496                    ;*                           B13,SP,A16,A17,A18,A19,A20,A21,A22,A23,A24,A25,  *
     497                    ;*                           A26,A27,A28,A29,A30,A31,B16,B17,B18,B19,B20,B21, *
     498                    ;*                           B22,B23,B24,B25,B26,B27,B28,B29,B30,B31          *
     499                    ;*   Regs Used         : A0,A1,A2,A3,A4,A5,A6,A7,A8,A9,A10,A11,A12,A13,A14,   *
     500                    ;*                           A15,B0,B1,B2,B3,B4,B5,B6,B7,B8,B9,B10,B11,B12,   *
     501                    ;*                           B13,DP,SP,A16,A17,A18,A19,A20,A21,A22,A23,A24,   *
     502                    ;*                           A25,A26,A27,A28,A29,A30,A31,B16,B17,B18,B19,B20, *
     503                    ;*                           B21,B22,B23,B24,B25,B26,B27,B28,B29,B30,B31      *
     504                    ;*   Local Frame Size  : 24 Args + 36 Auto + 56 Save = 116 byte               *
     505                    ;******************************************************************************
     506                    
     507                    ;******************************************************************************
     508                    ;*                                                                            *
     509                    ;* Using -g (debug) with optimization (-o3) may disable key optimizations!    *
     510                    ;*                                                                            *
     511                    ;******************************************************************************
     512 00000000           VLIB_histogram_1D_U8_d:
     513                    ;** --------------------------------------------------------------------------*
     514                    ;          EXCLUSIVE CPU CYCLES: 15
     515                    ;** 47  -----------------------    histogram_1D_U8_getTestParams(&prm, &test_cases);
     516                    ;** 50  -----------------------    VLIB_profile_init(2, "VLIB_histogram_1D_U8");
     517                    ;** 53  -----------------------    if ( test_cases <= 0 ) goto g15;
     518                            .dwcfi  cfa_offset, 0
     519                    ;----------------------------------------------------------------------
     520                    ;  42 | int32_t    tpi;  /* test parameter index */                            
     521                    ;  45 | histogram_1D_U8_testParams_t   *prm;                                   
     522                    ;----------------------------------------------------------------------
     523 00000000     25f7             STW     .D2T1   A11,*SP--(8)      ; |41| 
     524                            .dwcfi  cfa_offset, 8
     525                            .dwcfi  save_reg_to_mem, 11, 0
     526 00000002     2577             STW     .D2T1   A10,*SP--(8)      ; |41| 
     527                            .dwcfi  cfa_offset, 16
     528                            .dwcfi  save_reg_to_mem, 10, -8
     529 00000004     9677             STDW    .D2T2   B13:B12,*SP--     ; |41| 
     530                            .dwcfi  cfa_offset, 24
     531                            .dwcfi  save_reg_to_mem, 29, -12
     532                            .dwcfi  save_reg_to_mem, 28, -16
     533 00000006     9577             STDW    .D2T2   B11:B10,*SP--     ; |41| 
     534                            .dwcfi  cfa_offset, 32
     535                            .dwcfi  save_reg_to_mem, 27, -20
     536                            .dwcfi  save_reg_to_mem, 26, -24
     537 00000008     8777             STDW    .D2T1   A15:A14,*SP--     ; |41| 
     538                            .dwcfi  cfa_offset, 40
     539                            .dwcfi  save_reg_to_mem, 15, -28
     540                            .dwcfi  save_reg_to_mem, 14, -32
     541 0000000a     8677             STDW    .D2T1   A13:A12,*SP--     ; |41| 
     542                            .dwcfi  cfa_offset, 48
     543                            .dwcfi  save_reg_to_mem, 13, -36
     544                            .dwcfi  save_reg_to_mem, 12, -40
     545 0000000c 01be54f6             STW     .D2T2   B3,*SP--(72)      ; |41| 
     546                            .dwcfi  cfa_offset, 120
     547                            .dwcfi  save_reg_to_mem, 19, 0
     548                    $C$DW$97        .dwtag  DW_TAG_variable, DW_AT_name("$O$C1")
     549                            .dwattr $C$DW$97, DW_AT_TI_symbol_name("$O$C1")
     550                            .dwattr $C$DW$97, DW_AT_type(*$C$DW$T$41)
TMS320C6x Assembler PC v7.4.2 Thu Mar 19 12:41:44 2015

Tools Copyright (c) 1996-2012 Texas Instruments Incorporated
package/lib/Regression/regress_d_c/./../packages/ti/vlib/src/VLIB_histogram_1D_U8/VLIB_histogram_1D_U8_d.se66 PAGE   11

     551                            .dwattr $C$DW$97, DW_AT_location[DW_OP_reg20]
     552                    $C$DW$98        .dwtag  DW_TAG_variable, DW_AT_name("$O$C2")
     553                            .dwattr $C$DW$98, DW_AT_TI_symbol_name("$O$C2")
     554                            .dwattr $C$DW$98, DW_AT_type(*$C$DW$T$10)
     555                            .dwattr $C$DW$98, DW_AT_location[DW_OP_reg6]
     556                    $C$DW$99        .dwtag  DW_TAG_variable, DW_AT_name("$O$C3")
     557                            .dwattr $C$DW$99, DW_AT_TI_symbol_name("$O$C3")
     558                            .dwattr $C$DW$99, DW_AT_type(*$C$DW$T$10)
     559                            .dwattr $C$DW$99, DW_AT_location[DW_OP_reg8]
     560                    $C$DW$100       .dwtag  DW_TAG_variable, DW_AT_name("$O$C4")
     561                            .dwattr $C$DW$100, DW_AT_TI_symbol_name("$O$C4")
     562                            .dwattr $C$DW$100, DW_AT_type(*$C$DW$T$10)
     563                            .dwattr $C$DW$100, DW_AT_location[DW_OP_reg3]
     564                    $C$DW$101       .dwtag  DW_TAG_variable, DW_AT_name("$O$C5")
     565                            .dwattr $C$DW$101, DW_AT_TI_symbol_name("$O$C5")
     566                            .dwattr $C$DW$101, DW_AT_type(*$C$DW$T$9)
     567                            .dwattr $C$DW$101, DW_AT_location[DW_OP_reg8]
     568                    $C$DW$102       .dwtag  DW_TAG_variable, DW_AT_name("$O$C6")
     569                            .dwattr $C$DW$102, DW_AT_TI_symbol_name("$O$C6")
     570                            .dwattr $C$DW$102, DW_AT_type(*$C$DW$T$9)
     571                            .dwattr $C$DW$102, DW_AT_location[DW_OP_reg8]
     572                    $C$DW$103       .dwtag  DW_TAG_variable, DW_AT_name("$O$C7")
     573                            .dwattr $C$DW$103, DW_AT_TI_symbol_name("$O$C7")
     574                            .dwattr $C$DW$103, DW_AT_type(*$C$DW$T$10)
     575                            .dwattr $C$DW$103, DW_AT_location[DW_OP_reg10]
     576                    $C$DW$104       .dwtag  DW_TAG_variable, DW_AT_name("$O$C8")
     577                            .dwattr $C$DW$104, DW_AT_TI_symbol_name("$O$C8")
     578                            .dwattr $C$DW$104, DW_AT_type(*$C$DW$T$10)
     579                            .dwattr $C$DW$104, DW_AT_location[DW_OP_reg10]
     580                    $C$DW$105       .dwtag  DW_TAG_variable, DW_AT_name("$O$U12")
     581                            .dwattr $C$DW$105, DW_AT_TI_symbol_name("$O$U12")
     582                            .dwattr $C$DW$105, DW_AT_type(*$C$DW$T$41)
     583                            .dwattr $C$DW$105, DW_AT_location[DW_OP_reg11]
     584                    $C$DW$106       .dwtag  DW_TAG_variable, DW_AT_name("$O$K54")
     585                            .dwattr $C$DW$106, DW_AT_TI_symbol_name("$O$K54")
     586                            .dwattr $C$DW$106, DW_AT_type(*$C$DW$T$81)
     587                            .dwattr $C$DW$106, DW_AT_location[DW_OP_reg12]
     588                    $C$DW$107       .dwtag  DW_TAG_variable, DW_AT_name("$O$U69")
     589                            .dwattr $C$DW$107, DW_AT_TI_symbol_name("$O$U69")
     590                            .dwattr $C$DW$107, DW_AT_type(*$C$DW$T$41)
     591                            .dwattr $C$DW$107, DW_AT_location[DW_OP_reg20]
     592                    $C$DW$108       .dwtag  DW_TAG_variable, DW_AT_name("$O$U67")
     593                            .dwattr $C$DW$108, DW_AT_TI_symbol_name("$O$U67")
     594                            .dwattr $C$DW$108, DW_AT_type(*$C$DW$T$25)
     595                            .dwattr $C$DW$108, DW_AT_location[DW_OP_reg5]
     596                    $C$DW$109       .dwtag  DW_TAG_variable, DW_AT_name("$O$U11")
     597                            .dwattr $C$DW$109, DW_AT_TI_symbol_name("$O$U11")
     598                            .dwattr $C$DW$109, DW_AT_type(*$C$DW$T$10)
     599                            .dwattr $C$DW$109, DW_AT_location[DW_OP_reg29]
     600                    $C$DW$110       .dwtag  DW_TAG_variable, DW_AT_name("$O$U29")
     601                            .dwattr $C$DW$110, DW_AT_TI_symbol_name("$O$U29")
     602                            .dwattr $C$DW$110, DW_AT_type(*$C$DW$T$11)
     603                            .dwattr $C$DW$110, DW_AT_location[DW_OP_reg27]
     604                    $C$DW$111       .dwtag  DW_TAG_variable, DW_AT_name("$O$K89")
     605                            .dwattr $C$DW$111, DW_AT_TI_symbol_name("$O$K89")
TMS320C6x Assembler PC v7.4.2 Thu Mar 19 12:41:44 2015

Tools Copyright (c) 1996-2012 Texas Instruments Incorporated
package/lib/Regression/regress_d_c/./../packages/ti/vlib/src/VLIB_histogram_1D_U8/VLIB_histogram_1D_U8_d.se66 PAGE   12

     606                            .dwattr $C$DW$111, DW_AT_type(*$C$DW$T$158)
     607                            .dwattr $C$DW$111, DW_AT_location[DW_OP_reg3]
     608                    $C$DW$112       .dwtag  DW_TAG_variable, DW_AT_name("$O$U98")
     609                            .dwattr $C$DW$112, DW_AT_TI_symbol_name("$O$U98")
     610                            .dwattr $C$DW$112, DW_AT_type(*$C$DW$T$100)
     611                            .dwattr $C$DW$112, DW_AT_location[DW_OP_reg0]
     612                    $C$DW$113       .dwtag  DW_TAG_variable, DW_AT_name("$O$K107")
     613                            .dwattr $C$DW$113, DW_AT_TI_symbol_name("$O$K107")
     614                            .dwattr $C$DW$113, DW_AT_type(*$C$DW$T$81)
     615                            .dwattr $C$DW$113, DW_AT_location[DW_OP_reg8]
     616                    $C$DW$114       .dwtag  DW_TAG_variable, DW_AT_name("tpi")
     617                            .dwattr $C$DW$114, DW_AT_TI_symbol_name("tpi")
     618                            .dwattr $C$DW$114, DW_AT_type(*$C$DW$T$23)
     619                            .dwattr $C$DW$114, DW_AT_location[DW_OP_reg14]
     620                    $C$DW$115       .dwtag  DW_TAG_variable, DW_AT_name("prm")
     621                            .dwattr $C$DW$115, DW_AT_TI_symbol_name("prm")
     622                            .dwattr $C$DW$115, DW_AT_type(*$C$DW$T$44)
     623                            .dwattr $C$DW$115, DW_AT_location[DW_OP_breg31 28]
     624                    $C$DW$116       .dwtag  DW_TAG_variable, DW_AT_name("status_nat_vs_int")
     625                            .dwattr $C$DW$116, DW_AT_TI_symbol_name("status_nat_vs_int")
     626                            .dwattr $C$DW$116, DW_AT_type(*$C$DW$T$23)
     627                            .dwattr $C$DW$116, DW_AT_location[DW_OP_reg26]
     628                    $C$DW$117       .dwtag  DW_TAG_variable, DW_AT_name("status_nat_vs_ref")
     629                            .dwattr $C$DW$117, DW_AT_TI_symbol_name("status_nat_vs_ref")
     630                            .dwattr $C$DW$117, DW_AT_type(*$C$DW$T$23)
     631                            .dwattr $C$DW$117, DW_AT_location[DW_OP_reg15]
     632                    $C$DW$118       .dwtag  DW_TAG_variable, DW_AT_name("numBinsH")
     633                            .dwattr $C$DW$118, DW_AT_TI_symbol_name("numBinsH")
     634                            .dwattr $C$DW$118, DW_AT_type(*$C$DW$T$23)
     635                            .dwattr $C$DW$118, DW_AT_location[DW_OP_reg13]
     636                    $C$DW$119       .dwtag  DW_TAG_variable, DW_AT_name("binEdges")
     637                            .dwattr $C$DW$119, DW_AT_TI_symbol_name("binEdges")
     638                            .dwattr $C$DW$119, DW_AT_type(*$C$DW$T$20)
     639                            .dwattr $C$DW$119, DW_AT_location[DW_OP_breg31 32]
     640                    $C$DW$120       .dwtag  DW_TAG_variable, DW_AT_name("histArray")
     641                            .dwattr $C$DW$120, DW_AT_TI_symbol_name("histArray")
     642                            .dwattr $C$DW$120, DW_AT_type(*$C$DW$T$20)
     643                            .dwattr $C$DW$120, DW_AT_location[DW_OP_breg31 36]
     644                    $C$DW$121       .dwtag  DW_TAG_variable, DW_AT_name("X")
     645                            .dwattr $C$DW$121, DW_AT_TI_symbol_name("X")
     646                            .dwattr $C$DW$121, DW_AT_type(*$C$DW$T$20)
     647                            .dwattr $C$DW$121, DW_AT_location[DW_OP_breg31 40]
     648                    $C$DW$122       .dwtag  DW_TAG_variable, DW_AT_name("H")
     649                            .dwattr $C$DW$122, DW_AT_TI_symbol_name("H")
     650                            .dwattr $C$DW$122, DW_AT_type(*$C$DW$T$22)
     651                            .dwattr $C$DW$122, DW_AT_location[DW_OP_breg31 44]
     652                    $C$DW$123       .dwtag  DW_TAG_variable, DW_AT_name("H_cn")
     653                            .dwattr $C$DW$123, DW_AT_TI_symbol_name("H_cn")
     654                            .dwattr $C$DW$123, DW_AT_type(*$C$DW$T$22)
     655                            .dwattr $C$DW$123, DW_AT_location[DW_OP_breg31 48]
     656                    $C$DW$124       .dwtag  DW_TAG_variable, DW_AT_name("H1")
     657                            .dwattr $C$DW$124, DW_AT_TI_symbol_name("H1")
     658                            .dwattr $C$DW$124, DW_AT_type(*$C$DW$T$22)
     659                            .dwattr $C$DW$124, DW_AT_location[DW_OP_breg31 52]
     660                    $C$DW$125       .dwtag  DW_TAG_variable, DW_AT_name("H2")
TMS320C6x Assembler PC v7.4.2 Thu Mar 19 12:41:44 2015

Tools Copyright (c) 1996-2012 Texas Instruments Incorporated
package/lib/Regression/regress_d_c/./../packages/ti/vlib/src/VLIB_histogram_1D_U8/VLIB_histogram_1D_U8_d.se66 PAGE   13

     661                            .dwattr $C$DW$125, DW_AT_TI_symbol_name("H2")
     662                            .dwattr $C$DW$125, DW_AT_type(*$C$DW$T$22)
     663                            .dwattr $C$DW$125, DW_AT_location[DW_OP_breg31 56]
     664                    $C$DW$126       .dwtag  DW_TAG_variable, DW_AT_name("H3")
     665                            .dwattr $C$DW$126, DW_AT_TI_symbol_name("H3")
     666                            .dwattr $C$DW$126, DW_AT_type(*$C$DW$T$22)
     667                            .dwattr $C$DW$126, DW_AT_location[DW_OP_breg31 60]
     668                    $C$DW$127       .dwtag  DW_TAG_variable, DW_AT_name("i")
     669                            .dwattr $C$DW$127, DW_AT_TI_symbol_name("i")
     670                            .dwattr $C$DW$127, DW_AT_type(*$C$DW$T$23)
     671                            .dwattr $C$DW$127, DW_AT_location[DW_OP_reg24]
     672                    $C$DW$128       .dwtag  DW_TAG_variable, DW_AT_name("$O$v1")
     673                            .dwattr $C$DW$128, DW_AT_TI_symbol_name("$O$v1")
     674                            .dwattr $C$DW$128, DW_AT_type(*$C$DW$T$44)
     675                            .dwattr $C$DW$128, DW_AT_location[DW_OP_reg23]
     676                    $C$DW$129       .dwtag  DW_TAG_variable, DW_AT_name("$O$v1")
     677                            .dwattr $C$DW$129, DW_AT_TI_symbol_name("$O$v1")
     678                            .dwattr $C$DW$129, DW_AT_type(*$C$DW$T$44)
     679                            .dwattr $C$DW$129, DW_AT_location[DW_OP_reg20]
     680                    $C$DW$130       .dwtag  DW_TAG_variable, DW_AT_name("$O$v2")
     681                            .dwattr $C$DW$130, DW_AT_TI_symbol_name("$O$v2")
     682                            .dwattr $C$DW$130, DW_AT_type(*$C$DW$T$159)
     683                            .dwattr $C$DW$130, DW_AT_location[DW_OP_reg22]
     684                    $C$DW$131       .dwtag  DW_TAG_variable, DW_AT_name("$O$v2")
     685                            .dwattr $C$DW$131, DW_AT_TI_symbol_name("$O$v2")
     686                            .dwattr $C$DW$131, DW_AT_type(*$C$DW$T$159)
     687                            .dwattr $C$DW$131, DW_AT_location[DW_OP_reg22]
     688 00000010 0200002a!            MVKL    .S2     test_cases,B4
     689 00000014 0200006a!            MVKH    .S2     test_cases,B4
     690                    $C$DW$132       .dwtag  DW_TAG_TI_branch
     691                            .dwattr $C$DW$132, DW_AT_low_pc(0x00)
     692                            .dwattr $C$DW$132, DW_AT_name("histogram_1D_U8_getTestParams")
     693                            .dwattr $C$DW$132, DW_AT_TI_call
     694                    
     695 00000018 10000013!            CALLP   .S2     histogram_1D_U8_getTestParams,B3
     696 00000020 120007fc  ||         ADDAW   .D1X    SP,7,A4           ; |47| 
     697                    
     698                            .dwpsn  file "./../packages/ti/vlib/src/VLIB_histogram_1D_U8/VLIB_histogram_1D_U8_d.c",line 47
     699                    ;----------------------------------------------------------------------
     700                    ;  47 | histogram_1D_U8_getTestParams(&prm, &test_cases);                      
     701                    ;----------------------------------------------------------------------
     702 00000024           $C$RL0:    ; CALL OCCURS {histogram_1D_U8_getTestParams} {0}  ; |47| 
     703                    ;** --------------------------------------------------------------------------*
     704                    ;          EXCLUSIVE CPU CYCLES: 8
     705 00000024 0200002a!            MVKL    .S2     $C$SL1+0,B4
     706 00000028 0200006a!            MVKH    .S2     $C$SL1+0,B4
     707                    $C$DW$133       .dwtag  DW_TAG_TI_branch
     708                            .dwattr $C$DW$133, DW_AT_low_pc(0x00)
     709                            .dwattr $C$DW$133, DW_AT_name("VLIB_profile_init")
     710                            .dwattr $C$DW$133, DW_AT_TI_call
     711                    
     712 0000002c 10000013!            CALLP   .S2     VLIB_profile_init,B3
     713 00000030 0208a358  ||         MVK     .L1     0x2,A4            ; |50| 
     714                    
     715                            .dwpsn  file "./../packages/ti/vlib/src/VLIB_histogram_1D_U8/VLIB_histogram_1D_U8_d.c",line 50
TMS320C6x Assembler PC v7.4.2 Thu Mar 19 12:41:44 2015

Tools Copyright (c) 1996-2012 Texas Instruments Incorporated
package/lib/Regression/regress_d_c/./../packages/ti/vlib/src/VLIB_histogram_1D_U8/VLIB_histogram_1D_U8_d.se66 PAGE   14

     716                    ;----------------------------------------------------------------------
     717                    ;  50 | VLIB_profile_init(2, "VLIB_histogram_1D_U8");                          
     718                    ;----------------------------------------------------------------------
     719 00000034           $C$RL1:    ; CALL OCCURS {VLIB_profile_init} {0}  ; |50| 
     720                    ;** --------------------------------------------------------------------------*
     721                    ;          EXCLUSIVE CPU CYCLES: 14
     722                    ;**     -----------------------    K$54 = &testPatternString[0];
     723                    ;**     -----------------------    K$107 = &desc[0];
     724                    ;**     -----------------------    U$12 = prm-32;
     725                    ;**     -----------------------    U$11 = 0;
     726                    ;** 53  -----------------------    tpi = 0;
     727                    ;**     -----------------------    #pragma LOOP_FLAGS(5120u)
     728                    
     729 00000034 0680a35b             ZERO    .L2     B13               ; |53| 
     730 00000038 01800029! ||         MVKL    .S1     test_cases,A3
     731 0000003c 033ce2e6  ||         LDW     .D2T2   *+SP(28),B6
     732                    
     733 00000040 01800068!            MVKH    .S1     test_cases,A3
     734                            .dwpsn  file "./../packages/ti/vlib/src/VLIB_histogram_1D_U8/VLIB_histogram_1D_U8_d.c",line 53
     735                    ;----------------------------------------------------------------------
     736                    ;  53 | for( tpi=0; tpi < test_cases; tpi++ ) {                                
     737                    ;----------------------------------------------------------------------
     738 00000044 020c0264             LDW     .D1T1   *A3,A4            ; |53| 
     739                            .dwpsn  file "./../packages/ti/vlib/src/VLIB_histogram_1D_U8/VLIB_histogram_1D_U8_d.c",line 53
     740                    ;----------------------------------------------------------------------
     741                    ;  56 | int32_t    status_nat_vs_int = vlib_KERNEL_PASS; /* Test status : Natur
     742                    ;     | al c vs. Optimized */                                                  
     743                    ;  57 | int32_t    status_nat_vs_ref = vlib_KERNEL_PASS; /* Test status : Natur
     744                    ;     | al c vs. Static Reference */                                           
     745                    ;----------------------------------------------------------------------
     746 00000048 0700a358             ZERO    .L1     A14               ; |53| 
     747 0000004c 02801028             MVK     .S1     32,A5
     748 00000050 0594d2f8             SUB     .L1X    B6,A5,A11
     749                            .dwpsn  file "./../packages/ti/vlib/src/VLIB_histogram_1D_U8/VLIB_histogram_1D_U8_d.c",line 60
     750                    ;----------------------------------------------------------------------
     751                    ;  60 | int32_t    numBinsH        =  (prm[tpi].numBins + 1) & ~1;             
     752                    ;----------------------------------------------------------------------
     753 00000054 05801050             ADDK    .S1     32,A11            ; |60| 
     754                            .dwpsn  file "./../packages/ti/vlib/src/VLIB_histogram_1D_U8/VLIB_histogram_1D_U8_d.c",line 53
     755 00000058 00100ad8             CMPGT   .L1     A4,0,A0           ; |53| 
     756                    
     757 0000005c d16d8121     [!A0]   BNOP    .S1     $C$L9,4           ; |53| 
     758 00000060 c52ca264  || [ A0]   LDW     .D1T1   *+A11(20),A10     ; |60| 
     759                    
     760                            .dwpsn  file "./../packages/ti/vlib/src/VLIB_histogram_1D_U8/VLIB_histogram_1D_U8_d.c",line 63
     761                    ;----------------------------------------------------------------------
     762                    ;  63 | uint8_t    *binEdges       =  (uint8_t *) VLIB_malloc(prm[tpi].numBins
     763                    ;     | * sizeof(uint8_t));                                                    
     764                    ;----------------------------------------------------------------------
     765 00000064 02280fd8             MV      .L1     A10,A4            ; |63| 
     766                            .dwpsn  file "./../packages/ti/vlib/src/VLIB_histogram_1D_U8/VLIB_histogram_1D_U8_d.c",line 53
     767                               ; BRANCHCC OCCURS {$C$L9}         ; |53| 
     768                    ;** --------------------------------------------------------------------------*
     769                    ;**   BEGIN LOOP $C$L1
     770                    ;** --------------------------------------------------------------------------*
TMS320C6x Assembler PC v7.4.2 Thu Mar 19 12:41:44 2015

Tools Copyright (c) 1996-2012 Texas Instruments Incorporated
package/lib/Regression/regress_d_c/./../packages/ti/vlib/src/VLIB_histogram_1D_U8/VLIB_histogram_1D_U8_d.se66 PAGE   15

     771 00000068           $C$L1:    
     772                            .dwpsn  file "./../packages/ti/vlib/src/VLIB_histogram_1D_U8/VLIB_histogram_1D_U8_d.c",line 53
     773 00000068           $C$DW$L$VLIB_histogram_1D_U8_d$4$B:
     774                    ;          EXCLUSIVE CPU CYCLES: 6
     775                    ;**     -----------------------g3:
     776                    ;** 60  -----------------------    C$8 = (*(U$12 += 32)).numBins;
     777                    ;** 60  -----------------------    numBinsH = C$8+1&0xfffffffe;
     778                    ;** 63  -----------------------    binEdges = VLIB_malloc((unsigned)C$8);
     779                    ;** 64  -----------------------    histArray = VLIB_malloc((unsigned)(*U$12).maxSize);
     780                    ;** 65  -----------------------    X = VLIB_malloc((unsigned)(*U$12).numX);
     781                    ;** 66  -----------------------    C$7 = numBinsH*2;
     782                    ;** 66  -----------------------    H = VLIB_malloc((unsigned)C$7);
     783                    ;** 67  -----------------------    H_cn = malloc((unsigned)C$7);
     784                    ;** 68  -----------------------    H1 = VLIB_malloc((unsigned)C$7);
     785                    ;** 69  -----------------------    H2 = VLIB_malloc((unsigned)C$7);
     786                    ;** 70  -----------------------    U$29 = C$7;
     787                    ;** 70  -----------------------    H3 = VLIB_malloc(U$29);
     788                    ;** 73  -----------------------    if ( !((binEdges != NULL)&(histArray != NULL)&(X != NULL)&(H != NUL
     789                            .dwpsn  file "./../packages/ti/vlib/src/VLIB_histogram_1D_U8/VLIB_histogram_1D_U8_d.c",line 63
     790                    $C$DW$134       .dwtag  DW_TAG_TI_branch
     791                            .dwattr $C$DW$134, DW_AT_low_pc(0x00)
     792                            .dwattr $C$DW$134, DW_AT_name("VLIB_malloc")
     793                            .dwattr $C$DW$134, DW_AT_TI_call
     794 00000068 00000010!            CALL    .S1     VLIB_malloc       ; |63| 
     795 0000006c 01848162             ADDKPC  .S2     $C$RL2,B3,4       ; |63| 
     796 00000070           $C$RL2:    ; CALL OCCURS {VLIB_malloc} {0}   ; |63| 
     797 00000070           $C$DW$L$VLIB_histogram_1D_U8_d$4$E:
     798                    ;** --------------------------------------------------------------------------*
     799 00000070           $C$DW$L$VLIB_histogram_1D_U8_d$5$B:
     800                    ;          EXCLUSIVE CPU CYCLES: 46
     801 00000070 023d02f4             STW     .D2T1   A4,*+SP(32)       ; |63| 
     802                    $C$DW$135       .dwtag  DW_TAG_TI_branch
     803                            .dwattr $C$DW$135, DW_AT_low_pc(0x00)
     804                            .dwattr $C$DW$135, DW_AT_name("VLIB_malloc")
     805                            .dwattr $C$DW$135, DW_AT_TI_call
     806                    
     807 00000074 10000013!            CALLP   .S2     VLIB_malloc,B3
     808 00000078 022ce264  ||         LDW     .D1T1   *+A11(28),A4      ; |64| 
     809                    
     810                            .dwpsn  file "./../packages/ti/vlib/src/VLIB_histogram_1D_U8/VLIB_histogram_1D_U8_d.c",line 64
     811                    ;----------------------------------------------------------------------
     812                    ;  64 | uint8_t    *histArray      =  (uint8_t *) VLIB_malloc(prm[tpi].maxSize
     813                    ;     | * sizeof(uint8_t));                                                    
     814                    ;----------------------------------------------------------------------
     815 0000007c           $C$RL3:    ; CALL OCCURS {VLIB_malloc} {0}   ; |64| 
     816 0000007c 023d22f4             STW     .D2T1   A4,*+SP(36)       ; |64| 
     817                    $C$DW$136       .dwtag  DW_TAG_TI_branch
     818                            .dwattr $C$DW$136, DW_AT_low_pc(0x00)
     819                            .dwattr $C$DW$136, DW_AT_name("VLIB_malloc")
     820                            .dwattr $C$DW$136, DW_AT_TI_call
     821                    
     822 00000080 10000013!            CALLP   .S2     VLIB_malloc,B3
     823 00000084 022c8264  ||         LDW     .D1T1   *+A11(16),A4      ; |65| 
     824                    
     825                            .dwpsn  file "./../packages/ti/vlib/src/VLIB_histogram_1D_U8/VLIB_histogram_1D_U8_d.c",line 65
TMS320C6x Assembler PC v7.4.2 Thu Mar 19 12:41:44 2015

Tools Copyright (c) 1996-2012 Texas Instruments Incorporated
package/lib/Regression/regress_d_c/./../packages/ti/vlib/src/VLIB_histogram_1D_U8/VLIB_histogram_1D_U8_d.se66 PAGE   16

     826                    ;----------------------------------------------------------------------
     827                    ;  65 | uint8_t    *X              =  (uint8_t *) VLIB_malloc(prm[tpi].numX * s
     828                    ;     | izeof(uint8_t));                                                       
     829                    ;----------------------------------------------------------------------
     830 00000088           $C$RL4:    ; CALL OCCURS {VLIB_malloc} {0}   ; |65| 
     831                            .dwpsn  file "./../packages/ti/vlib/src/VLIB_histogram_1D_U8/VLIB_histogram_1D_U8_d.c",line 60
     832 00000088 01a82058             ADD     .L1     1,A10,A3          ; |60| 
     833 0000008c 068fcf58             AND     .L1     -2,A3,A13         ; |60| 
     834                    $C$DW$137       .dwtag  DW_TAG_TI_branch
     835                            .dwattr $C$DW$137, DW_AT_low_pc(0x00)
     836                            .dwattr $C$DW$137, DW_AT_name("VLIB_malloc")
     837                            .dwattr $C$DW$137, DW_AT_TI_call
     838                    
     839 00000090 10000013!            CALLP   .S2     VLIB_malloc,B3
     840 00000094 0535a079  ||         ADD     .L1     A13,A13,A10       ; |66| 
     841 00000098 023d42f5  ||         STW     .D2T1   A4,*+SP(40)       ; |65| 
     842 0000009c 0235a1e0  ||         ADD     .S1     A13,A13,A4        ; |66| 
     843                    
     844                            .dwpsn  file "./../packages/ti/vlib/src/VLIB_histogram_1D_U8/VLIB_histogram_1D_U8_d.c",line 66
     845                    ;----------------------------------------------------------------------
     846                    ;  66 | uint16_t   *H              =  (uint16_t *) VLIB_malloc(numBinsH * sizeo
     847                    ;     | f(uint16_t));                                                          
     848                    ;----------------------------------------------------------------------
     849                    $C$RL5:    ; CALL OCCURS {VLIB_malloc} {0}   ; |66| 
     850                    $C$DW$138       .dwtag  DW_TAG_TI_branch
     851                            .dwattr $C$DW$138, DW_AT_low_pc(0x00)
     852                            .dwattr $C$DW$138, DW_AT_name("malloc")
     853                            .dwattr $C$DW$138, DW_AT_TI_call
     854                    
     855 000000a0 10000013!            CALLP   .S2     malloc,B3
     856 000000a4 023d62f5  ||         STW     .D2T1   A4,*+SP(44)       ; |66| 
     857 000000a8 02280fd8  ||         MV      .L1     A10,A4            ; |67| 
     858                    
     859                            .dwpsn  file "./../packages/ti/vlib/src/VLIB_histogram_1D_U8/VLIB_histogram_1D_U8_d.c",line 67
     860                    ;----------------------------------------------------------------------
     861                    ;  67 | uint16_t   *H_cn           =  (uint16_t *) malloc(numBinsH * sizeof(uin
     862                    ;     | t16_t));                                                               
     863                    ;----------------------------------------------------------------------
     864                    $C$RL6:    ; CALL OCCURS {malloc} {0}        ; |67| 
     865                    $C$DW$139       .dwtag  DW_TAG_TI_branch
     866                            .dwattr $C$DW$139, DW_AT_low_pc(0x00)
     867                            .dwattr $C$DW$139, DW_AT_name("VLIB_malloc")
     868                            .dwattr $C$DW$139, DW_AT_TI_call
     869                    
     870 000000ac 10000013!            CALLP   .S2     VLIB_malloc,B3
     871 000000b0 023d82f5  ||         STW     .D2T1   A4,*+SP(48)       ; |67| 
     872 000000b4 02280fd9  ||         MV      .L1     A10,A4            ; |68| 
     873                    
     874                            .dwpsn  file "./../packages/ti/vlib/src/VLIB_histogram_1D_U8/VLIB_histogram_1D_U8_d.c",line 68
     875                    ;----------------------------------------------------------------------
     876                    ;  68 | uint16_t   *H1             =  (uint16_t *) VLIB_malloc(numBinsH * sizeo
     877                    ;     | f(uint16_t));                                                          
     878                    ;----------------------------------------------------------------------
     879                    $C$RL7:    ; CALL OCCURS {VLIB_malloc} {0}   ; |68| 
     880                    $C$DW$140       .dwtag  DW_TAG_TI_branch
TMS320C6x Assembler PC v7.4.2 Thu Mar 19 12:41:44 2015

Tools Copyright (c) 1996-2012 Texas Instruments Incorporated
package/lib/Regression/regress_d_c/./../packages/ti/vlib/src/VLIB_histogram_1D_U8/VLIB_histogram_1D_U8_d.se66 PAGE   17

     881                            .dwattr $C$DW$140, DW_AT_low_pc(0x00)
     882                            .dwattr $C$DW$140, DW_AT_name("VLIB_malloc")
     883                            .dwattr $C$DW$140, DW_AT_TI_call
     884                    
     885 000000c0 10000013!            CALLP   .S2     VLIB_malloc,B3
     886 000000c4     adc5  ||         STW     .D2T1   A4,*+SP(52)       ; |68| 
     887 000000c6     8506  ||         MV      .L1     A10,A4            ; |69| 
     888                    
     889                            .dwpsn  file "./../packages/ti/vlib/src/VLIB_histogram_1D_U8/VLIB_histogram_1D_U8_d.c",line 69
     890                    ;----------------------------------------------------------------------
     891                    ;  69 | uint16_t   *H2             =  (uint16_t *) VLIB_malloc(numBinsH * sizeo
     892                    ;     | f(uint16_t));                                                          
     893                    ;----------------------------------------------------------------------
     894                    $C$RL8:    ; CALL OCCURS {VLIB_malloc} {0}   ; |69| 
     895                    $C$DW$141       .dwtag  DW_TAG_TI_branch
     896                            .dwattr $C$DW$141, DW_AT_low_pc(0x00)
     897                            .dwattr $C$DW$141, DW_AT_name("VLIB_malloc")
     898                            .dwattr $C$DW$141, DW_AT_TI_call
     899                    
     900 000000c8 10000013!            CALLP   .S2     VLIB_malloc,B3
     901 000000cc     cdc5  ||         STW     .D2T1   A4,*+SP(56)       ; |69| 
     902 000000ce     8506  ||         MV      .L1     A10,A4            ; |70| 
     903                    
     904                            .dwpsn  file "./../packages/ti/vlib/src/VLIB_histogram_1D_U8/VLIB_histogram_1D_U8_d.c",line 70
     905                    ;----------------------------------------------------------------------
     906                    ;  70 | uint16_t   *H3             =  (uint16_t *) VLIB_malloc(numBinsH * sizeo
     907                    ;     | f(uint16_t));                                                          
     908                    ;----------------------------------------------------------------------
     909 000000d0           $C$RL9:    ; CALL OCCURS {VLIB_malloc} {0}   ; |70| 
     910 000000d0           $C$DW$L$VLIB_histogram_1D_U8_d$5$E:
     911                    ;** --------------------------------------------------------------------------*
     912 000000d0           $C$DW$L$VLIB_histogram_1D_U8_d$6$B:
     913                    ;          EXCLUSIVE CPU CYCLES: 22
     914                    
     915 000000d0     8d0d             LDW     .D2T1   *+SP(32),A0       ; |73| 
     916 000000d2     0627  ||         ZERO    .L2     B4                ; |73| 
     917 000000d4     0293  ||         ZERO    .S2     B5                ; |73| 
     918 000000d6     05a6  ||         ZERO    .L1     A3                ; |73| 
     919 000000d8     0292  ||         ZERO    .S1     A5                ; |73| 
     920                    
     921 000000da     bd0d             LDW     .D2T2   *+SP(36),B0       ; |73| 
     922 000000e0 05a81fda  ||         MV      .L2X    A10,B11           ; |70| 
     923                    
     924                            .dwpsn  file "./../packages/ti/vlib/src/VLIB_histogram_1D_U8/VLIB_histogram_1D_U8_d.c",line 73
     925                    ;----------------------------------------------------------------------
     926                    ;  73 | if( binEdges && histArray && X && H && H_cn && H1 && H2 && H3 ) {      
     927                    ;  75 |     int32_t    fail, i;                                                
     928                    ;  78 |     VLIB_fillBuffer(STATIC,                                            
     929                    ;  79 |                     (uint8_t)1,                                        
     930                    ;  80 |                     binEdges, prm[tpi].staticInEdges,                  
     931                    ;  81 |                     prm[tpi].numBins, 1, prm[tpi].numBins,             
     932                    ;  82 |                     sizeof(binEdges[0]), testPatternString);           
     933                    ;  84 |     VLIB_fillBuffer(prm[tpi].testPattern,                              
     934                    ;  85 |                     (uint8_t)1,                                        
     935                    ;  86 |                     X, prm[tpi].staticInImg,                           
TMS320C6x Assembler PC v7.4.2 Thu Mar 19 12:41:44 2015

Tools Copyright (c) 1996-2012 Texas Instruments Incorporated
package/lib/Regression/regress_d_c/./../packages/ti/vlib/src/VLIB_histogram_1D_U8/VLIB_histogram_1D_U8_d.se66 PAGE   18

     936                    ;  87 |                     prm[tpi].numX, 1, prm[tpi].numX * sizeof(X[0]),    
     937                    ;  88 |                     sizeof(X[0]), testPatternString);                  
     938                    ;  90 |     for( i=0; i < prm[tpi].numX; i++ ) {                               
     939                    ;  91 |         if( X[i] > prm[tpi].maxSize - 1 ) {                            
     940                    ;  92 |             X[i] = prm[tpi].maxSize - 1;                               
     941                    ;  97 |     memset(histArray, 0, prm[tpi].maxSize * sizeof(uint8_t));          
     942                    ;  99 |     VLIB_histogram_1D_Init_U8_cn(binEdges, prm[tpi].numBins, histArray)
     943                    ;     | ;                                                                      
     944                    ; 102 |     memset(H, 0, numBinsH * sizeof(uint16_t));                         
     945                    ; 103 |     memset(H1, 0, numBinsH * sizeof(uint16_t));                        
     946                    ; 104 |     memset(H2, 0, numBinsH * sizeof(uint16_t));                        
     947                    ; 105 |     memset(H3, 0, numBinsH * sizeof(uint16_t));                        
     948                    ; 108 |     VLIB_profile_start(vlib_KERNEL_OPT);                               
     949                    ; 109 |     VLIB_histogram_1D_U8(X, prm[tpi].numX, numBinsH, prm[tpi].binWeight
     950                    ;     | , histArray, H1, H2, H3, H);                                           
     951                    ; 110 |     VLIB_profile_stop();                                               
     952                    ; 113 |     memset(H_cn, 0, numBinsH * sizeof(uint16_t));                      
     953                    ; 114 |     memset(H1, 0, numBinsH * sizeof(uint16_t));                        
     954                    ; 115 |     memset(H2, 0, numBinsH * sizeof(uint16_t));                        
     955                    ; 116 |     memset(H3, 0, numBinsH * sizeof(uint16_t));                        
     956                    ; 119 |     VLIB_profile_start(vlib_KERNEL_CN);                                
     957                    ; 120 |     VLIB_histogram_1D_U8_cn(X, prm[tpi].numX, numBinsH, prm[tpi].binWei
     958                    ;     | ght, histArray, H1, H2, H3, H_cn);                                     
     959                    ; 121 |     VLIB_profile_stop();                                               
     960                    ; 125 |     status_nat_vs_int = VLIB_compare_mem((void *) H, (void *)H_cn, prm[
     961                    ;     | tpi].numBins * sizeof(uint16_t));                                      
     962                    ; 128 |     if( prm[tpi].staticOut != NULL ) {                                 
     963                    ; 129 |         status_nat_vs_ref = VLIB_compare_mem((void *) prm[tpi].staticOu
     964                    ;     | t, (void *)H_cn, prm[tpi].numBins * sizeof(uint16_t));                 
     965                    ; 133 |     fail = ((status_nat_vs_int == vlib_KERNEL_FAIL) || (status_nat_vs_r
     966                    ;     | ef == vlib_KERNEL_FAIL)) ? 1 : 0;                                      
     967                    ; 135 |     est_test=1;                                                        
     968                    ; 138 |     sprintf(desc, "%s generated input | Opt results compared to NatC re
     969                    ;     | sults | numBins=%d, maxSize=%d, numX=%d",                              
     970                    ; 139 |             testPatternString, numBinsH, prm[tpi].maxSize, prm[tpi].num
     971                    ;     | X);                                                                    
     972                    ; 140 |     VLIB_formula_add_test(prm[tpi].numX, NULL, NULL, fail, desc, NULL);
     973                    ; 142 | } else {                                                               
     974                    ;----------------------------------------------------------------------
     975 000000e4     ed2d             LDW     .D2T1   *+SP(44),A2       ; |73| 
     976 000000e6     cd1d             LDW     .D2T1   *+SP(40),A1       ; |73| 
     977 000000e8     9dad             LDW     .D2T2   *+SP(48),B2       ; |73| 
     978                    
     979 000000ea     2ae7     [ A0]   MVK     .L2     0x1,B5            ; |73| 
     980 000000ec     ad8d  ||         LDW     .D2T1   *+SP(52),A0       ; |73| 
     981                    
     982 000000ee     aa67     [ B0]   MVK     .L2     0x1,B4            ; |73| 
     983 000000f0     edc5  ||         STW     .D2T1   A4,*+SP(60)       ; |70| 
     984 000000f2     0626  ||         ZERO    .L1     A4                ; |73| 
     985                    
     986 000000f4 02948f7b             AND     .L2     B4,B5,B5          ; |73| 
     987 000000f8     0213  ||         ZERO    .S2     B4                ; |73| 
     988 000000fa     dd9d  ||         LDW     .D2T2   *+SP(56),B1       ; |73| 
     989                    
     990 00000100 a204a35b     [ A2]   MVK     .L2     0x1,B4            ; |73| 
TMS320C6x Assembler PC v7.4.2 Thu Mar 19 12:41:44 2015

Tools Copyright (c) 1996-2012 Texas Instruments Incorporated
package/lib/Regression/regress_d_c/./../packages/ti/vlib/src/VLIB_histogram_1D_U8/VLIB_histogram_1D_U8_d.se66 PAGE   19

     991 00000108 013de2e4  ||         LDW     .D2T1   *+SP(60),A2       ; |73| 
     992 00000104 8184a359  || [ A1]   MVK     .L1     0x1,A3            ; |73| 
     993                    
     994 0000010c 6284a358     [ B2]   MVK     .L1     0x1,A5            ; |73| 
     995                    
     996 00000110 028cbf7b             AND     .L2X    A3,B5,B5          ; |73| 
     997 00000114     05a6  ||         ZERO    .L1     A3                ; |73| 
     998                    
     999 00000118 02948f7a             AND     .L2     B4,B5,B5          ; |73| 
    1000 00000116     0213  ||         ZERO    .S2     B4                ; |73| 
    1001                    
    1002 00000128 c204a35a     [ A0]   MVK     .L2     0x1,B4            ; |73| 
    1003 00000124 0294b7e3  ||         AND     .S2X    A5,B5,B5          ; |73| 
    1004 00000120 4204a359  || [ B1]   MVK     .L1     0x1,A4            ; |73| 
    1005                    
    1006 0000012c a184a359     [ A2]   MVK     .L1     0x1,A3            ; |73| 
    1007 00000130 02148f7a  ||         AND     .L2     B4,B5,B4          ; |73| 
    1008                    
    1009 00000134 02109f7a             AND     .L2X    A4,B4,B4          ; |73| 
    1010 00000138     9589             AND     .L2X    A3,B4,B0          ; |73| 
    1011                    
    1012 00000148 30008212     [!B0]   B       .S2     $C$L7             ; |73| 
    1013 00000140 242d4205  || [ B0]   LDHU    .D1T1   *+A11(20),A8      ; |78| 
    1014 00000144 26000029! || [ B0]   MVKL    .S1     testPatternString,A12
    1015 0000013a     aa67  || [ B0]   MVK     .L2     0x1,B4            ; |78| 
    1016                    
    1017                    $C$DW$142       .dwtag  DW_TAG_TI_branch
    1018                            .dwattr $C$DW$142, DW_AT_low_pc(0x00)
    1019                            .dwattr $C$DW$142, DW_AT_name("VLIB_fillBuffer")
    1020                            .dwattr $C$DW$142, DW_AT_TI_call
    1021                    
    1022 0000014c 20000011!    [ B0]   CALL    .S1     VLIB_fillBuffer   ; |78| 
    1023 00000150 322ce264  || [!B0]   LDW     .D1T1   *+A11(28),A4      ; |144| 
    1024                    
    1025 00000154 233d02e5     [ B0]   LDW     .D2T1   *+SP(32),A6       ; |78| 
    1026 00000158 232c2266  || [ B0]   LDW     .D1T2   *+A11(4),B6       ; |78| 
    1027                    
    1028                            .dwpsn  file "./../packages/ti/vlib/src/VLIB_histogram_1D_U8/VLIB_histogram_1D_U8_d.c",line 14
    1029                    ;----------------------------------------------------------------------
    1030                    ; 144 | sprintf(desc, "numBins=%d, maxSize=%d, numX=%d",                       
    1031                    ; 145 |         numBinsH, prm[tpi].maxSize, prm[tpi].numX);                    
    1032                    ;----------------------------------------------------------------------
    1033 0000015c 31ac8264     [!B0]   LDW     .D1T1   *+A11(16),A3      ; |144| 
    1034                    $C$DW$143       .dwtag  DW_TAG_TI_branch
    1035                            .dwattr $C$DW$143, DW_AT_low_pc(0x00)
    1036                            .dwattr $C$DW$143, DW_AT_name("sprintf")
    1037                            .dwattr $C$DW$143, DW_AT_TI_call
    1038 00000160 30000010!    [!B0]   CALL    .S1     sprintf           ; |144| 
    1039 00000164 3200002a!    [!B0]   MVKL    .S2     $C$SL3+0,B4
    1040                            .dwpsn  file "./../packages/ti/vlib/src/VLIB_histogram_1D_U8/VLIB_histogram_1D_U8_d.c",line 73
    1041                               ; BRANCHCC OCCURS {$C$L7}         ; |73| 
    1042 00000168           $C$DW$L$VLIB_histogram_1D_U8_d$6$E:
    1043                    ;** --------------------------------------------------------------------------*
    1044 00000168           $C$DW$L$VLIB_histogram_1D_U8_d$7$B:
    1045                    ;          EXCLUSIVE CPU CYCLES: 1
TMS320C6x Assembler PC v7.4.2 Thu Mar 19 12:41:44 2015

Tools Copyright (c) 1996-2012 Texas Instruments Incorporated
package/lib/Regression/regress_d_c/./../packages/ti/vlib/src/VLIB_histogram_1D_U8/VLIB_histogram_1D_U8_d.se66 PAGE   20

    1046                    ;** 78  -----------------------    C$6 = (unsigned short)(*U$12).numBins;
    1047                    ;** 78  -----------------------    VLIB_fillBuffer(4u, 1u, (void *)binEdges, (*U$12).staticInEdges, C$
    1048                    ;** 84  -----------------------    C$5 = (unsigned short)(*U$12).numX;
    1049                    ;** 84  -----------------------    VLIB_fillBuffer((*U$12).testPattern, 1u, (void *)X, (*U$12).staticI
    1050                    ;** 90  -----------------------    v$1 = prm;
    1051                    ;** 90  -----------------------    if ( (*U$12).numX <= 0 ) goto g9;
    1052                    
    1053 00000168     8626             MVK     .L1     0x4,A4            ; |78| 
    1054 0000016c 06000069! ||         MVKH    .S1     testPatternString,A12
    1055 0000016a     4647  ||         MV      .L2     B4,B10            ; |78| 
    1056 00000178 041008f2  ||         MV      .D2     B4,B8             ; |78| 
    1057 00000174 052008f1  ||         MV      .D1     A8,A10            ; |78| 
    1058 00000170 01880163  ||         ADDKPC  .S2     $C$RL10,B3,0      ; |78| 
    1059                    
    1060                            .dwpsn  file "./../packages/ti/vlib/src/VLIB_histogram_1D_U8/VLIB_histogram_1D_U8_d.c",line 78
    1061 00000180           $C$RL10:   ; CALL OCCURS {VLIB_fillBuffer} {0}  ; |78| 
    1062 00000180           $C$DW$L$VLIB_histogram_1D_U8_d$7$E:
    1063                    ;** --------------------------------------------------------------------------*
    1064 00000180           $C$DW$L$VLIB_histogram_1D_U8_d$8$B:
    1065                    ;          EXCLUSIVE CPU CYCLES: 11
    1066                            .dwpsn  file "./../packages/ti/vlib/src/VLIB_histogram_1D_U8/VLIB_histogram_1D_U8_d.c",line 84
    1067 00000180 042d0204             LDHU    .D1T1   *+A11(16),A8      ; |84| 
    1068 00000184 022c0214             LDBU    .D1T1   *A11,A4           ; |84| 
    1069 00000188     8507             MV      .L2     B10,B4            ; |84| 
    1070 0000018a     cd6d             LDW     .D2T1   *+SP(40),A6       ; |84| 
    1071 0000018c 032c4266             LDW     .D1T2   *+A11(8),B6       ; |84| 
    1072                    $C$DW$144       .dwtag  DW_TAG_TI_branch
    1073                            .dwattr $C$DW$144, DW_AT_low_pc(0x08)
    1074                            .dwattr $C$DW$144, DW_AT_name("VLIB_fillBuffer")
    1075                            .dwattr $C$DW$144, DW_AT_TI_call
    1076                    
    1077 00000190 05200fd9             MV      .L1     A8,A10            ; |84| 
    1078 00000194 04280fdb  ||         MV      .L2     B10,B8            ; |84| 
    1079 00000198 10000012! ||         CALLP   .S2     VLIB_fillBuffer,B3
    1080                    
    1081 000001a0           $C$RL11:   ; CALL OCCURS {VLIB_fillBuffer} {0}  ; |84| 
    1082 000001a0           $C$DW$L$VLIB_histogram_1D_U8_d$8$E:
    1083                    ;** --------------------------------------------------------------------------*
    1084 000001a0           $C$DW$L$VLIB_histogram_1D_U8_d$9$B:
    1085                    ;          EXCLUSIVE CPU CYCLES: 12
    1086                            .dwpsn  file "./../packages/ti/vlib/src/VLIB_histogram_1D_U8/VLIB_histogram_1D_U8_d.c",line 90
    1087 000001a0 01ac8264             LDW     .D1T1   *+A11(16),A3      ; |90| 
    1088 000001a4     fcfd             LDW     .D2T2   *+SP(28),B7       ; |90| 
    1089 000001a6     4c6e             NOP             3
    1090                    
    1091 000001a8     11a6             CMPGT   .L1     A3,0,A0           ; |90| 
    1092 000001aa     cd3d  ||         LDW     .D2T1   *+SP(40),A3
    1093                    
    1094 000001ac d05a4121     [!A0]   BNOP    .S1     $C$L5,2           ; |90| 
    1095 000001b0 c2b4e07b  || [ A0]   ADD     .L2     B7,B13,B5
    1096 000001b4 c3281fd8  || [ A0]   MV      .L1X    B10,A6
    1097                    
    1098                            .dwpsn  file "./../packages/ti/vlib/src/VLIB_histogram_1D_U8/VLIB_histogram_1D_U8_d.c",line 91
    1099 000001b8 c314e2e6     [ A0]   LDW     .D2T2   *+B5(28),B6       ; |91| (P) <0,0>  ^ 
    1100 000001c0 028fe058             SUB     .L1     A3,1,A5
TMS320C6x Assembler PC v7.4.2 Thu Mar 19 12:41:44 2015

Tools Copyright (c) 1996-2012 Texas Instruments Incorporated
package/lib/Regression/regress_d_c/./../packages/ti/vlib/src/VLIB_histogram_1D_U8/VLIB_histogram_1D_U8_d.se66 PAGE   21

    1101 000001c4 c2143214     [ A0]   LDBU    .D1T1   *++A5,A4          ; |91| (P) <0,1> 
    1102                            .dwpsn  file "./../packages/ti/vlib/src/VLIB_histogram_1D_U8/VLIB_histogram_1D_U8_d.c",line 90
    1103                               ; BRANCHCC OCCURS {$C$L5}         ; |90| 
    1104 000001c8           $C$DW$L$VLIB_histogram_1D_U8_d$9$E:
    1105                    ;** --------------------------------------------------------------------------*
    1106 000001c8           $C$DW$L$VLIB_histogram_1D_U8_d$10$B:
    1107                    ;          EXCLUSIVE CPU CYCLES: 4
    1108                    ;**     -----------------------    U$67 = &X[-1];
    1109                    ;**     -----------------------    U$69 = U$11+v$1;
    1110                    ;** 90  -----------------------    i = 0;
    1111                    ;**     -----------------------    #pragma LOOP_FLAGS(4096u)
    1112                    ;**     -----------------------g6:
    1113                    ;** 91  -----------------------    C$4 = (*U$69).maxSize-1;
    1114                    ;** 91  -----------------------    if ( *(++U$67) <= C$4 ) goto g8;
    1115                    ;** 92  -----------------------    *U$67 = C$4;
    1116                    ;** 92  -----------------------    v$1 = prm;
    1117                    ;**     -----------------------    U$69 = U$11+v$1;
    1118                    ;**     -----------------------g8:
    1119                    ;** 90  -----------------------    if ( (*U$69).numX > (++i) ) goto g6;
    1120                    
    1121 000001c8 0234e07b             ADD     .L2     B7,B13,B4
    1122 000001cc 0400002b  ||         ZERO    .S2     B8                ; |90| 
    1123 000001d0 04b408f3  ||         MV      .D2     B13,B9
    1124 000001d4 03a81fd8  ||         MV      .L1X    B10,A7
    1125                    
    1126 000001d8 001807b0             ROTL    .M1     A6,0,A0           ; |90| (P) <0,5> Post-sched spill
    1127 000001dc 01281fd8             MV      .L1X    B10,A2
    1128                            .dwpsn  file "./../packages/ti/vlib/src/VLIB_histogram_1D_U8/VLIB_histogram_1D_U8_d.c",line 91
    1129 000001e0 019bf058             SUB     .L1X    B6,1,A3           ; |91| (P) <0,5>  ^ 
    1130 000001e4           $C$DW$L$VLIB_histogram_1D_U8_d$10$E:
    1131                    ;*----------------------------------------------------------------------------*
    1132                    ;*   SOFTWARE PIPELINE INFORMATION
    1133                    ;*
    1134                    ;*      Loop found in file               : ./../packages/ti/vlib/src/VLIB_histogram_1D_U8/VLIB_histogr
    1135                    ;*      Loop source line                 : 90
    1136                    ;*      Loop opening brace source line   : 90
    1137                    ;*      Loop closing brace source line   : 94
    1138                    ;*      Known Minimum Trip Count         : 1                    
    1139                    ;*      Known Max Trip Count Factor      : 1
    1140                    ;*      Loop Carried Dependency Bound(^) : 22
    1141                    ;*      Unpartitioned Resource Bound     : 4
    1142                    ;*      Partitioned Resource Bound(*)    : 5
    1143                    ;*      Resource Partition:
    1144                    ;*                                A-side   B-side
    1145                    ;*      .L units                     1        1     
    1146                    ;*      .S units                     1        0     
    1147                    ;*      .D units                     2        3     
    1148                    ;*      .M units                     0        0     
    1149                    ;*      .X cross paths               1        0     
    1150                    ;*      .T address paths             2        3     
    1151                    ;*      Long read paths              0        0     
    1152                    ;*      Long write paths             0        0     
    1153                    ;*      Logical  ops (.LS)           0        0     (.L or .S unit)
    1154                    ;*      Addition ops (.LSD)         10        5     (.L or .S or .D unit)
    1155                    ;*      Bound(.L .S .LS)             1        1     
TMS320C6x Assembler PC v7.4.2 Thu Mar 19 12:41:44 2015

Tools Copyright (c) 1996-2012 Texas Instruments Incorporated
package/lib/Regression/regress_d_c/./../packages/ti/vlib/src/VLIB_histogram_1D_U8/VLIB_histogram_1D_U8_d.se66 PAGE   22

    1156                    ;*      Bound(.L .S .D .LS .LSD)     5*       3     
    1157                    ;*
    1158                    ;*      Searching for software pipeline schedule at ...
    1159                    ;*         ii = 22 Cannot allocate machine registers
    1160                    ;*                   Regs Live Always   :  1/3  (A/B-side)
    1161                    ;*                   Max Regs Live      :  7/10
    1162                    ;*                   Max Cond Regs Live :  3/1 
    1163                    ;*         ii = 22 Schedule found with 2 iterations in parallel
    1164                    ;*
    1165                    ;*      Register Usage Table:
    1166                    ;*          +-----------------------------------------------------------------+
    1167                    ;*          |AAAAAAAAAAAAAAAAAAAAAAAAAAAAAAAA|BBBBBBBBBBBBBBBBBBBBBBBBBBBBBBBB|
    1168                    ;*          |00000000001111111111222222222233|00000000001111111111222222222233|
    1169                    ;*          |01234567890123456789012345678901|01234567890123456789012345678901|
    1170                    ;*          |--------------------------------+--------------------------------|
    1171                    ;*       0: |* **** *                        |    * ****     ***              |
    1172                    ;*       1: |****** *                        |    * ****     ***              |
    1173                    ;*       2: | *******                        |    * ****     ***              |
    1174                    ;*       3: | ** ** *                        |    * ****     ***              |
    1175                    ;*       4: | ** ** *                        |    * ****     ***              |
    1176                    ;*       5: | ** ** *                        |    * ****     ***              |
    1177                    ;*       6: |*** **                          |    * ****     ***              |
    1178                    ;*       7: |*** **                          |    * ****     ***              |
    1179                    ;*       8: |*** **                          |    * ****     ***              |
    1180                    ;*       9: |* * **                          |    * ****     ***              |
    1181                    ;*      10: |  ****                          |    * ****     ***              |
    1182                    ;*      11: |  ****                          |    * ****     ***              |
    1183                    ;*      12: |  ****                          |    * ****     ***              |
    1184                    ;*      13: |  ****                          |    * ****     ***              |
    1185                    ;*      14: |  ****                          |    * ****     ***              |
    1186                    ;*      15: |  ****                          |*   ******     ***              |
    1187                    ;*      16: |  ****                          |    ******     ***              |
    1188                    ;*      17: |  *****                         |    * ****     ***              |
    1189                    ;*      18: |* ****                          |    * ****     ***              |
    1190                    ;*      19: |* ****                          |    * ****     ***              |
    1191                    ;*      20: |* * ***                         |    * ****     ***              |
    1192                    ;*      21: |* *****                         |    * ****     ***              |
    1193                    ;*          +-----------------------------------------------------------------+
    1194                    ;*
    1195                    ;*      Done
    1196                    ;*
    1197                    ;*      Loop is interruptible
    1198                    ;*      Collapsed epilog stages       : 1
    1199                    ;*      Prolog not removed
    1200                    ;*      Collapsed prolog stages       : 0
    1201                    ;*
    1202                    ;*      Minimum required memory pad   : 0 bytes
    1203                    ;*
    1204                    ;*      For further improvement on this loop, try option -mh14
    1205                    ;*
    1206                    ;*      Minimum safe trip count       : 1
    1207                    ;*      Min. prof. trip count  (est.) : 3
    1208                    ;*
    1209                    ;*      Mem bank conflicts/iter(est.) : { min 0.000, est 0.000, max 0.000 }
    1210                    ;*      Mem bank perf. penalty (est.) : 0.0%
TMS320C6x Assembler PC v7.4.2 Thu Mar 19 12:41:44 2015

Tools Copyright (c) 1996-2012 Texas Instruments Incorporated
package/lib/Regression/regress_d_c/./../packages/ti/vlib/src/VLIB_histogram_1D_U8/VLIB_histogram_1D_U8_d.se66 PAGE   23

    1211                    ;*
    1212                    ;*
    1213                    ;*      Total cycles (est.)         : 6 + trip_cnt * 22        
    1214                    ;*----------------------------------------------------------------------------*
    1215                    ;*       SETUP CODE
    1216                    ;*
    1217                    ;*                  MVK             0x1,A2
    1218                    ;*                  MV              B4,B5
    1219                    ;*                  MV              A2,A6
    1220                    ;*                  MV              A6,A7
    1221                    ;*
    1222                    ;*        SINGLE SCHEDULED ITERATION
    1223                    ;*
    1224                    ;*        $C$C84:
    1225                    ;*   0      [ A2]   LDW     .D2T2   *+B5(28),B6       ; |91|  ^ 
    1226                    ;*   1      [ A2]   LDBU    .D1T1   *++A5,A4          ; |91| 
    1227                    ;*   2              NOP             3
    1228                    ;*   5              ROTL    .M1     A6,0,A0           ; |90| Post-sched spill
    1229                    ;*     ||           SUB     .L1X    B6,1,A3           ; |91|  ^ 
    1230                    ;*   6              CMPGT   .L1     A4,A3,A1          ; |91|  ^ 
    1231                    ;*   7              MV      .L1     A5,A6             ; |91| Split a long life(pre-sched)
    1232                    ;*     ||   [!A0]   ZERO    .S1     A1                ;  ^ 
    1233                    ;*   8      [ A1]   STB     .D1T1   A3,*A6            ; |92|  ^ 
    1234                    ;*   9      [ A1]   LDW     .D2T2   *+SP(28),B7       ; |92|  ^ 
    1235                    ;*  10              NOP             1
    1236                    ;*  11              MVD     .M1     A7,A0             ; |90| Post-sched spill
    1237                    ;*  12              NOP             2
    1238                    ;*  14      [ A1]   ADD     .L2     B7,B9,B4          ;  ^ 
    1239                    ;*  15              MVD     .M1     A0,A3             ; |90| Post-sched spill
    1240                    ;*     ||   [ A0]   LDW     .D2T2   *+B4(16),B17      ; |90|  ^ 
    1241                    ;*  16              NOP             3
    1242                    ;*  19              ADD     .L2     1,B8,B8           ; |90| 
    1243                    ;*  20              MV      .S2     B4,B5             ; Split a long life(pre-sched)
    1244                    ;*     ||           CMPGT   .L2     B17,B8,B0         ; |90|  ^ 
    1245                    ;*  21      [!B0]   ZERO    .L1     A2                ; |90|  ^ 
    1246                    ;*  22              MV      .L1     A2,A6             ; |90| Split a long life(pre-sched)
    1247                    ;*     ||   [ A2]   B       .S1     $C$C84            ; |90| 
    1248                    ;*  23              MVD     .M1     A3,A0             ; |90| Post-sched spill
    1249                    ;*     ||           MV      .L1     A6,A3             ; |90| Split a long life(pre-sched)
    1250                    ;*  24              NOP             1
    1251                    ;*  25              MV      .L1     A3,A6             ; |90| Split a long life(pre-sched)
    1252                    ;*  26              MV      .L1     A6,A3             ; |90| Split a long life(pre-sched)
    1253                    ;*  27      [ A0]   MV      .L2     B7,B16            ; |90| 
    1254                    ;*     ||           MV      .S1     A3,A7             ; |90| Split a long life(pre-sched)
    1255                    ;*  28              ; BRANCHCC OCCURS {$C$C84}        ; |90| 
    1256                    ;*
    1257                    ;*       RESTORE CODE
    1258                    ;*
    1259                    ;*                  MV              B16,B7
    1260                    ;*----------------------------------------------------------------------------*
    1261 000001e4           $C$L2:    ; PIPED LOOP PROLOG
    1262                    ;** --------------------------------------------------------------------------*
    1263 000001e4           $C$L3:    ; PIPED LOOP KERNEL
    1264                            .dwpsn  file "./../packages/ti/vlib/src/VLIB_histogram_1D_U8/VLIB_histogram_1D_U8_d.c",line 90
    1265 000001e4           $C$DW$L$VLIB_histogram_1D_U8_d$12$B:
TMS320C6x Assembler PC v7.4.2 Thu Mar 19 12:41:44 2015

Tools Copyright (c) 1996-2012 Texas Instruments Incorporated
package/lib/Regression/regress_d_c/./../packages/ti/vlib/src/VLIB_histogram_1D_U8/VLIB_histogram_1D_U8_d.se66 PAGE   24

    1266                    ;          EXCLUSIVE CPU CYCLES: 22
    1267                            .dwpsn  file "./../packages/ti/vlib/src/VLIB_histogram_1D_U8/VLIB_histogram_1D_U8_d.c",line 91
    1268 000001e4     8db8             CMPGT   .L1     A4,A3,A1          ; |91| <0,6>  ^ 
    1269                    
    1270 000001e6     c2c6             MV      .L1     A5,A6             ; |91| <0,7> Split a long life(pre-sched)
    1271 000001e8 d0800028  || [!A0]   ZERO    .S1     A1                ; <0,7>  ^ 
    1272                    
    1273                            .dwpsn  file "./../packages/ti/vlib/src/VLIB_histogram_1D_U8/VLIB_histogram_1D_U8_d.c",line 92
    1274 000001ec 81980234     [ A1]   STB     .D1T1   A3,*A6            ; |92| <0,8>  ^ 
    1275 000001f0 83bce2e6     [ A1]   LDW     .D2T2   *+SP(28),B7       ; |92| <0,9>  ^ 
    1276 000001f4 00000000             NOP             1
    1277                            .dwpsn  file "./../packages/ti/vlib/src/VLIB_histogram_1D_U8/VLIB_histogram_1D_U8_d.c",line 90
    1278 000001f8 001f40f0             MVD     .M1     A7,A0             ; |90| <0,11> Post-sched spill
    1279 00000200 00002000             NOP             2
    1280 00000204 8224e07a     [ A1]   ADD     .L2     B7,B9,B4          ; <0,14>  ^ 
    1281                    
    1282 00000208 018340f1             MVD     .M1     A0,A3             ; |90| <0,15> Post-sched spill
    1283 0000020c c89082e6  || [ A0]   LDW     .D2T2   *+B4(16),B17      ; |90| <0,15>  ^ 
    1284                    
    1285 00000210 00004000             NOP             3
    1286 00000214 0420205a             ADD     .L2     1,B8,B8           ; |90| <0,19> 
    1287                    
    1288 0000021c 029006a2             MV      .S2     B4,B5             ; <0,20> Split a long life(pre-sched)
    1289 00000218 002228fb  ||         CMPGT   .L2     B17,B8,B0         ; |90| <0,20>  ^ 
    1290                    
    1291 00000220     c966     [!B0]   ZERO    .L1     A2                ; |90| <0,21>  ^ 
    1292                    
    1293 00000222     c146             MV      .L1     A2,A6             ; |90| <0,22> Split a long life(pre-sched)
    1294 00000224 affff891  || [ A2]   B       .S1     $C$L3             ; |90| <0,22> 
    1295 00000228 a314e2e6  || [ A2]   LDW     .D2T2   *+B5(28),B6       ; |91| <1,0>  ^ 
    1296                    
    1297 00000230 000f40f1             MVD     .M1     A3,A0             ; |90| <0,23> Post-sched spill
    1298 00000234     6346  ||         MV      .L1     A6,A3             ; |90| <0,23> Split a long life(pre-sched)
    1299 0000022c a2143215  || [ A2]   LDBU    .D1T1   *++A5,A4          ; |91| <1,1> 
    1300                    
    1301 00000236     0c6e             NOP             1
    1302 00000238     c1c6             MV      .L1     A3,A6             ; |90| <0,25> Split a long life(pre-sched)
    1303 0000023a     6346             MV      .L1     A6,A3             ; |90| <0,26> Split a long life(pre-sched)
    1304                    
    1305 00000248 c81c0fda     [ A0]   MV      .L2     B7,B16            ; |90| <0,27> 
    1306 00000240     e1ce  ||         MV      .S1     A3,A7             ; |90| <0,27> Split a long life(pre-sched)
    1307 00000244 001807b1  ||         ROTL    .M1     A6,0,A0           ; |90| <1,5> Post-sched spill
    1308 00000242     ff30  ||         SUB     .L1X    B6,1,A3           ; |91| <1,5>  ^ 
    1309                    
    1310 0000024c           $C$DW$L$VLIB_histogram_1D_U8_d$12$E:
    1311                    ;** --------------------------------------------------------------------------*
    1312 0000024c           $C$L4:    ; PIPED LOOP EPILOG
    1313                    ;** --------------------------------------------------------------------------*
    1314 0000024c           $C$DW$L$VLIB_histogram_1D_U8_d$14$B:
    1315                    ;          EXCLUSIVE CPU CYCLES: 1
    1316                    
    1317 0000024c 06a40fdb             MV      .L2     B9,B13
    1318 00000250 03c006a2  ||         MV      .S2     B16,B7
    1319                    
    1320 00000254           $C$DW$L$VLIB_histogram_1D_U8_d$14$E:
TMS320C6x Assembler PC v7.4.2 Thu Mar 19 12:41:44 2015

Tools Copyright (c) 1996-2012 Texas Instruments Incorporated
package/lib/Regression/regress_d_c/./../packages/ti/vlib/src/VLIB_histogram_1D_U8/VLIB_histogram_1D_U8_d.se66 PAGE   25

    1321                    ;** --------------------------------------------------------------------------*
    1322 00000254           $C$L5:    
    1323 00000254           $C$DW$L$VLIB_histogram_1D_U8_d$15$B:
    1324                    ;          EXCLUSIVE CPU CYCLES: 7
    1325                    ;**     -----------------------g9:
    1326                    ;** 97  -----------------------    memset((void *)histArray, 0, (unsigned)(*(U$11+v$1)).maxSize);
    1327                    ;** 99  -----------------------    VLIB_histogram_1D_Init_U8_cn(binEdges, (*U$12).numBins, histArray);
    1328                    ;** 102 -----------------------    memset((void *)H, 0, U$29);
    1329                    ;** 103 -----------------------    memset((void *)H1, 0, U$29);
    1330                    ;** 104 -----------------------    memset((void *)H2, 0, U$29);
    1331                    ;** 105 -----------------------    memset((void *)H3, 0, U$29);
    1332                    ;** 137 -----------------------    act_kernel = 0;  // [15]
    1333                    ;** 140 -----------------------    VLIB_cache_inval();  // [15]
    1334                    ;** 143 -----------------------    initStack(getSP());  // [15]
    1335                    ;** 146 -----------------------    beg_count = _itoll(TSCH, TSCL);  // [15]
    1336                    ;** 109 -----------------------    VLIB_histogram_1D_U8(X, (*U$12).numX, numBinsH, (*U$12).binWeight, 
    1337                    ;** 153 -----------------------    v$2 = _itoll(TSCH, TSCL);  // [16]
    1338                    ;** 153 -----------------------    end_count = v$2;  // [16]
    1339                    ;**     -----------------------    K$89 = &cycles[0];
    1340                    ;** 156 -----------------------    C$3 = act_kernel;  // [16]
    1341                    ;** 156 -----------------------    *((C$3<<3)+K$89) = *((C$3<<3)+K$89)+(v$2-(beg_count+overhead));  //
    1342                    ;** 159 -----------------------    setStackDepth();  // [16]
    1343                    
    1344 00000254 0234e07b             ADD     .L2     B7,B13,B4         ; |97| 
    1345 00000258     ad4d  ||         LDW     .D2T1   *+SP(36),A4       ; |97| 
    1346                    
    1347                    $C$DW$145       .dwtag  DW_TAG_TI_branch
    1348                            .dwattr $C$DW$145, DW_AT_low_pc(0x00)
    1349                            .dwattr $C$DW$145, DW_AT_name("memset")
    1350                            .dwattr $C$DW$145, DW_AT_TI_call
    1351                    
    1352 00000260 10000013!            CALLP   .S2     memset,B3
    1353 0000025a     e06d  ||         LDW     .D2T1   *+B4(28),A6       ; |97| 
    1354 00000264     0627  ||         ZERO    .L2     B4                ; |97| 
    1355                    
    1356                            .dwpsn  file "./../packages/ti/vlib/src/VLIB_histogram_1D_U8/VLIB_histogram_1D_U8_d.c",line 97
    1357 00000266           $C$RL12:   ; CALL OCCURS {memset} {0}        ; |97| 
    1358 00000266           $C$DW$L$VLIB_histogram_1D_U8_d$15$E:
    1359                    ;** --------------------------------------------------------------------------*
    1360 00000266           $C$DW$L$VLIB_histogram_1D_U8_d$16$B:
    1361                    ;          EXCLUSIVE CPU CYCLES: 89
    1362                            .dwpsn  file "./../packages/ti/vlib/src/VLIB_histogram_1D_U8/VLIB_histogram_1D_U8_d.c",line 99
    1363 00000266     8d4d             LDW     .D2T1   *+SP(32),A4       ; |99| 
    1364                    $C$DW$146       .dwtag  DW_TAG_TI_branch
    1365                            .dwattr $C$DW$146, DW_AT_low_pc(0x00)
    1366                            .dwattr $C$DW$146, DW_AT_name("VLIB_histogram_1D_Init_U8_cn")
    1367                            .dwattr $C$DW$146, DW_AT_TI_call
    1368                    
    1369 00000268 10000013!            CALLP   .S2     VLIB_histogram_1D_Init_U8_cn,B3
    1370 0000026c 022ca267  ||         LDW     .D1T2   *+A11(20),B4      ; |99| 
    1371 00000270     ad6d  ||         LDW     .D2T1   *+SP(36),A6       ; |99| 
    1372                    
    1373                    $C$RL13:   ; CALL OCCURS {VLIB_histogram_1D_Init_U8_cn} {0}  ; |99| 
    1374                    $C$DW$147       .dwtag  DW_TAG_TI_branch
    1375                            .dwattr $C$DW$147, DW_AT_low_pc(0x00)
TMS320C6x Assembler PC v7.4.2 Thu Mar 19 12:41:44 2015

Tools Copyright (c) 1996-2012 Texas Instruments Incorporated
package/lib/Regression/regress_d_c/./../packages/ti/vlib/src/VLIB_histogram_1D_U8/VLIB_histogram_1D_U8_d.se66 PAGE   26

    1376                            .dwattr $C$DW$147, DW_AT_name("memset")
    1377                            .dwattr $C$DW$147, DW_AT_TI_call
    1378                    
    1379 00000280 10000013!            CALLP   .S2     memset,B3
    1380 00000284 023d62e5  ||         LDW     .D2T1   *+SP(44),A4       ; |102| 
    1381 00000288 0200a35b  ||         ZERO    .L2     B4                ; |102| 
    1382 0000028c 032c1fd8  ||         MV      .L1X    B11,A6            ; |102| 
    1383                    
    1384                            .dwpsn  file "./../packages/ti/vlib/src/VLIB_histogram_1D_U8/VLIB_histogram_1D_U8_d.c",line 10
    1385                    $C$RL14:   ; CALL OCCURS {memset} {0}        ; |102| 
    1386                    $C$DW$148       .dwtag  DW_TAG_TI_branch
    1387                            .dwattr $C$DW$148, DW_AT_low_pc(0x00)
    1388                            .dwattr $C$DW$148, DW_AT_name("memset")
    1389                            .dwattr $C$DW$148, DW_AT_TI_call
    1390                    
    1391 00000290 10000013!            CALLP   .S2     memset,B3
    1392 00000294 023da2e5  ||         LDW     .D2T1   *+SP(52),A4       ; |103| 
    1393 00000298 0200a35b  ||         ZERO    .L2     B4                ; |103| 
    1394 0000029c 032c1fd8  ||         MV      .L1X    B11,A6            ; |103| 
    1395                    
    1396                            .dwpsn  file "./../packages/ti/vlib/src/VLIB_histogram_1D_U8/VLIB_histogram_1D_U8_d.c",line 10
    1397                    $C$RL15:   ; CALL OCCURS {memset} {0}        ; |103| 
    1398                    $C$DW$149       .dwtag  DW_TAG_TI_branch
    1399                            .dwattr $C$DW$149, DW_AT_low_pc(0x00)
    1400                            .dwattr $C$DW$149, DW_AT_name("memset")
    1401                            .dwattr $C$DW$149, DW_AT_TI_call
    1402                    
    1403 000002a0 10000013!            CALLP   .S2     memset,B3
    1404 000002a4     cdcd  ||         LDW     .D2T1   *+SP(56),A4       ; |104| 
    1405 000002a6     0627  ||         ZERO    .L2     B4                ; |104| 
    1406 000002a8 032c1fd8  ||         MV      .L1X    B11,A6            ; |104| 
    1407                    
    1408                            .dwpsn  file "./../packages/ti/vlib/src/VLIB_histogram_1D_U8/VLIB_histogram_1D_U8_d.c",line 10
    1409                    $C$RL16:   ; CALL OCCURS {memset} {0}        ; |104| 
    1410                    $C$DW$150       .dwtag  DW_TAG_TI_branch
    1411                            .dwattr $C$DW$150, DW_AT_low_pc(0x00)
    1412                            .dwattr $C$DW$150, DW_AT_name("memset")
    1413                            .dwattr $C$DW$150, DW_AT_TI_call
    1414                    
    1415 000002ac 10000013!            CALLP   .S2     memset,B3
    1416 000002b0     edcd  ||         LDW     .D2T1   *+SP(60),A4       ; |105| 
    1417 000002b2     0627  ||         ZERO    .L2     B4                ; |105| 
    1418 000002b4 032c1fd8  ||         MV      .L1X    B11,A6            ; |105| 
    1419                    
    1420                            .dwpsn  file "./../packages/ti/vlib/src/VLIB_histogram_1D_U8/VLIB_histogram_1D_U8_d.c",line 10
    1421 000002b8           $C$RL17:   ; CALL OCCURS {memset} {0}        ; |105| 
    1422 000002b8 01800028!            MVKL    .S1     act_kernel,A3
    1423                    
    1424 000002c0 01800069!            MVKH    .S1     act_kernel,A3
    1425 000002c4 0200a358  ||         ZERO    .L1     A4                ; |137| 
    1426                    
    1427                    $C$DW$151       .dwtag  DW_TAG_TI_branch
    1428                            .dwattr $C$DW$151, DW_AT_low_pc(0x00)
    1429                            .dwattr $C$DW$151, DW_AT_name("VLIB_cache_inval")
    1430                            .dwattr $C$DW$151, DW_AT_TI_call
TMS320C6x Assembler PC v7.4.2 Thu Mar 19 12:41:44 2015

Tools Copyright (c) 1996-2012 Texas Instruments Incorporated
package/lib/Regression/regress_d_c/./../packages/ti/vlib/src/VLIB_histogram_1D_U8/VLIB_histogram_1D_U8_d.se66 PAGE   27

    1431                    
    1432 000002c8 10000013!            CALLP   .S2     VLIB_cache_inval,B3
    1433 000002cc 020c0274  ||         STW     .D1T1   A4,*A3            ; |137| 
    1434                    
    1435                            .dwpsn  file ".\..\packages\ti\vlib\src\VLIB_histogram_1D_U8\..\common\VLIB_profile.h",line 14
    1436                    $C$RL18:   ; CALL OCCURS {VLIB_cache_inval} {0}  ; |140| 
    1437                    $C$DW$152       .dwtag  DW_TAG_TI_branch
    1438                            .dwattr $C$DW$152, DW_AT_low_pc(0x00)
    1439                            .dwattr $C$DW$152, DW_AT_name("getSP")
    1440                            .dwattr $C$DW$152, DW_AT_TI_call
    1441 000002d0 10000012!            CALLP   .S2     getSP,B3
    1442                            .dwpsn  file ".\..\packages\ti\vlib\src\VLIB_histogram_1D_U8\..\common\VLIB_profile.h",line 14
    1443                    $C$RL19:   ; CALL OCCURS {getSP} {0}         ; |143| 
    1444                    $C$DW$153       .dwtag  DW_TAG_TI_branch
    1445                            .dwattr $C$DW$153, DW_AT_low_pc(0x00)
    1446                            .dwattr $C$DW$153, DW_AT_name("initStack")
    1447                            .dwattr $C$DW$153, DW_AT_TI_call
    1448 000002d4 10000012!            CALLP   .S2     initStack,B3
    1449 000002d8           $C$RL20:   ; CALL OCCURS {initStack} {0}     ; |143| 
    1450                            .dwpsn  file ".\..\packages\ti\vlib\src\VLIB_histogram_1D_U8\..\common\VLIB_profile.h",line 14
    1451                    ;----------------------------------------------------------------------
    1452                    ; 146 | VLIB_skip_test(desc);                                                  
    1453                    ;----------------------------------------------------------------------
    1454 000002d8 032803e2             MVC     .S2     TSCL,B6           ; |146| 
    1455 000002dc 022c03e2             MVC     .S2     TSCH,B4           ; |146| 
    1456                            .dwpsn  file "./../packages/ti/vlib/src/VLIB_histogram_1D_U8/VLIB_histogram_1D_U8_d.c",line 10
    1457 000002e0 023d42e4             LDW     .D2T1   *+SP(40),A4       ; |109| 
    1458 000002e4 053de2e6             LDW     .D2T2   *+SP(60),B10      ; |109| 
    1459                    
    1460 000002e8 0600002b!            MVKL    .S2     beg_count,B12
    1461 000002ec 043da2e6  ||         LDW     .D2T2   *+SP(52),B8       ; |109| 
    1462                    
    1463 000002f0 0600006b!            MVKH    .S2     beg_count,B12
    1464 000002f4 03900fdb  ||         MV      .L2     B4,B7             ; |146| 
    1465 000002f8 063d62e4  ||         LDW     .D2T1   *+SP(44),A12      ; |109| 
    1466                    
    1467                            .dwpsn  file ".\..\packages\ti\vlib\src\VLIB_histogram_1D_U8\..\common\VLIB_profile.h",line 14
    1468                    ;----------------------------------------------------------------------
    1469                    ; 150 | VLIB_free(H3);                                                         
    1470                    ; 151 | VLIB_free(H2);                                                         
    1471                    ; 152 | VLIB_free(H1);                                                         
    1472                    ;----------------------------------------------------------------------
    1473 000002fc 033003c6             STDW    .D2T2   B7:B6,*B12        ; |146| 
    1474                    
    1475 00000300 053dc2e5             LDW     .D2T1   *+SP(56),A10      ; |109| 
    1476 00000304 022c8266  ||         LDW     .D1T2   *+A11(16),B4      ; |109| 
    1477                    
    1478                    $C$DW$154       .dwtag  DW_TAG_TI_branch
    1479                            .dwattr $C$DW$154, DW_AT_low_pc(0x00)
    1480                            .dwattr $C$DW$154, DW_AT_name("VLIB_histogram_1D_U8")
    1481                            .dwattr $C$DW$154, DW_AT_TI_call
    1482                    
    1483 00000308 10000013!            CALLP   .S2     VLIB_histogram_1D_U8,B3
    1484 0000030c 032d8207  ||         LDHU    .D1T2   *+A11(24),B6      ; |109| 
    1485 00000310 043d22e5  ||         LDW     .D2T1   *+SP(36),A8       ; |109| 
TMS320C6x Assembler PC v7.4.2 Thu Mar 19 12:41:44 2015

Tools Copyright (c) 1996-2012 Texas Instruments Incorporated
package/lib/Regression/regress_d_c/./../packages/ti/vlib/src/VLIB_histogram_1D_U8/VLIB_histogram_1D_U8_d.se66 PAGE   28

    1486 00000314 03340fd8  ||         MV      .L1     A13,A6            ; |109| 
    1487                    
    1488                            .dwpsn  file "./../packages/ti/vlib/src/VLIB_histogram_1D_U8/VLIB_histogram_1D_U8_d.c",line 10
    1489 00000318           $C$RL21:   ; CALL OCCURS {VLIB_histogram_1D_U8} {0}  ; |109| 
    1490                            .dwpsn  file ".\..\packages\ti\vlib\src\VLIB_histogram_1D_U8\..\common\VLIB_profile.h",line 15
    1491                    ;----------------------------------------------------------------------
    1492                    ; 153 | free(H_cn);                                                            
    1493                    ; 154 | VLIB_free(H);                                                          
    1494                    ; 155 | VLIB_free(X);                                                          
    1495                    ;----------------------------------------------------------------------
    1496 00000318 032803e2             MVC     .S2     TSCL,B6           ; |153| 
    1497 0000031c 03ac03e2             MVC     .S2     TSCH,B7           ; |153| 
    1498 00000320 05000028!            MVKL    .S1     act_kernel,A10
    1499                    
    1500 00000324 05000069!            MVKH    .S1     act_kernel,A10
    1501 00000328 0200002b! ||         MVKL    .S2     overhead,B4
    1502 0000032c 05300fda  ||         MV      .L2     B12,B10
    1503                    
    1504 00000330 04280265             LDW     .D1T1   *A10,A8           ; |156| 
    1505 00000334 0200006b! ||         MVKH    .S2     overhead,B4
    1506 00000338 042803e6  ||         LDDW    .D2T2   *B10,B9:B8        ; |156| 
    1507                    
    1508                            .dwpsn  file ".\..\packages\ti\vlib\src\VLIB_histogram_1D_U8\..\common\VLIB_profile.h",line 15
    1509                    ;----------------------------------------------------------------------
    1510                    ; 156 | VLIB_free(histArray);                                                  
    1511                    ; 157 | VLIB_free(binEdges);                                                   
    1512                    ;----------------------------------------------------------------------
    1513 0000033c 081003e6             LDDW    .D2T2   *B4,B17:B16       ; |156| 
    1514 00000340 01800028!            MVKL    .S1     cycles,A3
    1515 00000344 01800068!            MVKH    .S1     cycles,A3
    1516 00000348 0600002a!            MVKL    .S2     end_count,B12
    1517 0000034c 030d0b64             LDDW    .D1T1   *+A3[A8],A7:A6    ; |156| 
    1518 00000350 0222057a             ADDU    .L2     B16,B8,B5:B4      ; |156| 
    1519 00000354 0444a07a             ADD     .L2     B5,B17,B8         ; |156| 
    1520                    
    1521 00000358 042501e3             ADD     .S2     B8,B9,B8          ; |156| 
    1522 0000035c 0210c5fa  ||         SUBU    .L2     B6,B4,B5:B4       ; |156| 
    1523                    
    1524 00000360 0fa0e0fb             SUB     .L2     B7,B8,B31         ; |156| 
    1525 00000364 0297184a  ||         EXT     .S2     B5,24,24,B5       ; |156| 
    1526                    
    1527 00000368 0210d579             ADDU    .L1X    A6,B4,A5:A4       ; |156| 
    1528 0000036c 0217e07a  ||         ADD     .L2     B31,B5,B4         ; |156| 
    1529                    
    1530 00000370     a3b0             ADD     .L1     A5,A7,A3          ; |156| 
    1531                    
    1532 00000372     7250             ADD     .L1X    A3,B4,A5          ; |156| 
    1533 00000374 01800028! ||         MVKL    .S1     cycles,A3
    1534                    
    1535 00000378 01800069!            MVKH    .S1     cycles,A3
    1536 00000380 0600006a! ||         MVKH    .S2     end_count,B12
    1537                    
    1538                    $C$DW$155       .dwtag  DW_TAG_TI_branch
    1539                            .dwattr $C$DW$155, DW_AT_low_pc(0x00)
    1540                            .dwattr $C$DW$155, DW_AT_name("setStackDepth")
TMS320C6x Assembler PC v7.4.2 Thu Mar 19 12:41:44 2015

Tools Copyright (c) 1996-2012 Texas Instruments Incorporated
package/lib/Regression/regress_d_c/./../packages/ti/vlib/src/VLIB_histogram_1D_U8/VLIB_histogram_1D_U8_d.se66 PAGE   29

    1541                            .dwattr $C$DW$155, DW_AT_TI_call
    1542                    
    1543 00000384 10000013!            CALLP   .S2     setStackDepth,B3
    1544 00000388 020d0b45  ||         STDW    .D1T1   A5:A4,*+A3[A8]    ; |156| 
    1545 0000038c 033003c6  ||         STDW    .D2T2   B7:B6,*B12        ; |153| 
    1546                    
    1547                            .dwpsn  file ".\..\packages\ti\vlib\src\VLIB_histogram_1D_U8\..\common\VLIB_profile.h",line 15
    1548                    $C$RL22:   ; CALL OCCURS {setStackDepth} {0}  ; |159| 
    1549                    $C$DW$L$VLIB_histogram_1D_U8_d$16$E:
    1550                    ;** --------------------------------------------------------------------------*
    1551                    $C$DW$L$VLIB_histogram_1D_U8_d$17$B:
    1552                    ;          EXCLUSIVE CPU CYCLES: 6
    1553                    ;** 113 -----------------------    memset((void *)H_cn, 0, U$29);
    1554                    ;** 114 -----------------------    memset((void *)H1, 0, U$29);
    1555                    ;** 115 -----------------------    memset((void *)H2, 0, U$29);
    1556                    ;** 116 -----------------------    memset((void *)H3, 0, U$29);
    1557                    ;** 137 -----------------------    act_kernel = 1;  // [15]
    1558                    ;** 140 -----------------------    VLIB_cache_inval();  // [15]
    1559                    ;** 143 -----------------------    initStack(getSP());  // [15]
    1560                    ;** 146 -----------------------    beg_count = _itoll(TSCH, TSCL);  // [15]
    1561                    ;** 120 -----------------------    VLIB_histogram_1D_U8_cn(X, (*U$12).numX, numBinsH, (*U$12).binWeigh
    1562                    ;** 153 -----------------------    v$2 = _itoll(TSCH, TSCL);  // [16]
    1563                    ;** 153 -----------------------    end_count = v$2;  // [16]
    1564                    ;** 156 -----------------------    C$2 = act_kernel;  // [16]
    1565                    ;** 156 -----------------------    *((C$2<<3)+K$89) = *((C$2<<3)+K$89)+(v$2-(beg_count+overhead));  //
    1566                    ;** 159 -----------------------    setStackDepth();  // [16]
    1567                    ;** 125 -----------------------    status_nat_vs_int = VLIB_compare_mem((void *)H, (void *)H_cn, (*U$1
    1568                    ;** 128 -----------------------    v$1 = prm;
    1569                    ;** 128 -----------------------    U$98 = (*U$12).staticOut;
    1570                    ;** 128 -----------------------    if ( U$98 ) goto g11;
    1571                    ;** 57  -----------------------    status_nat_vs_ref = 1;
    1572                    ;**     -----------------------    goto g12;
    1573                    $C$DW$156       .dwtag  DW_TAG_TI_branch
    1574                            .dwattr $C$DW$156, DW_AT_low_pc(0x00)
    1575                            .dwattr $C$DW$156, DW_AT_name("memset")
    1576                            .dwattr $C$DW$156, DW_AT_TI_call
    1577                    
    1578 00000390 10000013!            CALLP   .S2     memset,B3
    1579 00000394     8dcd  ||         LDW     .D2T1   *+SP(48),A4       ; |113| 
    1580 00000396     0627  ||         ZERO    .L2     B4                ; |113| 
    1581 00000398 032c1fd8  ||         MV      .L1X    B11,A6            ; |113| 
    1582                    
    1583                            .dwpsn  file "./../packages/ti/vlib/src/VLIB_histogram_1D_U8/VLIB_histogram_1D_U8_d.c",line 11
    1584                    $C$RL23:   ; CALL OCCURS {memset} {0}        ; |113| 
    1585                    $C$DW$L$VLIB_histogram_1D_U8_d$17$E:
    1586                    ;** --------------------------------------------------------------------------*
    1587                    $C$DW$L$VLIB_histogram_1D_U8_d$18$B:
    1588                    ;          EXCLUSIVE CPU CYCLES: 88
    1589                    $C$DW$157       .dwtag  DW_TAG_TI_branch
    1590                            .dwattr $C$DW$157, DW_AT_low_pc(0x00)
    1591                            .dwattr $C$DW$157, DW_AT_name("memset")
    1592                            .dwattr $C$DW$157, DW_AT_TI_call
    1593                    
    1594 000003a0 10000013!            CALLP   .S2     memset,B3
    1595 000003a4 023da2e5  ||         LDW     .D2T1   *+SP(52),A4       ; |114| 
TMS320C6x Assembler PC v7.4.2 Thu Mar 19 12:41:44 2015

Tools Copyright (c) 1996-2012 Texas Instruments Incorporated
package/lib/Regression/regress_d_c/./../packages/ti/vlib/src/VLIB_histogram_1D_U8/VLIB_histogram_1D_U8_d.se66 PAGE   30

    1596 000003a8 0200a35b  ||         ZERO    .L2     B4                ; |114| 
    1597 000003ac 032c1fd8  ||         MV      .L1X    B11,A6            ; |114| 
    1598                    
    1599                            .dwpsn  file "./../packages/ti/vlib/src/VLIB_histogram_1D_U8/VLIB_histogram_1D_U8_d.c",line 11
    1600                    $C$RL24:   ; CALL OCCURS {memset} {0}        ; |114| 
    1601                    $C$DW$158       .dwtag  DW_TAG_TI_branch
    1602                            .dwattr $C$DW$158, DW_AT_low_pc(0x00)
    1603                            .dwattr $C$DW$158, DW_AT_name("memset")
    1604                            .dwattr $C$DW$158, DW_AT_TI_call
    1605                    
    1606 000003b0 10000013!            CALLP   .S2     memset,B3
    1607 000003b4 023dc2e5  ||         LDW     .D2T1   *+SP(56),A4       ; |115| 
    1608 000003b8 0200a35b  ||         ZERO    .L2     B4                ; |115| 
    1609 000003bc 032c1fd8  ||         MV      .L1X    B11,A6            ; |115| 
    1610                    
    1611                            .dwpsn  file "./../packages/ti/vlib/src/VLIB_histogram_1D_U8/VLIB_histogram_1D_U8_d.c",line 11
    1612                    $C$RL25:   ; CALL OCCURS {memset} {0}        ; |115| 
    1613                    $C$DW$159       .dwtag  DW_TAG_TI_branch
    1614                            .dwattr $C$DW$159, DW_AT_low_pc(0x00)
    1615                            .dwattr $C$DW$159, DW_AT_name("memset")
    1616                            .dwattr $C$DW$159, DW_AT_TI_call
    1617                    
    1618 000003c0 10000013!            CALLP   .S2     memset,B3
    1619 000003c4     edcd  ||         LDW     .D2T1   *+SP(60),A4       ; |116| 
    1620 000003c6     0627  ||         ZERO    .L2     B4                ; |116| 
    1621 000003c8     d586  ||         MV      .L1X    B11,A6            ; |116| 
    1622                    
    1623                            .dwpsn  file "./../packages/ti/vlib/src/VLIB_histogram_1D_U8/VLIB_histogram_1D_U8_d.c",line 11
    1624 000003ca           $C$RL26:   ; CALL OCCURS {memset} {0}        ; |116| 
    1625                    
    1626 000003ca     6506             MV      .L1     A10,A3            ; |137| 
    1627 000003cc 020000a8  ||         MVK     .S1     1,A4              ; |137| 
    1628                    
    1629                    $C$DW$160       .dwtag  DW_TAG_TI_branch
    1630                            .dwattr $C$DW$160, DW_AT_low_pc(0x00)
    1631                            .dwattr $C$DW$160, DW_AT_name("VLIB_cache_inval")
    1632                            .dwattr $C$DW$160, DW_AT_TI_call
    1633                    
    1634 000003d0 10000013!            CALLP   .S2     VLIB_cache_inval,B3
    1635 000003d4 020c0274  ||         STW     .D1T1   A4,*A3            ; |137| 
    1636                    
    1637                            .dwpsn  file ".\..\packages\ti\vlib\src\VLIB_histogram_1D_U8\..\common\VLIB_profile.h",line 14
    1638                    $C$RL27:   ; CALL OCCURS {VLIB_cache_inval} {0}  ; |140| 
    1639                    $C$DW$161       .dwtag  DW_TAG_TI_branch
    1640                            .dwattr $C$DW$161, DW_AT_low_pc(0x00)
    1641                            .dwattr $C$DW$161, DW_AT_name("getSP")
    1642                            .dwattr $C$DW$161, DW_AT_TI_call
    1643 000003d8 10000012!            CALLP   .S2     getSP,B3
    1644                            .dwpsn  file ".\..\packages\ti\vlib\src\VLIB_histogram_1D_U8\..\common\VLIB_profile.h",line 14
    1645                    $C$RL28:   ; CALL OCCURS {getSP} {0}         ; |143| 
    1646                    $C$DW$162       .dwtag  DW_TAG_TI_branch
    1647                            .dwattr $C$DW$162, DW_AT_low_pc(0x00)
    1648                            .dwattr $C$DW$162, DW_AT_name("initStack")
    1649                            .dwattr $C$DW$162, DW_AT_TI_call
    1650 000003e0 10000012!            CALLP   .S2     initStack,B3
TMS320C6x Assembler PC v7.4.2 Thu Mar 19 12:41:44 2015

Tools Copyright (c) 1996-2012 Texas Instruments Incorporated
package/lib/Regression/regress_d_c/./../packages/ti/vlib/src/VLIB_histogram_1D_U8/VLIB_histogram_1D_U8_d.se66 PAGE   31

    1651 000003e4           $C$RL29:   ; CALL OCCURS {initStack} {0}     ; |143| 
    1652                            .dwpsn  file ".\..\packages\ti\vlib\src\VLIB_histogram_1D_U8\..\common\VLIB_profile.h",line 14
    1653 000003e4 032803e2             MVC     .S2     TSCL,B6           ; |146| 
    1654 000003e8 022c03e2             MVC     .S2     TSCH,B4           ; |146| 
    1655                            .dwpsn  file "./../packages/ti/vlib/src/VLIB_histogram_1D_U8/VLIB_histogram_1D_U8_d.c",line 12
    1656 000003ec 023d42e4             LDW     .D2T1   *+SP(40),A4       ; |120| 
    1657 000003f0 043da2e6             LDW     .D2T2   *+SP(52),B8       ; |120| 
    1658                    
    1659 000003f4 03900fdb             MV      .L2     B4,B7             ; |146| 
    1660 000003f8 05a806a3  ||         MV      .S2     B10,B11           ; |146| 
    1661 000003fc 063d82e4  ||         LDW     .D2T1   *+SP(48),A12      ; |120| 
    1662                    
    1663                            .dwpsn  file ".\..\packages\ti\vlib\src\VLIB_histogram_1D_U8\..\common\VLIB_profile.h",line 14
    1664 00000400 032c03c6             STDW    .D2T2   B7:B6,*B11        ; |146| 
    1665                    
    1666 00000404 043d22e5             LDW     .D2T1   *+SP(36),A8       ; |120| 
    1667 00000408 022c8266  ||         LDW     .D1T2   *+A11(16),B4      ; |120| 
    1668                    
    1669 0000040c 032d8207             LDHU    .D1T2   *+A11(24),B6      ; |120| 
    1670 00000410 053dc2e4  ||         LDW     .D2T1   *+SP(56),A10      ; |120| 
    1671                    
    1672                    $C$DW$163       .dwtag  DW_TAG_TI_branch
    1673                            .dwattr $C$DW$163, DW_AT_low_pc(0x00)
    1674                            .dwattr $C$DW$163, DW_AT_name("VLIB_histogram_1D_U8_cn")
    1675                            .dwattr $C$DW$163, DW_AT_TI_call
    1676                    
    1677 00000414 10000013!            CALLP   .S2     VLIB_histogram_1D_U8_cn,B3
    1678 00000418 053de2e7  ||         LDW     .D2T2   *+SP(60),B10      ; |120| 
    1679 0000041c 03340fd8  ||         MV      .L1     A13,A6            ; |120| 
    1680                    
    1681                            .dwpsn  file "./../packages/ti/vlib/src/VLIB_histogram_1D_U8/VLIB_histogram_1D_U8_d.c",line 12
    1682 00000420           $C$RL30:   ; CALL OCCURS {VLIB_histogram_1D_U8_cn} {0}  ; |120| 
    1683                            .dwpsn  file ".\..\packages\ti\vlib\src\VLIB_histogram_1D_U8\..\common\VLIB_profile.h",line 15
    1684 00000420 032803e2             MVC     .S2     TSCL,B6           ; |153| 
    1685 00000424 03ac03e2             MVC     .S2     TSCH,B7           ; |153| 
    1686 00000428 01800028!            MVKL    .S1     overhead,A3
    1687 0000042c 0f800028!            MVKL    .S1     act_kernel,A31
    1688 00000430 01800068!            MVKH    .S1     overhead,A3
    1689 00000434 0f800068!            MVKH    .S1     act_kernel,A31
    1690                    
    1691 00000438 020c1fdb             MV      .L2X    A3,B4             ; |156| 
    1692 0000043c 037c0265  ||         LDW     .D1T1   *A31,A6           ; |156| 
    1693 00000440 042c03e6  ||         LDDW    .D2T2   *B11,B9:B8        ; |156| 
    1694                    
    1695                            .dwpsn  file ".\..\packages\ti\vlib\src\VLIB_histogram_1D_U8\..\common\VLIB_profile.h",line 15
    1696 00000444 081003e6             LDDW    .D2T2   *B4,B17:B16       ; |156| 
    1697 00000448 0f000028!            MVKL    .S1     cycles,A30
    1698 0000044c 0f000068!            MVKH    .S1     cycles,A30
    1699                            .dwpsn  file ".\..\packages\ti\vlib\src\VLIB_histogram_1D_U8\..\common\VLIB_profile.h",line 15
    1700 00000450 033003c6             STDW    .D2T2   B7:B6,*B12        ; |153| 
    1701                            .dwpsn  file ".\..\packages\ti\vlib\src\VLIB_histogram_1D_U8\..\common\VLIB_profile.h",line 15
    1702 00000454 0478cb64             LDDW    .D1T1   *+A30[A6],A9:A8   ; |156| 
    1703 00000458 0222057a             ADDU    .L2     B16,B8,B5:B4      ; |156| 
    1704 0000045c 0444a07a             ADD     .L2     B5,B17,B8         ; |156| 
    1705                    
TMS320C6x Assembler PC v7.4.2 Thu Mar 19 12:41:44 2015

Tools Copyright (c) 1996-2012 Texas Instruments Incorporated
package/lib/Regression/regress_d_c/./../packages/ti/vlib/src/VLIB_histogram_1D_U8/VLIB_histogram_1D_U8_d.se66 PAGE   32

    1706 00000460 042501e3             ADD     .S2     B8,B9,B8          ; |156| 
    1707 00000464 0210c5fa  ||         SUBU    .L2     B6,B4,B5:B4       ; |156| 
    1708                    
    1709 00000468 0fa0e0fb             SUB     .L2     B7,B8,B31         ; |156| 
    1710 0000046c 0297184a  ||         EXT     .S2     B5,24,24,B5       ; |156| 
    1711                    
    1712 00000470 02111579             ADDU    .L1X    A8,B4,A5:A4       ; |156| 
    1713 00000474 0217e07a  ||         ADD     .L2     B31,B5,B4         ; |156| 
    1714                    
    1715 00000478 01a4a078             ADD     .L1     A5,A9,A3          ; |156| 
    1716                    
    1717 0000047c 02907079             ADD     .L1X    A3,B4,A5          ; |156| 
    1718 00000480 01800028! ||         MVKL    .S1     cycles,A3
    1719                    
    1720 00000484 01800068!            MVKH    .S1     cycles,A3
    1721                    $C$DW$164       .dwtag  DW_TAG_TI_branch
    1722                            .dwattr $C$DW$164, DW_AT_low_pc(0x00)
    1723                            .dwattr $C$DW$164, DW_AT_name("setStackDepth")
    1724                            .dwattr $C$DW$164, DW_AT_TI_call
    1725                    
    1726 00000488 10000013!            CALLP   .S2     setStackDepth,B3
    1727 0000048c 020ccb44  ||         STDW    .D1T1   A5:A4,*+A3[A6]    ; |156| 
    1728                    
    1729                            .dwpsn  file ".\..\packages\ti\vlib\src\VLIB_histogram_1D_U8\..\common\VLIB_profile.h",line 15
    1730 00000490           $C$RL31:   ; CALL OCCURS {setStackDepth} {0}  ; |159| 
    1731                            .dwpsn  file "./../packages/ti/vlib/src/VLIB_histogram_1D_U8/VLIB_histogram_1D_U8_d.c",line 12
    1732 00000490 01aca264             LDW     .D1T1   *+A11(20),A3      ; |125| 
    1733 00000494     ed4d             LDW     .D2T1   *+SP(44),A4       ; |125| 
    1734 00000496     9607             MV      .L2X    A12,B4            ; |125| 
    1735 00000498     2c6e             NOP             2
    1736                    $C$DW$165       .dwtag  DW_TAG_TI_branch
    1737                            .dwattr $C$DW$165, DW_AT_low_pc(0x00)
    1738                            .dwattr $C$DW$165, DW_AT_name("VLIB_compare_mem")
    1739                            .dwattr $C$DW$165, DW_AT_TI_call
    1740                    
    1741 000004a0 10000012!            CALLP   .S2     VLIB_compare_mem,B3
    1742 0000049a     61e0  ||         ADD     .L1     A3,A3,A6          ; |125| 
    1743                    
    1744 000004a4           $C$RL32:   ; CALL OCCURS {VLIB_compare_mem} {0}  ; |125| 
    1745 000004a4           $C$DW$L$VLIB_histogram_1D_U8_d$18$E:
    1746                    ;** --------------------------------------------------------------------------*
    1747 000004a4           $C$DW$L$VLIB_histogram_1D_U8_d$19$B:
    1748                    ;          EXCLUSIVE CPU CYCLES: 11
    1749                            .dwpsn  file "./../packages/ti/vlib/src/VLIB_histogram_1D_U8/VLIB_histogram_1D_U8_d.c",line 12
    1750 000004a4 002c6264             LDW     .D1T1   *+A11(12),A0      ; |128| 
    1751 000004a8     fccd             LDW     .D2T2   *+SP(28),B4       ; |128| 
    1752                            .dwpsn  file "./../packages/ti/vlib/src/VLIB_histogram_1D_U8/VLIB_histogram_1D_U8_d.c",line 12
    1753 000004aa     5647             MV      .L2X    A4,B10            ; |125| 
    1754 000004ac     2c6e             NOP             2
    1755                    
    1756 000004ae     06ba     [!A0]   B       .S1     $C$L6
    1757 000004b0 c1aca264  || [ A0]   LDW     .D1T1   *+A11(20),A3      ; |129| 
    1758                    
    1759                            .dwpsn  file "./../packages/ti/vlib/src/VLIB_histogram_1D_U8/VLIB_histogram_1D_U8_d.c",line 12
    1760                    $C$DW$166       .dwtag  DW_TAG_TI_branch
TMS320C6x Assembler PC v7.4.2 Thu Mar 19 12:41:44 2015

Tools Copyright (c) 1996-2012 Texas Instruments Incorporated
package/lib/Regression/regress_d_c/./../packages/ti/vlib/src/VLIB_histogram_1D_U8/VLIB_histogram_1D_U8_d.se66 PAGE   33

    1761                            .dwattr $C$DW$166, DW_AT_low_pc(0x00)
    1762                            .dwattr $C$DW$166, DW_AT_name("VLIB_compare_mem")
    1763                            .dwattr $C$DW$166, DW_AT_TI_call
    1764 000004b4 c0000010!    [ A0]   CALL    .S1     VLIB_compare_mem  ; |129| 
    1765                            .dwpsn  file "./../packages/ti/vlib/src/VLIB_histogram_1D_U8/VLIB_histogram_1D_U8_d.c",line 57
    1766 000004b8 d784a358     [!A0]   MVK     .L1     0x1,A15           ; |57| 
    1767 000004c0     4c6e             NOP             3
    1768                               ; BRANCHCC OCCURS {$C$L6}  
    1769 000004c2           $C$DW$L$VLIB_histogram_1D_U8_d$19$E:
    1770                    ;** --------------------------------------------------------------------------*
    1771                            .dwpsn  file "./../packages/ti/vlib/src/VLIB_histogram_1D_U8/VLIB_histogram_1D_U8_d.c",line 12
    1772 000004c2           $C$DW$L$VLIB_histogram_1D_U8_d$20$B:
    1773                    ;          EXCLUSIVE CPU CYCLES: 1
    1774                    ;**     -----------------------g11:
    1775                    ;** 129 -----------------------    status_nat_vs_ref = VLIB_compare_mem((void *)U$98, (void *)H_cn, (*
    1776                    ;** 129 -----------------------    v$1 = prm;
    1777                    
    1778 000004c2     9607             MV      .L2X    A12,B4            ; |129| 
    1779 000004c4     8046  ||         MV      .L1     A0,A4             ; |129| 
    1780 000004c6     61ea  ||         ADD     .S1     A3,A3,A6          ; |129| 
    1781 000004c8 01830162  ||         ADDKPC  .S2     $C$RL33,B3,0      ; |129| 
    1782                    
    1783                            .dwpsn  file "./../packages/ti/vlib/src/VLIB_histogram_1D_U8/VLIB_histogram_1D_U8_d.c",line 12
    1784 000004cc           $C$RL33:   ; CALL OCCURS {VLIB_compare_mem} {0}  ; |129| 
    1785 000004cc           $C$DW$L$VLIB_histogram_1D_U8_d$20$E:
    1786                    ;** --------------------------------------------------------------------------*
    1787 000004cc           $C$DW$L$VLIB_histogram_1D_U8_d$21$B:
    1788                    ;          EXCLUSIVE CPU CYCLES: 5
    1789 000004cc     fccd             LDW     .D2T2   *+SP(28),B4       ; |129| 
    1790 000004ce     e646             MV      .L1     A4,A15            ; |129| 
    1791 000004d0 00004000             NOP             3
    1792 000004d4           $C$DW$L$VLIB_histogram_1D_U8_d$21$E:
    1793                    ;** --------------------------------------------------------------------------*
    1794 000004d4           $C$L6:    
    1795 000004d4           $C$DW$L$VLIB_histogram_1D_U8_d$22$B:
    1796                    ;          EXCLUSIVE CPU CYCLES: 14
    1797                    ;**     -----------------------g12:
    1798                    ;** 135 -----------------------    est_test = 1;
    1799                    ;** 138 -----------------------    C$1 = U$11+v$1;
    1800                    ;** 138 -----------------------    sprintf(K$107, (const char *)"%s generated input | Opt results comp
    1801                    ;** 140 -----------------------    VLIB_formula_add_test((*U$12).numX, 0, 0, (status_nat_vs_int == 0)|
    1802                    ;** 142 -----------------------    goto g14;
    1803                            .dwpsn  file "./../packages/ti/vlib/src/VLIB_histogram_1D_U8/VLIB_histogram_1D_U8_d.c",line 13
    1804 000004d4 0234807a             ADD     .L2     B4,B13,B4         ; |138| 
    1805 000004d8     f07d             LDW     .D2T2   *+B4(28),B7       ; |138| 
    1806 000004da     905d             LDW     .D2T2   *+B4(16),B5       ; |138| 
    1807 000004e0 0300002a!            MVKL    .S2     $C$SL2+0,B6
    1808                    
    1809 000004e4 0300006b!            MVKH    .S2     $C$SL2+0,B6
    1810 000004e8 06bc62f4  ||         STW     .D2T1   A13,*+SP(12)      ; |138| 
    1811                    
    1812 000004ec 01800029!            MVKL    .S1     est_test,A3
    1813 000004f0     bc65  ||         STW     .D2T2   B6,*+SP(4)        ; |138| 
    1814                    
    1815 000004f8 0200002b!            MVKL    .S2     testPatternString,B4
TMS320C6x Assembler PC v7.4.2 Thu Mar 19 12:41:44 2015

Tools Copyright (c) 1996-2012 Texas Instruments Incorporated
package/lib/Regression/regress_d_c/./../packages/ti/vlib/src/VLIB_histogram_1D_U8/VLIB_histogram_1D_U8_d.se66 PAGE   34

    1816 000004f4 01800069! ||         MVKH    .S1     est_test,A3
    1817 000004f2     2626  ||         MVK     .L1     1,A4              ; |135| 
    1818 00000500     9cf5  ||         STW     .D2T2   B7,*+SP(16)       ; |138| 
    1819                    
    1820 0000050c 0200006a!            MVKH    .S2     testPatternString,B4
    1821 00000504 020c0275  ||         STW     .D1T1   A4,*A3            ; |135| 
    1822 00000508 02000029! ||         MVKL    .S1     desc,A4
    1823 00000502     bcd5  ||         STW     .D2T2   B5,*+SP(20)       ; |138| 
    1824                    
    1825                    $C$DW$167       .dwtag  DW_TAG_TI_branch
    1826                            .dwattr $C$DW$167, DW_AT_low_pc(0x00)
    1827                            .dwattr $C$DW$167, DW_AT_name("sprintf")
    1828                            .dwattr $C$DW$167, DW_AT_TI_call
    1829                    
    1830 00000510 10000013!            CALLP   .S2     sprintf,B3
    1831 00000518 023c42f6  ||         STW     .D2T2   B4,*+SP(8)        ; |138| 
    1832 00000514 02000069! ||         MVKH    .S1     desc,A4
    1833                    
    1834 00000520           $C$RL34:   ; CALL OCCURS {sprintf} {0}       ; |138| 
    1835 00000520           $C$DW$L$VLIB_histogram_1D_U8_d$22$E:
    1836                    ;** --------------------------------------------------------------------------*
    1837 00000520           $C$DW$L$VLIB_histogram_1D_U8_d$23$B:
    1838                    ;          EXCLUSIVE CPU CYCLES: 8
    1839                            .dwpsn  file "./../packages/ti/vlib/src/VLIB_histogram_1D_U8/VLIB_histogram_1D_U8_d.c",line 14
    1840 00000520 01bc0a58             CMPEQ   .L1     A15,0,A3          ; |140| 
    1841                    
    1842 00000524 02280a5b             CMPEQ   .L2     B10,0,B4          ; |140| 
    1843 00000528 04000029! ||         MVKL    .S1     desc,A8
    1844 0000052c 0400002a  ||         ZERO    .S2     B8                ; |140| 
    1845                    
    1846                    $C$DW$168       .dwtag  DW_TAG_TI_branch
    1847                            .dwattr $C$DW$168, DW_AT_low_pc(0x00)
    1848                            .dwattr $C$DW$168, DW_AT_name("VLIB_formula_add_test")
    1849                            .dwattr $C$DW$168, DW_AT_TI_call
    1850                    
    1851 00000530 10000013!            CALLP   .S2     VLIB_formula_add_test,B3
    1852 00000534 022c8265  ||         LDW     .D1T1   *+A11(16),A4      ; |140| 
    1853 00000538 030c9ffb  ||         OR      .L2X    A3,B4,B6          ; |140| 
    1854 0000053c 02000043  ||         ZERO    .D2     B4                ; |140| 
    1855 00000540 04000069! ||         MVKH    .S1     desc,A8
    1856 00000544     0726  ||         ZERO    .L1     A6                ; |140| 
    1857                    
    1858 00000546           $C$RL35:   ; CALL OCCURS {VLIB_formula_add_test} {0}  ; |140| 
    1859 00000546           $C$DW$L$VLIB_histogram_1D_U8_d$23$E:
    1860                    ;** --------------------------------------------------------------------------*
    1861 00000546           $C$DW$L$VLIB_histogram_1D_U8_d$24$B:
    1862                    ;          EXCLUSIVE CPU CYCLES: 6
    1863                            .dwpsn  file "./../packages/ti/vlib/src/VLIB_histogram_1D_U8/VLIB_histogram_1D_U8_d.c",line 14
    1864 00000546     090a             B       .S1     $C$L8             ; |142| 
    1865                            .dwpsn  file "./../packages/ti/vlib/src/VLIB_histogram_1D_U8/VLIB_histogram_1D_U8_d.c",line 15
    1866                    $C$DW$169       .dwtag  DW_TAG_TI_branch
    1867                            .dwattr $C$DW$169, DW_AT_low_pc(0x00)
    1868                            .dwattr $C$DW$169, DW_AT_name("VLIB_free")
    1869                            .dwattr $C$DW$169, DW_AT_TI_call
    1870 00000548 00000010!            CALL    .S1     VLIB_free         ; |150| 
TMS320C6x Assembler PC v7.4.2 Thu Mar 19 12:41:44 2015

Tools Copyright (c) 1996-2012 Texas Instruments Incorporated
package/lib/Regression/regress_d_c/./../packages/ti/vlib/src/VLIB_histogram_1D_U8/VLIB_histogram_1D_U8_d.se66 PAGE   35

    1871 0000054c     edcd             LDW     .D2T1   *+SP(60),A4       ; |150| 
    1872 0000054e     4c6e             NOP             3
    1873                            .dwpsn  file "./../packages/ti/vlib/src/VLIB_histogram_1D_U8/VLIB_histogram_1D_U8_d.c",line 14
    1874                               ; BRANCH OCCURS {$C$L8}           ; |142| 
    1875 00000550           $C$DW$L$VLIB_histogram_1D_U8_d$24$E:
    1876                    ;** --------------------------------------------------------------------------*
    1877 00000550           $C$L7:    
    1878                            .dwpsn  file "./../packages/ti/vlib/src/VLIB_histogram_1D_U8/VLIB_histogram_1D_U8_d.c",line 73
    1879 00000550           $C$DW$L$VLIB_histogram_1D_U8_d$25$B:
    1880                    ;          EXCLUSIVE CPU CYCLES: 4
    1881                    ;**     -----------------------g13:
    1882                    ;** 144 -----------------------    sprintf(K$107, (const char *)"numBins=%d, maxSize=%d, numX=%d", num
    1883                    ;** 146 -----------------------    VLIB_skip_test(K$107);
    1884                            .dwpsn  file "./../packages/ti/vlib/src/VLIB_histogram_1D_U8/VLIB_histogram_1D_U8_d.c",line 14
    1885 00000550 06bc42f4             STW     .D2T1   A13,*+SP(8)       ; |144| 
    1886                    
    1887 00000554 0200006b!            MVKH    .S2     $C$SL3+0,B4
    1888 00000560     ec45  ||         STW     .D2T1   A4,*+SP(12)       ; |144| 
    1889 00000558 02000029! ||         MVKL    .S1     desc,A4
    1890                    
    1891 00000562     8cb5             STW     .D2T1   A3,*+SP(16)       ; |144| 
    1892 00000564 02000068! ||         MVKH    .S1     desc,A4
    1893                    
    1894 0000056c 023c22f6             STW     .D2T2   B4,*+SP(4)        ; |144| 
    1895 00000568 01840163  ||         ADDKPC  .S2     $C$RL36,B3,0      ; |144| 
    1896                    
    1897 00000570           $C$RL36:   ; CALL OCCURS {sprintf} {0}       ; |144| 
    1898 00000570           $C$DW$L$VLIB_histogram_1D_U8_d$25$E:
    1899                    ;** --------------------------------------------------------------------------*
    1900 00000570           $C$DW$L$VLIB_histogram_1D_U8_d$26$B:
    1901                    ;          EXCLUSIVE CPU CYCLES: 12
    1902 00000570 02000028!            MVKL    .S1     desc,A4
    1903                    $C$DW$170       .dwtag  DW_TAG_TI_branch
    1904                            .dwattr $C$DW$170, DW_AT_low_pc(0x00)
    1905                            .dwattr $C$DW$170, DW_AT_name("VLIB_skip_test")
    1906                            .dwattr $C$DW$170, DW_AT_TI_call
    1907                    
    1908 00000574 10000013!            CALLP   .S2     VLIB_skip_test,B3
    1909 00000578 02000068! ||         MVKH    .S1     desc,A4
    1910                    
    1911                            .dwpsn  file "./../packages/ti/vlib/src/VLIB_histogram_1D_U8/VLIB_histogram_1D_U8_d.c",line 14
    1912 00000580           $C$RL37:   ; CALL OCCURS {VLIB_skip_test} {0}  ; |146| 
    1913                            .dwpsn  file "./../packages/ti/vlib/src/VLIB_histogram_1D_U8/VLIB_histogram_1D_U8_d.c",line 15
    1914                    $C$DW$171       .dwtag  DW_TAG_TI_branch
    1915                            .dwattr $C$DW$171, DW_AT_low_pc(0x00)
    1916                            .dwattr $C$DW$171, DW_AT_name("VLIB_free")
    1917                            .dwattr $C$DW$171, DW_AT_TI_call
    1918 00000580 00000010!            CALL    .S1     VLIB_free         ; |150| 
    1919 00000584     edcd             LDW     .D2T1   *+SP(60),A4       ; |150| 
    1920 00000586     4c6e             NOP             3
    1921 00000588           $C$DW$L$VLIB_histogram_1D_U8_d$26$E:
    1922                    ;** --------------------------------------------------------------------------*
    1923 00000588           $C$L8:    
    1924                            .dwpsn  file "./../packages/ti/vlib/src/VLIB_histogram_1D_U8/VLIB_histogram_1D_U8_d.c",line 14
    1925 00000588           $C$DW$L$VLIB_histogram_1D_U8_d$27$B:
TMS320C6x Assembler PC v7.4.2 Thu Mar 19 12:41:44 2015

Tools Copyright (c) 1996-2012 Texas Instruments Incorporated
package/lib/Regression/regress_d_c/./../packages/ti/vlib/src/VLIB_histogram_1D_U8/VLIB_histogram_1D_U8_d.se66 PAGE   36

    1926                    ;          EXCLUSIVE CPU CYCLES: 1
    1927                    ;**     -----------------------g14:
    1928                    ;** 150 -----------------------    VLIB_free((void *)H3);
    1929                    ;** 151 -----------------------    VLIB_free((void *)H2);
    1930                    ;** 152 -----------------------    VLIB_free((void *)H1);
    1931                    ;** 153 -----------------------    free((void *)H_cn);
    1932                    ;** 154 -----------------------    VLIB_free((void *)H);
    1933                    ;** 155 -----------------------    VLIB_free((void *)X);
    1934                    ;** 156 -----------------------    VLIB_free((void *)histArray);
    1935                    ;** 157 -----------------------    VLIB_free((void *)binEdges);
    1936                    ;** 53  -----------------------    U$11 += 32;
    1937                    ;** 53  -----------------------    if ( test_cases > (++tpi) ) goto g3;
    1938                            .dwpsn  file "./../packages/ti/vlib/src/VLIB_histogram_1D_U8/VLIB_histogram_1D_U8_d.c",line 15
    1939 00000588 01830162             ADDKPC  .S2     $C$RL38,B3,0      ; |150| 
    1940                    $C$RL38:   ; CALL OCCURS {VLIB_free} {0}     ; |150| 
    1941                    $C$DW$L$VLIB_histogram_1D_U8_d$27$E:
    1942                    ;** --------------------------------------------------------------------------*
    1943                    $C$DW$L$VLIB_histogram_1D_U8_d$28$B:
    1944                    ;          EXCLUSIVE CPU CYCLES: 42
    1945                    $C$DW$172       .dwtag  DW_TAG_TI_branch
    1946                            .dwattr $C$DW$172, DW_AT_low_pc(0x00)
    1947                            .dwattr $C$DW$172, DW_AT_name("VLIB_free")
    1948                            .dwattr $C$DW$172, DW_AT_TI_call
    1949                    
    1950 0000058c 10000013!            CALLP   .S2     VLIB_free,B3
    1951 00000590 023dc2e4  ||         LDW     .D2T1   *+SP(56),A4       ; |151| 
    1952                    
    1953                            .dwpsn  file "./../packages/ti/vlib/src/VLIB_histogram_1D_U8/VLIB_histogram_1D_U8_d.c",line 15
    1954                    $C$RL39:   ; CALL OCCURS {VLIB_free} {0}     ; |151| 
    1955                    $C$DW$173       .dwtag  DW_TAG_TI_branch
    1956                            .dwattr $C$DW$173, DW_AT_low_pc(0x00)
    1957                            .dwattr $C$DW$173, DW_AT_name("VLIB_free")
    1958                            .dwattr $C$DW$173, DW_AT_TI_call
    1959                    
    1960 00000594 10000013!            CALLP   .S2     VLIB_free,B3
    1961 00000598 023da2e4  ||         LDW     .D2T1   *+SP(52),A4       ; |152| 
    1962                    
    1963                            .dwpsn  file "./../packages/ti/vlib/src/VLIB_histogram_1D_U8/VLIB_histogram_1D_U8_d.c",line 15
    1964                    $C$RL40:   ; CALL OCCURS {VLIB_free} {0}     ; |152| 
    1965                    $C$DW$174       .dwtag  DW_TAG_TI_branch
    1966                            .dwattr $C$DW$174, DW_AT_low_pc(0x00)
    1967                            .dwattr $C$DW$174, DW_AT_name("free")
    1968                            .dwattr $C$DW$174, DW_AT_TI_call
    1969                    
    1970 000005a0 10000013!            CALLP   .S2     free,B3
    1971 000005a4 023d82e4  ||         LDW     .D2T1   *+SP(48),A4       ; |153| 
    1972                    
    1973                            .dwpsn  file "./../packages/ti/vlib/src/VLIB_histogram_1D_U8/VLIB_histogram_1D_U8_d.c",line 15
    1974                    $C$RL41:   ; CALL OCCURS {free} {0}          ; |153| 
    1975                    $C$DW$175       .dwtag  DW_TAG_TI_branch
    1976                            .dwattr $C$DW$175, DW_AT_low_pc(0x00)
    1977                            .dwattr $C$DW$175, DW_AT_name("VLIB_free")
    1978                            .dwattr $C$DW$175, DW_AT_TI_call
    1979                    
    1980 000005a8 10000013!            CALLP   .S2     VLIB_free,B3
TMS320C6x Assembler PC v7.4.2 Thu Mar 19 12:41:44 2015

Tools Copyright (c) 1996-2012 Texas Instruments Incorporated
package/lib/Regression/regress_d_c/./../packages/ti/vlib/src/VLIB_histogram_1D_U8/VLIB_histogram_1D_U8_d.se66 PAGE   37

    1981 000005ac 023d62e4  ||         LDW     .D2T1   *+SP(44),A4       ; |154| 
    1982                    
    1983                            .dwpsn  file "./../packages/ti/vlib/src/VLIB_histogram_1D_U8/VLIB_histogram_1D_U8_d.c",line 15
    1984                    $C$RL42:   ; CALL OCCURS {VLIB_free} {0}     ; |154| 
    1985                    $C$DW$176       .dwtag  DW_TAG_TI_branch
    1986                            .dwattr $C$DW$176, DW_AT_low_pc(0x00)
    1987                            .dwattr $C$DW$176, DW_AT_name("VLIB_free")
    1988                            .dwattr $C$DW$176, DW_AT_TI_call
    1989                    
    1990 000005b0 10000013!            CALLP   .S2     VLIB_free,B3
    1991 000005b4 023d42e4  ||         LDW     .D2T1   *+SP(40),A4       ; |155| 
    1992                    
    1993                            .dwpsn  file "./../packages/ti/vlib/src/VLIB_histogram_1D_U8/VLIB_histogram_1D_U8_d.c",line 15
    1994                    $C$RL43:   ; CALL OCCURS {VLIB_free} {0}     ; |155| 
    1995                    $C$DW$177       .dwtag  DW_TAG_TI_branch
    1996                            .dwattr $C$DW$177, DW_AT_low_pc(0x00)
    1997                            .dwattr $C$DW$177, DW_AT_name("VLIB_free")
    1998                            .dwattr $C$DW$177, DW_AT_TI_call
    1999                    
    2000 000005b8 10000013!            CALLP   .S2     VLIB_free,B3
    2001 000005bc 023d22e4  ||         LDW     .D2T1   *+SP(36),A4       ; |156| 
    2002                    
    2003                            .dwpsn  file "./../packages/ti/vlib/src/VLIB_histogram_1D_U8/VLIB_histogram_1D_U8_d.c",line 15
    2004                    $C$RL44:   ; CALL OCCURS {VLIB_free} {0}     ; |156| 
    2005                    $C$DW$178       .dwtag  DW_TAG_TI_branch
    2006                            .dwattr $C$DW$178, DW_AT_low_pc(0x00)
    2007                            .dwattr $C$DW$178, DW_AT_name("VLIB_free")
    2008                            .dwattr $C$DW$178, DW_AT_TI_call
    2009                    
    2010 000005c0 10000013!            CALLP   .S2     VLIB_free,B3
    2011 000005c4 023d02e4  ||         LDW     .D2T1   *+SP(32),A4       ; |157| 
    2012                    
    2013                            .dwpsn  file "./../packages/ti/vlib/src/VLIB_histogram_1D_U8/VLIB_histogram_1D_U8_d.c",line 15
    2014 000005c8           $C$RL45:   ; CALL OCCURS {VLIB_free} {0}     ; |157| 
    2015 000005c8           $C$DW$L$VLIB_histogram_1D_U8_d$28$E:
    2016                    ;** --------------------------------------------------------------------------*
    2017 000005c8           $C$DW$L$VLIB_histogram_1D_U8_d$29$B:
    2018                    ;          EXCLUSIVE CPU CYCLES: 14
    2019 000005c8 01800028!            MVKL    .S1     test_cases,A3
    2020 000005cc 01800068!            MVKH    .S1     test_cases,A3
    2021                            .dwpsn  file "./../packages/ti/vlib/src/VLIB_histogram_1D_U8/VLIB_histogram_1D_U8_d.c",line 53
    2022 000005d0 018c0264             LDW     .D1T1   *A3,A3            ; |53| 
    2023 000005d4 06801052             ADDK    .S2     32,B13            ; |53| 
    2024 000005d8 07382058             ADD     .L1     1,A14,A14         ; |53| 
    2025                            .dwpsn  file "./../packages/ti/vlib/src/VLIB_histogram_1D_U8/VLIB_histogram_1D_U8_d.c",line 60
    2026 000005dc 05801050             ADDK    .S1     32,A11            ; |60| 
    2027 000005e0 00000000             NOP             1
    2028                            .dwpsn  file "./../packages/ti/vlib/src/VLIB_histogram_1D_U8/VLIB_histogram_1D_U8_d.c",line 53
    2029 000005e4 003868f8             CMPGT   .L1     A3,A14,A0         ; |53| 
    2030                    
    2031 000005e8 cea28121     [ A0]   BNOP    .S1     $C$L1,4           ; |53| 
    2032 000005ec c52ca264  || [ A0]   LDW     .D1T1   *+A11(20),A10     ; |60| 
    2033                    
    2034                            .dwpsn  file "./../packages/ti/vlib/src/VLIB_histogram_1D_U8/VLIB_histogram_1D_U8_d.c",line 63
    2035 000005f0 02280fd8             MV      .L1     A10,A4            ; |63| 
TMS320C6x Assembler PC v7.4.2 Thu Mar 19 12:41:44 2015

Tools Copyright (c) 1996-2012 Texas Instruments Incorporated
package/lib/Regression/regress_d_c/./../packages/ti/vlib/src/VLIB_histogram_1D_U8/VLIB_histogram_1D_U8_d.se66 PAGE   38

    2036                            .dwpsn  file "./../packages/ti/vlib/src/VLIB_histogram_1D_U8/VLIB_histogram_1D_U8_d.c",line 53
    2037                               ; BRANCHCC OCCURS {$C$L1}         ; |53| 
    2038 000005f4           $C$DW$L$VLIB_histogram_1D_U8_d$29$E:
    2039                    ;** --------------------------------------------------------------------------*
    2040 000005f4           $C$L9:    
    2041                    ;          EXCLUSIVE CPU CYCLES: 8
    2042                    ;**     -----------------------g15:
    2043                    ;** 161 -----------------------    VLIB_profile_cycle_report(2, "N = numX", "numX");
    2044                    ;** 158 -----------------------    printf((const char *)"---------------------------------------------
    2045                    ;** 165 -----------------------    VLIB_stack_memory();  // [19]
    2046                    ;**     -----------------------    return;
    2047 000005f4 0200002a!            MVKL    .S2     $C$SL5+0,B4
    2048                    
    2049 000005f8 03000029!            MVKL    .S1     $C$SL4+0,A6
    2050 000005fc 0200006a! ||         MVKH    .S2     $C$SL5+0,B4
    2051                    
    2052                    $C$DW$179       .dwtag  DW_TAG_TI_branch
    2053                            .dwattr $C$DW$179, DW_AT_low_pc(0x00)
    2054                            .dwattr $C$DW$179, DW_AT_name("VLIB_profile_cycle_report")
    2055                            .dwattr $C$DW$179, DW_AT_TI_call
    2056                    
    2057 00000600 10000013!            CALLP   .S2     VLIB_profile_cycle_report,B3
    2058 00000604 03000069! ||         MVKH    .S1     $C$SL4+0,A6
    2059 00000608 0208a358  ||         MVK     .L1     0x2,A4            ; |161| 
    2060                    
    2061                            .dwpsn  file "./../packages/ti/vlib/src/VLIB_histogram_1D_U8/VLIB_histogram_1D_U8_d.c",line 16
    2062                    ;----------------------------------------------------------------------
    2063                    ; 161 | VLIB_profile_cycle_report(vlib_PROFILE_FORMULA_RANGE,                  
    2064                    ; 162 |                           "N = numX",                                  
    2065                    ; 163 |                           "numX");                                     
    2066                    ;----------------------------------------------------------------------
    2067 0000060c           $C$RL46:   ; CALL OCCURS {VLIB_profile_cycle_report} {0}  ; |161| 
    2068                    ;** --------------------------------------------------------------------------*
    2069                    ;          EXCLUSIVE CPU CYCLES: 14
    2070 0000060c 0200002a!            MVKL    .S2     $C$SL6+0,B4
    2071 00000610 0200006a!            MVKH    .S2     $C$SL6+0,B4
    2072                    $C$DW$180       .dwtag  DW_TAG_TI_branch
    2073                            .dwattr $C$DW$180, DW_AT_low_pc(0x00)
    2074                            .dwattr $C$DW$180, DW_AT_name("printf")
    2075                            .dwattr $C$DW$180, DW_AT_TI_call
    2076                    
    2077 00000614 10000013!            CALLP   .S2     printf,B3
    2078 00000618 023c22f6  ||         STW     .D2T2   B4,*+SP(4)        ; |158| 
    2079                    
    2080                            .dwpsn  file ".\..\packages\ti\vlib\src\VLIB_histogram_1D_U8\../common/VLIB_memory.h",line 158
    2081                    $C$RL47:   ; CALL OCCURS {printf} {0}        ; |158| 
    2082                    $C$DW$181       .dwtag  DW_TAG_TI_branch
    2083                            .dwattr $C$DW$181, DW_AT_low_pc(0x00)
    2084                            .dwattr $C$DW$181, DW_AT_name("VLIB_stack_memory")
    2085                            .dwattr $C$DW$181, DW_AT_TI_call
    2086 0000061c 10000012!            CALLP   .S2     VLIB_stack_memory,B3
    2087                            .dwpsn  file ".\..\packages\ti\vlib\src\VLIB_histogram_1D_U8\../common/VLIB_memory.h",line 165
    2088                    ;----------------------------------------------------------------------
    2089                    ; 166 | VLIB_kernel_memory();                                                  
    2090                    ;----------------------------------------------------------------------
TMS320C6x Assembler PC v7.4.2 Thu Mar 19 12:41:44 2015

Tools Copyright (c) 1996-2012 Texas Instruments Incorporated
package/lib/Regression/regress_d_c/./../packages/ti/vlib/src/VLIB_histogram_1D_U8/VLIB_histogram_1D_U8_d.se66 PAGE   39

    2091 00000620           $C$RL48:   ; CALL OCCURS {VLIB_stack_memory} {0}  ; |165| 
    2092                    ;** --------------------------------------------------------------------------*
    2093                    ;          EXCLUSIVE CPU CYCLES: 13
    2094                            .dwpsn  file "./../packages/ti/vlib/src/VLIB_histogram_1D_U8/VLIB_histogram_1D_U8_d.c",line 16
    2095 00000620 01be52e6             LDW     .D2T2   *++SP(72),B3      ; |167| 
    2096                            .dwcfi  cfa_offset, 48
    2097                            .dwcfi  restore_reg, 19
    2098 00000624     c677             LDDW    .D2T1   *++SP,A13:A12
    2099                            .dwcfi  cfa_offset, 40
    2100                            .dwcfi  restore_reg, 13
    2101                            .dwcfi  restore_reg, 12
    2102 00000626     c777             LDDW    .D2T1   *++SP,A15:A14
    2103                            .dwcfi  cfa_offset, 32
    2104                            .dwcfi  restore_reg, 15
    2105                            .dwcfi  restore_reg, 14
    2106 00000628     d577             LDDW    .D2T2   *++SP,B11:B10
    2107                            .dwcfi  cfa_offset, 24
    2108                            .dwcfi  restore_reg, 27
    2109                            .dwcfi  restore_reg, 26
    2110 0000062a     d677             LDDW    .D2T2   *++SP,B13:B12
    2111                            .dwcfi  cfa_offset, 16
    2112                            .dwcfi  restore_reg, 29
    2113                            .dwcfi  restore_reg, 28
    2114 0000062c     6577             LDW     .D2T1   *++SP(8),A10
    2115                            .dwcfi  cfa_offset, 8
    2116                            .dwcfi  restore_reg, 10
    2117 0000062e     65f7             LDW     .D2T1   *++SP(8),A11      ; |167| 
    2118                            .dwcfi  cfa_offset, 0
    2119                            .dwcfi  restore_reg, 11
    2120                            .dwcfi  cfa_offset, 0
    2121                    $C$DW$182       .dwtag  DW_TAG_TI_branch
    2122                            .dwattr $C$DW$182, DW_AT_low_pc(0x00)
    2123                            .dwattr $C$DW$182, DW_AT_TI_return
    2124 00000630 008ca362             RETNOP  .S2     B3,5
    2125                               ; BRANCH OCCURS {B3}  
    2126                    
    2127                    $C$DW$183       .dwtag  DW_TAG_TI_loop
    2128                            .dwattr $C$DW$183, DW_AT_name("c:\nightlybuilds\vlib\ti\vlib\vlib\examples\package/lib/Regress
    2129                            .dwattr $C$DW$183, DW_AT_TI_begin_file("./../packages/ti/vlib/src/VLIB_histogram_1D_U8/VLIB_hi
    2130                            .dwattr $C$DW$183, DW_AT_TI_begin_line(0x35)
    2131                            .dwattr $C$DW$183, DW_AT_TI_end_line(0x9e)
    2132                    $C$DW$184       .dwtag  DW_TAG_TI_loop_range
    2133                            .dwattr $C$DW$184, DW_AT_low_pc($C$DW$L$VLIB_histogram_1D_U8_d$4$B)
    2134                            .dwattr $C$DW$184, DW_AT_high_pc($C$DW$L$VLIB_histogram_1D_U8_d$4$E)
    2135                    $C$DW$185       .dwtag  DW_TAG_TI_loop_range
    2136                            .dwattr $C$DW$185, DW_AT_low_pc($C$DW$L$VLIB_histogram_1D_U8_d$25$B)
    2137                            .dwattr $C$DW$185, DW_AT_high_pc($C$DW$L$VLIB_histogram_1D_U8_d$25$E)
    2138                    $C$DW$186       .dwtag  DW_TAG_TI_loop_range
    2139                            .dwattr $C$DW$186, DW_AT_low_pc($C$DW$L$VLIB_histogram_1D_U8_d$20$B)
    2140                            .dwattr $C$DW$186, DW_AT_high_pc($C$DW$L$VLIB_histogram_1D_U8_d$20$E)
    2141                    $C$DW$187       .dwtag  DW_TAG_TI_loop_range
    2142                            .dwattr $C$DW$187, DW_AT_low_pc($C$DW$L$VLIB_histogram_1D_U8_d$10$B)
    2143                            .dwattr $C$DW$187, DW_AT_high_pc($C$DW$L$VLIB_histogram_1D_U8_d$10$E)
    2144                    $C$DW$188       .dwtag  DW_TAG_TI_loop_range
    2145                            .dwattr $C$DW$188, DW_AT_low_pc($C$DW$L$VLIB_histogram_1D_U8_d$5$B)
TMS320C6x Assembler PC v7.4.2 Thu Mar 19 12:41:44 2015

Tools Copyright (c) 1996-2012 Texas Instruments Incorporated
package/lib/Regression/regress_d_c/./../packages/ti/vlib/src/VLIB_histogram_1D_U8/VLIB_histogram_1D_U8_d.se66 PAGE   40

    2146                            .dwattr $C$DW$188, DW_AT_high_pc($C$DW$L$VLIB_histogram_1D_U8_d$5$E)
    2147                    $C$DW$189       .dwtag  DW_TAG_TI_loop_range
    2148                            .dwattr $C$DW$189, DW_AT_low_pc($C$DW$L$VLIB_histogram_1D_U8_d$6$B)
    2149                            .dwattr $C$DW$189, DW_AT_high_pc($C$DW$L$VLIB_histogram_1D_U8_d$6$E)
    2150                    $C$DW$190       .dwtag  DW_TAG_TI_loop_range
    2151                            .dwattr $C$DW$190, DW_AT_low_pc($C$DW$L$VLIB_histogram_1D_U8_d$7$B)
    2152                            .dwattr $C$DW$190, DW_AT_high_pc($C$DW$L$VLIB_histogram_1D_U8_d$7$E)
    2153                    $C$DW$191       .dwtag  DW_TAG_TI_loop_range
    2154                            .dwattr $C$DW$191, DW_AT_low_pc($C$DW$L$VLIB_histogram_1D_U8_d$8$B)
    2155                            .dwattr $C$DW$191, DW_AT_high_pc($C$DW$L$VLIB_histogram_1D_U8_d$8$E)
    2156                    $C$DW$192       .dwtag  DW_TAG_TI_loop_range
    2157                            .dwattr $C$DW$192, DW_AT_low_pc($C$DW$L$VLIB_histogram_1D_U8_d$9$B)
    2158                            .dwattr $C$DW$192, DW_AT_high_pc($C$DW$L$VLIB_histogram_1D_U8_d$9$E)
    2159                    $C$DW$193       .dwtag  DW_TAG_TI_loop_range
    2160                            .dwattr $C$DW$193, DW_AT_low_pc($C$DW$L$VLIB_histogram_1D_U8_d$14$B)
    2161                            .dwattr $C$DW$193, DW_AT_high_pc($C$DW$L$VLIB_histogram_1D_U8_d$14$E)
    2162                    $C$DW$194       .dwtag  DW_TAG_TI_loop_range
    2163                            .dwattr $C$DW$194, DW_AT_low_pc($C$DW$L$VLIB_histogram_1D_U8_d$15$B)
    2164                            .dwattr $C$DW$194, DW_AT_high_pc($C$DW$L$VLIB_histogram_1D_U8_d$15$E)
    2165                    $C$DW$195       .dwtag  DW_TAG_TI_loop_range
    2166                            .dwattr $C$DW$195, DW_AT_low_pc($C$DW$L$VLIB_histogram_1D_U8_d$16$B)
    2167                            .dwattr $C$DW$195, DW_AT_high_pc($C$DW$L$VLIB_histogram_1D_U8_d$16$E)
    2168                    $C$DW$196       .dwtag  DW_TAG_TI_loop_range
    2169                            .dwattr $C$DW$196, DW_AT_low_pc($C$DW$L$VLIB_histogram_1D_U8_d$17$B)
    2170                            .dwattr $C$DW$196, DW_AT_high_pc($C$DW$L$VLIB_histogram_1D_U8_d$17$E)
    2171                    $C$DW$197       .dwtag  DW_TAG_TI_loop_range
    2172                            .dwattr $C$DW$197, DW_AT_low_pc($C$DW$L$VLIB_histogram_1D_U8_d$18$B)
    2173                            .dwattr $C$DW$197, DW_AT_high_pc($C$DW$L$VLIB_histogram_1D_U8_d$18$E)
    2174                    $C$DW$198       .dwtag  DW_TAG_TI_loop_range
    2175                            .dwattr $C$DW$198, DW_AT_low_pc($C$DW$L$VLIB_histogram_1D_U8_d$19$B)
    2176                            .dwattr $C$DW$198, DW_AT_high_pc($C$DW$L$VLIB_histogram_1D_U8_d$19$E)
    2177                    $C$DW$199       .dwtag  DW_TAG_TI_loop_range
    2178                            .dwattr $C$DW$199, DW_AT_low_pc($C$DW$L$VLIB_histogram_1D_U8_d$21$B)
    2179                            .dwattr $C$DW$199, DW_AT_high_pc($C$DW$L$VLIB_histogram_1D_U8_d$21$E)
    2180                    $C$DW$200       .dwtag  DW_TAG_TI_loop_range
    2181                            .dwattr $C$DW$200, DW_AT_low_pc($C$DW$L$VLIB_histogram_1D_U8_d$22$B)
    2182                            .dwattr $C$DW$200, DW_AT_high_pc($C$DW$L$VLIB_histogram_1D_U8_d$22$E)
    2183                    $C$DW$201       .dwtag  DW_TAG_TI_loop_range
    2184                            .dwattr $C$DW$201, DW_AT_low_pc($C$DW$L$VLIB_histogram_1D_U8_d$23$B)
    2185                            .dwattr $C$DW$201, DW_AT_high_pc($C$DW$L$VLIB_histogram_1D_U8_d$23$E)
    2186                    $C$DW$202       .dwtag  DW_TAG_TI_loop_range
    2187                            .dwattr $C$DW$202, DW_AT_low_pc($C$DW$L$VLIB_histogram_1D_U8_d$24$B)
    2188                            .dwattr $C$DW$202, DW_AT_high_pc($C$DW$L$VLIB_histogram_1D_U8_d$24$E)
    2189                    $C$DW$203       .dwtag  DW_TAG_TI_loop_range
    2190                            .dwattr $C$DW$203, DW_AT_low_pc($C$DW$L$VLIB_histogram_1D_U8_d$26$B)
    2191                            .dwattr $C$DW$203, DW_AT_high_pc($C$DW$L$VLIB_histogram_1D_U8_d$26$E)
    2192                    $C$DW$204       .dwtag  DW_TAG_TI_loop_range
    2193                            .dwattr $C$DW$204, DW_AT_low_pc($C$DW$L$VLIB_histogram_1D_U8_d$27$B)
    2194                            .dwattr $C$DW$204, DW_AT_high_pc($C$DW$L$VLIB_histogram_1D_U8_d$27$E)
    2195                    $C$DW$205       .dwtag  DW_TAG_TI_loop_range
    2196                            .dwattr $C$DW$205, DW_AT_low_pc($C$DW$L$VLIB_histogram_1D_U8_d$28$B)
    2197                            .dwattr $C$DW$205, DW_AT_high_pc($C$DW$L$VLIB_histogram_1D_U8_d$28$E)
    2198                    $C$DW$206       .dwtag  DW_TAG_TI_loop_range
    2199                            .dwattr $C$DW$206, DW_AT_low_pc($C$DW$L$VLIB_histogram_1D_U8_d$29$B)
    2200                            .dwattr $C$DW$206, DW_AT_high_pc($C$DW$L$VLIB_histogram_1D_U8_d$29$E)
TMS320C6x Assembler PC v7.4.2 Thu Mar 19 12:41:44 2015

Tools Copyright (c) 1996-2012 Texas Instruments Incorporated
package/lib/Regression/regress_d_c/./../packages/ti/vlib/src/VLIB_histogram_1D_U8/VLIB_histogram_1D_U8_d.se66 PAGE   41

    2201                    
    2202                    $C$DW$207       .dwtag  DW_TAG_TI_loop
    2203                            .dwattr $C$DW$207, DW_AT_name("c:\nightlybuilds\vlib\ti\vlib\vlib\examples\package/lib/Regress
    2204                            .dwattr $C$DW$207, DW_AT_TI_begin_file("./../packages/ti/vlib/src/VLIB_histogram_1D_U8/VLIB_hi
    2205                            .dwattr $C$DW$207, DW_AT_TI_begin_line(0x5a)
    2206                            .dwattr $C$DW$207, DW_AT_TI_end_line(0x5e)
    2207                    $C$DW$208       .dwtag  DW_TAG_TI_loop_range
    2208                            .dwattr $C$DW$208, DW_AT_low_pc($C$DW$L$VLIB_histogram_1D_U8_d$12$B)
    2209                            .dwattr $C$DW$208, DW_AT_high_pc($C$DW$L$VLIB_histogram_1D_U8_d$12$E)
    2210                            .dwendtag $C$DW$207
    2211                    
    2212                            .dwendtag $C$DW$183
    2213                    
    2214                            .dwattr $C$DW$95, DW_AT_TI_end_file("./../packages/ti/vlib/src/VLIB_histogram_1D_U8/VLIB_histo
    2215                            .dwattr $C$DW$95, DW_AT_TI_end_line(0xa7)
    2216                            .dwattr $C$DW$95, DW_AT_TI_end_column(0x01)
    2217                            .dwendentry
    2218                            .dwendtag $C$DW$95
    2219                    
    2220                    ;; Inlined function references:
    2221                    ;; [ 15] VLIB_profile_start
    2222                    ;; [ 16] VLIB_profile_stop
    2223                    ;; [ 19] VLIB_kernel_memory
    2224                    ;******************************************************************************
    2225                    ;* STRINGS                                                                    *
    2226                    ;******************************************************************************
    2227 00000000                   .sect   ".const:.string"
    2228 00000000 00000056  $C$SL1: .string "VLIB_histogram_1D_U8",0
         00000001 0000004C 
         00000002 00000049 
         00000003 00000042 
         00000004 0000005F 
         00000005 00000068 
         00000006 00000069 
         00000007 00000073 
         00000008 00000074 
         00000009 0000006F 
         0000000a 00000067 
         0000000b 00000072 
         0000000c 00000061 
         0000000d 0000006D 
         0000000e 0000005F 
         0000000f 00000031 
         00000010 00000044 
         00000011 0000005F 
         00000012 00000055 
         00000013 00000038 
         00000014 00000000 
    2229 00000015 00000025  $C$SL2: .string "%s generated input | Opt results compared to NatC results |"
         00000016 00000073 
         00000017 00000020 
         00000018 00000067 
         00000019 00000065 
         0000001a 0000006E 
         0000001b 00000065 
TMS320C6x Assembler PC v7.4.2 Thu Mar 19 12:41:44 2015

Tools Copyright (c) 1996-2012 Texas Instruments Incorporated
package/lib/Regression/regress_d_c/./../packages/ti/vlib/src/VLIB_histogram_1D_U8/VLIB_histogram_1D_U8_d.se66 PAGE   42

         0000001c 00000072 
         0000001d 00000061 
         0000001e 00000074 
         0000001f 00000065 
         00000020 00000064 
         00000021 00000020 
         00000022 00000069 
         00000023 0000006E 
         00000024 00000070 
         00000025 00000075 
         00000026 00000074 
         00000027 00000020 
         00000028 0000007C 
         00000029 00000020 
         0000002a 0000004F 
         0000002b 00000070 
         0000002c 00000074 
         0000002d 00000020 
         0000002e 00000072 
         0000002f 00000065 
         00000030 00000073 
         00000031 00000075 
         00000032 0000006C 
         00000033 00000074 
         00000034 00000073 
         00000035 00000020 
         00000036 00000063 
         00000037 0000006F 
         00000038 0000006D 
         00000039 00000070 
         0000003a 00000061 
         0000003b 00000072 
         0000003c 00000065 
         0000003d 00000064 
         0000003e 00000020 
         0000003f 00000074 
         00000040 0000006F 
         00000041 00000020 
         00000042 0000004E 
         00000043 00000061 
         00000044 00000074 
         00000045 00000043 
         00000046 00000020 
         00000047 00000072 
         00000048 00000065 
         00000049 00000073 
         0000004a 00000075 
         0000004b 0000006C 
         0000004c 00000074 
         0000004d 00000073 
         0000004e 00000020 
         0000004f 0000007C 
    2230 00000050 00000020          .string " numBins=%d, maxSize=%d, numX=%d",0
         00000051 0000006E 
         00000052 00000075 
TMS320C6x Assembler PC v7.4.2 Thu Mar 19 12:41:44 2015

Tools Copyright (c) 1996-2012 Texas Instruments Incorporated
package/lib/Regression/regress_d_c/./../packages/ti/vlib/src/VLIB_histogram_1D_U8/VLIB_histogram_1D_U8_d.se66 PAGE   43

         00000053 0000006D 
         00000054 00000042 
         00000055 00000069 
         00000056 0000006E 
         00000057 00000073 
         00000058 0000003D 
         00000059 00000025 
         0000005a 00000064 
         0000005b 0000002C 
         0000005c 00000020 
         0000005d 0000006D 
         0000005e 00000061 
         0000005f 00000078 
         00000060 00000053 
         00000061 00000069 
         00000062 0000007A 
         00000063 00000065 
         00000064 0000003D 
         00000065 00000025 
         00000066 00000064 
         00000067 0000002C 
         00000068 00000020 
         00000069 0000006E 
         0000006a 00000075 
         0000006b 0000006D 
         0000006c 00000058 
         0000006d 0000003D 
         0000006e 00000025 
         0000006f 00000064 
         00000070 00000000 
    2231 00000071 0000006E  $C$SL3: .string "numBins=%d, maxSize=%d, numX=%d",0
         00000072 00000075 
         00000073 0000006D 
         00000074 00000042 
         00000075 00000069 
         00000076 0000006E 
         00000077 00000073 
         00000078 0000003D 
         00000079 00000025 
         0000007a 00000064 
         0000007b 0000002C 
         0000007c 00000020 
         0000007d 0000006D 
         0000007e 00000061 
         0000007f 00000078 
         00000080 00000053 
         00000081 00000069 
         00000082 0000007A 
         00000083 00000065 
         00000084 0000003D 
         00000085 00000025 
         00000086 00000064 
         00000087 0000002C 
         00000088 00000020 
         00000089 0000006E 
TMS320C6x Assembler PC v7.4.2 Thu Mar 19 12:41:44 2015

Tools Copyright (c) 1996-2012 Texas Instruments Incorporated
package/lib/Regression/regress_d_c/./../packages/ti/vlib/src/VLIB_histogram_1D_U8/VLIB_histogram_1D_U8_d.se66 PAGE   44

         0000008a 00000075 
         0000008b 0000006D 
         0000008c 00000058 
         0000008d 0000003D 
         0000008e 00000025 
         0000008f 00000064 
         00000090 00000000 
    2232 00000091 0000006E  $C$SL4: .string "numX",0
         00000092 00000075 
         00000093 0000006D 
         00000094 00000058 
         00000095 00000000 
    2233 00000096 0000004E  $C$SL5: .string "N = numX",0
         00000097 00000020 
         00000098 0000003D 
         00000099 00000020 
         0000009a 0000006E 
         0000009b 00000075 
         0000009c 0000006D 
         0000009d 00000058 
         0000009e 00000000 
    2234 0000009f 0000002D  $C$SL6: .string "-----------------------------------------------------------"
         000000a0 0000002D 
         000000a1 0000002D 
         000000a2 0000002D 
         000000a3 0000002D 
         000000a4 0000002D 
         000000a5 0000002D 
         000000a6 0000002D 
         000000a7 0000002D 
         000000a8 0000002D 
         000000a9 0000002D 
         000000aa 0000002D 
         000000ab 0000002D 
         000000ac 0000002D 
         000000ad 0000002D 
         000000ae 0000002D 
         000000af 0000002D 
         000000b0 0000002D 
         000000b1 0000002D 
         000000b2 0000002D 
         000000b3 0000002D 
         000000b4 0000002D 
         000000b5 0000002D 
         000000b6 0000002D 
         000000b7 0000002D 
         000000b8 0000002D 
         000000b9 0000002D 
         000000ba 0000002D 
         000000bb 0000002D 
         000000bc 0000002D 
         000000bd 0000002D 
         000000be 0000002D 
         000000bf 0000002D 
         000000c0 0000002D 
TMS320C6x Assembler PC v7.4.2 Thu Mar 19 12:41:44 2015

Tools Copyright (c) 1996-2012 Texas Instruments Incorporated
package/lib/Regression/regress_d_c/./../packages/ti/vlib/src/VLIB_histogram_1D_U8/VLIB_histogram_1D_U8_d.se66 PAGE   45

         000000c1 0000002D 
         000000c2 0000002D 
         000000c3 0000002D 
         000000c4 0000002D 
         000000c5 0000002D 
         000000c6 0000002D 
         000000c7 0000002D 
         000000c8 0000002D 
         000000c9 0000002D 
         000000ca 0000002D 
         000000cb 0000002D 
         000000cc 0000002D 
         000000cd 0000002D 
         000000ce 0000002D 
         000000cf 0000002D 
         000000d0 0000002D 
         000000d1 0000002D 
         000000d2 0000002D 
         000000d3 0000002D 
         000000d4 0000002D 
         000000d5 0000002D 
         000000d6 0000002D 
         000000d7 0000002D 
         000000d8 0000002D 
         000000d9 0000002D 
    2235 000000da 0000002D          .string "-----------------------------------------------------------"
         000000db 0000002D 
         000000dc 0000002D 
         000000dd 0000002D 
         000000de 0000002D 
         000000df 0000002D 
         000000e0 0000002D 
         000000e1 0000002D 
         000000e2 0000002D 
         000000e3 0000002D 
         000000e4 0000002D 
         000000e5 0000002D 
         000000e6 0000002D 
         000000e7 0000002D 
         000000e8 0000002D 
         000000e9 0000002D 
         000000ea 0000002D 
         000000eb 0000002D 
         000000ec 0000002D 
         000000ed 0000002D 
         000000ee 0000002D 
         000000ef 0000002D 
         000000f0 0000002D 
         000000f1 0000002D 
         000000f2 0000002D 
         000000f3 0000002D 
         000000f4 0000002D 
         000000f5 0000002D 
         000000f6 0000002D 
         000000f7 0000002D 
TMS320C6x Assembler PC v7.4.2 Thu Mar 19 12:41:44 2015

Tools Copyright (c) 1996-2012 Texas Instruments Incorporated
package/lib/Regression/regress_d_c/./../packages/ti/vlib/src/VLIB_histogram_1D_U8/VLIB_histogram_1D_U8_d.se66 PAGE   46

         000000f8 0000002D 
         000000f9 0000002D 
         000000fa 0000002D 
         000000fb 0000002D 
         000000fc 0000002D 
         000000fd 0000002D 
         000000fe 0000002D 
         000000ff 0000002D 
         00000100 0000002D 
         00000101 0000002D 
         00000102 0000002D 
         00000103 0000002D 
         00000104 0000002D 
         00000105 0000002D 
         00000106 0000002D 
         00000107 0000002D 
         00000108 0000002D 
         00000109 0000002D 
         0000010a 0000002D 
         0000010b 0000002D 
         0000010c 0000002D 
         0000010d 0000002D 
         0000010e 0000002D 
         0000010f 0000002D 
         00000110 0000002D 
         00000111 0000002D 
         00000112 0000002D 
         00000113 0000002D 
         00000114 0000002D 
    2236 00000115 0000002D          .string "-----------------------",10,0
         00000116 0000002D 
         00000117 0000002D 
         00000118 0000002D 
         00000119 0000002D 
         0000011a 0000002D 
         0000011b 0000002D 
         0000011c 0000002D 
         0000011d 0000002D 
         0000011e 0000002D 
         0000011f 0000002D 
         00000120 0000002D 
         00000121 0000002D 
         00000122 0000002D 
         00000123 0000002D 
         00000124 0000002D 
         00000125 0000002D 
         00000126 0000002D 
         00000127 0000002D 
         00000128 0000002D 
         00000129 0000002D 
         0000012a 0000002D 
         0000012b 0000002D 
         0000012c 0000000A 
         0000012d 00000000 
    2237                    ;*****************************************************************************
TMS320C6x Assembler PC v7.4.2 Thu Mar 19 12:41:44 2015

Tools Copyright (c) 1996-2012 Texas Instruments Incorporated
package/lib/Regression/regress_d_c/./../packages/ti/vlib/src/VLIB_histogram_1D_U8/VLIB_histogram_1D_U8_d.se66 PAGE   47

    2238                    ;* UNDEFINED EXTERNAL REFERENCES                                             *
    2239                    ;*****************************************************************************
    2240                            .global printf
    2241                            .global sprintf
    2242                            .global memset
    2243                            .global malloc
    2244                            .global free
    2245                            .global VLIB_cache_inval
    2246                            .global VLIB_profile_init
    2247                            .global VLIB_formula_add_test
    2248                            .global VLIB_skip_test
    2249                            .global VLIB_profile_cycle_report
    2250                            .global initStack
    2251                            .global setStackDepth
    2252                            .global getSP
    2253                            .global VLIB_stack_memory
    2254                            .global VLIB_compare_mem
    2255                            .global VLIB_fillBuffer
    2256                            .global VLIB_malloc
    2257                            .global VLIB_free
    2258                            .global VLIB_histogram_1D_U8
    2259                            .global VLIB_histogram_1D_U8_cn
    2260                            .global histogram_1D_U8_getTestParams
    2261                            .global VLIB_histogram_1D_Init_U8_cn
    2262                            .global test_cases
    2263                            .global act_kernel
    2264                            .global desc
    2265                            .global testPatternString
    2266                            .global est_test
    2267                            .global beg_count
    2268                            .global end_count
    2269                            .global overhead
    2270                            .global cycles
    2271                    
    2272                    ;******************************************************************************
    2273                    ;* BUILD ATTRIBUTES                                                           *
    2274                    ;******************************************************************************
    2275                            .battr "TI", Tag_File, 1, Tag_Long_Precision_Bits(2)
    2276                            .battr "TI", Tag_File, 1, Tag_Bitfield_layout(2)
    2277                            .battr "TI", Tag_File, 1, Tag_ABI_enum_size(2)
    2278                            .battr "c6xabi", Tag_File, 1, Tag_ABI_wchar_t(1)
    2279                            .battr "c6xabi", Tag_File, 1, Tag_ABI_array_object_alignment(0)
    2280                            .battr "c6xabi", Tag_File, 1, Tag_ABI_array_object_align_expected(0)
    2281                            .battr "c6xabi", Tag_File, 1, Tag_ABI_PIC(0)
    2282                            .battr "c6xabi", Tag_File, 1, Tag_ABI_PID(0)
    2283                            .battr "c6xabi", Tag_File, 1, Tag_ABI_DSBT(0)
    2284                            .battr "c6xabi", Tag_File, 1, Tag_ABI_stack_align_needed(0)
    2285                            .battr "c6xabi", Tag_File, 1, Tag_ABI_stack_align_preserved(0)
    2286                            .battr "TI", Tag_File, 1, Tag_Tramps_Use_SOC(1)
    2287                    
    2288                    ;******************************************************************************
    2289                    ;* TYPE INFORMATION                                                           *
    2290                    ;******************************************************************************
    2291                    
    2292                    $C$DW$T$37      .dwtag  DW_TAG_enumeration_type
TMS320C6x Assembler PC v7.4.2 Thu Mar 19 12:41:44 2015

Tools Copyright (c) 1996-2012 Texas Instruments Incorporated
package/lib/Regression/regress_d_c/./../packages/ti/vlib/src/VLIB_histogram_1D_U8/VLIB_histogram_1D_U8_d.se66 PAGE   48

    2293                            .dwattr $C$DW$T$37, DW_AT_byte_size(0x04)
    2294                    $C$DW$209       .dwtag  DW_TAG_enumerator, DW_AT_name("VLIB_NO_ERROR"), DW_AT_const_value(0x00)
    2295                            .dwattr $C$DW$209, DW_AT_decl_file(".\..\packages\ti\vlib\src\VLIB_histogram_1D_U8\..\common\c
    2296                            .dwattr $C$DW$209, DW_AT_decl_line(0x7a)
    2297                            .dwattr $C$DW$209, DW_AT_decl_column(0x05)
    2298                    $C$DW$210       .dwtag  DW_TAG_enumerator, DW_AT_name("VLIB_ERR_INPUT_INVALID"), DW_AT_const_value(0x0
    2299                            .dwattr $C$DW$210, DW_AT_decl_file(".\..\packages\ti\vlib\src\VLIB_histogram_1D_U8\..\common\c
    2300                            .dwattr $C$DW$210, DW_AT_decl_line(0x7b)
    2301                            .dwattr $C$DW$210, DW_AT_decl_column(0x05)
    2302                    $C$DW$211       .dwtag  DW_TAG_enumerator, DW_AT_name("VLIB_ERR_INPUT_NEGATIVE"), DW_AT_const_value(0x
    2303                            .dwattr $C$DW$211, DW_AT_decl_file(".\..\packages\ti\vlib\src\VLIB_histogram_1D_U8\..\common\c
    2304                            .dwattr $C$DW$211, DW_AT_decl_line(0x7c)
    2305                            .dwattr $C$DW$211, DW_AT_decl_column(0x05)
    2306                    $C$DW$212       .dwtag  DW_TAG_enumerator, DW_AT_name("VLIB_ERR_INPUT_EXCEEDED_RANGE"), DW_AT_const_va
    2307                            .dwattr $C$DW$212, DW_AT_decl_file(".\..\packages\ti\vlib\src\VLIB_histogram_1D_U8\..\common\c
    2308                            .dwattr $C$DW$212, DW_AT_decl_line(0x7d)
    2309                            .dwattr $C$DW$212, DW_AT_decl_column(0x05)
    2310                    $C$DW$213       .dwtag  DW_TAG_enumerator, DW_AT_name("VLIB_ERR_MEMORY_EXCEEDED_BOUNDARY"), DW_AT_cons
    2311                            .dwattr $C$DW$213, DW_AT_decl_file(".\..\packages\ti\vlib\src\VLIB_histogram_1D_U8\..\common\c
    2312                            .dwattr $C$DW$213, DW_AT_decl_line(0x7e)
    2313                            .dwattr $C$DW$213, DW_AT_decl_column(0x05)
    2314                    $C$DW$214       .dwtag  DW_TAG_enumerator, DW_AT_name("VLIB_ERR_MEMORY_ALLOCATION_FAILURE"), DW_AT_con
    2315                            .dwattr $C$DW$214, DW_AT_decl_file(".\..\packages\ti\vlib\src\VLIB_histogram_1D_U8\..\common\c
    2316                            .dwattr $C$DW$214, DW_AT_decl_line(0x7f)
    2317                            .dwattr $C$DW$214, DW_AT_decl_column(0x05)
    2318                    $C$DW$215       .dwtag  DW_TAG_enumerator, DW_AT_name("VLIB_ERR_MEMORY_POINTER_NULL"), DW_AT_const_val
    2319                            .dwattr $C$DW$215, DW_AT_decl_file(".\..\packages\ti\vlib\src\VLIB_histogram_1D_U8\..\common\c
    2320                            .dwattr $C$DW$215, DW_AT_decl_line(0x80)
    2321                            .dwattr $C$DW$215, DW_AT_decl_column(0x05)
    2322                    $C$DW$216       .dwtag  DW_TAG_enumerator, DW_AT_name("VLIB_ERR_DMA_FAILURE"), DW_AT_const_value(0x07)
    2323                            .dwattr $C$DW$216, DW_AT_decl_file(".\..\packages\ti\vlib\src\VLIB_histogram_1D_U8\..\common\c
    2324                            .dwattr $C$DW$216, DW_AT_decl_line(0x81)
    2325                            .dwattr $C$DW$216, DW_AT_decl_column(0x05)
    2326                    $C$DW$217       .dwtag  DW_TAG_enumerator, DW_AT_name("VLIB_ERR_FILE_OPEN_FAILURE"), DW_AT_const_value
    2327                            .dwattr $C$DW$217, DW_AT_decl_file(".\..\packages\ti\vlib\src\VLIB_histogram_1D_U8\..\common\c
    2328                            .dwattr $C$DW$217, DW_AT_decl_line(0x82)
    2329                            .dwattr $C$DW$217, DW_AT_decl_column(0x05)
    2330                    $C$DW$218       .dwtag  DW_TAG_enumerator, DW_AT_name("VLIB_ERR_FILE_READ_FAILURE"), DW_AT_const_value
    2331                            .dwattr $C$DW$218, DW_AT_decl_file(".\..\packages\ti\vlib\src\VLIB_histogram_1D_U8\..\common\c
    2332                            .dwattr $C$DW$218, DW_AT_decl_line(0x83)
    2333                            .dwattr $C$DW$218, DW_AT_decl_column(0x05)
    2334                    $C$DW$219       .dwtag  DW_TAG_enumerator, DW_AT_name("VLIB_ERR_FILE_WRITE_FAILURE"), DW_AT_const_valu
    2335                            .dwattr $C$DW$219, DW_AT_decl_file(".\..\packages\ti\vlib\src\VLIB_histogram_1D_U8\..\common\c
    2336                            .dwattr $C$DW$219, DW_AT_decl_line(0x84)
    2337                            .dwattr $C$DW$219, DW_AT_decl_column(0x05)
    2338                    $C$DW$220       .dwtag  DW_TAG_enumerator, DW_AT_name("VLIB_ERR_FILE_CLOSE_FAILURE"), DW_AT_const_valu
    2339                            .dwattr $C$DW$220, DW_AT_decl_file(".\..\packages\ti\vlib\src\VLIB_histogram_1D_U8\..\common\c
    2340                            .dwattr $C$DW$220, DW_AT_decl_line(0x85)
    2341                            .dwattr $C$DW$220, DW_AT_decl_column(0x05)
    2342                    $C$DW$221       .dwtag  DW_TAG_enumerator, DW_AT_name("VLIB_ERR_FILE_FORMAT_FAILURE"), DW_AT_const_val
    2343                            .dwattr $C$DW$221, DW_AT_decl_file(".\..\packages\ti\vlib\src\VLIB_histogram_1D_U8\..\common\c
    2344                            .dwattr $C$DW$221, DW_AT_decl_line(0x86)
    2345                            .dwattr $C$DW$221, DW_AT_decl_column(0x05)
    2346                    $C$DW$222       .dwtag  DW_TAG_enumerator, DW_AT_name("VLIB_WARNING_LOW_MEMORY"), DW_AT_const_value(0x
    2347                            .dwattr $C$DW$222, DW_AT_decl_file(".\..\packages\ti\vlib\src\VLIB_histogram_1D_U8\..\common\c
TMS320C6x Assembler PC v7.4.2 Thu Mar 19 12:41:44 2015

Tools Copyright (c) 1996-2012 Texas Instruments Incorporated
package/lib/Regression/regress_d_c/./../packages/ti/vlib/src/VLIB_histogram_1D_U8/VLIB_histogram_1D_U8_d.se66 PAGE   49

    2348                            .dwattr $C$DW$222, DW_AT_decl_line(0x87)
    2349                            .dwattr $C$DW$222, DW_AT_decl_column(0x05)
    2350                    $C$DW$223       .dwtag  DW_TAG_enumerator, DW_AT_name("VLIB_ERR_NOT_IMPLEMENTED"), DW_AT_const_value(0
    2351                            .dwattr $C$DW$223, DW_AT_decl_file(".\..\packages\ti\vlib\src\VLIB_histogram_1D_U8\..\common\c
    2352                            .dwattr $C$DW$223, DW_AT_decl_line(0x88)
    2353                            .dwattr $C$DW$223, DW_AT_decl_column(0x05)
    2354                    $C$DW$224       .dwtag  DW_TAG_enumerator, DW_AT_name("VLIB_ERROR_MAX"), DW_AT_const_value(0x0f)
    2355                            .dwattr $C$DW$224, DW_AT_decl_file(".\..\packages\ti\vlib\src\VLIB_histogram_1D_U8\..\common\c
    2356                            .dwattr $C$DW$224, DW_AT_decl_line(0x89)
    2357                            .dwattr $C$DW$224, DW_AT_decl_column(0x05)
    2358                            .dwendtag $C$DW$T$37
    2359                    
    2360                            .dwattr $C$DW$T$37, DW_AT_decl_file(".\..\packages\ti\vlib\src\VLIB_histogram_1D_U8\..\common\
    2361                            .dwattr $C$DW$T$37, DW_AT_decl_line(0x79)
    2362                            .dwattr $C$DW$T$37, DW_AT_decl_column(0x0e)
    2363                    $C$DW$T$38      .dwtag  DW_TAG_typedef, DW_AT_name("VLIB_STATUS")
    2364                            .dwattr $C$DW$T$38, DW_AT_type(*$C$DW$T$37)
    2365                            .dwattr $C$DW$T$38, DW_AT_language(DW_LANG_C)
    2366                            .dwattr $C$DW$T$38, DW_AT_decl_file(".\..\packages\ti\vlib\src\VLIB_histogram_1D_U8\..\common\
    2367                            .dwattr $C$DW$T$38, DW_AT_decl_line(0x8a)
    2368                            .dwattr $C$DW$T$38, DW_AT_decl_column(0x03)
    2369                    
    2370                    $C$DW$T$39      .dwtag  DW_TAG_enumeration_type
    2371                            .dwattr $C$DW$T$39, DW_AT_byte_size(0x04)
    2372                    $C$DW$225       .dwtag  DW_TAG_enumerator, DW_AT_name("vlib_KERNEL_OPT"), DW_AT_const_value(0x00)
    2373                            .dwattr $C$DW$225, DW_AT_decl_file(".\..\packages\ti\vlib\src\VLIB_histogram_1D_U8\../common/V
    2374                            .dwattr $C$DW$225, DW_AT_decl_line(0x6a)
    2375                            .dwattr $C$DW$225, DW_AT_decl_column(0x05)
    2376                    $C$DW$226       .dwtag  DW_TAG_enumerator, DW_AT_name("vlib_KERNEL_CN"), DW_AT_const_value(0x01)
    2377                            .dwattr $C$DW$226, DW_AT_decl_file(".\..\packages\ti\vlib\src\VLIB_histogram_1D_U8\../common/V
    2378                            .dwattr $C$DW$226, DW_AT_decl_line(0x6b)
    2379                            .dwattr $C$DW$226, DW_AT_decl_column(0x05)
    2380                    $C$DW$227       .dwtag  DW_TAG_enumerator, DW_AT_name("vlib_KERNEL_CNT"), DW_AT_const_value(0x02)
    2381                            .dwattr $C$DW$227, DW_AT_decl_file(".\..\packages\ti\vlib\src\VLIB_histogram_1D_U8\../common/V
    2382                            .dwattr $C$DW$227, DW_AT_decl_line(0x6c)
    2383                            .dwattr $C$DW$227, DW_AT_decl_column(0x05)
    2384                            .dwendtag $C$DW$T$39
    2385                    
    2386                            .dwattr $C$DW$T$39, DW_AT_decl_file(".\..\packages\ti\vlib\src\VLIB_histogram_1D_U8\../common/
    2387                            .dwattr $C$DW$T$39, DW_AT_decl_line(0x69)
    2388                            .dwattr $C$DW$T$39, DW_AT_decl_column(0x06)
    2389                    
    2390                    $C$DW$T$40      .dwtag  DW_TAG_enumeration_type
    2391                            .dwattr $C$DW$T$40, DW_AT_byte_size(0x04)
    2392                    $C$DW$228       .dwtag  DW_TAG_enumerator, DW_AT_name("vlib_KERNEL_FAIL"), DW_AT_const_value(0x00)
    2393                            .dwattr $C$DW$228, DW_AT_decl_file(".\..\packages\ti\vlib\src\VLIB_histogram_1D_U8\../common/V
    2394                            .dwattr $C$DW$228, DW_AT_decl_line(0x72)
    2395                            .dwattr $C$DW$228, DW_AT_decl_column(0x05)
    2396                    $C$DW$229       .dwtag  DW_TAG_enumerator, DW_AT_name("vlib_KERNEL_PASS"), DW_AT_const_value(0x01)
    2397                            .dwattr $C$DW$229, DW_AT_decl_file(".\..\packages\ti\vlib\src\VLIB_histogram_1D_U8\../common/V
    2398                            .dwattr $C$DW$229, DW_AT_decl_line(0x73)
    2399                            .dwattr $C$DW$229, DW_AT_decl_column(0x05)
    2400                            .dwendtag $C$DW$T$40
    2401                    
    2402                            .dwattr $C$DW$T$40, DW_AT_decl_file(".\..\packages\ti\vlib\src\VLIB_histogram_1D_U8\../common/
TMS320C6x Assembler PC v7.4.2 Thu Mar 19 12:41:44 2015

Tools Copyright (c) 1996-2012 Texas Instruments Incorporated
package/lib/Regression/regress_d_c/./../packages/ti/vlib/src/VLIB_histogram_1D_U8/VLIB_histogram_1D_U8_d.se66 PAGE   50

    2403                            .dwattr $C$DW$T$40, DW_AT_decl_line(0x71)
    2404                            .dwattr $C$DW$T$40, DW_AT_decl_column(0x06)
    2405                    
    2406                    $C$DW$T$24      .dwtag  DW_TAG_structure_type
    2407                            .dwattr $C$DW$T$24, DW_AT_byte_size(0x20)
    2408                    $C$DW$230       .dwtag  DW_TAG_member
    2409                            .dwattr $C$DW$230, DW_AT_type(*$C$DW$T$19)
    2410                            .dwattr $C$DW$230, DW_AT_name("testPattern")
    2411                            .dwattr $C$DW$230, DW_AT_TI_symbol_name("testPattern")
    2412                            .dwattr $C$DW$230, DW_AT_data_member_location[DW_OP_plus_uconst 0x0]
    2413                            .dwattr $C$DW$230, DW_AT_accessibility(DW_ACCESS_public)
    2414                            .dwattr $C$DW$230, DW_AT_decl_file(".\..\packages\ti\vlib\src\VLIB_histogram_1D_U8\VLIB_histog
    2415                            .dwattr $C$DW$230, DW_AT_decl_line(0x24)
    2416                            .dwattr $C$DW$230, DW_AT_decl_column(0x0f)
    2417                    $C$DW$231       .dwtag  DW_TAG_member
    2418                            .dwattr $C$DW$231, DW_AT_type(*$C$DW$T$20)
    2419                            .dwattr $C$DW$231, DW_AT_name("staticInEdges")
    2420                            .dwattr $C$DW$231, DW_AT_TI_symbol_name("staticInEdges")
    2421                            .dwattr $C$DW$231, DW_AT_data_member_location[DW_OP_plus_uconst 0x4]
    2422                            .dwattr $C$DW$231, DW_AT_accessibility(DW_ACCESS_public)
    2423                            .dwattr $C$DW$231, DW_AT_decl_file(".\..\packages\ti\vlib\src\VLIB_histogram_1D_U8\VLIB_histog
    2424                            .dwattr $C$DW$231, DW_AT_decl_line(0x25)
    2425                            .dwattr $C$DW$231, DW_AT_decl_column(0x0f)
    2426                    $C$DW$232       .dwtag  DW_TAG_member
    2427                            .dwattr $C$DW$232, DW_AT_type(*$C$DW$T$20)
    2428                            .dwattr $C$DW$232, DW_AT_name("staticInImg")
    2429                            .dwattr $C$DW$232, DW_AT_TI_symbol_name("staticInImg")
    2430                            .dwattr $C$DW$232, DW_AT_data_member_location[DW_OP_plus_uconst 0x8]
    2431                            .dwattr $C$DW$232, DW_AT_accessibility(DW_ACCESS_public)
    2432                            .dwattr $C$DW$232, DW_AT_decl_file(".\..\packages\ti\vlib\src\VLIB_histogram_1D_U8\VLIB_histog
    2433                            .dwattr $C$DW$232, DW_AT_decl_line(0x26)
    2434                            .dwattr $C$DW$232, DW_AT_decl_column(0x0f)
    2435                    $C$DW$233       .dwtag  DW_TAG_member
    2436                            .dwattr $C$DW$233, DW_AT_type(*$C$DW$T$22)
    2437                            .dwattr $C$DW$233, DW_AT_name("staticOut")
    2438                            .dwattr $C$DW$233, DW_AT_TI_symbol_name("staticOut")
    2439                            .dwattr $C$DW$233, DW_AT_data_member_location[DW_OP_plus_uconst 0xc]
    2440                            .dwattr $C$DW$233, DW_AT_accessibility(DW_ACCESS_public)
    2441                            .dwattr $C$DW$233, DW_AT_decl_file(".\..\packages\ti\vlib\src\VLIB_histogram_1D_U8\VLIB_histog
    2442                            .dwattr $C$DW$233, DW_AT_decl_line(0x27)
    2443                            .dwattr $C$DW$233, DW_AT_decl_column(0x0f)
    2444                    $C$DW$234       .dwtag  DW_TAG_member
    2445                            .dwattr $C$DW$234, DW_AT_type(*$C$DW$T$23)
    2446                            .dwattr $C$DW$234, DW_AT_name("numX")
    2447                            .dwattr $C$DW$234, DW_AT_TI_symbol_name("numX")
    2448                            .dwattr $C$DW$234, DW_AT_data_member_location[DW_OP_plus_uconst 0x10]
    2449                            .dwattr $C$DW$234, DW_AT_accessibility(DW_ACCESS_public)
    2450                            .dwattr $C$DW$234, DW_AT_decl_file(".\..\packages\ti\vlib\src\VLIB_histogram_1D_U8\VLIB_histog
    2451                            .dwattr $C$DW$234, DW_AT_decl_line(0x28)
    2452                            .dwattr $C$DW$234, DW_AT_decl_column(0x0f)
    2453                    $C$DW$235       .dwtag  DW_TAG_member
    2454                            .dwattr $C$DW$235, DW_AT_type(*$C$DW$T$23)
    2455                            .dwattr $C$DW$235, DW_AT_name("numBins")
    2456                            .dwattr $C$DW$235, DW_AT_TI_symbol_name("numBins")
    2457                            .dwattr $C$DW$235, DW_AT_data_member_location[DW_OP_plus_uconst 0x14]
TMS320C6x Assembler PC v7.4.2 Thu Mar 19 12:41:44 2015

Tools Copyright (c) 1996-2012 Texas Instruments Incorporated
package/lib/Regression/regress_d_c/./../packages/ti/vlib/src/VLIB_histogram_1D_U8/VLIB_histogram_1D_U8_d.se66 PAGE   51

    2458                            .dwattr $C$DW$235, DW_AT_accessibility(DW_ACCESS_public)
    2459                            .dwattr $C$DW$235, DW_AT_decl_file(".\..\packages\ti\vlib\src\VLIB_histogram_1D_U8\VLIB_histog
    2460                            .dwattr $C$DW$235, DW_AT_decl_line(0x29)
    2461                            .dwattr $C$DW$235, DW_AT_decl_column(0x0f)
    2462                    $C$DW$236       .dwtag  DW_TAG_member
    2463                            .dwattr $C$DW$236, DW_AT_type(*$C$DW$T$21)
    2464                            .dwattr $C$DW$236, DW_AT_name("binWeight")
    2465                            .dwattr $C$DW$236, DW_AT_TI_symbol_name("binWeight")
    2466                            .dwattr $C$DW$236, DW_AT_data_member_location[DW_OP_plus_uconst 0x18]
    2467                            .dwattr $C$DW$236, DW_AT_accessibility(DW_ACCESS_public)
    2468                            .dwattr $C$DW$236, DW_AT_decl_file(".\..\packages\ti\vlib\src\VLIB_histogram_1D_U8\VLIB_histog
    2469                            .dwattr $C$DW$236, DW_AT_decl_line(0x2a)
    2470                            .dwattr $C$DW$236, DW_AT_decl_column(0x0f)
    2471                    $C$DW$237       .dwtag  DW_TAG_member
    2472                            .dwattr $C$DW$237, DW_AT_type(*$C$DW$T$23)
    2473                            .dwattr $C$DW$237, DW_AT_name("maxSize")
    2474                            .dwattr $C$DW$237, DW_AT_TI_symbol_name("maxSize")
    2475                            .dwattr $C$DW$237, DW_AT_data_member_location[DW_OP_plus_uconst 0x1c]
    2476                            .dwattr $C$DW$237, DW_AT_accessibility(DW_ACCESS_public)
    2477                            .dwattr $C$DW$237, DW_AT_decl_file(".\..\packages\ti\vlib\src\VLIB_histogram_1D_U8\VLIB_histog
    2478                            .dwattr $C$DW$237, DW_AT_decl_line(0x2b)
    2479                            .dwattr $C$DW$237, DW_AT_decl_column(0x0f)
    2480                            .dwendtag $C$DW$T$24
    2481                    
    2482                            .dwattr $C$DW$T$24, DW_AT_decl_file(".\..\packages\ti\vlib\src\VLIB_histogram_1D_U8\VLIB_histo
    2483                            .dwattr $C$DW$T$24, DW_AT_decl_line(0x23)
    2484                            .dwattr $C$DW$T$24, DW_AT_decl_column(0x10)
    2485                    $C$DW$T$41      .dwtag  DW_TAG_pointer_type
    2486                            .dwattr $C$DW$T$41, DW_AT_type(*$C$DW$T$24)
    2487                            .dwattr $C$DW$T$41, DW_AT_address_class(0x20)
    2488                    $C$DW$T$43      .dwtag  DW_TAG_typedef, DW_AT_name("histogram_1D_U8_testParams_t")
    2489                            .dwattr $C$DW$T$43, DW_AT_type(*$C$DW$T$24)
    2490                            .dwattr $C$DW$T$43, DW_AT_language(DW_LANG_C)
    2491                            .dwattr $C$DW$T$43, DW_AT_decl_file(".\..\packages\ti\vlib\src\VLIB_histogram_1D_U8\VLIB_histo
    2492                            .dwattr $C$DW$T$43, DW_AT_decl_line(0x2c)
    2493                            .dwattr $C$DW$T$43, DW_AT_decl_column(0x03)
    2494                    $C$DW$T$44      .dwtag  DW_TAG_pointer_type
    2495                            .dwattr $C$DW$T$44, DW_AT_type(*$C$DW$T$43)
    2496                            .dwattr $C$DW$T$44, DW_AT_address_class(0x20)
    2497                    $C$DW$T$45      .dwtag  DW_TAG_pointer_type
    2498                            .dwattr $C$DW$T$45, DW_AT_type(*$C$DW$T$44)
    2499                            .dwattr $C$DW$T$45, DW_AT_address_class(0x20)
    2500                    
    2501                    $C$DW$T$26      .dwtag  DW_TAG_structure_type
    2502                            .dwattr $C$DW$T$26, DW_AT_byte_size(0x18)
    2503                    $C$DW$238       .dwtag  DW_TAG_member
    2504                            .dwattr $C$DW$238, DW_AT_type(*$C$DW$T$10)
    2505                            .dwattr $C$DW$238, DW_AT_name("fd")
    2506                            .dwattr $C$DW$238, DW_AT_TI_symbol_name("fd")
    2507                            .dwattr $C$DW$238, DW_AT_data_member_location[DW_OP_plus_uconst 0x0]
    2508                            .dwattr $C$DW$238, DW_AT_accessibility(DW_ACCESS_public)
    2509                            .dwattr $C$DW$238, DW_AT_decl_file("C:/VLIB_Tools/CCSV5_4_0/ccsv5/tools/compiler/C6000/include
    2510                            .dwattr $C$DW$238, DW_AT_decl_line(0x49)
    2511                            .dwattr $C$DW$238, DW_AT_decl_column(0x0b)
    2512                    $C$DW$239       .dwtag  DW_TAG_member
TMS320C6x Assembler PC v7.4.2 Thu Mar 19 12:41:44 2015

Tools Copyright (c) 1996-2012 Texas Instruments Incorporated
package/lib/Regression/regress_d_c/./../packages/ti/vlib/src/VLIB_histogram_1D_U8/VLIB_histogram_1D_U8_d.se66 PAGE   52

    2513                            .dwattr $C$DW$239, DW_AT_type(*$C$DW$T$25)
    2514                            .dwattr $C$DW$239, DW_AT_name("buf")
    2515                            .dwattr $C$DW$239, DW_AT_TI_symbol_name("buf")
    2516                            .dwattr $C$DW$239, DW_AT_data_member_location[DW_OP_plus_uconst 0x4]
    2517                            .dwattr $C$DW$239, DW_AT_accessibility(DW_ACCESS_public)
    2518                            .dwattr $C$DW$239, DW_AT_decl_file("C:/VLIB_Tools/CCSV5_4_0/ccsv5/tools/compiler/C6000/include
    2519                            .dwattr $C$DW$239, DW_AT_decl_line(0x4a)
    2520                            .dwattr $C$DW$239, DW_AT_decl_column(0x16)
    2521                    $C$DW$240       .dwtag  DW_TAG_member
    2522                            .dwattr $C$DW$240, DW_AT_type(*$C$DW$T$25)
    2523                            .dwattr $C$DW$240, DW_AT_name("pos")
    2524                            .dwattr $C$DW$240, DW_AT_TI_symbol_name("pos")
    2525                            .dwattr $C$DW$240, DW_AT_data_member_location[DW_OP_plus_uconst 0x8]
    2526                            .dwattr $C$DW$240, DW_AT_accessibility(DW_ACCESS_public)
    2527                            .dwattr $C$DW$240, DW_AT_decl_file("C:/VLIB_Tools/CCSV5_4_0/ccsv5/tools/compiler/C6000/include
    2528                            .dwattr $C$DW$240, DW_AT_decl_line(0x4b)
    2529                            .dwattr $C$DW$240, DW_AT_decl_column(0x16)
    2530                    $C$DW$241       .dwtag  DW_TAG_member
    2531                            .dwattr $C$DW$241, DW_AT_type(*$C$DW$T$25)
    2532                            .dwattr $C$DW$241, DW_AT_name("bufend")
    2533                            .dwattr $C$DW$241, DW_AT_TI_symbol_name("bufend")
    2534                            .dwattr $C$DW$241, DW_AT_data_member_location[DW_OP_plus_uconst 0xc]
    2535                            .dwattr $C$DW$241, DW_AT_accessibility(DW_ACCESS_public)
    2536                            .dwattr $C$DW$241, DW_AT_decl_file("C:/VLIB_Tools/CCSV5_4_0/ccsv5/tools/compiler/C6000/include
    2537                            .dwattr $C$DW$241, DW_AT_decl_line(0x4c)
    2538                            .dwattr $C$DW$241, DW_AT_decl_column(0x16)
    2539                    $C$DW$242       .dwtag  DW_TAG_member
    2540                            .dwattr $C$DW$242, DW_AT_type(*$C$DW$T$25)
    2541                            .dwattr $C$DW$242, DW_AT_name("buff_stop")
    2542                            .dwattr $C$DW$242, DW_AT_TI_symbol_name("buff_stop")
    2543                            .dwattr $C$DW$242, DW_AT_data_member_location[DW_OP_plus_uconst 0x10]
    2544                            .dwattr $C$DW$242, DW_AT_accessibility(DW_ACCESS_public)
    2545                            .dwattr $C$DW$242, DW_AT_decl_file("C:/VLIB_Tools/CCSV5_4_0/ccsv5/tools/compiler/C6000/include
    2546                            .dwattr $C$DW$242, DW_AT_decl_line(0x4d)
    2547                            .dwattr $C$DW$242, DW_AT_decl_column(0x16)
    2548                    $C$DW$243       .dwtag  DW_TAG_member
    2549                            .dwattr $C$DW$243, DW_AT_type(*$C$DW$T$11)
    2550                            .dwattr $C$DW$243, DW_AT_name("flags")
    2551                            .dwattr $C$DW$243, DW_AT_TI_symbol_name("flags")
    2552                            .dwattr $C$DW$243, DW_AT_data_member_location[DW_OP_plus_uconst 0x14]
    2553                            .dwattr $C$DW$243, DW_AT_accessibility(DW_ACCESS_public)
    2554                            .dwattr $C$DW$243, DW_AT_decl_file("C:/VLIB_Tools/CCSV5_4_0/ccsv5/tools/compiler/C6000/include
    2555                            .dwattr $C$DW$243, DW_AT_decl_line(0x4e)
    2556                            .dwattr $C$DW$243, DW_AT_decl_column(0x16)
    2557                            .dwendtag $C$DW$T$26
    2558                    
    2559                            .dwattr $C$DW$T$26, DW_AT_decl_file("C:/VLIB_Tools/CCSV5_4_0/ccsv5/tools/compiler/C6000/includ
    2560                            .dwattr $C$DW$T$26, DW_AT_decl_line(0x48)
    2561                            .dwattr $C$DW$T$26, DW_AT_decl_column(0x10)
    2562                    $C$DW$T$46      .dwtag  DW_TAG_typedef, DW_AT_name("FILE")
    2563                            .dwattr $C$DW$T$46, DW_AT_type(*$C$DW$T$26)
    2564                            .dwattr $C$DW$T$46, DW_AT_language(DW_LANG_C)
    2565                            .dwattr $C$DW$T$46, DW_AT_decl_file("C:/VLIB_Tools/CCSV5_4_0/ccsv5/tools/compiler/C6000/includ
    2566                            .dwattr $C$DW$T$46, DW_AT_decl_line(0x4f)
    2567                            .dwattr $C$DW$T$46, DW_AT_decl_column(0x03)
TMS320C6x Assembler PC v7.4.2 Thu Mar 19 12:41:44 2015

Tools Copyright (c) 1996-2012 Texas Instruments Incorporated
package/lib/Regression/regress_d_c/./../packages/ti/vlib/src/VLIB_histogram_1D_U8/VLIB_histogram_1D_U8_d.se66 PAGE   53

    2568                    
    2569                    $C$DW$T$27      .dwtag  DW_TAG_structure_type
    2570                            .dwattr $C$DW$T$27, DW_AT_byte_size(0x08)
    2571                    $C$DW$244       .dwtag  DW_TAG_member
    2572                            .dwattr $C$DW$244, DW_AT_type(*$C$DW$T$10)
    2573                            .dwattr $C$DW$244, DW_AT_name("quot")
    2574                            .dwattr $C$DW$244, DW_AT_TI_symbol_name("quot")
    2575                            .dwattr $C$DW$244, DW_AT_data_member_location[DW_OP_plus_uconst 0x0]
    2576                            .dwattr $C$DW$244, DW_AT_accessibility(DW_ACCESS_public)
    2577                            .dwattr $C$DW$244, DW_AT_decl_file("C:/VLIB_Tools/CCSV5_4_0/ccsv5/tools/compiler/C6000/include
    2578                            .dwattr $C$DW$244, DW_AT_decl_line(0x3e)
    2579                            .dwattr $C$DW$244, DW_AT_decl_column(0x16)
    2580                    $C$DW$245       .dwtag  DW_TAG_member
    2581                            .dwattr $C$DW$245, DW_AT_type(*$C$DW$T$10)
    2582                            .dwattr $C$DW$245, DW_AT_name("rem")
    2583                            .dwattr $C$DW$245, DW_AT_TI_symbol_name("rem")
    2584                            .dwattr $C$DW$245, DW_AT_data_member_location[DW_OP_plus_uconst 0x4]
    2585                            .dwattr $C$DW$245, DW_AT_accessibility(DW_ACCESS_public)
    2586                            .dwattr $C$DW$245, DW_AT_decl_file("C:/VLIB_Tools/CCSV5_4_0/ccsv5/tools/compiler/C6000/include
    2587                            .dwattr $C$DW$245, DW_AT_decl_line(0x3e)
    2588                            .dwattr $C$DW$245, DW_AT_decl_column(0x1c)
    2589                            .dwendtag $C$DW$T$27
    2590                    
    2591                            .dwattr $C$DW$T$27, DW_AT_decl_file("C:/VLIB_Tools/CCSV5_4_0/ccsv5/tools/compiler/C6000/includ
    2592                            .dwattr $C$DW$T$27, DW_AT_decl_line(0x3e)
    2593                            .dwattr $C$DW$T$27, DW_AT_decl_column(0x10)
    2594                    $C$DW$T$47      .dwtag  DW_TAG_typedef, DW_AT_name("div_t")
    2595                            .dwattr $C$DW$T$47, DW_AT_type(*$C$DW$T$27)
    2596                            .dwattr $C$DW$T$47, DW_AT_language(DW_LANG_C)
    2597                            .dwattr $C$DW$T$47, DW_AT_decl_file("C:/VLIB_Tools/CCSV5_4_0/ccsv5/tools/compiler/C6000/includ
    2598                            .dwattr $C$DW$T$47, DW_AT_decl_line(0x3e)
    2599                            .dwattr $C$DW$T$47, DW_AT_decl_column(0x23)
    2600                    
    2601                    $C$DW$T$28      .dwtag  DW_TAG_structure_type
    2602                            .dwattr $C$DW$T$28, DW_AT_byte_size(0x08)
    2603                    $C$DW$246       .dwtag  DW_TAG_member
    2604                            .dwattr $C$DW$246, DW_AT_type(*$C$DW$T$10)
    2605                            .dwattr $C$DW$246, DW_AT_name("quot")
    2606                            .dwattr $C$DW$246, DW_AT_TI_symbol_name("quot")
    2607                            .dwattr $C$DW$246, DW_AT_data_member_location[DW_OP_plus_uconst 0x0]
    2608                            .dwattr $C$DW$246, DW_AT_accessibility(DW_ACCESS_public)
    2609                            .dwattr $C$DW$246, DW_AT_decl_file("C:/VLIB_Tools/CCSV5_4_0/ccsv5/tools/compiler/C6000/include
    2610                            .dwattr $C$DW$246, DW_AT_decl_line(0x40)
    2611                            .dwattr $C$DW$246, DW_AT_decl_column(0x17)
    2612                    $C$DW$247       .dwtag  DW_TAG_member
    2613                            .dwattr $C$DW$247, DW_AT_type(*$C$DW$T$10)
    2614                            .dwattr $C$DW$247, DW_AT_name("rem")
    2615                            .dwattr $C$DW$247, DW_AT_TI_symbol_name("rem")
    2616                            .dwattr $C$DW$247, DW_AT_data_member_location[DW_OP_plus_uconst 0x4]
    2617                            .dwattr $C$DW$247, DW_AT_accessibility(DW_ACCESS_public)
    2618                            .dwattr $C$DW$247, DW_AT_decl_file("C:/VLIB_Tools/CCSV5_4_0/ccsv5/tools/compiler/C6000/include
    2619                            .dwattr $C$DW$247, DW_AT_decl_line(0x40)
    2620                            .dwattr $C$DW$247, DW_AT_decl_column(0x1d)
    2621                            .dwendtag $C$DW$T$28
    2622                    
TMS320C6x Assembler PC v7.4.2 Thu Mar 19 12:41:44 2015

Tools Copyright (c) 1996-2012 Texas Instruments Incorporated
package/lib/Regression/regress_d_c/./../packages/ti/vlib/src/VLIB_histogram_1D_U8/VLIB_histogram_1D_U8_d.se66 PAGE   54

    2623                            .dwattr $C$DW$T$28, DW_AT_decl_file("C:/VLIB_Tools/CCSV5_4_0/ccsv5/tools/compiler/C6000/includ
    2624                            .dwattr $C$DW$T$28, DW_AT_decl_line(0x40)
    2625                            .dwattr $C$DW$T$28, DW_AT_decl_column(0x10)
    2626                    $C$DW$T$48      .dwtag  DW_TAG_typedef, DW_AT_name("ldiv_t")
    2627                            .dwattr $C$DW$T$48, DW_AT_type(*$C$DW$T$28)
    2628                            .dwattr $C$DW$T$48, DW_AT_language(DW_LANG_C)
    2629                            .dwattr $C$DW$T$48, DW_AT_decl_file("C:/VLIB_Tools/CCSV5_4_0/ccsv5/tools/compiler/C6000/includ
    2630                            .dwattr $C$DW$T$48, DW_AT_decl_line(0x40)
    2631                            .dwattr $C$DW$T$48, DW_AT_decl_column(0x24)
    2632                    
    2633                    $C$DW$T$29      .dwtag  DW_TAG_structure_type
    2634                            .dwattr $C$DW$T$29, DW_AT_byte_size(0x10)
    2635                    $C$DW$248       .dwtag  DW_TAG_member
    2636                            .dwattr $C$DW$248, DW_AT_type(*$C$DW$T$14)
    2637                            .dwattr $C$DW$248, DW_AT_name("quot")
    2638                            .dwattr $C$DW$248, DW_AT_TI_symbol_name("quot")
    2639                            .dwattr $C$DW$248, DW_AT_data_member_location[DW_OP_plus_uconst 0x0]
    2640                            .dwattr $C$DW$248, DW_AT_accessibility(DW_ACCESS_public)
    2641                            .dwattr $C$DW$248, DW_AT_decl_file("C:/VLIB_Tools/CCSV5_4_0/ccsv5/tools/compiler/C6000/include
    2642                            .dwattr $C$DW$248, DW_AT_decl_line(0x43)
    2643                            .dwattr $C$DW$248, DW_AT_decl_column(0x1c)
    2644                    $C$DW$249       .dwtag  DW_TAG_member
    2645                            .dwattr $C$DW$249, DW_AT_type(*$C$DW$T$14)
    2646                            .dwattr $C$DW$249, DW_AT_name("rem")
    2647                            .dwattr $C$DW$249, DW_AT_TI_symbol_name("rem")
    2648                            .dwattr $C$DW$249, DW_AT_data_member_location[DW_OP_plus_uconst 0x8]
    2649                            .dwattr $C$DW$249, DW_AT_accessibility(DW_ACCESS_public)
    2650                            .dwattr $C$DW$249, DW_AT_decl_file("C:/VLIB_Tools/CCSV5_4_0/ccsv5/tools/compiler/C6000/include
    2651                            .dwattr $C$DW$249, DW_AT_decl_line(0x43)
    2652                            .dwattr $C$DW$249, DW_AT_decl_column(0x22)
    2653                            .dwendtag $C$DW$T$29
    2654                    
    2655                            .dwattr $C$DW$T$29, DW_AT_decl_file("C:/VLIB_Tools/CCSV5_4_0/ccsv5/tools/compiler/C6000/includ
    2656                            .dwattr $C$DW$T$29, DW_AT_decl_line(0x43)
    2657                            .dwattr $C$DW$T$29, DW_AT_decl_column(0x10)
    2658                    $C$DW$T$49      .dwtag  DW_TAG_typedef, DW_AT_name("lldiv_t")
    2659                            .dwattr $C$DW$T$49, DW_AT_type(*$C$DW$T$29)
    2660                            .dwattr $C$DW$T$49, DW_AT_language(DW_LANG_C)
    2661                            .dwattr $C$DW$T$49, DW_AT_decl_file("C:/VLIB_Tools/CCSV5_4_0/ccsv5/tools/compiler/C6000/includ
    2662                            .dwattr $C$DW$T$49, DW_AT_decl_line(0x43)
    2663                            .dwattr $C$DW$T$49, DW_AT_decl_column(0x29)
    2664                    
    2665                    $C$DW$T$30      .dwtag  DW_TAG_structure_type
    2666                            .dwattr $C$DW$T$30, DW_AT_byte_size(0x24)
    2667                    $C$DW$250       .dwtag  DW_TAG_member
    2668                            .dwattr $C$DW$250, DW_AT_type(*$C$DW$T$23)
    2669                            .dwattr $C$DW$250, DW_AT_name("area")
    2670                            .dwattr $C$DW$250, DW_AT_TI_symbol_name("area")
    2671                            .dwattr $C$DW$250, DW_AT_data_member_location[DW_OP_plus_uconst 0x0]
    2672                            .dwattr $C$DW$250, DW_AT_accessibility(DW_ACCESS_public)
    2673                            .dwattr $C$DW$250, DW_AT_decl_file(".\..\packages\ti\vlib\src\VLIB_histogram_1D_U8\..\common\c
    2674                            .dwattr $C$DW$250, DW_AT_decl_line(0x69)
    2675                            .dwattr $C$DW$250, DW_AT_decl_column(0x0d)
    2676                    $C$DW$251       .dwtag  DW_TAG_member
    2677                            .dwattr $C$DW$251, DW_AT_type(*$C$DW$T$23)
TMS320C6x Assembler PC v7.4.2 Thu Mar 19 12:41:44 2015

Tools Copyright (c) 1996-2012 Texas Instruments Incorporated
package/lib/Regression/regress_d_c/./../packages/ti/vlib/src/VLIB_histogram_1D_U8/VLIB_histogram_1D_U8_d.se66 PAGE   55

    2678                            .dwattr $C$DW$251, DW_AT_name("xsum")
    2679                            .dwattr $C$DW$251, DW_AT_TI_symbol_name("xsum")
    2680                            .dwattr $C$DW$251, DW_AT_data_member_location[DW_OP_plus_uconst 0x4]
    2681                            .dwattr $C$DW$251, DW_AT_accessibility(DW_ACCESS_public)
    2682                            .dwattr $C$DW$251, DW_AT_decl_file(".\..\packages\ti\vlib\src\VLIB_histogram_1D_U8\..\common\c
    2683                            .dwattr $C$DW$251, DW_AT_decl_line(0x6a)
    2684                            .dwattr $C$DW$251, DW_AT_decl_column(0x0d)
    2685                    $C$DW$252       .dwtag  DW_TAG_member
    2686                            .dwattr $C$DW$252, DW_AT_type(*$C$DW$T$23)
    2687                            .dwattr $C$DW$252, DW_AT_name("ysum")
    2688                            .dwattr $C$DW$252, DW_AT_TI_symbol_name("ysum")
    2689                            .dwattr $C$DW$252, DW_AT_data_member_location[DW_OP_plus_uconst 0x8]
    2690                            .dwattr $C$DW$252, DW_AT_accessibility(DW_ACCESS_public)
    2691                            .dwattr $C$DW$252, DW_AT_decl_file(".\..\packages\ti\vlib\src\VLIB_histogram_1D_U8\..\common\c
    2692                            .dwattr $C$DW$252, DW_AT_decl_line(0x6b)
    2693                            .dwattr $C$DW$252, DW_AT_decl_column(0x0d)
    2694                    $C$DW$253       .dwtag  DW_TAG_member
    2695                            .dwattr $C$DW$253, DW_AT_type(*$C$DW$T$23)
    2696                            .dwattr $C$DW$253, DW_AT_name("xmin")
    2697                            .dwattr $C$DW$253, DW_AT_TI_symbol_name("xmin")
    2698                            .dwattr $C$DW$253, DW_AT_data_member_location[DW_OP_plus_uconst 0xc]
    2699                            .dwattr $C$DW$253, DW_AT_accessibility(DW_ACCESS_public)
    2700                            .dwattr $C$DW$253, DW_AT_decl_file(".\..\packages\ti\vlib\src\VLIB_histogram_1D_U8\..\common\c
    2701                            .dwattr $C$DW$253, DW_AT_decl_line(0x6d)
    2702                            .dwattr $C$DW$253, DW_AT_decl_column(0x0d)
    2703                    $C$DW$254       .dwtag  DW_TAG_member
    2704                            .dwattr $C$DW$254, DW_AT_type(*$C$DW$T$23)
    2705                            .dwattr $C$DW$254, DW_AT_name("ymin")
    2706                            .dwattr $C$DW$254, DW_AT_TI_symbol_name("ymin")
    2707                            .dwattr $C$DW$254, DW_AT_data_member_location[DW_OP_plus_uconst 0x10]
    2708                            .dwattr $C$DW$254, DW_AT_accessibility(DW_ACCESS_public)
    2709                            .dwattr $C$DW$254, DW_AT_decl_file(".\..\packages\ti\vlib\src\VLIB_histogram_1D_U8\..\common\c
    2710                            .dwattr $C$DW$254, DW_AT_decl_line(0x6e)
    2711                            .dwattr $C$DW$254, DW_AT_decl_column(0x0d)
    2712                    $C$DW$255       .dwtag  DW_TAG_member
    2713                            .dwattr $C$DW$255, DW_AT_type(*$C$DW$T$23)
    2714                            .dwattr $C$DW$255, DW_AT_name("xmax")
    2715                            .dwattr $C$DW$255, DW_AT_TI_symbol_name("xmax")
    2716                            .dwattr $C$DW$255, DW_AT_data_member_location[DW_OP_plus_uconst 0x14]
    2717                            .dwattr $C$DW$255, DW_AT_accessibility(DW_ACCESS_public)
    2718                            .dwattr $C$DW$255, DW_AT_decl_file(".\..\packages\ti\vlib\src\VLIB_histogram_1D_U8\..\common\c
    2719                            .dwattr $C$DW$255, DW_AT_decl_line(0x6f)
    2720                            .dwattr $C$DW$255, DW_AT_decl_column(0x0d)
    2721                    $C$DW$256       .dwtag  DW_TAG_member
    2722                            .dwattr $C$DW$256, DW_AT_type(*$C$DW$T$23)
    2723                            .dwattr $C$DW$256, DW_AT_name("ymax")
    2724                            .dwattr $C$DW$256, DW_AT_TI_symbol_name("ymax")
    2725                            .dwattr $C$DW$256, DW_AT_data_member_location[DW_OP_plus_uconst 0x18]
    2726                            .dwattr $C$DW$256, DW_AT_accessibility(DW_ACCESS_public)
    2727                            .dwattr $C$DW$256, DW_AT_decl_file(".\..\packages\ti\vlib\src\VLIB_histogram_1D_U8\..\common\c
    2728                            .dwattr $C$DW$256, DW_AT_decl_line(0x70)
    2729                            .dwattr $C$DW$256, DW_AT_decl_column(0x0d)
    2730                    $C$DW$257       .dwtag  DW_TAG_member
    2731                            .dwattr $C$DW$257, DW_AT_type(*$C$DW$T$23)
    2732                            .dwattr $C$DW$257, DW_AT_name("seedx")
TMS320C6x Assembler PC v7.4.2 Thu Mar 19 12:41:44 2015

Tools Copyright (c) 1996-2012 Texas Instruments Incorporated
package/lib/Regression/regress_d_c/./../packages/ti/vlib/src/VLIB_histogram_1D_U8/VLIB_histogram_1D_U8_d.se66 PAGE   56

    2733                            .dwattr $C$DW$257, DW_AT_TI_symbol_name("seedx")
    2734                            .dwattr $C$DW$257, DW_AT_data_member_location[DW_OP_plus_uconst 0x1c]
    2735                            .dwattr $C$DW$257, DW_AT_accessibility(DW_ACCESS_public)
    2736                            .dwattr $C$DW$257, DW_AT_decl_file(".\..\packages\ti\vlib\src\VLIB_histogram_1D_U8\..\common\c
    2737                            .dwattr $C$DW$257, DW_AT_decl_line(0x72)
    2738                            .dwattr $C$DW$257, DW_AT_decl_column(0x0d)
    2739                    $C$DW$258       .dwtag  DW_TAG_member
    2740                            .dwattr $C$DW$258, DW_AT_type(*$C$DW$T$23)
    2741                            .dwattr $C$DW$258, DW_AT_name("seedy")
    2742                            .dwattr $C$DW$258, DW_AT_TI_symbol_name("seedy")
    2743                            .dwattr $C$DW$258, DW_AT_data_member_location[DW_OP_plus_uconst 0x20]
    2744                            .dwattr $C$DW$258, DW_AT_accessibility(DW_ACCESS_public)
    2745                            .dwattr $C$DW$258, DW_AT_decl_file(".\..\packages\ti\vlib\src\VLIB_histogram_1D_U8\..\common\c
    2746                            .dwattr $C$DW$258, DW_AT_decl_line(0x73)
    2747                            .dwattr $C$DW$258, DW_AT_decl_column(0x0d)
    2748                            .dwendtag $C$DW$T$30
    2749                    
    2750                            .dwattr $C$DW$T$30, DW_AT_decl_file(".\..\packages\ti\vlib\src\VLIB_histogram_1D_U8\..\common\
    2751                            .dwattr $C$DW$T$30, DW_AT_decl_line(0x68)
    2752                            .dwattr $C$DW$T$30, DW_AT_decl_column(0x10)
    2753                    $C$DW$T$50      .dwtag  DW_TAG_typedef, DW_AT_name("VLIB_CC")
    2754                            .dwattr $C$DW$T$50, DW_AT_type(*$C$DW$T$30)
    2755                            .dwattr $C$DW$T$50, DW_AT_language(DW_LANG_C)
    2756                            .dwattr $C$DW$T$50, DW_AT_decl_file(".\..\packages\ti\vlib\src\VLIB_histogram_1D_U8\..\common\
    2757                            .dwattr $C$DW$T$50, DW_AT_decl_line(0x75)
    2758                            .dwattr $C$DW$T$50, DW_AT_decl_column(0x03)
    2759                    
    2760                    $C$DW$T$33      .dwtag  DW_TAG_structure_type
    2761                            .dwattr $C$DW$T$33, DW_AT_byte_size(0x10)
    2762                    $C$DW$259       .dwtag  DW_TAG_member
    2763                            .dwattr $C$DW$259, DW_AT_type(*$C$DW$T$8)
    2764                            .dwattr $C$DW$259, DW_AT_name("daylight")
    2765                            .dwattr $C$DW$259, DW_AT_TI_symbol_name("daylight")
    2766                            .dwattr $C$DW$259, DW_AT_data_member_location[DW_OP_plus_uconst 0x0]
    2767                            .dwattr $C$DW$259, DW_AT_accessibility(DW_ACCESS_public)
    2768                            .dwattr $C$DW$259, DW_AT_decl_file("C:/VLIB_Tools/CCSV5_4_0/ccsv5/tools/compiler/C6000/include
    2769                            .dwattr $C$DW$259, DW_AT_decl_line(0x52)
    2770                            .dwattr $C$DW$259, DW_AT_decl_column(0x0b)
    2771                    $C$DW$260       .dwtag  DW_TAG_member
    2772                            .dwattr $C$DW$260, DW_AT_type(*$C$DW$T$10)
    2773                            .dwattr $C$DW$260, DW_AT_name("timezone")
    2774                            .dwattr $C$DW$260, DW_AT_TI_symbol_name("timezone")
    2775                            .dwattr $C$DW$260, DW_AT_data_member_location[DW_OP_plus_uconst 0x4]
    2776                            .dwattr $C$DW$260, DW_AT_accessibility(DW_ACCESS_public)
    2777                            .dwattr $C$DW$260, DW_AT_decl_file("C:/VLIB_Tools/CCSV5_4_0/ccsv5/tools/compiler/C6000/include
    2778                            .dwattr $C$DW$260, DW_AT_decl_line(0x53)
    2779                            .dwattr $C$DW$260, DW_AT_decl_column(0x0b)
    2780                    $C$DW$261       .dwtag  DW_TAG_member
    2781                            .dwattr $C$DW$261, DW_AT_type(*$C$DW$T$32)
    2782                            .dwattr $C$DW$261, DW_AT_name("tzname")
    2783                            .dwattr $C$DW$261, DW_AT_TI_symbol_name("tzname")
