TMS320C6x Assembler PC v7.4.2 Thu Mar 19 12:43:15 2015

Tools Copyright (c) 1996-2012 Texas Instruments Incorporated
package/lib/Regression/regress_d_c/./../packages/ti/vlib/src/VLIB_L2_norm_i8/VLIB_L2_norm_i8_d.se66 PAGE    1

       1                    ;******************************************************************************
       2                    ;* TMS320C6x C/C++ Codegen                                          PC v7.4.2 *
       3                    ;* Date/Time created: Thu Mar 19 12:43:15 2015                                *
       4                    ;******************************************************************************
       5                            .compiler_opts --abi=eabi --c64p_l1d_workaround=off --endian=little --hll_source=on --long_pre
       6                    
       7                    ;******************************************************************************
       8                    ;* GLOBAL FILE PARAMETERS                                                     *
       9                    ;*                                                                            *
      10                    ;*   Architecture      : TMS320C66xx                                          *
      11                    ;*   Optimization      : Enabled at level 3                                   *
      12                    ;*   Optimizing for    : Speed                                                *
      13                    ;*                       Based on options: -o3, no -ms                        *
      14                    ;*   Endian            : Little                                               *
      15                    ;*   Interrupt Thrshld : 10000                                                *
      16                    ;*   Data Access Model : Far                                                  *
      17                    ;*   Pipelining        : Enabled                                              *
      18                    ;*   Speculate Loads   : Enabled with threshold = 0                           *
      19                    ;*   Memory Aliases    : Presume are aliases (pessimistic)                    *
      20                    ;*   Debug Info        : DWARF Debug w/Optimization                           *
      21                    ;*                                                                            *
      22                    ;******************************************************************************
      23                    
      24                            .asg    A15, FP
      25                            .asg    B14, DP
      26                            .asg    B15, SP
      27                            .global $bss
      28                    
      29                    
      30                    $C$DW$CU        .dwtag  DW_TAG_compile_unit
      31                            .dwattr $C$DW$CU, DW_AT_name("./../packages/ti/vlib/src/VLIB_L2_norm_i8/VLIB_L2_norm_i8_d.c")
      32                            .dwattr $C$DW$CU, DW_AT_producer("TI TMS320C6x C/C++ Codegen PC v7.4.2 Copyright (c) 1996-2012
      33                            .dwattr $C$DW$CU, DW_AT_TI_version(0x01)
      34                            .dwattr $C$DW$CU, DW_AT_comp_dir("c:\nightlybuilds\vlib\ti\vlib\vlib\examples")
      35                    
      36                    $C$DW$1 .dwtag  DW_TAG_subprogram, DW_AT_name("abs")
      37                            .dwattr $C$DW$1, DW_AT_TI_symbol_name("abs")
      38                            .dwattr $C$DW$1, DW_AT_type(*$C$DW$T$10)
      39                            .dwattr $C$DW$1, DW_AT_declaration
      40                            .dwattr $C$DW$1, DW_AT_external
      41                            .dwattr $C$DW$1, DW_AT_decl_file("C:/VLIB_Tools/CCSV5_4_0/ccsv5/tools/compiler/C6000/include/s
      42                            .dwattr $C$DW$1, DW_AT_decl_line(0x65)
      43                            .dwattr $C$DW$1, DW_AT_decl_column(0x1d)
      44                    $C$DW$2 .dwtag  DW_TAG_formal_parameter
      45                            .dwattr $C$DW$2, DW_AT_type(*$C$DW$T$10)
      46                            .dwendtag $C$DW$1
      47                    
      48                    
      49                    $C$DW$3 .dwtag  DW_TAG_subprogram, DW_AT_name("_itoll")
      50                            .dwattr $C$DW$3, DW_AT_TI_symbol_name("_itoll")
      51                            .dwattr $C$DW$3, DW_AT_type(*$C$DW$T$14)
      52                            .dwattr $C$DW$3, DW_AT_declaration
      53                            .dwattr $C$DW$3, DW_AT_external
      54                            .dwattr $C$DW$3, DW_AT_decl_file("C:/VLIB_Tools/CCSV5_4_0/ccsv5/tools/compiler/C6000/include/c
      55                            .dwattr $C$DW$3, DW_AT_decl_line(0xdf)
TMS320C6x Assembler PC v7.4.2 Thu Mar 19 12:43:15 2015

Tools Copyright (c) 1996-2012 Texas Instruments Incorporated
package/lib/Regression/regress_d_c/./../packages/ti/vlib/src/VLIB_L2_norm_i8/VLIB_L2_norm_i8_d.se66 PAGE    2

      56                            .dwattr $C$DW$3, DW_AT_decl_column(0x0b)
      57                    $C$DW$4 .dwtag  DW_TAG_formal_parameter
      58                            .dwattr $C$DW$4, DW_AT_type(*$C$DW$T$11)
      59                    $C$DW$5 .dwtag  DW_TAG_formal_parameter
      60                            .dwattr $C$DW$5, DW_AT_type(*$C$DW$T$11)
      61                            .dwendtag $C$DW$3
      62                    
      63                    
      64                    $C$DW$6 .dwtag  DW_TAG_subprogram, DW_AT_name("printf")
      65                            .dwattr $C$DW$6, DW_AT_TI_symbol_name("printf")
      66                            .dwattr $C$DW$6, DW_AT_type(*$C$DW$T$10)
      67                            .dwattr $C$DW$6, DW_AT_declaration
      68                            .dwattr $C$DW$6, DW_AT_external
      69                            .dwattr $C$DW$6, DW_AT_decl_file("C:/VLIB_Tools/CCSV5_4_0/ccsv5/tools/compiler/C6000/include/s
      70                            .dwattr $C$DW$6, DW_AT_decl_line(0xb8)
      71                            .dwattr $C$DW$6, DW_AT_decl_column(0x19)
      72                    $C$DW$7 .dwtag  DW_TAG_formal_parameter
      73                            .dwattr $C$DW$7, DW_AT_type(*$C$DW$T$100)
      74                    $C$DW$8 .dwtag  DW_TAG_unspecified_parameters
      75                            .dwendtag $C$DW$6
      76                    
      77                    
      78                    $C$DW$9 .dwtag  DW_TAG_subprogram, DW_AT_name("sprintf")
      79                            .dwattr $C$DW$9, DW_AT_TI_symbol_name("sprintf")
      80                            .dwattr $C$DW$9, DW_AT_type(*$C$DW$T$10)
      81                            .dwattr $C$DW$9, DW_AT_declaration
      82                            .dwattr $C$DW$9, DW_AT_external
      83                            .dwattr $C$DW$9, DW_AT_decl_file("C:/VLIB_Tools/CCSV5_4_0/ccsv5/tools/compiler/C6000/include/s
      84                            .dwattr $C$DW$9, DW_AT_decl_line(0xbc)
      85                            .dwattr $C$DW$9, DW_AT_decl_column(0x19)
      86                    $C$DW$10        .dwtag  DW_TAG_formal_parameter
      87                            .dwattr $C$DW$10, DW_AT_type(*$C$DW$T$55)
      88                    $C$DW$11        .dwtag  DW_TAG_formal_parameter
      89                            .dwattr $C$DW$11, DW_AT_type(*$C$DW$T$100)
      90                    $C$DW$12        .dwtag  DW_TAG_unspecified_parameters
      91                            .dwendtag $C$DW$9
      92                    
      93                    
      94                    $C$DW$13        .dwtag  DW_TAG_subprogram, DW_AT_name("VLIB_cache_inval")
      95                            .dwattr $C$DW$13, DW_AT_TI_symbol_name("VLIB_cache_inval")
      96                            .dwattr $C$DW$13, DW_AT_type(*$C$DW$T$10)
      97                            .dwattr $C$DW$13, DW_AT_declaration
      98                            .dwattr $C$DW$13, DW_AT_external
      99                            .dwattr $C$DW$13, DW_AT_decl_file(".\..\packages\ti\vlib\src\VLIB_L2_norm_i8\..\common\c6x/VLI
     100                            .dwattr $C$DW$13, DW_AT_decl_line(0x58)
     101                            .dwattr $C$DW$13, DW_AT_decl_column(0x05)
     102                    
     103                    $C$DW$14        .dwtag  DW_TAG_subprogram, DW_AT_name("VLIB_profile_init")
     104                            .dwattr $C$DW$14, DW_AT_TI_symbol_name("VLIB_profile_init")
     105                            .dwattr $C$DW$14, DW_AT_declaration
     106                            .dwattr $C$DW$14, DW_AT_external
     107                            .dwattr $C$DW$14, DW_AT_decl_file(".\..\packages\ti\vlib\src\VLIB_L2_norm_i8\..\common\VLIB_pr
     108                            .dwattr $C$DW$14, DW_AT_decl_line(0x7b)
     109                            .dwattr $C$DW$14, DW_AT_decl_column(0x06)
     110                    $C$DW$15        .dwtag  DW_TAG_formal_parameter
TMS320C6x Assembler PC v7.4.2 Thu Mar 19 12:43:15 2015

Tools Copyright (c) 1996-2012 Texas Instruments Incorporated
package/lib/Regression/regress_d_c/./../packages/ti/vlib/src/VLIB_L2_norm_i8/VLIB_L2_norm_i8_d.se66 PAGE    3

     111                            .dwattr $C$DW$15, DW_AT_type(*$C$DW$T$10)
     112                    $C$DW$16        .dwtag  DW_TAG_formal_parameter
     113                            .dwattr $C$DW$16, DW_AT_type(*$C$DW$T$55)
     114                            .dwendtag $C$DW$14
     115                    
     116                    
     117                    $C$DW$17        .dwtag  DW_TAG_subprogram, DW_AT_name("VLIB_formula_add_test")
     118                            .dwattr $C$DW$17, DW_AT_TI_symbol_name("VLIB_formula_add_test")
     119                            .dwattr $C$DW$17, DW_AT_declaration
     120                            .dwattr $C$DW$17, DW_AT_external
     121                            .dwattr $C$DW$17, DW_AT_decl_file(".\..\packages\ti\vlib\src\VLIB_L2_norm_i8\..\common\VLIB_pr
     122                            .dwattr $C$DW$17, DW_AT_decl_line(0x7d)
     123                            .dwattr $C$DW$17, DW_AT_decl_column(0x06)
     124                    $C$DW$18        .dwtag  DW_TAG_formal_parameter
     125                            .dwattr $C$DW$18, DW_AT_type(*$C$DW$T$10)
     126                    $C$DW$19        .dwtag  DW_TAG_formal_parameter
     127                            .dwattr $C$DW$19, DW_AT_type(*$C$DW$T$10)
     128                    $C$DW$20        .dwtag  DW_TAG_formal_parameter
     129                            .dwattr $C$DW$20, DW_AT_type(*$C$DW$T$10)
     130                    $C$DW$21        .dwtag  DW_TAG_formal_parameter
     131                            .dwattr $C$DW$21, DW_AT_type(*$C$DW$T$10)
     132                    $C$DW$22        .dwtag  DW_TAG_formal_parameter
     133                            .dwattr $C$DW$22, DW_AT_type(*$C$DW$T$55)
     134                    $C$DW$23        .dwtag  DW_TAG_formal_parameter
     135                            .dwattr $C$DW$23, DW_AT_type(*$C$DW$T$10)
     136                            .dwendtag $C$DW$17
     137                    
     138                    
     139                    $C$DW$24        .dwtag  DW_TAG_subprogram, DW_AT_name("VLIB_skip_test")
     140                            .dwattr $C$DW$24, DW_AT_TI_symbol_name("VLIB_skip_test")
     141                            .dwattr $C$DW$24, DW_AT_declaration
     142                            .dwattr $C$DW$24, DW_AT_external
     143                            .dwattr $C$DW$24, DW_AT_decl_file(".\..\packages\ti\vlib\src\VLIB_L2_norm_i8\..\common\VLIB_pr
     144                            .dwattr $C$DW$24, DW_AT_decl_line(0x7e)
     145                            .dwattr $C$DW$24, DW_AT_decl_column(0x06)
     146                    $C$DW$25        .dwtag  DW_TAG_formal_parameter
     147                            .dwattr $C$DW$25, DW_AT_type(*$C$DW$T$55)
     148                            .dwendtag $C$DW$24
     149                    
     150                    
     151                    $C$DW$26        .dwtag  DW_TAG_subprogram, DW_AT_name("VLIB_profile_cycle_report")
     152                            .dwattr $C$DW$26, DW_AT_TI_symbol_name("VLIB_profile_cycle_report")
     153                            .dwattr $C$DW$26, DW_AT_declaration
     154                            .dwattr $C$DW$26, DW_AT_external
     155                            .dwattr $C$DW$26, DW_AT_decl_file(".\..\packages\ti\vlib\src\VLIB_L2_norm_i8\..\common\VLIB_pr
     156                            .dwattr $C$DW$26, DW_AT_decl_line(0x7f)
     157                            .dwattr $C$DW$26, DW_AT_decl_column(0x06)
     158                    $C$DW$27        .dwtag  DW_TAG_formal_parameter
     159                            .dwattr $C$DW$27, DW_AT_type(*$C$DW$T$10)
     160                    $C$DW$28        .dwtag  DW_TAG_formal_parameter
     161                            .dwattr $C$DW$28, DW_AT_type(*$C$DW$T$55)
     162                    $C$DW$29        .dwtag  DW_TAG_formal_parameter
     163                            .dwattr $C$DW$29, DW_AT_type(*$C$DW$T$55)
     164                            .dwendtag $C$DW$26
     165                    
TMS320C6x Assembler PC v7.4.2 Thu Mar 19 12:43:15 2015

Tools Copyright (c) 1996-2012 Texas Instruments Incorporated
package/lib/Regression/regress_d_c/./../packages/ti/vlib/src/VLIB_L2_norm_i8/VLIB_L2_norm_i8_d.se66 PAGE    4

     166                    
     167                    $C$DW$30        .dwtag  DW_TAG_subprogram, DW_AT_name("initStack")
     168                            .dwattr $C$DW$30, DW_AT_TI_symbol_name("initStack")
     169                            .dwattr $C$DW$30, DW_AT_declaration
     170                            .dwattr $C$DW$30, DW_AT_external
     171                            .dwattr $C$DW$30, DW_AT_decl_file(".\..\packages\ti\vlib\src\VLIB_L2_norm_i8\..\common\VLIB_pr
     172                            .dwattr $C$DW$30, DW_AT_decl_line(0x80)
     173                            .dwattr $C$DW$30, DW_AT_decl_column(0x06)
     174                    $C$DW$31        .dwtag  DW_TAG_formal_parameter
     175                            .dwattr $C$DW$31, DW_AT_type(*$C$DW$T$64)
     176                            .dwendtag $C$DW$30
     177                    
     178                    
     179                    $C$DW$32        .dwtag  DW_TAG_subprogram, DW_AT_name("setStackDepth")
     180                            .dwattr $C$DW$32, DW_AT_TI_symbol_name("setStackDepth")
     181                            .dwattr $C$DW$32, DW_AT_declaration
     182                            .dwattr $C$DW$32, DW_AT_external
     183                            .dwattr $C$DW$32, DW_AT_decl_file(".\..\packages\ti\vlib\src\VLIB_L2_norm_i8\..\common\VLIB_pr
     184                            .dwattr $C$DW$32, DW_AT_decl_line(0x81)
     185                            .dwattr $C$DW$32, DW_AT_decl_column(0x06)
     186                    
     187                    $C$DW$33        .dwtag  DW_TAG_subprogram, DW_AT_name("getSP")
     188                            .dwattr $C$DW$33, DW_AT_TI_symbol_name("getSP")
     189                            .dwattr $C$DW$33, DW_AT_type(*$C$DW$T$64)
     190                            .dwattr $C$DW$33, DW_AT_declaration
     191                            .dwattr $C$DW$33, DW_AT_external
     192                            .dwattr $C$DW$33, DW_AT_decl_file(".\..\packages\ti\vlib\src\VLIB_L2_norm_i8\..\common\VLIB_pr
     193                            .dwattr $C$DW$33, DW_AT_decl_line(0x82)
     194                            .dwattr $C$DW$33, DW_AT_decl_column(0x0a)
     195                    
     196                    $C$DW$34        .dwtag  DW_TAG_subprogram, DW_AT_name("VLIB_stack_memory")
     197                            .dwattr $C$DW$34, DW_AT_TI_symbol_name("VLIB_stack_memory")
     198                            .dwattr $C$DW$34, DW_AT_declaration
     199                            .dwattr $C$DW$34, DW_AT_external
     200                            .dwattr $C$DW$34, DW_AT_decl_file(".\..\packages\ti\vlib\src\VLIB_L2_norm_i8\..\common\VLIB_pr
     201                            .dwattr $C$DW$34, DW_AT_decl_line(0x83)
     202                            .dwattr $C$DW$34, DW_AT_decl_column(0x06)
     203                    
     204                    $C$DW$35        .dwtag  DW_TAG_subprogram, DW_AT_name("VLIB_fillBuffer")
     205                            .dwattr $C$DW$35, DW_AT_TI_symbol_name("VLIB_fillBuffer")
     206                            .dwattr $C$DW$35, DW_AT_declaration
     207                            .dwattr $C$DW$35, DW_AT_external
     208                            .dwattr $C$DW$35, DW_AT_decl_file(".\..\packages\ti\vlib\src\VLIB_L2_norm_i8\../common/VLIB_me
     209                            .dwattr $C$DW$35, DW_AT_decl_line(0x77)
     210                            .dwattr $C$DW$35, DW_AT_decl_column(0x06)
     211                    $C$DW$36        .dwtag  DW_TAG_formal_parameter
     212                            .dwattr $C$DW$36, DW_AT_type(*$C$DW$T$19)
     213                    $C$DW$37        .dwtag  DW_TAG_formal_parameter
     214                            .dwattr $C$DW$37, DW_AT_type(*$C$DW$T$19)
     215                    $C$DW$38        .dwtag  DW_TAG_formal_parameter
     216                            .dwattr $C$DW$38, DW_AT_type(*$C$DW$T$3)
     217                    $C$DW$39        .dwtag  DW_TAG_formal_parameter
     218                            .dwattr $C$DW$39, DW_AT_type(*$C$DW$T$3)
     219                    $C$DW$40        .dwtag  DW_TAG_formal_parameter
     220                            .dwattr $C$DW$40, DW_AT_type(*$C$DW$T$70)
TMS320C6x Assembler PC v7.4.2 Thu Mar 19 12:43:15 2015

Tools Copyright (c) 1996-2012 Texas Instruments Incorporated
package/lib/Regression/regress_d_c/./../packages/ti/vlib/src/VLIB_L2_norm_i8/VLIB_L2_norm_i8_d.se66 PAGE    5

     221                    $C$DW$41        .dwtag  DW_TAG_formal_parameter
     222                            .dwattr $C$DW$41, DW_AT_type(*$C$DW$T$70)
     223                    $C$DW$42        .dwtag  DW_TAG_formal_parameter
     224                            .dwattr $C$DW$42, DW_AT_type(*$C$DW$T$70)
     225                    $C$DW$43        .dwtag  DW_TAG_formal_parameter
     226                            .dwattr $C$DW$43, DW_AT_type(*$C$DW$T$19)
     227                    $C$DW$44        .dwtag  DW_TAG_formal_parameter
     228                            .dwattr $C$DW$44, DW_AT_type(*$C$DW$T$55)
     229                            .dwendtag $C$DW$35
     230                    
     231                    
     232                    $C$DW$45        .dwtag  DW_TAG_subprogram, DW_AT_name("VLIB_malloc")
     233                            .dwattr $C$DW$45, DW_AT_TI_symbol_name("VLIB_malloc")
     234                            .dwattr $C$DW$45, DW_AT_type(*$C$DW$T$3)
     235                            .dwattr $C$DW$45, DW_AT_declaration
     236                            .dwattr $C$DW$45, DW_AT_external
     237                            .dwattr $C$DW$45, DW_AT_decl_file(".\..\packages\ti\vlib\src\VLIB_L2_norm_i8\../common/VLIB_me
     238                            .dwattr $C$DW$45, DW_AT_decl_line(0xaf)
     239                            .dwattr $C$DW$45, DW_AT_decl_column(0x07)
     240                    $C$DW$46        .dwtag  DW_TAG_formal_parameter
     241                            .dwattr $C$DW$46, DW_AT_type(*$C$DW$T$52)
     242                            .dwendtag $C$DW$45
     243                    
     244                    
     245                    $C$DW$47        .dwtag  DW_TAG_subprogram, DW_AT_name("VLIB_free")
     246                            .dwattr $C$DW$47, DW_AT_TI_symbol_name("VLIB_free")
     247                            .dwattr $C$DW$47, DW_AT_declaration
     248                            .dwattr $C$DW$47, DW_AT_external
     249                            .dwattr $C$DW$47, DW_AT_decl_file(".\..\packages\ti\vlib\src\VLIB_L2_norm_i8\../common/VLIB_me
     250                            .dwattr $C$DW$47, DW_AT_decl_line(0xb4)
     251                            .dwattr $C$DW$47, DW_AT_decl_column(0x07)
     252                    $C$DW$48        .dwtag  DW_TAG_formal_parameter
     253                            .dwattr $C$DW$48, DW_AT_type(*$C$DW$T$3)
     254                            .dwendtag $C$DW$47
     255                    
     256                    
     257                    $C$DW$49        .dwtag  DW_TAG_subprogram, DW_AT_name("VLIB_L2_norm_i8")
     258                            .dwattr $C$DW$49, DW_AT_TI_symbol_name("VLIB_L2_norm_i8")
     259                            .dwattr $C$DW$49, DW_AT_type(*$C$DW$T$21)
     260                            .dwattr $C$DW$49, DW_AT_declaration
     261                            .dwattr $C$DW$49, DW_AT_external
     262                            .dwattr $C$DW$49, DW_AT_decl_file(".\..\packages\ti\vlib\src\VLIB_L2_norm_i8\c66/VLIB_L2_norm_
     263                            .dwattr $C$DW$49, DW_AT_decl_line(0x6a)
     264                            .dwattr $C$DW$49, DW_AT_decl_column(0x0d)
     265                    $C$DW$50        .dwtag  DW_TAG_formal_parameter
     266                            .dwattr $C$DW$50, DW_AT_type(*$C$DW$T$92)
     267                    $C$DW$51        .dwtag  DW_TAG_formal_parameter
     268                            .dwattr $C$DW$51, DW_AT_type(*$C$DW$T$22)
     269                            .dwendtag $C$DW$49
     270                    
     271                    
     272                    $C$DW$52        .dwtag  DW_TAG_subprogram, DW_AT_name("L2_norm_i8_getTestParams")
     273                            .dwattr $C$DW$52, DW_AT_TI_symbol_name("L2_norm_i8_getTestParams")
     274                            .dwattr $C$DW$52, DW_AT_declaration
     275                            .dwattr $C$DW$52, DW_AT_external
TMS320C6x Assembler PC v7.4.2 Thu Mar 19 12:43:15 2015

Tools Copyright (c) 1996-2012 Texas Instruments Incorporated
package/lib/Regression/regress_d_c/./../packages/ti/vlib/src/VLIB_L2_norm_i8/VLIB_L2_norm_i8_d.se66 PAGE    6

     276                            .dwattr $C$DW$52, DW_AT_decl_file(".\..\packages\ti\vlib\src\VLIB_L2_norm_i8\VLIB_L2_norm_i8_i
     277                            .dwattr $C$DW$52, DW_AT_decl_line(0x2a)
     278                            .dwattr $C$DW$52, DW_AT_decl_column(0x06)
     279                    $C$DW$53        .dwtag  DW_TAG_formal_parameter
     280                            .dwattr $C$DW$53, DW_AT_type(*$C$DW$T$42)
     281                    $C$DW$54        .dwtag  DW_TAG_formal_parameter
     282                            .dwattr $C$DW$54, DW_AT_type(*$C$DW$T$75)
     283                            .dwendtag $C$DW$52
     284                    
     285                    $C$DW$55        .dwtag  DW_TAG_variable, DW_AT_name("test_cases")
     286                            .dwattr $C$DW$55, DW_AT_TI_symbol_name("test_cases")
     287                            .dwattr $C$DW$55, DW_AT_type(*$C$DW$T$22)
     288                            .dwattr $C$DW$55, DW_AT_declaration
     289                            .dwattr $C$DW$55, DW_AT_external
     290                            .dwattr $C$DW$55, DW_AT_decl_file(".\..\packages\ti\vlib\src\VLIB_L2_norm_i8\../common/VLIB_te
     291                            .dwattr $C$DW$55, DW_AT_decl_line(0x60)
     292                            .dwattr $C$DW$55, DW_AT_decl_column(0x13)
     293                    $C$DW$56        .dwtag  DW_TAG_variable, DW_AT_name("act_kernel")
     294                            .dwattr $C$DW$56, DW_AT_TI_symbol_name("act_kernel")
     295                            .dwattr $C$DW$56, DW_AT_type(*$C$DW$T$10)
     296                            .dwattr $C$DW$56, DW_AT_declaration
     297                            .dwattr $C$DW$56, DW_AT_external
     298                            .dwattr $C$DW$56, DW_AT_decl_file(".\..\packages\ti\vlib\src\VLIB_L2_norm_i8\../common/VLIB_te
     299                            .dwattr $C$DW$56, DW_AT_decl_line(0x62)
     300                            .dwattr $C$DW$56, DW_AT_decl_column(0x13)
     301                    $C$DW$57        .dwtag  DW_TAG_variable, DW_AT_name("desc")
     302                            .dwattr $C$DW$57, DW_AT_TI_symbol_name("desc")
     303                            .dwattr $C$DW$57, DW_AT_type(*$C$DW$T$152)
     304                            .dwattr $C$DW$57, DW_AT_declaration
     305                            .dwattr $C$DW$57, DW_AT_external
     306                            .dwattr $C$DW$57, DW_AT_decl_file(".\..\packages\ti\vlib\src\VLIB_L2_norm_i8\../common/VLIB_te
     307                            .dwattr $C$DW$57, DW_AT_decl_line(0x63)
     308                            .dwattr $C$DW$57, DW_AT_decl_column(0x13)
     309                    $C$DW$58        .dwtag  DW_TAG_variable, DW_AT_name("testPatternString")
     310                            .dwattr $C$DW$58, DW_AT_TI_symbol_name("testPatternString")
     311                            .dwattr $C$DW$58, DW_AT_type(*$C$DW$T$152)
     312                            .dwattr $C$DW$58, DW_AT_declaration
     313                            .dwattr $C$DW$58, DW_AT_external
     314                            .dwattr $C$DW$58, DW_AT_decl_file(".\..\packages\ti\vlib\src\VLIB_L2_norm_i8\../common/VLIB_te
     315                            .dwattr $C$DW$58, DW_AT_decl_line(0x64)
     316                            .dwattr $C$DW$58, DW_AT_decl_column(0x13)
     317                    $C$DW$59        .dwtag  DW_TAG_variable, DW_AT_name("est_test")
     318                            .dwattr $C$DW$59, DW_AT_TI_symbol_name("est_test")
     319                            .dwattr $C$DW$59, DW_AT_type(*$C$DW$T$10)
     320                            .dwattr $C$DW$59, DW_AT_declaration
     321                            .dwattr $C$DW$59, DW_AT_external
     322                            .dwattr $C$DW$59, DW_AT_decl_file(".\..\packages\ti\vlib\src\VLIB_L2_norm_i8\..\common\VLIB_pr
     323                            .dwattr $C$DW$59, DW_AT_decl_line(0x75)
     324                            .dwattr $C$DW$59, DW_AT_decl_column(0x14)
     325                    $C$DW$60        .dwtag  DW_TAG_variable, DW_AT_name("beg_count")
     326                            .dwattr $C$DW$60, DW_AT_TI_symbol_name("beg_count")
     327                            .dwattr $C$DW$60, DW_AT_type(*$C$DW$T$140)
     328                            .dwattr $C$DW$60, DW_AT_declaration
     329                            .dwattr $C$DW$60, DW_AT_external
     330                            .dwattr $C$DW$60, DW_AT_decl_file(".\..\packages\ti\vlib\src\VLIB_L2_norm_i8\..\common\VLIB_pr
TMS320C6x Assembler PC v7.4.2 Thu Mar 19 12:43:15 2015

Tools Copyright (c) 1996-2012 Texas Instruments Incorporated
package/lib/Regression/regress_d_c/./../packages/ti/vlib/src/VLIB_L2_norm_i8/VLIB_L2_norm_i8_d.se66 PAGE    7

     331                            .dwattr $C$DW$60, DW_AT_decl_line(0x76)
     332                            .dwattr $C$DW$60, DW_AT_decl_column(0x14)
     333                    $C$DW$61        .dwtag  DW_TAG_variable, DW_AT_name("end_count")
     334                            .dwattr $C$DW$61, DW_AT_TI_symbol_name("end_count")
     335                            .dwattr $C$DW$61, DW_AT_type(*$C$DW$T$140)
     336                            .dwattr $C$DW$61, DW_AT_declaration
     337                            .dwattr $C$DW$61, DW_AT_external
     338                            .dwattr $C$DW$61, DW_AT_decl_file(".\..\packages\ti\vlib\src\VLIB_L2_norm_i8\..\common\VLIB_pr
     339                            .dwattr $C$DW$61, DW_AT_decl_line(0x77)
     340                            .dwattr $C$DW$61, DW_AT_decl_column(0x14)
     341                    $C$DW$62        .dwtag  DW_TAG_variable, DW_AT_name("overhead")
     342                            .dwattr $C$DW$62, DW_AT_TI_symbol_name("overhead")
     343                            .dwattr $C$DW$62, DW_AT_type(*$C$DW$T$140)
     344                            .dwattr $C$DW$62, DW_AT_declaration
     345                            .dwattr $C$DW$62, DW_AT_external
     346                            .dwattr $C$DW$62, DW_AT_decl_file(".\..\packages\ti\vlib\src\VLIB_L2_norm_i8\..\common\VLIB_pr
     347                            .dwattr $C$DW$62, DW_AT_decl_line(0x78)
     348                            .dwattr $C$DW$62, DW_AT_decl_column(0x14)
     349                    $C$DW$63        .dwtag  DW_TAG_variable, DW_AT_name("cycles")
     350                            .dwattr $C$DW$63, DW_AT_TI_symbol_name("cycles")
     351                            .dwattr $C$DW$63, DW_AT_type(*$C$DW$T$141)
     352                            .dwattr $C$DW$63, DW_AT_declaration
     353                            .dwattr $C$DW$63, DW_AT_external
     354                            .dwattr $C$DW$63, DW_AT_decl_file(".\..\packages\ti\vlib\src\VLIB_L2_norm_i8\..\common\VLIB_pr
     355                            .dwattr $C$DW$63, DW_AT_decl_line(0x79)
     356                            .dwattr $C$DW$63, DW_AT_decl_column(0x14)
     357                    ;       C:\VLIB_Tools\CCSV5_4_0\ccsv5\tools\compiler\C6000\bin\opt6x.exe C:\\Users\\gtbldadm\\AppData\
     358 00000000                   .sect   ".text"
     359                            .clink
     360                            .global VLIB_L2_norm_i8_d
     361                    
     362                    $C$DW$64        .dwtag  DW_TAG_subprogram, DW_AT_name("VLIB_L2_norm_i8_d")
     363                            .dwattr $C$DW$64, DW_AT_low_pc(VLIB_L2_norm_i8_d)
     364                            .dwattr $C$DW$64, DW_AT_high_pc(0x00)
     365                            .dwattr $C$DW$64, DW_AT_TI_symbol_name("VLIB_L2_norm_i8_d")
     366                            .dwattr $C$DW$64, DW_AT_external
     367                            .dwattr $C$DW$64, DW_AT_TI_begin_file("./../packages/ti/vlib/src/VLIB_L2_norm_i8/VLIB_L2_norm_
     368                            .dwattr $C$DW$64, DW_AT_TI_begin_line(0x28)
     369                            .dwattr $C$DW$64, DW_AT_TI_begin_column(0x06)
     370                            .dwattr $C$DW$64, DW_AT_decl_file("./../packages/ti/vlib/src/VLIB_L2_norm_i8/VLIB_L2_norm_i8_d
     371                            .dwattr $C$DW$64, DW_AT_decl_line(0x28)
     372                            .dwattr $C$DW$64, DW_AT_decl_column(0x06)
     373                            .dwattr $C$DW$64, DW_AT_TI_max_frame_size(0x50)
     374                            .dwpsn  file "./../packages/ti/vlib/src/VLIB_L2_norm_i8/VLIB_L2_norm_i8_d.c",line 41,column 1,
     375                    
     376                            .dwfde $C$DW$CIE, VLIB_L2_norm_i8_d
     377                    $C$DW$65        .dwtag  DW_TAG_formal_parameter, DW_AT_name("LevelOfFeedback")
     378                            .dwattr $C$DW$65, DW_AT_TI_symbol_name("LevelOfFeedback")
     379                            .dwattr $C$DW$65, DW_AT_type(*$C$DW$T$19)
     380                            .dwattr $C$DW$65, DW_AT_location[DW_OP_reg4]
     381                    ;----------------------------------------------------------------------
     382                    ;  40 | void VLIB_L2_norm_i8_d (uint8_t LevelOfFeedback)                       
     383                    ;----------------------------------------------------------------------
     384                    
     385                    ;******************************************************************************
TMS320C6x Assembler PC v7.4.2 Thu Mar 19 12:43:15 2015

Tools Copyright (c) 1996-2012 Texas Instruments Incorporated
package/lib/Regression/regress_d_c/./../packages/ti/vlib/src/VLIB_L2_norm_i8/VLIB_L2_norm_i8_d.se66 PAGE    8

     386                    ;* FUNCTION NAME: VLIB_L2_norm_i8_d                                           *
     387                    ;*                                                                            *
     388                    ;*   Regs Modified     : A0,A1,A2,A3,A4,A5,A6,A7,A8,A9,A10,A11,A12,A13,A14,   *
     389                    ;*                           A15,B0,B1,B2,B3,B4,B5,B6,B7,B8,B9,B10,B11,B12,   *
     390                    ;*                           B13,SP,A16,A17,A18,A19,A20,A21,A22,A23,A24,A25,  *
     391                    ;*                           A26,A27,A28,A29,A30,A31,B16,B17,B18,B19,B20,B21, *
     392                    ;*                           B22,B23,B24,B25,B26,B27,B28,B29,B30,B31          *
     393                    ;*   Regs Used         : A0,A1,A2,A3,A4,A5,A6,A7,A8,A9,A10,A11,A12,A13,A14,   *
     394                    ;*                           A15,B0,B1,B2,B3,B4,B5,B6,B7,B8,B9,B10,B11,B12,   *
     395                    ;*                           B13,DP,SP,A16,A17,A18,A19,A20,A21,A22,A23,A24,   *
     396                    ;*                           A25,A26,A27,A28,A29,A30,A31,B16,B17,B18,B19,B20, *
     397                    ;*                           B21,B22,B23,B24,B25,B26,B27,B28,B29,B30,B31      *
     398                    ;*   Local Frame Size  : 16 Args + 4 Auto + 56 Save = 76 byte                 *
     399                    ;******************************************************************************
     400                    
     401                    ;******************************************************************************
     402                    ;*                                                                            *
     403                    ;* Using -g (debug) with optimization (-o3) may disable key optimizations!    *
     404                    ;*                                                                            *
     405                    ;******************************************************************************
     406 00000000           VLIB_L2_norm_i8_d:
     407                    ;** --------------------------------------------------------------------------*
     408                    ;          EXCLUSIVE CPU CYCLES: 16
     409                    ;** 47  -----------------------    L2_norm_i8_getTestParams(&prm, &test_cases);
     410                    ;** 50  -----------------------    VLIB_profile_init(2, "VLIB_L2_norm_i8");
     411                    ;** 53  -----------------------    if ( test_cases <= 0 ) goto g9;
     412                            .dwcfi  cfa_offset, 0
     413                    ;----------------------------------------------------------------------
     414                    ;  42 | int32_t    tpi;  /* test parameter index */                            
     415                    ;  45 | L2_norm_i8_testParams_t   *prm;                                        
     416                    ;----------------------------------------------------------------------
     417 00000000     25f7             STW     .D2T1   A11,*SP--(8)      ; |41| 
     418                            .dwcfi  cfa_offset, 8
     419                            .dwcfi  save_reg_to_mem, 11, 0
     420 00000002     2577             STW     .D2T1   A10,*SP--(8)      ; |41| 
     421                            .dwcfi  cfa_offset, 16
     422                            .dwcfi  save_reg_to_mem, 10, -8
     423 00000004     9677             STDW    .D2T2   B13:B12,*SP--     ; |41| 
     424                            .dwcfi  cfa_offset, 24
     425                            .dwcfi  save_reg_to_mem, 29, -12
     426                            .dwcfi  save_reg_to_mem, 28, -16
     427 00000006     9577             STDW    .D2T2   B11:B10,*SP--     ; |41| 
     428                            .dwcfi  cfa_offset, 32
     429                            .dwcfi  save_reg_to_mem, 27, -20
     430                            .dwcfi  save_reg_to_mem, 26, -24
     431 00000008     8777             STDW    .D2T1   A15:A14,*SP--     ; |41| 
     432                            .dwcfi  cfa_offset, 40
     433                            .dwcfi  save_reg_to_mem, 15, -28
     434                            .dwcfi  save_reg_to_mem, 14, -32
     435 0000000a     8677             STDW    .D2T1   A13:A12,*SP--     ; |41| 
     436                            .dwcfi  cfa_offset, 48
     437                            .dwcfi  save_reg_to_mem, 13, -36
     438                            .dwcfi  save_reg_to_mem, 12, -40
     439 0000000c 01bd14f6             STW     .D2T2   B3,*SP--(32)      ; |41| 
     440                            .dwcfi  cfa_offset, 80
TMS320C6x Assembler PC v7.4.2 Thu Mar 19 12:43:15 2015

Tools Copyright (c) 1996-2012 Texas Instruments Incorporated
package/lib/Regression/regress_d_c/./../packages/ti/vlib/src/VLIB_L2_norm_i8/VLIB_L2_norm_i8_d.se66 PAGE    9

     441                            .dwcfi  save_reg_to_mem, 19, 0
     442                    $C$DW$66        .dwtag  DW_TAG_variable, DW_AT_name("$O$C1")
     443                            .dwattr $C$DW$66, DW_AT_TI_symbol_name("$O$C1")
     444                            .dwattr $C$DW$66, DW_AT_type(*$C$DW$T$16)
     445                            .dwattr $C$DW$66, DW_AT_location[DW_OP_reg10]
     446                    $C$DW$67        .dwtag  DW_TAG_variable, DW_AT_name("$O$C2")
     447                            .dwattr $C$DW$67, DW_AT_TI_symbol_name("$O$C2")
     448                            .dwattr $C$DW$67, DW_AT_type(*$C$DW$T$10)
     449                            .dwattr $C$DW$67, DW_AT_location[DW_OP_reg3]
     450                    $C$DW$68        .dwtag  DW_TAG_variable, DW_AT_name("$O$C3")
     451                            .dwattr $C$DW$68, DW_AT_TI_symbol_name("$O$C3")
     452                            .dwattr $C$DW$68, DW_AT_type(*$C$DW$T$10)
     453                            .dwattr $C$DW$68, DW_AT_location[DW_OP_reg3]
     454                    $C$DW$69        .dwtag  DW_TAG_variable, DW_AT_name("$O$C4")
     455                            .dwattr $C$DW$69, DW_AT_TI_symbol_name("$O$C4")
     456                            .dwattr $C$DW$69, DW_AT_type(*$C$DW$T$9)
     457                            .dwattr $C$DW$69, DW_AT_location[DW_OP_reg8]
     458                    $C$DW$70        .dwtag  DW_TAG_variable, DW_AT_name("$O$U12")
     459                            .dwattr $C$DW$70, DW_AT_TI_symbol_name("$O$U12")
     460                            .dwattr $C$DW$70, DW_AT_type(*$C$DW$T$43)
     461                            .dwattr $C$DW$70, DW_AT_location[DW_OP_reg14]
     462                    $C$DW$71        .dwtag  DW_TAG_variable, DW_AT_name("$O$K21")
     463                            .dwattr $C$DW$71, DW_AT_TI_symbol_name("$O$K21")
     464                            .dwattr $C$DW$71, DW_AT_type(*$C$DW$T$79)
     465                            .dwattr $C$DW$71, DW_AT_location[DW_OP_reg28]
     466                    $C$DW$72        .dwtag  DW_TAG_variable, DW_AT_name("$O$K35")
     467                            .dwattr $C$DW$72, DW_AT_TI_symbol_name("$O$K35")
     468                            .dwattr $C$DW$72, DW_AT_type(*$C$DW$T$139)
     469                            .dwattr $C$DW$72, DW_AT_location[DW_OP_reg13]
     470                    $C$DW$73        .dwtag  DW_TAG_variable, DW_AT_name("$O$K54")
     471                            .dwattr $C$DW$73, DW_AT_TI_symbol_name("$O$K54")
     472                            .dwattr $C$DW$73, DW_AT_type(*$C$DW$T$16)
     473                            .dwattr $C$DW$73, DW_AT_location[DW_OP_regx 0x34]
     474                    $C$DW$74        .dwtag  DW_TAG_variable, DW_AT_name("$O$U11")
     475                            .dwattr $C$DW$74, DW_AT_TI_symbol_name("$O$U11")
     476                            .dwattr $C$DW$74, DW_AT_type(*$C$DW$T$10)
     477                            .dwattr $C$DW$74, DW_AT_location[DW_OP_reg27]
     478                    $C$DW$75        .dwtag  DW_TAG_variable, DW_AT_name("$O$K70")
     479                            .dwattr $C$DW$75, DW_AT_TI_symbol_name("$O$K70")
     480                            .dwattr $C$DW$75, DW_AT_type(*$C$DW$T$79)
     481                            .dwattr $C$DW$75, DW_AT_location[DW_OP_reg15]
     482                    $C$DW$76        .dwtag  DW_TAG_variable, DW_AT_name("tpi")
     483                            .dwattr $C$DW$76, DW_AT_TI_symbol_name("tpi")
     484                            .dwattr $C$DW$76, DW_AT_type(*$C$DW$T$22)
     485                            .dwattr $C$DW$76, DW_AT_location[DW_OP_reg11]
     486                    $C$DW$77        .dwtag  DW_TAG_variable, DW_AT_name("prm")
     487                            .dwattr $C$DW$77, DW_AT_TI_symbol_name("prm")
     488                            .dwattr $C$DW$77, DW_AT_type(*$C$DW$T$41)
     489                            .dwattr $C$DW$77, DW_AT_location[DW_OP_breg31 20]
     490                    $C$DW$78        .dwtag  DW_TAG_variable, DW_AT_name("status_nat_vs_int")
     491                            .dwattr $C$DW$78, DW_AT_TI_symbol_name("status_nat_vs_int")
     492                            .dwattr $C$DW$78, DW_AT_type(*$C$DW$T$22)
     493                            .dwattr $C$DW$78, DW_AT_location[DW_OP_regx 0x44]
     494                    $C$DW$79        .dwtag  DW_TAG_variable, DW_AT_name("status_nat_vs_ref")
     495                            .dwattr $C$DW$79, DW_AT_TI_symbol_name("status_nat_vs_ref")
TMS320C6x Assembler PC v7.4.2 Thu Mar 19 12:43:15 2015

Tools Copyright (c) 1996-2012 Texas Instruments Incorporated
package/lib/Regression/regress_d_c/./../packages/ti/vlib/src/VLIB_L2_norm_i8/VLIB_L2_norm_i8_d.se66 PAGE   10

     496                            .dwattr $C$DW$79, DW_AT_type(*$C$DW$T$22)
     497                            .dwattr $C$DW$79, DW_AT_location[DW_OP_reg20]
     498                    $C$DW$80        .dwtag  DW_TAG_variable, DW_AT_name("pData")
     499                            .dwattr $C$DW$80, DW_AT_TI_symbol_name("pData")
     500                            .dwattr $C$DW$80, DW_AT_type(*$C$DW$T$20)
     501                            .dwattr $C$DW$80, DW_AT_location[DW_OP_reg29]
     502                    $C$DW$81        .dwtag  DW_TAG_variable, DW_AT_name("norm")
     503                            .dwattr $C$DW$81, DW_AT_TI_symbol_name("norm")
     504                            .dwattr $C$DW$81, DW_AT_type(*$C$DW$T$21)
     505                            .dwattr $C$DW$81, DW_AT_location[DW_OP_reg26]
     506                    $C$DW$82        .dwtag  DW_TAG_variable, DW_AT_name("norm_cn")
     507                            .dwattr $C$DW$82, DW_AT_TI_symbol_name("norm_cn")
     508                            .dwattr $C$DW$82, DW_AT_type(*$C$DW$T$21)
     509                            .dwattr $C$DW$82, DW_AT_location[DW_OP_reg12]
     510                    $C$DW$83        .dwtag  DW_TAG_variable, DW_AT_name("$O$v1")
     511                            .dwattr $C$DW$83, DW_AT_TI_symbol_name("$O$v1")
     512                            .dwattr $C$DW$83, DW_AT_type(*$C$DW$T$41)
     513                            .dwattr $C$DW$83, DW_AT_location[DW_OP_reg20]
     514                    $C$DW$84        .dwtag  DW_TAG_variable, DW_AT_name("$O$v2")
     515                            .dwattr $C$DW$84, DW_AT_TI_symbol_name("$O$v2")
     516                            .dwattr $C$DW$84, DW_AT_type(*$C$DW$T$140)
     517                            .dwattr $C$DW$84, DW_AT_location[DW_OP_reg24]
     518                    $C$DW$85        .dwtag  DW_TAG_variable, DW_AT_name("$O$v2")
     519                            .dwattr $C$DW$85, DW_AT_TI_symbol_name("$O$v2")
     520                            .dwattr $C$DW$85, DW_AT_type(*$C$DW$T$140)
     521                            .dwattr $C$DW$85, DW_AT_location[DW_OP_reg24]
     522 00000010 05000028!            MVKL    .S1     test_cases,A10
     523 00000014 05000068!            MVKH    .S1     test_cases,A10
     524                            .dwpsn  file "./../packages/ti/vlib/src/VLIB_L2_norm_i8/VLIB_L2_norm_i8_d.c",line 47,column 5,
     525                    ;----------------------------------------------------------------------
     526                    ;  47 | L2_norm_i8_getTestParams(&prm, &test_cases);                           
     527                    ;----------------------------------------------------------------------
     528 00000018     a636             ADDAW   .D1X    SP,5,A4           ; |47| 
     529                    $C$DW$86        .dwtag  DW_TAG_TI_branch
     530                            .dwattr $C$DW$86, DW_AT_low_pc(0x00)
     531                            .dwattr $C$DW$86, DW_AT_name("L2_norm_i8_getTestParams")
     532                            .dwattr $C$DW$86, DW_AT_TI_call
     533                    
     534 00000020 10000012!            CALLP   .S2     L2_norm_i8_getTestParams,B3
     535 0000001a     9507  ||         MV      .L2X    A10,B4            ; |47| 
     536                    
     537 00000024           $C$RL0:    ; CALL OCCURS {L2_norm_i8_getTestParams} {0}  ; |47| 
     538                    ;** --------------------------------------------------------------------------*
     539                    ;          EXCLUSIVE CPU CYCLES: 8
     540 00000024 0200002a!            MVKL    .S2     $C$SL1+0,B4
     541 00000028 0200006a!            MVKH    .S2     $C$SL1+0,B4
     542                    $C$DW$87        .dwtag  DW_TAG_TI_branch
     543                            .dwattr $C$DW$87, DW_AT_low_pc(0x00)
     544                            .dwattr $C$DW$87, DW_AT_name("VLIB_profile_init")
     545                            .dwattr $C$DW$87, DW_AT_TI_call
     546                    
     547 0000002c 10000013!            CALLP   .S2     VLIB_profile_init,B3
     548 00000030 0208a358  ||         MVK     .L1     0x2,A4            ; |50| 
     549                    
     550                            .dwpsn  file "./../packages/ti/vlib/src/VLIB_L2_norm_i8/VLIB_L2_norm_i8_d.c",line 50,column 5,
TMS320C6x Assembler PC v7.4.2 Thu Mar 19 12:43:15 2015

Tools Copyright (c) 1996-2012 Texas Instruments Incorporated
package/lib/Regression/regress_d_c/./../packages/ti/vlib/src/VLIB_L2_norm_i8/VLIB_L2_norm_i8_d.se66 PAGE   11

     551                    ;----------------------------------------------------------------------
     552                    ;  50 | VLIB_profile_init(2, "VLIB_L2_norm_i8");                               
     553                    ;----------------------------------------------------------------------
     554 00000034           $C$RL1:    ; CALL OCCURS {VLIB_profile_init} {0}  ; |50| 
     555                    ;** --------------------------------------------------------------------------*
     556                    ;          EXCLUSIVE CPU CYCLES: 12
     557                            .dwpsn  file "./../packages/ti/vlib/src/VLIB_L2_norm_i8/VLIB_L2_norm_i8_d.c",line 53,column 17
     558                    ;----------------------------------------------------------------------
     559                    ;  53 | for( tpi=0; tpi < test_cases; tpi++ ) {                                
     560                    ;----------------------------------------------------------------------
     561 00000034 01a80264             LDW     .D1T1   *A10,A3           ; |53| 
     562 00000038 023ca2e4             LDW     .D2T1   *+SP(20),A4
     563 0000003c 0200002a!            MVKL    .S2     desc,B4
     564 00000040 0200006a!            MVKH    .S2     desc,B4
     565 00000044 0600002a!            MVKL    .S2     testPatternString,B12
     566 00000048 000c0ad8             CMPGT   .L1     A3,0,A0           ; |53| 
     567 0000004c d0be6120     [!A0]   BNOP    .S1     $C$L4,3           ; |53| 
     568                    
     569 00000050 06800029!            MVKL    .S1     cycles,A13
     570 00000054 0580a358  ||         ZERO    .L1     A11               ; |53| 
     571                    
     572 00000058 071209c1             SUB     .D1     A4,16,A14
     573 0000005c 07901fd9  ||         MV      .L1X    B4,A15
     574 00000060 0600006b! ||         MVKH    .S2     testPatternString,B12
     575 00000064 06800069! ||         MVKH    .S1     cycles,A13
     576 00000068 0580a35a  ||         ZERO    .L2     B11               ; |53| 
     577                    
     578                               ; BRANCHCC OCCURS {$C$L4}         ; |53| 
     579                    ;** --------------------------------------------------------------------------*
     580                    ;**     -----------------------    K$21 = &testPatternString[0];
     581                    ;**     -----------------------    K$35 = &cycles[0];
     582                    ;**     -----------------------    K$70 = &desc[0];
     583                    ;**     -----------------------    U$12 = prm-16;
     584                    ;**     -----------------------    U$11 = 0;
     585                    ;** 53  -----------------------    tpi = 0;
     586                    ;**     -----------------------    #pragma LOOP_FLAGS(5120u)
     587                    ;*----------------------------------------------------------------------------*
     588                    ;*   SOFTWARE PIPELINE INFORMATION
     589                    ;*      Disqualified loop: Loop contains a call
     590                    ;*      Disqualified loop: Loop contains non-pipelinable instructions
     591                    ;*      Disqualified loop: Loop contains control code
     592                    ;*----------------------------------------------------------------------------*
     593 0000006c           $C$L1:    
     594                            .dwpsn  file "./../packages/ti/vlib/src/VLIB_L2_norm_i8/VLIB_L2_norm_i8_d.c",line 53,column 10
     595                    ;----------------------------------------------------------------------
     596                    ;  56 | int32_t    status_nat_vs_int = vlib_KERNEL_PASS; /* Test status : Natur
     597                    ;     | al c vs. Optimized */                                                  
     598                    ;  57 | int32_t    status_nat_vs_ref = vlib_KERNEL_PASS; /* Test status : Natur
     599                    ;     | al c vs. Static Reference */                                           
     600                    ;----------------------------------------------------------------------
     601                    $C$DW$L$VLIB_L2_norm_i8_d$5$B:
     602                    ;          EXCLUSIVE CPU CYCLES: 6
     603                    ;**     -----------------------g3:
     604                    ;** 60  -----------------------    pData = VLIB_malloc((unsigned)(*(U$12 += 16)).len);
     605                    ;** 65  -----------------------    if ( pData == NULL ) goto g7;
TMS320C6x Assembler PC v7.4.2 Thu Mar 19 12:43:15 2015

Tools Copyright (c) 1996-2012 Texas Instruments Incorporated
package/lib/Regression/regress_d_c/./../packages/ti/vlib/src/VLIB_L2_norm_i8/VLIB_L2_norm_i8_d.se66 PAGE   12

     606                    $C$DW$88        .dwtag  DW_TAG_TI_branch
     607                            .dwattr $C$DW$88, DW_AT_low_pc(0x00)
     608                            .dwattr $C$DW$88, DW_AT_name("VLIB_malloc")
     609                            .dwattr $C$DW$88, DW_AT_TI_call
     610                    
     611 0000006c 00000013!            CALL    .S2     VLIB_malloc       ; |60| 
     612 00000070 07000850  ||         ADDK    .S1     16,A14            ; |60| 
     613                    
     614                            .dwpsn  file "./../packages/ti/vlib/src/VLIB_L2_norm_i8/VLIB_L2_norm_i8_d.c",line 60,column 21
     615                    ;----------------------------------------------------------------------
     616                    ;  60 | uint8_t    *pData  = (uint8_t *) VLIB_malloc(prm[tpi].len * sizeof(uint
     617                    ;     | 8_t));                                                                 
     618                    ;  61 | VLIB_F32    norm;                                                      
     619                    ;  62 | VLIB_F32    norm_cn;                                                   
     620                    ;  65 | if( pData ) {                                                          
     621                    ;  67 |     int32_t    fail;                                                   
     622                    ;----------------------------------------------------------------------
     623 00000074 02386264             LDW     .D1T1   *+A14(12),A4      ; |60| 
     624 00000078 01886163             ADDKPC  .S2     $C$RL2,B3,3       ; |60| 
     625 00000080           $C$RL2:    ; CALL OCCURS {VLIB_malloc} {0}   ; |60| 
     626 00000080           $C$DW$L$VLIB_L2_norm_i8_d$5$E:
     627                    ;** --------------------------------------------------------------------------*
     628 00000080           $C$DW$L$VLIB_L2_norm_i8_d$6$B:
     629                    ;          EXCLUSIVE CPU CYCLES: 7
     630                    
     631 00000080     0246             MV      .L1     A4,A0             ; |60| 
     632 00000082     b647  ||         MV      .L2X    A4,B13            ; |60| 
     633                    
     634 00000084 c404a35b     [ A0]   MVK     .L2     0x1,B8            ; |70| 
     635 00000088 d0004e11  || [!A0]   B       .S1     $C$L2             ; |65| 
     636 0000008c c438c204  || [ A0]   LDHU    .D1T1   *+A14(12),A8      ; |70| 
     637                    
     638                            .dwpsn  file "./../packages/ti/vlib/src/VLIB_L2_norm_i8/VLIB_L2_norm_i8_d.c",line 70,column 13
     639                    ;----------------------------------------------------------------------
     640                    ;  70 | VLIB_fillBuffer(prm[tpi].testPattern,                                  
     641                    ;----------------------------------------------------------------------
     642 00000090 c3382266     [ A0]   LDW     .D1T2   *+A14(4),B6       ; |70| 
     643                    $C$DW$89        .dwtag  DW_TAG_TI_branch
     644                            .dwattr $C$DW$89, DW_AT_low_pc(0x00)
     645                            .dwattr $C$DW$89, DW_AT_name("VLIB_fillBuffer")
     646                            .dwattr $C$DW$89, DW_AT_TI_call
     647                    
     648 00000094 c0000011!    [ A0]   CALL    .S1     VLIB_fillBuffer   ; |70| 
     649 00000098 c2380214  || [ A0]   LDBU    .D1T1   *A14,A4           ; |70| 
     650                    
     651                    $C$DW$90        .dwtag  DW_TAG_TI_branch
     652                            .dwattr $C$DW$90, DW_AT_low_pc(0x00)
     653                            .dwattr $C$DW$90, DW_AT_name("sprintf")
     654                            .dwattr $C$DW$90, DW_AT_TI_call
     655                    
     656 000000a0 d0000011!    [!A0]   CALL    .S1     sprintf           ; |112| 
     657 000000a4 d1b86264  || [!A0]   LDW     .D1T1   *+A14(12),A3      ; |112| 
     658                    
     659 000000a8 d200002a!    [!A0]   MVKL    .S2     $C$SL3+0,B4
     660 000000ac d200006a!    [!A0]   MVKH    .S2     $C$SL3+0,B4
TMS320C6x Assembler PC v7.4.2 Thu Mar 19 12:43:15 2015

Tools Copyright (c) 1996-2012 Texas Instruments Incorporated
package/lib/Regression/regress_d_c/./../packages/ti/vlib/src/VLIB_L2_norm_i8/VLIB_L2_norm_i8_d.se66 PAGE   13

     661                            .dwpsn  file "./../packages/ti/vlib/src/VLIB_L2_norm_i8/VLIB_L2_norm_i8_d.c",line 65,column 9,
     662                               ; BRANCHCC OCCURS {$C$L2}         ; |65| 
     663 000000b0           $C$DW$L$VLIB_L2_norm_i8_d$6$E:
     664                    ;** --------------------------------------------------------------------------*
     665 000000b0           $C$DW$L$VLIB_L2_norm_i8_d$7$B:
     666                    ;          EXCLUSIVE CPU CYCLES: 2
     667                    ;** 70  -----------------------    C$4 = (unsigned short)(*U$12).len;
     668                    ;** 70  -----------------------    VLIB_fillBuffer((*U$12).testPattern, 1u, (void *)pData, (*U$12).sta
     669                    ;** 137 -----------------------    act_kernel = 0;  // [13]
     670                    ;** 140 -----------------------    VLIB_cache_inval();  // [13]
     671                    ;** 143 -----------------------    initStack(getSP());  // [13]
     672                    ;** 146 -----------------------    beg_count = _itoll(TSCH, TSCL);  // [13]
     673                    ;** 79  -----------------------    norm = VLIB_L2_norm_i8(pData, (*U$12).len);
     674                    ;** 153 -----------------------    v$2 = _itoll(TSCH, TSCL);  // [14]
     675                    ;** 153 -----------------------    end_count = v$2;  // [14]
     676                    ;** 156 -----------------------    C$3 = act_kernel;  // [14]
     677                    ;** 156 -----------------------    *((C$3<<3)+K$35) = *((C$3<<3)+K$35)+(v$2-(beg_count+overhead));  //
     678                    ;** 159 -----------------------    setStackDepth();  // [14]
     679                    ;** 137 -----------------------    act_kernel = 1;  // [13]
     680                    ;** 140 -----------------------    VLIB_cache_inval();  // [13]
     681                    ;** 143 -----------------------    initStack(getSP());  // [13]
     682                    ;** 146 -----------------------    beg_count = _itoll(TSCH, TSCL);  // [13]
     683                    ;** 85  -----------------------    norm_cn = VLIB_L2_norm_i8(pData, (*U$12).len);
     684                    ;** 153 -----------------------    v$2 = _itoll(TSCH, TSCL);  // [14]
     685                    ;** 153 -----------------------    end_count = v$2;  // [14]
     686                    ;** 156 -----------------------    C$2 = act_kernel;  // [14]
     687                    ;** 156 -----------------------    *((C$2<<3)+K$35) = *((C$2<<3)+K$35)+(v$2-(beg_count+overhead));  //
     688                    ;** 159 -----------------------    setStackDepth();  // [14]
     689                            .dwpsn  file "./../packages/ti/vlib/src/VLIB_L2_norm_i8/VLIB_L2_norm_i8_d.c",line 70,column 13
     690                    ;----------------------------------------------------------------------
     691                    ;  71 | (uint8_t)1,                                                            
     692                    ;  72 | pData, prm[tpi].staticIn,                                              
     693                    ;  73 | prm[tpi].len, 1, prm[tpi].len * sizeof(pData[0]),                      
     694                    ;  74 | sizeof(pData[0]), testPatternString);                                  
     695                    ;  78 | VLIB_profile_start(vlib_KERNEL_OPT);                                   
     696                    ;  79 | norm = VLIB_L2_norm_i8(pData, prm[tpi].len);                           
     697                    ;  80 | VLIB_profile_stop();                                                   
     698                    ;  84 | VLIB_profile_start(vlib_KERNEL_CN);                                    
     699                    ;  85 | norm_cn = VLIB_L2_norm_i8(pData, prm[tpi].len);                        
     700                    ;  86 | VLIB_profile_stop();                                                   
     701                    ;  89 | if( abs(norm - norm_cn) > EPSILON ) {                                  
     702                    ;  90 | status_nat_vs_int = vlib_KERNEL_FAIL;                                  
     703                    ;  94 | if( prm[tpi].staticOut != 0x0 ) {                                      
     704                    ;  95 | if( abs(prm[tpi].staticOut - norm_cn) > EPSILON ) {                    
     705                    ;  96 | status_nat_vs_ref = vlib_KERNEL_FAIL;                                  
     706                    ; 101 | fail = ((status_nat_vs_int == vlib_KERNEL_FAIL) || (status_nat_vs_ref =
     707                    ;     | = vlib_KERNEL_FAIL)) ? 1 : 0;                                          
     708                    ; 103 | est_test=1;                                                            
     709                    ; 106 | sprintf(desc, "%s generated input | Opt results compared to NatC result
     710                    ;     | s | len=%d",                                                           
     711                    ; 107 | testPatternString, prm[tpi].len);                                      
     712                    ; 108 | VLIB_formula_add_test(prm[tpi].len, NULL, NULL, fail, desc, NULL);     
     713                    ; 110 | } else {                                                               
     714                    ; 112 | sprintf(desc, "len=%d",                                                
     715                    ; 113 | prm[tpi].len);                                                         
TMS320C6x Assembler PC v7.4.2 Thu Mar 19 12:43:15 2015

Tools Copyright (c) 1996-2012 Texas Instruments Incorporated
package/lib/Regression/regress_d_c/./../packages/ti/vlib/src/VLIB_L2_norm_i8/VLIB_L2_norm_i8_d.se66 PAGE   14

     716                    ; 114 | VLIB_skip_test(desc);                                                  
     717                    ; 118 | VLIB_free(pData);                                                      
     718                    ; 122 | VLIB_profile_cycle_report(vlib_PROFILE_FORMULA_RANGE,                  
     719                    ; 123 |   "N = len",                                                           
     720                    ; 124 |   "len");                                                              
     721                    ; 127 | VLIB_kernel_memory();                                                  
     722                    ; 131 | #ifndef __ONESHOTTEST                                                  
     723                    ; 133 | main() {                                                               
     724                    ; 134 | if( VLIB_cache_init()) {                                               
     725                    ; 135 | VLIB_memError("VLIB_L2_norm_i8");                                      
     726                    ; 136 | } else {                                                               
     727                    ; 137 | VLIB_L2_norm_i8_d(0);                                                  
     728                    ;----------------------------------------------------------------------
     729 000000b0     d686             MV      .L1X    B13,A6            ; |70| 
     730                    
     731 000000b8 06301fd9             MV      .L1X    B12,A12           ; |70| 
     732 000000b4 052006a1  ||         MV      .S1     A8,A10            ; |70| 
     733 000000b2     8407  ||         MV      .L2     B8,B4             ; |70| 
     734 000000c0 052008f3  ||         MV      .D2     B8,B10            ; |70| 
     735 000000c4 01820162  ||         ADDKPC  .S2     $C$RL3,B3,0       ; |70| 
     736                    
     737 000000c8           $C$RL3:    ; CALL OCCURS {VLIB_fillBuffer} {0}  ; |70| 
     738 000000c8           $C$DW$L$VLIB_L2_norm_i8_d$7$E:
     739                    ;** --------------------------------------------------------------------------*
     740 000000c8           $C$DW$L$VLIB_L2_norm_i8_d$8$B:
     741                    ;          EXCLUSIVE CPU CYCLES: 109
     742 000000c8 0280002a!            MVKL    .S2     act_kernel,B5
     743                    
     744 000000cc 0280006b!            MVKH    .S2     act_kernel,B5
     745 000000d0     0627  ||         ZERO    .L2     B4                ; |137| 
     746                    
     747                    $C$DW$91        .dwtag  DW_TAG_TI_branch
     748                            .dwattr $C$DW$91, DW_AT_low_pc(0x00)
     749                            .dwattr $C$DW$91, DW_AT_name("VLIB_cache_inval")
     750                            .dwattr $C$DW$91, DW_AT_TI_call
     751                    
     752 000000d4 10000012!            CALLP   .S2     VLIB_cache_inval,B3
     753 000000d2     10c5  ||         STW     .D2T2   B4,*B5            ; |137| 
     754                    
     755                            .dwpsn  file ".\..\packages\ti\vlib\src\VLIB_L2_norm_i8\..\common\VLIB_profile.h",line 140,col
     756                    ;----------------------------------------------------------------------
     757                    ; 140 | #endif /* __ONESHOTTEST */                                             
     758                    ;----------------------------------------------------------------------
     759                    $C$RL4:    ; CALL OCCURS {VLIB_cache_inval} {0}  ; |140| 
     760                    $C$DW$92        .dwtag  DW_TAG_TI_branch
     761                            .dwattr $C$DW$92, DW_AT_low_pc(0x00)
     762                            .dwattr $C$DW$92, DW_AT_name("getSP")
     763                            .dwattr $C$DW$92, DW_AT_TI_call
     764 000000d8 10000012!            CALLP   .S2     getSP,B3
     765                            .dwpsn  file ".\..\packages\ti\vlib\src\VLIB_L2_norm_i8\..\common\VLIB_profile.h",line 143,col
     766                    $C$RL5:    ; CALL OCCURS {getSP} {0}         ; |143| 
     767                    $C$DW$93        .dwtag  DW_TAG_TI_branch
     768                            .dwattr $C$DW$93, DW_AT_low_pc(0x00)
     769                            .dwattr $C$DW$93, DW_AT_name("initStack")
     770                            .dwattr $C$DW$93, DW_AT_TI_call
TMS320C6x Assembler PC v7.4.2 Thu Mar 19 12:43:15 2015

Tools Copyright (c) 1996-2012 Texas Instruments Incorporated
package/lib/Regression/regress_d_c/./../packages/ti/vlib/src/VLIB_L2_norm_i8/VLIB_L2_norm_i8_d.se66 PAGE   15

     771 000000e0 10000012!            CALLP   .S2     initStack,B3
     772 000000e4           $C$RL6:    ; CALL OCCURS {initStack} {0}     ; |143| 
     773                            .dwpsn  file ".\..\packages\ti\vlib\src\VLIB_L2_norm_i8\..\common\VLIB_profile.h",line 146,col
     774                    ;----------------------------------------------------------------------
     775                    ; 146 |                                                                        
     776                    ;----------------------------------------------------------------------
     777 000000e4 022803e2             MVC     .S2     TSCL,B4           ; |146| 
     778 000000e8 02ac03e2             MVC     .S2     TSCH,B5           ; |146| 
     779 000000ec 0300002a!            MVKL    .S2     beg_count,B6
     780 000000f0 0300006a!            MVKH    .S2     beg_count,B6
     781                    
     782 000000f4     1145             STDW    .D2T2   B5:B4,*B6         ; |146| 
     783 000000f6     9686  ||         MV      .L1X    B13,A4            ; |79| 
     784                    
     785                    $C$DW$94        .dwtag  DW_TAG_TI_branch
     786                            .dwattr $C$DW$94, DW_AT_low_pc(0x00)
     787                            .dwattr $C$DW$94, DW_AT_name("VLIB_L2_norm_i8")
     788                            .dwattr $C$DW$94, DW_AT_TI_call
     789                    
     790 000000f8 10000013!            CALLP   .S2     VLIB_L2_norm_i8,B3
     791 00000100 02386267  ||         LDW     .D1T2   *+A14(12),B4      ; |79| 
     792 00000104 05341fd8  ||         MV      .L1X    B13,A10           ; |79| 
     793                    
     794                            .dwpsn  file "./../packages/ti/vlib/src/VLIB_L2_norm_i8/VLIB_L2_norm_i8_d.c",line 79,column 13
     795 00000108           $C$RL7:    ; CALL OCCURS {VLIB_L2_norm_i8} {0}  ; |79| 
     796                    
     797 00000108 05101fdb             MV      .L2X    A4,B10            ; |79| 
     798 0000010c 042803e2  ||         MVC     .S2     TSCL,B8           ; |153| 
     799                    
     800                            .dwpsn  file ".\..\packages\ti\vlib\src\VLIB_L2_norm_i8\..\common\VLIB_profile.h",line 153,col
     801 00000110 022c03e2             MVC     .S2     TSCH,B4           ; |153| 
     802 00000114 02000028!            MVKL    .S1     beg_count,A4
     803 00000118 01800028!            MVKL    .S1     act_kernel,A3
     804                    
     805 0000011c 01800069!            MVKH    .S1     act_kernel,A3
     806 00000120 0280002a! ||         MVKL    .S2     overhead,B5
     807                    
     808 00000124 018c0265             LDW     .D1T1   *A3,A3            ; |156| 
     809 00000128 0280006b! ||         MVKH    .S2     overhead,B5
     810 0000012c 02000068! ||         MVKH    .S1     beg_count,A4
     811                    
     812 00000130     004c             LDDW    .D1T1   *A4,A5:A4         ; |156| 
     813 00000132     10ed  ||         LDDW    .D2T2   *B5,B7:B6         ; |156| 
     814                    
     815 00000134     2647             MV      .L2     B4,B9             ; |153| 
     816 00000136     2c6e             NOP             2
     817                            .dwpsn  file ".\..\packages\ti\vlib\src\VLIB_L2_norm_i8\..\common\VLIB_profile.h",line 156,col
     818 00000138 03346b64             LDDW    .D1T1   *+A13[A3],A7:A6   ; |156| 
     819 00000140 0210d57a             ADDU    .L2X    B6,A4,B5:B4       ; |156| 
     820                    
     821 00000148     a3cb             ADD     .S2     B5,B7,B4          ; |156| 
     822 00000144 031105fb  ||         SUBU    .L2     B8,B4,B7:B6       ; |156| 
     823                    
     824 0000014a     92c1             ADD     .L2X    B4,A5,B4          ; |156| 
     825                    
TMS320C6x Assembler PC v7.4.2 Thu Mar 19 12:43:15 2015

Tools Copyright (c) 1996-2012 Texas Instruments Incorporated
package/lib/Regression/regress_d_c/./../packages/ti/vlib/src/VLIB_L2_norm_i8/VLIB_L2_norm_i8_d.se66 PAGE   16

     826 0000014c     1746             MV      .L1X    B6,A8             ; |156| 
     827 00000150 021120fa  ||         SUB     .L2     B9,B4,B4          ; |156| 
     828 0000014e     abe3  ||         EXT     .S2     B7,24,24,B5       ; |156| 
     829                    
     830 00000154 0420c579             ADDU    .L1     A6,A8,A9:A8       ; |156| 
     831 00000160 0214807a  ||         ADD     .L2     B4,B5,B4          ; |156| 
     832 00000158 02000029! ||         MVKL    .S1     end_count,A4
     833                    
     834 00000164 029d2079             ADD     .L1     A9,A7,A5          ; |156| 
     835 00000168 02000068! ||         MVKH    .S1     end_count,A4
     836                    
     837 0000016c 0490b079             ADD     .L1X    A5,B4,A9          ; |156| 
     838 00000170 04100346  ||         STDW    .D1T2   B9:B8,*A4         ; |153| 
     839                    
     840                    $C$DW$95        .dwtag  DW_TAG_TI_branch
     841                            .dwattr $C$DW$95, DW_AT_low_pc(0x00)
     842                            .dwattr $C$DW$95, DW_AT_name("setStackDepth")
     843                            .dwattr $C$DW$95, DW_AT_TI_call
     844                    
     845 00000174 10000013!            CALLP   .S2     setStackDepth,B3
     846 00000178 04346b44  ||         STDW    .D1T1   A9:A8,*+A13[A3]   ; |156| 
     847                    
     848                            .dwpsn  file ".\..\packages\ti\vlib\src\VLIB_L2_norm_i8\..\common\VLIB_profile.h",line 159,col
     849 0000017c           $C$RL8:    ; CALL OCCURS {setStackDepth} {0}  ; |159| 
     850 0000017c 0280002a!            MVKL    .S2     act_kernel,B5
     851                    
     852 00000180 0280006b!            MVKH    .S2     act_kernel,B5
     853 00000184     2627  ||         MVK     .L2     1,B4              ; |137| 
     854                    
     855                    $C$DW$96        .dwtag  DW_TAG_TI_branch
     856                            .dwattr $C$DW$96, DW_AT_low_pc(0x00)
     857                            .dwattr $C$DW$96, DW_AT_name("VLIB_cache_inval")
     858                            .dwattr $C$DW$96, DW_AT_TI_call
     859                    
     860 00000188 10000012!            CALLP   .S2     VLIB_cache_inval,B3
     861 00000186     10c5  ||         STW     .D2T2   B4,*B5            ; |137| 
     862                    
     863                            .dwpsn  file ".\..\packages\ti\vlib\src\VLIB_L2_norm_i8\..\common\VLIB_profile.h",line 140,col
     864                    $C$RL9:    ; CALL OCCURS {VLIB_cache_inval} {0}  ; |140| 
     865                    $C$DW$97        .dwtag  DW_TAG_TI_branch
     866                            .dwattr $C$DW$97, DW_AT_low_pc(0x00)
     867                            .dwattr $C$DW$97, DW_AT_name("getSP")
     868                            .dwattr $C$DW$97, DW_AT_TI_call
     869 0000018c 10000012!            CALLP   .S2     getSP,B3
     870                            .dwpsn  file ".\..\packages\ti\vlib\src\VLIB_L2_norm_i8\..\common\VLIB_profile.h",line 143,col
     871                    $C$RL10:   ; CALL OCCURS {getSP} {0}         ; |143| 
     872                    $C$DW$98        .dwtag  DW_TAG_TI_branch
     873                            .dwattr $C$DW$98, DW_AT_low_pc(0x00)
     874                            .dwattr $C$DW$98, DW_AT_name("initStack")
     875                            .dwattr $C$DW$98, DW_AT_TI_call
     876 00000190 10000012!            CALLP   .S2     initStack,B3
     877 00000194           $C$RL11:   ; CALL OCCURS {initStack} {0}     ; |143| 
     878                            .dwpsn  file ".\..\packages\ti\vlib\src\VLIB_L2_norm_i8\..\common\VLIB_profile.h",line 146,col
     879 00000194 032803e2             MVC     .S2     TSCL,B6           ; |146| 
     880 00000198 022c03e2             MVC     .S2     TSCH,B4           ; |146| 
TMS320C6x Assembler PC v7.4.2 Thu Mar 19 12:43:15 2015

Tools Copyright (c) 1996-2012 Texas Instruments Incorporated
package/lib/Regression/regress_d_c/./../packages/ti/vlib/src/VLIB_L2_norm_i8/VLIB_L2_norm_i8_d.se66 PAGE   17

     881 000001a0 0280002a!            MVKL    .S2     beg_count,B5
     882                    
     883 000001ac     e247             MV      .L2     B4,B7             ; |146| 
     884 000001a8 02386267  ||         LDW     .D1T2   *+A14(12),B4      ; |85| 
     885 000001a4 0280006b! ||         MVKH    .S2     beg_count,B5
     886                    
     887                    $C$DW$99        .dwtag  DW_TAG_TI_branch
     888                            .dwattr $C$DW$99, DW_AT_low_pc(0x00)
     889                            .dwattr $C$DW$99, DW_AT_name("VLIB_L2_norm_i8")
     890                            .dwattr $C$DW$99, DW_AT_TI_call
     891                    
     892 000001b0 10000013!            CALLP   .S2     VLIB_L2_norm_i8,B3
     893 000001ae     10e5  ||         STDW    .D2T2   B7:B6,*B5         ; |146| 
     894 000001b4     8506  ||         MV      .L1     A10,A4            ; |85| 
     895                    
     896                            .dwpsn  file "./../packages/ti/vlib/src/VLIB_L2_norm_i8/VLIB_L2_norm_i8_d.c",line 85,column 13
     897 000001b6           $C$RL12:   ; CALL OCCURS {VLIB_L2_norm_i8} {0}  ; |85| 
     898                    
     899 000001b6     8646             MV      .L1     A4,A12            ; |85| 
     900 000001b8 042803e2  ||         MVC     .S2     TSCL,B8           ; |153| 
     901                    
     902                            .dwpsn  file ".\..\packages\ti\vlib\src\VLIB_L2_norm_i8\..\common\VLIB_profile.h",line 153,col
     903 000001c0 032c03e2             MVC     .S2     TSCH,B6           ; |153| 
     904 000001c4 0280002a!            MVKL    .S2     overhead,B5
     905                    
     906 000001c8 01800029!            MVKL    .S1     act_kernel,A3
     907 000001cc 0200002a! ||         MVKL    .S2     beg_count,B4
     908                    
     909 000001d0 01800069!            MVKH    .S1     act_kernel,A3
     910 000001d4 0200006a! ||         MVKH    .S2     beg_count,B4
     911                    
     912 000001d8 018c0265             LDW     .D1T1   *A3,A3            ; |156| 
     913 000001dc 0280006b! ||         MVKH    .S2     overhead,B5
     914 000001e0 081003e6  ||         LDDW    .D2T2   *B4,B17:B16       ; |156| 
     915                    
     916                            .dwpsn  file ".\..\packages\ti\vlib\src\VLIB_L2_norm_i8\..\common\VLIB_profile.h",line 156,col
     917 000001e4 021403e6             LDDW    .D2T2   *B5,B5:B4         ; |156| 
     918                            .dwpsn  file ".\..\packages\ti\vlib\src\VLIB_L2_norm_i8\..\common\VLIB_profile.h",line 153,col
     919 000001e8     2747             MV      .L2     B6,B9             ; |153| 
     920 000001ea     2c6e             NOP             2
     921                            .dwpsn  file ".\..\packages\ti\vlib\src\VLIB_L2_norm_i8\..\common\VLIB_profile.h",line 156,col
     922 000001ec 02346b64             LDDW    .D1T1   *+A13[A3],A5:A4   ; |156| 
     923 000001f0 0340857a             ADDU    .L2     B4,B16,B7:B6      ; |156| 
     924                    
     925 000001f8 0214e1e2             ADD     .S2     B7,B5,B4          ; |156| 
     926 000001f4 031905fb  ||         SUBU    .L2     B8,B6,B7:B6       ; |156| 
     927                    
     928 00000200 0244807a             ADD     .L2     B4,B17,B4         ; |156| 
     929                    
     930 00000204     d346             MV      .L1X    B6,A6             ; |156| 
     931 00000206     cbe3  ||         EXT     .S2     B7,24,24,B6       ; |156| 
     932 00000208 021120fa  ||         SUB     .L2     B9,B4,B4          ; |156| 
     933                    
     934 0000020c 03188579             ADDU    .L1     A4,A6,A7:A6       ; |156| 
     935 00000210     8341  ||         ADD     .L2     B4,B6,B4          ; |156| 
TMS320C6x Assembler PC v7.4.2 Thu Mar 19 12:43:15 2015

Tools Copyright (c) 1996-2012 Texas Instruments Incorporated
package/lib/Regression/regress_d_c/./../packages/ti/vlib/src/VLIB_L2_norm_i8/VLIB_L2_norm_i8_d.se66 PAGE   18

     936                    
     937 00000212     e2c0             ADD     .L1     A7,A5,A4          ; |156| 
     938 00000214 0280002a! ||         MVKL    .S2     end_count,B5
     939                    
     940 00000220 03909078             ADD     .L1X    A4,B4,A7          ; |156| 
     941 00000218 0280006b! ||         MVKH    .S2     end_count,B5
     942                    
     943                    $C$DW$100       .dwtag  DW_TAG_TI_branch
     944                            .dwattr $C$DW$100, DW_AT_low_pc(0x00)
     945                            .dwattr $C$DW$100, DW_AT_name("setStackDepth")
     946                            .dwattr $C$DW$100, DW_AT_TI_call
     947                    
     948 00000224 10000013!            CALLP   .S2     setStackDepth,B3
     949 00000228 03346b45  ||         STDW    .D1T1   A7:A6,*+A13[A3]   ; |156| 
     950 0000022c 041403c6  ||         STDW    .D2T2   B9:B8,*B5         ; |153| 
     951                    
     952                            .dwpsn  file ".\..\packages\ti\vlib\src\VLIB_L2_norm_i8\..\common\VLIB_profile.h",line 159,col
     953 00000230           $C$RL13:   ; CALL OCCURS {setStackDepth} {0}  ; |159| 
     954 00000230           $C$DW$L$VLIB_L2_norm_i8_d$8$E:
     955                    ;** --------------------------------------------------------------------------*
     956 00000230           $C$DW$L$VLIB_L2_norm_i8_d$9$B:
     957                    ;          EXCLUSIVE CPU CYCLES: 17
     958                    ;** 90  -----------------------    status_nat_vs_int = (double)ABS((int)(norm-norm_cn)) <= 0.001;
     959                    ;** 94  -----------------------    v$1 = prm;
     960                    ;** 57  -----------------------    status_nat_vs_ref = 1;
     961                    ;** 94  -----------------------    C$1 = (*U$12).staticOut;
     962                    ;** 94  -----------------------    if ( !((C$1 != (K$54 = 0.0F))&((double)ABS((int)(C$1-norm_cn)) > 0.
     963                    ;** 96  -----------------------    status_nat_vs_ref = 0;
     964                    ;**     -----------------------g6:
     965                    ;** 103 -----------------------    est_test = 1;
     966                    ;** 106 -----------------------    sprintf(K$70, (const char *)"%s generated input | Opt results compa
     967                    ;** 108 -----------------------    VLIB_formula_add_test((*U$12).len, 0, 0, (status_nat_vs_int == 0)|(
     968                    ;** 110 -----------------------    goto g8;
     969                            .dwpsn  file "./../packages/ti/vlib/src/VLIB_L2_norm_i8/VLIB_L2_norm_i8_d.c",line 94,column 13
     970 00000230 023ca2e6             LDW     .D2T2   *+SP(20),B4       ; |94| 
     971 00000234 0280002a!            MVKL    .S2     $C$SL2+0,B5
     972 00000238 02000028!            MVKL    .S1     est_test,A4
     973 0000023c 0280006a!            MVKH    .S2     $C$SL2+0,B5
     974                            .dwpsn  file "./../packages/ti/vlib/src/VLIB_L2_norm_i8/VLIB_L2_norm_i8_d.c",line 106,column 1
     975 00000240 063c42f6             STW     .D2T2   B12,*+SP(8)       ; |106| 
     976 00000244 022c807a             ADD     .L2     B4,B11,B4         ; |106| 
     977 00000248 021062e6             LDW     .D2T2   *+B4(12),B4       ; |106| 
     978                            .dwpsn  file "./../packages/ti/vlib/src/VLIB_L2_norm_i8/VLIB_L2_norm_i8_d.c",line 94,column 13
     979 0000024c 05384264             LDW     .D1T1   *+A14(8),A10      ; |94| 
     980 00000250 02000068!            MVKH    .S1     est_test,A4
     981                            .dwpsn  file "./../packages/ti/vlib/src/VLIB_L2_norm_i8/VLIB_L2_norm_i8_d.c",line 103,column 1
     982 00000254     25a6             MVK     .L1     1,A3              ; |103| 
     983                            .dwpsn  file "./../packages/ti/vlib/src/VLIB_L2_norm_i8/VLIB_L2_norm_i8_d.c",line 106,column 1
     984 00000256     bc55             STW     .D2T2   B5,*+SP(4)        ; |106| 
     985                    $C$DW$101       .dwtag  DW_TAG_TI_branch
     986                            .dwattr $C$DW$101, DW_AT_low_pc(0x00)
     987                            .dwattr $C$DW$101, DW_AT_name("sprintf")
     988                            .dwattr $C$DW$101, DW_AT_TI_call
     989                    
     990 00000258 10000013!            CALLP   .S2     sprintf,B3
TMS320C6x Assembler PC v7.4.2 Thu Mar 19 12:43:15 2015

Tools Copyright (c) 1996-2012 Texas Instruments Incorporated
package/lib/Regression/regress_d_c/./../packages/ti/vlib/src/VLIB_L2_norm_i8/VLIB_L2_norm_i8_d.se66 PAGE   19

     991 00000260     fc45  ||         STW     .D2T2   B4,*+SP(12)       ; |106| 
     992 00000262     0034  ||         STW     .D1T1   A3,*A4            ; |103| 
     993 00000264 023c0fd8  ||         MV      .L1     A15,A4            ; |106| 
     994                    
     995 00000268           $C$RL14:   ; CALL OCCURS {sprintf} {0}       ; |106| 
     996 00000268           $C$DW$L$VLIB_L2_norm_i8_d$9$E:
     997                    ;** --------------------------------------------------------------------------*
     998 00000268           $C$DW$L$VLIB_L2_norm_i8_d$10$B:
     999                    ;          EXCLUSIVE CPU CYCLES: 27
    1000                            .dwpsn  file "./../packages/ti/vlib/src/VLIB_L2_norm_i8/VLIB_L2_norm_i8_d.c",line 94,column 13
    1001 00000268 01b147b8             FSUBSP  .L1     A10,A12,A3        ; |94| 
    1002                            .dwpsn  file "./../packages/ti/vlib/src/VLIB_L2_norm_i8/VLIB_L2_norm_i8_d.c",line 90,column 17
    1003 0000026c 023157ba             FSUBSP  .L2X    B10,A12,B4        ; |90| 
    1004 00000270 03b126a8             MVKL    .S1     0x3f50624d,A7
    1005                            .dwpsn  file "./../packages/ti/vlib/src/VLIB_L2_norm_i8/VLIB_L2_norm_i8_d.c",line 94,column 13
    1006 00000274 018c0178             SPTRUNC .L1     A3,A3             ; |94| 
    1007                            .dwpsn  file "./../packages/ti/vlib/src/VLIB_L2_norm_i8/VLIB_L2_norm_i8_d.c",line 90,column 17
    1008 00000278 0210017a             SPTRUNC .L2     B4,B4             ; |90| 
    1009 00000280 0354fe28             MVKL    .S1     0xd2f1a9fc,A6
    1010 00000284 039fa868             MVKH    .S1     0x3f50624d,A7
    1011                            .dwpsn  file "./../packages/ti/vlib/src/VLIB_L2_norm_i8/VLIB_L2_norm_i8_d.c",line 94,column 13
    1012 00000288 018c0358             ABS     .L1     A3,A3             ; |94| 
    1013 0000028c 020c0738             INTDP   .L1     A3,A5:A4          ; |94| 
    1014                            .dwpsn  file "./../packages/ti/vlib/src/VLIB_L2_norm_i8/VLIB_L2_norm_i8_d.c",line 90,column 17
    1015 00000290 0210035a             ABS     .L2     B4,B4             ; |90| 
    1016 00000294 0410073a             INTDP   .L2     B4,B9:B8          ; |90| 
    1017 00000298 036978e8             MVKH    .S1     0xd2f1a9fc,A6
    1018                            .dwpsn  file "./../packages/ti/vlib/src/VLIB_L2_norm_i8/VLIB_L2_norm_i8_d.c",line 94,column 13
    1019 0000029c 0f800028             ZERO    .S1     A31               ; |94| 
    1020 000002a0 01fd4e20             CMPEQSP .S1     A10,A31,A3        ; |94| 
    1021 000002a4 02188a60             CMPGTDP .S1     A5:A4,A7:A6,A4    ; |94| 
    1022                    
    1023 000002a8     f9e6             XOR     .L1     1,A3,A3           ; |94| 
    1024 000002aa     f3c7  ||         MV      .L2X    A7,B7             ; |94| 
    1025                    
    1026 000002ac     8588             AND     .L1     A4,A3,A0          ; |94| 
    1027 000002ae     2627  ||         MVK     .L2     0x1,B4            ; |57| 
    1028 000002b0     d34f  ||         MV      .S2X    A6,B6             ; |94| 
    1029                    
    1030 000002b2     0a67     [ A0]   ZERO    .L2     B4                ; |96| 
    1031 000002b4 02990a62  ||         CMPGTDP .S2     B9:B8,B7:B6,B5    ; |90| 
    1032                    
    1033                            .dwpsn  file "./../packages/ti/vlib/src/VLIB_L2_norm_i8/VLIB_L2_norm_i8_d.c",line 108,column 1
    1034 000002b8 0400a35a             ZERO    .L2     B8                ; |108| 
    1035                    
    1036 000002c0 01901a59             CMPEQ   .L1X    B4,0,A3           ; |108| 
    1037 000002c4 0f942dda  ||         XOR     .L2     1,B5,B31          ; |90| 
    1038                    
    1039 000002c8 027c0a5a             CMPEQ   .L2     B31,0,B4          ; |108| 
    1040                    $C$DW$102       .dwtag  DW_TAG_TI_branch
    1041                            .dwattr $C$DW$102, DW_AT_low_pc(0x00)
    1042                            .dwattr $C$DW$102, DW_AT_name("VLIB_formula_add_test")
    1043                            .dwattr $C$DW$102, DW_AT_TI_call
    1044                    
    1045 000002cc 10000013!            CALLP   .S2     VLIB_formula_add_test,B3
TMS320C6x Assembler PC v7.4.2 Thu Mar 19 12:43:15 2015

Tools Copyright (c) 1996-2012 Texas Instruments Incorporated
package/lib/Regression/regress_d_c/./../packages/ti/vlib/src/VLIB_L2_norm_i8/VLIB_L2_norm_i8_d.se66 PAGE   20

    1046 000002d0 02386265  ||         LDW     .D1T1   *+A14(12),A4      ; |108| 
    1047 000002d4 030c9ffb  ||         OR      .L2X    A3,B4,B6          ; |108| 
    1048 000002d8     1a77  ||         ZERO    .D2     B4                ; |108| 
    1049 000002da     0726  ||         ZERO    .L1     A6                ; |108| 
    1050 000002e0 043c06a0  ||         MV      .S1     A15,A8            ; |108| 
    1051                    
    1052 000002e4           $C$RL15:   ; CALL OCCURS {VLIB_formula_add_test} {0}  ; |108| 
    1053 000002e4           $C$DW$L$VLIB_L2_norm_i8_d$10$E:
    1054                    ;** --------------------------------------------------------------------------*
    1055 000002e4           $C$DW$L$VLIB_L2_norm_i8_d$11$B:
    1056                    ;          EXCLUSIVE CPU CYCLES: 6
    1057                            .dwpsn  file "./../packages/ti/vlib/src/VLIB_L2_norm_i8/VLIB_L2_norm_i8_d.c",line 110,column 9
    1058 000002e4 00000610             B       .S1     $C$L3             ; |110| 
    1059                            .dwpsn  file "./../packages/ti/vlib/src/VLIB_L2_norm_i8/VLIB_L2_norm_i8_d.c",line 118,column 9
    1060                    $C$DW$103       .dwtag  DW_TAG_TI_branch
    1061                            .dwattr $C$DW$103, DW_AT_low_pc(0x00)
    1062                            .dwattr $C$DW$103, DW_AT_name("VLIB_free")
    1063                            .dwattr $C$DW$103, DW_AT_TI_call
    1064 000002e8 00000010!            CALL    .S1     VLIB_free         ; |118| 
    1065 000002ec 00006000             NOP             4
    1066                            .dwpsn  file "./../packages/ti/vlib/src/VLIB_L2_norm_i8/VLIB_L2_norm_i8_d.c",line 110,column 9
    1067                               ; BRANCH OCCURS {$C$L3}           ; |110| 
    1068 000002f0           $C$DW$L$VLIB_L2_norm_i8_d$11$E:
    1069                    ;** --------------------------------------------------------------------------*
    1070 000002f0           $C$L2:    
    1071                            .dwpsn  file "./../packages/ti/vlib/src/VLIB_L2_norm_i8/VLIB_L2_norm_i8_d.c",line 65,column 9,
    1072 000002f0           $C$DW$L$VLIB_L2_norm_i8_d$12$B:
    1073                    ;          EXCLUSIVE CPU CYCLES: 3
    1074                    ;**     -----------------------g7:
    1075                    ;** 112 -----------------------    sprintf(K$70, (const char *)"len=%d", (*U$12).len);
    1076                    ;** 114 -----------------------    VLIB_skip_test(K$70);
    1077                            .dwpsn  file "./../packages/ti/vlib/src/VLIB_L2_norm_i8/VLIB_L2_norm_i8_d.c",line 112,column 1
    1078 000002f0     bc45             STW     .D2T2   B4,*+SP(4)        ; |112| 
    1079 000002f2     8786             MV      .L1     A15,A4            ; |112| 
    1080                    
    1081 000002f4 01880163             ADDKPC  .S2     $C$RL16,B3,0      ; |112| 
    1082 000002f8 01bc42f4  ||         STW     .D2T1   A3,*+SP(8)        ; |112| 
    1083                    
    1084                    $C$RL16:   ; CALL OCCURS {sprintf} {0}       ; |112| 
    1085                    $C$DW$L$VLIB_L2_norm_i8_d$12$E:
    1086                    ;** --------------------------------------------------------------------------*
    1087                    $C$DW$L$VLIB_L2_norm_i8_d$13$B:
    1088                    ;          EXCLUSIVE CPU CYCLES: 11
    1089                    $C$DW$104       .dwtag  DW_TAG_TI_branch
    1090                            .dwattr $C$DW$104, DW_AT_low_pc(0x00)
    1091                            .dwattr $C$DW$104, DW_AT_name("VLIB_skip_test")
    1092                            .dwattr $C$DW$104, DW_AT_TI_call
    1093                    
    1094 00000300 10000013!            CALLP   .S2     VLIB_skip_test,B3
    1095 00000304 023c0fd8  ||         MV      .L1     A15,A4            ; |114| 
    1096                    
    1097                            .dwpsn  file "./../packages/ti/vlib/src/VLIB_L2_norm_i8/VLIB_L2_norm_i8_d.c",line 114,column 1
    1098 00000308           $C$RL17:   ; CALL OCCURS {VLIB_skip_test} {0}  ; |114| 
    1099                            .dwpsn  file "./../packages/ti/vlib/src/VLIB_L2_norm_i8/VLIB_L2_norm_i8_d.c",line 118,column 9
    1100                    $C$DW$105       .dwtag  DW_TAG_TI_branch
TMS320C6x Assembler PC v7.4.2 Thu Mar 19 12:43:15 2015

Tools Copyright (c) 1996-2012 Texas Instruments Incorporated
package/lib/Regression/regress_d_c/./../packages/ti/vlib/src/VLIB_L2_norm_i8/VLIB_L2_norm_i8_d.se66 PAGE   21

    1101                            .dwattr $C$DW$105, DW_AT_low_pc(0x00)
    1102                            .dwattr $C$DW$105, DW_AT_name("VLIB_free")
    1103                            .dwattr $C$DW$105, DW_AT_TI_call
    1104 00000308 00000010!            CALL    .S1     VLIB_free         ; |118| 
    1105 0000030c 00006000             NOP             4
    1106 00000310           $C$DW$L$VLIB_L2_norm_i8_d$13$E:
    1107                    ;** --------------------------------------------------------------------------*
    1108 00000310           $C$L3:    
    1109                            .dwpsn  file "./../packages/ti/vlib/src/VLIB_L2_norm_i8/VLIB_L2_norm_i8_d.c",line 110,column 9
    1110 00000310           $C$DW$L$VLIB_L2_norm_i8_d$14$B:
    1111                    ;          EXCLUSIVE CPU CYCLES: 1
    1112                    ;**     -----------------------g8:
    1113                    ;** 118 -----------------------    VLIB_free((void *)pData);
    1114                    ;** 53  -----------------------    U$11 += 16;
    1115                    ;** 53  -----------------------    if ( test_cases > (++tpi) ) goto g3;
    1116                    
    1117 00000310 02341fd9             MV      .L1X    B13,A4            ; |118| 
    1118 00000314 01860162  ||         ADDKPC  .S2     $C$RL18,B3,0      ; |118| 
    1119                    
    1120                            .dwpsn  file "./../packages/ti/vlib/src/VLIB_L2_norm_i8/VLIB_L2_norm_i8_d.c",line 118,column 9
    1121 00000318           $C$RL18:   ; CALL OCCURS {VLIB_free} {0}     ; |118| 
    1122 00000318           $C$DW$L$VLIB_L2_norm_i8_d$14$E:
    1123                    ;** --------------------------------------------------------------------------*
    1124 00000318           $C$DW$L$VLIB_L2_norm_i8_d$15$B:
    1125                    ;          EXCLUSIVE CPU CYCLES: 14
    1126 00000318 01800028!            MVKL    .S1     test_cases,A3
    1127 0000031c 01800068!            MVKH    .S1     test_cases,A3
    1128                            .dwpsn  file "./../packages/ti/vlib/src/VLIB_L2_norm_i8/VLIB_L2_norm_i8_d.c",line 53,column 17
    1129 00000320 018c0264             LDW     .D1T1   *A3,A3            ; |53| 
    1130 00000324 05800852             ADDK    .S2     16,B11            ; |53| 
    1131 00000328 05ac2058             ADD     .L1     1,A11,A11         ; |53| 
    1132 0000032c 00002000             NOP             2
    1133 00000330 002c68f8             CMPGT   .L1     A3,A11,A0         ; |53| 
    1134 00000334 cf53a120     [ A0]   BNOP    .S1     $C$L1,5           ; |53| 
    1135                               ; BRANCHCC OCCURS {$C$L1}         ; |53| 
    1136 00000338           $C$DW$L$VLIB_L2_norm_i8_d$15$E:
    1137                    ;** --------------------------------------------------------------------------*
    1138 00000338           $C$L4:    
    1139                    ;          EXCLUSIVE CPU CYCLES: 8
    1140                    ;**     -----------------------g9:
    1141                    ;** 122 -----------------------    VLIB_profile_cycle_report(2, "N = len", "len");
    1142                    ;** 158 -----------------------    printf((const char *)"---------------------------------------------
    1143                    ;** 165 -----------------------    VLIB_stack_memory();  // [16]
    1144                    ;**     -----------------------    return;
    1145 00000338 0200002a!            MVKL    .S2     $C$SL5+0,B4
    1146                    
    1147 0000033c 03000029!            MVKL    .S1     $C$SL4+0,A6
    1148 00000340 0200006a! ||         MVKH    .S2     $C$SL5+0,B4
    1149                    
    1150                    $C$DW$106       .dwtag  DW_TAG_TI_branch
    1151                            .dwattr $C$DW$106, DW_AT_low_pc(0x00)
    1152                            .dwattr $C$DW$106, DW_AT_name("VLIB_profile_cycle_report")
    1153                            .dwattr $C$DW$106, DW_AT_TI_call
    1154                    
    1155 00000344 10000013!            CALLP   .S2     VLIB_profile_cycle_report,B3
TMS320C6x Assembler PC v7.4.2 Thu Mar 19 12:43:15 2015

Tools Copyright (c) 1996-2012 Texas Instruments Incorporated
package/lib/Regression/regress_d_c/./../packages/ti/vlib/src/VLIB_L2_norm_i8/VLIB_L2_norm_i8_d.se66 PAGE   22

    1156 00000348 03000069! ||         MVKH    .S1     $C$SL4+0,A6
    1157 0000034c 0208a358  ||         MVK     .L1     0x2,A4            ; |122| 
    1158                    
    1159                            .dwpsn  file "./../packages/ti/vlib/src/VLIB_L2_norm_i8/VLIB_L2_norm_i8_d.c",line 122,column 5
    1160 00000350           $C$RL19:   ; CALL OCCURS {VLIB_profile_cycle_report} {0}  ; |122| 
    1161                    ;** --------------------------------------------------------------------------*
    1162                    ;          EXCLUSIVE CPU CYCLES: 14
    1163 00000350 0200002a!            MVKL    .S2     $C$SL6+0,B4
    1164 00000354 0200006a!            MVKH    .S2     $C$SL6+0,B4
    1165                    $C$DW$107       .dwtag  DW_TAG_TI_branch
    1166                            .dwattr $C$DW$107, DW_AT_low_pc(0x00)
    1167                            .dwattr $C$DW$107, DW_AT_name("printf")
    1168                            .dwattr $C$DW$107, DW_AT_TI_call
    1169                    
    1170 00000358 10000013!            CALLP   .S2     printf,B3
    1171 0000035c 023c22f6  ||         STW     .D2T2   B4,*+SP(4)        ; |158| 
    1172                    
    1173                            .dwpsn  file ".\..\packages\ti\vlib\src\VLIB_L2_norm_i8\../common/VLIB_memory.h",line 158,colu
    1174                    $C$RL20:   ; CALL OCCURS {printf} {0}        ; |158| 
    1175                    $C$DW$108       .dwtag  DW_TAG_TI_branch
    1176                            .dwattr $C$DW$108, DW_AT_low_pc(0x00)
    1177                            .dwattr $C$DW$108, DW_AT_name("VLIB_stack_memory")
    1178                            .dwattr $C$DW$108, DW_AT_TI_call
    1179 00000360 10000012!            CALLP   .S2     VLIB_stack_memory,B3
    1180                            .dwpsn  file ".\..\packages\ti\vlib\src\VLIB_L2_norm_i8\../common/VLIB_memory.h",line 165,colu
    1181 00000364           $C$RL21:   ; CALL OCCURS {VLIB_stack_memory} {0}  ; |165| 
    1182                    ;** --------------------------------------------------------------------------*
    1183                    ;          EXCLUSIVE CPU CYCLES: 13
    1184                            .dwpsn  file "./../packages/ti/vlib/src/VLIB_L2_norm_i8/VLIB_L2_norm_i8_d.c",line 128,column 1
    1185 00000364 01bd12e6             LDW     .D2T2   *++SP(32),B3      ; |128| 
    1186                            .dwcfi  cfa_offset, 48
    1187                            .dwcfi  restore_reg, 19
    1188 00000368     c677             LDDW    .D2T1   *++SP,A13:A12
    1189                            .dwcfi  cfa_offset, 40
    1190                            .dwcfi  restore_reg, 13
    1191                            .dwcfi  restore_reg, 12
    1192 0000036a     c777             LDDW    .D2T1   *++SP,A15:A14
    1193                            .dwcfi  cfa_offset, 32
    1194                            .dwcfi  restore_reg, 15
    1195                            .dwcfi  restore_reg, 14
    1196 0000036c     d577             LDDW    .D2T2   *++SP,B11:B10
    1197                            .dwcfi  cfa_offset, 24
    1198                            .dwcfi  restore_reg, 27
    1199                            .dwcfi  restore_reg, 26
    1200 0000036e     d677             LDDW    .D2T2   *++SP,B13:B12
    1201                            .dwcfi  cfa_offset, 16
    1202                            .dwcfi  restore_reg, 29
    1203                            .dwcfi  restore_reg, 28
    1204 00000370     6577             LDW     .D2T1   *++SP(8),A10
    1205                            .dwcfi  cfa_offset, 8
    1206                            .dwcfi  restore_reg, 10
    1207 00000372     65f7             LDW     .D2T1   *++SP(8),A11      ; |128| 
    1208                            .dwcfi  cfa_offset, 0
    1209                            .dwcfi  restore_reg, 11
    1210                            .dwcfi  cfa_offset, 0
TMS320C6x Assembler PC v7.4.2 Thu Mar 19 12:43:15 2015

Tools Copyright (c) 1996-2012 Texas Instruments Incorporated
package/lib/Regression/regress_d_c/./../packages/ti/vlib/src/VLIB_L2_norm_i8/VLIB_L2_norm_i8_d.se66 PAGE   23

    1211                    $C$DW$109       .dwtag  DW_TAG_TI_branch
    1212                            .dwattr $C$DW$109, DW_AT_low_pc(0x00)
    1213                            .dwattr $C$DW$109, DW_AT_TI_return
    1214 00000374 008ca362             RETNOP  .S2     B3,5
    1215                               ; BRANCH OCCURS {B3}  
    1216                    
    1217                    $C$DW$110       .dwtag  DW_TAG_TI_loop
    1218                            .dwattr $C$DW$110, DW_AT_name("c:\nightlybuilds\vlib\ti\vlib\vlib\examples\package/lib/Regress
    1219                            .dwattr $C$DW$110, DW_AT_TI_begin_file("./../packages/ti/vlib/src/VLIB_L2_norm_i8/VLIB_L2_norm
    1220                            .dwattr $C$DW$110, DW_AT_TI_begin_line(0x35)
    1221                            .dwattr $C$DW$110, DW_AT_TI_end_line(0x77)
    1222                    $C$DW$111       .dwtag  DW_TAG_TI_loop_range
    1223                            .dwattr $C$DW$111, DW_AT_low_pc($C$DW$L$VLIB_L2_norm_i8_d$5$B)
    1224                            .dwattr $C$DW$111, DW_AT_high_pc($C$DW$L$VLIB_L2_norm_i8_d$5$E)
    1225                    $C$DW$112       .dwtag  DW_TAG_TI_loop_range
    1226                            .dwattr $C$DW$112, DW_AT_low_pc($C$DW$L$VLIB_L2_norm_i8_d$12$B)
    1227                            .dwattr $C$DW$112, DW_AT_high_pc($C$DW$L$VLIB_L2_norm_i8_d$12$E)
    1228                    $C$DW$113       .dwtag  DW_TAG_TI_loop_range
    1229                            .dwattr $C$DW$113, DW_AT_low_pc($C$DW$L$VLIB_L2_norm_i8_d$6$B)
    1230                            .dwattr $C$DW$113, DW_AT_high_pc($C$DW$L$VLIB_L2_norm_i8_d$6$E)
    1231                    $C$DW$114       .dwtag  DW_TAG_TI_loop_range
    1232                            .dwattr $C$DW$114, DW_AT_low_pc($C$DW$L$VLIB_L2_norm_i8_d$7$B)
    1233                            .dwattr $C$DW$114, DW_AT_high_pc($C$DW$L$VLIB_L2_norm_i8_d$7$E)
    1234                    $C$DW$115       .dwtag  DW_TAG_TI_loop_range
    1235                            .dwattr $C$DW$115, DW_AT_low_pc($C$DW$L$VLIB_L2_norm_i8_d$8$B)
    1236                            .dwattr $C$DW$115, DW_AT_high_pc($C$DW$L$VLIB_L2_norm_i8_d$8$E)
    1237                    $C$DW$116       .dwtag  DW_TAG_TI_loop_range
    1238                            .dwattr $C$DW$116, DW_AT_low_pc($C$DW$L$VLIB_L2_norm_i8_d$9$B)
    1239                            .dwattr $C$DW$116, DW_AT_high_pc($C$DW$L$VLIB_L2_norm_i8_d$9$E)
    1240                    $C$DW$117       .dwtag  DW_TAG_TI_loop_range
    1241                            .dwattr $C$DW$117, DW_AT_low_pc($C$DW$L$VLIB_L2_norm_i8_d$10$B)
    1242                            .dwattr $C$DW$117, DW_AT_high_pc($C$DW$L$VLIB_L2_norm_i8_d$10$E)
    1243                    $C$DW$118       .dwtag  DW_TAG_TI_loop_range
    1244                            .dwattr $C$DW$118, DW_AT_low_pc($C$DW$L$VLIB_L2_norm_i8_d$11$B)
    1245                            .dwattr $C$DW$118, DW_AT_high_pc($C$DW$L$VLIB_L2_norm_i8_d$11$E)
    1246                    $C$DW$119       .dwtag  DW_TAG_TI_loop_range
    1247                            .dwattr $C$DW$119, DW_AT_low_pc($C$DW$L$VLIB_L2_norm_i8_d$13$B)
    1248                            .dwattr $C$DW$119, DW_AT_high_pc($C$DW$L$VLIB_L2_norm_i8_d$13$E)
    1249                    $C$DW$120       .dwtag  DW_TAG_TI_loop_range
    1250                            .dwattr $C$DW$120, DW_AT_low_pc($C$DW$L$VLIB_L2_norm_i8_d$14$B)
    1251                            .dwattr $C$DW$120, DW_AT_high_pc($C$DW$L$VLIB_L2_norm_i8_d$14$E)
    1252                    $C$DW$121       .dwtag  DW_TAG_TI_loop_range
    1253                            .dwattr $C$DW$121, DW_AT_low_pc($C$DW$L$VLIB_L2_norm_i8_d$15$B)
    1254                            .dwattr $C$DW$121, DW_AT_high_pc($C$DW$L$VLIB_L2_norm_i8_d$15$E)
    1255                            .dwendtag $C$DW$110
    1256                    
    1257                            .dwattr $C$DW$64, DW_AT_TI_end_file("./../packages/ti/vlib/src/VLIB_L2_norm_i8/VLIB_L2_norm_i8
    1258                            .dwattr $C$DW$64, DW_AT_TI_end_line(0x80)
    1259                            .dwattr $C$DW$64, DW_AT_TI_end_column(0x01)
    1260                            .dwendentry
    1261                            .dwendtag $C$DW$64
    1262                    
    1263                    ;; Inlined function references:
    1264                    ;; [ 13] VLIB_profile_start
    1265                    ;; [ 14] VLIB_profile_stop
TMS320C6x Assembler PC v7.4.2 Thu Mar 19 12:43:15 2015

Tools Copyright (c) 1996-2012 Texas Instruments Incorporated
package/lib/Regression/regress_d_c/./../packages/ti/vlib/src/VLIB_L2_norm_i8/VLIB_L2_norm_i8_d.se66 PAGE   24

    1266                    ;; [ 16] VLIB_kernel_memory
    1267                    ;******************************************************************************
    1268                    ;* STRINGS                                                                    *
    1269                    ;******************************************************************************
    1270 00000000                   .sect   ".const:.string"
    1271 00000000 00000056  $C$SL1: .string "VLIB_L2_norm_i8",0
         00000001 0000004C 
         00000002 00000049 
         00000003 00000042 
         00000004 0000005F 
         00000005 0000004C 
         00000006 00000032 
         00000007 0000005F 
         00000008 0000006E 
         00000009 0000006F 
         0000000a 00000072 
         0000000b 0000006D 
         0000000c 0000005F 
         0000000d 00000069 
         0000000e 00000038 
         0000000f 00000000 
    1272 00000010 00000025  $C$SL2: .string "%s generated input | Opt results compared to NatC results |"
         00000011 00000073 
         00000012 00000020 
         00000013 00000067 
         00000014 00000065 
         00000015 0000006E 
         00000016 00000065 
         00000017 00000072 
         00000018 00000061 
         00000019 00000074 
         0000001a 00000065 
         0000001b 00000064 
         0000001c 00000020 
         0000001d 00000069 
         0000001e 0000006E 
         0000001f 00000070 
         00000020 00000075 
         00000021 00000074 
         00000022 00000020 
         00000023 0000007C 
         00000024 00000020 
         00000025 0000004F 
         00000026 00000070 
         00000027 00000074 
         00000028 00000020 
         00000029 00000072 
         0000002a 00000065 
         0000002b 00000073 
         0000002c 00000075 
         0000002d 0000006C 
         0000002e 00000074 
         0000002f 00000073 
         00000030 00000020 
         00000031 00000063 
TMS320C6x Assembler PC v7.4.2 Thu Mar 19 12:43:15 2015

Tools Copyright (c) 1996-2012 Texas Instruments Incorporated
package/lib/Regression/regress_d_c/./../packages/ti/vlib/src/VLIB_L2_norm_i8/VLIB_L2_norm_i8_d.se66 PAGE   25

         00000032 0000006F 
         00000033 0000006D 
         00000034 00000070 
         00000035 00000061 
         00000036 00000072 
         00000037 00000065 
         00000038 00000064 
         00000039 00000020 
         0000003a 00000074 
         0000003b 0000006F 
         0000003c 00000020 
         0000003d 0000004E 
         0000003e 00000061 
         0000003f 00000074 
         00000040 00000043 
         00000041 00000020 
         00000042 00000072 
         00000043 00000065 
         00000044 00000073 
         00000045 00000075 
         00000046 0000006C 
         00000047 00000074 
         00000048 00000073 
         00000049 00000020 
         0000004a 0000007C 
    1273 0000004b 00000020          .string " len=%d",0
         0000004c 0000006C 
         0000004d 00000065 
         0000004e 0000006E 
         0000004f 0000003D 
         00000050 00000025 
         00000051 00000064 
         00000052 00000000 
    1274 00000053 0000006C  $C$SL3: .string "len=%d",0
         00000054 00000065 
         00000055 0000006E 
         00000056 0000003D 
         00000057 00000025 
         00000058 00000064 
         00000059 00000000 
    1275 0000005a 0000006C  $C$SL4: .string "len",0
         0000005b 00000065 
         0000005c 0000006E 
         0000005d 00000000 
    1276 0000005e 0000004E  $C$SL5: .string "N = len",0
         0000005f 00000020 
         00000060 0000003D 
         00000061 00000020 
         00000062 0000006C 
         00000063 00000065 
         00000064 0000006E 
         00000065 00000000 
    1277 00000066 0000002D  $C$SL6: .string "-----------------------------------------------------------"
         00000067 0000002D 
         00000068 0000002D 
TMS320C6x Assembler PC v7.4.2 Thu Mar 19 12:43:15 2015

Tools Copyright (c) 1996-2012 Texas Instruments Incorporated
package/lib/Regression/regress_d_c/./../packages/ti/vlib/src/VLIB_L2_norm_i8/VLIB_L2_norm_i8_d.se66 PAGE   26

         00000069 0000002D 
         0000006a 0000002D 
         0000006b 0000002D 
         0000006c 0000002D 
         0000006d 0000002D 
         0000006e 0000002D 
         0000006f 0000002D 
         00000070 0000002D 
         00000071 0000002D 
         00000072 0000002D 
         00000073 0000002D 
         00000074 0000002D 
         00000075 0000002D 
         00000076 0000002D 
         00000077 0000002D 
         00000078 0000002D 
         00000079 0000002D 
         0000007a 0000002D 
         0000007b 0000002D 
         0000007c 0000002D 
         0000007d 0000002D 
         0000007e 0000002D 
         0000007f 0000002D 
         00000080 0000002D 
         00000081 0000002D 
         00000082 0000002D 
         00000083 0000002D 
         00000084 0000002D 
         00000085 0000002D 
         00000086 0000002D 
         00000087 0000002D 
         00000088 0000002D 
         00000089 0000002D 
         0000008a 0000002D 
         0000008b 0000002D 
         0000008c 0000002D 
         0000008d 0000002D 
         0000008e 0000002D 
         0000008f 0000002D 
         00000090 0000002D 
         00000091 0000002D 
         00000092 0000002D 
         00000093 0000002D 
         00000094 0000002D 
         00000095 0000002D 
         00000096 0000002D 
         00000097 0000002D 
         00000098 0000002D 
         00000099 0000002D 
         0000009a 0000002D 
         0000009b 0000002D 
         0000009c 0000002D 
         0000009d 0000002D 
         0000009e 0000002D 
         0000009f 0000002D 
TMS320C6x Assembler PC v7.4.2 Thu Mar 19 12:43:15 2015

Tools Copyright (c) 1996-2012 Texas Instruments Incorporated
package/lib/Regression/regress_d_c/./../packages/ti/vlib/src/VLIB_L2_norm_i8/VLIB_L2_norm_i8_d.se66 PAGE   27

         000000a0 0000002D 
    1278 000000a1 0000002D          .string "-----------------------------------------------------------"
         000000a2 0000002D 
         000000a3 0000002D 
         000000a4 0000002D 
         000000a5 0000002D 
         000000a6 0000002D 
         000000a7 0000002D 
         000000a8 0000002D 
         000000a9 0000002D 
         000000aa 0000002D 
         000000ab 0000002D 
         000000ac 0000002D 
         000000ad 0000002D 
         000000ae 0000002D 
         000000af 0000002D 
         000000b0 0000002D 
         000000b1 0000002D 
         000000b2 0000002D 
         000000b3 0000002D 
         000000b4 0000002D 
         000000b5 0000002D 
         000000b6 0000002D 
         000000b7 0000002D 
         000000b8 0000002D 
         000000b9 0000002D 
         000000ba 0000002D 
         000000bb 0000002D 
         000000bc 0000002D 
         000000bd 0000002D 
         000000be 0000002D 
         000000bf 0000002D 
         000000c0 0000002D 
         000000c1 0000002D 
         000000c2 0000002D 
         000000c3 0000002D 
         000000c4 0000002D 
         000000c5 0000002D 
         000000c6 0000002D 
         000000c7 0000002D 
         000000c8 0000002D 
         000000c9 0000002D 
         000000ca 0000002D 
         000000cb 0000002D 
         000000cc 0000002D 
         000000cd 0000002D 
         000000ce 0000002D 
         000000cf 0000002D 
         000000d0 0000002D 
         000000d1 0000002D 
         000000d2 0000002D 
         000000d3 0000002D 
         000000d4 0000002D 
         000000d5 0000002D 
         000000d6 0000002D 
TMS320C6x Assembler PC v7.4.2 Thu Mar 19 12:43:15 2015

Tools Copyright (c) 1996-2012 Texas Instruments Incorporated
package/lib/Regression/regress_d_c/./../packages/ti/vlib/src/VLIB_L2_norm_i8/VLIB_L2_norm_i8_d.se66 PAGE   28

         000000d7 0000002D 
         000000d8 0000002D 
         000000d9 0000002D 
         000000da 0000002D 
         000000db 0000002D 
    1279 000000dc 0000002D          .string "-----------------------",10,0
         000000dd 0000002D 
         000000de 0000002D 
         000000df 0000002D 
         000000e0 0000002D 
         000000e1 0000002D 
         000000e2 0000002D 
         000000e3 0000002D 
         000000e4 0000002D 
         000000e5 0000002D 
         000000e6 0000002D 
         000000e7 0000002D 
         000000e8 0000002D 
         000000e9 0000002D 
         000000ea 0000002D 
         000000eb 0000002D 
         000000ec 0000002D 
         000000ed 0000002D 
         000000ee 0000002D 
         000000ef 0000002D 
         000000f0 0000002D 
         000000f1 0000002D 
         000000f2 0000002D 
         000000f3 0000000A 
         000000f4 00000000 
    1280                    ;*****************************************************************************
    1281                    ;* UNDEFINED EXTERNAL REFERENCES                                             *
    1282                    ;*****************************************************************************
    1283                            .global printf
    1284                            .global sprintf
    1285                            .global VLIB_cache_inval
    1286                            .global VLIB_profile_init
    1287                            .global VLIB_formula_add_test
    1288                            .global VLIB_skip_test
    1289                            .global VLIB_profile_cycle_report
    1290                            .global initStack
    1291                            .global setStackDepth
    1292                            .global getSP
    1293                            .global VLIB_stack_memory
    1294                            .global VLIB_fillBuffer
    1295                            .global VLIB_malloc
    1296                            .global VLIB_free
    1297                            .global VLIB_L2_norm_i8
    1298                            .global L2_norm_i8_getTestParams
    1299                            .global test_cases
    1300                            .global act_kernel
    1301                            .global desc
    1302                            .global testPatternString
    1303                            .global est_test
    1304                            .global beg_count
TMS320C6x Assembler PC v7.4.2 Thu Mar 19 12:43:15 2015

Tools Copyright (c) 1996-2012 Texas Instruments Incorporated
package/lib/Regression/regress_d_c/./../packages/ti/vlib/src/VLIB_L2_norm_i8/VLIB_L2_norm_i8_d.se66 PAGE   29

    1305                            .global end_count
    1306                            .global overhead
    1307                            .global cycles
    1308                    
    1309                    ;******************************************************************************
    1310                    ;* BUILD ATTRIBUTES                                                           *
    1311                    ;******************************************************************************
    1312                            .battr "TI", Tag_File, 1, Tag_Long_Precision_Bits(2)
    1313                            .battr "TI", Tag_File, 1, Tag_Bitfield_layout(2)
    1314                            .battr "TI", Tag_File, 1, Tag_ABI_enum_size(2)
    1315                            .battr "c6xabi", Tag_File, 1, Tag_ABI_wchar_t(1)
    1316                            .battr "c6xabi", Tag_File, 1, Tag_ABI_array_object_alignment(0)
    1317                            .battr "c6xabi", Tag_File, 1, Tag_ABI_array_object_align_expected(0)
    1318                            .battr "c6xabi", Tag_File, 1, Tag_ABI_PIC(0)
    1319                            .battr "c6xabi", Tag_File, 1, Tag_ABI_PID(0)
    1320                            .battr "c6xabi", Tag_File, 1, Tag_ABI_DSBT(0)
    1321                            .battr "c6xabi", Tag_File, 1, Tag_ABI_stack_align_needed(0)
    1322                            .battr "c6xabi", Tag_File, 1, Tag_ABI_stack_align_preserved(0)
    1323                            .battr "TI", Tag_File, 1, Tag_Tramps_Use_SOC(1)
    1324                    
    1325                    ;******************************************************************************
    1326                    ;* TYPE INFORMATION                                                           *
    1327                    ;******************************************************************************
    1328                    
    1329                    $C$DW$T$36      .dwtag  DW_TAG_enumeration_type
    1330                            .dwattr $C$DW$T$36, DW_AT_byte_size(0x04)
    1331                    $C$DW$122       .dwtag  DW_TAG_enumerator, DW_AT_name("VLIB_NO_ERROR"), DW_AT_const_value(0x00)
    1332                            .dwattr $C$DW$122, DW_AT_decl_file(".\..\packages\ti\vlib\src\VLIB_L2_norm_i8\..\common\c66/VL
    1333                            .dwattr $C$DW$122, DW_AT_decl_line(0x7a)
    1334                            .dwattr $C$DW$122, DW_AT_decl_column(0x05)
    1335                    $C$DW$123       .dwtag  DW_TAG_enumerator, DW_AT_name("VLIB_ERR_INPUT_INVALID"), DW_AT_const_value(0x0
    1336                            .dwattr $C$DW$123, DW_AT_decl_file(".\..\packages\ti\vlib\src\VLIB_L2_norm_i8\..\common\c66/VL
    1337                            .dwattr $C$DW$123, DW_AT_decl_line(0x7b)
    1338                            .dwattr $C$DW$123, DW_AT_decl_column(0x05)
    1339                    $C$DW$124       .dwtag  DW_TAG_enumerator, DW_AT_name("VLIB_ERR_INPUT_NEGATIVE"), DW_AT_const_value(0x
    1340                            .dwattr $C$DW$124, DW_AT_decl_file(".\..\packages\ti\vlib\src\VLIB_L2_norm_i8\..\common\c66/VL
    1341                            .dwattr $C$DW$124, DW_AT_decl_line(0x7c)
    1342                            .dwattr $C$DW$124, DW_AT_decl_column(0x05)
    1343                    $C$DW$125       .dwtag  DW_TAG_enumerator, DW_AT_name("VLIB_ERR_INPUT_EXCEEDED_RANGE"), DW_AT_const_va
    1344                            .dwattr $C$DW$125, DW_AT_decl_file(".\..\packages\ti\vlib\src\VLIB_L2_norm_i8\..\common\c66/VL
    1345                            .dwattr $C$DW$125, DW_AT_decl_line(0x7d)
    1346                            .dwattr $C$DW$125, DW_AT_decl_column(0x05)
    1347                    $C$DW$126       .dwtag  DW_TAG_enumerator, DW_AT_name("VLIB_ERR_MEMORY_EXCEEDED_BOUNDARY"), DW_AT_cons
    1348                            .dwattr $C$DW$126, DW_AT_decl_file(".\..\packages\ti\vlib\src\VLIB_L2_norm_i8\..\common\c66/VL
    1349                            .dwattr $C$DW$126, DW_AT_decl_line(0x7e)
    1350                            .dwattr $C$DW$126, DW_AT_decl_column(0x05)
    1351                    $C$DW$127       .dwtag  DW_TAG_enumerator, DW_AT_name("VLIB_ERR_MEMORY_ALLOCATION_FAILURE"), DW_AT_con
    1352                            .dwattr $C$DW$127, DW_AT_decl_file(".\..\packages\ti\vlib\src\VLIB_L2_norm_i8\..\common\c66/VL
    1353                            .dwattr $C$DW$127, DW_AT_decl_line(0x7f)
    1354                            .dwattr $C$DW$127, DW_AT_decl_column(0x05)
    1355                    $C$DW$128       .dwtag  DW_TAG_enumerator, DW_AT_name("VLIB_ERR_MEMORY_POINTER_NULL"), DW_AT_const_val
    1356                            .dwattr $C$DW$128, DW_AT_decl_file(".\..\packages\ti\vlib\src\VLIB_L2_norm_i8\..\common\c66/VL
    1357                            .dwattr $C$DW$128, DW_AT_decl_line(0x80)
    1358                            .dwattr $C$DW$128, DW_AT_decl_column(0x05)
    1359                    $C$DW$129       .dwtag  DW_TAG_enumerator, DW_AT_name("VLIB_ERR_DMA_FAILURE"), DW_AT_const_value(0x07)
TMS320C6x Assembler PC v7.4.2 Thu Mar 19 12:43:15 2015

Tools Copyright (c) 1996-2012 Texas Instruments Incorporated
package/lib/Regression/regress_d_c/./../packages/ti/vlib/src/VLIB_L2_norm_i8/VLIB_L2_norm_i8_d.se66 PAGE   30

    1360                            .dwattr $C$DW$129, DW_AT_decl_file(".\..\packages\ti\vlib\src\VLIB_L2_norm_i8\..\common\c66/VL
    1361                            .dwattr $C$DW$129, DW_AT_decl_line(0x81)
    1362                            .dwattr $C$DW$129, DW_AT_decl_column(0x05)
    1363                    $C$DW$130       .dwtag  DW_TAG_enumerator, DW_AT_name("VLIB_ERR_FILE_OPEN_FAILURE"), DW_AT_const_value
    1364                            .dwattr $C$DW$130, DW_AT_decl_file(".\..\packages\ti\vlib\src\VLIB_L2_norm_i8\..\common\c66/VL
    1365                            .dwattr $C$DW$130, DW_AT_decl_line(0x82)
    1366                            .dwattr $C$DW$130, DW_AT_decl_column(0x05)
    1367                    $C$DW$131       .dwtag  DW_TAG_enumerator, DW_AT_name("VLIB_ERR_FILE_READ_FAILURE"), DW_AT_const_value
    1368                            .dwattr $C$DW$131, DW_AT_decl_file(".\..\packages\ti\vlib\src\VLIB_L2_norm_i8\..\common\c66/VL
    1369                            .dwattr $C$DW$131, DW_AT_decl_line(0x83)
    1370                            .dwattr $C$DW$131, DW_AT_decl_column(0x05)
    1371                    $C$DW$132       .dwtag  DW_TAG_enumerator, DW_AT_name("VLIB_ERR_FILE_WRITE_FAILURE"), DW_AT_const_valu
    1372                            .dwattr $C$DW$132, DW_AT_decl_file(".\..\packages\ti\vlib\src\VLIB_L2_norm_i8\..\common\c66/VL
    1373                            .dwattr $C$DW$132, DW_AT_decl_line(0x84)
    1374                            .dwattr $C$DW$132, DW_AT_decl_column(0x05)
    1375                    $C$DW$133       .dwtag  DW_TAG_enumerator, DW_AT_name("VLIB_ERR_FILE_CLOSE_FAILURE"), DW_AT_const_valu
    1376                            .dwattr $C$DW$133, DW_AT_decl_file(".\..\packages\ti\vlib\src\VLIB_L2_norm_i8\..\common\c66/VL
    1377                            .dwattr $C$DW$133, DW_AT_decl_line(0x85)
    1378                            .dwattr $C$DW$133, DW_AT_decl_column(0x05)
    1379                    $C$DW$134       .dwtag  DW_TAG_enumerator, DW_AT_name("VLIB_ERR_FILE_FORMAT_FAILURE"), DW_AT_const_val
    1380                            .dwattr $C$DW$134, DW_AT_decl_file(".\..\packages\ti\vlib\src\VLIB_L2_norm_i8\..\common\c66/VL
    1381                            .dwattr $C$DW$134, DW_AT_decl_line(0x86)
    1382                            .dwattr $C$DW$134, DW_AT_decl_column(0x05)
    1383                    $C$DW$135       .dwtag  DW_TAG_enumerator, DW_AT_name("VLIB_WARNING_LOW_MEMORY"), DW_AT_const_value(0x
    1384                            .dwattr $C$DW$135, DW_AT_decl_file(".\..\packages\ti\vlib\src\VLIB_L2_norm_i8\..\common\c66/VL
    1385                            .dwattr $C$DW$135, DW_AT_decl_line(0x87)
    1386                            .dwattr $C$DW$135, DW_AT_decl_column(0x05)
    1387                    $C$DW$136       .dwtag  DW_TAG_enumerator, DW_AT_name("VLIB_ERR_NOT_IMPLEMENTED"), DW_AT_const_value(0
    1388                            .dwattr $C$DW$136, DW_AT_decl_file(".\..\packages\ti\vlib\src\VLIB_L2_norm_i8\..\common\c66/VL
    1389                            .dwattr $C$DW$136, DW_AT_decl_line(0x88)
    1390                            .dwattr $C$DW$136, DW_AT_decl_column(0x05)
    1391                    $C$DW$137       .dwtag  DW_TAG_enumerator, DW_AT_name("VLIB_ERROR_MAX"), DW_AT_const_value(0x0f)
    1392                            .dwattr $C$DW$137, DW_AT_decl_file(".\..\packages\ti\vlib\src\VLIB_L2_norm_i8\..\common\c66/VL
    1393                            .dwattr $C$DW$137, DW_AT_decl_line(0x89)
    1394                            .dwattr $C$DW$137, DW_AT_decl_column(0x05)
    1395                            .dwendtag $C$DW$T$36
    1396                    
    1397                            .dwattr $C$DW$T$36, DW_AT_decl_file(".\..\packages\ti\vlib\src\VLIB_L2_norm_i8\..\common\c66/V
    1398                            .dwattr $C$DW$T$36, DW_AT_decl_line(0x79)
    1399                            .dwattr $C$DW$T$36, DW_AT_decl_column(0x0e)
    1400                    $C$DW$T$37      .dwtag  DW_TAG_typedef, DW_AT_name("VLIB_STATUS")
    1401                            .dwattr $C$DW$T$37, DW_AT_type(*$C$DW$T$36)
    1402                            .dwattr $C$DW$T$37, DW_AT_language(DW_LANG_C)
    1403                            .dwattr $C$DW$T$37, DW_AT_decl_file(".\..\packages\ti\vlib\src\VLIB_L2_norm_i8\..\common\c66/V
    1404                            .dwattr $C$DW$T$37, DW_AT_decl_line(0x8a)
    1405                            .dwattr $C$DW$T$37, DW_AT_decl_column(0x03)
    1406                    
    1407                    $C$DW$T$38      .dwtag  DW_TAG_enumeration_type
    1408                            .dwattr $C$DW$T$38, DW_AT_byte_size(0x04)
    1409                    $C$DW$138       .dwtag  DW_TAG_enumerator, DW_AT_name("vlib_KERNEL_OPT"), DW_AT_const_value(0x00)
    1410                            .dwattr $C$DW$138, DW_AT_decl_file(".\..\packages\ti\vlib\src\VLIB_L2_norm_i8\../common/VLIB_t
    1411                            .dwattr $C$DW$138, DW_AT_decl_line(0x6a)
    1412                            .dwattr $C$DW$138, DW_AT_decl_column(0x05)
    1413                    $C$DW$139       .dwtag  DW_TAG_enumerator, DW_AT_name("vlib_KERNEL_CN"), DW_AT_const_value(0x01)
    1414                            .dwattr $C$DW$139, DW_AT_decl_file(".\..\packages\ti\vlib\src\VLIB_L2_norm_i8\../common/VLIB_t
TMS320C6x Assembler PC v7.4.2 Thu Mar 19 12:43:15 2015

Tools Copyright (c) 1996-2012 Texas Instruments Incorporated
package/lib/Regression/regress_d_c/./../packages/ti/vlib/src/VLIB_L2_norm_i8/VLIB_L2_norm_i8_d.se66 PAGE   31

    1415                            .dwattr $C$DW$139, DW_AT_decl_line(0x6b)
    1416                            .dwattr $C$DW$139, DW_AT_decl_column(0x05)
    1417                    $C$DW$140       .dwtag  DW_TAG_enumerator, DW_AT_name("vlib_KERNEL_CNT"), DW_AT_const_value(0x02)
    1418                            .dwattr $C$DW$140, DW_AT_decl_file(".\..\packages\ti\vlib\src\VLIB_L2_norm_i8\../common/VLIB_t
    1419                            .dwattr $C$DW$140, DW_AT_decl_line(0x6c)
    1420                            .dwattr $C$DW$140, DW_AT_decl_column(0x05)
    1421                            .dwendtag $C$DW$T$38
    1422                    
    1423                            .dwattr $C$DW$T$38, DW_AT_decl_file(".\..\packages\ti\vlib\src\VLIB_L2_norm_i8\../common/VLIB_
    1424                            .dwattr $C$DW$T$38, DW_AT_decl_line(0x69)
    1425                            .dwattr $C$DW$T$38, DW_AT_decl_column(0x06)
    1426                    
    1427                    $C$DW$T$39      .dwtag  DW_TAG_enumeration_type
    1428                            .dwattr $C$DW$T$39, DW_AT_byte_size(0x04)
    1429                    $C$DW$141       .dwtag  DW_TAG_enumerator, DW_AT_name("vlib_KERNEL_FAIL"), DW_AT_const_value(0x00)
    1430                            .dwattr $C$DW$141, DW_AT_decl_file(".\..\packages\ti\vlib\src\VLIB_L2_norm_i8\../common/VLIB_t
    1431                            .dwattr $C$DW$141, DW_AT_decl_line(0x72)
    1432                            .dwattr $C$DW$141, DW_AT_decl_column(0x05)
    1433                    $C$DW$142       .dwtag  DW_TAG_enumerator, DW_AT_name("vlib_KERNEL_PASS"), DW_AT_const_value(0x01)
    1434                            .dwattr $C$DW$142, DW_AT_decl_file(".\..\packages\ti\vlib\src\VLIB_L2_norm_i8\../common/VLIB_t
    1435                            .dwattr $C$DW$142, DW_AT_decl_line(0x73)
    1436                            .dwattr $C$DW$142, DW_AT_decl_column(0x05)
    1437                            .dwendtag $C$DW$T$39
    1438                    
    1439                            .dwattr $C$DW$T$39, DW_AT_decl_file(".\..\packages\ti\vlib\src\VLIB_L2_norm_i8\../common/VLIB_
    1440                            .dwattr $C$DW$T$39, DW_AT_decl_line(0x71)
    1441                            .dwattr $C$DW$T$39, DW_AT_decl_column(0x06)
    1442                    
    1443                    $C$DW$T$23      .dwtag  DW_TAG_structure_type
    1444                            .dwattr $C$DW$T$23, DW_AT_byte_size(0x10)
    1445                    $C$DW$143       .dwtag  DW_TAG_member
    1446                            .dwattr $C$DW$143, DW_AT_type(*$C$DW$T$19)
    1447                            .dwattr $C$DW$143, DW_AT_name("testPattern")
    1448                            .dwattr $C$DW$143, DW_AT_TI_symbol_name("testPattern")
    1449                            .dwattr $C$DW$143, DW_AT_data_member_location[DW_OP_plus_uconst 0x0]
    1450                            .dwattr $C$DW$143, DW_AT_accessibility(DW_ACCESS_public)
    1451                            .dwattr $C$DW$143, DW_AT_decl_file(".\..\packages\ti\vlib\src\VLIB_L2_norm_i8\VLIB_L2_norm_i8_
    1452                            .dwattr $C$DW$143, DW_AT_decl_line(0x24)
    1453                            .dwattr $C$DW$143, DW_AT_decl_column(0x0e)
    1454                    $C$DW$144       .dwtag  DW_TAG_member
    1455                            .dwattr $C$DW$144, DW_AT_type(*$C$DW$T$20)
    1456                            .dwattr $C$DW$144, DW_AT_name("staticIn")
    1457                            .dwattr $C$DW$144, DW_AT_TI_symbol_name("staticIn")
    1458                            .dwattr $C$DW$144, DW_AT_data_member_location[DW_OP_plus_uconst 0x4]
    1459                            .dwattr $C$DW$144, DW_AT_accessibility(DW_ACCESS_public)
    1460                            .dwattr $C$DW$144, DW_AT_decl_file(".\..\packages\ti\vlib\src\VLIB_L2_norm_i8\VLIB_L2_norm_i8_
    1461                            .dwattr $C$DW$144, DW_AT_decl_line(0x25)
    1462                            .dwattr $C$DW$144, DW_AT_decl_column(0x0e)
    1463                    $C$DW$145       .dwtag  DW_TAG_member
    1464                            .dwattr $C$DW$145, DW_AT_type(*$C$DW$T$21)
    1465                            .dwattr $C$DW$145, DW_AT_name("staticOut")
    1466                            .dwattr $C$DW$145, DW_AT_TI_symbol_name("staticOut")
    1467                            .dwattr $C$DW$145, DW_AT_data_member_location[DW_OP_plus_uconst 0x8]
    1468                            .dwattr $C$DW$145, DW_AT_accessibility(DW_ACCESS_public)
    1469                            .dwattr $C$DW$145, DW_AT_decl_file(".\..\packages\ti\vlib\src\VLIB_L2_norm_i8\VLIB_L2_norm_i8_
TMS320C6x Assembler PC v7.4.2 Thu Mar 19 12:43:15 2015

Tools Copyright (c) 1996-2012 Texas Instruments Incorporated
package/lib/Regression/regress_d_c/./../packages/ti/vlib/src/VLIB_L2_norm_i8/VLIB_L2_norm_i8_d.se66 PAGE   32

    1470                            .dwattr $C$DW$145, DW_AT_decl_line(0x26)
    1471                            .dwattr $C$DW$145, DW_AT_decl_column(0x0e)
    1472                    $C$DW$146       .dwtag  DW_TAG_member
    1473                            .dwattr $C$DW$146, DW_AT_type(*$C$DW$T$22)
    1474                            .dwattr $C$DW$146, DW_AT_name("len")
    1475                            .dwattr $C$DW$146, DW_AT_TI_symbol_name("len")
    1476                            .dwattr $C$DW$146, DW_AT_data_member_location[DW_OP_plus_uconst 0xc]
    1477                            .dwattr $C$DW$146, DW_AT_accessibility(DW_ACCESS_public)
    1478                            .dwattr $C$DW$146, DW_AT_decl_file(".\..\packages\ti\vlib\src\VLIB_L2_norm_i8\VLIB_L2_norm_i8_
    1479                            .dwattr $C$DW$146, DW_AT_decl_line(0x27)
    1480                            .dwattr $C$DW$146, DW_AT_decl_column(0x0e)
    1481                            .dwendtag $C$DW$T$23
    1482                    
    1483                            .dwattr $C$DW$T$23, DW_AT_decl_file(".\..\packages\ti\vlib\src\VLIB_L2_norm_i8\VLIB_L2_norm_i8
    1484                            .dwattr $C$DW$T$23, DW_AT_decl_line(0x23)
    1485                            .dwattr $C$DW$T$23, DW_AT_decl_column(0x10)
    1486                    $C$DW$T$40      .dwtag  DW_TAG_typedef, DW_AT_name("L2_norm_i8_testParams_t")
    1487                            .dwattr $C$DW$T$40, DW_AT_type(*$C$DW$T$23)
    1488                            .dwattr $C$DW$T$40, DW_AT_language(DW_LANG_C)
    1489                            .dwattr $C$DW$T$40, DW_AT_decl_file(".\..\packages\ti\vlib\src\VLIB_L2_norm_i8\VLIB_L2_norm_i8
    1490                            .dwattr $C$DW$T$40, DW_AT_decl_line(0x28)
    1491                            .dwattr $C$DW$T$40, DW_AT_decl_column(0x03)
    1492                    $C$DW$T$41      .dwtag  DW_TAG_pointer_type
    1493                            .dwattr $C$DW$T$41, DW_AT_type(*$C$DW$T$40)
    1494                            .dwattr $C$DW$T$41, DW_AT_address_class(0x20)
    1495                    $C$DW$T$42      .dwtag  DW_TAG_pointer_type
    1496                            .dwattr $C$DW$T$42, DW_AT_type(*$C$DW$T$41)
    1497                            .dwattr $C$DW$T$42, DW_AT_address_class(0x20)
    1498                    $C$DW$T$43      .dwtag  DW_TAG_pointer_type
    1499                            .dwattr $C$DW$T$43, DW_AT_type(*$C$DW$T$23)
    1500                            .dwattr $C$DW$T$43, DW_AT_address_class(0x20)
    1501                    
    1502                    $C$DW$T$25      .dwtag  DW_TAG_structure_type
    1503                            .dwattr $C$DW$T$25, DW_AT_byte_size(0x18)
    1504                    $C$DW$147       .dwtag  DW_TAG_member
    1505                            .dwattr $C$DW$147, DW_AT_type(*$C$DW$T$10)
    1506                            .dwattr $C$DW$147, DW_AT_name("fd")
    1507                            .dwattr $C$DW$147, DW_AT_TI_symbol_name("fd")
    1508                            .dwattr $C$DW$147, DW_AT_data_member_location[DW_OP_plus_uconst 0x0]
    1509                            .dwattr $C$DW$147, DW_AT_accessibility(DW_ACCESS_public)
    1510                            .dwattr $C$DW$147, DW_AT_decl_file("C:/VLIB_Tools/CCSV5_4_0/ccsv5/tools/compiler/C6000/include
    1511                            .dwattr $C$DW$147, DW_AT_decl_line(0x49)
    1512                            .dwattr $C$DW$147, DW_AT_decl_column(0x0b)
    1513                    $C$DW$148       .dwtag  DW_TAG_member
    1514                            .dwattr $C$DW$148, DW_AT_type(*$C$DW$T$24)
    1515                            .dwattr $C$DW$148, DW_AT_name("buf")
    1516                            .dwattr $C$DW$148, DW_AT_TI_symbol_name("buf")
    1517                            .dwattr $C$DW$148, DW_AT_data_member_location[DW_OP_plus_uconst 0x4]
    1518                            .dwattr $C$DW$148, DW_AT_accessibility(DW_ACCESS_public)
    1519                            .dwattr $C$DW$148, DW_AT_decl_file("C:/VLIB_Tools/CCSV5_4_0/ccsv5/tools/compiler/C6000/include
    1520                            .dwattr $C$DW$148, DW_AT_decl_line(0x4a)
    1521                            .dwattr $C$DW$148, DW_AT_decl_column(0x16)
    1522                    $C$DW$149       .dwtag  DW_TAG_member
    1523                            .dwattr $C$DW$149, DW_AT_type(*$C$DW$T$24)
    1524                            .dwattr $C$DW$149, DW_AT_name("pos")
TMS320C6x Assembler PC v7.4.2 Thu Mar 19 12:43:15 2015

Tools Copyright (c) 1996-2012 Texas Instruments Incorporated
package/lib/Regression/regress_d_c/./../packages/ti/vlib/src/VLIB_L2_norm_i8/VLIB_L2_norm_i8_d.se66 PAGE   33

    1525                            .dwattr $C$DW$149, DW_AT_TI_symbol_name("pos")
    1526                            .dwattr $C$DW$149, DW_AT_data_member_location[DW_OP_plus_uconst 0x8]
    1527                            .dwattr $C$DW$149, DW_AT_accessibility(DW_ACCESS_public)
    1528                            .dwattr $C$DW$149, DW_AT_decl_file("C:/VLIB_Tools/CCSV5_4_0/ccsv5/tools/compiler/C6000/include
    1529                            .dwattr $C$DW$149, DW_AT_decl_line(0x4b)
    1530                            .dwattr $C$DW$149, DW_AT_decl_column(0x16)
    1531                    $C$DW$150       .dwtag  DW_TAG_member
    1532                            .dwattr $C$DW$150, DW_AT_type(*$C$DW$T$24)
    1533                            .dwattr $C$DW$150, DW_AT_name("bufend")
    1534                            .dwattr $C$DW$150, DW_AT_TI_symbol_name("bufend")
    1535                            .dwattr $C$DW$150, DW_AT_data_member_location[DW_OP_plus_uconst 0xc]
    1536                            .dwattr $C$DW$150, DW_AT_accessibility(DW_ACCESS_public)
    1537                            .dwattr $C$DW$150, DW_AT_decl_file("C:/VLIB_Tools/CCSV5_4_0/ccsv5/tools/compiler/C6000/include
    1538                            .dwattr $C$DW$150, DW_AT_decl_line(0x4c)
    1539                            .dwattr $C$DW$150, DW_AT_decl_column(0x16)
    1540                    $C$DW$151       .dwtag  DW_TAG_member
    1541                            .dwattr $C$DW$151, DW_AT_type(*$C$DW$T$24)
    1542                            .dwattr $C$DW$151, DW_AT_name("buff_stop")
    1543                            .dwattr $C$DW$151, DW_AT_TI_symbol_name("buff_stop")
    1544                            .dwattr $C$DW$151, DW_AT_data_member_location[DW_OP_plus_uconst 0x10]
    1545                            .dwattr $C$DW$151, DW_AT_accessibility(DW_ACCESS_public)
    1546                            .dwattr $C$DW$151, DW_AT_decl_file("C:/VLIB_Tools/CCSV5_4_0/ccsv5/tools/compiler/C6000/include
    1547                            .dwattr $C$DW$151, DW_AT_decl_line(0x4d)
    1548                            .dwattr $C$DW$151, DW_AT_decl_column(0x16)
    1549                    $C$DW$152       .dwtag  DW_TAG_member
    1550                            .dwattr $C$DW$152, DW_AT_type(*$C$DW$T$11)
    1551                            .dwattr $C$DW$152, DW_AT_name("flags")
    1552                            .dwattr $C$DW$152, DW_AT_TI_symbol_name("flags")
    1553                            .dwattr $C$DW$152, DW_AT_data_member_location[DW_OP_plus_uconst 0x14]
    1554                            .dwattr $C$DW$152, DW_AT_accessibility(DW_ACCESS_public)
    1555                            .dwattr $C$DW$152, DW_AT_decl_file("C:/VLIB_Tools/CCSV5_4_0/ccsv5/tools/compiler/C6000/include
    1556                            .dwattr $C$DW$152, DW_AT_decl_line(0x4e)
    1557                            .dwattr $C$DW$152, DW_AT_decl_column(0x16)
    1558                            .dwendtag $C$DW$T$25
    1559                    
    1560                            .dwattr $C$DW$T$25, DW_AT_decl_file("C:/VLIB_Tools/CCSV5_4_0/ccsv5/tools/compiler/C6000/includ
    1561                            .dwattr $C$DW$T$25, DW_AT_decl_line(0x48)
    1562                            .dwattr $C$DW$T$25, DW_AT_decl_column(0x10)
    1563                    $C$DW$T$45      .dwtag  DW_TAG_typedef, DW_AT_name("FILE")
    1564                            .dwattr $C$DW$T$45, DW_AT_type(*$C$DW$T$25)
    1565                            .dwattr $C$DW$T$45, DW_AT_language(DW_LANG_C)
    1566                            .dwattr $C$DW$T$45, DW_AT_decl_file("C:/VLIB_Tools/CCSV5_4_0/ccsv5/tools/compiler/C6000/includ
    1567                            .dwattr $C$DW$T$45, DW_AT_decl_line(0x4f)
    1568                            .dwattr $C$DW$T$45, DW_AT_decl_column(0x03)
    1569                    
    1570                    $C$DW$T$26      .dwtag  DW_TAG_structure_type
    1571                            .dwattr $C$DW$T$26, DW_AT_byte_size(0x08)
    1572                    $C$DW$153       .dwtag  DW_TAG_member
    1573                            .dwattr $C$DW$153, DW_AT_type(*$C$DW$T$10)
    1574                            .dwattr $C$DW$153, DW_AT_name("quot")
    1575                            .dwattr $C$DW$153, DW_AT_TI_symbol_name("quot")
    1576                            .dwattr $C$DW$153, DW_AT_data_member_location[DW_OP_plus_uconst 0x0]
    1577                            .dwattr $C$DW$153, DW_AT_accessibility(DW_ACCESS_public)
    1578                            .dwattr $C$DW$153, DW_AT_decl_file("C:/VLIB_Tools/CCSV5_4_0/ccsv5/tools/compiler/C6000/include
    1579                            .dwattr $C$DW$153, DW_AT_decl_line(0x3e)
TMS320C6x Assembler PC v7.4.2 Thu Mar 19 12:43:15 2015

Tools Copyright (c) 1996-2012 Texas Instruments Incorporated
package/lib/Regression/regress_d_c/./../packages/ti/vlib/src/VLIB_L2_norm_i8/VLIB_L2_norm_i8_d.se66 PAGE   34

    1580                            .dwattr $C$DW$153, DW_AT_decl_column(0x16)
    1581                    $C$DW$154       .dwtag  DW_TAG_member
    1582                            .dwattr $C$DW$154, DW_AT_type(*$C$DW$T$10)
    1583                            .dwattr $C$DW$154, DW_AT_name("rem")
    1584                            .dwattr $C$DW$154, DW_AT_TI_symbol_name("rem")
    1585                            .dwattr $C$DW$154, DW_AT_data_member_location[DW_OP_plus_uconst 0x4]
    1586                            .dwattr $C$DW$154, DW_AT_accessibility(DW_ACCESS_public)
    1587                            .dwattr $C$DW$154, DW_AT_decl_file("C:/VLIB_Tools/CCSV5_4_0/ccsv5/tools/compiler/C6000/include
    1588                            .dwattr $C$DW$154, DW_AT_decl_line(0x3e)
    1589                            .dwattr $C$DW$154, DW_AT_decl_column(0x1c)
    1590                            .dwendtag $C$DW$T$26
    1591                    
    1592                            .dwattr $C$DW$T$26, DW_AT_decl_file("C:/VLIB_Tools/CCSV5_4_0/ccsv5/tools/compiler/C6000/includ
    1593                            .dwattr $C$DW$T$26, DW_AT_decl_line(0x3e)
    1594                            .dwattr $C$DW$T$26, DW_AT_decl_column(0x10)
    1595                    $C$DW$T$46      .dwtag  DW_TAG_typedef, DW_AT_name("div_t")
    1596                            .dwattr $C$DW$T$46, DW_AT_type(*$C$DW$T$26)
    1597                            .dwattr $C$DW$T$46, DW_AT_language(DW_LANG_C)
    1598                            .dwattr $C$DW$T$46, DW_AT_decl_file("C:/VLIB_Tools/CCSV5_4_0/ccsv5/tools/compiler/C6000/includ
    1599                            .dwattr $C$DW$T$46, DW_AT_decl_line(0x3e)
    1600                            .dwattr $C$DW$T$46, DW_AT_decl_column(0x23)
    1601                    
    1602                    $C$DW$T$27      .dwtag  DW_TAG_structure_type
    1603                            .dwattr $C$DW$T$27, DW_AT_byte_size(0x08)
    1604                    $C$DW$155       .dwtag  DW_TAG_member
    1605                            .dwattr $C$DW$155, DW_AT_type(*$C$DW$T$10)
    1606                            .dwattr $C$DW$155, DW_AT_name("quot")
    1607                            .dwattr $C$DW$155, DW_AT_TI_symbol_name("quot")
    1608                            .dwattr $C$DW$155, DW_AT_data_member_location[DW_OP_plus_uconst 0x0]
    1609                            .dwattr $C$DW$155, DW_AT_accessibility(DW_ACCESS_public)
    1610                            .dwattr $C$DW$155, DW_AT_decl_file("C:/VLIB_Tools/CCSV5_4_0/ccsv5/tools/compiler/C6000/include
    1611                            .dwattr $C$DW$155, DW_AT_decl_line(0x40)
    1612                            .dwattr $C$DW$155, DW_AT_decl_column(0x17)
    1613                    $C$DW$156       .dwtag  DW_TAG_member
    1614                            .dwattr $C$DW$156, DW_AT_type(*$C$DW$T$10)
    1615                            .dwattr $C$DW$156, DW_AT_name("rem")
    1616                            .dwattr $C$DW$156, DW_AT_TI_symbol_name("rem")
    1617                            .dwattr $C$DW$156, DW_AT_data_member_location[DW_OP_plus_uconst 0x4]
    1618                            .dwattr $C$DW$156, DW_AT_accessibility(DW_ACCESS_public)
    1619                            .dwattr $C$DW$156, DW_AT_decl_file("C:/VLIB_Tools/CCSV5_4_0/ccsv5/tools/compiler/C6000/include
    1620                            .dwattr $C$DW$156, DW_AT_decl_line(0x40)
    1621                            .dwattr $C$DW$156, DW_AT_decl_column(0x1d)
    1622                            .dwendtag $C$DW$T$27
    1623                    
    1624                            .dwattr $C$DW$T$27, DW_AT_decl_file("C:/VLIB_Tools/CCSV5_4_0/ccsv5/tools/compiler/C6000/includ
    1625                            .dwattr $C$DW$T$27, DW_AT_decl_line(0x40)
    1626                            .dwattr $C$DW$T$27, DW_AT_decl_column(0x10)
    1627                    $C$DW$T$47      .dwtag  DW_TAG_typedef, DW_AT_name("ldiv_t")
    1628                            .dwattr $C$DW$T$47, DW_AT_type(*$C$DW$T$27)
    1629                            .dwattr $C$DW$T$47, DW_AT_language(DW_LANG_C)
    1630                            .dwattr $C$DW$T$47, DW_AT_decl_file("C:/VLIB_Tools/CCSV5_4_0/ccsv5/tools/compiler/C6000/includ
    1631                            .dwattr $C$DW$T$47, DW_AT_decl_line(0x40)
    1632                            .dwattr $C$DW$T$47, DW_AT_decl_column(0x24)
    1633                    
    1634                    $C$DW$T$28      .dwtag  DW_TAG_structure_type
TMS320C6x Assembler PC v7.4.2 Thu Mar 19 12:43:15 2015

Tools Copyright (c) 1996-2012 Texas Instruments Incorporated
package/lib/Regression/regress_d_c/./../packages/ti/vlib/src/VLIB_L2_norm_i8/VLIB_L2_norm_i8_d.se66 PAGE   35

    1635                            .dwattr $C$DW$T$28, DW_AT_byte_size(0x10)
    1636                    $C$DW$157       .dwtag  DW_TAG_member
    1637                            .dwattr $C$DW$157, DW_AT_type(*$C$DW$T$14)
    1638                            .dwattr $C$DW$157, DW_AT_name("quot")
    1639                            .dwattr $C$DW$157, DW_AT_TI_symbol_name("quot")
    1640                            .dwattr $C$DW$157, DW_AT_data_member_location[DW_OP_plus_uconst 0x0]
    1641                            .dwattr $C$DW$157, DW_AT_accessibility(DW_ACCESS_public)
    1642                            .dwattr $C$DW$157, DW_AT_decl_file("C:/VLIB_Tools/CCSV5_4_0/ccsv5/tools/compiler/C6000/include
    1643                            .dwattr $C$DW$157, DW_AT_decl_line(0x43)
    1644                            .dwattr $C$DW$157, DW_AT_decl_column(0x1c)
    1645                    $C$DW$158       .dwtag  DW_TAG_member
    1646                            .dwattr $C$DW$158, DW_AT_type(*$C$DW$T$14)
    1647                            .dwattr $C$DW$158, DW_AT_name("rem")
    1648                            .dwattr $C$DW$158, DW_AT_TI_symbol_name("rem")
    1649                            .dwattr $C$DW$158, DW_AT_data_member_location[DW_OP_plus_uconst 0x8]
    1650                            .dwattr $C$DW$158, DW_AT_accessibility(DW_ACCESS_public)
    1651                            .dwattr $C$DW$158, DW_AT_decl_file("C:/VLIB_Tools/CCSV5_4_0/ccsv5/tools/compiler/C6000/include
    1652                            .dwattr $C$DW$158, DW_AT_decl_line(0x43)
    1653                            .dwattr $C$DW$158, DW_AT_decl_column(0x22)
    1654                            .dwendtag $C$DW$T$28
    1655                    
    1656                            .dwattr $C$DW$T$28, DW_AT_decl_file("C:/VLIB_Tools/CCSV5_4_0/ccsv5/tools/compiler/C6000/includ
    1657                            .dwattr $C$DW$T$28, DW_AT_decl_line(0x43)
    1658                            .dwattr $C$DW$T$28, DW_AT_decl_column(0x10)
    1659                    $C$DW$T$48      .dwtag  DW_TAG_typedef, DW_AT_name("lldiv_t")
    1660                            .dwattr $C$DW$T$48, DW_AT_type(*$C$DW$T$28)
    1661                            .dwattr $C$DW$T$48, DW_AT_language(DW_LANG_C)
    1662                            .dwattr $C$DW$T$48, DW_AT_decl_file("C:/VLIB_Tools/CCSV5_4_0/ccsv5/tools/compiler/C6000/includ
    1663                            .dwattr $C$DW$T$48, DW_AT_decl_line(0x43)
    1664                            .dwattr $C$DW$T$48, DW_AT_decl_column(0x29)
    1665                    
    1666                    $C$DW$T$29      .dwtag  DW_TAG_structure_type
    1667                            .dwattr $C$DW$T$29, DW_AT_byte_size(0x24)
    1668                    $C$DW$159       .dwtag  DW_TAG_member
    1669                            .dwattr $C$DW$159, DW_AT_type(*$C$DW$T$22)
    1670                            .dwattr $C$DW$159, DW_AT_name("area")
    1671                            .dwattr $C$DW$159, DW_AT_TI_symbol_name("area")
    1672                            .dwattr $C$DW$159, DW_AT_data_member_location[DW_OP_plus_uconst 0x0]
    1673                            .dwattr $C$DW$159, DW_AT_accessibility(DW_ACCESS_public)
    1674                            .dwattr $C$DW$159, DW_AT_decl_file(".\..\packages\ti\vlib\src\VLIB_L2_norm_i8\..\common\c66/VL
    1675                            .dwattr $C$DW$159, DW_AT_decl_line(0x69)
    1676                            .dwattr $C$DW$159, DW_AT_decl_column(0x0d)
    1677                    $C$DW$160       .dwtag  DW_TAG_member
    1678                            .dwattr $C$DW$160, DW_AT_type(*$C$DW$T$22)
    1679                            .dwattr $C$DW$160, DW_AT_name("xsum")
    1680                            .dwattr $C$DW$160, DW_AT_TI_symbol_name("xsum")
    1681                            .dwattr $C$DW$160, DW_AT_data_member_location[DW_OP_plus_uconst 0x4]
    1682                            .dwattr $C$DW$160, DW_AT_accessibility(DW_ACCESS_public)
    1683                            .dwattr $C$DW$160, DW_AT_decl_file(".\..\packages\ti\vlib\src\VLIB_L2_norm_i8\..\common\c66/VL
    1684                            .dwattr $C$DW$160, DW_AT_decl_line(0x6a)
    1685                            .dwattr $C$DW$160, DW_AT_decl_column(0x0d)
    1686                    $C$DW$161       .dwtag  DW_TAG_member
    1687                            .dwattr $C$DW$161, DW_AT_type(*$C$DW$T$22)
    1688                            .dwattr $C$DW$161, DW_AT_name("ysum")
    1689                            .dwattr $C$DW$161, DW_AT_TI_symbol_name("ysum")
TMS320C6x Assembler PC v7.4.2 Thu Mar 19 12:43:15 2015

Tools Copyright (c) 1996-2012 Texas Instruments Incorporated
package/lib/Regression/regress_d_c/./../packages/ti/vlib/src/VLIB_L2_norm_i8/VLIB_L2_norm_i8_d.se66 PAGE   36

    1690                            .dwattr $C$DW$161, DW_AT_data_member_location[DW_OP_plus_uconst 0x8]
    1691                            .dwattr $C$DW$161, DW_AT_accessibility(DW_ACCESS_public)
    1692                            .dwattr $C$DW$161, DW_AT_decl_file(".\..\packages\ti\vlib\src\VLIB_L2_norm_i8\..\common\c66/VL
    1693                            .dwattr $C$DW$161, DW_AT_decl_line(0x6b)
    1694                            .dwattr $C$DW$161, DW_AT_decl_column(0x0d)
    1695                    $C$DW$162       .dwtag  DW_TAG_member
    1696                            .dwattr $C$DW$162, DW_AT_type(*$C$DW$T$22)
    1697                            .dwattr $C$DW$162, DW_AT_name("xmin")
    1698                            .dwattr $C$DW$162, DW_AT_TI_symbol_name("xmin")
    1699                            .dwattr $C$DW$162, DW_AT_data_member_location[DW_OP_plus_uconst 0xc]
    1700                            .dwattr $C$DW$162, DW_AT_accessibility(DW_ACCESS_public)
    1701                            .dwattr $C$DW$162, DW_AT_decl_file(".\..\packages\ti\vlib\src\VLIB_L2_norm_i8\..\common\c66/VL
    1702                            .dwattr $C$DW$162, DW_AT_decl_line(0x6d)
    1703                            .dwattr $C$DW$162, DW_AT_decl_column(0x0d)
    1704                    $C$DW$163       .dwtag  DW_TAG_member
    1705                            .dwattr $C$DW$163, DW_AT_type(*$C$DW$T$22)
    1706                            .dwattr $C$DW$163, DW_AT_name("ymin")
    1707                            .dwattr $C$DW$163, DW_AT_TI_symbol_name("ymin")
    1708                            .dwattr $C$DW$163, DW_AT_data_member_location[DW_OP_plus_uconst 0x10]
    1709                            .dwattr $C$DW$163, DW_AT_accessibility(DW_ACCESS_public)
    1710                            .dwattr $C$DW$163, DW_AT_decl_file(".\..\packages\ti\vlib\src\VLIB_L2_norm_i8\..\common\c66/VL
    1711                            .dwattr $C$DW$163, DW_AT_decl_line(0x6e)
    1712                            .dwattr $C$DW$163, DW_AT_decl_column(0x0d)
    1713                    $C$DW$164       .dwtag  DW_TAG_member
    1714                            .dwattr $C$DW$164, DW_AT_type(*$C$DW$T$22)
    1715                            .dwattr $C$DW$164, DW_AT_name("xmax")
    1716                            .dwattr $C$DW$164, DW_AT_TI_symbol_name("xmax")
    1717                            .dwattr $C$DW$164, DW_AT_data_member_location[DW_OP_plus_uconst 0x14]
    1718                            .dwattr $C$DW$164, DW_AT_accessibility(DW_ACCESS_public)
    1719                            .dwattr $C$DW$164, DW_AT_decl_file(".\..\packages\ti\vlib\src\VLIB_L2_norm_i8\..\common\c66/VL
    1720                            .dwattr $C$DW$164, DW_AT_decl_line(0x6f)
    1721                            .dwattr $C$DW$164, DW_AT_decl_column(0x0d)
    1722                    $C$DW$165       .dwtag  DW_TAG_member
    1723                            .dwattr $C$DW$165, DW_AT_type(*$C$DW$T$22)
    1724                            .dwattr $C$DW$165, DW_AT_name("ymax")
    1725                            .dwattr $C$DW$165, DW_AT_TI_symbol_name("ymax")
    1726                            .dwattr $C$DW$165, DW_AT_data_member_location[DW_OP_plus_uconst 0x18]
    1727                            .dwattr $C$DW$165, DW_AT_accessibility(DW_ACCESS_public)
    1728                            .dwattr $C$DW$165, DW_AT_decl_file(".\..\packages\ti\vlib\src\VLIB_L2_norm_i8\..\common\c66/VL
    1729                            .dwattr $C$DW$165, DW_AT_decl_line(0x70)
    1730                            .dwattr $C$DW$165, DW_AT_decl_column(0x0d)
    1731                    $C$DW$166       .dwtag  DW_TAG_member
    1732                            .dwattr $C$DW$166, DW_AT_type(*$C$DW$T$22)
    1733                            .dwattr $C$DW$166, DW_AT_name("seedx")
    1734                            .dwattr $C$DW$166, DW_AT_TI_symbol_name("seedx")
    1735                            .dwattr $C$DW$166, DW_AT_data_member_location[DW_OP_plus_uconst 0x1c]
    1736                            .dwattr $C$DW$166, DW_AT_accessibility(DW_ACCESS_public)
    1737                            .dwattr $C$DW$166, DW_AT_decl_file(".\..\packages\ti\vlib\src\VLIB_L2_norm_i8\..\common\c66/VL
    1738                            .dwattr $C$DW$166, DW_AT_decl_line(0x72)
    1739                            .dwattr $C$DW$166, DW_AT_decl_column(0x0d)
    1740                    $C$DW$167       .dwtag  DW_TAG_member
    1741                            .dwattr $C$DW$167, DW_AT_type(*$C$DW$T$22)
    1742                            .dwattr $C$DW$167, DW_AT_name("seedy")
    1743                            .dwattr $C$DW$167, DW_AT_TI_symbol_name("seedy")
    1744                            .dwattr $C$DW$167, DW_AT_data_member_location[DW_OP_plus_uconst 0x20]
TMS320C6x Assembler PC v7.4.2 Thu Mar 19 12:43:15 2015

Tools Copyright (c) 1996-2012 Texas Instruments Incorporated
package/lib/Regression/regress_d_c/./../packages/ti/vlib/src/VLIB_L2_norm_i8/VLIB_L2_norm_i8_d.se66 PAGE   37

    1745                            .dwattr $C$DW$167, DW_AT_accessibility(DW_ACCESS_public)
    1746                            .dwattr $C$DW$167, DW_AT_decl_file(".\..\packages\ti\vlib\src\VLIB_L2_norm_i8\..\common\c66/VL
    1747                            .dwattr $C$DW$167, DW_AT_decl_line(0x73)
    1748                            .dwattr $C$DW$167, DW_AT_decl_column(0x0d)
    1749                            .dwendtag $C$DW$T$29
    1750                    
    1751                            .dwattr $C$DW$T$29, DW_AT_decl_file(".\..\packages\ti\vlib\src\VLIB_L2_norm_i8\..\common\c66/V
    1752                            .dwattr $C$DW$T$29, DW_AT_decl_line(0x68)
    1753                            .dwattr $C$DW$T$29, DW_AT_decl_column(0x10)
    1754                    $C$DW$T$49      .dwtag  DW_TAG_typedef, DW_AT_name("VLIB_CC")
    1755                            .dwattr $C$DW$T$49, DW_AT_type(*$C$DW$T$29)
    1756                            .dwattr $C$DW$T$49, DW_AT_language(DW_LANG_C)
    1757                            .dwattr $C$DW$T$49, DW_AT_decl_file(".\..\packages\ti\vlib\src\VLIB_L2_norm_i8\..\common\c66/V
    1758                            .dwattr $C$DW$T$49, DW_AT_decl_line(0x75)
    1759                            .dwattr $C$DW$T$49, DW_AT_decl_column(0x03)
    1760                    
    1761                    $C$DW$T$32      .dwtag  DW_TAG_structure_type
    1762                            .dwattr $C$DW$T$32, DW_AT_byte_size(0x10)
    1763                    $C$DW$168       .dwtag  DW_TAG_member
    1764                            .dwattr $C$DW$168, DW_AT_type(*$C$DW$T$8)
    1765                            .dwattr $C$DW$168, DW_AT_name("daylight")
    1766                            .dwattr $C$DW$168, DW_AT_TI_symbol_name("daylight")
    1767                            .dwattr $C$DW$168, DW_AT_data_member_location[DW_OP_plus_uconst 0x0]
    1768                            .dwattr $C$DW$168, DW_AT_accessibility(DW_ACCESS_public)
    1769                            .dwattr $C$DW$168, DW_AT_decl_file("C:/VLIB_Tools/CCSV5_4_0/ccsv5/tools/compiler/C6000/include
    1770                            .dwattr $C$DW$168, DW_AT_decl_line(0x52)
    1771                            .dwattr $C$DW$168, DW_AT_decl_column(0x0b)
    1772                    $C$DW$169       .dwtag  DW_TAG_member
    1773                            .dwattr $C$DW$169, DW_AT_type(*$C$DW$T$10)
    1774                            .dwattr $C$DW$169, DW_AT_name("timezone")
    1775                            .dwattr $C$DW$169, DW_AT_TI_symbol_name("timezone")
    1776                            .dwattr $C$DW$169, DW_AT_data_member_location[DW_OP_plus_uconst 0x4]
    1777                            .dwattr $C$DW$169, DW_AT_accessibility(DW_ACCESS_public)
    1778                            .dwattr $C$DW$169, DW_AT_decl_file("C:/VLIB_Tools/CCSV5_4_0/ccsv5/tools/compiler/C6000/include
    1779                            .dwattr $C$DW$169, DW_AT_decl_line(0x53)
    1780                            .dwattr $C$DW$169, DW_AT_decl_column(0x0b)
    1781                    $C$DW$170       .dwtag  DW_TAG_member
    1782                            .dwattr $C$DW$170, DW_AT_type(*$C$DW$T$31)
    1783                            .dwattr $C$DW$170, DW_AT_name("tzname")
    1784                            .dwattr $C$DW$170, DW_AT_TI_symbol_name("tzname")
    1785                            .dwattr $C$DW$170, DW_AT_data_member_location[DW_OP_plus_uconst 0x8]
    1786                            .dwattr $C$DW$170, DW_AT_accessibility(DW_ACCESS_public)
    1787                            .dwattr $C$DW$170, DW_AT_decl_file("C:/VLIB_Tools/CCSV5_4_0/ccsv5/tools/compiler/C6000/include
    1788                            .dwattr $C$DW$170, DW_AT_decl_line(0x54)
    1789                            .dwattr $C$DW$170, DW_AT_decl_column(0x0b)
    1790                    $C$DW$171       .dwtag  DW_TAG_member
    1791                            .dwattr $C$DW$171, DW_AT_type(*$C$DW$T$31)
    1792                            .dwattr $C$DW$171, DW_AT_name("dstname")
    1793                            .dwattr $C$DW$171, DW_AT_TI_symbol_name("dstname")
    1794                            .dwattr $C$DW$171, DW_AT_data_member_location[DW_OP_plus_uconst 0xc]
    1795                            .dwattr $C$DW$171, DW_AT_accessibility(DW_ACCESS_public)
    1796                            .dwattr $C$DW$171, DW_AT_decl_file("C:/VLIB_Tools/CCSV5_4_0/ccsv5/tools/compiler/C6000/include
    1797                            .dwattr $C$DW$171, DW_AT_decl_line(0x55)
    1798                            .dwattr $C$DW$171, DW_AT_decl_column(0x0b)
    1799                            .dwendtag $C$DW$T$32
TMS320C6x Assembler PC v7.4.2 Thu Mar 19 12:43:15 2015

Tools Copyright (c) 1996-2012 Texas Instruments Incorporated
package/lib/Regression/regress_d_c/./../packages/ti/vlib/src/VLIB_L2_norm_i8/VLIB_L2_norm_i8_d.se66 PAGE   38

    1800                    
    1801                            .dwattr $C$DW$T$32, DW_AT_decl_file("C:/VLIB_Tools/CCSV5_4_0/ccsv5/tools/compiler/C6000/includ
    1802                            .dwattr $C$DW$T$32, DW_AT_decl_line(0x51)
    1803                            .dwattr $C$DW$T$32, DW_AT_decl_column(0x01)
    1804                    $C$DW$T$50      .dwtag  DW_TAG_typedef, DW_AT_name("TZ")
    1805                            .dwattr $C$DW$T$50, DW_AT_type(*$C$DW$T$32)
    1806                            .dwattr $C$DW$T$50, DW_AT_language(DW_LANG_C)
    1807                            .dwattr $C$DW$T$50, DW_AT_decl_file("C:/VLIB_Tools/CCSV5_4_0/ccsv5/tools/compiler/C6000/includ
    1808                            .dwattr $C$DW$T$50, DW_AT_decl_line(0x56)
    1809                            .dwattr $C$DW$T$50, DW_AT_decl_column(0x03)
    1810                    $C$DW$T$2       .dwtag  DW_TAG_unspecified_type
    1811                            .dwattr $C$DW$T$2, DW_AT_name("void")
    1812                    $C$DW$T$3       .dwtag  DW_TAG_pointer_type
    1813                            .dwattr $C$DW$T$3, DW_AT_type(*$C$DW$T$2)
    1814                            .dwattr $C$DW$T$3, DW_AT_address_class(0x20)
    1815                    $C$DW$T$51      .dwtag  DW_TAG_typedef, DW_AT_name("VLIB_PTR")
    1816                            .dwattr $C$DW$T$51, DW_AT_type(*$C$DW$T$3)
    1817                            .dwattr $C$DW$T$51, DW_AT_language(DW_LANG_C)
    1818                            .dwattr $C$DW$T$51, DW_AT_decl_file(".\..\packages\ti\vlib\src\VLIB_L2_norm_i8\..\common\c66/V
    1819                            .dwattr $C$DW$T$51, DW_AT_decl_line(0x5c)
    1820                            .dwattr $C$DW$T$51, DW_AT_decl_column(0x19)
    1821                    $C$DW$T$4       .dwtag  DW_TAG_base_type
    1822                            .dwattr $C$DW$T$4, DW_AT_encoding(DW_ATE_boolean)
    1823                            .dwattr $C$DW$T$4, DW_AT_name("bool")
    1824                            .dwattr $C$DW$T$4, DW_AT_byte_size(0x01)
    1825                    $C$DW$T$5       .dwtag  DW_TAG_base_type
    1826                            .dwattr $C$DW$T$5, DW_AT_encoding(DW_ATE_signed_char)
    1827                            .dwattr $C$DW$T$5, DW_AT_name("signed char")
    1828                            .dwattr $C$DW$T$5, DW_AT_byte_size(0x01)
    1829                    $C$DW$T$79      .dwtag  DW_TAG_pointer_type
    1830                            .dwattr $C$DW$T$79, DW_AT_type(*$C$DW$T$5)
    1831                            .dwattr $C$DW$T$79, DW_AT_address_class(0x20)
    1832                    $C$DW$T$89      .dwtag  DW_TAG_typedef, DW_AT_name("int8_t")
    1833                            .dwattr $C$DW$T$89, DW_AT_type(*$C$DW$T$5)
    1834                            .dwattr $C$DW$T$89, DW_AT_language(DW_LANG_C)
    1835                            .dwattr $C$DW$T$89, DW_AT_decl_file("C:/VLIB_Tools/CCSV5_4_0/ccsv5/tools/compiler/C6000/includ
    1836                            .dwattr $C$DW$T$89, DW_AT_decl_line(0x2a)
    1837                            .dwattr $C$DW$T$89, DW_AT_decl_column(0x1d)
    1838                    $C$DW$T$90      .dwtag  DW_TAG_typedef, DW_AT_name("int_least8_t")
    1839                            .dwattr $C$DW$T$90, DW_AT_type(*$C$DW$T$89)
    1840                            .dwattr $C$DW$T$90, DW_AT_language(DW_LANG_C)
    1841                            .dwattr $C$DW$T$90, DW_AT_decl_file("C:/VLIB_Tools/CCSV5_4_0/ccsv5/tools/compiler/C6000/includ
    1842                            .dwattr $C$DW$T$90, DW_AT_decl_line(0x39)
    1843                            .dwattr $C$DW$T$90, DW_AT_decl_column(0x17)
    1844                    $C$DW$T$6       .dwtag  DW_TAG_base_type
    1845                            .dwattr $C$DW$T$6, DW_AT_encoding(DW_ATE_unsigned_char)
    1846                            .dwattr $C$DW$T$6, DW_AT_name("unsigned char")
    1847                            .dwattr $C$DW$T$6, DW_AT_byte_size(0x01)
    1848                    $C$DW$T$24      .dwtag  DW_TAG_pointer_type
    1849                            .dwattr $C$DW$T$24, DW_AT_type(*$C$DW$T$6)
    1850                            .dwattr $C$DW$T$24, DW_AT_address_class(0x20)
    1851                    $C$DW$T$19      .dwtag  DW_TAG_typedef, DW_AT_name("uint8_t")
    1852                            .dwattr $C$DW$T$19, DW_AT_type(*$C$DW$T$6)
    1853                            .dwattr $C$DW$T$19, DW_AT_language(DW_LANG_C)
    1854                            .dwattr $C$DW$T$19, DW_AT_decl_file("C:/VLIB_Tools/CCSV5_4_0/ccsv5/tools/compiler/C6000/includ
TMS320C6x Assembler PC v7.4.2 Thu Mar 19 12:43:15 2015

Tools Copyright (c) 1996-2012 Texas Instruments Incorporated
package/lib/Regression/regress_d_c/./../packages/ti/vlib/src/VLIB_L2_norm_i8/VLIB_L2_norm_i8_d.se66 PAGE   39

    1855                            .dwattr $C$DW$T$19, DW_AT_decl_line(0x2b)
    1856                            .dwattr $C$DW$T$19, DW_AT_decl_column(0x1c)
    1857                    $C$DW$T$20      .dwtag  DW_TAG_pointer_type
    1858                            .dwattr $C$DW$T$20, DW_AT_type(*$C$DW$T$19)
    1859                            .dwattr $C$DW$T$20, DW_AT_address_class(0x20)
    1860                    $C$DW$T$91      .dwtag  DW_TAG_const_type
    1861                            .dwattr $C$DW$T$91, DW_AT_type(*$C$DW$T$19)
    1862                    $C$DW$T$92      .dwtag  DW_TAG_pointer_type
    1863                            .dwattr $C$DW$T$92, DW_AT_type(*$C$DW$T$91)
    1864                            .dwattr $C$DW$T$92, DW_AT_address_class(0x20)
    1865                    $C$DW$T$93      .dwtag  DW_TAG_typedef, DW_AT_name("uint_least8_t")
    1866                            .dwattr $C$DW$T$93, DW_AT_type(*$C$DW$T$19)
    1867                            .dwattr $C$DW$T$93, DW_AT_language(DW_LANG_C)
    1868                            .dwattr $C$DW$T$93, DW_AT_decl_file("C:/VLIB_Tools/CCSV5_4_0/ccsv5/tools/compiler/C6000/includ
    1869                            .dwattr $C$DW$T$93, DW_AT_decl_line(0x3a)
    1870                            .dwattr $C$DW$T$93, DW_AT_decl_column(0x16)
    1871                    $C$DW$T$7       .dwtag  DW_TAG_base_type
    1872                            .dwattr $C$DW$T$7, DW_AT_encoding(DW_ATE_signed_char)
    1873                            .dwattr $C$DW$T$7, DW_AT_name("wchar_t")
    1874                            .dwattr $C$DW$T$7, DW_AT_byte_size(0x02)
    1875                    $C$DW$T$8       .dwtag  DW_TAG_base_type
    1876                            .dwattr $C$DW$T$8, DW_AT_encoding(DW_ATE_signed)
    1877                            .dwattr $C$DW$T$8, DW_AT_name("short")
    1878                            .dwattr $C$DW$T$8, DW_AT_byte_size(0x02)
    1879                    $C$DW$T$94      .dwtag  DW_TAG_typedef, DW_AT_name("int16_t")
    1880                            .dwattr $C$DW$T$94, DW_AT_type(*$C$DW$T$8)
    1881                            .dwattr $C$DW$T$94, DW_AT_language(DW_LANG_C)
    1882                            .dwattr $C$DW$T$94, DW_AT_decl_file("C:/VLIB_Tools/CCSV5_4_0/ccsv5/tools/compiler/C6000/includ
    1883                            .dwattr $C$DW$T$94, DW_AT_decl_line(0x2c)
    1884                            .dwattr $C$DW$T$94, DW_AT_decl_column(0x1d)
    1885                    $C$DW$T$95      .dwtag  DW_TAG_typedef, DW_AT_name("int_least16_t")
    1886                            .dwattr $C$DW$T$95, DW_AT_type(*$C$DW$T$94)
    1887                            .dwattr $C$DW$T$95, DW_AT_language(DW_LANG_C)
    1888                            .dwattr $C$DW$T$95, DW_AT_decl_file("C:/VLIB_Tools/CCSV5_4_0/ccsv5/tools/compiler/C6000/includ
    1889                            .dwattr $C$DW$T$95, DW_AT_decl_line(0x3c)
    1890                            .dwattr $C$DW$T$95, DW_AT_decl_column(0x17)
    1891                    $C$DW$T$9       .dwtag  DW_TAG_base_type
    1892                            .dwattr $C$DW$T$9, DW_AT_encoding(DW_ATE_unsigned)
    1893                            .dwattr $C$DW$T$9, DW_AT_name("unsigned short")
    1894                            .dwattr $C$DW$T$9, DW_AT_byte_size(0x02)
    1895                    $C$DW$T$70      .dwtag  DW_TAG_typedef, DW_AT_name("uint16_t")
    1896                            .dwattr $C$DW$T$70, DW_AT_type(*$C$DW$T$9)
    1897                            .dwattr $C$DW$T$70, DW_AT_language(DW_LANG_C)
    1898                            .dwattr $C$DW$T$70, DW_AT_decl_file("C:/VLIB_Tools/CCSV5_4_0/ccsv5/tools/compiler/C6000/includ
    1899                            .dwattr $C$DW$T$70, DW_AT_decl_line(0x2d)
    1900                            .dwattr $C$DW$T$70, DW_AT_decl_column(0x1c)
    1901                    $C$DW$T$97      .dwtag  DW_TAG_typedef, DW_AT_name("uint_least16_t")
    1902                            .dwattr $C$DW$T$97, DW_AT_type(*$C$DW$T$70)
    1903                            .dwattr $C$DW$T$97, DW_AT_language(DW_LANG_C)
    1904                            .dwattr $C$DW$T$97, DW_AT_decl_file("C:/VLIB_Tools/CCSV5_4_0/ccsv5/tools/compiler/C6000/includ
    1905                            .dwattr $C$DW$T$97, DW_AT_decl_line(0x3d)
    1906                            .dwattr $C$DW$T$97, DW_AT_decl_column(0x16)
    1907                    $C$DW$T$96      .dwtag  DW_TAG_typedef, DW_AT_name("wchar_t")
    1908                            .dwattr $C$DW$T$96, DW_AT_type(*$C$DW$T$9)
    1909                            .dwattr $C$DW$T$96, DW_AT_language(DW_LANG_C)
TMS320C6x Assembler PC v7.4.2 Thu Mar 19 12:43:15 2015

Tools Copyright (c) 1996-2012 Texas Instruments Incorporated
package/lib/Regression/regress_d_c/./../packages/ti/vlib/src/VLIB_L2_norm_i8/VLIB_L2_norm_i8_d.se66 PAGE   40

    1910                            .dwattr $C$DW$T$96, DW_AT_decl_file("C:/VLIB_Tools/CCSV5_4_0/ccsv5/tools/compiler/C6000/includ
    1911                            .dwattr $C$DW$T$96, DW_AT_decl_line(0x53)
    1912                            .dwattr $C$DW$T$96, DW_AT_decl_column(0x1a)
    1913                    $C$DW$T$10      .dwtag  DW_TAG_base_type
    1914                            .dwattr $C$DW$T$10, DW_AT_encoding(DW_ATE_signed)
    1915                            .dwattr $C$DW$T$10, DW_AT_name("int")
    1916                            .dwattr $C$DW$T$10, DW_AT_byte_size(0x04)
    1917                    $C$DW$T$114     .dwtag  DW_TAG_typedef, DW_AT_name("fpos_t")
    1918                            .dwattr $C$DW$T$114, DW_AT_type(*$C$DW$T$10)
    1919                            .dwattr $C$DW$T$114, DW_AT_language(DW_LANG_C)
    1920                            .dwattr $C$DW$T$114, DW_AT_decl_file("C:/VLIB_Tools/CCSV5_4_0/ccsv5/tools/compiler/C6000/inclu
    1921                            .dwattr $C$DW$T$114, DW_AT_decl_line(0x53)
    1922                            .dwattr $C$DW$T$114, DW_AT_decl_column(0x0d)
    1923                    $C$DW$T$22      .dwtag  DW_TAG_typedef, DW_AT_name("int32_t")
    1924                            .dwattr $C$DW$T$22, DW_AT_type(*$C$DW$T$10)
    1925                            .dwattr $C$DW$T$22, DW_AT_language(DW_LANG_C)
    1926                            .dwattr $C$DW$T$22, DW_AT_decl_file("C:/VLIB_Tools/CCSV5_4_0/ccsv5/tools/compiler/C6000/includ
    1927                            .dwattr $C$DW$T$22, DW_AT_decl_line(0x2e)
    1928                            .dwattr $C$DW$T$22, DW_AT_decl_column(0x1d)
    1929                    $C$DW$T$108     .dwtag  DW_TAG_typedef, DW_AT_name("VLIB_CCHandle")
    1930                            .dwattr $C$DW$T$108, DW_AT_type(*$C$DW$T$22)
    1931                            .dwattr $C$DW$T$108, DW_AT_language(DW_LANG_C)
    1932                            .dwattr $C$DW$T$108, DW_AT_decl_file(".\..\packages\ti\vlib\src\VLIB_L2_norm_i8\..\common\c66/
    1933                            .dwattr $C$DW$T$108, DW_AT_decl_line(0x77)
    1934                            .dwattr $C$DW$T$108, DW_AT_decl_column(0x11)
    1935                    
    1936                    $C$DW$T$33      .dwtag  DW_TAG_array_type
    1937                            .dwattr $C$DW$T$33, DW_AT_type(*$C$DW$T$22)
    1938                            .dwattr $C$DW$T$33, DW_AT_language(DW_LANG_C)
    1939                            .dwattr $C$DW$T$33, DW_AT_byte_size(0x10)
    1940                    $C$DW$172       .dwtag  DW_TAG_subrange_type
    1941                            .dwattr $C$DW$172, DW_AT_upper_bound(0x03)
    1942                            .dwendtag $C$DW$T$33
    1943                    
    1944                    $C$DW$T$75      .dwtag  DW_TAG_pointer_type
    1945                            .dwattr $C$DW$T$75, DW_AT_type(*$C$DW$T$22)
    1946                            .dwattr $C$DW$T$75, DW_AT_address_class(0x20)
    1947                    $C$DW$T$109     .dwtag  DW_TAG_typedef, DW_AT_name("int_fast16_t")
    1948                            .dwattr $C$DW$T$109, DW_AT_type(*$C$DW$T$22)
    1949                            .dwattr $C$DW$T$109, DW_AT_language(DW_LANG_C)
    1950                            .dwattr $C$DW$T$109, DW_AT_decl_file("C:/VLIB_Tools/CCSV5_4_0/ccsv5/tools/compiler/C6000/inclu
    1951                            .dwattr $C$DW$T$109, DW_AT_decl_line(0x4b)
    1952                            .dwattr $C$DW$T$109, DW_AT_decl_column(0x17)
    1953                    $C$DW$T$110     .dwtag  DW_TAG_typedef, DW_AT_name("int_fast32_t")
    1954                            .dwattr $C$DW$T$110, DW_AT_type(*$C$DW$T$22)
    1955                            .dwattr $C$DW$T$110, DW_AT_language(DW_LANG_C)
    1956                            .dwattr $C$DW$T$110, DW_AT_decl_file("C:/VLIB_Tools/CCSV5_4_0/ccsv5/tools/compiler/C6000/inclu
    1957                            .dwattr $C$DW$T$110, DW_AT_decl_line(0x4e)
    1958                            .dwattr $C$DW$T$110, DW_AT_decl_column(0x17)
    1959                    $C$DW$T$111     .dwtag  DW_TAG_typedef, DW_AT_name("int_fast8_t")
    1960                            .dwattr $C$DW$T$111, DW_AT_type(*$C$DW$T$22)
    1961                            .dwattr $C$DW$T$111, DW_AT_language(DW_LANG_C)
    1962                            .dwattr $C$DW$T$111, DW_AT_decl_file("C:/VLIB_Tools/CCSV5_4_0/ccsv5/tools/compiler/C6000/inclu
    1963                            .dwattr $C$DW$T$111, DW_AT_decl_line(0x49)
    1964                            .dwattr $C$DW$T$111, DW_AT_decl_column(0x17)
TMS320C6x Assembler PC v7.4.2 Thu Mar 19 12:43:15 2015

Tools Copyright (c) 1996-2012 Texas Instruments Incorporated
package/lib/Regression/regress_d_c/./../packages/ti/vlib/src/VLIB_L2_norm_i8/VLIB_L2_norm_i8_d.se66 PAGE   41

    1965                    $C$DW$T$112     .dwtag  DW_TAG_typedef, DW_AT_name("int_least32_t")
    1966                            .dwattr $C$DW$T$112, DW_AT_type(*$C$DW$T$22)
    1967                            .dwattr $C$DW$T$112, DW_AT_language(DW_LANG_C)
    1968                            .dwattr $C$DW$T$112, DW_AT_decl_file("C:/VLIB_Tools/CCSV5_4_0/ccsv5/tools/compiler/C6000/inclu
    1969                            .dwattr $C$DW$T$112, DW_AT_decl_line(0x3e)
    1970                            .dwattr $C$DW$T$112, DW_AT_decl_column(0x17)
    1971                    $C$DW$T$113     .dwtag  DW_TAG_typedef, DW_AT_name("intptr_t")
    1972                            .dwattr $C$DW$T$113, DW_AT_type(*$C$DW$T$10)
    1973                            .dwattr $C$DW$T$113, DW_AT_language(DW_LANG_C)
    1974                            .dwattr $C$DW$T$113, DW_AT_decl_file("C:/VLIB_Tools/CCSV5_4_0/ccsv5/tools/compiler/C6000/inclu
    1975                            .dwattr $C$DW$T$113, DW_AT_decl_line(0x58)
    1976                            .dwattr $C$DW$T$113, DW_AT_decl_column(0x1a)
    1977                    $C$DW$T$11      .dwtag  DW_TAG_base_type
    1978                            .dwattr $C$DW$T$11, DW_AT_encoding(DW_ATE_unsigned)
    1979                            .dwattr $C$DW$T$11, DW_AT_name("unsigned int")
    1980                            .dwattr $C$DW$T$11, DW_AT_byte_size(0x04)
    1981                    $C$DW$T$115     .dwtag  DW_TAG_typedef, DW_AT_name("VLIB_VAL")
    1982                            .dwattr $C$DW$T$115, DW_AT_type(*$C$DW$T$11)
    1983                            .dwattr $C$DW$T$115, DW_AT_language(DW_LANG_C)
    1984                            .dwattr $C$DW$T$115, DW_AT_decl_file(".\..\packages\ti\vlib\src\VLIB_L2_norm_i8\..\common\c66/
    1985                            .dwattr $C$DW$T$115, DW_AT_decl_line(0x5d)
    1986                            .dwattr $C$DW$T$115, DW_AT_decl_column(0x17)
    1987                    $C$DW$T$126     .dwtag  DW_TAG_typedef, DW_AT_name("clock_t")
    1988                            .dwattr $C$DW$T$126, DW_AT_type(*$C$DW$T$11)
    1989                            .dwattr $C$DW$T$126, DW_AT_language(DW_LANG_C)
    1990                            .dwattr $C$DW$T$126, DW_AT_decl_file("C:/VLIB_Tools/CCSV5_4_0/ccsv5/tools/compiler/C6000/inclu
    1991                            .dwattr $C$DW$T$126, DW_AT_decl_line(0x37)
    1992                            .dwattr $C$DW$T$126, DW_AT_decl_column(0x16)
    1993                    $C$DW$T$52      .dwtag  DW_TAG_typedef, DW_AT_name("size_t")
    1994                            .dwattr $C$DW$T$52, DW_AT_type(*$C$DW$T$11)
    1995                            .dwattr $C$DW$T$52, DW_AT_language(DW_LANG_C)
    1996                            .dwattr $C$DW$T$52, DW_AT_decl_file("C:/VLIB_Tools/CCSV5_4_0/ccsv5/tools/compiler/C6000/includ
    1997                            .dwattr $C$DW$T$52, DW_AT_decl_line(0x45)
    1998                            .dwattr $C$DW$T$52, DW_AT_decl_column(0x19)
    1999                    $C$DW$T$119     .dwtag  DW_TAG_typedef, DW_AT_name("time_t")
    2000                            .dwattr $C$DW$T$119, DW_AT_type(*$C$DW$T$11)
    2001                            .dwattr $C$DW$T$119, DW_AT_language(DW_LANG_C)
    2002                            .dwattr $C$DW$T$119, DW_AT_decl_file("C:/VLIB_Tools/CCSV5_4_0/ccsv5/tools/compiler/C6000/inclu
    2003                            .dwattr $C$DW$T$119, DW_AT_decl_line(0x38)
    2004                            .dwattr $C$DW$T$119, DW_AT_decl_column(0x16)
    2005                    $C$DW$T$64      .dwtag  DW_TAG_typedef, DW_AT_name("uint32_t")
    2006                            .dwattr $C$DW$T$64, DW_AT_type(*$C$DW$T$11)
    2007                            .dwattr $C$DW$T$64, DW_AT_language(DW_LANG_C)
    2008                            .dwattr $C$DW$T$64, DW_AT_decl_file("C:/VLIB_Tools/CCSV5_4_0/ccsv5/tools/compiler/C6000/includ
    2009                            .dwattr $C$DW$T$64, DW_AT_decl_line(0x2f)
    2010                            .dwattr $C$DW$T$64, DW_AT_decl_column(0x1c)
    2011                    $C$DW$T$121     .dwtag  DW_TAG_typedef, DW_AT_name("uint_fast16_t")
    2012                            .dwattr $C$DW$T$121, DW_AT_type(*$C$DW$T$64)
    2013                            .dwattr $C$DW$T$121, DW_AT_language(DW_LANG_C)
    2014                            .dwattr $C$DW$T$121, DW_AT_decl_file("C:/VLIB_Tools/CCSV5_4_0/ccsv5/tools/compiler/C6000/inclu
    2015                            .dwattr $C$DW$T$121, DW_AT_decl_line(0x4c)
    2016                            .dwattr $C$DW$T$121, DW_AT_decl_column(0x16)
    2017                    $C$DW$T$122     .dwtag  DW_TAG_typedef, DW_AT_name("uint_fast32_t")
    2018                            .dwattr $C$DW$T$122, DW_AT_type(*$C$DW$T$64)
    2019                            .dwattr $C$DW$T$122, DW_AT_language(DW_LANG_C)
TMS320C6x Assembler PC v7.4.2 Thu Mar 19 12:43:15 2015

Tools Copyright (c) 1996-2012 Texas Instruments Incorporated
package/lib/Regression/regress_d_c/./../packages/ti/vlib/src/VLIB_L2_norm_i8/VLIB_L2_norm_i8_d.se66 PAGE   42

    2020                            .dwattr $C$DW$T$122, DW_AT_decl_file("C:/VLIB_Tools/CCSV5_4_0/ccsv5/tools/compiler/C6000/inclu
    2021                            .dwattr $C$DW$T$122, DW_AT_decl_line(0x4f)
    2022                            .dwattr $C$DW$T$122, DW_AT_decl_column(0x16)
    2023                    $C$DW$T$123     .dwtag  DW_TAG_typedef, DW_AT_name("uint_fast8_t")
    2024                            .dwattr $C$DW$T$123, DW_AT_type(*$C$DW$T$64)
    2025                            .dwattr $C$DW$T$123, DW_AT_language(DW_LANG_C)
    2026                            .dwattr $C$DW$T$123, DW_AT_decl_file("C:/VLIB_Tools/CCSV5_4_0/ccsv5/tools/compiler/C6000/inclu
    2027                            .dwattr $C$DW$T$123, DW_AT_decl_line(0x4a)
    2028                            .dwattr $C$DW$T$123, DW_AT_decl_column(0x16)
    2029                    $C$DW$T$124     .dwtag  DW_TAG_typedef, DW_AT_name("uint_least32_t")
    2030                            .dwattr $C$DW$T$124, DW_AT_type(*$C$DW$T$64)
    2031                            .dwattr $C$DW$T$124, DW_AT_language(DW_LANG_C)
    2032                            .dwattr $C$DW$T$124, DW_AT_decl_file("C:/VLIB_Tools/CCSV5_4_0/ccsv5/tools/compiler/C6000/inclu
    2033                            .dwattr $C$DW$T$124, DW_AT_decl_line(0x3f)
    2034                            .dwattr $C$DW$T$124, DW_AT_decl_column(0x16)
    2035                    $C$DW$T$125     .dwtag  DW_TAG_typedef, DW_AT_name("uintptr_t")
    2036                            .dwattr $C$DW$T$125, DW_AT_type(*$C$DW$T$11)
    2037                            .dwattr $C$DW$T$125, DW_AT_language(DW_LANG_C)
    2038                            .dwattr $C$DW$T$125, DW_AT_decl_file("C:/VLIB_Tools/CCSV5_4_0/ccsv5/tools/compiler/C6000/inclu
    2039                            .dwattr $C$DW$T$125, DW_AT_decl_line(0x59)
    2040                            .dwattr $C$DW$T$125, DW_AT_decl_column(0x1a)
    2041                    $C$DW$T$12      .dwtag  DW_TAG_base_type
    2042                            .dwattr $C$DW$T$12, DW_AT_encoding(DW_ATE_signed)
    2043                            .dwattr $C$DW$T$12, DW_AT_name("__int40_t")
    2044                            .dwattr $C$DW$T$12, DW_AT_byte_size(0x08)
    2045                            .dwattr $C$DW$T$12, DW_AT_bit_size(0x28)
    2046                            .dwattr $C$DW$T$12, DW_AT_bit_offset(0x18)
    2047                    $C$DW$T$127     .dwtag  DW_TAG_typedef, DW_AT_name("int40_t")
    2048                            .dwattr $C$DW$T$127, DW_AT_type(*$C$DW$T$12)
    2049                            .dwattr $C$DW$T$127, DW_AT_language(DW_LANG_C)
    2050                            .dwattr $C$DW$T$127, DW_AT_decl_file("C:/VLIB_Tools/CCSV5_4_0/ccsv5/tools/compiler/C6000/inclu
    2051                            .dwattr $C$DW$T$127, DW_AT_decl_line(0x31)
    2052                            .dwattr $C$DW$T$127, DW_AT_decl_column(0x21)
    2053                    $C$DW$T$128     .dwtag  DW_TAG_typedef, DW_AT_name("int_fast40_t")
    2054                            .dwattr $C$DW$T$128, DW_AT_type(*$C$DW$T$127)
    2055                            .dwattr $C$DW$T$128, DW_AT_language(DW_LANG_C)
    2056                            .dwattr $C$DW$T$128, DW_AT_decl_file("C:/VLIB_Tools/CCSV5_4_0/ccsv5/tools/compiler/C6000/inclu
    2057                            .dwattr $C$DW$T$128, DW_AT_decl_line(0x51)
    2058                            .dwattr $C$DW$T$128, DW_AT_decl_column(0x17)
    2059                    $C$DW$T$129     .dwtag  DW_TAG_typedef, DW_AT_name("int_least40_t")
    2060                            .dwattr $C$DW$T$129, DW_AT_type(*$C$DW$T$127)
    2061                            .dwattr $C$DW$T$129, DW_AT_language(DW_LANG_C)
    2062                            .dwattr $C$DW$T$129, DW_AT_decl_file("C:/VLIB_Tools/CCSV5_4_0/ccsv5/tools/compiler/C6000/inclu
    2063                            .dwattr $C$DW$T$129, DW_AT_decl_line(0x41)
    2064                            .dwattr $C$DW$T$129, DW_AT_decl_column(0x17)
    2065                    $C$DW$T$13      .dwtag  DW_TAG_base_type
    2066                            .dwattr $C$DW$T$13, DW_AT_encoding(DW_ATE_unsigned)
    2067                            .dwattr $C$DW$T$13, DW_AT_name("unsigned __int40_t")
    2068                            .dwattr $C$DW$T$13, DW_AT_byte_size(0x08)
    2069                            .dwattr $C$DW$T$13, DW_AT_bit_size(0x28)
    2070                            .dwattr $C$DW$T$13, DW_AT_bit_offset(0x18)
    2071                    $C$DW$T$130     .dwtag  DW_TAG_typedef, DW_AT_name("uint40_t")
    2072                            .dwattr $C$DW$T$130, DW_AT_type(*$C$DW$T$13)
    2073                            .dwattr $C$DW$T$130, DW_AT_language(DW_LANG_C)
    2074                            .dwattr $C$DW$T$130, DW_AT_decl_file("C:/VLIB_Tools/CCSV5_4_0/ccsv5/tools/compiler/C6000/inclu
TMS320C6x Assembler PC v7.4.2 Thu Mar 19 12:43:15 2015

Tools Copyright (c) 1996-2012 Texas Instruments Incorporated
package/lib/Regression/regress_d_c/./../packages/ti/vlib/src/VLIB_L2_norm_i8/VLIB_L2_norm_i8_d.se66 PAGE   43

    2075                            .dwattr $C$DW$T$130, DW_AT_decl_line(0x32)
    2076                            .dwattr $C$DW$T$130, DW_AT_decl_column(0x20)
    2077                    $C$DW$T$131     .dwtag  DW_TAG_typedef, DW_AT_name("uint_fast40_t")
    2078                            .dwattr $C$DW$T$131, DW_AT_type(*$C$DW$T$130)
    2079                            .dwattr $C$DW$T$131, DW_AT_language(DW_LANG_C)
    2080                            .dwattr $C$DW$T$131, DW_AT_decl_file("C:/VLIB_Tools/CCSV5_4_0/ccsv5/tools/compiler/C6000/inclu
    2081                            .dwattr $C$DW$T$131, DW_AT_decl_line(0x52)
    2082                            .dwattr $C$DW$T$131, DW_AT_decl_column(0x16)
    2083                    $C$DW$T$132     .dwtag  DW_TAG_typedef, DW_AT_name("uint_least40_t")
    2084                            .dwattr $C$DW$T$132, DW_AT_type(*$C$DW$T$130)
    2085                            .dwattr $C$DW$T$132, DW_AT_language(DW_LANG_C)
    2086                            .dwattr $C$DW$T$132, DW_AT_decl_file("C:/VLIB_Tools/CCSV5_4_0/ccsv5/tools/compiler/C6000/inclu
    2087                            .dwattr $C$DW$T$132, DW_AT_decl_line(0x42)
    2088                            .dwattr $C$DW$T$132, DW_AT_decl_column(0x16)
    2089                    $C$DW$T$14      .dwtag  DW_TAG_base_type
    2090                            .dwattr $C$DW$T$14, DW_AT_encoding(DW_ATE_signed)
    2091                            .dwattr $C$DW$T$14, DW_AT_name("long long")
    2092                            .dwattr $C$DW$T$14, DW_AT_byte_size(0x08)
    2093                    $C$DW$T$134     .dwtag  DW_TAG_typedef, DW_AT_name("int64_t")
    2094                            .dwattr $C$DW$T$134, DW_AT_type(*$C$DW$T$14)
    2095                            .dwattr $C$DW$T$134, DW_AT_language(DW_LANG_C)
    2096                            .dwattr $C$DW$T$134, DW_AT_decl_file("C:/VLIB_Tools/CCSV5_4_0/ccsv5/tools/compiler/C6000/inclu
    2097                            .dwattr $C$DW$T$134, DW_AT_decl_line(0x34)
    2098                            .dwattr $C$DW$T$134, DW_AT_decl_column(0x21)
    2099                    $C$DW$T$135     .dwtag  DW_TAG_typedef, DW_AT_name("int_fast64_t")
    2100                            .dwattr $C$DW$T$135, DW_AT_type(*$C$DW$T$134)
    2101                            .dwattr $C$DW$T$135, DW_AT_language(DW_LANG_C)
    2102                            .dwattr $C$DW$T$135, DW_AT_decl_file("C:/VLIB_Tools/CCSV5_4_0/ccsv5/tools/compiler/C6000/inclu
    2103                            .dwattr $C$DW$T$135, DW_AT_decl_line(0x54)
    2104                            .dwattr $C$DW$T$135, DW_AT_decl_column(0x17)
    2105                    $C$DW$T$136     .dwtag  DW_TAG_typedef, DW_AT_name("int_least64_t")
    2106                            .dwattr $C$DW$T$136, DW_AT_type(*$C$DW$T$134)
    2107                            .dwattr $C$DW$T$136, DW_AT_language(DW_LANG_C)
    2108                            .dwattr $C$DW$T$136, DW_AT_decl_file("C:/VLIB_Tools/CCSV5_4_0/ccsv5/tools/compiler/C6000/inclu
    2109                            .dwattr $C$DW$T$136, DW_AT_decl_line(0x44)
    2110                            .dwattr $C$DW$T$136, DW_AT_decl_column(0x17)
    2111                    $C$DW$T$137     .dwtag  DW_TAG_typedef, DW_AT_name("intmax_t")
    2112                            .dwattr $C$DW$T$137, DW_AT_type(*$C$DW$T$14)
    2113                            .dwattr $C$DW$T$137, DW_AT_language(DW_LANG_C)
    2114                            .dwattr $C$DW$T$137, DW_AT_decl_file("C:/VLIB_Tools/CCSV5_4_0/ccsv5/tools/compiler/C6000/inclu
    2115                            .dwattr $C$DW$T$137, DW_AT_decl_line(0x5c)
    2116                            .dwattr $C$DW$T$137, DW_AT_decl_column(0x20)
    2117                    $C$DW$T$15      .dwtag  DW_TAG_base_type
    2118                            .dwattr $C$DW$T$15, DW_AT_encoding(DW_ATE_unsigned)
    2119                            .dwattr $C$DW$T$15, DW_AT_name("unsigned long long")
    2120                            .dwattr $C$DW$T$15, DW_AT_byte_size(0x08)
    2121                    $C$DW$T$139     .dwtag  DW_TAG_pointer_type
    2122                            .dwattr $C$DW$T$139, DW_AT_type(*$C$DW$T$15)
    2123                            .dwattr $C$DW$T$139, DW_AT_address_class(0x20)
    2124                    $C$DW$T$140     .dwtag  DW_TAG_typedef, DW_AT_name("uint64_t")
    2125                            .dwattr $C$DW$T$140, DW_AT_type(*$C$DW$T$15)
    2126                            .dwattr $C$DW$T$140, DW_AT_language(DW_LANG_C)
    2127                            .dwattr $C$DW$T$140, DW_AT_decl_file("C:/VLIB_Tools/CCSV5_4_0/ccsv5/tools/compiler/C6000/inclu
    2128                            .dwattr $C$DW$T$140, DW_AT_decl_line(0x35)
    2129                            .dwattr $C$DW$T$140, DW_AT_decl_column(0x20)
TMS320C6x Assembler PC v7.4.2 Thu Mar 19 12:43:15 2015

Tools Copyright (c) 1996-2012 Texas Instruments Incorporated
package/lib/Regression/regress_d_c/./../packages/ti/vlib/src/VLIB_L2_norm_i8/VLIB_L2_norm_i8_d.se66 PAGE   44

    2130                    
    2131                    $C$DW$T$141     .dwtag  DW_TAG_array_type
    2132                            .dwattr $C$DW$T$141, DW_AT_type(*$C$DW$T$140)
    2133                            .dwattr $C$DW$T$141, DW_AT_language(DW_LANG_C)
    2134                            .dwattr $C$DW$T$141, DW_AT_byte_size(0x10)
    2135                    $C$DW$173       .dwtag  DW_TAG_subrange_type
    2136                            .dwattr $C$DW$173, DW_AT_upper_bound(0x01)
    2137                            .dwendtag $C$DW$T$141
    2138                    
    2139                    $C$DW$T$142     .dwtag  DW_TAG_typedef, DW_AT_name("uint_fast64_t")
    2140                            .dwattr $C$DW$T$142, DW_AT_type(*$C$DW$T$140)
    2141                            .dwattr $C$DW$T$142, DW_AT_language(DW_LANG_C)
    2142                            .dwattr $C$DW$T$142, DW_AT_decl_file("C:/VLIB_Tools/CCSV5_4_0/ccsv5/tools/compiler/C6000/inclu
    2143                            .dwattr $C$DW$T$142, DW_AT_decl_line(0x55)
    2144                            .dwattr $C$DW$T$142, DW_AT_decl_column(0x16)
    2145                    $C$DW$T$143     .dwtag  DW_TAG_typedef, DW_AT_name("uint_least64_t")
    2146                            .dwattr $C$DW$T$143, DW_AT_type(*$C$DW$T$140)
    2147                            .dwattr $C$DW$T$143, DW_AT_language(DW_LANG_C)
    2148                            .dwattr $C$DW$T$143, DW_AT_decl_file("C:/VLIB_Tools/CCSV5_4_0/ccsv5/tools/compiler/C6000/inclu
    2149                            .dwattr $C$DW$T$143, DW_AT_decl_line(0x45)
    2150                            .dwattr $C$DW$T$143, DW_AT_decl_column(0x16)
    2151                    $C$DW$T$144     .dwtag  DW_TAG_typedef, DW_AT_name("uintmax_t")
    2152                            .dwattr $C$DW$T$144, DW_AT_type(*$C$DW$T$15)
    2153                            .dwattr $C$DW$T$144, DW_AT_language(DW_LANG_C)
    2154                            .dwattr $C$DW$T$144, DW_AT_decl_file("C:/VLIB_Tools/CCSV5_4_0/ccsv5/tools/compiler/C6000/inclu
    2155                            .dwattr $C$DW$T$144, DW_AT_decl_line(0x5d)
    2156                            .dwattr $C$DW$T$144, DW_AT_decl_column(0x20)
    2157                    $C$DW$T$16      .dwtag  DW_TAG_base_type
    2158                            .dwattr $C$DW$T$16, DW_AT_encoding(DW_ATE_float)
    2159                            .dwattr $C$DW$T$16, DW_AT_name("float")
    2160                            .dwattr $C$DW$T$16, DW_AT_byte_size(0x04)
    2161                    $C$DW$T$21      .dwtag  DW_TAG_typedef, DW_AT_name("VLIB_F32")
    2162                            .dwattr $C$DW$T$21, DW_AT_type(*$C$DW$T$16)
    2163                            .dwattr $C$DW$T$21, DW_AT_language(DW_LANG_C)
    2164                            .dwattr $C$DW$T$21, DW_AT_decl_file(".\..\packages\ti\vlib\src\VLIB_L2_norm_i8\..\common\c66/V
    2165                            .dwattr $C$DW$T$21, DW_AT_decl_line(0x5b)
    2166                            .dwattr $C$DW$T$21, DW_AT_decl_column(0x0f)
    2167                    $C$DW$T$148     .dwtag  DW_TAG_typedef, DW_AT_name("float32_t")
    2168                            .dwattr $C$DW$T$148, DW_AT_type(*$C$DW$T$16)
    2169                            .dwattr $C$DW$T$148, DW_AT_language(DW_LANG_C)
    2170                            .dwattr $C$DW$T$148, DW_AT_decl_file("C:\VLIB_Tools\CCSV5_4_0\ccsv5\tools\compiler\C6000\inclu
    2171                            .dwattr $C$DW$T$148, DW_AT_decl_line(0x30)
    2172                            .dwattr $C$DW$T$148, DW_AT_decl_column(0x0f)
    2173                    $C$DW$T$17      .dwtag  DW_TAG_base_type
    2174                            .dwattr $C$DW$T$17, DW_AT_encoding(DW_ATE_float)
    2175                            .dwattr $C$DW$T$17, DW_AT_name("double")
    2176                            .dwattr $C$DW$T$17, DW_AT_byte_size(0x08)
    2177                    $C$DW$T$149     .dwtag  DW_TAG_typedef, DW_AT_name("VLIB_D64")
    2178                            .dwattr $C$DW$T$149, DW_AT_type(*$C$DW$T$17)
    2179                            .dwattr $C$DW$T$149, DW_AT_language(DW_LANG_C)
    2180                            .dwattr $C$DW$T$149, DW_AT_decl_file(".\..\packages\ti\vlib\src\VLIB_L2_norm_i8\..\common\c66/
    2181                            .dwattr $C$DW$T$149, DW_AT_decl_line(0x5a)
    2182                            .dwattr $C$DW$T$149, DW_AT_decl_column(0x10)
    2183                    $C$DW$T$150     .dwtag  DW_TAG_typedef, DW_AT_name("__float2_t")
    2184                            .dwattr $C$DW$T$150, DW_AT_type(*$C$DW$T$17)
TMS320C6x Assembler PC v7.4.2 Thu Mar 19 12:43:15 2015

Tools Copyright (c) 1996-2012 Texas Instruments Incorporated
package/lib/Regression/regress_d_c/./../packages/ti/vlib/src/VLIB_L2_norm_i8/VLIB_L2_norm_i8_d.se66 PAGE   45

    2185                            .dwattr $C$DW$T$150, DW_AT_language(DW_LANG_C)
    2186                            .dwattr $C$DW$T$150, DW_AT_decl_file("C:/VLIB_Tools/CCSV5_4_0/ccsv5/tools/compiler/C6000/inclu
    2187                            .dwattr $C$DW$T$150, DW_AT_decl_line(0x5f)
    2188                            .dwattr $C$DW$T$150, DW_AT_decl_column(0x14)
    2189                    $C$DW$T$18      .dwtag  DW_TAG_base_type
    2190                            .dwattr $C$DW$T$18, DW_AT_encoding(DW_ATE_float)
    2191                            .dwattr $C$DW$T$18, DW_AT_name("long double")
    2192                            .dwattr $C$DW$T$18, DW_AT_byte_size(0x08)
    2193                    $C$DW$T$30      .dwtag  DW_TAG_base_type
    2194                            .dwattr $C$DW$T$30, DW_AT_encoding(DW_ATE_signed_char)
    2195                            .dwattr $C$DW$T$30, DW_AT_name("signed char")
    2196                            .dwattr $C$DW$T$30, DW_AT_byte_size(0x01)
    2197                    
    2198                    $C$DW$T$31      .dwtag  DW_TAG_array_type
    2199                            .dwattr $C$DW$T$31, DW_AT_type(*$C$DW$T$30)
    2200                            .dwattr $C$DW$T$31, DW_AT_language(DW_LANG_C)
    2201                            .dwattr $C$DW$T$31, DW_AT_byte_size(0x04)
    2202                    $C$DW$174       .dwtag  DW_TAG_subrange_type
    2203                            .dwattr $C$DW$174, DW_AT_upper_bound(0x03)
    2204                            .dwendtag $C$DW$T$31
    2205                    
    2206                    $C$DW$T$55      .dwtag  DW_TAG_pointer_type
    2207                            .dwattr $C$DW$T$55, DW_AT_type(*$C$DW$T$30)
    2208                            .dwattr $C$DW$T$55, DW_AT_address_class(0x20)
    2209                    $C$DW$T$151     .dwtag  DW_TAG_typedef, DW_AT_name("va_list")
    2210                            .dwattr $C$DW$T$151, DW_AT_type(*$C$DW$T$55)
    2211                            .dwattr $C$DW$T$151, DW_AT_language(DW_LANG_C)
    2212                            .dwattr $C$DW$T$151, DW_AT_decl_file("C:/VLIB_Tools/CCSV5_4_0/ccsv5/tools/compiler/C6000/inclu
    2213                            .dwattr $C$DW$T$151, DW_AT_decl_line(0x2f)
    2214                            .dwattr $C$DW$T$151, DW_AT_decl_column(0x12)
    2215                    $C$DW$T$99      .dwtag  DW_TAG_const_type
    2216                            .dwattr $C$DW$T$99, DW_AT_type(*$C$DW$T$30)
    2217                    $C$DW$T$100     .dwtag  DW_TAG_pointer_type
    2218                            .dwattr $C$DW$T$100, DW_AT_type(*$C$DW$T$99)
    2219                            .dwattr $C$DW$T$100, DW_AT_address_class(0x20)
    2220                    
    2221                    $C$DW$T$152     .dwtag  DW_TAG_array_type
    2222                            .dwattr $C$DW$T$152, DW_AT_type(*$C$DW$T$30)
    2223                            .dwattr $C$DW$T$152, DW_AT_language(DW_LANG_C)
    2224                    $C$DW$175       .dwtag  DW_TAG_subrange_type
    2225                            .dwendtag $C$DW$T$152
    2226                    
    2227                    
    2228                    $C$DW$T$34      .dwtag  DW_TAG_structure_type
    2229                            .dwattr $C$DW$T$34, DW_AT_name("__simd128_int32_t")
    2230                            .dwattr $C$DW$T$34, DW_AT_byte_size(0x10)
    2231                    $C$DW$176       .dwtag  DW_TAG_member
    2232                            .dwattr $C$DW$176, DW_AT_type(*$C$DW$T$33)
    2233                            .dwattr $C$DW$176, DW_AT_name("_v")
    2234                            .dwattr $C$DW$176, DW_AT_TI_symbol_name("_v")
    2235                            .dwattr $C$DW$176, DW_AT_data_member_location[DW_OP_plus_uconst 0x0]
    2236                            .dwattr $C$DW$176, DW_AT_accessibility(DW_ACCESS_public)
    2237                            .dwattr $C$DW$176, DW_AT_decl_file("C:\VLIB_Tools\CCSV5_4_0\ccsv5\tools\compiler\C6000\include
    2238                            .dwattr $C$DW$176, DW_AT_decl_line(0x44)
    2239                            .dwattr $C$DW$176, DW_AT_decl_column(0x01)
TMS320C6x Assembler PC v7.4.2 Thu Mar 19 12:43:15 2015

Tools Copyright (c) 1996-2012 Texas Instruments Incorporated
package/lib/Regression/regress_d_c/./../packages/ti/vlib/src/VLIB_L2_norm_i8/VLIB_L2_norm_i8_d.se66 PAGE   46

    2240                            .dwendtag $C$DW$T$34
    2241                    
    2242                            .dwattr $C$DW$T$34, DW_AT_decl_file("C:\VLIB_Tools\CCSV5_4_0\ccsv5\tools\compiler\C6000\includ
    2243                            .dwattr $C$DW$T$34, DW_AT_decl_line(0x44)
    2244                            .dwattr $C$DW$T$34, DW_AT_decl_column(0x01)
    2245                    $C$DW$T$153     .dwtag  DW_TAG_typedef, DW_AT_name("int32x4_t")
    2246                            .dwattr $C$DW$T$153, DW_AT_type(*$C$DW$T$34)
    2247                            .dwattr $C$DW$T$153, DW_AT_language(DW_LANG_C)
    2248                            .dwattr $C$DW$T$153, DW_AT_decl_file("C:\VLIB_Tools\CCSV5_4_0\ccsv5\tools\compiler\C6000\inclu
    2249                            .dwattr $C$DW$T$153, DW_AT_decl_line(0x44)
    2250                            .dwattr $C$DW$T$153, DW_AT_decl_column(0x01)
    2251                    $C$DW$T$154     .dwtag  DW_TAG_typedef, DW_AT_name("__x128_t")
    2252                            .dwattr $C$DW$T$154, DW_AT_type(*$C$DW$T$153)
    2253                            .dwattr $C$DW$T$154, DW_AT_language(DW_LANG_C)
    2254                            .dwattr $C$DW$T$154, DW_AT_decl_file("C:\VLIB_Tools\CCSV5_4_0\ccsv5\tools\compiler\C6000\inclu
    2255                            .dwattr $C$DW$T$154, DW_AT_decl_line(0x46)
    2256                            .dwattr $C$DW$T$154, DW_AT_decl_column(0x13)
    2257                    
    2258                    $C$DW$T$35      .dwtag  DW_TAG_structure_type
    2259                            .dwattr $C$DW$T$35, DW_AT_name("tm")
    2260                            .dwattr $C$DW$T$35, DW_AT_byte_size(0x24)
    2261                    $C$DW$177       .dwtag  DW_TAG_member
    2262                            .dwattr $C$DW$177, DW_AT_type(*$C$DW$T$10)
    2263                            .dwattr $C$DW$177, DW_AT_name("tm_sec")
    2264                            .dwattr $C$DW$177, DW_AT_TI_symbol_name("tm_sec")
    2265                            .dwattr $C$DW$177, DW_AT_data_member_location[DW_OP_plus_uconst 0x0]
    2266                            .dwattr $C$DW$177, DW_AT_accessibility(DW_ACCESS_public)
    2267                            .dwattr $C$DW$177, DW_AT_decl_file("C:/VLIB_Tools/CCSV5_4_0/ccsv5/tools/compiler/C6000/include
    2268                            .dwattr $C$DW$177, DW_AT_decl_line(0x41)
    2269                            .dwattr $C$DW$177, DW_AT_decl_column(0x09)
    2270                    $C$DW$178       .dwtag  DW_TAG_member
    2271                            .dwattr $C$DW$178, DW_AT_type(*$C$DW$T$10)
    2272                            .dwattr $C$DW$178, DW_AT_name("tm_min")
    2273                            .dwattr $C$DW$178, DW_AT_TI_symbol_name("tm_min")
    2274                            .dwattr $C$DW$178, DW_AT_data_member_location[DW_OP_plus_uconst 0x4]
    2275                            .dwattr $C$DW$178, DW_AT_accessibility(DW_ACCESS_public)
    2276                            .dwattr $C$DW$178, DW_AT_decl_file("C:/VLIB_Tools/CCSV5_4_0/ccsv5/tools/compiler/C6000/include
    2277                            .dwattr $C$DW$178, DW_AT_decl_line(0x42)
    2278                            .dwattr $C$DW$178, DW_AT_decl_column(0x09)
    2279                    $C$DW$179       .dwtag  DW_TAG_member
    2280                            .dwattr $C$DW$179, DW_AT_type(*$C$DW$T$10)
    2281                            .dwattr $C$DW$179, DW_AT_name("tm_hour")
    2282                            .dwattr $C$DW$179, DW_AT_TI_symbol_name("tm_hour")
    2283                            .dwattr $C$DW$179, DW_AT_data_member_location[DW_OP_plus_uconst 0x8]
    2284                            .dwattr $C$DW$179, DW_AT_accessibility(DW_ACCESS_public)
    2285                            .dwattr $C$DW$179, DW_AT_decl_file("C:/VLIB_Tools/CCSV5_4_0/ccsv5/tools/compiler/C6000/include
    2286                            .dwattr $C$DW$179, DW_AT_decl_line(0x43)
    2287                            .dwattr $C$DW$179, DW_AT_decl_column(0x09)
    2288                    $C$DW$180       .dwtag  DW_TAG_member
    2289                            .dwattr $C$DW$180, DW_AT_type(*$C$DW$T$10)
    2290                            .dwattr $C$DW$180, DW_AT_name("tm_mday")
    2291                            .dwattr $C$DW$180, DW_AT_TI_symbol_name("tm_mday")
    2292                            .dwattr $C$DW$180, DW_AT_data_member_location[DW_OP_plus_uconst 0xc]
    2293                            .dwattr $C$DW$180, DW_AT_accessibility(DW_ACCESS_public)
    2294                            .dwattr $C$DW$180, DW_AT_decl_file("C:/VLIB_Tools/CCSV5_4_0/ccsv5/tools/compiler/C6000/include
TMS320C6x Assembler PC v7.4.2 Thu Mar 19 12:43:15 2015

Tools Copyright (c) 1996-2012 Texas Instruments Incorporated
package/lib/Regression/regress_d_c/./../packages/ti/vlib/src/VLIB_L2_norm_i8/VLIB_L2_norm_i8_d.se66 PAGE   47

    2295                            .dwattr $C$DW$180, DW_AT_decl_line(0x44)
    2296                            .dwattr $C$DW$180, DW_AT_decl_column(0x09)
    2297                    $C$DW$181       .dwtag  DW_TAG_member
    2298                            .dwattr $C$DW$181, DW_AT_type(*$C$DW$T$10)
    2299                            .dwattr $C$DW$181, DW_AT_name("tm_mon")
    2300                            .dwattr $C$DW$181, DW_AT_TI_symbol_name("tm_mon")
    2301                            .dwattr $C$DW$181, DW_AT_data_member_location[DW_OP_plus_uconst 0x10]
    2302                            .dwattr $C$DW$181, DW_AT_accessibility(DW_ACCESS_public)
    2303                            .dwattr $C$DW$181, DW_AT_decl_file("C:/VLIB_Tools/CCSV5_4_0/ccsv5/tools/compiler/C6000/include
    2304                            .dwattr $C$DW$181, DW_AT_decl_line(0x45)
    2305                            .dwattr $C$DW$181, DW_AT_decl_column(0x09)
    2306                    $C$DW$182       .dwtag  DW_TAG_member
    2307                            .dwattr $C$DW$182, DW_AT_type(*$C$DW$T$10)
    2308                            .dwattr $C$DW$182, DW_AT_name("tm_year")
    2309                            .dwattr $C$DW$182, DW_AT_TI_symbol_name("tm_year")
    2310                            .dwattr $C$DW$182, DW_AT_data_member_location[DW_OP_plus_uconst 0x14]
    2311                            .dwattr $C$DW$182, DW_AT_accessibility(DW_ACCESS_public)
    2312                            .dwattr $C$DW$182, DW_AT_decl_file("C:/VLIB_Tools/CCSV5_4_0/ccsv5/tools/compiler/C6000/include
    2313                            .dwattr $C$DW$182, DW_AT_decl_line(0x46)
    2314                            .dwattr $C$DW$182, DW_AT_decl_column(0x09)
    2315                    $C$DW$183       .dwtag  DW_TAG_member
    2316                            .dwattr $C$DW$183, DW_AT_type(*$C$DW$T$10)
    2317                            .dwattr $C$DW$183, DW_AT_name("tm_wday")
    2318                            .dwattr $C$DW$183, DW_AT_TI_symbol_name("tm_wday")
    2319                            .dwattr $C$DW$183, DW_AT_data_member_location[DW_OP_plus_uconst 0x18]
    2320                            .dwattr $C$DW$183, DW_AT_accessibility(DW_ACCESS_public)
    2321                            .dwattr $C$DW$183, DW_AT_decl_file("C:/VLIB_Tools/CCSV5_4_0/ccsv5/tools/compiler/C6000/include
    2322                            .dwattr $C$DW$183, DW_AT_decl_line(0x47)
    2323                            .dwattr $C$DW$183, DW_AT_decl_column(0x09)
    2324                    $C$DW$184       .dwtag  DW_TAG_member
    2325                            .dwattr $C$DW$184, DW_AT_type(*$C$DW$T$10)
    2326                            .dwattr $C$DW$184, DW_AT_name("tm_yday")
    2327                            .dwattr $C$DW$184, DW_AT_TI_symbol_name("tm_yday")
    2328                            .dwattr $C$DW$184, DW_AT_data_member_location[DW_OP_plus_uconst 0x1c]
    2329                            .dwattr $C$DW$184, DW_AT_accessibility(DW_ACCESS_public)
    2330                            .dwattr $C$DW$184, DW_AT_decl_file("C:/VLIB_Tools/CCSV5_4_0/ccsv5/tools/compiler/C6000/include
    2331                            .dwattr $C$DW$184, DW_AT_decl_line(0x48)
    2332                            .dwattr $C$DW$184, DW_AT_decl_column(0x09)
    2333                    $C$DW$185       .dwtag  DW_TAG_member
    2334                            .dwattr $C$DW$185, DW_AT_type(*$C$DW$T$10)
    2335                            .dwattr $C$DW$185, DW_AT_name("tm_isdst")
    2336                            .dwattr $C$DW$185, DW_AT_TI_symbol_name("tm_isdst")
    2337                            .dwattr $C$DW$185, DW_AT_data_member_location[DW_OP_plus_uconst 0x20]
    2338                            .dwattr $C$DW$185, DW_AT_accessibility(DW_ACCESS_public)
    2339                            .dwattr $C$DW$185, DW_AT_decl_file("C:/VLIB_Tools/CCSV5_4_0/ccsv5/tools/compiler/C6000/include
    2340                            .dwattr $C$DW$185, DW_AT_decl_line(0x49)
    2341                            .dwattr $C$DW$185, DW_AT_decl_column(0x09)
    2342                            .dwendtag $C$DW$T$35
    2343                    
    2344                            .dwattr $C$DW$T$35, DW_AT_decl_file("C:/VLIB_Tools/CCSV5_4_0/ccsv5/tools/compiler/C6000/includ
    2345                            .dwattr $C$DW$T$35, DW_AT_decl_line(0x3f)
    2346                            .dwattr $C$DW$T$35, DW_AT_decl_column(0x08)
    2347                            .dwattr $C$DW$CU, DW_AT_language(DW_LANG_C)
    2348                    
    2349                    ;***************************************************************
TMS320C6x Assembler PC v7.4.2 Thu Mar 19 12:43:15 2015

Tools Copyright (c) 1996-2012 Texas Instruments Incorporated
package/lib/Regression/regress_d_c/./../packages/ti/vlib/src/VLIB_L2_norm_i8/VLIB_L2_norm_i8_d.se66 PAGE   48

    2350                    ;* DWARF CIE ENTRIES                                           *
    2351                    ;***************************************************************
    2352                    
    2353                    $C$DW$CIE       .dwcie 19
    2354                            .dwcfi  cfa_register, 31
    2355                            .dwcfi  cfa_offset, 0
    2356                            .dwcfi  undefined, 0
    2357                            .dwcfi  undefined, 1
    2358                            .dwcfi  undefined, 2
    2359                            .dwcfi  undefined, 3
    2360                            .dwcfi  undefined, 4
    2361                            .dwcfi  undefined, 5
    2362                            .dwcfi  undefined, 6
    2363                            .dwcfi  undefined, 7
    2364                            .dwcfi  undefined, 8
    2365                            .dwcfi  undefined, 9
    2366                            .dwcfi  same_value, 10
    2367                            .dwcfi  same_value, 11
    2368                            .dwcfi  same_value, 12
    2369                            .dwcfi  same_value, 13
    2370                            .dwcfi  same_value, 14
    2371                            .dwcfi  same_value, 15
    2372                            .dwcfi  undefined, 16
    2373                            .dwcfi  undefined, 17
    2374                            .dwcfi  undefined, 18
    2375                            .dwcfi  undefined, 19
    2376                            .dwcfi  undefined, 20
    2377                            .dwcfi  undefined, 21
    2378                            .dwcfi  undefined, 22
    2379                            .dwcfi  undefined, 23
    2380                            .dwcfi  undefined, 24
    2381                            .dwcfi  undefined, 25
    2382                            .dwcfi  same_value, 26
    2383                            .dwcfi  same_value, 27
    2384                            .dwcfi  same_value, 28
    2385                            .dwcfi  same_value, 29
    2386                            .dwcfi  same_value, 30
    2387                            .dwcfi  same_value, 31
    2388                            .dwcfi  same_value, 32
    2389                            .dwcfi  undefined, 33
    2390                            .dwcfi  undefined, 34
    2391                            .dwcfi  undefined, 35
    2392                            .dwcfi  undefined, 36
    2393                            .dwcfi  undefined, 37
    2394                            .dwcfi  undefined, 38
    2395                            .dwcfi  undefined, 39
    2396                            .dwcfi  undefined, 40
    2397                            .dwcfi  undefined, 41
    2398                            .dwcfi  undefined, 42
    2399                            .dwcfi  undefined, 43
    2400                            .dwcfi  undefined, 44
    2401                            .dwcfi  undefined, 45
    2402                            .dwcfi  undefined, 46
    2403                            .dwcfi  undefined, 47
    2404                            .dwcfi  undefined, 48
TMS320C6x Assembler PC v7.4.2 Thu Mar 19 12:43:15 2015

Tools Copyright (c) 1996-2012 Texas Instruments Incorporated
package/lib/Regression/regress_d_c/./../packages/ti/vlib/src/VLIB_L2_norm_i8/VLIB_L2_norm_i8_d.se66 PAGE   49

    2405                            .dwcfi  undefined, 49
    2406                            .dwcfi  undefined, 50
    2407                            .dwcfi  undefined, 51
    2408                            .dwcfi  undefined, 52
    2409                            .dwcfi  undefined, 53
    2410                            .dwcfi  undefined, 54
    2411                            .dwcfi  undefined, 55
    2412                            .dwcfi  undefined, 56
    2413                            .dwcfi  undefined, 57
    2414                            .dwcfi  undefined, 58
    2415                            .dwcfi  undefined, 59
    2416                            .dwcfi  undefined, 60
    2417                            .dwcfi  undefined, 61
    2418                            .dwcfi  undefined, 62
    2419                            .dwcfi  undefined, 63
    2420                            .dwcfi  undefined, 64
    2421                            .dwcfi  undefined, 65
    2422                            .dwcfi  undefined, 66
    2423                            .dwcfi  undefined, 67
    2424                            .dwcfi  undefined, 68
    2425                            .dwcfi  undefined, 69
    2426                            .dwcfi  undefined, 70
    2427                            .dwcfi  undefined, 71
    2428                            .dwcfi  undefined, 72
    2429                            .dwcfi  undefined, 73
    2430                            .dwcfi  undefined, 74
    2431                            .dwcfi  undefined, 75
    2432                            .dwcfi  undefined, 76
    2433                            .dwcfi  undefined, 77
    2434                            .dwcfi  undefined, 78
    2435                            .dwcfi  undefined, 79
    2436                            .dwcfi  undefined, 80
    2437                            .dwcfi  undefined, 81
    2438                            .dwcfi  undefined, 82
    2439                            .dwcfi  undefined, 83
    2440                            .dwcfi  undefined, 84
    2441                            .dwcfi  undefined, 85
    2442                            .dwcfi  undefined, 86
    2443                            .dwcfi  undefined, 87
    2444                            .dwcfi  undefined, 88
    2445                            .dwcfi  undefined, 89
    2446                            .dwcfi  undefined, 90
    2447                            .dwcfi  undefined, 91
    2448                            .dwcfi  undefined, 92
    2449                            .dwcfi  undefined, 93
    2450                            .dwcfi  undefined, 94
    2451                            .dwcfi  undefined, 95
    2452                            .dwcfi  undefined, 96
    2453                            .dwcfi  undefined, 97
    2454                            .dwcfi  undefined, 98
    2455                            .dwcfi  undefined, 99
    2456                            .dwcfi  undefined, 100
    2457                            .dwcfi  undefined, 101
    2458                            .dwcfi  undefined, 102
    2459                            .dwcfi  undefined, 103
TMS320C6x Assembler PC v7.4.2 Thu Mar 19 12:43:15 2015

Tools Copyright (c) 1996-2012 Texas Instruments Incorporated
package/lib/Regression/regress_d_c/./../packages/ti/vlib/src/VLIB_L2_norm_i8/VLIB_L2_norm_i8_d.se66 PAGE   50

    2460                            .dwcfi  undefined, 104
    2461                            .dwcfi  undefined, 105
    2462                            .dwcfi  undefined, 106
    2463                            .dwcfi  undefined, 107
    2464                            .dwcfi  undefined, 108
    2465                            .dwcfi  undefined, 109
    2466                            .dwcfi  undefined, 110
    2467                            .dwcfi  undefined, 111
    2468                            .dwcfi  undefined, 112
    2469                            .dwcfi  undefined, 113
    2470                            .dwcfi  undefined, 114
    2471                            .dwcfi  undefined, 115
    2472                            .dwcfi  undefined, 116
    2473                            .dwcfi  undefined, 117
    2474                            .dwcfi  undefined, 118
    2475                            .dwcfi  undefined, 119
    2476                            .dwcfi  undefined, 120
    2477                            .dwcfi  undefined, 121
    2478                            .dwcfi  undefined, 122
    2479                            .dwcfi  undefined, 123
    2480                            .dwcfi  undefined, 124
    2481                            .dwcfi  undefined, 125
    2482                            .dwcfi  undefined, 126
    2483                            .dwcfi  undefined, 127
    2484                            .dwendentry
    2485                            .dwendtag $C$DW$CU
    2486                    

No Assembly Errors, No Assembly Warnings
