TMS320C6x Assembler PC v7.4.2 Thu Mar 19 12:40:14 2015

Tools Copyright (c) 1996-2012 Texas Instruments Incorporated
package/lib/Regression/regress_d_c/./../packages/ti/vlib/src/VLIB_Connected_Components_Labeling/VLIB_Connected_Components_Labeling_d.se66 PAGE    1

       1                    ;******************************************************************************
       2                    ;* TMS320C6x C/C++ Codegen                                          PC v7.4.2 *
       3                    ;* Date/Time created: Thu Mar 19 12:40:13 2015                                *
       4                    ;******************************************************************************
       5                            .compiler_opts --abi=eabi --c64p_l1d_workaround=off --endian=little --hll_source=on --long_pre
       6                    
       7                    ;******************************************************************************
       8                    ;* GLOBAL FILE PARAMETERS                                                     *
       9                    ;*                                                                            *
      10                    ;*   Architecture      : TMS320C66xx                                          *
      11                    ;*   Optimization      : Enabled at level 3                                   *
      12                    ;*   Optimizing for    : Speed                                                *
      13                    ;*                       Based on options: -o3, no -ms                        *
      14                    ;*   Endian            : Little                                               *
      15                    ;*   Interrupt Thrshld : 10000                                                *
      16                    ;*   Data Access Model : Far                                                  *
      17                    ;*   Pipelining        : Enabled                                              *
      18                    ;*   Speculate Loads   : Enabled with threshold = 0                           *
      19                    ;*   Memory Aliases    : Presume are aliases (pessimistic)                    *
      20                    ;*   Debug Info        : DWARF Debug w/Optimization                           *
      21                    ;*                                                                            *
      22                    ;******************************************************************************
      23                    
      24                            .asg    A15, FP
      25                            .asg    B14, DP
      26                            .asg    B15, SP
      27                            .global $bss
      28                    
      29                    
      30                    $C$DW$CU        .dwtag  DW_TAG_compile_unit
      31                            .dwattr $C$DW$CU, DW_AT_name("./../packages/ti/vlib/src/VLIB_Connected_Components_Labeling/VLI
      32                            .dwattr $C$DW$CU, DW_AT_producer("TI TMS320C6x C/C++ Codegen PC v7.4.2 Copyright (c) 1996-2012
      33                            .dwattr $C$DW$CU, DW_AT_TI_version(0x01)
      34                            .dwattr $C$DW$CU, DW_AT_comp_dir("c:\nightlybuilds\vlib\ti\vlib\vlib\examples")
      35                    
      36                    $C$DW$1 .dwtag  DW_TAG_subprogram, DW_AT_name("_itoll")
      37                            .dwattr $C$DW$1, DW_AT_TI_symbol_name("_itoll")
      38                            .dwattr $C$DW$1, DW_AT_type(*$C$DW$T$14)
      39                            .dwattr $C$DW$1, DW_AT_declaration
      40                            .dwattr $C$DW$1, DW_AT_external
      41                            .dwattr $C$DW$1, DW_AT_decl_file("C:/VLIB_Tools/CCSV5_4_0/ccsv5/tools/compiler/C6000/include/c
      42                            .dwattr $C$DW$1, DW_AT_decl_line(0xdf)
      43                            .dwattr $C$DW$1, DW_AT_decl_column(0x0b)
      44                    $C$DW$2 .dwtag  DW_TAG_formal_parameter
      45                            .dwattr $C$DW$2, DW_AT_type(*$C$DW$T$11)
      46                    $C$DW$3 .dwtag  DW_TAG_formal_parameter
      47                            .dwattr $C$DW$3, DW_AT_type(*$C$DW$T$11)
      48                            .dwendtag $C$DW$1
      49                    
      50                    
      51                    $C$DW$4 .dwtag  DW_TAG_subprogram, DW_AT_name("fflush")
      52                            .dwattr $C$DW$4, DW_AT_TI_symbol_name("fflush")
      53                            .dwattr $C$DW$4, DW_AT_type(*$C$DW$T$10)
      54                            .dwattr $C$DW$4, DW_AT_declaration
      55                            .dwattr $C$DW$4, DW_AT_external
TMS320C6x Assembler PC v7.4.2 Thu Mar 19 12:40:14 2015

Tools Copyright (c) 1996-2012 Texas Instruments Incorporated
package/lib/Regression/regress_d_c/./../packages/ti/vlib/src/VLIB_Connected_Components_Labeling/VLIB_Connected_Components_Labeling_d.se66 PAGE    2

      56                            .dwattr $C$DW$4, DW_AT_decl_file("C:/VLIB_Tools/CCSV5_4_0/ccsv5/tools/compiler/C6000/include/s
      57                            .dwattr $C$DW$4, DW_AT_decl_line(0xaf)
      58                            .dwattr $C$DW$4, DW_AT_decl_column(0x1d)
      59                    $C$DW$5 .dwtag  DW_TAG_formal_parameter
      60                            .dwattr $C$DW$5, DW_AT_type(*$C$DW$T$96)
      61                            .dwendtag $C$DW$4
      62                    
      63                    
      64                    $C$DW$6 .dwtag  DW_TAG_subprogram, DW_AT_name("printf")
      65                            .dwattr $C$DW$6, DW_AT_TI_symbol_name("printf")
      66                            .dwattr $C$DW$6, DW_AT_type(*$C$DW$T$10)
      67                            .dwattr $C$DW$6, DW_AT_declaration
      68                            .dwattr $C$DW$6, DW_AT_external
      69                            .dwattr $C$DW$6, DW_AT_decl_file("C:/VLIB_Tools/CCSV5_4_0/ccsv5/tools/compiler/C6000/include/s
      70                            .dwattr $C$DW$6, DW_AT_decl_line(0xb8)
      71                            .dwattr $C$DW$6, DW_AT_decl_column(0x19)
      72                    $C$DW$7 .dwtag  DW_TAG_formal_parameter
      73                            .dwattr $C$DW$7, DW_AT_type(*$C$DW$T$215)
      74                    $C$DW$8 .dwtag  DW_TAG_unspecified_parameters
      75                            .dwendtag $C$DW$6
      76                    
      77                    
      78                    $C$DW$9 .dwtag  DW_TAG_subprogram, DW_AT_name("sprintf")
      79                            .dwattr $C$DW$9, DW_AT_TI_symbol_name("sprintf")
      80                            .dwattr $C$DW$9, DW_AT_type(*$C$DW$T$10)
      81                            .dwattr $C$DW$9, DW_AT_declaration
      82                            .dwattr $C$DW$9, DW_AT_external
      83                            .dwattr $C$DW$9, DW_AT_decl_file("C:/VLIB_Tools/CCSV5_4_0/ccsv5/tools/compiler/C6000/include/s
      84                            .dwattr $C$DW$9, DW_AT_decl_line(0xbc)
      85                            .dwattr $C$DW$9, DW_AT_decl_column(0x19)
      86                    $C$DW$10        .dwtag  DW_TAG_formal_parameter
      87                            .dwattr $C$DW$10, DW_AT_type(*$C$DW$T$149)
      88                    $C$DW$11        .dwtag  DW_TAG_formal_parameter
      89                            .dwattr $C$DW$11, DW_AT_type(*$C$DW$T$215)
      90                    $C$DW$12        .dwtag  DW_TAG_unspecified_parameters
      91                            .dwendtag $C$DW$9
      92                    
      93                    
      94                    $C$DW$13        .dwtag  DW_TAG_subprogram, DW_AT_name("memset")
      95                            .dwattr $C$DW$13, DW_AT_TI_symbol_name("memset")
      96                            .dwattr $C$DW$13, DW_AT_type(*$C$DW$T$3)
      97                            .dwattr $C$DW$13, DW_AT_declaration
      98                            .dwattr $C$DW$13, DW_AT_external
      99                            .dwattr $C$DW$13, DW_AT_decl_file("C:/VLIB_Tools/CCSV5_4_0/ccsv5/tools/compiler/C6000/include/
     100                            .dwattr $C$DW$13, DW_AT_decl_line(0x5b)
     101                            .dwattr $C$DW$13, DW_AT_decl_column(0x16)
     102                    $C$DW$14        .dwtag  DW_TAG_formal_parameter
     103                            .dwattr $C$DW$14, DW_AT_type(*$C$DW$T$3)
     104                    $C$DW$15        .dwtag  DW_TAG_formal_parameter
     105                            .dwattr $C$DW$15, DW_AT_type(*$C$DW$T$10)
     106                    $C$DW$16        .dwtag  DW_TAG_formal_parameter
     107                            .dwattr $C$DW$16, DW_AT_type(*$C$DW$T$140)
     108                            .dwendtag $C$DW$13
     109                    
     110                    
TMS320C6x Assembler PC v7.4.2 Thu Mar 19 12:40:14 2015

Tools Copyright (c) 1996-2012 Texas Instruments Incorporated
package/lib/Regression/regress_d_c/./../packages/ti/vlib/src/VLIB_Connected_Components_Labeling/VLIB_Connected_Components_Labeling_d.se66 PAGE    3

     111                    $C$DW$17        .dwtag  DW_TAG_subprogram, DW_AT_name("malloc")
     112                            .dwattr $C$DW$17, DW_AT_TI_symbol_name("malloc")
     113                            .dwattr $C$DW$17, DW_AT_type(*$C$DW$T$3)
     114                            .dwattr $C$DW$17, DW_AT_declaration
     115                            .dwattr $C$DW$17, DW_AT_external
     116                            .dwattr $C$DW$17, DW_AT_decl_file("C:/VLIB_Tools/CCSV5_4_0/ccsv5/tools/compiler/C6000/include/
     117                            .dwattr $C$DW$17, DW_AT_decl_line(0x82)
     118                            .dwattr $C$DW$17, DW_AT_decl_column(0x19)
     119                    $C$DW$18        .dwtag  DW_TAG_formal_parameter
     120                            .dwattr $C$DW$18, DW_AT_type(*$C$DW$T$140)
     121                            .dwendtag $C$DW$17
     122                    
     123                    
     124                    $C$DW$19        .dwtag  DW_TAG_subprogram, DW_AT_name("free")
     125                            .dwattr $C$DW$19, DW_AT_TI_symbol_name("free")
     126                            .dwattr $C$DW$19, DW_AT_declaration
     127                            .dwattr $C$DW$19, DW_AT_external
     128                            .dwattr $C$DW$19, DW_AT_decl_file("C:/VLIB_Tools/CCSV5_4_0/ccsv5/tools/compiler/C6000/include/
     129                            .dwattr $C$DW$19, DW_AT_decl_line(0x86)
     130                            .dwattr $C$DW$19, DW_AT_decl_column(0x19)
     131                    $C$DW$20        .dwtag  DW_TAG_formal_parameter
     132                            .dwattr $C$DW$20, DW_AT_type(*$C$DW$T$3)
     133                            .dwendtag $C$DW$19
     134                    
     135                    
     136                    $C$DW$21        .dwtag  DW_TAG_subprogram, DW_AT_name("VLIB_cache_inval")
     137                            .dwattr $C$DW$21, DW_AT_TI_symbol_name("VLIB_cache_inval")
     138                            .dwattr $C$DW$21, DW_AT_type(*$C$DW$T$10)
     139                            .dwattr $C$DW$21, DW_AT_declaration
     140                            .dwattr $C$DW$21, DW_AT_external
     141                            .dwattr $C$DW$21, DW_AT_decl_file(".\..\packages\ti\vlib\src\VLIB_Connected_Components_Labelin
     142                            .dwattr $C$DW$21, DW_AT_decl_line(0x58)
     143                            .dwattr $C$DW$21, DW_AT_decl_column(0x05)
     144                    
     145                    $C$DW$22        .dwtag  DW_TAG_subprogram, DW_AT_name("VLIB_printErrCode")
     146                            .dwattr $C$DW$22, DW_AT_TI_symbol_name("VLIB_printErrCode")
     147                            .dwattr $C$DW$22, DW_AT_declaration
     148                            .dwattr $C$DW$22, DW_AT_external
     149                            .dwattr $C$DW$22, DW_AT_decl_file(".\..\packages\ti\vlib\src\VLIB_Connected_Components_Labelin
     150                            .dwattr $C$DW$22, DW_AT_decl_line(0x97)
     151                            .dwattr $C$DW$22, DW_AT_decl_column(0x06)
     152                    $C$DW$23        .dwtag  DW_TAG_formal_parameter
     153                            .dwattr $C$DW$23, DW_AT_type(*$C$DW$T$48)
     154                            .dwendtag $C$DW$22
     155                    
     156                    
     157                    $C$DW$24        .dwtag  DW_TAG_subprogram, DW_AT_name("VLIB_profile_init")
     158                            .dwattr $C$DW$24, DW_AT_TI_symbol_name("VLIB_profile_init")
     159                            .dwattr $C$DW$24, DW_AT_declaration
     160                            .dwattr $C$DW$24, DW_AT_external
     161                            .dwattr $C$DW$24, DW_AT_decl_file(".\..\packages\ti\vlib\src\VLIB_Connected_Components_Labelin
     162                            .dwattr $C$DW$24, DW_AT_decl_line(0x7b)
     163                            .dwattr $C$DW$24, DW_AT_decl_column(0x06)
     164                    $C$DW$25        .dwtag  DW_TAG_formal_parameter
     165                            .dwattr $C$DW$25, DW_AT_type(*$C$DW$T$10)
TMS320C6x Assembler PC v7.4.2 Thu Mar 19 12:40:14 2015

Tools Copyright (c) 1996-2012 Texas Instruments Incorporated
package/lib/Regression/regress_d_c/./../packages/ti/vlib/src/VLIB_Connected_Components_Labeling/VLIB_Connected_Components_Labeling_d.se66 PAGE    4

     166                    $C$DW$26        .dwtag  DW_TAG_formal_parameter
     167                            .dwattr $C$DW$26, DW_AT_type(*$C$DW$T$149)
     168                            .dwendtag $C$DW$24
     169                    
     170                    
     171                    $C$DW$27        .dwtag  DW_TAG_subprogram, DW_AT_name("VLIB_formula_add_test")
     172                            .dwattr $C$DW$27, DW_AT_TI_symbol_name("VLIB_formula_add_test")
     173                            .dwattr $C$DW$27, DW_AT_declaration
     174                            .dwattr $C$DW$27, DW_AT_external
     175                            .dwattr $C$DW$27, DW_AT_decl_file(".\..\packages\ti\vlib\src\VLIB_Connected_Components_Labelin
     176                            .dwattr $C$DW$27, DW_AT_decl_line(0x7d)
     177                            .dwattr $C$DW$27, DW_AT_decl_column(0x06)
     178                    $C$DW$28        .dwtag  DW_TAG_formal_parameter
     179                            .dwattr $C$DW$28, DW_AT_type(*$C$DW$T$10)
     180                    $C$DW$29        .dwtag  DW_TAG_formal_parameter
     181                            .dwattr $C$DW$29, DW_AT_type(*$C$DW$T$10)
     182                    $C$DW$30        .dwtag  DW_TAG_formal_parameter
     183                            .dwattr $C$DW$30, DW_AT_type(*$C$DW$T$10)
     184                    $C$DW$31        .dwtag  DW_TAG_formal_parameter
     185                            .dwattr $C$DW$31, DW_AT_type(*$C$DW$T$10)
     186                    $C$DW$32        .dwtag  DW_TAG_formal_parameter
     187                            .dwattr $C$DW$32, DW_AT_type(*$C$DW$T$149)
     188                    $C$DW$33        .dwtag  DW_TAG_formal_parameter
     189                            .dwattr $C$DW$33, DW_AT_type(*$C$DW$T$10)
     190                            .dwendtag $C$DW$27
     191                    
     192                    
     193                    $C$DW$34        .dwtag  DW_TAG_subprogram, DW_AT_name("VLIB_skip_test")
     194                            .dwattr $C$DW$34, DW_AT_TI_symbol_name("VLIB_skip_test")
     195                            .dwattr $C$DW$34, DW_AT_declaration
     196                            .dwattr $C$DW$34, DW_AT_external
     197                            .dwattr $C$DW$34, DW_AT_decl_file(".\..\packages\ti\vlib\src\VLIB_Connected_Components_Labelin
     198                            .dwattr $C$DW$34, DW_AT_decl_line(0x7e)
     199                            .dwattr $C$DW$34, DW_AT_decl_column(0x06)
     200                    $C$DW$35        .dwtag  DW_TAG_formal_parameter
     201                            .dwattr $C$DW$35, DW_AT_type(*$C$DW$T$149)
     202                            .dwendtag $C$DW$34
     203                    
     204                    
     205                    $C$DW$36        .dwtag  DW_TAG_subprogram, DW_AT_name("VLIB_profile_cycle_report")
     206                            .dwattr $C$DW$36, DW_AT_TI_symbol_name("VLIB_profile_cycle_report")
     207                            .dwattr $C$DW$36, DW_AT_declaration
     208                            .dwattr $C$DW$36, DW_AT_external
     209                            .dwattr $C$DW$36, DW_AT_decl_file(".\..\packages\ti\vlib\src\VLIB_Connected_Components_Labelin
     210                            .dwattr $C$DW$36, DW_AT_decl_line(0x7f)
     211                            .dwattr $C$DW$36, DW_AT_decl_column(0x06)
     212                    $C$DW$37        .dwtag  DW_TAG_formal_parameter
     213                            .dwattr $C$DW$37, DW_AT_type(*$C$DW$T$10)
     214                    $C$DW$38        .dwtag  DW_TAG_formal_parameter
     215                            .dwattr $C$DW$38, DW_AT_type(*$C$DW$T$149)
     216                    $C$DW$39        .dwtag  DW_TAG_formal_parameter
     217                            .dwattr $C$DW$39, DW_AT_type(*$C$DW$T$149)
     218                            .dwendtag $C$DW$36
     219                    
     220                    
TMS320C6x Assembler PC v7.4.2 Thu Mar 19 12:40:14 2015

Tools Copyright (c) 1996-2012 Texas Instruments Incorporated
package/lib/Regression/regress_d_c/./../packages/ti/vlib/src/VLIB_Connected_Components_Labeling/VLIB_Connected_Components_Labeling_d.se66 PAGE    5

     221                    $C$DW$40        .dwtag  DW_TAG_subprogram, DW_AT_name("initStack")
     222                            .dwattr $C$DW$40, DW_AT_TI_symbol_name("initStack")
     223                            .dwattr $C$DW$40, DW_AT_declaration
     224                            .dwattr $C$DW$40, DW_AT_external
     225                            .dwattr $C$DW$40, DW_AT_decl_file(".\..\packages\ti\vlib\src\VLIB_Connected_Components_Labelin
     226                            .dwattr $C$DW$40, DW_AT_decl_line(0x80)
     227                            .dwattr $C$DW$40, DW_AT_decl_column(0x06)
     228                    $C$DW$41        .dwtag  DW_TAG_formal_parameter
     229                            .dwattr $C$DW$41, DW_AT_type(*$C$DW$T$73)
     230                            .dwendtag $C$DW$40
     231                    
     232                    
     233                    $C$DW$42        .dwtag  DW_TAG_subprogram, DW_AT_name("setStackDepth")
     234                            .dwattr $C$DW$42, DW_AT_TI_symbol_name("setStackDepth")
     235                            .dwattr $C$DW$42, DW_AT_declaration
     236                            .dwattr $C$DW$42, DW_AT_external
     237                            .dwattr $C$DW$42, DW_AT_decl_file(".\..\packages\ti\vlib\src\VLIB_Connected_Components_Labelin
     238                            .dwattr $C$DW$42, DW_AT_decl_line(0x81)
     239                            .dwattr $C$DW$42, DW_AT_decl_column(0x06)
     240                    
     241                    $C$DW$43        .dwtag  DW_TAG_subprogram, DW_AT_name("getSP")
     242                            .dwattr $C$DW$43, DW_AT_TI_symbol_name("getSP")
     243                            .dwattr $C$DW$43, DW_AT_type(*$C$DW$T$73)
     244                            .dwattr $C$DW$43, DW_AT_declaration
     245                            .dwattr $C$DW$43, DW_AT_external
     246                            .dwattr $C$DW$43, DW_AT_decl_file(".\..\packages\ti\vlib\src\VLIB_Connected_Components_Labelin
     247                            .dwattr $C$DW$43, DW_AT_decl_line(0x82)
     248                            .dwattr $C$DW$43, DW_AT_decl_column(0x0a)
     249                    
     250                    $C$DW$44        .dwtag  DW_TAG_subprogram, DW_AT_name("VLIB_stack_memory")
     251                            .dwattr $C$DW$44, DW_AT_TI_symbol_name("VLIB_stack_memory")
     252                            .dwattr $C$DW$44, DW_AT_declaration
     253                            .dwattr $C$DW$44, DW_AT_external
     254                            .dwattr $C$DW$44, DW_AT_decl_file(".\..\packages\ti\vlib\src\VLIB_Connected_Components_Labelin
     255                            .dwattr $C$DW$44, DW_AT_decl_line(0x83)
     256                            .dwattr $C$DW$44, DW_AT_decl_column(0x06)
     257                    
     258                    $C$DW$45        .dwtag  DW_TAG_subprogram, DW_AT_name("VLIB_fillBuffer")
     259                            .dwattr $C$DW$45, DW_AT_TI_symbol_name("VLIB_fillBuffer")
     260                            .dwattr $C$DW$45, DW_AT_declaration
     261                            .dwattr $C$DW$45, DW_AT_external
     262                            .dwattr $C$DW$45, DW_AT_decl_file(".\..\packages\ti\vlib\src\VLIB_Connected_Components_Labelin
     263                            .dwattr $C$DW$45, DW_AT_decl_line(0x77)
     264                            .dwattr $C$DW$45, DW_AT_decl_column(0x06)
     265                    $C$DW$46        .dwtag  DW_TAG_formal_parameter
     266                            .dwattr $C$DW$46, DW_AT_type(*$C$DW$T$50)
     267                    $C$DW$47        .dwtag  DW_TAG_formal_parameter
     268                            .dwattr $C$DW$47, DW_AT_type(*$C$DW$T$50)
     269                    $C$DW$48        .dwtag  DW_TAG_formal_parameter
     270                            .dwattr $C$DW$48, DW_AT_type(*$C$DW$T$3)
     271                    $C$DW$49        .dwtag  DW_TAG_formal_parameter
     272                            .dwattr $C$DW$49, DW_AT_type(*$C$DW$T$3)
     273                    $C$DW$50        .dwtag  DW_TAG_formal_parameter
     274                            .dwattr $C$DW$50, DW_AT_type(*$C$DW$T$54)
     275                    $C$DW$51        .dwtag  DW_TAG_formal_parameter
TMS320C6x Assembler PC v7.4.2 Thu Mar 19 12:40:14 2015

Tools Copyright (c) 1996-2012 Texas Instruments Incorporated
package/lib/Regression/regress_d_c/./../packages/ti/vlib/src/VLIB_Connected_Components_Labeling/VLIB_Connected_Components_Labeling_d.se66 PAGE    6

     276                            .dwattr $C$DW$51, DW_AT_type(*$C$DW$T$54)
     277                    $C$DW$52        .dwtag  DW_TAG_formal_parameter
     278                            .dwattr $C$DW$52, DW_AT_type(*$C$DW$T$54)
     279                    $C$DW$53        .dwtag  DW_TAG_formal_parameter
     280                            .dwattr $C$DW$53, DW_AT_type(*$C$DW$T$50)
     281                    $C$DW$54        .dwtag  DW_TAG_formal_parameter
     282                            .dwattr $C$DW$54, DW_AT_type(*$C$DW$T$149)
     283                            .dwendtag $C$DW$45
     284                    
     285                    
     286                    $C$DW$55        .dwtag  DW_TAG_subprogram, DW_AT_name("VLIB_calcConnectedComponentsMaxBufferSize")
     287                            .dwattr $C$DW$55, DW_AT_TI_symbol_name("VLIB_calcConnectedComponentsMaxBufferSize")
     288                            .dwattr $C$DW$55, DW_AT_type(*$C$DW$T$66)
     289                            .dwattr $C$DW$55, DW_AT_declaration
     290                            .dwattr $C$DW$55, DW_AT_external
     291                            .dwattr $C$DW$55, DW_AT_decl_file(".\..\packages\ti\vlib\src\VLIB_Connected_Components_Labelin
     292                            .dwattr $C$DW$55, DW_AT_decl_line(0x66)
     293                            .dwattr $C$DW$55, DW_AT_decl_column(0x0d)
     294                    $C$DW$56        .dwtag  DW_TAG_formal_parameter
     295                            .dwattr $C$DW$56, DW_AT_type(*$C$DW$T$67)
     296                    $C$DW$57        .dwtag  DW_TAG_formal_parameter
     297                            .dwattr $C$DW$57, DW_AT_type(*$C$DW$T$67)
     298                    $C$DW$58        .dwtag  DW_TAG_formal_parameter
     299                            .dwattr $C$DW$58, DW_AT_type(*$C$DW$T$48)
     300                    $C$DW$59        .dwtag  DW_TAG_formal_parameter
     301                            .dwattr $C$DW$59, DW_AT_type(*$C$DW$T$68)
     302                            .dwendtag $C$DW$55
     303                    
     304                    
     305                    $C$DW$60        .dwtag  DW_TAG_subprogram, DW_AT_name("VLIB_initConnectedComponentsList")
     306                            .dwattr $C$DW$60, DW_AT_TI_symbol_name("VLIB_initConnectedComponentsList")
     307                            .dwattr $C$DW$60, DW_AT_type(*$C$DW$T$66)
     308                            .dwattr $C$DW$60, DW_AT_declaration
     309                            .dwattr $C$DW$60, DW_AT_external
     310                            .dwattr $C$DW$60, DW_AT_decl_file(".\..\packages\ti\vlib\src\VLIB_Connected_Components_Labelin
     311                            .dwattr $C$DW$60, DW_AT_decl_line(0x75)
     312                            .dwattr $C$DW$60, DW_AT_decl_column(0x0d)
     313                    $C$DW$61        .dwtag  DW_TAG_formal_parameter
     314                            .dwattr $C$DW$61, DW_AT_type(*$C$DW$T$71)
     315                    $C$DW$62        .dwtag  DW_TAG_formal_parameter
     316                            .dwattr $C$DW$62, DW_AT_type(*$C$DW$T$3)
     317                    $C$DW$63        .dwtag  DW_TAG_formal_parameter
     318                            .dwattr $C$DW$63, DW_AT_type(*$C$DW$T$48)
     319                            .dwendtag $C$DW$60
     320                    
     321                    
     322                    $C$DW$64        .dwtag  DW_TAG_subprogram, DW_AT_name("VLIB_createConnectedComponentsList")
     323                            .dwattr $C$DW$64, DW_AT_TI_symbol_name("VLIB_createConnectedComponentsList")
     324                            .dwattr $C$DW$64, DW_AT_type(*$C$DW$T$66)
     325                            .dwattr $C$DW$64, DW_AT_declaration
     326                            .dwattr $C$DW$64, DW_AT_external
     327                            .dwattr $C$DW$64, DW_AT_decl_file(".\..\packages\ti\vlib\src\VLIB_Connected_Components_Labelin
     328                            .dwattr $C$DW$64, DW_AT_decl_line(0x88)
     329                            .dwattr $C$DW$64, DW_AT_decl_column(0x0d)
     330                    $C$DW$65        .dwtag  DW_TAG_formal_parameter
TMS320C6x Assembler PC v7.4.2 Thu Mar 19 12:40:14 2015

Tools Copyright (c) 1996-2012 Texas Instruments Incorporated
package/lib/Regression/regress_d_c/./../packages/ti/vlib/src/VLIB_Connected_Components_Labeling/VLIB_Connected_Components_Labeling_d.se66 PAGE    7

     331                            .dwattr $C$DW$65, DW_AT_type(*$C$DW$T$71)
     332                    $C$DW$66        .dwtag  DW_TAG_formal_parameter
     333                            .dwattr $C$DW$66, DW_AT_type(*$C$DW$T$54)
     334                    $C$DW$67        .dwtag  DW_TAG_formal_parameter
     335                            .dwattr $C$DW$67, DW_AT_type(*$C$DW$T$54)
     336                    $C$DW$68        .dwtag  DW_TAG_formal_parameter
     337                            .dwattr $C$DW$68, DW_AT_type(*$C$DW$T$74)
     338                    $C$DW$69        .dwtag  DW_TAG_formal_parameter
     339                            .dwattr $C$DW$69, DW_AT_type(*$C$DW$T$48)
     340                    $C$DW$70        .dwtag  DW_TAG_formal_parameter
     341                            .dwattr $C$DW$70, DW_AT_type(*$C$DW$T$48)
     342                            .dwendtag $C$DW$64
     343                    
     344                    
     345                    $C$DW$71        .dwtag  DW_TAG_subprogram, DW_AT_name("VLIB_getNumCCs")
     346                            .dwattr $C$DW$71, DW_AT_TI_symbol_name("VLIB_getNumCCs")
     347                            .dwattr $C$DW$71, DW_AT_type(*$C$DW$T$66)
     348                            .dwattr $C$DW$71, DW_AT_declaration
     349                            .dwattr $C$DW$71, DW_AT_external
     350                            .dwattr $C$DW$71, DW_AT_decl_file(".\..\packages\ti\vlib\src\VLIB_Connected_Components_Labelin
     351                            .dwattr $C$DW$71, DW_AT_decl_line(0x99)
     352                            .dwattr $C$DW$71, DW_AT_decl_column(0x0d)
     353                    $C$DW$72        .dwtag  DW_TAG_formal_parameter
     354                            .dwattr $C$DW$72, DW_AT_type(*$C$DW$T$71)
     355                    $C$DW$73        .dwtag  DW_TAG_formal_parameter
     356                            .dwattr $C$DW$73, DW_AT_type(*$C$DW$T$68)
     357                            .dwendtag $C$DW$71
     358                    
     359                    
     360                    $C$DW$74        .dwtag  DW_TAG_subprogram, DW_AT_name("VLIB_getCCFeatures")
     361                            .dwattr $C$DW$74, DW_AT_TI_symbol_name("VLIB_getCCFeatures")
     362                            .dwattr $C$DW$74, DW_AT_type(*$C$DW$T$66)
     363                            .dwattr $C$DW$74, DW_AT_declaration
     364                            .dwattr $C$DW$74, DW_AT_external
     365                            .dwattr $C$DW$74, DW_AT_decl_file(".\..\packages\ti\vlib\src\VLIB_Connected_Components_Labelin
     366                            .dwattr $C$DW$74, DW_AT_decl_line(0xab)
     367                            .dwattr $C$DW$74, DW_AT_decl_column(0x0d)
     368                    $C$DW$75        .dwtag  DW_TAG_formal_parameter
     369                            .dwattr $C$DW$75, DW_AT_type(*$C$DW$T$71)
     370                    $C$DW$76        .dwtag  DW_TAG_formal_parameter
     371                            .dwattr $C$DW$76, DW_AT_type(*$C$DW$T$53)
     372                    $C$DW$77        .dwtag  DW_TAG_formal_parameter
     373                            .dwattr $C$DW$77, DW_AT_type(*$C$DW$T$67)
     374                            .dwendtag $C$DW$74
     375                    
     376                    
     377                    $C$DW$78        .dwtag  DW_TAG_subprogram, DW_AT_name("VLIB_createCCMap8Bit")
     378                            .dwattr $C$DW$78, DW_AT_TI_symbol_name("VLIB_createCCMap8Bit")
     379                            .dwattr $C$DW$78, DW_AT_type(*$C$DW$T$66)
     380                            .dwattr $C$DW$78, DW_AT_declaration
     381                            .dwattr $C$DW$78, DW_AT_external
     382                            .dwattr $C$DW$78, DW_AT_decl_file(".\..\packages\ti\vlib\src\VLIB_Connected_Components_Labelin
     383                            .dwattr $C$DW$78, DW_AT_decl_line(0xc0)
     384                            .dwattr $C$DW$78, DW_AT_decl_column(0x0d)
     385                    $C$DW$79        .dwtag  DW_TAG_formal_parameter
TMS320C6x Assembler PC v7.4.2 Thu Mar 19 12:40:14 2015

Tools Copyright (c) 1996-2012 Texas Instruments Incorporated
package/lib/Regression/regress_d_c/./../packages/ti/vlib/src/VLIB_Connected_Components_Labeling/VLIB_Connected_Components_Labeling_d.se66 PAGE    8

     386                            .dwattr $C$DW$79, DW_AT_type(*$C$DW$T$71)
     387                    $C$DW$80        .dwtag  DW_TAG_formal_parameter
     388                            .dwattr $C$DW$80, DW_AT_type(*$C$DW$T$78)
     389                    $C$DW$81        .dwtag  DW_TAG_formal_parameter
     390                            .dwattr $C$DW$81, DW_AT_type(*$C$DW$T$79)
     391                    $C$DW$82        .dwtag  DW_TAG_formal_parameter
     392                            .dwattr $C$DW$82, DW_AT_type(*$C$DW$T$79)
     393                            .dwendtag $C$DW$78
     394                    
     395                    
     396                    $C$DW$83        .dwtag  DW_TAG_subprogram, DW_AT_name("VLIB_GetSizeOfCCHandle")
     397                            .dwattr $C$DW$83, DW_AT_TI_symbol_name("VLIB_GetSizeOfCCHandle")
     398                            .dwattr $C$DW$83, DW_AT_type(*$C$DW$T$48)
     399                            .dwattr $C$DW$83, DW_AT_declaration
     400                            .dwattr $C$DW$83, DW_AT_external
     401                            .dwattr $C$DW$83, DW_AT_decl_file(".\..\packages\ti\vlib\src\VLIB_Connected_Components_Labelin
     402                            .dwattr $C$DW$83, DW_AT_decl_line(0xcd)
     403                            .dwattr $C$DW$83, DW_AT_decl_column(0x09)
     404                    
     405                    $C$DW$84        .dwtag  DW_TAG_subprogram, DW_AT_name("ccl_getTestParams")
     406                            .dwattr $C$DW$84, DW_AT_TI_symbol_name("ccl_getTestParams")
     407                            .dwattr $C$DW$84, DW_AT_declaration
     408                            .dwattr $C$DW$84, DW_AT_external
     409                            .dwattr $C$DW$84, DW_AT_decl_file(".\..\packages\ti\vlib\src\VLIB_Connected_Components_Labelin
     410                            .dwattr $C$DW$84, DW_AT_decl_line(0x2f)
     411                            .dwattr $C$DW$84, DW_AT_decl_column(0x06)
     412                    $C$DW$85        .dwtag  DW_TAG_formal_parameter
     413                            .dwattr $C$DW$85, DW_AT_type(*$C$DW$T$105)
     414                    $C$DW$86        .dwtag  DW_TAG_formal_parameter
     415                            .dwattr $C$DW$86, DW_AT_type(*$C$DW$T$68)
     416                            .dwendtag $C$DW$84
     417                    
     418                    $C$DW$87        .dwtag  DW_TAG_variable, DW_AT_name("_ftable")
     419                            .dwattr $C$DW$87, DW_AT_TI_symbol_name("_ftable")
     420                            .dwattr $C$DW$87, DW_AT_type(*$C$DW$T$97)
     421                            .dwattr $C$DW$87, DW_AT_declaration
     422                            .dwattr $C$DW$87, DW_AT_external
     423                            .dwattr $C$DW$87, DW_AT_decl_file("C:/VLIB_Tools/CCSV5_4_0/ccsv5/tools/compiler/C6000/include/
     424                            .dwattr $C$DW$87, DW_AT_decl_line(0x97)
     425                            .dwattr $C$DW$87, DW_AT_decl_column(0x1a)
     426                    $C$DW$88        .dwtag  DW_TAG_variable, DW_AT_name("test_cases")
     427                            .dwattr $C$DW$88, DW_AT_TI_symbol_name("test_cases")
     428                            .dwattr $C$DW$88, DW_AT_type(*$C$DW$T$48)
     429                            .dwattr $C$DW$88, DW_AT_declaration
     430                            .dwattr $C$DW$88, DW_AT_external
     431                            .dwattr $C$DW$88, DW_AT_decl_file(".\..\packages\ti\vlib\src\VLIB_Connected_Components_Labelin
     432                            .dwattr $C$DW$88, DW_AT_decl_line(0x60)
     433                            .dwattr $C$DW$88, DW_AT_decl_column(0x13)
     434                    $C$DW$89        .dwtag  DW_TAG_variable, DW_AT_name("act_kernel")
     435                            .dwattr $C$DW$89, DW_AT_TI_symbol_name("act_kernel")
     436                            .dwattr $C$DW$89, DW_AT_type(*$C$DW$T$10)
     437                            .dwattr $C$DW$89, DW_AT_declaration
     438                            .dwattr $C$DW$89, DW_AT_external
     439                            .dwattr $C$DW$89, DW_AT_decl_file(".\..\packages\ti\vlib\src\VLIB_Connected_Components_Labelin
     440                            .dwattr $C$DW$89, DW_AT_decl_line(0x62)
TMS320C6x Assembler PC v7.4.2 Thu Mar 19 12:40:14 2015

Tools Copyright (c) 1996-2012 Texas Instruments Incorporated
package/lib/Regression/regress_d_c/./../packages/ti/vlib/src/VLIB_Connected_Components_Labeling/VLIB_Connected_Components_Labeling_d.se66 PAGE    9

     441                            .dwattr $C$DW$89, DW_AT_decl_column(0x13)
     442                    $C$DW$90        .dwtag  DW_TAG_variable, DW_AT_name("desc")
     443                            .dwattr $C$DW$90, DW_AT_TI_symbol_name("desc")
     444                            .dwattr $C$DW$90, DW_AT_type(*$C$DW$T$266)
     445                            .dwattr $C$DW$90, DW_AT_declaration
     446                            .dwattr $C$DW$90, DW_AT_external
     447                            .dwattr $C$DW$90, DW_AT_decl_file(".\..\packages\ti\vlib\src\VLIB_Connected_Components_Labelin
     448                            .dwattr $C$DW$90, DW_AT_decl_line(0x63)
     449                            .dwattr $C$DW$90, DW_AT_decl_column(0x13)
     450                    $C$DW$91        .dwtag  DW_TAG_variable, DW_AT_name("testPatternString")
     451                            .dwattr $C$DW$91, DW_AT_TI_symbol_name("testPatternString")
     452                            .dwattr $C$DW$91, DW_AT_type(*$C$DW$T$266)
     453                            .dwattr $C$DW$91, DW_AT_declaration
     454                            .dwattr $C$DW$91, DW_AT_external
     455                            .dwattr $C$DW$91, DW_AT_decl_file(".\..\packages\ti\vlib\src\VLIB_Connected_Components_Labelin
     456                            .dwattr $C$DW$91, DW_AT_decl_line(0x64)
     457                            .dwattr $C$DW$91, DW_AT_decl_column(0x13)
     458                    $C$DW$92        .dwtag  DW_TAG_variable, DW_AT_name("est_test")
     459                            .dwattr $C$DW$92, DW_AT_TI_symbol_name("est_test")
     460                            .dwattr $C$DW$92, DW_AT_type(*$C$DW$T$10)
     461                            .dwattr $C$DW$92, DW_AT_declaration
     462                            .dwattr $C$DW$92, DW_AT_external
     463                            .dwattr $C$DW$92, DW_AT_decl_file(".\..\packages\ti\vlib\src\VLIB_Connected_Components_Labelin
     464                            .dwattr $C$DW$92, DW_AT_decl_line(0x75)
     465                            .dwattr $C$DW$92, DW_AT_decl_column(0x14)
     466                    $C$DW$93        .dwtag  DW_TAG_variable, DW_AT_name("beg_count")
     467                            .dwattr $C$DW$93, DW_AT_TI_symbol_name("beg_count")
     468                            .dwattr $C$DW$93, DW_AT_type(*$C$DW$T$256)
     469                            .dwattr $C$DW$93, DW_AT_declaration
     470                            .dwattr $C$DW$93, DW_AT_external
     471                            .dwattr $C$DW$93, DW_AT_decl_file(".\..\packages\ti\vlib\src\VLIB_Connected_Components_Labelin
     472                            .dwattr $C$DW$93, DW_AT_decl_line(0x76)
     473                            .dwattr $C$DW$93, DW_AT_decl_column(0x14)
     474                    $C$DW$94        .dwtag  DW_TAG_variable, DW_AT_name("end_count")
     475                            .dwattr $C$DW$94, DW_AT_TI_symbol_name("end_count")
     476                            .dwattr $C$DW$94, DW_AT_type(*$C$DW$T$256)
     477                            .dwattr $C$DW$94, DW_AT_declaration
     478                            .dwattr $C$DW$94, DW_AT_external
     479                            .dwattr $C$DW$94, DW_AT_decl_file(".\..\packages\ti\vlib\src\VLIB_Connected_Components_Labelin
     480                            .dwattr $C$DW$94, DW_AT_decl_line(0x77)
     481                            .dwattr $C$DW$94, DW_AT_decl_column(0x14)
     482                    $C$DW$95        .dwtag  DW_TAG_variable, DW_AT_name("overhead")
     483                            .dwattr $C$DW$95, DW_AT_TI_symbol_name("overhead")
     484                            .dwattr $C$DW$95, DW_AT_type(*$C$DW$T$256)
     485                            .dwattr $C$DW$95, DW_AT_declaration
     486                            .dwattr $C$DW$95, DW_AT_external
     487                            .dwattr $C$DW$95, DW_AT_decl_file(".\..\packages\ti\vlib\src\VLIB_Connected_Components_Labelin
     488                            .dwattr $C$DW$95, DW_AT_decl_line(0x78)
     489                            .dwattr $C$DW$95, DW_AT_decl_column(0x14)
     490                    $C$DW$96        .dwtag  DW_TAG_variable, DW_AT_name("cycles")
     491                            .dwattr $C$DW$96, DW_AT_TI_symbol_name("cycles")
     492                            .dwattr $C$DW$96, DW_AT_type(*$C$DW$T$257)
     493                            .dwattr $C$DW$96, DW_AT_declaration
     494                            .dwattr $C$DW$96, DW_AT_external
     495                            .dwattr $C$DW$96, DW_AT_decl_file(".\..\packages\ti\vlib\src\VLIB_Connected_Components_Labelin
TMS320C6x Assembler PC v7.4.2 Thu Mar 19 12:40:14 2015

Tools Copyright (c) 1996-2012 Texas Instruments Incorporated
package/lib/Regression/regress_d_c/./../packages/ti/vlib/src/VLIB_Connected_Components_Labeling/VLIB_Connected_Components_Labeling_d.se66 PAGE   10

     496                            .dwattr $C$DW$96, DW_AT_decl_line(0x79)
     497                            .dwattr $C$DW$96, DW_AT_decl_column(0x14)
     498                    ;       C:\VLIB_Tools\CCSV5_4_0\ccsv5\tools\compiler\C6000\bin\opt6x.exe C:\\Users\\gtbldadm\\AppData\
     499 00000000                   .sect   ".text"
     500                            .clink
     501                            .global VLIB_Connected_Components_Labeling_d
     502                    
     503                    $C$DW$97        .dwtag  DW_TAG_subprogram, DW_AT_name("VLIB_Connected_Components_Labeling_d")
     504                            .dwattr $C$DW$97, DW_AT_low_pc(VLIB_Connected_Components_Labeling_d)
     505                            .dwattr $C$DW$97, DW_AT_high_pc(0x00)
     506                            .dwattr $C$DW$97, DW_AT_TI_symbol_name("VLIB_Connected_Components_Labeling_d")
     507                            .dwattr $C$DW$97, DW_AT_external
     508                            .dwattr $C$DW$97, DW_AT_TI_begin_file("./../packages/ti/vlib/src/VLIB_Connected_Components_Lab
     509                            .dwattr $C$DW$97, DW_AT_TI_begin_line(0x5f)
     510                            .dwattr $C$DW$97, DW_AT_TI_begin_column(0x06)
     511                            .dwattr $C$DW$97, DW_AT_decl_file("./../packages/ti/vlib/src/VLIB_Connected_Components_Labelin
     512                            .dwattr $C$DW$97, DW_AT_decl_line(0x5f)
     513                            .dwattr $C$DW$97, DW_AT_decl_column(0x06)
     514                            .dwattr $C$DW$97, DW_AT_TI_max_frame_size(0xd0)
     515                            .dwpsn  file "./../packages/ti/vlib/src/VLIB_Connected_Components_Labeling/VLIB_Connected_Comp
     516                    
     517                            .dwfde $C$DW$CIE, VLIB_Connected_Components_Labeling_d
     518                    $C$DW$98        .dwtag  DW_TAG_formal_parameter, DW_AT_name("LevelOfFeedback")
     519                            .dwattr $C$DW$98, DW_AT_TI_symbol_name("LevelOfFeedback")
     520                            .dwattr $C$DW$98, DW_AT_type(*$C$DW$T$50)
     521                            .dwattr $C$DW$98, DW_AT_location[DW_OP_reg4]
     522                    ;----------------------------------------------------------------------
     523                    ;  95 | void VLIB_Connected_Components_Labeling_d (uint8_t LevelOfFeedback)    
     524                    ;----------------------------------------------------------------------
     525                    
     526                    ;******************************************************************************
     527                    ;* FUNCTION NAME: VLIB_Connected_Components_Labeling_d                        *
     528                    ;*                                                                            *
     529                    ;*   Regs Modified     : A0,A1,A2,A3,A4,A5,A6,A7,A8,A9,A10,A11,A12,A13,A14,   *
     530                    ;*                           A15,B0,B1,B2,B3,B4,B5,B6,B7,B8,B9,B10,B11,B12,   *
     531                    ;*                           B13,SP,A16,A17,A18,A19,A20,A21,A22,A23,A24,A25,  *
     532                    ;*                           A26,A27,A28,A29,A30,A31,B16,B17,B18,B19,B20,B21, *
     533                    ;*                           B22,B23,B24,B25,B26,B27,B28,B29,B30,B31          *
     534                    ;*   Regs Used         : A0,A1,A2,A3,A4,A5,A6,A7,A8,A9,A10,A11,A12,A13,A14,   *
     535                    ;*                           A15,B0,B1,B2,B3,B4,B5,B6,B7,B8,B9,B10,B11,B12,   *
     536                    ;*                           B13,DP,SP,A16,A17,A18,A19,A20,A21,A22,A23,A24,   *
     537                    ;*                           A25,A26,A27,A28,A29,A30,A31,B16,B17,B18,B19,B20, *
     538                    ;*                           B21,B22,B23,B24,B25,B26,B27,B28,B29,B30,B31      *
     539                    ;*   Local Frame Size  : 32 Args + 120 Auto + 56 Save = 208 byte              *
     540                    ;******************************************************************************
     541                    
     542                    ;******************************************************************************
     543                    ;*                                                                            *
     544                    ;* Using -g (debug) with optimization (-o3) may disable key optimizations!    *
     545                    ;*                                                                            *
     546                    ;******************************************************************************
     547 00000000           VLIB_Connected_Components_Labeling_d:
     548                    ;** --------------------------------------------------------------------------*
     549                    ;          EXCLUSIVE CPU CYCLES: 16
     550                    ;** 102 -----------------------    ccl_getTestParams(&prm, &test_cases);
TMS320C6x Assembler PC v7.4.2 Thu Mar 19 12:40:14 2015

Tools Copyright (c) 1996-2012 Texas Instruments Incorporated
package/lib/Regression/regress_d_c/./../packages/ti/vlib/src/VLIB_Connected_Components_Labeling/VLIB_Connected_Components_Labeling_d.se66 PAGE   11

     551                    ;** 105 -----------------------    VLIB_profile_init(2, "VLIB_Connected_Components_Labeling");
     552                    ;** 108 -----------------------    if ( test_cases <= 0 ) goto g89;
     553                            .dwcfi  cfa_offset, 0
     554                    ;----------------------------------------------------------------------
     555                    ;  97 | int32_t    tpi;  /* test parameter index */                            
     556                    ; 100 | ccl_testParams_t   *prm;                                               
     557                    ;----------------------------------------------------------------------
     558 00000000     25f7             STW     .D2T1   A11,*SP--(8)      ; |96| 
     559                            .dwcfi  cfa_offset, 8
     560                            .dwcfi  save_reg_to_mem, 11, 0
     561 00000002     2577             STW     .D2T1   A10,*SP--(8)      ; |96| 
     562                            .dwcfi  cfa_offset, 16
     563                            .dwcfi  save_reg_to_mem, 10, -8
     564 00000004     9677             STDW    .D2T2   B13:B12,*SP--     ; |96| 
     565                            .dwcfi  cfa_offset, 24
     566                            .dwcfi  save_reg_to_mem, 29, -12
     567                            .dwcfi  save_reg_to_mem, 28, -16
     568 00000006     9577             STDW    .D2T2   B11:B10,*SP--     ; |96| 
     569                            .dwcfi  cfa_offset, 32
     570                            .dwcfi  save_reg_to_mem, 27, -20
     571                            .dwcfi  save_reg_to_mem, 26, -24
     572 00000008     8777             STDW    .D2T1   A15:A14,*SP--     ; |96| 
     573                            .dwcfi  cfa_offset, 40
     574                            .dwcfi  save_reg_to_mem, 15, -28
     575                            .dwcfi  save_reg_to_mem, 14, -32
     576 0000000a     8677             STDW    .D2T1   A13:A12,*SP--     ; |96| 
     577                            .dwcfi  cfa_offset, 48
     578                            .dwcfi  save_reg_to_mem, 13, -36
     579                            .dwcfi  save_reg_to_mem, 12, -40
     580 0000000c 01bc54f6             STW     .D2T2   B3,*SP--(8)       ; |96| 
     581                            .dwcfi  cfa_offset, 56
     582                            .dwcfi  save_reg_to_mem, 19, -48
     583 00000010 07ffb452             ADDK    .S2     -152,SP           ; |96| 
     584                            .dwcfi  cfa_offset, 208
     585                    $C$DW$99        .dwtag  DW_TAG_variable, DW_AT_name("$O$C5")
     586                            .dwattr $C$DW$99, DW_AT_TI_symbol_name("$O$C5")
     587                            .dwattr $C$DW$99, DW_AT_type(*$C$DW$T$11)
     588                            .dwattr $C$DW$99, DW_AT_location[DW_OP_reg6]
     589                    $C$DW$100       .dwtag  DW_TAG_variable, DW_AT_name("$O$C6")
     590                            .dwattr $C$DW$100, DW_AT_TI_symbol_name("$O$C6")
     591                            .dwattr $C$DW$100, DW_AT_type(*$C$DW$T$16)
     592                            .dwattr $C$DW$100, DW_AT_location[DW_OP_reg29]
     593                    $C$DW$101       .dwtag  DW_TAG_variable, DW_AT_name("$O$C7")
     594                            .dwattr $C$DW$101, DW_AT_TI_symbol_name("$O$C7")
     595                            .dwattr $C$DW$101, DW_AT_type(*$C$DW$T$100)
     596                            .dwattr $C$DW$101, DW_AT_location[DW_OP_reg3]
     597                    $C$DW$102       .dwtag  DW_TAG_variable, DW_AT_name("$O$C8")
     598                            .dwattr $C$DW$102, DW_AT_TI_symbol_name("$O$C8")
     599                            .dwattr $C$DW$102, DW_AT_type(*$C$DW$T$100)
     600                            .dwattr $C$DW$102, DW_AT_location[DW_OP_reg0]
     601                    $C$DW$103       .dwtag  DW_TAG_variable, DW_AT_name("$O$C9")
     602                            .dwattr $C$DW$103, DW_AT_TI_symbol_name("$O$C9")
     603                            .dwattr $C$DW$103, DW_AT_type(*$C$DW$T$10)
     604                            .dwattr $C$DW$103, DW_AT_location[DW_OP_reg3]
     605                    $C$DW$104       .dwtag  DW_TAG_variable, DW_AT_name("$O$C10")
TMS320C6x Assembler PC v7.4.2 Thu Mar 19 12:40:14 2015

Tools Copyright (c) 1996-2012 Texas Instruments Incorporated
package/lib/Regression/regress_d_c/./../packages/ti/vlib/src/VLIB_Connected_Components_Labeling/VLIB_Connected_Components_Labeling_d.se66 PAGE   12

     606                            .dwattr $C$DW$104, DW_AT_TI_symbol_name("$O$C10")
     607                            .dwattr $C$DW$104, DW_AT_type(*$C$DW$T$10)
     608                            .dwattr $C$DW$104, DW_AT_location[DW_OP_reg3]
     609                    $C$DW$105       .dwtag  DW_TAG_variable, DW_AT_name("$O$C11")
     610                            .dwattr $C$DW$105, DW_AT_TI_symbol_name("$O$C11")
     611                            .dwattr $C$DW$105, DW_AT_type(*$C$DW$T$11)
     612                            .dwattr $C$DW$105, DW_AT_location[DW_OP_reg3]
     613                    $C$DW$106       .dwtag  DW_TAG_variable, DW_AT_name("$O$C12")
     614                            .dwattr $C$DW$106, DW_AT_TI_symbol_name("$O$C12")
     615                            .dwattr $C$DW$106, DW_AT_type(*$C$DW$T$6)
     616                            .dwattr $C$DW$106, DW_AT_location[DW_OP_reg3]
     617                    $C$DW$107       .dwtag  DW_TAG_variable, DW_AT_name("$O$C13")
     618                            .dwattr $C$DW$107, DW_AT_TI_symbol_name("$O$C13")
     619                            .dwattr $C$DW$107, DW_AT_type(*$C$DW$T$9)
     620                            .dwattr $C$DW$107, DW_AT_location[DW_OP_reg8]
     621                    $C$DW$108       .dwtag  DW_TAG_variable, DW_AT_name("$O$C14")
     622                            .dwattr $C$DW$108, DW_AT_TI_symbol_name("$O$C14")
     623                            .dwattr $C$DW$108, DW_AT_type(*$C$DW$T$9)
     624                            .dwattr $C$DW$108, DW_AT_location[DW_OP_reg12]
     625                    $C$DW$109       .dwtag  DW_TAG_variable, DW_AT_name("$O$C15")
     626                            .dwattr $C$DW$109, DW_AT_TI_symbol_name("$O$C15")
     627                            .dwattr $C$DW$109, DW_AT_type(*$C$DW$T$10)
     628                            .dwattr $C$DW$109, DW_AT_location[DW_OP_reg10]
     629                    $C$DW$110       .dwtag  DW_TAG_variable, DW_AT_name("$O$C16")
     630                            .dwattr $C$DW$110, DW_AT_TI_symbol_name("$O$C16")
     631                            .dwattr $C$DW$110, DW_AT_type(*$C$DW$T$9)
     632                            .dwattr $C$DW$110, DW_AT_location[DW_OP_reg10]
     633                    $C$DW$111       .dwtag  DW_TAG_variable, DW_AT_name("$O$U13")
     634                            .dwattr $C$DW$111, DW_AT_TI_symbol_name("$O$U13")
     635                            .dwattr $C$DW$111, DW_AT_type(*$C$DW$T$101)
     636                            .dwattr $C$DW$111, DW_AT_location[DW_OP_reg11]
     637                    $C$DW$112       .dwtag  DW_TAG_variable, DW_AT_name("$O$K58")
     638                            .dwattr $C$DW$112, DW_AT_TI_symbol_name("$O$K58")
     639                            .dwattr $C$DW$112, DW_AT_type(*$C$DW$T$168)
     640                            .dwattr $C$DW$112, DW_AT_location[DW_OP_reg12]
     641                    $C$DW$113       .dwtag  DW_TAG_variable, DW_AT_name("$O$K62")
     642                            .dwattr $C$DW$113, DW_AT_TI_symbol_name("$O$K62")
     643                            .dwattr $C$DW$113, DW_AT_type(*$C$DW$T$10)
     644                            .dwattr $C$DW$113, DW_AT_location[DW_OP_reg20]
     645                    $C$DW$114       .dwtag  DW_TAG_variable, DW_AT_name("$O$U68")
     646                            .dwattr $C$DW$114, DW_AT_TI_symbol_name("$O$U68")
     647                            .dwattr $C$DW$114, DW_AT_type(*$C$DW$T$46)
     648                            .dwattr $C$DW$114, DW_AT_location[DW_OP_reg5]
     649                    $C$DW$115       .dwtag  DW_TAG_variable, DW_AT_name("$O$U32")
     650                            .dwattr $C$DW$115, DW_AT_TI_symbol_name("$O$U32")
     651                            .dwattr $C$DW$115, DW_AT_type(*$C$DW$T$11)
     652                            .dwattr $C$DW$115, DW_AT_location[DW_OP_reg14]
     653                    $C$DW$116       .dwtag  DW_TAG_variable, DW_AT_name("$O$K179")
     654                            .dwattr $C$DW$116, DW_AT_TI_symbol_name("$O$K179")
     655                            .dwattr $C$DW$116, DW_AT_type(*$C$DW$T$99)
     656                            .dwattr $C$DW$116, DW_AT_location[DW_OP_reg4]
     657                    $C$DW$117       .dwtag  DW_TAG_variable, DW_AT_name("$O$K194")
     658                            .dwattr $C$DW$117, DW_AT_TI_symbol_name("$O$K194")
     659                            .dwattr $C$DW$117, DW_AT_type(*$C$DW$T$255)
     660                            .dwattr $C$DW$117, DW_AT_location[DW_OP_reg6]
TMS320C6x Assembler PC v7.4.2 Thu Mar 19 12:40:14 2015

Tools Copyright (c) 1996-2012 Texas Instruments Incorporated
package/lib/Regression/regress_d_c/./../packages/ti/vlib/src/VLIB_Connected_Components_Labeling/VLIB_Connected_Components_Labeling_d.se66 PAGE   13

     661                    $C$DW$118       .dwtag  DW_TAG_variable, DW_AT_name("$O$U12")
     662                            .dwattr $C$DW$118, DW_AT_TI_symbol_name("$O$U12")
     663                            .dwattr $C$DW$118, DW_AT_type(*$C$DW$T$10)
     664                            .dwattr $C$DW$118, DW_AT_location[DW_OP_breg31 84]
     665                    $C$DW$119       .dwtag  DW_TAG_variable, DW_AT_name("$O$U243")
     666                            .dwattr $C$DW$119, DW_AT_TI_symbol_name("$O$U243")
     667                            .dwattr $C$DW$119, DW_AT_type(*$C$DW$T$10)
     668                            .dwattr $C$DW$119, DW_AT_location[DW_OP_breg31 88]
     669                    $C$DW$120       .dwtag  DW_TAG_variable, DW_AT_name("$O$U187")
     670                            .dwattr $C$DW$120, DW_AT_TI_symbol_name("$O$U187")
     671                            .dwattr $C$DW$120, DW_AT_type(*$C$DW$T$9)
     672                            .dwattr $C$DW$120, DW_AT_location[DW_OP_reg15]
     673                    $C$DW$121       .dwtag  DW_TAG_variable, DW_AT_name("$O$U303")
     674                            .dwattr $C$DW$121, DW_AT_TI_symbol_name("$O$U303")
     675                            .dwattr $C$DW$121, DW_AT_type(*$C$DW$T$15)
     676                            .dwattr $C$DW$121, DW_AT_location[DW_OP_reg10]
     677                    $C$DW$122       .dwtag  DW_TAG_variable, DW_AT_name("$O$U319")
     678                            .dwattr $C$DW$122, DW_AT_TI_symbol_name("$O$U319")
     679                            .dwattr $C$DW$122, DW_AT_type(*$C$DW$T$15)
     680                            .dwattr $C$DW$122, DW_AT_location[DW_OP_reg10]
     681                    $C$DW$123       .dwtag  DW_TAG_variable, DW_AT_name("$O$U335")
     682                            .dwattr $C$DW$123, DW_AT_TI_symbol_name("$O$U335")
     683                            .dwattr $C$DW$123, DW_AT_type(*$C$DW$T$46)
     684                            .dwattr $C$DW$123, DW_AT_location[DW_OP_reg15]
     685                    $C$DW$124       .dwtag  DW_TAG_variable, DW_AT_name("$O$U173")
     686                            .dwattr $C$DW$124, DW_AT_TI_symbol_name("$O$U173")
     687                            .dwattr $C$DW$124, DW_AT_type(*$C$DW$T$9)
     688                            .dwattr $C$DW$124, DW_AT_location[DW_OP_reg28]
     689                    $C$DW$125       .dwtag  DW_TAG_variable, DW_AT_name("$O$K364")
     690                            .dwattr $C$DW$125, DW_AT_TI_symbol_name("$O$K364")
     691                            .dwattr $C$DW$125, DW_AT_type(*$C$DW$T$168)
     692                            .dwattr $C$DW$125, DW_AT_location[DW_OP_reg8]
     693                    $C$DW$126       .dwtag  DW_TAG_variable, DW_AT_name("$O$L2")
     694                            .dwattr $C$DW$126, DW_AT_TI_symbol_name("$O$L2")
     695                            .dwattr $C$DW$126, DW_AT_type(*$C$DW$T$10)
     696                            .dwattr $C$DW$126, DW_AT_location[DW_OP_reg28]
     697                    $C$DW$127       .dwtag  DW_TAG_variable, DW_AT_name("$O$L3")
     698                            .dwattr $C$DW$127, DW_AT_TI_symbol_name("$O$L3")
     699                            .dwattr $C$DW$127, DW_AT_type(*$C$DW$T$10)
     700                            .dwattr $C$DW$127, DW_AT_location[DW_OP_reg0]
     701                    $C$DW$128       .dwtag  DW_TAG_variable, DW_AT_name("$O$L4")
     702                            .dwattr $C$DW$128, DW_AT_TI_symbol_name("$O$L4")
     703                            .dwattr $C$DW$128, DW_AT_type(*$C$DW$T$10)
     704                            .dwattr $C$DW$128, DW_AT_location[DW_OP_reg26]
     705                    $C$DW$129       .dwtag  DW_TAG_variable, DW_AT_name("$O$L5")
     706                            .dwattr $C$DW$129, DW_AT_TI_symbol_name("$O$L5")
     707                            .dwattr $C$DW$129, DW_AT_type(*$C$DW$T$10)
     708                            .dwattr $C$DW$129, DW_AT_location[DW_OP_breg31 92]
     709                    $C$DW$130       .dwtag  DW_TAG_variable, DW_AT_name("$O$L6")
     710                            .dwattr $C$DW$130, DW_AT_TI_symbol_name("$O$L6")
     711                            .dwattr $C$DW$130, DW_AT_type(*$C$DW$T$10)
     712                            .dwattr $C$DW$130, DW_AT_location[DW_OP_reg14]
     713                    $C$DW$131       .dwtag  DW_TAG_variable, DW_AT_name("$O$L7")
     714                            .dwattr $C$DW$131, DW_AT_TI_symbol_name("$O$L7")
     715                            .dwattr $C$DW$131, DW_AT_type(*$C$DW$T$10)
TMS320C6x Assembler PC v7.4.2 Thu Mar 19 12:40:14 2015

Tools Copyright (c) 1996-2012 Texas Instruments Incorporated
package/lib/Regression/regress_d_c/./../packages/ti/vlib/src/VLIB_Connected_Components_Labeling/VLIB_Connected_Components_Labeling_d.se66 PAGE   14

     716                            .dwattr $C$DW$131, DW_AT_location[DW_OP_reg26]
     717                    $C$DW$132       .dwtag  DW_TAG_variable, DW_AT_name("$O$L8")
     718                            .dwattr $C$DW$132, DW_AT_TI_symbol_name("$O$L8")
     719                            .dwattr $C$DW$132, DW_AT_type(*$C$DW$T$10)
     720                            .dwattr $C$DW$132, DW_AT_location[DW_OP_reg15]
     721                    $C$DW$133       .dwtag  DW_TAG_variable, DW_AT_name("$O$L9")
     722                            .dwattr $C$DW$133, DW_AT_TI_symbol_name("$O$L9")
     723                            .dwattr $C$DW$133, DW_AT_type(*$C$DW$T$10)
     724                            .dwattr $C$DW$133, DW_AT_location[DW_OP_reg26]
     725                    $C$DW$134       .dwtag  DW_TAG_variable, DW_AT_name("$O$L10")
     726                            .dwattr $C$DW$134, DW_AT_TI_symbol_name("$O$L10")
     727                            .dwattr $C$DW$134, DW_AT_type(*$C$DW$T$10)
     728                            .dwattr $C$DW$134, DW_AT_location[DW_OP_reg14]
     729                    $C$DW$135       .dwtag  DW_TAG_variable, DW_AT_name("width")
     730                            .dwattr $C$DW$135, DW_AT_TI_symbol_name("width")
     731                            .dwattr $C$DW$135, DW_AT_type(*$C$DW$T$9)
     732                            .dwattr $C$DW$135, DW_AT_location[DW_OP_reg26]
     733                    $C$DW$136       .dwtag  DW_TAG_variable, DW_AT_name("width")
     734                            .dwattr $C$DW$136, DW_AT_TI_symbol_name("width")
     735                            .dwattr $C$DW$136, DW_AT_type(*$C$DW$T$73)
     736                            .dwattr $C$DW$136, DW_AT_location[DW_OP_reg15]
     737                    $C$DW$137       .dwtag  DW_TAG_variable, DW_AT_name("area")
     738                            .dwattr $C$DW$137, DW_AT_TI_symbol_name("area")
     739                            .dwattr $C$DW$137, DW_AT_type(*$C$DW$T$48)
     740                            .dwattr $C$DW$137, DW_AT_location[DW_OP_reg29]
     741                    $C$DW$138       .dwtag  DW_TAG_variable, DW_AT_name("ysum")
     742                            .dwattr $C$DW$138, DW_AT_TI_symbol_name("ysum")
     743                            .dwattr $C$DW$138, DW_AT_type(*$C$DW$T$48)
     744                            .dwattr $C$DW$138, DW_AT_location[DW_OP_reg28]
     745                    $C$DW$139       .dwtag  DW_TAG_variable, DW_AT_name("xsum")
     746                            .dwattr $C$DW$139, DW_AT_TI_symbol_name("xsum")
     747                            .dwattr $C$DW$139, DW_AT_type(*$C$DW$T$48)
     748                            .dwattr $C$DW$139, DW_AT_location[DW_OP_reg26]
     749                    $C$DW$140       .dwtag  DW_TAG_variable, DW_AT_name("bottom")
     750                            .dwattr $C$DW$140, DW_AT_TI_symbol_name("bottom")
     751                            .dwattr $C$DW$140, DW_AT_type(*$C$DW$T$48)
     752                            .dwattr $C$DW$140, DW_AT_location[DW_OP_breg31 96]
     753                    $C$DW$141       .dwtag  DW_TAG_variable, DW_AT_name("top")
     754                            .dwattr $C$DW$141, DW_AT_TI_symbol_name("top")
     755                            .dwattr $C$DW$141, DW_AT_type(*$C$DW$T$48)
     756                            .dwattr $C$DW$141, DW_AT_location[DW_OP_reg13]
     757                    $C$DW$142       .dwtag  DW_TAG_variable, DW_AT_name("right")
     758                            .dwattr $C$DW$142, DW_AT_TI_symbol_name("right")
     759                            .dwattr $C$DW$142, DW_AT_type(*$C$DW$T$48)
     760                            .dwattr $C$DW$142, DW_AT_location[DW_OP_reg12]
     761                    $C$DW$143       .dwtag  DW_TAG_variable, DW_AT_name("left")
     762                            .dwattr $C$DW$143, DW_AT_TI_symbol_name("left")
     763                            .dwattr $C$DW$143, DW_AT_type(*$C$DW$T$48)
     764                            .dwattr $C$DW$143, DW_AT_location[DW_OP_reg10]
     765                    $C$DW$144       .dwtag  DW_TAG_variable, DW_AT_name("extra")
     766                            .dwattr $C$DW$144, DW_AT_TI_symbol_name("extra")
     767                            .dwattr $C$DW$144, DW_AT_type(*$C$DW$T$48)
     768                            .dwattr $C$DW$144, DW_AT_location[DW_OP_breg31 88]
     769                    $C$DW$145       .dwtag  DW_TAG_variable, DW_AT_name("pos")
     770                            .dwattr $C$DW$145, DW_AT_TI_symbol_name("pos")
TMS320C6x Assembler PC v7.4.2 Thu Mar 19 12:40:14 2015

Tools Copyright (c) 1996-2012 Texas Instruments Incorporated
package/lib/Regression/regress_d_c/./../packages/ti/vlib/src/VLIB_Connected_Components_Labeling/VLIB_Connected_Components_Labeling_d.se66 PAGE   15

     771                            .dwattr $C$DW$145, DW_AT_type(*$C$DW$T$48)
     772                            .dwattr $C$DW$145, DW_AT_location[DW_OP_reg15]
     773                    $C$DW$146       .dwtag  DW_TAG_variable, DW_AT_name("shift")
     774                            .dwattr $C$DW$146, DW_AT_TI_symbol_name("shift")
     775                            .dwattr $C$DW$146, DW_AT_type(*$C$DW$T$48)
     776                            .dwattr $C$DW$146, DW_AT_location[DW_OP_reg26]
     777                    $C$DW$147       .dwtag  DW_TAG_variable, DW_AT_name("word")
     778                            .dwattr $C$DW$147, DW_AT_TI_symbol_name("word")
     779                            .dwattr $C$DW$147, DW_AT_type(*$C$DW$T$48)
     780                            .dwattr $C$DW$147, DW_AT_location[DW_OP_reg10]
     781                    $C$DW$148       .dwtag  DW_TAG_variable, DW_AT_name("fgMaskPixel")
     782                            .dwattr $C$DW$148, DW_AT_TI_symbol_name("fgMaskPixel")
     783                            .dwattr $C$DW$148, DW_AT_type(*$C$DW$T$48)
     784                            .dwattr $C$DW$148, DW_AT_location[DW_OP_reg3]
     785                    $C$DW$149       .dwtag  DW_TAG_variable, DW_AT_name("j")
     786                            .dwattr $C$DW$149, DW_AT_TI_symbol_name("j")
     787                            .dwattr $C$DW$149, DW_AT_type(*$C$DW$T$48)
     788                            .dwattr $C$DW$149, DW_AT_location[DW_OP_reg12]
     789                    $C$DW$150       .dwtag  DW_TAG_variable, DW_AT_name("numCCs")
     790                            .dwattr $C$DW$150, DW_AT_TI_symbol_name("numCCs")
     791                            .dwattr $C$DW$150, DW_AT_type(*$C$DW$T$48)
     792                            .dwattr $C$DW$150, DW_AT_location[DW_OP_breg31 36]
     793                    $C$DW$151       .dwtag  DW_TAG_variable, DW_AT_name("j")
     794                            .dwattr $C$DW$151, DW_AT_TI_symbol_name("j")
     795                            .dwattr $C$DW$151, DW_AT_type(*$C$DW$T$48)
     796                            .dwattr $C$DW$151, DW_AT_location[DW_OP_reg12]
     797                    $C$DW$152       .dwtag  DW_TAG_variable, DW_AT_name("handle")
     798                            .dwattr $C$DW$152, DW_AT_TI_symbol_name("handle")
     799                            .dwattr $C$DW$152, DW_AT_type(*$C$DW$T$71)
     800                            .dwattr $C$DW$152, DW_AT_location[DW_OP_breg31 100]
     801                    $C$DW$153       .dwtag  DW_TAG_variable, DW_AT_name("pBuf")
     802                            .dwattr $C$DW$153, DW_AT_TI_symbol_name("pBuf")
     803                            .dwattr $C$DW$153, DW_AT_type(*$C$DW$T$3)
     804                            .dwattr $C$DW$153, DW_AT_location[DW_OP_breg31 104]
     805                    $C$DW$154       .dwtag  DW_TAG_variable, DW_AT_name("pOutMap")
     806                            .dwattr $C$DW$154, DW_AT_TI_symbol_name("pOutMap")
     807                            .dwattr $C$DW$154, DW_AT_type(*$C$DW$T$51)
     808                            .dwattr $C$DW$154, DW_AT_location[DW_OP_breg31 108]
     809                    $C$DW$155       .dwtag  DW_TAG_variable, DW_AT_name("pIn32BitPacked")
     810                            .dwattr $C$DW$155, DW_AT_TI_symbol_name("pIn32BitPacked")
     811                            .dwattr $C$DW$155, DW_AT_type(*$C$DW$T$74)
     812                            .dwattr $C$DW$155, DW_AT_location[DW_OP_breg31 112]
     813                    $C$DW$156       .dwtag  DW_TAG_variable, DW_AT_name("input_image")
     814                            .dwattr $C$DW$156, DW_AT_TI_symbol_name("input_image")
     815                            .dwattr $C$DW$156, DW_AT_type(*$C$DW$T$51)
     816                            .dwattr $C$DW$156, DW_AT_location[DW_OP_breg31 116]
     817                    $C$DW$157       .dwtag  DW_TAG_variable, DW_AT_name("maxBytesRequired")
     818                            .dwattr $C$DW$157, DW_AT_TI_symbol_name("maxBytesRequired")
     819                            .dwattr $C$DW$157, DW_AT_type(*$C$DW$T$48)
     820                            .dwattr $C$DW$157, DW_AT_location[DW_OP_breg31 40]
     821                    $C$DW$158       .dwtag  DW_TAG_variable, DW_AT_name("out_size")
     822                            .dwattr $C$DW$158, DW_AT_TI_symbol_name("out_size")
     823                            .dwattr $C$DW$158, DW_AT_type(*$C$DW$T$73)
     824                            .dwattr $C$DW$158, DW_AT_location[DW_OP_breg31 120]
     825                    $C$DW$159       .dwtag  DW_TAG_variable, DW_AT_name("packed_size")
TMS320C6x Assembler PC v7.4.2 Thu Mar 19 12:40:14 2015

Tools Copyright (c) 1996-2012 Texas Instruments Incorporated
package/lib/Regression/regress_d_c/./../packages/ti/vlib/src/VLIB_Connected_Components_Labeling/VLIB_Connected_Components_Labeling_d.se66 PAGE   16

     826                            .dwattr $C$DW$159, DW_AT_TI_symbol_name("packed_size")
     827                            .dwattr $C$DW$159, DW_AT_type(*$C$DW$T$73)
     828                            .dwattr $C$DW$159, DW_AT_location[DW_OP_reg3]
     829                    $C$DW$160       .dwtag  DW_TAG_variable, DW_AT_name("mod_width")
     830                            .dwattr $C$DW$160, DW_AT_TI_symbol_name("mod_width")
     831                            .dwattr $C$DW$160, DW_AT_type(*$C$DW$T$73)
     832                            .dwattr $C$DW$160, DW_AT_location[DW_OP_breg31 124]
     833                    $C$DW$161       .dwtag  DW_TAG_variable, DW_AT_name("packed_width")
     834                            .dwattr $C$DW$161, DW_AT_TI_symbol_name("packed_width")
     835                            .dwattr $C$DW$161, DW_AT_type(*$C$DW$T$73)
     836                            .dwattr $C$DW$161, DW_AT_location[DW_OP_reg13]
     837                    $C$DW$162       .dwtag  DW_TAG_variable, DW_AT_name("inp_size")
     838                            .dwattr $C$DW$162, DW_AT_TI_symbol_name("inp_size")
     839                            .dwattr $C$DW$162, DW_AT_type(*$C$DW$T$73)
     840                            .dwattr $C$DW$162, DW_AT_location[DW_OP_reg15]
     841                    $C$DW$163       .dwtag  DW_TAG_variable, DW_AT_name("status_mask")
     842                            .dwattr $C$DW$163, DW_AT_TI_symbol_name("status_mask")
     843                            .dwattr $C$DW$163, DW_AT_type(*$C$DW$T$48)
     844                            .dwattr $C$DW$163, DW_AT_location[DW_OP_breg31 128]
     845                    $C$DW$164       .dwtag  DW_TAG_variable, DW_AT_name("status_stats")
     846                            .dwattr $C$DW$164, DW_AT_TI_symbol_name("status_stats")
     847                            .dwattr $C$DW$164, DW_AT_type(*$C$DW$T$48)
     848                            .dwattr $C$DW$164, DW_AT_location[DW_OP_breg31 132]
     849                    $C$DW$165       .dwtag  DW_TAG_variable, DW_AT_name("status_numCCs")
     850                            .dwattr $C$DW$165, DW_AT_TI_symbol_name("status_numCCs")
     851                            .dwattr $C$DW$165, DW_AT_type(*$C$DW$T$48)
     852                            .dwattr $C$DW$165, DW_AT_location[DW_OP_breg31 136]
     853                    $C$DW$166       .dwtag  DW_TAG_variable, DW_AT_name("prm")
     854                            .dwattr $C$DW$166, DW_AT_TI_symbol_name("prm")
     855                            .dwattr $C$DW$166, DW_AT_type(*$C$DW$T$104)
     856                            .dwattr $C$DW$166, DW_AT_location[DW_OP_breg31 44]
     857                    $C$DW$167       .dwtag  DW_TAG_variable, DW_AT_name("tpi")
     858                            .dwattr $C$DW$167, DW_AT_TI_symbol_name("tpi")
     859                            .dwattr $C$DW$167, DW_AT_type(*$C$DW$T$48)
     860                            .dwattr $C$DW$167, DW_AT_location[DW_OP_reg27]
     861                    $C$DW$168       .dwtag  DW_TAG_variable, DW_AT_name("LevelOfFeedback")
     862                            .dwattr $C$DW$168, DW_AT_TI_symbol_name("LevelOfFeedback")
     863                            .dwattr $C$DW$168, DW_AT_type(*$C$DW$T$207)
     864                            .dwattr $C$DW$168, DW_AT_location[DW_OP_breg31 140]
     865                    $C$DW$169       .dwtag  DW_TAG_variable, DW_AT_name("i")
     866                            .dwattr $C$DW$169, DW_AT_TI_symbol_name("i")
     867                            .dwattr $C$DW$169, DW_AT_type(*$C$DW$T$73)
     868                            .dwattr $C$DW$169, DW_AT_location[DW_OP_reg10]
     869                    $C$DW$170       .dwtag  DW_TAG_variable, DW_AT_name("i")
     870                            .dwattr $C$DW$170, DW_AT_TI_symbol_name("i")
     871                            .dwattr $C$DW$170, DW_AT_type(*$C$DW$T$73)
     872                            .dwattr $C$DW$170, DW_AT_location[DW_OP_reg10]
     873                    $C$DW$171       .dwtag  DW_TAG_variable, DW_AT_name("i")
     874                            .dwattr $C$DW$171, DW_AT_TI_symbol_name("i")
     875                            .dwattr $C$DW$171, DW_AT_type(*$C$DW$T$73)
     876                            .dwattr $C$DW$171, DW_AT_location[DW_OP_reg12]
     877                    $C$DW$172       .dwtag  DW_TAG_variable, DW_AT_name("$O$v2")
     878                            .dwattr $C$DW$172, DW_AT_TI_symbol_name("$O$v2")
     879                            .dwattr $C$DW$172, DW_AT_type(*$C$DW$T$256)
     880                            .dwattr $C$DW$172, DW_AT_location[DW_OP_reg22]
TMS320C6x Assembler PC v7.4.2 Thu Mar 19 12:40:14 2015

Tools Copyright (c) 1996-2012 Texas Instruments Incorporated
package/lib/Regression/regress_d_c/./../packages/ti/vlib/src/VLIB_Connected_Components_Labeling/VLIB_Connected_Components_Labeling_d.se66 PAGE   17

     881                    $C$DW$173       .dwtag  DW_TAG_variable, DW_AT_name("$O$v4")
     882                            .dwattr $C$DW$173, DW_AT_TI_symbol_name("$O$v4")
     883                            .dwattr $C$DW$173, DW_AT_type(*$C$DW$T$48)
     884                            .dwattr $C$DW$173, DW_AT_location[DW_OP_breg31 144]
     885                    $C$DW$174       .dwtag  DW_TAG_variable, DW_AT_name("$O$K91")
     886                            .dwattr $C$DW$174, DW_AT_TI_symbol_name("$O$K91")
     887                            .dwattr $C$DW$174, DW_AT_type(*$C$DW$T$11)
     888                            .dwattr $C$DW$174, DW_AT_location[DW_OP_reg12]
     889                    $C$DW$175       .dwtag  DW_TAG_variable, DW_AT_name("$O$K91")
     890                            .dwattr $C$DW$175, DW_AT_TI_symbol_name("$O$K91")
     891                            .dwattr $C$DW$175, DW_AT_type(*$C$DW$T$11)
     892                            .dwattr $C$DW$175, DW_AT_location[DW_OP_reg15]
     893                    $C$DW$176       .dwtag  DW_TAG_variable, DW_AT_name("$O$U140")
     894                            .dwattr $C$DW$176, DW_AT_TI_symbol_name("$O$U140")
     895                            .dwattr $C$DW$176, DW_AT_type(*$C$DW$T$9)
     896                            .dwattr $C$DW$176, DW_AT_location[DW_OP_reg28]
     897                    $C$DW$177       .dwtag  DW_TAG_variable, DW_AT_name("$O$U140")
     898                            .dwattr $C$DW$177, DW_AT_TI_symbol_name("$O$U140")
     899                            .dwattr $C$DW$177, DW_AT_type(*$C$DW$T$9)
     900                            .dwattr $C$DW$177, DW_AT_location[DW_OP_reg26]
     901                    $C$DW$178       .dwtag  DW_TAG_variable, DW_AT_name("$O$U138")
     902                            .dwattr $C$DW$178, DW_AT_TI_symbol_name("$O$U138")
     903                            .dwattr $C$DW$178, DW_AT_type(*$C$DW$T$101)
     904                            .dwattr $C$DW$178, DW_AT_location[DW_OP_breg31 92]
     905                    $C$DW$179       .dwtag  DW_TAG_variable, DW_AT_name("$O$U138")
     906                            .dwattr $C$DW$179, DW_AT_TI_symbol_name("$O$U138")
     907                            .dwattr $C$DW$179, DW_AT_type(*$C$DW$T$101)
     908                            .dwattr $C$DW$179, DW_AT_location[DW_OP_breg31 148]
     909                    $C$DW$180       .dwtag  DW_TAG_variable, DW_AT_name("$O$U138")
     910                            .dwattr $C$DW$180, DW_AT_TI_symbol_name("$O$U138")
     911                            .dwattr $C$DW$180, DW_AT_type(*$C$DW$T$101)
     912                            .dwattr $C$DW$180, DW_AT_location[DW_OP_reg13]
     913                    $C$DW$181       .dwtag  DW_TAG_variable, DW_AT_name("status")
     914                            .dwattr $C$DW$181, DW_AT_TI_symbol_name("status")
     915                            .dwattr $C$DW$181, DW_AT_type(*$C$DW$T$48)
     916                            .dwattr $C$DW$181, DW_AT_location[DW_OP_reg12]
     917                    $C$DW$182       .dwtag  DW_TAG_variable, DW_AT_name("status")
     918                            .dwattr $C$DW$182, DW_AT_TI_symbol_name("status")
     919                            .dwattr $C$DW$182, DW_AT_type(*$C$DW$T$48)
     920                            .dwattr $C$DW$182, DW_AT_location[DW_OP_reg0]
     921                    $C$DW$183       .dwtag  DW_TAG_variable, DW_AT_name("i")
     922                            .dwattr $C$DW$183, DW_AT_TI_symbol_name("i")
     923                            .dwattr $C$DW$183, DW_AT_type(*$C$DW$T$48)
     924                            .dwattr $C$DW$183, DW_AT_location[DW_OP_reg14]
     925                    $C$DW$184       .dwtag  DW_TAG_variable, DW_AT_name("i")
     926                            .dwattr $C$DW$184, DW_AT_TI_symbol_name("i")
     927                            .dwattr $C$DW$184, DW_AT_type(*$C$DW$T$48)
     928                            .dwattr $C$DW$184, DW_AT_location[DW_OP_reg14]
     929                    $C$DW$185       .dwtag  DW_TAG_variable, DW_AT_name("i")
     930                            .dwattr $C$DW$185, DW_AT_TI_symbol_name("i")
     931                            .dwattr $C$DW$185, DW_AT_type(*$C$DW$T$48)
     932                            .dwattr $C$DW$185, DW_AT_location[DW_OP_reg10]
     933                    $C$DW$186       .dwtag  DW_TAG_variable, DW_AT_name("$O$v1")
     934                            .dwattr $C$DW$186, DW_AT_TI_symbol_name("$O$v1")
     935                            .dwattr $C$DW$186, DW_AT_type(*$C$DW$T$104)
TMS320C6x Assembler PC v7.4.2 Thu Mar 19 12:40:14 2015

Tools Copyright (c) 1996-2012 Texas Instruments Incorporated
package/lib/Regression/regress_d_c/./../packages/ti/vlib/src/VLIB_Connected_Components_Labeling/VLIB_Connected_Components_Labeling_d.se66 PAGE   18

     936                            .dwattr $C$DW$186, DW_AT_location[DW_OP_reg29]
     937                    $C$DW$187       .dwtag  DW_TAG_variable, DW_AT_name("$O$v1")
     938                            .dwattr $C$DW$187, DW_AT_TI_symbol_name("$O$v1")
     939                            .dwattr $C$DW$187, DW_AT_type(*$C$DW$T$104)
     940                            .dwattr $C$DW$187, DW_AT_location[DW_OP_reg3]
     941                    $C$DW$188       .dwtag  DW_TAG_variable, DW_AT_name("$O$v1")
     942                            .dwattr $C$DW$188, DW_AT_TI_symbol_name("$O$v1")
     943                            .dwattr $C$DW$188, DW_AT_type(*$C$DW$T$104)
     944                            .dwattr $C$DW$188, DW_AT_location[DW_OP_breg31 152]
     945                    $C$DW$189       .dwtag  DW_TAG_variable, DW_AT_name("vlibBlob")
     946                            .dwattr $C$DW$189, DW_AT_TI_symbol_name("vlibBlob")
     947                            .dwattr $C$DW$189, DW_AT_type(*$C$DW$T$52)
     948                            .dwattr $C$DW$189, DW_AT_location[DW_OP_breg31 48]
     949 00000014 0200002a!            MVKL    .S2     test_cases,B4
     950 00000018 0200006a!            MVKH    .S2     test_cases,B4
     951                    $C$DW$190       .dwtag  DW_TAG_TI_branch
     952                            .dwattr $C$DW$190, DW_AT_low_pc(0x00)
     953                            .dwattr $C$DW$190, DW_AT_name("ccl_getTestParams")
     954                            .dwattr $C$DW$190, DW_AT_TI_call
     955                    
     956 00000020 10000013!            CALLP   .S2     ccl_getTestParams,B3
     957 00000024 020023fd  ||         STW     .D2T1   A4,*+SP(140)      ; |96| 
     958 00000028 12000bfc  ||         ADDAW   .D1X    SP,11,A4          ; |102| 
     959                    
     960                            .dwpsn  file "./../packages/ti/vlib/src/VLIB_Connected_Components_Labeling/VLIB_Connected_Comp
     961                    ;----------------------------------------------------------------------
     962                    ; 102 | ccl_getTestParams(&prm, &test_cases);                                  
     963                    ;----------------------------------------------------------------------
     964 0000002c           $C$RL2:    ; CALL OCCURS {ccl_getTestParams} {0}  ; |102| 
     965                    ;** --------------------------------------------------------------------------*
     966                    ;          EXCLUSIVE CPU CYCLES: 8
     967 0000002c 0200002a!            MVKL    .S2     $C$SL1+0,B4
     968 00000030 0200006a!            MVKH    .S2     $C$SL1+0,B4
     969                    $C$DW$191       .dwtag  DW_TAG_TI_branch
     970                            .dwattr $C$DW$191, DW_AT_low_pc(0x00)
     971                            .dwattr $C$DW$191, DW_AT_name("VLIB_profile_init")
     972                            .dwattr $C$DW$191, DW_AT_TI_call
     973                    
     974 00000034 10000013!            CALLP   .S2     VLIB_profile_init,B3
     975 00000038 0208a359  ||         MVK     .L1     0x2,A4            ; |105| 
     976                    
     977                            .dwpsn  file "./../packages/ti/vlib/src/VLIB_Connected_Components_Labeling/VLIB_Connected_Comp
     978                    ;----------------------------------------------------------------------
     979                    ; 105 | VLIB_profile_init(2, "VLIB_Connected_Components_Labeling");            
     980                    ;----------------------------------------------------------------------
     981 00000040           $C$RL3:    ; CALL OCCURS {VLIB_profile_init} {0}  ; |105| 
     982                    ;** --------------------------------------------------------------------------*
     983                    ;          EXCLUSIVE CPU CYCLES: 14
     984                    ;**     -----------------------    K$58 = &testPatternString[0];
     985                    ;**     -----------------------    K$62 = 255;
     986                    ;**     -----------------------    K$364 = &desc[0];
     987                    ;**     -----------------------    U$13 = prm-32;
     988                    ;**     -----------------------    U$12 = 0;
     989                    ;** 108 -----------------------    tpi = 0;
     990                    ;**     -----------------------    #pragma LOOP_FLAGS(5120u)
TMS320C6x Assembler PC v7.4.2 Thu Mar 19 12:40:14 2015

Tools Copyright (c) 1996-2012 Texas Instruments Incorporated
package/lib/Regression/regress_d_c/./../packages/ti/vlib/src/VLIB_Connected_Components_Labeling/VLIB_Connected_Components_Labeling_d.se66 PAGE   19

     991                    
     992 00000040 01800029!            MVKL    .S1     test_cases,A3
     993 00000044 033d62e6  ||         LDW     .D2T2   *+SP(44),B6
     994                    
     995 00000048 01800068!            MVKH    .S1     test_cases,A3
     996                            .dwpsn  file "./../packages/ti/vlib/src/VLIB_Connected_Components_Labeling/VLIB_Connected_Comp
     997                    ;----------------------------------------------------------------------
     998                    ; 108 | for( tpi = 0; tpi < test_cases; tpi++ ) {                              
     999                    ;----------------------------------------------------------------------
    1000 0000004c 018c0264             LDW     .D1T1   *A3,A3            ; |108| 
    1001                            .dwpsn  file "./../packages/ti/vlib/src/VLIB_Connected_Components_Labeling/VLIB_Connected_Comp
    1002                    ;----------------------------------------------------------------------
    1003                    ; 111 | int32_t    status_numCCs = vlib_KERNEL_PASS;  /* Test status : Number o
    1004                    ;     | f CCs compare to reference */                                          
    1005                    ; 112 | int32_t    status_stats  = vlib_KERNEL_PASS;  /* Test status : Stats co
    1006                    ;     | mpare to reference */                                                  
    1007                    ; 113 | int32_t    status_mask   = vlib_KERNEL_PASS;  /* Test status : Mask com
    1008                    ;     | pare to reference */                                                   
    1009                    ;----------------------------------------------------------------------
    1010 00000050     0627             ZERO    .L2     B4                ; |108| 
    1011 00000052     bec5             STW     .D2T2   B4,*+SP(84)
    1012 00000054 02001028             MVK     .S1     32,A4
    1013 00000058 0590d2f8             SUB     .L1X    B6,A4,A11
    1014                            .dwpsn  file "./../packages/ti/vlib/src/VLIB_Connected_Components_Labeling/VLIB_Connected_Comp
    1015 00000060 000c0ad8             CMPGT   .L1     A3,0,A0           ; |108| 
    1016                    
    1017 00000064 d36d4123     [!A0]   BNOP    .S2     $C$L55,2          ; |108| 
    1018 00000068 c5801050  || [ A0]   ADDK    .S1     32,A11            ; |116| 
    1019                    
    1020                            .dwpsn  file "./../packages/ti/vlib/src/VLIB_Connected_Components_Labeling/VLIB_Connected_Comp
    1021                    ;----------------------------------------------------------------------
    1022                    ; 116 | uint32_t        inp_size =     prm[tpi].width * prm[tpi].height;       
    1023                    ; 117 | uint32_t        packed_width = (prm[tpi].width+31) / 32;               
    1024                    ; 118 | uint32_t        mod_width    = packed_width * 32;               /* Widt
    1025                    ;     | h must be a multiple of 32 */                                          
    1026                    ; 119 | uint32_t        packed_size  = packed_width * prm[tpi].height;         
    1027                    ; 120 | uint32_t        out_size =     mod_width * prm[tpi].height;            
    1028                    ; 121 | int32_t         maxBytesRequired;                                      
    1029                    ; 122 | int32_t         sizeOfCCHandle;                                        
    1030                    ;----------------------------------------------------------------------
    1031 0000006c c52d4204     [ A0]   LDHU    .D1T1   *+A11(20),A10     ; |116| 
    1032 00000070 c62d6204     [ A0]   LDHU    .D1T1   *+A11(22),A12     ; |116| 
    1033                            .dwpsn  file "./../packages/ti/vlib/src/VLIB_Connected_Components_Labeling/VLIB_Connected_Comp
    1034 00000074 0580a35a             ZERO    .L2     B11               ; |108| 
    1035                            .dwpsn  file "./../packages/ti/vlib/src/VLIB_Connected_Components_Labeling/VLIB_Connected_Comp
    1036                               ; BRANCHCC OCCURS {$C$L55}        ; |108| 
    1037                    ;** --------------------------------------------------------------------------*
    1038                    ;**   BEGIN LOOP $C$L1
    1039                    ;** --------------------------------------------------------------------------*
    1040 00000078           $C$L1:    
    1041                            .dwpsn  file "./../packages/ti/vlib/src/VLIB_Connected_Components_Labeling/VLIB_Connected_Comp
    1042 00000078           $C$DW$L$VLIB_Connected_Components_Labeling_d$4$B:
    1043                    ;          EXCLUSIVE CPU CYCLES: 6
    1044                    ;**     -----------------------g3:
    1045                    ;** 116 -----------------------    C$14 = (*(U$13 += 32)).height;
TMS320C6x Assembler PC v7.4.2 Thu Mar 19 12:40:14 2015

Tools Copyright (c) 1996-2012 Texas Instruments Incorporated
package/lib/Regression/regress_d_c/./../packages/ti/vlib/src/VLIB_Connected_Components_Labeling/VLIB_Connected_Components_Labeling_d.se66 PAGE   20

    1046                    ;** 116 -----------------------    C$16 = (*U$13).width;
    1047                    ;** 116 -----------------------    inp_size = _mpyu(C$16, C$14);
    1048                    ;** 117 -----------------------    C$15 = C$16+31;
    1049                    ;** 117 -----------------------    packed_width = C$15>>5;
    1050                    ;** 118 -----------------------    mod_width = C$15&0xffffffe0;
    1051                    ;** 119 -----------------------    packed_size = _mpyu(C$14, packed_width);
    1052                    ;** 120 -----------------------    out_size = C$14*mod_width;
    1053                    ;** 125 -----------------------    input_image = malloc(inp_size);
    1054                    ;** 126 -----------------------    U$32 = packed_size*4u;
    1055                    ;** 126 -----------------------    pIn32BitPacked = malloc(U$32);
    1056                    ;** 127 -----------------------    pOutMap = malloc(out_size);
    1057                    ;** 136 -----------------------    VLIB_calcConnectedComponentsMaxBufferSize((short)(*U$13).width, (sh
    1058                    ;** 139 -----------------------    pBuf = malloc((unsigned)maxBytesRequired);
    1059                    ;** 148 -----------------------    sizeOfCCHandle = VLIB_GetSizeOfCCHandle();
    1060                    ;** 149 -----------------------    handle = malloc((unsigned)sizeOfCCHandle);
    1061                    ;** 151 -----------------------    if ( !((input_image != NULL)&(pIn32BitPacked != NULL)&(pOutMap != N
    1062                            .dwpsn  file "./../packages/ti/vlib/src/VLIB_Connected_Components_Labeling/VLIB_Connected_Comp
    1063                    ;----------------------------------------------------------------------
    1064                    ; 125 | uint8_t        *input_image      =  (uint8_t *) malloc(inp_size*sizeof(
    1065                    ;     | uint8_t));                                                             
    1066                    ;----------------------------------------------------------------------
    1067                    $C$DW$192       .dwtag  DW_TAG_TI_branch
    1068                            .dwattr $C$DW$192, DW_AT_low_pc(0x00)
    1069                            .dwattr $C$DW$192, DW_AT_name("malloc")
    1070                            .dwattr $C$DW$192, DW_AT_TI_call
    1071 00000078 00000010!            CALL    .S1     malloc            ; |125| 
    1072 0000007c 018a2162             ADDKPC  .S2     $C$RL4,B3,1       ; |125| 
    1073                            .dwpsn  file "./../packages/ti/vlib/src/VLIB_Connected_Components_Labeling/VLIB_Connected_Comp
    1074 00000080 02314f80             MPYU    .M1     A10,A12,A4        ; |116| 
    1075 00000084     0c6e             NOP             1
    1076 00000086     e646             MV      .L1     A4,A15            ; |116| 
    1077                            .dwpsn  file "./../packages/ti/vlib/src/VLIB_Connected_Components_Labeling/VLIB_Connected_Comp
    1078 00000088           $C$RL4:    ; CALL OCCURS {malloc} {0}        ; |125| 
    1079 00000088           $C$DW$L$VLIB_Connected_Components_Labeling_d$4$E:
    1080                    ;** --------------------------------------------------------------------------*
    1081 00000088           $C$DW$L$VLIB_Connected_Components_Labeling_d$5$B:
    1082                    ;          EXCLUSIVE CPU CYCLES: 49
    1083                            .dwpsn  file "./../packages/ti/vlib/src/VLIB_Connected_Components_Labeling/VLIB_Connected_Comp
    1084 00000088 052be940             ADD     .D1     A10,31,A10        ; |117| 
    1085 0000008c 06a8ada0             SHR     .S1     A10,5,A13         ; |117| 
    1086                            .dwpsn  file "./../packages/ti/vlib/src/VLIB_Connected_Components_Labeling/VLIB_Connected_Comp
    1087 00000090 01b58f80             MPYU    .M1     A12,A13,A3        ; |119| 
    1088                            .dwpsn  file "./../packages/ti/vlib/src/VLIB_Connected_Components_Labeling/VLIB_Connected_Comp
    1089 00000094 05101fda             MV      .L2X    A4,B10            ; |125| 
    1090                            .dwpsn  file "./../packages/ti/vlib/src/VLIB_Connected_Components_Labeling/VLIB_Connected_Comp
    1091                    ;----------------------------------------------------------------------
    1092                    ; 126 | uint32_t       *pIn32BitPacked   =  (uint32_t *) malloc(packed_size*siz
    1093                    ;     | eof(uint32_t));                                                        
    1094                    ;----------------------------------------------------------------------
    1095 00000098 070c4ca0             SHL     .S1     A3,2,A14          ; |126| 
    1096                    $C$DW$193       .dwtag  DW_TAG_TI_branch
    1097                            .dwattr $C$DW$193, DW_AT_low_pc(0x00)
    1098                            .dwattr $C$DW$193, DW_AT_name("malloc")
    1099                            .dwattr $C$DW$193, DW_AT_TI_call
    1100                    
TMS320C6x Assembler PC v7.4.2 Thu Mar 19 12:40:14 2015

Tools Copyright (c) 1996-2012 Texas Instruments Incorporated
package/lib/Regression/regress_d_c/./../packages/ti/vlib/src/VLIB_Connected_Components_Labeling/VLIB_Connected_Components_Labeling_d.se66 PAGE   21

    1101 000000a0 10000013!            CALLP   .S2     malloc,B3
    1102 000000a4 02380fd9  ||         MV      .L1     A14,A4            ; |126| 
    1103 000000a8 053fa2f6  ||         STW     .D2T2   B10,*+SP(116)     ; |125| 
    1104                    
    1105 000000ac           $C$RL5:    ; CALL OCCURS {malloc} {0}        ; |126| 
    1106                            .dwpsn  file "./../packages/ti/vlib/src/VLIB_Connected_Components_Labeling/VLIB_Connected_Comp
    1107 000000ac 01a804c8             CLR     .S1     A10,0,4,A3        ; |118| 
    1108                    
    1109 000000b0 06101fdb             MV      .L2X    A4,B12            ; |126| 
    1110 000000b4 02306800  ||         MPY32   .M1     A3,A12,A4         ; |120| 
    1111                    
    1112                            .dwpsn  file "./../packages/ti/vlib/src/VLIB_Connected_Components_Labeling/VLIB_Connected_Comp
    1113 000000b8 063f82f6             STW     .D2T2   B12,*+SP(112)     ; |126| 
    1114                            .dwpsn  file "./../packages/ti/vlib/src/VLIB_Connected_Components_Labeling/VLIB_Connected_Comp
    1115 000000bc 01bfe2f4             STW     .D2T1   A3,*+SP(124)      ; |118| 
    1116 000000c0     0c6e             NOP             1
    1117                    $C$DW$194       .dwtag  DW_TAG_TI_branch
    1118                            .dwattr $C$DW$194, DW_AT_low_pc(0x00)
    1119                            .dwattr $C$DW$194, DW_AT_name("malloc")
    1120                            .dwattr $C$DW$194, DW_AT_TI_call
    1121                    
    1122 000000c4 10000012!            CALLP   .S2     malloc,B3
    1123 000000c2     cfc5  ||         STW     .D2T1   A4,*+SP(120)      ; |120| 
    1124                    
    1125                            .dwpsn  file "./../packages/ti/vlib/src/VLIB_Connected_Components_Labeling/VLIB_Connected_Comp
    1126                    ;----------------------------------------------------------------------
    1127                    ; 127 | uint8_t        *pOutMap          =  (uint8_t *) malloc(out_size*sizeof(
    1128                    ;     | uint8_t));                                                             
    1129                    ; 128 | void            *pBuf;                                                 
    1130                    ; 129 | VLIB_CCHandle   *handle;                                               
    1131                    ;----------------------------------------------------------------------
    1132 000000c8           $C$RL6:    ; CALL OCCURS {malloc} {0}        ; |127| 
    1133                    
    1134 000000c8 032cc265             LDW     .D1T1   *+A11(24),A6      ; |136| 
    1135 000000cc 05100fd8  ||         MV      .L1     A4,A10            ; |127| 
    1136                    
    1137 000000d0 022d6247             LDH     .D1T2   *+A11(22),B4      ; |136| 
    1138 000000d4 053f62f4  ||         STW     .D2T1   A10,*+SP(108)     ; |127| 
    1139                    
    1140                    $C$DW$195       .dwtag  DW_TAG_TI_branch
    1141                            .dwattr $C$DW$195, DW_AT_low_pc(0x00)
    1142                            .dwattr $C$DW$195, DW_AT_name("VLIB_calcConnectedComponentsMaxBufferSize")
    1143                            .dwattr $C$DW$195, DW_AT_TI_call
    1144                    
    1145 000000d8 10000013!            CALLP   .S2     VLIB_calcConnectedComponentsMaxBufferSize,B3
    1146 000000e0 022d4245  ||         LDH     .D1T1   *+A11(20),A4      ; |136| 
    1147 000000e4 13000afe  ||         ADDAW   .D2     SP,10,B6          ; |136| 
    1148                    
    1149                            .dwpsn  file "./../packages/ti/vlib/src/VLIB_Connected_Components_Labeling/VLIB_Connected_Comp
    1150                    ;----------------------------------------------------------------------
    1151                    ; 136 | VLIB_calcConnectedComponentsMaxBufferSize(prm[tpi].width, prm[tpi].heig
    1152                    ;     | ht,                                                                    
    1153                    ; 137 |                                   prm[tpi].minBlobArea,                
    1154                    ; 138 |                                   &maxBytesRequired);                  
    1155                    ;----------------------------------------------------------------------
TMS320C6x Assembler PC v7.4.2 Thu Mar 19 12:40:14 2015

Tools Copyright (c) 1996-2012 Texas Instruments Incorporated
package/lib/Regression/regress_d_c/./../packages/ti/vlib/src/VLIB_Connected_Components_Labeling/VLIB_Connected_Components_Labeling_d.se66 PAGE   22

    1156                    $C$RL7:    ; CALL OCCURS {VLIB_calcConnectedComponentsMaxBufferSize} {0}  ; |136| 
    1157                    $C$DW$196       .dwtag  DW_TAG_TI_branch
    1158                            .dwattr $C$DW$196, DW_AT_low_pc(0x00)
    1159                            .dwattr $C$DW$196, DW_AT_name("malloc")
    1160                            .dwattr $C$DW$196, DW_AT_TI_call
    1161                    
    1162 000000e8 10000013!            CALLP   .S2     malloc,B3
    1163 000000ec     cd4d  ||         LDW     .D2T1   *+SP(40),A4       ; |139| 
    1164                    
    1165                            .dwpsn  file "./../packages/ti/vlib/src/VLIB_Connected_Components_Labeling/VLIB_Connected_Comp
    1166                    ;----------------------------------------------------------------------
    1167                    ; 139 | pBuf    = (void *) malloc(maxBytesRequired);                           
    1168                    ;----------------------------------------------------------------------
    1169 000000ee           $C$RL8:    ; CALL OCCURS {malloc} {0}        ; |139| 
    1170 000000ee     8646             MV      .L1     A4,A12            ; |139| 
    1171                    $C$DW$197       .dwtag  DW_TAG_TI_branch
    1172                            .dwattr $C$DW$197, DW_AT_low_pc(0x00)
    1173                            .dwattr $C$DW$197, DW_AT_name("VLIB_GetSizeOfCCHandle")
    1174                            .dwattr $C$DW$197, DW_AT_TI_call
    1175                    
    1176 000000f0 10000013!            CALLP   .S2     VLIB_GetSizeOfCCHandle,B3
    1177 000000f4 063f42f4  ||         STW     .D2T1   A12,*+SP(104)     ; |139| 
    1178                    
    1179                            .dwpsn  file "./../packages/ti/vlib/src/VLIB_Connected_Components_Labeling/VLIB_Connected_Comp
    1180                    ;----------------------------------------------------------------------
    1181                    ; 148 | sizeOfCCHandle =  VLIB_GetSizeOfCCHandle();                            
    1182                    ;----------------------------------------------------------------------
    1183                    $C$RL9:    ; CALL OCCURS {VLIB_GetSizeOfCCHandle} {0}  ; |148| 
    1184                    $C$DW$198       .dwtag  DW_TAG_TI_branch
    1185                            .dwattr $C$DW$198, DW_AT_low_pc(0x00)
    1186                            .dwattr $C$DW$198, DW_AT_name("malloc")
    1187                            .dwattr $C$DW$198, DW_AT_TI_call
    1188 000000f8 10000012!            CALLP   .S2     malloc,B3
    1189                            .dwpsn  file "./../packages/ti/vlib/src/VLIB_Connected_Components_Labeling/VLIB_Connected_Comp
    1190                    ;----------------------------------------------------------------------
    1191                    ; 149 | handle = (VLIB_CCHandle *) malloc(sizeOfCCHandle);                     
    1192                    ;----------------------------------------------------------------------
    1193 00000100           $C$RL10:   ; CALL OCCURS {malloc} {0}        ; |149| 
    1194 00000100           $C$DW$L$VLIB_Connected_Components_Labeling_d$5$E:
    1195                    ;** --------------------------------------------------------------------------*
    1196 00000100           $C$DW$L$VLIB_Connected_Components_Labeling_d$6$B:
    1197                    ;          EXCLUSIVE CPU CYCLES: 13
    1198                    
    1199 00000100     1606             MV      .L1X    B12,A0            ; |151| 
    1200 00000102     0192  ||         ZERO    .S1     A3                ; |151| 
    1201 00000104     0627  ||         ZERO    .L2     B4                ; |151| 
    1202 00000106     2516  ||         MV      .D1     A10,A1            ; |151| 
    1203 00000108     160f  ||         MV      .S2X    A12,B0            ; |151| 
    1204 0000010a     1af7  ||         ZERO    .D2     B5                ; |151| 
    1205                    
    1206 0000010c     29e6     [ A0]   MVK     .L1     0x1,A3            ; |151| 
    1207 0000010e     550e  ||         MV      .S1X    B10,A2            ; |151| 
    1208 00000110     1af6  ||         ZERO    .D1     A5                ; |151| 
    1209 00000114 8284a35a  || [ A1]   MVK     .L2     0x1,B5            ; |151| 
    1210 00000112     af45  ||         STW     .D2T1   A4,*+SP(100)      ; |149| 
TMS320C6x Assembler PC v7.4.2 Thu Mar 19 12:40:14 2015

Tools Copyright (c) 1996-2012 Texas Instruments Incorporated
package/lib/Regression/regress_d_c/./../packages/ti/vlib/src/VLIB_Connected_Components_Labeling/VLIB_Connected_Components_Labeling_d.se66 PAGE   23

    1211                    
    1212 00000118 a204a35b     [ A2]   MVK     .L2     0x1,B4            ; |151| 
    1213 00000120     aae6  || [ B0]   MVK     .L1     0x1,A5            ; |151| 
    1214 00000122     424e  ||         MV      .S1     A4,A2             ; |151| 
    1215                    
    1216                            .dwpsn  file "./../packages/ti/vlib/src/VLIB_Connected_Components_Labeling/VLIB_Connected_Comp
    1217                    ;----------------------------------------------------------------------
    1218                    ; 151 | if( input_image && pIn32BitPacked && pOutMap && pBuf && handle) {      
    1219                    ; 153 |     int32_t    fail, i, j;                                             
    1220                    ; 154 |     int32_t    status;                                                 
    1221                    ; 155 |     int32_t    numCCs;                                                 
    1222                    ; 156 |     VLIB_CC     vlibBlob;                                              
    1223                    ;----------------------------------------------------------------------
    1224 00000124 020c9f7a             AND     .L2X    A3,B4,B4          ; |151| 
    1225                    
    1226 00000128 0290af7b             AND     .L2     B5,B4,B5          ; |151| 
    1227 0000012c 0200002a  ||         ZERO    .S2     B4                ; |151| 
    1228                    
    1229 00000130 0294bf7b             AND     .L2X    A5,B5,B5          ; |151| 
    1230 00000134 a20000aa  || [ A2]   MVK     .S2     0x1,B4            ; |151| 
    1231                    
    1232 00000138 00148f7a             AND     .L2     B4,B5,B0          ; |151| 
    1233                    
    1234 00000140 30018991     [!B0]   B       .S1     $C$L52            ; |151| 
    1235 00000144 322cc265  || [!B0]   LDW     .D1T1   *+A11(24),A4      ; |358| 
    1236 00000148 3200002a! || [!B0]   MVKL    .S2     $C$SL25+0,B4
    1237                    
    1238                    $C$DW$199       .dwtag  DW_TAG_TI_branch
    1239                            .dwattr $C$DW$199, DW_AT_low_pc(0x00)
    1240                            .dwattr $C$DW$199, DW_AT_name("VLIB_initConnectedComponentsList")
    1241                            .dwattr $C$DW$199, DW_AT_TI_call
    1242                    
    1243 0000014c 20000011!    [ B0]   CALL    .S1     VLIB_initConnectedComponentsList ; |159| 
    1244 00000150 31ace265  || [!B0]   LDW     .D1T1   *+A11(28),A3      ; |358| 
    1245 00000154 3200006a! || [!B0]   MVKH    .S2     $C$SL25+0,B4
    1246                    
    1247                            .dwpsn  file "./../packages/ti/vlib/src/VLIB_Connected_Components_Labeling/VLIB_Connected_Comp
    1248                    ;----------------------------------------------------------------------
    1249                    ; 159 | status  = VLIB_initConnectedComponentsList(handle, pBuf, maxBytesRequir
    1250                    ;     | ed);                                                                   
    1251                    ; 162 | VLIB_fillBuffer(prm[tpi].testPattern,                                  
    1252                    ; 163 |                 (uint8_t)255,                                          
    1253                    ; 164 |                 input_image, prm[tpi].staticIn,                        
    1254                    ; 165 |                 prm[tpi].width, prm[tpi].height, prm[tpi].width,       
    1255                    ; 166 |                 sizeof(uint8_t), testPatternString);                   
    1256                    ; 169 | for( i=0; i < inp_size; i++ ) {                                        
    1257                    ; 170 |     input_image[i] = (prm[tpi].testPattern == RANDOM) ? (input_image[i]
    1258                    ;     | &1) : (input_image[i] > 0);                                            
    1259                    ; 173 | if( LevelOfFeedback > 0 ) {                                            
    1260                    ; 174 |     printf("Input: %dx%d binary foreground mask:\n\n  ", prm[tpi].width
    1261                    ;     | , prm[tpi].height);                                                    
    1262                    ; 175 |     printHeader(prm[tpi].width);                                       
    1263                    ; 180 | memset(pIn32BitPacked, 0, packed_size * sizeof(int32_t));              
    1264                    ; 181 | memset(pOutMap, 0, out_size);                                          
    1265                    ; 184 |     int32_t    j;                                                      
TMS320C6x Assembler PC v7.4.2 Thu Mar 19 12:40:14 2015

Tools Copyright (c) 1996-2012 Texas Instruments Incorporated
package/lib/Regression/regress_d_c/./../packages/ti/vlib/src/VLIB_Connected_Components_Labeling/VLIB_Connected_Components_Labeling_d.se66 PAGE   24

    1266                    ; 185 |     int32_t    fgMaskPixel;                                            
    1267                    ; 186 |     int32_t    word, shift, pos;                                       
    1268                    ; 187 |     int32_t    extra = (mod_width > prm[tpi].width);                   
    1269                    ; 189 |     for( j=0; j < prm[tpi].height; j++ ) {                             
    1270                    ; 190 |         shift = 31;                                                    
    1271                    ; 191 |         word  = 0;                                                     
    1272                    ; 192 |         pos   = 0;                                                     
    1273                    ; 193 |         if( LevelOfFeedback > 0 ) {                                    
    1274                    ; 194 |             printf("\n%d|", j);                                        
    1275                    ; 197 |         for( i=0; i < prm[tpi].width; i++ ) {                          
    1276                    ; 199 |             if( input_image[j*prm[tpi].width+i] > 0 ) {                
    1277                    ; 200 |                 if( LevelOfFeedback > 0 ) {                            
    1278                    ; 201 |                     printf("*");                                       
    1279                    ; 203 |                 fgMaskPixel = 1;                                       
    1280                    ; 204 |             } else {                                                   
    1281                    ; 205 |                 if( LevelOfFeedback > 0 ) {                            
    1282                    ; 206 |                     printf(" ");                                       
    1283                    ; 208 |                 fgMaskPixel = 0;                                       
    1284                    ; 211 |             word |= (fgMaskPixel << shift);                            
    1285                    ; 213 |             if( shift == 0 ) {                                         
    1286                    ; 214 |                 pIn32BitPacked[j*packed_width+pos] = word;             
    1287                    ; 215 |                 pos++;                                                 
    1288                    ; 216 |                 word                 = 0;                              
    1289                    ; 217 |                 shift                = 31;                             
    1290                    ; 218 |             } else {                                                   
    1291                    ; 219 |                 shift--;                                               
    1292                    ; 222 |         if(extra)                                                      
    1293                    ; 223 |             pIn32BitPacked[j*packed_width+pos] = word;                 
    1294                    ; 227 | fflush(stdout);                                                        
    1295                    ; 229 | if( LevelOfFeedback > 0 ) {                                            
    1296                    ; 230 |     printf("\n\n ==== %d-connected component labeling ====",           
    1297                    ; 231 |            (prm[tpi].connected8Flag+1) * 4);                           
    1298                    ; 235 | VLIB_profile_start(vlib_KERNEL_OPT);                                   
    1299                    ; 236 | status = VLIB_createConnectedComponentsList(handle,                    
    1300                    ; 237 |                                         mod_width,                     
    1301                    ; 238 |                                         prm[tpi].height,               
    1302                    ; 239 |                                         pIn32BitPacked,                
    1303                    ; 240 |                                         prm[tpi].minBlobArea,          
    1304                    ; 241 |                                         prm[tpi].connected8Flag);      
    1305                    ; 242 | VLIB_profile_stop();                                                   
    1306                    ; 244 | if( status == VLIB_WARNING_LOW_MEMORY ) {                              
    1307                    ; 245 |     printf("\nConnected Components low memory warning!!!!!\n");        
    1308                    ; 246 | } else if( status != 0 ) {                                             
    1309                    ; 247 |     VLIB_printErrCode(status);                                         
    1310                    ; 248 |     printf("\nCreation of Connected Components failed!!!\n");          
    1311                    ; 249 |     goto clean_exit;                                                   
    1312                    ; 253 | VLIB_getNumCCs(handle, &numCCs);                                       
    1313                    ; 256 | if( LevelOfFeedback > 0 ) {                                            
    1314                    ; 257 |     printf("\n\nIdentified %d connected-components with at least %d pix
    1315                    ;     | els:\n", numCCs, prm[tpi].minBlobArea);                                
    1316                    ; 260 | if(prm[tpi].numCCs)                                                    
    1317                    ; 261 |     if(numCCs != prm[tpi].numCCs)                                      
    1318                    ; 262 |         status_numCCs = vlib_KERNEL_FAIL;                              
    1319                    ; 265 | for( i=0; i < numCCs; i++ ) {                                          
    1320                    ; 266 |     int32_t    left;                                                   
TMS320C6x Assembler PC v7.4.2 Thu Mar 19 12:40:14 2015

Tools Copyright (c) 1996-2012 Texas Instruments Incorporated
package/lib/Regression/regress_d_c/./../packages/ti/vlib/src/VLIB_Connected_Components_Labeling/VLIB_Connected_Components_Labeling_d.se66 PAGE   25

    1321                    ; 267 |     int32_t    right;                                                  
    1322                    ; 268 |     int32_t    top;                                                    
    1323                    ; 269 |     int32_t    bottom;                                                 
    1324                    ; 270 |     int32_t    xsum;                                                   
    1325                    ; 271 |     int32_t    ysum;                                                   
    1326                    ; 272 |     int32_t    area;                                                   
    1327                    ; 274 |     VLIB_getCCFeatures(handle, &vlibBlob, i);                          
    1328                    ; 276 |     left    = vlibBlob.xmin;                                           
    1329                    ; 277 |     right   = vlibBlob.xmax;                                           
    1330                    ; 278 |     top     = vlibBlob.ymin;                                           
    1331                    ; 279 |     bottom  = vlibBlob.ymax;                                           
    1332                    ; 280 |     xsum    = vlibBlob.xsum;                                           
    1333                    ; 281 |     ysum    = vlibBlob.ysum;                                           
    1334                    ; 282 |     area    = vlibBlob.area;                                           
    1335                    ; 284 |     if(prm[tpi].staticOutStats && status_numCCs == vlib_KERNEL_PASS)   
    1336                    ; 285 |         if( vlibBlob.xmin != prm[tpi].staticOutStats[i].xmin ||        
    1337                    ; 286 |             vlibBlob.xmax != prm[tpi].staticOutStats[i].xmax ||        
    1338                    ; 287 |             vlibBlob.ymin != prm[tpi].staticOutStats[i].ymin ||        
    1339                    ; 288 |             vlibBlob.ymax != prm[tpi].staticOutStats[i].ymax ||        
    1340                    ; 289 |             vlibBlob.xsum != prm[tpi].staticOutStats[i].xsum ||        
    1341                    ; 290 |             vlibBlob.ysum != prm[tpi].staticOutStats[i].ysum ||        
    1342                    ; 291 |             vlibBlob.area != prm[tpi].staticOutStats[i].area)          
    1343                    ; 292 |             status_stats = vlib_KERNEL_FAIL;                           
    1344                    ; 294 |     if( LevelOfFeedback > 0 ) {                                        
    1345                    ; 295 |         printf("Connected component #%d:\n", i + 1);                   
    1346                    ; 296 |         printf("  Pixel Area  : %d\n", area);                          
    1347                    ; 297 |         printf("  Bounding Box: left = %2d, right = %2d, top = %2d,bott
    1348                    ;     | om = %2d\n", left, right, top, bottom);                                
    1349                    ; 298 |         printf("  Horz. Sum   : %d\n", xsum);                          
    1350                    ; 299 |         printf("  Vert. Sum   : %d\n", ysum);                          
    1351                    ; 300 |         printf("  Centroid    : (%4.1f,%4.1f)\n\n", (VLIB_F32)xsum / ar
    1352                    ;     | ea,                                                                    
    1353                    ; 301 |                (VLIB_F32)ysum / area);                                 
    1354                    ; 305 | fflush(stdout);                                                        
    1355                    ; 308 | status = VLIB_createCCMap8Bit(handle,                                  
    1356                    ; 309 |                               pOutMap,                                 
    1357                    ; 310 |                               mod_width,                               
    1358                    ; 311 |                               prm[tpi].height);                        
    1359                    ; 313 | if( status != 0 ) {                                                    
    1360                    ; 314 |     VLIB_printErrCode(status);                                         
    1361                    ; 315 |     printf("Creation of %d-bit Connected Components Map failed!!!\n",  
    1362                    ; 316 |            (prm[tpi].connected8Flag+1) * 4);                           
    1363                    ; 317 |     status_mask = vlib_KERNEL_FAIL;                                    
    1364                    ; 321 | if( LevelOfFeedback > 0 ) {                                            
    1365                    ; 322 |     printf("Output: %dx%d binary foreground mask:\n\n  ", mod_width, pr
    1366                    ;     | m[tpi].height);                                                        
    1367                    ; 323 |     printHeader(mod_width);                                            
    1368                    ; 326 | for( j=0; j < prm[tpi].height; j++ ) {                                 
    1369                    ; 327 |     if( LevelOfFeedback > 0 ) {                                        
    1370                    ; 328 |         printf("\n%d|", j);                                            
    1371                    ; 331 |     for( i=0; i < mod_width; i++ ) {                                   
    1372                    ; 332 |         if( prm[tpi].staticOut && pOutMap[j * mod_width + i] != prm[tpi
    1373                    ;     | ].staticOut[j * prm[tpi].width + i] ) {                                
    1374                    ; 333 |             status_mask = vlib_KERNEL_FAIL;                            
    1375                    ; 334 |             if( LevelOfFeedback > 0 ) {                                
TMS320C6x Assembler PC v7.4.2 Thu Mar 19 12:40:14 2015

Tools Copyright (c) 1996-2012 Texas Instruments Incorporated
package/lib/Regression/regress_d_c/./../packages/ti/vlib/src/VLIB_Connected_Components_Labeling/VLIB_Connected_Components_Labeling_d.se66 PAGE   26

    1376                    ; 335 |                 printf("X");                                           
    1377                    ; 337 |         } else if( LevelOfFeedback > 0 ) {                             
    1378                    ; 338 |             printf("%d", pOutMap[j * mod_width + i]);                  
    1379                    ; 342 | if( LevelOfFeedback > 0 ) printf("\n");                                
    1380                    ; 345 | fail = ((status_numCCs == vlib_KERNEL_FAIL) ||                         
    1381                    ; 346 |         (status_stats == vlib_KERNEL_FAIL) ||                          
    1382                    ; 347 |         (status_mask == vlib_KERNEL_FAIL)) ? 1 : 0;                    
    1383                    ; 349 | est_test=1;                                                            
    1384                    ; 352 | sprintf(desc, "%s generated input | Opt results compared to static resu
    1385                    ;     | lts | width=%d, height=%d, minBlobArea=%d, connected8Flag=%d, numCCs=%d
    1386                    ;     | ",                                                                     
    1387                    ; 353 |         testPatternString, prm[tpi].width, prm[tpi].height, prm[tpi].mi
    1388                    ;     | nBlobArea, prm[tpi].connected8Flag, numCCs);                           
    1389                    ; 354 | VLIB_formula_add_test(out_size, NULL, NULL, fail, desc, NULL);         
    1390                    ; 356 | } else {                                                               
    1391                    ;----------------------------------------------------------------------
    1392 00000158 233d42e4     [ B0]   LDW     .D2T1   *+SP(40),A6       ; |159| 
    1393                            .dwpsn  file "./../packages/ti/vlib/src/VLIB_Connected_Components_Labeling/VLIB_Connected_Comp
    1394                    ;----------------------------------------------------------------------
    1395                    ; 358 | sprintf(desc, "width=%d, height=%d, minBlobArea=%d, connected8Flag=%d",
    1396                    ; 359 |         prm[tpi].width, prm[tpi].height, prm[tpi].minBlobArea, prm[tpi]
    1397                    ;     | .connected8Flag);                                                      
    1398                    ; 360 | VLIB_skip_test(desc);                                                  
    1399                    ; 363 | clean_exit:                                                            
    1400                    ;----------------------------------------------------------------------
    1401 0000015c 32ad6204     [!B0]   LDHU    .D1T1   *+A11(22),A5      ; |358| 
    1402                    $C$DW$200       .dwtag  DW_TAG_TI_branch
    1403                            .dwattr $C$DW$200, DW_AT_low_pc(0x04)
    1404                            .dwattr $C$DW$200, DW_AT_name("sprintf")
    1405                            .dwattr $C$DW$200, DW_AT_TI_call
    1406                    
    1407 00000160 332d4205     [!B0]   LDHU    .D1T1   *+A11(20),A6      ; |358| 
    1408 00000164 30000010! || [!B0]   CALL    .S1     sprintf           ; |358| 
    1409                    
    1410 00000168 323c82f5     [!B0]   STW     .D2T1   A4,*+SP(16)       ; |358| 
    1411 0000016c 32000028! || [!B0]   MVKL    .S1     desc,A4
    1412                    
    1413                            .dwpsn  file "./../packages/ti/vlib/src/VLIB_Connected_Components_Labeling/VLIB_Connected_Comp
    1414                               ; BRANCHCC OCCURS {$C$L52}        ; |151| 
    1415 00000170           $C$DW$L$VLIB_Connected_Components_Labeling_d$6$E:
    1416                    ;** --------------------------------------------------------------------------*
    1417 00000170           $C$DW$L$VLIB_Connected_Components_Labeling_d$7$B:
    1418                    ;          EXCLUSIVE CPU CYCLES: 1
    1419                    ;** 159 -----------------------    VLIB_initConnectedComponentsList(handle, pBuf, maxBytesRequired);
    1420                    ;** 162 -----------------------    C$13 = (*U$13).width;
    1421                    ;** 162 -----------------------    VLIB_fillBuffer((*U$13).testPattern, (unsigned char)K$62, (void *)i
    1422                    ;**     -----------------------    K$179 = &_ftable[1];
    1423                    ;** 169 -----------------------    if ( !inp_size ) goto g7;
    1424                    
    1425 00000170 02301fdb             MV      .L2X    A12,B4            ; |159| 
    1426 00000174 01860162  ||         ADDKPC  .S2     $C$RL11,B3,0      ; |159| 
    1427                    
    1428                            .dwpsn  file "./../packages/ti/vlib/src/VLIB_Connected_Components_Labeling/VLIB_Connected_Comp
    1429 00000178           $C$RL11:   ; CALL OCCURS {VLIB_initConnectedComponentsList} {0}  ; |159| 
    1430 00000178           $C$DW$L$VLIB_Connected_Components_Labeling_d$7$E:
TMS320C6x Assembler PC v7.4.2 Thu Mar 19 12:40:14 2015

Tools Copyright (c) 1996-2012 Texas Instruments Incorporated
package/lib/Regression/regress_d_c/./../packages/ti/vlib/src/VLIB_Connected_Components_Labeling/VLIB_Connected_Components_Labeling_d.se66 PAGE   27

    1431                    ;** --------------------------------------------------------------------------*
    1432 00000178           $C$DW$L$VLIB_Connected_Components_Labeling_d$8$B:
    1433                    ;          EXCLUSIVE CPU CYCLES: 11
    1434                            .dwpsn  file "./../packages/ti/vlib/src/VLIB_Connected_Components_Labeling/VLIB_Connected_Comp
    1435 00000178 042d4204             LDHU    .D1T1   *+A11(20),A8      ; |162| 
    1436 0000017c 022c0214             LDBU    .D1T1   *A11,A4           ; |162| 
    1437 00000180 02007faa             MVK     .S2     0xff,B4
    1438 00000184 032c2266             LDW     .D1T2   *+A11(4),B6       ; |162| 
    1439                    
    1440 00000188 06000029!            MVKL    .S1     testPatternString,A12
    1441 0000018c     9a63  ||         EXTU    .S2     B4,24,24,B4       ; |162| 
    1442                    
    1443                    $C$DW$201       .dwtag  DW_TAG_TI_branch
    1444                            .dwattr $C$DW$201, DW_AT_low_pc(0x00)
    1445                            .dwattr $C$DW$201, DW_AT_name("VLIB_fillBuffer")
    1446                            .dwattr $C$DW$201, DW_AT_TI_call
    1447                    
    1448 00000190 10000013!            CALLP   .S2     VLIB_fillBuffer,B3
    1449 0000018e     afed  ||         LDW     .D2T1   *+SP(116),A6      ; |162| 
    1450 00000194 042d6207  ||         LDHU    .D1T2   *+A11(22),B8      ; |162| 
    1451 00000198 05200fd9  ||         MV      .L1     A8,A10            ; |162| 
    1452 000001a0 06000069! ||         MVKH    .S1     testPatternString,A12
    1453 000001a4 0504a35a  ||         MVK     .L2     0x1,B10           ; |162| 
    1454                    
    1455 000001a8           $C$RL12:   ; CALL OCCURS {VLIB_fillBuffer} {0}  ; |162| 
    1456 000001a8           $C$DW$L$VLIB_Connected_Components_Labeling_d$8$E:
    1457                    ;** --------------------------------------------------------------------------*
    1458 000001a8           $C$DW$L$VLIB_Connected_Components_Labeling_d$9$B:
    1459                    ;          EXCLUSIVE CPU CYCLES: 7
    1460 000001a8     0786             MV      .L1     A15,A0
    1461                    
    1462 000001aa     a8ba     [!A0]   BNOP    .S1     $C$L5,5           ; |169| 
    1463 000001ac c2bfa2e5  || [ A0]   LDW     .D2T1   *+SP(116),A5
    1464 000001b0 c23ff05a  || [ A0]   SUB     .L2X    A15,1,B4
    1465                    
    1466                            .dwpsn  file "./../packages/ti/vlib/src/VLIB_Connected_Components_Labeling/VLIB_Connected_Comp
    1467                               ; BRANCHCC OCCURS {$C$L5}         ; |169| 
    1468 000001b4           $C$DW$L$VLIB_Connected_Components_Labeling_d$9$E:
    1469                    ;** --------------------------------------------------------------------------*
    1470 000001b4           $C$DW$L$VLIB_Connected_Components_Labeling_d$10$B:
    1471                    ;**     -----------------------    U$68 = input_image;
    1472                    ;**     -----------------------    L$1 = inp_size;
    1473                    ;**     -----------------------    #pragma MUST_ITERATE(1, 2147483647, 1)
    1474                    ;**     -----------------------    #pragma LOOP_FLAGS(4096u)
    1475                    ;**     -----------------------g6:
    1476                    ;** 170 -----------------------    C$12 = *U$68;
    1477                    ;** 170 -----------------------    *U$68++ = ((*U$13).testPattern == 3) ? C$12&1 : C$12 != 0;
    1478                    ;** 169 -----------------------    if ( L$1 = L$1-1 ) goto g6;
    1479 000001b4           $C$DW$L$VLIB_Connected_Components_Labeling_d$10$E:
    1480                    ;*----------------------------------------------------------------------------*
    1481                    ;*   SOFTWARE PIPELINE INFORMATION
    1482                    ;*
    1483                    ;*      Loop found in file               : ./../packages/ti/vlib/src/VLIB_Connected_Components_Labelin
    1484                    ;*      Loop source line                 : 169
    1485                    ;*      Loop opening brace source line   : 169
TMS320C6x Assembler PC v7.4.2 Thu Mar 19 12:40:14 2015

Tools Copyright (c) 1996-2012 Texas Instruments Incorporated
package/lib/Regression/regress_d_c/./../packages/ti/vlib/src/VLIB_Connected_Components_Labeling/VLIB_Connected_Components_Labeling_d.se66 PAGE   28

    1486                    ;*      Loop closing brace source line   : 171
    1487                    ;*      Known Minimum Trip Count         : 1                    
    1488                    ;*      Known Max Trip Count Factor      : 1
    1489                    ;*      Loop Carried Dependency Bound(^) : 8
    1490                    ;*      Unpartitioned Resource Bound     : 2
    1491                    ;*      Partitioned Resource Bound(*)    : 3
    1492                    ;*      Resource Partition:
    1493                    ;*                                A-side   B-side
    1494                    ;*      .L units                     1        1     
    1495                    ;*      .S units                     0        0     
    1496                    ;*      .D units                     2        1     
    1497                    ;*      .M units                     0        0     
    1498                    ;*      .X cross paths               0        0     
    1499                    ;*      .T address paths             2        1     
    1500                    ;*      Long read paths              0        0     
    1501                    ;*      Long write paths             0        0     
    1502                    ;*      Logical  ops (.LS)           0        0     (.L or .S unit)
    1503                    ;*      Addition ops (.LSD)          4        0     (.L or .S or .D unit)
    1504                    ;*      Bound(.L .S .LS)             1        1     
    1505                    ;*      Bound(.L .S .D .LS .LSD)     3*       1     
    1506                    ;*
    1507                    ;*      Searching for software pipeline schedule at ...
    1508                    ;*         ii = 8  Schedule found with 2 iterations in parallel
    1509                    ;*
    1510                    ;*      Register Usage Table:
    1511                    ;*          +-----------------------------------------------------------------+
    1512                    ;*          |AAAAAAAAAAAAAAAAAAAAAAAAAAAAAAAA|BBBBBBBBBBBBBBBBBBBBBBBBBBBBBBBB|
    1513                    ;*          |00000000001111111111222222222233|00000000001111111111222222222233|
    1514                    ;*          |01234567890123456789012345678901|01234567890123456789012345678901|
    1515                    ;*          |--------------------------------+--------------------------------|
    1516                    ;*       0: |   ****                         |*   *                           |
    1517                    ;*       1: |   * **                         |    *                           |
    1518                    ;*       2: |     **                         |    *                           |
    1519                    ;*       3: |     **                         |    *                           |
    1520                    ;*       4: |     **                         |    *                           |
    1521                    ;*       5: |   * **                         |    *                           |
    1522                    ;*       6: |   ****                         |    *                           |
    1523                    ;*       7: |   ****                         |    **                          |
    1524                    ;*          +-----------------------------------------------------------------+
    1525                    ;*
    1526                    ;*      Done
    1527                    ;*
    1528                    ;*      Loop will be splooped
    1529                    ;*      Collapsed epilog stages       : 0
    1530                    ;*      Collapsed prolog stages       : 0
    1531                    ;*      Minimum required memory pad   : 0 bytes
    1532                    ;*
    1533                    ;*      Minimum safe trip count       : 1
    1534                    ;*      Min. prof. trip count  (est.) : 9
    1535                    ;*
    1536                    ;*      Mem bank conflicts/iter(est.) : { min 0.000, est 0.000, max 0.000 }
    1537                    ;*      Mem bank perf. penalty (est.) : 0.0%
    1538                    ;*
    1539                    ;*
    1540                    ;*      Total cycles (est.)         : 8 + trip_cnt * 8        
TMS320C6x Assembler PC v7.4.2 Thu Mar 19 12:40:14 2015

Tools Copyright (c) 1996-2012 Texas Instruments Incorporated
package/lib/Regression/regress_d_c/./../packages/ti/vlib/src/VLIB_Connected_Components_Labeling/VLIB_Connected_Components_Labeling_d.se66 PAGE   29

    1541                    ;*----------------------------------------------------------------------------*
    1542                    ;*       SETUP CODE
    1543                    ;*
    1544                    ;*                  MV              A6,A5
    1545                    ;*
    1546                    ;*        SINGLE SCHEDULED ITERATION
    1547                    ;*
    1548                    ;*        $C$C94:
    1549                    ;*   0              LDBU    .D1T1   *A6++,A3          ; |170| 
    1550                    ;*   1              NOP             1
    1551                    ;*   2              LDBU    .D2T2   *B4,B5            ; |170|  ^ 
    1552                    ;*   3              NOP             2
    1553                    ;*   5              CMPEQ   .L1     A3,0,A4           ; |170| 
    1554                    ;*   6              NOP             1
    1555                    ;*   7              CMPEQ   .L2     B5,3,B0           ; |170|  ^ 
    1556                    ;*   8      [ B0]   AND     .L1     1,A3,A3           ; |170|  ^ 
    1557                    ;*     ||   [!B0]   XOR     .S1     1,A4,A3           ; |170|  ^ 
    1558                    ;*   9              STB     .D1T1   A3,*A5++          ; |170|  ^ 
    1559                    ;*     ||           SPBR            $C$C94
    1560                    ;*  10              NOP             6
    1561                    ;*  16              ; BRANCHCC OCCURS {$C$C94}        ; |169| 
    1562                    ;*----------------------------------------------------------------------------*
    1563 000001b4           $C$L2:    ; PIPED LOOP PROLOG
    1564                    ;          EXCLUSIVE CPU CYCLES: 9
    1565                    
    1566 000001b4     0fe7             SPLOOPD 8       ;16               ; (P) 
    1567 000001b6     da6f  ||         MVC     .S2     B4,ILC
    1568 000001b8     c2c6  ||         MV      .L1     A5,A6
    1569                    
    1570                    ;** --------------------------------------------------------------------------*
    1571 000001ba           $C$L3:    ; PIPED LOOP KERNEL
    1572 000001ba           $C$DW$L$VLIB_Connected_Components_Labeling_d$12$B:
    1573                    ;          EXCLUSIVE CPU CYCLES: 8
    1574                            .dwpsn  file "./../packages/ti/vlib/src/VLIB_Connected_Components_Labeling/VLIB_Connected_Comp
    1575 000001ba     0f3c             LDBU    .D1T1   *A6++,A3          ; |170| (P) <0,0> 
    1576                    
    1577 000001c0     2ce6             SPMASK          L2
    1578 000001c2     9587  ||         MV      .L2X    A11,B4
    1579                    
    1580 000001c4     125d             LDBU    .D2T2   *B4,B5            ; |170| (P) <0,2>  ^ 
    1581 000001c6     2c6e             NOP             2
    1582 000001c8 020c0a58             CMPEQ   .L1     A3,0,A4           ; |170| (P) <0,5> 
    1583 000001cc     0c6e             NOP             1
    1584 000001ce     62a7             CMPEQ   .L2     B5,3,B0           ; |170| (P) <0,7>  ^ 
    1585                    
    1586 000001d0 218c2f59     [ B0]   AND     .L1     1,A3,A3           ; |170| <0,8>  ^ 
    1587 000001d4 319022a0  || [!B0]   XOR     .S1     1,A4,A3           ; |170| <0,8>  ^ 
    1588                    
    1589 000001d8     1c66             SPKERNEL 0,0
    1590 000001da     0eb4  ||         STB     .D1T1   A3,*A5++          ; |170| <0,9>  ^ 
    1591                    
    1592 000001e0           $C$DW$L$VLIB_Connected_Components_Labeling_d$12$E:
    1593                    ;** --------------------------------------------------------------------------*
    1594 000001e0           $C$L4:    ; PIPED LOOP EPILOG
    1595                    ;          EXCLUSIVE CPU CYCLES: 2
TMS320C6x Assembler PC v7.4.2 Thu Mar 19 12:40:14 2015

Tools Copyright (c) 1996-2012 Texas Instruments Incorporated
package/lib/Regression/regress_d_c/./../packages/ti/vlib/src/VLIB_Connected_Components_Labeling/VLIB_Connected_Components_Labeling_d.se66 PAGE   30

    1596 000001e0     7656             MV      .D1X    B4,A11
    1597 000001e2     0c6e             NOP             1
    1598                    ;** --------------------------------------------------------------------------*
    1599 000001e4           $C$L5:    
    1600                            .dwpsn  file "./../packages/ti/vlib/src/VLIB_Connected_Components_Labeling/VLIB_Connected_Comp
    1601 000001e4           $C$DW$L$VLIB_Connected_Components_Labeling_d$14$B:
    1602                    ;          EXCLUSIVE CPU CYCLES: 11
    1603                    ;**     -----------------------g7:
    1604                    ;** 111 -----------------------    status_numCCs = 1;
    1605                    ;** 112 -----------------------    status_stats = 1;
    1606                    ;** 113 -----------------------    status_mask = 1;
    1607                    ;**     -----------------------    K$194 = &cycles[0];
    1608                    ;** 173 -----------------------    if ( !LevelOfFeedback ) goto g17;
    1609                    
    1610 000001e4 000023ed             LDW     .D2T1   *+SP(140),A0
    1611 000001e8     2627  ||         MVK     .L2     0x1,B4            ; |111| 
    1612                    
    1613 000001ea     a247             MV      .L2     B4,B5             ; |111| 
    1614 000001ec 020022fe  ||         STW     .D2T2   B4,*+SP(136)      ; |111| 
    1615                    
    1616                            .dwpsn  file "./../packages/ti/vlib/src/VLIB_Connected_Components_Labeling/VLIB_Connected_Comp
    1617 000001f0 028020fe             STW     .D2T2   B5,*+SP(128)      ; |111| 
    1618 000001f4 02101fd8             MV      .L1X    B4,A4             ; |111| 
    1619 000001f8 020021fc             STW     .D2T1   A4,*+SP(132)      ; |111| 
    1620                    
    1621 00000200 d0003011     [!A0]   B       .S1     $C$L12            ; |173| 
    1622 00000204 c22d4204  || [ A0]   LDHU    .D1T1   *+A11(20),A4      ; |174| 
    1623                    
    1624                    $C$DW$202       .dwtag  DW_TAG_TI_branch
    1625                            .dwattr $C$DW$202, DW_AT_low_pc(0x00)
    1626                            .dwattr $C$DW$202, DW_AT_name("memset")
    1627                            .dwattr $C$DW$202, DW_AT_TI_call
    1628                    
    1629 00000208 d0000011!    [!A0]   CALL    .S1     memset            ; |180| 
    1630 0000020c d23f82e4  || [!A0]   LDW     .D2T1   *+SP(112),A4      ; |180| 
    1631                    
    1632                            .dwpsn  file "./../packages/ti/vlib/src/VLIB_Connected_Components_Labeling/VLIB_Connected_Comp
    1633 00000210 c1ad6204     [ A0]   LDHU    .D1T1   *+A11(22),A3      ; |174| 
    1634                    $C$DW$203       .dwtag  DW_TAG_TI_branch
    1635                            .dwattr $C$DW$203, DW_AT_low_pc(0x00)
    1636                            .dwattr $C$DW$203, DW_AT_name("printf")
    1637                            .dwattr $C$DW$203, DW_AT_TI_call
    1638 00000214 c0000010!    [ A0]   CALL    .S1     printf            ; |174| 
    1639 00000218 c200002a!    [ A0]   MVKL    .S2     $C$SL2+0,B4
    1640 0000021c c200006a!    [ A0]   MVKH    .S2     $C$SL2+0,B4
    1641                            .dwpsn  file "./../packages/ti/vlib/src/VLIB_Connected_Components_Labeling/VLIB_Connected_Comp
    1642                               ; BRANCHCC OCCURS {$C$L12}        ; |173| 
    1643 00000220           $C$DW$L$VLIB_Connected_Components_Labeling_d$14$E:
    1644                    ;** --------------------------------------------------------------------------*
    1645 00000220           $C$DW$L$VLIB_Connected_Components_Labeling_d$15$B:
    1646                    ;          EXCLUSIVE CPU CYCLES: 3
    1647                    ;** 174 -----------------------    printf((const char *)"Input: %dx%d binary foreground mask:\n\n  ", 
    1648                    ;** 175 -----------------------    if ( !(width = (*U$13).width) ) goto g11;
    1649                            .dwpsn  file "./../packages/ti/vlib/src/VLIB_Connected_Components_Labeling/VLIB_Connected_Comp
    1650 00000220     cc45             STW     .D2T1   A4,*+SP(8)        ; |174| 
TMS320C6x Assembler PC v7.4.2 Thu Mar 19 12:40:14 2015

Tools Copyright (c) 1996-2012 Texas Instruments Incorporated
package/lib/Regression/regress_d_c/./../packages/ti/vlib/src/VLIB_Connected_Components_Labeling/VLIB_Connected_Components_Labeling_d.se66 PAGE   31

    1651 00000222     ec35             STW     .D2T1   A3,*+SP(12)       ; |174| 
    1652                    
    1653 00000228 023c22f6             STW     .D2T2   B4,*+SP(4)        ; |174| 
    1654 00000224 01830163  ||         ADDKPC  .S2     $C$RL13,B3,0      ; |174| 
    1655                    
    1656 0000022c           $C$RL13:   ; CALL OCCURS {printf} {0}        ; |174| 
    1657 0000022c           $C$DW$L$VLIB_Connected_Components_Labeling_d$15$E:
    1658                    ;** --------------------------------------------------------------------------*
    1659 0000022c           $C$DW$L$VLIB_Connected_Components_Labeling_d$16$B:
    1660                    ;          EXCLUSIVE CPU CYCLES: 11
    1661                            .dwpsn  file "./../packages/ti/vlib/src/VLIB_Connected_Components_Labeling/VLIB_Connected_Comp
    1662 0000022c 002d4204             LDHU    .D1T1   *+A11(20),A0      ; |175| 
    1663 00000230 066666a8             MVKL    .S1     0xcccd,A12
    1664 00000234 06000068             MVKH    .S1     0xcccd,A12
    1665 00000238     2c6e             NOP             2
    1666                    
    1667 0000023a     5447             MV      .L2X    A0,B10            ; |175| 
    1668 00000240 c500a359  || [ A0]   ZERO    .L1     A10               ; |42| 
    1669 00000244 d0000f10  || [!A0]   B       .S1     $C$L7             ; |175| 
    1670                    
    1671                            .dwpsn  file "./../packages/ti/vlib/src/VLIB_Connected_Components_Labeling/VLIB_Connected_Comp
    1672 00000248 01b14f80             MPYU    .M1     A10,A12,A3        ; |43| 
    1673 0000024c c280002a!    [ A0]   MVKL    .S2     $C$SL3+0,B5
    1674 00000250 020c69a0             SHRU    .S1     A3,3,A4           ; |43| 
    1675 00000254 02308780             MPYHLU  .M1     A4,A12,A4         ; |43| 
    1676 00000258 c280006b!    [ A0]   MVKH    .S2     $C$SL3+0,B5
    1677                            .dwpsn  file "./../packages/ti/vlib/src/VLIB_Connected_Components_Labeling/VLIB_Connected_Comp
    1678                               ; BRANCHCC OCCURS {$C$L7}         ; |175| 
    1679 00000260           $C$DW$L$VLIB_Connected_Components_Labeling_d$16$E:
    1680                    ;** --------------------------------------------------------------------------*
    1681 00000260           $C$DW$L$VLIB_Connected_Components_Labeling_d$17$B:
    1682                    ;          EXCLUSIVE CPU CYCLES: 1
    1683                    ;**     -----------------------    K$91 = 52429u;
    1684                    ;** 43  -----------------------    L$2 = (unsigned)width;  // [29]
    1685                    ;** 42  -----------------------    i = 0u;  // [29]
    1686                    ;**     -----------------------    #pragma MUST_ITERATE(1, 65535, 1)
    1687                    ;**     -----------------------    #pragma LOOP_FLAGS(5120u)
    1688                    
    1689 00000260 07a8a359             MVK     .L1     10,A15            ; |43| 
    1690 00000264 06280fdb  ||         MV      .L2     B10,B12           ; |42| 
    1691 00000268     bc55  ||         STW     .D2T2   B5,*+SP(4)        ; |43| 
    1692 0000026c 020e79a2  ||         SHRU    .S2X    A3,19,B4          ; |43| 
    1693 0000026a     6642  ||         SHRU    .S1     A4,3,A4           ; |43| 
    1694                    
    1695 00000270           $C$DW$L$VLIB_Connected_Components_Labeling_d$17$E:
    1696                    ;*----------------------------------------------------------------------------*
    1697                    ;*   SOFTWARE PIPELINE INFORMATION
    1698                    ;*      Disqualified loop: Loop contains a call
    1699                    ;*      Disqualified loop: Loop contains non-pipelinable instructions
    1700                    ;*----------------------------------------------------------------------------*
    1701 00000270           $C$L6:    
    1702                            .dwpsn  file "./../packages/ti/vlib/src/VLIB_Connected_Components_Labeling/VLIB_Connected_Comp
    1703 00000270           $C$DW$L$VLIB_Connected_Components_Labeling_d$18$B:
    1704                    ;          EXCLUSIVE CPU CYCLES: 6
    1705                    ;**     -----------------------g10:
TMS320C6x Assembler PC v7.4.2 Thu Mar 19 12:40:14 2015

Tools Copyright (c) 1996-2012 Texas Instruments Incorporated
package/lib/Regression/regress_d_c/./../packages/ti/vlib/src/VLIB_Connected_Components_Labeling/VLIB_Connected_Components_Labeling_d.se66 PAGE   32

    1706                    ;** 43  -----------------------    C$11 = _mpyu(i, K$91);  // [29]
    1707                    ;** 43  -----------------------    printf((const char *)"%d", (C$11>>19)-_mpyhlu(_mpyhlu(C$11>>3, K$91
    1708                    ;** 42  -----------------------    ++i;  // [29]
    1709                    ;** 42  -----------------------    if ( L$2 = L$2-1 ) goto g10;  // [29]
    1710                            .dwpsn  file "./../packages/ti/vlib/src/VLIB_Connected_Components_Labeling/VLIB_Connected_Comp
    1711                    $C$DW$204       .dwtag  DW_TAG_TI_branch
    1712                            .dwattr $C$DW$204, DW_AT_low_pc(0x00)
    1713                            .dwattr $C$DW$204, DW_AT_name("printf")
    1714                            .dwattr $C$DW$204, DW_AT_TI_call
    1715 00000270 00000010!            CALL    .S1     printf            ; |43| 
    1716 00000274 023c8780             MPYHLU  .M1     A4,A15,A4         ; |43| 
    1717 00000278 01892162             ADDKPC  .S2     $C$RL14,B3,1      ; |43| 
    1718 00000280     9a41             SUB     .L2X    B4,A4,B4          ; |43| 
    1719 00000282     dc45             STW     .D2T2   B4,*+SP(8)        ; |43| 
    1720 00000284           $C$RL14:   ; CALL OCCURS {printf} {0}        ; |43| 
    1721 00000284           $C$DW$L$VLIB_Connected_Components_Labeling_d$18$E:
    1722                    ;** --------------------------------------------------------------------------*
    1723 00000284           $C$DW$L$VLIB_Connected_Components_Labeling_d$19$B:
    1724                    ;          EXCLUSIVE CPU CYCLES: 7
    1725                    
    1726 00000284 05282059             ADD     .L1     1,A10,A10         ; |42| 
    1727 00000288 0033f1a1  ||         SUB     .S1X    B12,1,A0          ; |42| 
    1728 0000028c 0633e05a  ||         SUB     .L2     B12,1,B12         ; |42| 
    1729                    
    1730 00000290 01b14f81             MPYU    .M1     A10,A12,A3        ; |43| 
    1731 00000294 cffffe11  || [ A0]   B       .S1     $C$L6             ; |42| 
    1732 00000298 c280002a! || [ A0]   MVKL    .S2     $C$SL3+0,B5
    1733                    
    1734 000002a0 c280006a!    [ A0]   MVKH    .S2     $C$SL3+0,B5
    1735                    
    1736 000002a4 020c69a1             SHRU    .S1     A3,3,A4           ; |43| 
    1737 000002a8 c2bc22f6  || [ A0]   STW     .D2T2   B5,*+SP(4)        ; |43| 
    1738                    
    1739 000002ac 02308780             MPYHLU  .M1     A4,A12,A4         ; |43| 
    1740 000002b0 c20e79a2     [ A0]   SHRU    .S2X    A3,19,B4          ; |43| 
    1741 000002b4 021069a0             SHRU    .S1     A4,3,A4           ; |43| 
    1742                            .dwpsn  file "./../packages/ti/vlib/src/VLIB_Connected_Components_Labeling/VLIB_Connected_Comp
    1743                               ; BRANCHCC OCCURS {$C$L6}         ; |42| 
    1744 000002b8           $C$DW$L$VLIB_Connected_Components_Labeling_d$19$E:
    1745                    ;** --------------------------------------------------------------------------*
    1746 000002b8           $C$L7:    
    1747                            .dwpsn  file "./../packages/ti/vlib/src/VLIB_Connected_Components_Labeling/VLIB_Connected_Comp
    1748 000002b8           $C$DW$L$VLIB_Connected_Components_Labeling_d$20$B:
    1749                    ;          EXCLUSIVE CPU CYCLES: 8
    1750                    ;**     -----------------------g11:
    1751                    ;** 45  -----------------------    printf((const char *)"\n  ");  // [29]
    1752                    ;** 46  -----------------------    if ( !width ) goto g14;  // [29]
    1753 000002b8 0200002a!            MVKL    .S2     $C$SL4+0,B4
    1754 000002bc 0200006a!            MVKH    .S2     $C$SL4+0,B4
    1755                    $C$DW$205       .dwtag  DW_TAG_TI_branch
    1756                            .dwattr $C$DW$205, DW_AT_low_pc(0x00)
    1757                            .dwattr $C$DW$205, DW_AT_name("printf")
    1758                            .dwattr $C$DW$205, DW_AT_TI_call
    1759                    
    1760 000002c0 10000013!            CALLP   .S2     printf,B3
TMS320C6x Assembler PC v7.4.2 Thu Mar 19 12:40:14 2015

Tools Copyright (c) 1996-2012 Texas Instruments Incorporated
package/lib/Regression/regress_d_c/./../packages/ti/vlib/src/VLIB_Connected_Components_Labeling/VLIB_Connected_Components_Labeling_d.se66 PAGE   33

    1761 000002c4     bc45  ||         STW     .D2T2   B4,*+SP(4)        ; |45| 
    1762                    
    1763                            .dwpsn  file "./../packages/ti/vlib/src/VLIB_Connected_Components_Labeling/VLIB_Connected_Comp
    1764 000002c6           $C$RL15:   ; CALL OCCURS {printf} {0}        ; |45| 
    1765 000002c6           $C$DW$L$VLIB_Connected_Components_Labeling_d$20$E:
    1766                    ;** --------------------------------------------------------------------------*
    1767 000002c6           $C$DW$L$VLIB_Connected_Components_Labeling_d$21$B:
    1768                    ;          EXCLUSIVE CPU CYCLES: 7
    1769 000002c6     1506             MV      .L1X    B10,A0            ; |45| 
    1770                    
    1771 000002c8 c7e666a9     [ A0]   MVKL    .S1     0xcccd,A15
    1772 000002cc d0000f13  || [!A0]   B       .S2     $C$L9             ; |46| 
    1773 000002d0 c500a359  || [ A0]   ZERO    .L1     A10               ; |46| 
    1774 000002d4 c6014040  || [ A0]   MVK     .D1     10,A12            ; |47| 
    1775                    
    1776 000002d8 c7800069     [ A0]   MVKH    .S1     0xcccd,A15
    1777 000002e0 c200002a! || [ A0]   MVKL    .S2     $C$SL3+0,B4
    1778                    
    1779                            .dwpsn  file "./../packages/ti/vlib/src/VLIB_Connected_Components_Labeling/VLIB_Connected_Comp
    1780 000002e4 01bd4f80             MPYU    .M1     A10,A15,A3        ; |47| 
    1781 000002e8 c200006a!    [ A0]   MVKH    .S2     $C$SL3+0,B4
    1782 000002ec 018c69a0             SHRU    .S1     A3,3,A3           ; |47| 
    1783 000002f0 01b06780             MPYHLU  .M1     A3,A12,A3         ; |47| 
    1784                            .dwpsn  file "./../packages/ti/vlib/src/VLIB_Connected_Components_Labeling/VLIB_Connected_Comp
    1785                               ; BRANCHCC OCCURS {$C$L9}         ; |46| 
    1786 000002f4           $C$DW$L$VLIB_Connected_Components_Labeling_d$21$E:
    1787                    ;** --------------------------------------------------------------------------*
    1788 000002f4           $C$DW$L$VLIB_Connected_Components_Labeling_d$22$B:
    1789                    ;          EXCLUSIVE CPU CYCLES: 2
    1790                    ;**     -----------------------    K$91 = 52429u;
    1791                    ;** 47  -----------------------    L$3 = (unsigned)width;  // [29]
    1792                    ;** 46  -----------------------    i = 0u;  // [29]
    1793                    ;**     -----------------------    #pragma MUST_ITERATE(1, 65535, 1)
    1794                    ;**     -----------------------    #pragma LOOP_FLAGS(5120u)
    1795                    
    1796 000002f4 06280fdb             MV      .L2     B10,B12           ; |46| 
    1797 000002f8 023c22f6  ||         STW     .D2T2   B4,*+SP(4)        ; |47| 
    1798                    
    1799                            .dwpsn  file "./../packages/ti/vlib/src/VLIB_Connected_Components_Labeling/VLIB_Connected_Comp
    1800 000002fc 018d40f8             SUB     .L1     A10,A3,A3         ; |47| 
    1801 00000300           $C$DW$L$VLIB_Connected_Components_Labeling_d$22$E:
    1802                    ;*----------------------------------------------------------------------------*
    1803                    ;*   SOFTWARE PIPELINE INFORMATION
    1804                    ;*      Disqualified loop: Loop contains a call
    1805                    ;*      Disqualified loop: Loop contains non-pipelinable instructions
    1806                    ;*----------------------------------------------------------------------------*
    1807 00000300           $C$L8:    
    1808                            .dwpsn  file "./../packages/ti/vlib/src/VLIB_Connected_Components_Labeling/VLIB_Connected_Comp
    1809 00000300           $C$DW$L$VLIB_Connected_Components_Labeling_d$23$B:
    1810                    ;          EXCLUSIVE CPU CYCLES: 6
    1811                    ;**     -----------------------g13:
    1812                    ;** 47  -----------------------    printf((const char *)"%d", i-_mpyhlu(_mpyu(i, K$91)>>3, 10u));  // 
    1813                    ;** 46  -----------------------    ++i;  // [29]
    1814                    ;** 46  -----------------------    if ( L$3 = L$3-1 ) goto g13;  // [29]
    1815                            .dwpsn  file "./../packages/ti/vlib/src/VLIB_Connected_Components_Labeling/VLIB_Connected_Comp
TMS320C6x Assembler PC v7.4.2 Thu Mar 19 12:40:14 2015

Tools Copyright (c) 1996-2012 Texas Instruments Incorporated
package/lib/Regression/regress_d_c/./../packages/ti/vlib/src/VLIB_Connected_Components_Labeling/VLIB_Connected_Components_Labeling_d.se66 PAGE   34

    1816                    $C$DW$206       .dwtag  DW_TAG_TI_branch
    1817                            .dwattr $C$DW$206, DW_AT_low_pc(0x00)
    1818                            .dwattr $C$DW$206, DW_AT_name("printf")
    1819                            .dwattr $C$DW$206, DW_AT_TI_call
    1820 00000300 00000010!            CALL    .S1     printf            ; |47| 
    1821 00000304 01836162             ADDKPC  .S2     $C$RL16,B3,3      ; |47| 
    1822 00000308 01bc42f4             STW     .D2T1   A3,*+SP(8)        ; |47| 
    1823 0000030c           $C$RL16:   ; CALL OCCURS {printf} {0}        ; |47| 
    1824 0000030c           $C$DW$L$VLIB_Connected_Components_Labeling_d$23$E:
    1825                    ;** --------------------------------------------------------------------------*
    1826 0000030c           $C$DW$L$VLIB_Connected_Components_Labeling_d$24$B:
    1827                    ;          EXCLUSIVE CPU CYCLES: 7
    1828                    
    1829 0000030c 05282059             ADD     .L1     1,A10,A10         ; |46| 
    1830 00000310 0033f1a1  ||         SUB     .S1X    B12,1,A0          ; |46| 
    1831 00000314 0633e05a  ||         SUB     .L2     B12,1,B12         ; |46| 
    1832                    
    1833 00000318 01bd4f81             MPYU    .M1     A10,A15,A3        ; |47| 
    1834 0000031c c0000011  || [ A0]   B       .S1     $C$L8             ; |46| 
    1835 00000320 c200002a! || [ A0]   MVKL    .S2     $C$SL3+0,B4
    1836                    
    1837 00000324 c200006a!    [ A0]   MVKH    .S2     $C$SL3+0,B4
    1838 00000328 018c69a0             SHRU    .S1     A3,3,A3           ; |47| 
    1839 0000032c 01b06780             MPYHLU  .M1     A3,A12,A3         ; |47| 
    1840 00000330 c23c22f6     [ A0]   STW     .D2T2   B4,*+SP(4)        ; |47| 
    1841 00000334 018d40f8             SUB     .L1     A10,A3,A3         ; |47| 
    1842                            .dwpsn  file "./../packages/ti/vlib/src/VLIB_Connected_Components_Labeling/VLIB_Connected_Comp
    1843                               ; BRANCHCC OCCURS {$C$L8}         ; |46| 
    1844 00000338           $C$DW$L$VLIB_Connected_Components_Labeling_d$24$E:
    1845                    ;** --------------------------------------------------------------------------*
    1846 00000338           $C$L9:    
    1847 00000338           $C$DW$L$VLIB_Connected_Components_Labeling_d$25$B:
    1848                    ;          EXCLUSIVE CPU CYCLES: 8
    1849                    ;**     -----------------------g14:
    1850                    ;** 49  -----------------------    printf((const char *)"\n +");  // [29]
    1851                    ;** 50  -----------------------    if ( !width ) goto g17;  // [29]
    1852 00000338 0200002a!            MVKL    .S2     $C$SL5+0,B4
    1853 0000033c 0200006a!            MVKH    .S2     $C$SL5+0,B4
    1854                    $C$DW$207       .dwtag  DW_TAG_TI_branch
    1855                            .dwattr $C$DW$207, DW_AT_low_pc(0x00)
    1856                            .dwattr $C$DW$207, DW_AT_name("printf")
    1857                            .dwattr $C$DW$207, DW_AT_TI_call
    1858                    
    1859 00000340 10000013!            CALLP   .S2     printf,B3
    1860 00000344     bc45  ||         STW     .D2T2   B4,*+SP(4)        ; |49| 
    1861                    
    1862                            .dwpsn  file "./../packages/ti/vlib/src/VLIB_Connected_Components_Labeling/VLIB_Connected_Comp
    1863 00000346           $C$RL17:   ; CALL OCCURS {printf} {0}        ; |49| 
    1864 00000346           $C$DW$L$VLIB_Connected_Components_Labeling_d$25$E:
    1865                    ;** --------------------------------------------------------------------------*
    1866 00000346           $C$DW$L$VLIB_Connected_Components_Labeling_d$26$B:
    1867                    ;          EXCLUSIVE CPU CYCLES: 7
    1868                    ;** 51  -----------------------    L$4 = (unsigned)width;  // [29]
    1869                    ;**     -----------------------    #pragma MUST_ITERATE(1, 65535, 1)
    1870                    ;**     -----------------------    #pragma LOOP_FLAGS(5120u)
TMS320C6x Assembler PC v7.4.2 Thu Mar 19 12:40:14 2015

Tools Copyright (c) 1996-2012 Texas Instruments Incorporated
package/lib/Regression/regress_d_c/./../packages/ti/vlib/src/VLIB_Connected_Components_Labeling/VLIB_Connected_Components_Labeling_d.se66 PAGE   35

    1871 00000346     1506             MV      .L1X    B10,A0            ; |49| 
    1872                            .dwpsn  file "./../packages/ti/vlib/src/VLIB_Connected_Components_Labeling/VLIB_Connected_Comp
    1873 00000348 d018a120     [!A0]   BNOP    .S1     $C$L11,5          ; |50| 
    1874                               ; BRANCHCC OCCURS {$C$L11}        ; |50| 
    1875 0000034c           $C$DW$L$VLIB_Connected_Components_Labeling_d$26$E:
    1876                    ;*----------------------------------------------------------------------------*
    1877                    ;*   SOFTWARE PIPELINE INFORMATION
    1878                    ;*      Disqualified loop: Loop contains a call
    1879                    ;*      Disqualified loop: Loop contains non-pipelinable instructions
    1880                    ;*----------------------------------------------------------------------------*
    1881 0000034c           $C$L10:    
    1882                            .dwpsn  file "./../packages/ti/vlib/src/VLIB_Connected_Components_Labeling/VLIB_Connected_Comp
    1883                    $C$DW$L$VLIB_Connected_Components_Labeling_d$27$B:
    1884                    ;          EXCLUSIVE CPU CYCLES: 6
    1885                    ;**     -----------------------g16:
    1886                    ;** 51  -----------------------    printf((const char *)"-");  // [29]
    1887                    ;** 50  -----------------------    if ( L$4 = L$4-1 ) goto g16;  // [29]
    1888                    $C$DW$208       .dwtag  DW_TAG_TI_branch
    1889                            .dwattr $C$DW$208, DW_AT_low_pc(0x00)
    1890                            .dwattr $C$DW$208, DW_AT_name("printf")
    1891                            .dwattr $C$DW$208, DW_AT_TI_call
    1892 0000034c 00000010!            CALL    .S1     printf            ; |51| 
    1893 00000350 0200002a!            MVKL    .S2     $C$SL6+0,B4
    1894 00000354 0200006a!            MVKH    .S2     $C$SL6+0,B4
    1895 00000358 023c22f6             STW     .D2T2   B4,*+SP(4)        ; |51| 
    1896 00000360 01812162             ADDKPC  .S2     $C$RL18,B3,1      ; |51| 
    1897 00000364           $C$RL18:   ; CALL OCCURS {printf} {0}        ; |51| 
    1898 00000364           $C$DW$L$VLIB_Connected_Components_Labeling_d$27$E:
    1899                    ;** --------------------------------------------------------------------------*
    1900 00000364           $C$DW$L$VLIB_Connected_Components_Labeling_d$28$B:
    1901                    ;          EXCLUSIVE CPU CYCLES: 7
    1902                    
    1903 00000364 002bf059             SUB     .L1X    B10,1,A0          ; |50| 
    1904 00000368 052be05a  ||         SUB     .L2     B10,1,B10         ; |50| 
    1905                    
    1906                            .dwpsn  file "./../packages/ti/vlib/src/VLIB_Connected_Components_Labeling/VLIB_Connected_Comp
    1907 0000036c cff6a120     [ A0]   BNOP    .S1     $C$L10,5          ; |50| 
    1908                               ; BRANCHCC OCCURS {$C$L10}        ; |50| 
    1909 00000370           $C$DW$L$VLIB_Connected_Components_Labeling_d$28$E:
    1910                    ;** --------------------------------------------------------------------------*
    1911 00000370           $C$L11:    
    1912 00000370           $C$DW$L$VLIB_Connected_Components_Labeling_d$29$B:
    1913                    ;          EXCLUSIVE CPU CYCLES: 5
    1914                            .dwpsn  file "./../packages/ti/vlib/src/VLIB_Connected_Components_Labeling/VLIB_Connected_Comp
    1915                    $C$DW$209       .dwtag  DW_TAG_TI_branch
    1916                            .dwattr $C$DW$209, DW_AT_low_pc(0x00)
    1917                            .dwattr $C$DW$209, DW_AT_name("memset")
    1918                            .dwattr $C$DW$209, DW_AT_TI_call
    1919 00000370 00000010!            CALL    .S1     memset            ; |180| 
    1920 00000374     8fcd             LDW     .D2T1   *+SP(112),A4      ; |180| 
    1921 00000376     4c6e             NOP             3
    1922 00000380           $C$DW$L$VLIB_Connected_Components_Labeling_d$29$E:
    1923                    ;** --------------------------------------------------------------------------*
    1924 00000380           $C$L12:    
    1925                            .dwpsn  file "./../packages/ti/vlib/src/VLIB_Connected_Components_Labeling/VLIB_Connected_Comp
TMS320C6x Assembler PC v7.4.2 Thu Mar 19 12:40:14 2015

Tools Copyright (c) 1996-2012 Texas Instruments Incorporated
package/lib/Regression/regress_d_c/./../packages/ti/vlib/src/VLIB_Connected_Components_Labeling/VLIB_Connected_Components_Labeling_d.se66 PAGE   36

    1926 00000380           $C$DW$L$VLIB_Connected_Components_Labeling_d$30$B:
    1927                    ;          EXCLUSIVE CPU CYCLES: 1
    1928                    ;**     -----------------------g17:
    1929                    ;** 180 -----------------------    memset((void *)pIn32BitPacked, 0, U$32);
    1930                    ;** 181 -----------------------    memset((void *)pOutMap, 0, out_size);
    1931                    ;** 187 -----------------------    v$1 = prm;
    1932                    ;** 187 -----------------------    extra = mod_width > (unsigned)(*U$13).width;
    1933                    ;** 189 -----------------------    if ( !(*U$13).height ) goto g37;
    1934                    
    1935 00000380     c706             MV      .L1     A14,A6            ; |180| 
    1936 00000382     0627  ||         ZERO    .L2     B4                ; |180| 
    1937 00000384 01820162  ||         ADDKPC  .S2     $C$RL19,B3,0      ; |180| 
    1938                    
    1939                            .dwpsn  file "./../packages/ti/vlib/src/VLIB_Connected_Components_Labeling/VLIB_Connected_Comp
    1940 00000388           $C$RL19:   ; CALL OCCURS {memset} {0}        ; |180| 
    1941 00000388           $C$DW$L$VLIB_Connected_Components_Labeling_d$30$E:
    1942                    ;** --------------------------------------------------------------------------*
    1943 00000388           $C$DW$L$VLIB_Connected_Components_Labeling_d$31$B:
    1944                    ;          EXCLUSIVE CPU CYCLES: 7
    1945                            .dwpsn  file "./../packages/ti/vlib/src/VLIB_Connected_Components_Labeling/VLIB_Connected_Comp
    1946 00000388     ef4d             LDW     .D2T1   *+SP(108),A4      ; |181| 
    1947                    $C$DW$210       .dwtag  DW_TAG_TI_branch
    1948                            .dwattr $C$DW$210, DW_AT_low_pc(0x00)
    1949                            .dwattr $C$DW$210, DW_AT_name("memset")
    1950                            .dwattr $C$DW$210, DW_AT_TI_call
    1951                    
    1952 0000038c 10000013!            CALLP   .S2     memset,B3
    1953 0000038a     cfed  ||         LDW     .D2T1   *+SP(120),A6      ; |180| 
    1954 00000390 0200a35a  ||         ZERO    .L2     B4                ; |181| 
    1955                    
    1956 00000394           $C$RL20:   ; CALL OCCURS {memset} {0}        ; |181| 
    1957 00000394           $C$DW$L$VLIB_Connected_Components_Labeling_d$31$E:
    1958                    ;** --------------------------------------------------------------------------*
    1959 00000394           $C$DW$L$VLIB_Connected_Components_Labeling_d$32$B:
    1960                    ;          EXCLUSIVE CPU CYCLES: 11
    1961                    
    1962 00000394 002d6205             LDHU    .D1T1   *+A11(22),A0      ; |189| 
    1963 00000398     becd  ||         LDW     .D2T2   *+SP(84),B4
    1964                    
    1965 0000039a     efcd             LDW     .D2T1   *+SP(124),A4
    1966                    
    1967 000003a0 06bd62e7             LDW     .D2T2   *+SP(44),B13      ; |187| 
    1968 000003a4 01ad4204  ||         LDHU    .D1T1   *+A11(20),A3      ; |187| 
    1969                    
    1970 000003a8     2c6e             NOP             2
    1971                    
    1972 000003ac d0ea2121     [!A0]   BNOP    .S1     $C$L23,1          ; |189| 
    1973 000003aa     2046  ||         MV      .L1     A0,A1             ; guard predicate rewrite
    1974 000003b0 c6000040  || [ A0]   ZERO    .D1     A12               ; |189| 
    1975                    
    1976 000003b4 0211a07b             ADD     .L2     B13,B4,B4
    1977 000003b8 018c89f8  ||         CMPGTU  .L1     A4,A3,A3          ; |187| 
    1978                    
    1979 000003c0 c23ee2f7     [ A0]   STW     .D2T2   B4,*+SP(92)
    1980 000003c4 822caca2  || [ A1]   SHL     .S2     B11,5,B4
TMS320C6x Assembler PC v7.4.2 Thu Mar 19 12:40:14 2015

Tools Copyright (c) 1996-2012 Texas Instruments Incorporated
package/lib/Regression/regress_d_c/./../packages/ti/vlib/src/VLIB_Connected_Components_Labeling/VLIB_Connected_Components_Labeling_d.se66 PAGE   37

    1981                    
    1982 000003c8 000023ed             LDW     .D2T1   *+SP(140),A0
    1983 000003cc 8211a07a  || [ A1]   ADD     .L2     B13,B4,B4
    1984                    
    1985                            .dwpsn  file "./../packages/ti/vlib/src/VLIB_Connected_Components_Labeling/VLIB_Connected_Comp
    1986 000003d0 01bec2f4             STW     .D2T1   A3,*+SP(88)       ; |187| 
    1987                            .dwpsn  file "./../packages/ti/vlib/src/VLIB_Connected_Components_Labeling/VLIB_Connected_Comp
    1988                               ; BRANCHCC OCCURS {$C$L23}        ; |189| 
    1989 000003d4           $C$DW$L$VLIB_Connected_Components_Labeling_d$32$E:
    1990                    ;** --------------------------------------------------------------------------*
    1991 000003d4           $C$DW$L$VLIB_Connected_Components_Labeling_d$33$B:
    1992                    ;          EXCLUSIVE CPU CYCLES: 3
    1993                    ;**     -----------------------    U$138 = U$12+v$1;
    1994                    ;** 189 -----------------------    j = 0;
    1995                    ;**     -----------------------    #pragma LOOP_FLAGS(5120u)
    1996 000003d4 06114286             LDHU    .D2T2   *+B4(20),B12
    1997 000003d8 00002001             NOP             2
    1998 000003e0           $C$DW$L$VLIB_Connected_Components_Labeling_d$33$E:
    1999                    ;** --------------------------------------------------------------------------*
    2000                    ;**   BEGIN LOOP $C$L13
    2001                    ;** --------------------------------------------------------------------------*
    2002 000003e0           $C$L13:    
    2003                            .dwpsn  file "./../packages/ti/vlib/src/VLIB_Connected_Components_Labeling/VLIB_Connected_Comp
    2004 000003e0           $C$DW$L$VLIB_Connected_Components_Labeling_d$34$B:
    2005                    ;          EXCLUSIVE CPU CYCLES: 6
    2006                    ;**     -----------------------g19:
    2007                    ;**     -----------------------    U$140 = (*((tpi<<5)+v$1)).width;
    2008                    ;** 193 -----------------------    if ( !LevelOfFeedback ) goto g21;
    2009                    
    2010 000003e0     08ba     [!A0]   B       .S1     $C$L14            ; |193| 
    2011 000003e4 c200002b! || [ A0]   MVKL    .S2     $C$SL7+0,B4
    2012 000003e2     2046  ||         MV      .L1     A0,A1             ; guard predicate rewrite
    2013 000003e8 d7800040  || [!A0]   ZERO    .D1     A15               ; |191| 
    2014                    
    2015 000003ec c200006b!    [ A0]   MVKH    .S2     $C$SL7+0,B4
    2016 000003f0 d500a358  || [!A0]   ZERO    .L1     A10               ; |191| 
    2017                    
    2018                    $C$DW$211       .dwtag  DW_TAG_TI_branch
    2019                            .dwattr $C$DW$211, DW_AT_low_pc(0x00)
    2020                            .dwattr $C$DW$211, DW_AT_name("printf")
    2021                            .dwattr $C$DW$211, DW_AT_TI_call
    2022                    
    2023 000003f4 c0000011!    [ A0]   CALL    .S1     printf            ; |194| 
    2024 000003f8 d0301fd8  || [!A0]   MV      .L1X    B12,A0            ; |191| 
    2025                    
    2026                            .dwpsn  file "./../packages/ti/vlib/src/VLIB_Connected_Components_Labeling/VLIB_Connected_Comp
    2027 00000400 8004a358     [ A1]   MVK     .L1     0x1,A0            ; |191| nullify predicate
    2028                            .dwpsn  file "./../packages/ti/vlib/src/VLIB_Connected_Components_Labeling/VLIB_Connected_Comp
    2029 00000404 d04b2120     [!A0]   BNOP    .S1     $C$L22,1          ; |197| 
    2030                            .dwpsn  file "./../packages/ti/vlib/src/VLIB_Connected_Components_Labeling/VLIB_Connected_Comp
    2031                               ; BRANCHCC OCCURS {$C$L14}        ; |193| 
    2032 00000408           $C$DW$L$VLIB_Connected_Components_Labeling_d$34$E:
    2033                    ;** --------------------------------------------------------------------------*
    2034 00000408           $C$DW$L$VLIB_Connected_Components_Labeling_d$35$B:
    2035                    ;          EXCLUSIVE CPU CYCLES: 5
TMS320C6x Assembler PC v7.4.2 Thu Mar 19 12:40:14 2015

Tools Copyright (c) 1996-2012 Texas Instruments Incorporated
package/lib/Regression/regress_d_c/./../packages/ti/vlib/src/VLIB_Connected_Components_Labeling/VLIB_Connected_Components_Labeling_d.se66 PAGE   38

    2036                    ;** 194 -----------------------    printf((const char *)"\n%d|", j);
    2037                            .dwpsn  file "./../packages/ti/vlib/src/VLIB_Connected_Components_Labeling/VLIB_Connected_Comp
    2038 00000408 023c22f6             STW     .D2T2   B4,*+SP(4)        ; |194| 
    2039                    
    2040 0000040c 063c42f5             STW     .D2T1   A12,*+SP(8)       ; |194| 
    2041 00000410 01850162  ||         ADDKPC  .S2     $C$RL21,B3,0      ; |194| 
    2042                    
    2043 00000414           $C$RL21:   ; CALL OCCURS {printf} {0}        ; |194| 
    2044                    
    2045 00000414 00301fd9             MV      .L1X    B12,A0            ; |191| 
    2046 00000418 05000029  ||         ZERO    .S1     A10               ; |191| 
    2047 0000041c 07800040  ||         ZERO    .D1     A15               ; |191| 
    2048                    
    2049                            .dwpsn  file "./../packages/ti/vlib/src/VLIB_Connected_Components_Labeling/VLIB_Connected_Comp
    2050 00000420 d0432120     [!A0]   BNOP    .S1     $C$L22,1          ; |197| 
    2051 00000424           $C$DW$L$VLIB_Connected_Components_Labeling_d$35$E:
    2052                    ;** --------------------------------------------------------------------------*
    2053 00000424           $C$L14:    
    2054                            .dwpsn  file "./../packages/ti/vlib/src/VLIB_Connected_Components_Labeling/VLIB_Connected_Comp
    2055 00000424           $C$DW$L$VLIB_Connected_Components_Labeling_d$36$B:
    2056                    ;          EXCLUSIVE CPU CYCLES: 4
    2057                    ;**     -----------------------g21:
    2058                    ;** 191 -----------------------    word = 0;
    2059                    ;** 192 -----------------------    pos = 0;
    2060                    ;** 197 -----------------------    if ( !U$140 ) goto g34;
    2061                    
    2062 00000424 c23fa2e5     [ A0]   LDW     .D2T1   *+SP(116),A4      ; |199| 
    2063 00000428 c1800fa8  || [ A0]   MVK     .S1     0x1f,A3           ; |190| 
    2064                    
    2065                            .dwpsn  file "./../packages/ti/vlib/src/VLIB_Connected_Components_Labeling/VLIB_Connected_Comp
    2066 0000042c c73c0fd8     [ A0]   MV      .L1     A15,A14           ; |190| 
    2067                    
    2068 00000430 c50c1fdb     [ A0]   MV      .L2X    A3,B10            ; |190| 
    2069 00000434 c1b01fd8  || [ A0]   MV      .L1X    B12,A3
    2070                    
    2071                            .dwpsn  file "./../packages/ti/vlib/src/VLIB_Connected_Components_Labeling/VLIB_Connected_Comp
    2072 00000438 c18d8800     [ A0]   MPY32   .M1     A12,A3,A3         ; |199| 
    2073                            .dwpsn  file "./../packages/ti/vlib/src/VLIB_Connected_Components_Labeling/VLIB_Connected_Comp
    2074                               ; BRANCHCC OCCURS {$C$L22}        ; |197| 
    2075 0000043c           $C$DW$L$VLIB_Connected_Components_Labeling_d$36$E:
    2076                    ;** --------------------------------------------------------------------------*
    2077 0000043c           $C$DW$L$VLIB_Connected_Components_Labeling_d$37$B:
    2078                    ;          EXCLUSIVE CPU CYCLES: 5
    2079                    ;** 190 -----------------------    shift = 31;
    2080                    ;** 197 -----------------------    i = 0;
    2081                    ;**     -----------------------    #pragma LOOP_FLAGS(5120u)
    2082 0000043c 00004000             NOP             3
    2083                            .dwpsn  file "./../packages/ti/vlib/src/VLIB_Connected_Components_Labeling/VLIB_Connected_Comp
    2084 00000440 018dc078             ADD     .L1     A14,A3,A3         ; |199| 
    2085 00000444 000c8a14             LDBU    .D1T1   *+A3[A4],A0       ; |199| 
    2086 00000448           $C$DW$L$VLIB_Connected_Components_Labeling_d$37$E:
    2087                    ;*----------------------------------------------------------------------------*
    2088                    ;*   SOFTWARE PIPELINE INFORMATION
    2089                    ;*      Disqualified loop: Loop contains control code
    2090                    ;*----------------------------------------------------------------------------*
TMS320C6x Assembler PC v7.4.2 Thu Mar 19 12:40:14 2015

Tools Copyright (c) 1996-2012 Texas Instruments Incorporated
package/lib/Regression/regress_d_c/./../packages/ti/vlib/src/VLIB_Connected_Components_Labeling/VLIB_Connected_Components_Labeling_d.se66 PAGE   39

    2091 00000448           $C$L15:    
    2092                            .dwpsn  file "./../packages/ti/vlib/src/VLIB_Connected_Components_Labeling/VLIB_Connected_Comp
    2093 00000448           $C$DW$L$VLIB_Connected_Components_Labeling_d$38$B:
    2094                    ;          EXCLUSIVE CPU CYCLES: 10
    2095                    ;**     -----------------------g23:
    2096                    ;** 199 -----------------------    if ( input_image[U$140*j+i] ) goto g27;
    2097 00000448     6c6e             NOP             4
    2098                    
    2099 0000044a     2046             MV      .L1     A0,A1             ; branch predicate copy
    2100 00000450 c0000990  || [ A0]   B       .S1     $C$L17            ; |199| 
    2101 0000044c 000023ed  ||         LDW     .D2T1   *+SP(140),A0
    2102                    
    2103 00000454 800023ec     [ A1]   LDW     .D2T1   *+SP(140),A0
    2104 00000458     6c6e             NOP             4
    2105                            .dwpsn  file "./../packages/ti/vlib/src/VLIB_Connected_Components_Labeling/VLIB_Connected_Comp
    2106                               ; BRANCHCC OCCURS {$C$L17}        ; |199| 
    2107 00000460           $C$DW$L$VLIB_Connected_Components_Labeling_d$38$E:
    2108                    ;** --------------------------------------------------------------------------*
    2109 00000460           $C$DW$L$VLIB_Connected_Components_Labeling_d$39$B:
    2110                    ;          EXCLUSIVE CPU CYCLES: 6
    2111                    ;** 205 -----------------------    if ( !LevelOfFeedback ) goto g26;
    2112                    
    2113 00000460     04ba     [!A0]   B       .S1     $C$L16            ; |205| 
    2114 00000464 c200002a! || [ A0]   MVKL    .S2     $C$SL8+0,B4
    2115 00000462     49e6  || [!A0]   ZERO    .L1     A3                ; |208| 
    2116                    
    2117                    $C$DW$212       .dwtag  DW_TAG_TI_branch
    2118                            .dwattr $C$DW$212, DW_AT_low_pc(0x00)
    2119                            .dwattr $C$DW$212, DW_AT_name("printf")
    2120                            .dwattr $C$DW$212, DW_AT_TI_call
    2121                    
    2122 00000468 c0000011!    [ A0]   CALL    .S1     printf            ; |206| 
    2123 0000046c c200006a! || [ A0]   MVKH    .S2     $C$SL8+0,B4
    2124                    
    2125                            .dwpsn  file "./../packages/ti/vlib/src/VLIB_Connected_Components_Labeling/VLIB_Connected_Comp
    2126 00000470 d0306120     [!A0]   BNOP    .S1     $C$L19,3          ; |208| 
    2127                            .dwpsn  file "./../packages/ti/vlib/src/VLIB_Connected_Components_Labeling/VLIB_Connected_Comp
    2128                               ; BRANCHCC OCCURS {$C$L16}        ; |205| 
    2129 00000474           $C$DW$L$VLIB_Connected_Components_Labeling_d$39$E:
    2130                    ;** --------------------------------------------------------------------------*
    2131 00000474           $C$DW$L$VLIB_Connected_Components_Labeling_d$40$B:
    2132                    ;          EXCLUSIVE CPU CYCLES: 5
    2133                    ;** 206 -----------------------    printf((const char *)" ");
    2134                    
    2135 00000474 01880163             ADDKPC  .S2     $C$RL22,B3,0      ; |206| 
    2136 00000478 023c22f6  ||         STW     .D2T2   B4,*+SP(4)        ; |206| 
    2137                    
    2138                            .dwpsn  file "./../packages/ti/vlib/src/VLIB_Connected_Components_Labeling/VLIB_Connected_Comp
    2139 00000480           $C$RL22:   ; CALL OCCURS {printf} {0}        ; |206| 
    2140                    
    2141 00000480     680a             BNOP    .S1     $C$L19,3          ; |208| 
    2142 00000482     05a6  ||         ZERO    .L1     A3                ; |208| 
    2143                    
    2144 00000484           $C$DW$L$VLIB_Connected_Components_Labeling_d$40$E:
    2145                    ;** --------------------------------------------------------------------------*
TMS320C6x Assembler PC v7.4.2 Thu Mar 19 12:40:14 2015

Tools Copyright (c) 1996-2012 Texas Instruments Incorporated
package/lib/Regression/regress_d_c/./../packages/ti/vlib/src/VLIB_Connected_Components_Labeling/VLIB_Connected_Components_Labeling_d.se66 PAGE   40

    2146 00000484           $C$L16:    
    2147                            .dwpsn  file "./../packages/ti/vlib/src/VLIB_Connected_Components_Labeling/VLIB_Connected_Comp
    2148 00000484           $C$DW$L$VLIB_Connected_Components_Labeling_d$41$B:
    2149                    ;          EXCLUSIVE CPU CYCLES: 2
    2150                    ;**     -----------------------g26:
    2151                    ;** 208 -----------------------    fgMaskPixel = 0;
    2152                    ;** 208 -----------------------    goto g30;
    2153 00000484     1506             MV      .L1X    B10,A0
    2154                    
    2155 00000488 c0001112     [ A0]   B       .S2     $C$L20            ; |213| 
    2156 00000486     05e2  ||         SHL     .S1     A3,A0,A3          ; |211| 
    2157                    
    2158                            .dwpsn  file "./../packages/ti/vlib/src/VLIB_Connected_Components_Labeling/VLIB_Connected_Comp
    2159                               ; BRANCH OCCURS {$C$L19}          ; |208| 
    2160 0000048c           $C$DW$L$VLIB_Connected_Components_Labeling_d$41$E:
    2161                    ;** --------------------------------------------------------------------------*
    2162 0000048c           $C$L17:    
    2163                            .dwpsn  file "./../packages/ti/vlib/src/VLIB_Connected_Components_Labeling/VLIB_Connected_Comp
    2164 0000048c           $C$DW$L$VLIB_Connected_Components_Labeling_d$42$B:
    2165                    ;          EXCLUSIVE CPU CYCLES: 6
    2166                    ;**     -----------------------g27:
    2167                    ;** 200 -----------------------    if ( !LevelOfFeedback ) goto g29;
    2168                            .dwpsn  file "./../packages/ti/vlib/src/VLIB_Connected_Components_Labeling/VLIB_Connected_Comp
    2169 0000048c d0000610     [!A0]   B       .S1     $C$L18            ; |200| 
    2170                            .dwpsn  file "./../packages/ti/vlib/src/VLIB_Connected_Components_Labeling/VLIB_Connected_Comp
    2171                    $C$DW$213       .dwtag  DW_TAG_TI_branch
    2172                            .dwattr $C$DW$213, DW_AT_low_pc(0x00)
    2173                            .dwattr $C$DW$213, DW_AT_name("printf")
    2174                            .dwattr $C$DW$213, DW_AT_TI_call
    2175 00000490 c0000010!    [ A0]   CALL    .S1     printf            ; |201| 
    2176                            .dwpsn  file "./../packages/ti/vlib/src/VLIB_Connected_Components_Labeling/VLIB_Connected_Comp
    2177 00000494 d184a358     [!A0]   MVK     .L1     0x1,A3            ; |203| 
    2178 00000498 c200002a!    [ A0]   MVKL    .S2     $C$SL9+0,B4
    2179 000004a0 c200006a!    [ A0]   MVKH    .S2     $C$SL9+0,B4
    2180 000004a4     0c6e             NOP             1
    2181                            .dwpsn  file "./../packages/ti/vlib/src/VLIB_Connected_Components_Labeling/VLIB_Connected_Comp
    2182                               ; BRANCHCC OCCURS {$C$L18}        ; |200| 
    2183 000004a6           $C$DW$L$VLIB_Connected_Components_Labeling_d$42$E:
    2184                    ;** --------------------------------------------------------------------------*
    2185 000004a6           $C$DW$L$VLIB_Connected_Components_Labeling_d$43$B:
    2186                    ;          EXCLUSIVE CPU CYCLES: 2
    2187                    ;** 201 -----------------------    printf((const char *)"*");
    2188                    
    2189 000004a6     bc45             STW     .D2T2   B4,*+SP(4)        ; |201| 
    2190 000004a8 01830162  ||         ADDKPC  .S2     $C$RL23,B3,0      ; |201| 
    2191                    
    2192                            .dwpsn  file "./../packages/ti/vlib/src/VLIB_Connected_Components_Labeling/VLIB_Connected_Comp
    2193 000004ac           $C$RL23:   ; CALL OCCURS {printf} {0}        ; |201| 
    2194                            .dwpsn  file "./../packages/ti/vlib/src/VLIB_Connected_Components_Labeling/VLIB_Connected_Comp
    2195 000004ac 0184a358             MVK     .L1     0x1,A3            ; |203| 
    2196 000004b0           $C$DW$L$VLIB_Connected_Components_Labeling_d$43$E:
    2197                    ;** --------------------------------------------------------------------------*
    2198 000004b0           $C$L18:    
    2199                            .dwpsn  file "./../packages/ti/vlib/src/VLIB_Connected_Components_Labeling/VLIB_Connected_Comp
    2200 000004b0           $C$DW$L$VLIB_Connected_Components_Labeling_d$44$B:
TMS320C6x Assembler PC v7.4.2 Thu Mar 19 12:40:14 2015

Tools Copyright (c) 1996-2012 Texas Instruments Incorporated
package/lib/Regression/regress_d_c/./../packages/ti/vlib/src/VLIB_Connected_Components_Labeling/VLIB_Connected_Components_Labeling_d.se66 PAGE   41

    2201                    ;**     -----------------------g29:
    2202                    ;** 203 -----------------------    fgMaskPixel = 1;
    2203 000004b0           $C$DW$L$VLIB_Connected_Components_Labeling_d$44$E:
    2204                    ;** --------------------------------------------------------------------------*
    2205 000004b0           $C$DW$L$VLIB_Connected_Components_Labeling_d$45$B:
    2206                    ;          EXCLUSIVE CPU CYCLES: 2
    2207 000004b0     1506             MV      .L1X    B10,A0
    2208                    
    2209 000004b4 c0000d13     [ A0]   B       .S2     $C$L20            ; |213| 
    2210 000004b2     05e2  ||         SHL     .S1     A3,A0,A3          ; |211| 
    2211                    
    2212 000004c0           $C$DW$L$VLIB_Connected_Components_Labeling_d$45$E:
    2213                    ;** --------------------------------------------------------------------------*
    2214 000004c0           $C$L19:    
    2215                            .dwpsn  file "./../packages/ti/vlib/src/VLIB_Connected_Components_Labeling/VLIB_Connected_Comp
    2216 000004c0           $C$DW$L$VLIB_Connected_Components_Labeling_d$46$B:
    2217                    ;          EXCLUSIVE CPU CYCLES: 5
    2218                    ;**     -----------------------g30:
    2219                    ;** 211 -----------------------    word |= fgMaskPixel<<shift;
    2220                    ;** 213 -----------------------    if ( shift ) goto g32;
    2221                    
    2222 000004c0 c52be05b     [ A0]   SUB     .L2     B10,1,B10         ; |219| 
    2223 000004c4 05286ff9  ||         OR      .L1     A3,A10,A10        ; |211| 
    2224 000004c8 d1b1a800  || [!A0]   MPY32   .M1     A13,A12,A3        ; |214| 
    2225                    
    2226                            .dwpsn  file "./../packages/ti/vlib/src/VLIB_Connected_Components_Labeling/VLIB_Connected_Comp
    2227 000004cc d23f82e4     [!A0]   LDW     .D2T1   *+SP(112),A4      ; |214| 
    2228                            .dwpsn  file "./../packages/ti/vlib/src/VLIB_Connected_Components_Labeling/VLIB_Connected_Comp
    2229 000004d0 d0122120     [!A0]   BNOP    .S1     $C$L21,1          ; |218| 
    2230                            .dwpsn  file "./../packages/ti/vlib/src/VLIB_Connected_Components_Labeling/VLIB_Connected_Comp
    2231 000004d4 d18c4ca1     [!A0]   SHL     .S1     A3,2,A3           ; |214| 
    2232                            .dwpsn  file "./../packages/ti/vlib/src/VLIB_Connected_Components_Labeling/VLIB_Connected_Comp
    2233                               ; BRANCHCC OCCURS {$C$L20}        ; |213| 
    2234 000004e0           $C$DW$L$VLIB_Connected_Components_Labeling_d$46$E:
    2235                    ;** --------------------------------------------------------------------------*
    2236 000004e0           $C$DW$L$VLIB_Connected_Components_Labeling_d$47$B:
    2237                    ;          EXCLUSIVE CPU CYCLES: 3
    2238                    ;** 214 -----------------------    pIn32BitPacked[j*packed_width+pos] = word;
    2239                    ;** 215 -----------------------    ++pos;
    2240                    ;**     -----------------------    U$140 = (*((tpi<<5)+v$1)).width;
    2241                    ;** 216 -----------------------    word = 0;
    2242                    ;** 217 -----------------------    shift = 31;
    2243                    ;** 218 -----------------------    goto g33;
    2244                    
    2245 000004e0 02800fa9             MVK     .S1     0x1f,A5           ; |217| 
    2246 000004e4 022caca3  ||         SHL     .S2     B11,5,B4
    2247 000004e8 018dfc41  ||         ADDAW   .D1     A3,A15,A3         ; |214| 
    2248 000004ec 07bc2058  ||         ADD     .L1     1,A15,A15         ; |215| 
    2249                    
    2250 000004f4     81b0             ADD     .L1     A4,A3,A3          ; |214| 
    2251 000004f0 0211a07b  ||         ADD     .L2     B13,B4,B4
    2252                    
    2253 000004f6     56c7             MV      .L2X    A5,B10
    2254 000004f8 050c0275  ||         STW     .D1T1   A10,*A3           ; |214| 
    2255 00000500 06114287  ||         LDHU    .D2T2   *+B4(20),B12
TMS320C6x Assembler PC v7.4.2 Thu Mar 19 12:40:14 2015

Tools Copyright (c) 1996-2012 Texas Instruments Incorporated
package/lib/Regression/regress_d_c/./../packages/ti/vlib/src/VLIB_Connected_Components_Labeling/VLIB_Connected_Components_Labeling_d.se66 PAGE   42

    2256 00000504 0500a358  ||         ZERO    .L1     A10               ; |216| 
    2257                    
    2258                            .dwpsn  file "./../packages/ti/vlib/src/VLIB_Connected_Components_Labeling/VLIB_Connected_Comp
    2259                               ; BRANCH OCCURS {$C$L21}          ; |218| 
    2260 00000508           $C$DW$L$VLIB_Connected_Components_Labeling_d$47$E:
    2261                    ;** --------------------------------------------------------------------------*
    2262 00000508           $C$L20:    
    2263                            .dwpsn  file "./../packages/ti/vlib/src/VLIB_Connected_Components_Labeling/VLIB_Connected_Comp
    2264 00000508           $C$DW$L$VLIB_Connected_Components_Labeling_d$48$B:
    2265                    ;**     -----------------------g32:
    2266                    ;** 219 -----------------------    --shift;
    2267 00000508           $C$DW$L$VLIB_Connected_Components_Labeling_d$48$E:
    2268                    ;** --------------------------------------------------------------------------*
    2269 00000508           $C$L21:    
    2270                            .dwpsn  file "./../packages/ti/vlib/src/VLIB_Connected_Components_Labeling/VLIB_Connected_Comp
    2271 00000508           $C$DW$L$VLIB_Connected_Components_Labeling_d$49$B:
    2272                    ;          EXCLUSIVE CPU CYCLES: 12
    2273                    ;**     -----------------------g33:
    2274                    ;** 197 -----------------------    if ( U$140 > (++i) ) goto g23;
    2275                            .dwpsn  file "./../packages/ti/vlib/src/VLIB_Connected_Components_Labeling/VLIB_Connected_Comp
    2276 00000508 07382058             ADD     .L1     1,A14,A14         ; |197| 
    2277 0000050c 00004000             NOP             3
    2278 00000510 0031daf8             CMPGT   .L1X    B12,A14,A0        ; |197| 
    2279                    
    2280 00000514 01b01fd9             MV      .L1X    B12,A3
    2281 00000518 c23fa2e4  || [ A0]   LDW     .D2T1   *+SP(116),A4      ; |199| 
    2282                    
    2283 0000051c cfd26121     [ A0]   BNOP    .S1     $C$L15,3          ; |197| 
    2284 00000520 018d8800  ||         MPY32   .M1     A12,A3,A3         ; |199| 
    2285                    
    2286                            .dwpsn  file "./../packages/ti/vlib/src/VLIB_Connected_Components_Labeling/VLIB_Connected_Comp
    2287 00000524 018dc078             ADD     .L1     A14,A3,A3         ; |199| 
    2288 00000528 c00c8a14     [ A0]   LDBU    .D1T1   *+A3[A4],A0       ; |199| 
    2289                            .dwpsn  file "./../packages/ti/vlib/src/VLIB_Connected_Components_Labeling/VLIB_Connected_Comp
    2290                               ; BRANCHCC OCCURS {$C$L15}        ; |197| 
    2291 0000052c           $C$DW$L$VLIB_Connected_Components_Labeling_d$49$E:
    2292                    ;** --------------------------------------------------------------------------*
    2293 0000052c           $C$L22:    
    2294 0000052c           $C$DW$L$VLIB_Connected_Components_Labeling_d$50$B:
    2295                    ;          EXCLUSIVE CPU CYCLES: 18
    2296                    ;**     -----------------------g34:
    2297                    ;** 222 -----------------------    if ( !extra ) goto g36;
    2298                    ;** 223 -----------------------    pIn32BitPacked[j*packed_width+pos] = word;
    2299                    ;**     -----------------------g36:
    2300                    ;** 189 -----------------------    if ( (*U$138).height > (++j) ) goto g19;
    2301 0000052c     ce8d             LDW     .D2T1   *+SP(88),A0
    2302 0000052e     eebd             LDW     .D2T1   *+SP(92),A3
    2303                            .dwpsn  file "./../packages/ti/vlib/src/VLIB_Connected_Components_Labeling/VLIB_Connected_Comp
    2304 00000530     8fdd             LDW     .D2T1   *+SP(112),A5      ; |223| 
    2305 00000532     2c6e             NOP             2
    2306 00000534 c231a800     [ A0]   MPY32   .M1     A13,A12,A4        ; |223| 
    2307                            .dwpsn  file "./../packages/ti/vlib/src/VLIB_Connected_Components_Labeling/VLIB_Connected_Comp
    2308 00000538 018d6204             LDHU    .D1T1   *+A3(22),A3       ; |189| 
    2309 00000540 06302058             ADD     .L1     1,A12,A12         ; |189| 
    2310 00000544 00000000             NOP             1
TMS320C6x Assembler PC v7.4.2 Thu Mar 19 12:40:14 2015

Tools Copyright (c) 1996-2012 Texas Instruments Incorporated
package/lib/Regression/regress_d_c/./../packages/ti/vlib/src/VLIB_Connected_Components_Labeling/VLIB_Connected_Components_Labeling_d.se66 PAGE   43

    2311                            .dwpsn  file "./../packages/ti/vlib/src/VLIB_Connected_Components_Labeling/VLIB_Connected_Comp
    2312 00000548 c2104ca0     [ A0]   SHL     .S1     A4,2,A4           ; |223| 
    2313 0000054c c211fc40     [ A0]   ADDAW   .D1     A4,A15,A4         ; |223| 
    2314                    
    2315 00000550 013068f9             CMPGT   .L1     A3,A12,A2         ; |189| 
    2316 00000554 c210a1e0  || [ A0]   ADD     .S1     A5,A4,A4          ; |223| 
    2317                    
    2318 00000558 afffd411     [ A2]   B       .S1     $C$L13            ; |189| 
    2319 0000055c c5100275  || [ A0]   STW     .D1T1   A10,*A4           ; |223| 
    2320 00000560 a22caca2  || [ A2]   SHL     .S2     B11,5,B4
    2321                    
    2322 00000564 a00023ec     [ A2]   LDW     .D2T1   *+SP(140),A0
    2323 00000568 a211a07a     [ A2]   ADD     .L2     B13,B4,B4
    2324 0000056c a6114286     [ A2]   LDHU    .D2T2   *+B4(20),B12
    2325 00000570 00002000             NOP             2
    2326                            .dwpsn  file "./../packages/ti/vlib/src/VLIB_Connected_Components_Labeling/VLIB_Connected_Comp
    2327                               ; BRANCHCC OCCURS {$C$L13}        ; |189| 
    2328 00000574           $C$DW$L$VLIB_Connected_Components_Labeling_d$50$E:
    2329                    ;** --------------------------------------------------------------------------*
    2330 00000574           $C$L23:    
    2331 00000574           $C$DW$L$VLIB_Connected_Components_Labeling_d$51$B:
    2332                    ;          EXCLUSIVE CPU CYCLES: 7
    2333                    ;**     -----------------------g37:
    2334                    ;** 227 -----------------------    fflush(K$179);
    2335                    ;** 229 -----------------------    if ( !LevelOfFeedback ) goto g39;
    2336 00000574 02000c28!            MVKL    .S1     _ftable+24,A4
    2337                    $C$DW$214       .dwtag  DW_TAG_TI_branch
    2338                            .dwattr $C$DW$214, DW_AT_low_pc(0x00)
    2339                            .dwattr $C$DW$214, DW_AT_name("fflush")
    2340                            .dwattr $C$DW$214, DW_AT_TI_call
    2341                    
    2342 00000578 10000013!            CALLP   .S2     fflush,B3
    2343 0000057c 02000068! ||         MVKH    .S1     _ftable+24,A4
    2344                    
    2345                            .dwpsn  file "./../packages/ti/vlib/src/VLIB_Connected_Components_Labeling/VLIB_Connected_Comp
    2346 00000580           $C$RL24:   ; CALL OCCURS {fflush} {0}        ; |227| 
    2347 00000580           $C$DW$L$VLIB_Connected_Components_Labeling_d$51$E:
    2348                    ;** --------------------------------------------------------------------------*
    2349 00000580           $C$DW$L$VLIB_Connected_Components_Labeling_d$52$B:
    2350                    ;          EXCLUSIVE CPU CYCLES: 11
    2351 00000580 000023ec             LDW     .D2T1   *+SP(140),A0      ; |227| 
    2352 00000584     6c6e             NOP             4
    2353                    
    2354 00000586     28ba     [!A0]   BNOP    .S1     $C$L24,1          ; |229| 
    2355 00000588 c1ace265  || [ A0]   LDW     .D1T1   *+A11(28),A3      ; |230| 
    2356 0000058c c200002a! || [ A0]   MVKL    .S2     $C$SL10+0,B4
    2357                    
    2358                            .dwpsn  file ".\..\packages\ti\vlib\src\VLIB_Connected_Components_Labeling\..\common\VLIB_prof
    2359                    $C$DW$215       .dwtag  DW_TAG_TI_branch
    2360                            .dwattr $C$DW$215, DW_AT_low_pc(0x00)
    2361                            .dwattr $C$DW$215, DW_AT_name("VLIB_cache_inval")
    2362                            .dwattr $C$DW$215, DW_AT_TI_call
    2363 00000590 d0000010!    [!A0]   CALL    .S1     VLIB_cache_inval  ; |140| 
    2364                            .dwpsn  file "./../packages/ti/vlib/src/VLIB_Connected_Components_Labeling/VLIB_Connected_Comp
    2365                    $C$DW$216       .dwtag  DW_TAG_TI_branch
TMS320C6x Assembler PC v7.4.2 Thu Mar 19 12:40:14 2015

Tools Copyright (c) 1996-2012 Texas Instruments Incorporated
package/lib/Regression/regress_d_c/./../packages/ti/vlib/src/VLIB_Connected_Components_Labeling/VLIB_Connected_Components_Labeling_d.se66 PAGE   44

    2366                            .dwattr $C$DW$216, DW_AT_low_pc(0x00)
    2367                            .dwattr $C$DW$216, DW_AT_name("printf")
    2368                            .dwattr $C$DW$216, DW_AT_TI_call
    2369 00000594 c0000010!    [ A0]   CALL    .S1     printf            ; |230| 
    2370 00000598 d5000028!    [!A0]   MVKL    .S1     act_kernel,A10
    2371 000005a0 018c2058             ADD     .L1     1,A3,A3           ; |230| 
    2372                            .dwpsn  file "./../packages/ti/vlib/src/VLIB_Connected_Components_Labeling/VLIB_Connected_Comp
    2373                               ; BRANCHCC OCCURS {$C$L24}        ; |229| 
    2374 000005a4           $C$DW$L$VLIB_Connected_Components_Labeling_d$52$E:
    2375                    ;** --------------------------------------------------------------------------*
    2376 000005a4           $C$DW$L$VLIB_Connected_Components_Labeling_d$53$B:
    2377                    ;          EXCLUSIVE CPU CYCLES: 7
    2378                    ;** 230 -----------------------    printf((const char *)"\n\n ==== %d-connected component labeling ===
    2379                    
    2380 000005a4 0200006b!            MVKH    .S2     $C$SL10+0,B4
    2381 000005a8     4582  ||         SHL     .S1     A3,2,A3           ; |230| 
    2382                    
    2383                            .dwpsn  file "./../packages/ti/vlib/src/VLIB_Connected_Components_Labeling/VLIB_Connected_Comp
    2384 000005aa     bc45             STW     .D2T2   B4,*+SP(4)        ; |230| 
    2385                    
    2386 000005b0 01bc42f4             STW     .D2T1   A3,*+SP(8)        ; |230| 
    2387 000005ac 01850163  ||         ADDKPC  .S2     $C$RL25,B3,0      ; |230| 
    2388                    
    2389 000005b4           $C$RL25:   ; CALL OCCURS {printf} {0}        ; |230| 
    2390                            .dwpsn  file ".\..\packages\ti\vlib\src\VLIB_Connected_Components_Labeling\..\common\VLIB_prof
    2391                    $C$DW$217       .dwtag  DW_TAG_TI_branch
    2392                            .dwattr $C$DW$217, DW_AT_low_pc(0x00)
    2393                            .dwattr $C$DW$217, DW_AT_name("VLIB_cache_inval")
    2394                            .dwattr $C$DW$217, DW_AT_TI_call
    2395 000005b4 00000010!            CALL    .S1     VLIB_cache_inval  ; |140| 
    2396 000005b8 05000028!            MVKL    .S1     act_kernel,A10
    2397 000005c0 00002000             NOP             2
    2398 000005c4           $C$DW$L$VLIB_Connected_Components_Labeling_d$53$E:
    2399                    ;** --------------------------------------------------------------------------*
    2400 000005c4           $C$L24:    
    2401                            .dwpsn  file "./../packages/ti/vlib/src/VLIB_Connected_Components_Labeling/VLIB_Connected_Comp
    2402 000005c4           $C$DW$L$VLIB_Connected_Components_Labeling_d$54$B:
    2403                    ;          EXCLUSIVE CPU CYCLES: 2
    2404                    ;**     -----------------------g39:
    2405                    ;** 137 -----------------------    act_kernel = 0;  // [17]
    2406                    ;** 140 -----------------------    VLIB_cache_inval();  // [17]
    2407                    ;** 143 -----------------------    initStack(getSP());  // [17]
    2408                    ;** 146 -----------------------    beg_count = _itoll(TSCH, TSCL);  // [17]
    2409                    ;** 236 -----------------------    U$187 = (unsigned short)mod_width;
    2410                    ;** 236 -----------------------    status = VLIB_createConnectedComponentsList(handle, U$187, (*U$13).
    2411                    ;** 153 -----------------------    v$2 = _itoll(TSCH, TSCL);  // [18]
    2412                    ;** 153 -----------------------    end_count = v$2;  // [18]
    2413                    ;** 156 -----------------------    C$10 = act_kernel;  // [18]
    2414                    ;** 156 -----------------------    *((C$10<<3)+K$194) = *((C$10<<3)+K$194)+(v$2-(beg_count+overhead));
    2415                    ;** 159 -----------------------    setStackDepth();  // [18]
    2416                    ;** 244 -----------------------    if ( status == 13 ) goto g42;
    2417                    
    2418 000005c4 05000069!            MVKH    .S1     act_kernel,A10
    2419 000005c8 0180a358  ||         ZERO    .L1     A3                ; |137| 
    2420                    
TMS320C6x Assembler PC v7.4.2 Thu Mar 19 12:40:14 2015

Tools Copyright (c) 1996-2012 Texas Instruments Incorporated
package/lib/Regression/regress_d_c/./../packages/ti/vlib/src/VLIB_Connected_Components_Labeling/VLIB_Connected_Components_Labeling_d.se66 PAGE   45

    2421 000005cc 01a80275             STW     .D1T1   A3,*A10           ; |137| 
    2422 000005d0 01850162  ||         ADDKPC  .S2     $C$RL26,B3,0      ; |140| 
    2423                    
    2424                            .dwpsn  file ".\..\packages\ti\vlib\src\VLIB_Connected_Components_Labeling\..\common\VLIB_prof
    2425                    $C$RL26:   ; CALL OCCURS {VLIB_cache_inval} {0}  ; |140| 
    2426                    $C$DW$L$VLIB_Connected_Components_Labeling_d$54$E:
    2427                    ;** --------------------------------------------------------------------------*
    2428                    $C$DW$L$VLIB_Connected_Components_Labeling_d$55$B:
    2429                    ;          EXCLUSIVE CPU CYCLES: 49
    2430                    $C$DW$218       .dwtag  DW_TAG_TI_branch
    2431                            .dwattr $C$DW$218, DW_AT_low_pc(0x00)
    2432                            .dwattr $C$DW$218, DW_AT_name("getSP")
    2433                            .dwattr $C$DW$218, DW_AT_TI_call
    2434 000005d4 10000012!            CALLP   .S2     getSP,B3
    2435                            .dwpsn  file ".\..\packages\ti\vlib\src\VLIB_Connected_Components_Labeling\..\common\VLIB_prof
    2436                    $C$RL27:   ; CALL OCCURS {getSP} {0}         ; |143| 
    2437                    $C$DW$219       .dwtag  DW_TAG_TI_branch
    2438                            .dwattr $C$DW$219, DW_AT_low_pc(0x00)
    2439                            .dwattr $C$DW$219, DW_AT_name("initStack")
    2440                            .dwattr $C$DW$219, DW_AT_TI_call
    2441 000005d8 10000012!            CALLP   .S2     initStack,B3
    2442 000005dc           $C$RL28:   ; CALL OCCURS {initStack} {0}     ; |143| 
    2443                            .dwpsn  file ".\..\packages\ti\vlib\src\VLIB_Connected_Components_Labeling\..\common\VLIB_prof
    2444 000005dc 022803e2             MVC     .S2     TSCL,B4           ; |146| 
    2445 000005e0 02ac03e2             MVC     .S2     TSCH,B5           ; |146| 
    2446                            .dwpsn  file "./../packages/ti/vlib/src/VLIB_Connected_Components_Labeling/VLIB_Connected_Comp
    2447 000005e4 023fe2e4             LDW     .D2T1   *+SP(124),A4      ; |236| 
    2448 000005e8 0500002a!            MVKL    .S2     beg_count,B10
    2449 000005ec 033f82e6             LDW     .D2T2   *+SP(112),B6      ; |236| 
    2450 000005f0 032d6204             LDHU    .D1T1   *+A11(22),A6      ; |236| 
    2451 000005f4 0500006a!            MVKH    .S2     beg_count,B10
    2452 000005f8 07921008             EXTU    .S1     A4,16,16,A15      ; |236| 
    2453                    
    2454 000005fc 042cc265             LDW     .D1T1   *+A11(24),A8      ; |236| 
    2455 00000600 022803c6  ||         STDW    .D2T2   B5:B4,*B10        ; |146| 
    2456                    
    2457                    $C$DW$220       .dwtag  DW_TAG_TI_branch
    2458                            .dwattr $C$DW$220, DW_AT_low_pc(0x00)
    2459                            .dwattr $C$DW$220, DW_AT_name("VLIB_createConnectedComponentsList")
    2460                            .dwattr $C$DW$220, DW_AT_TI_call
    2461                    
    2462 00000604 10000013!            CALLP   .S2     VLIB_createConnectedComponentsList,B3
    2463 00000608     af4d  ||         LDW     .D2T1   *+SP(100),A4      ; |236| 
    2464 0000060c 042ce266  ||         LDW     .D1T2   *+A11(28),B8      ; |236| 
    2465 0000060a     9787  ||         MV      .L2X    A15,B4            ; |236| 
    2466                    
    2467 00000610           $C$RL29:   ; CALL OCCURS {VLIB_createConnectedComponentsList} {0}  ; |236| 
    2468                    
    2469 00000610 06100fd9             MV      .L1     A4,A12            ; |236| 
    2470 00000614 032803e2  ||         MVC     .S2     TSCL,B6           ; |153| 
    2471                    
    2472                            .dwpsn  file ".\..\packages\ti\vlib\src\VLIB_Connected_Components_Labeling\..\common\VLIB_prof
    2473 00000618 03ac03e2             MVC     .S2     TSCH,B7           ; |153| 
    2474                    
    2475 00000620 01a80265             LDW     .D1T1   *A10,A3           ; |156| 
TMS320C6x Assembler PC v7.4.2 Thu Mar 19 12:40:14 2015

Tools Copyright (c) 1996-2012 Texas Instruments Incorporated
package/lib/Regression/regress_d_c/./../packages/ti/vlib/src/VLIB_Connected_Components_Labeling/VLIB_Connected_Components_Labeling_d.se66 PAGE   46

    2476 00000624 0200002a! ||         MVKL    .S2     overhead,B4
    2477                    
    2478 00000628 0200006b!            MVKH    .S2     overhead,B4
    2479 0000062c 042803e6  ||         LDDW    .D2T2   *B10,B9:B8        ; |156| 
    2480                    
    2481                            .dwpsn  file ".\..\packages\ti\vlib\src\VLIB_Connected_Components_Labeling\..\common\VLIB_prof
    2482 00000630 081003e6             LDDW    .D2T2   *B4,B17:B16       ; |156| 
    2483 00000634 02000028!            MVKL    .S1     cycles,A4
    2484 00000638 02000068!            MVKH    .S1     cycles,A4
    2485 0000063c 03106b64             LDDW    .D1T1   *+A4[A3],A7:A6    ; |156| 
    2486 00000640 04000028!            MVKL    .S1     end_count,A8
    2487 00000644 0222057a             ADDU    .L2     B16,B8,B5:B4      ; |156| 
    2488                    
    2489 00000648 0444a1e3             ADD     .S2     B5,B17,B8         ; |156| 
    2490 0000064c 0210c5fa  ||         SUBU    .L2     B6,B4,B5:B4       ; |156| 
    2491                    
    2492 00000650 0425007a             ADD     .L2     B8,B9,B8          ; |156| 
    2493                    
    2494 00000654 0210d579             ADDU    .L1X    A6,B4,A5:A4       ; |156| 
    2495 00000658 0220e0fb  ||         SUB     .L2     B7,B8,B4          ; |156| 
    2496 0000065c 0297184a  ||         EXT     .S2     B5,24,24,B5       ; |156| 
    2497                    
    2498 00000664     82c1             ADD     .L2     B4,B5,B4          ; |156| 
    2499 00000660 04000069! ||         MVKH    .S1     end_count,A8
    2500                    
    2501 00000666     a3d0             ADD     .L1     A5,A7,A5          ; |156| 
    2502 00000668 03000028! ||         MVKL    .S1     cycles,A6
    2503                    
    2504 00000674     b250             ADD     .L1X    A5,B4,A5          ; |156| 
    2505 00000670 03000069! ||         MVKH    .S1     cycles,A6
    2506 0000066c 03200347  ||         STDW    .D1T2   B7:B6,*A8         ; |153| 
    2507                    
    2508                    $C$DW$221       .dwtag  DW_TAG_TI_branch
    2509                            .dwattr $C$DW$221, DW_AT_low_pc(0x00)
    2510                            .dwattr $C$DW$221, DW_AT_name("setStackDepth")
    2511                            .dwattr $C$DW$221, DW_AT_TI_call
    2512                    
    2513 00000678 10000012!            CALLP   .S2     setStackDepth,B3
    2514 00000676     6544  ||         STDW    .D1T1   A5:A4,*+A6[A3]    ; |156| 
    2515                    
    2516                            .dwpsn  file ".\..\packages\ti\vlib\src\VLIB_Connected_Components_Labeling\..\common\VLIB_prof
    2517 00000680           $C$RL30:   ; CALL OCCURS {setStackDepth} {0}  ; |159| 
    2518 00000680           $C$DW$L$VLIB_Connected_Components_Labeling_d$55$E:
    2519                    ;** --------------------------------------------------------------------------*
    2520 00000680           $C$DW$L$VLIB_Connected_Components_Labeling_d$56$B:
    2521                    ;          EXCLUSIVE CPU CYCLES: 7
    2522                            .dwpsn  file "./../packages/ti/vlib/src/VLIB_Connected_Components_Labeling/VLIB_Connected_Comp
    2523 00000680 0031aa58             CMPEQ   .L1     A12,13,A0         ; |244| 
    2524                    
    2525 00000684 c0000993     [ A0]   B       .S2     $C$L25            ; |244| 
    2526 00000688     2046  ||         MV      .L1     A0,A1             ; guard predicate rewrite
    2527 0000068a     404e  ||         MV      .S1     A0,A2             ; |244| branch predicate copy
    2528 0000068c d03008f0  || [!A0]   MV      .D1     A12,A0
    2529                    
    2530 00000690 8004a358     [ A1]   MVK     .L1     0x1,A0            ; nullify predicate
TMS320C6x Assembler PC v7.4.2 Thu Mar 19 12:40:14 2015

Tools Copyright (c) 1996-2012 Texas Instruments Incorporated
package/lib/Regression/regress_d_c/./../packages/ti/vlib/src/VLIB_Connected_Components_Labeling/VLIB_Connected_Components_Labeling_d.se66 PAGE   47

    2531                            .dwpsn  file "./../packages/ti/vlib/src/VLIB_Connected_Components_Labeling/VLIB_Connected_Comp
    2532 00000694 d0000b10     [!A0]   B       .S1     $C$L26            ; |246| 
    2533                            .dwpsn  file "./../packages/ti/vlib/src/VLIB_Connected_Components_Labeling/VLIB_Connected_Comp
    2534                    $C$DW$222       .dwtag  DW_TAG_TI_branch
    2535                            .dwattr $C$DW$222, DW_AT_low_pc(0x00)
    2536                            .dwattr $C$DW$222, DW_AT_name("printf")
    2537                            .dwattr $C$DW$222, DW_AT_TI_call
    2538 00000698 a0000010!    [ A2]   CALL    .S1     printf            ; |245| 
    2539 000006a0 a200002a!    [ A2]   MVKL    .S2     $C$SL12+0,B4
    2540 000006a4 a200006a!    [ A2]   MVKH    .S2     $C$SL12+0,B4
    2541                            .dwpsn  file "./../packages/ti/vlib/src/VLIB_Connected_Components_Labeling/VLIB_Connected_Comp
    2542                               ; BRANCHCC OCCURS {$C$L25}        ; |244| 
    2543 000006a8           $C$DW$L$VLIB_Connected_Components_Labeling_d$56$E:
    2544                    ;** --------------------------------------------------------------------------*
    2545 000006a8           $C$DW$L$VLIB_Connected_Components_Labeling_d$57$B:
    2546                    ;          EXCLUSIVE CPU CYCLES: 2
    2547                    ;** 246 -----------------------    if ( !status ) goto g43;
    2548                            .dwpsn  file "./../packages/ti/vlib/src/VLIB_Connected_Components_Labeling/VLIB_Connected_Comp
    2549                    $C$DW$223       .dwtag  DW_TAG_TI_branch
    2550                            .dwattr $C$DW$223, DW_AT_low_pc(0x00)
    2551                            .dwattr $C$DW$223, DW_AT_name("VLIB_printErrCode")
    2552                            .dwattr $C$DW$223, DW_AT_TI_call
    2553 000006a8 c0000010!    [ A0]   CALL    .S1     VLIB_printErrCode ; |247| 
    2554                            .dwpsn  file "./../packages/ti/vlib/src/VLIB_Connected_Components_Labeling/VLIB_Connected_Comp
    2555                    $C$DW$224       .dwtag  DW_TAG_TI_branch
    2556                            .dwattr $C$DW$224, DW_AT_low_pc(0x00)
    2557                            .dwattr $C$DW$224, DW_AT_name("VLIB_getNumCCs")
    2558                            .dwattr $C$DW$224, DW_AT_TI_call
    2559 000006ac d0000010!    [!A0]   CALL    .S1     VLIB_getNumCCs    ; |253| 
    2560                            .dwpsn  file "./../packages/ti/vlib/src/VLIB_Connected_Components_Labeling/VLIB_Connected_Comp
    2561                               ; BRANCHCC OCCURS {$C$L26}        ; |246| 
    2562 000006b0           $C$DW$L$VLIB_Connected_Components_Labeling_d$57$E:
    2563                    ;** --------------------------------------------------------------------------*
    2564 000006b0           $C$DW$L$VLIB_Connected_Components_Labeling_d$58$B:
    2565                    ;          EXCLUSIVE CPU CYCLES: 4
    2566                    ;** 247 -----------------------    VLIB_printErrCode(status);
    2567                    ;** 248 -----------------------    printf((const char *)"\nCreation of Connected Components failed!!!\
    2568                    ;** 249 -----------------------    goto g88;
    2569                            .dwpsn  file "./../packages/ti/vlib/src/VLIB_Connected_Components_Labeling/VLIB_Connected_Comp
    2570 000006b0 01864162             ADDKPC  .S2     $C$RL31,B3,2      ; |247| 
    2571 000006b4 02300fd8             MV      .L1     A12,A4            ; |247| 
    2572 000006b8           $C$RL31:   ; CALL OCCURS {VLIB_printErrCode} {0}  ; |247| 
    2573 000006b8           $C$DW$L$VLIB_Connected_Components_Labeling_d$58$E:
    2574                    ;** --------------------------------------------------------------------------*
    2575 000006b8           $C$DW$L$VLIB_Connected_Components_Labeling_d$59$B:
    2576                    ;          EXCLUSIVE CPU CYCLES: 8
    2577 000006b8 0200002a!            MVKL    .S2     $C$SL11+0,B4
    2578 000006bc 0200006a!            MVKH    .S2     $C$SL11+0,B4
    2579                    $C$DW$225       .dwtag  DW_TAG_TI_branch
    2580                            .dwattr $C$DW$225, DW_AT_low_pc(0x00)
    2581                            .dwattr $C$DW$225, DW_AT_name("printf")
    2582                            .dwattr $C$DW$225, DW_AT_TI_call
    2583                    
    2584 000006c0 10000013!            CALLP   .S2     printf,B3
    2585 000006c4 023c22f6  ||         STW     .D2T2   B4,*+SP(4)        ; |248| 
TMS320C6x Assembler PC v7.4.2 Thu Mar 19 12:40:14 2015

Tools Copyright (c) 1996-2012 Texas Instruments Incorporated
package/lib/Regression/regress_d_c/./../packages/ti/vlib/src/VLIB_Connected_Components_Labeling/VLIB_Connected_Components_Labeling_d.se66 PAGE   48

    2586                    
    2587                            .dwpsn  file "./../packages/ti/vlib/src/VLIB_Connected_Components_Labeling/VLIB_Connected_Comp
    2588 000006c8           $C$RL32:   ; CALL OCCURS {printf} {0}        ; |248| 
    2589 000006c8           $C$DW$L$VLIB_Connected_Components_Labeling_d$59$E:
    2590                    ;** --------------------------------------------------------------------------*
    2591 000006c8           $C$DW$L$VLIB_Connected_Components_Labeling_d$60$B:
    2592                    ;          EXCLUSIVE CPU CYCLES: 6
    2593                            .dwpsn  file "./../packages/ti/vlib/src/VLIB_Connected_Components_Labeling/VLIB_Connected_Comp
    2594 000006c8 01bba120             BNOP    .S1     $C$L53,5          ; |249| 
    2595                               ; BRANCH OCCURS {$C$L53}          ; |249| 
    2596 000006cc           $C$DW$L$VLIB_Connected_Components_Labeling_d$60$E:
    2597                    ;** --------------------------------------------------------------------------*
    2598 000006cc           $C$L25:    
    2599                            .dwpsn  file "./../packages/ti/vlib/src/VLIB_Connected_Components_Labeling/VLIB_Connected_Comp
    2600 000006cc           $C$DW$L$VLIB_Connected_Components_Labeling_d$61$B:
    2601                    ;          EXCLUSIVE CPU CYCLES: 4
    2602                    ;**     -----------------------g42:
    2603                    ;** 245 -----------------------    printf((const char *)"\nConnected Components low memory warning!!!!
    2604                            .dwpsn  file "./../packages/ti/vlib/src/VLIB_Connected_Components_Labeling/VLIB_Connected_Comp
    2605 000006cc 01852162             ADDKPC  .S2     $C$RL33,B3,1      ; |245| 
    2606 000006d0 023c22f6             STW     .D2T2   B4,*+SP(4)        ; |245| 
    2607 000006d4           $C$RL33:   ; CALL OCCURS {printf} {0}        ; |245| 
    2608                            .dwpsn  file "./../packages/ti/vlib/src/VLIB_Connected_Components_Labeling/VLIB_Connected_Comp
    2609                    $C$DW$226       .dwtag  DW_TAG_TI_branch
    2610                            .dwattr $C$DW$226, DW_AT_low_pc(0x00)
    2611                            .dwattr $C$DW$226, DW_AT_name("VLIB_getNumCCs")
    2612                            .dwattr $C$DW$226, DW_AT_TI_call
    2613 000006d4 00000010!            CALL    .S1     VLIB_getNumCCs    ; |253| 
    2614 000006d8           $C$DW$L$VLIB_Connected_Components_Labeling_d$61$E:
    2615                    ;** --------------------------------------------------------------------------*
    2616 000006d8           $C$L26:    
    2617                            .dwpsn  file "./../packages/ti/vlib/src/VLIB_Connected_Components_Labeling/VLIB_Connected_Comp
    2618 000006d8           $C$DW$L$VLIB_Connected_Components_Labeling_d$62$B:
    2619                    ;          EXCLUSIVE CPU CYCLES: 5
    2620                    ;**     -----------------------g43:
    2621                    ;** 253 -----------------------    VLIB_getNumCCs(handle, &numCCs);
    2622                    ;** 256 -----------------------    v$1 = prm;
    2623                    ;** 256 -----------------------    if ( LevelOfFeedback ) goto g45;
    2624                    ;**     -----------------------    v$4 = numCCs;
    2625                    ;**     -----------------------    U$138 = U$12+v$1;
    2626                    ;**     -----------------------    goto g46;
    2627                            .dwpsn  file "./../packages/ti/vlib/src/VLIB_Connected_Components_Labeling/VLIB_Connected_Comp
    2628 000006d8 023f22e4             LDW     .D2T1   *+SP(100),A4      ; |253| 
    2629 000006dc 01894162             ADDKPC  .S2     $C$RL34,B3,2      ; |253| 
    2630 000006e0 120009fe             ADDAW   .D2     SP,9,B4           ; |253| 
    2631 000006e4           $C$RL34:   ; CALL OCCURS {VLIB_getNumCCs} {0}  ; |253| 
    2632 000006e4           $C$DW$L$VLIB_Connected_Components_Labeling_d$62$E:
    2633                    ;** --------------------------------------------------------------------------*
    2634 000006e4           $C$DW$L$VLIB_Connected_Components_Labeling_d$63$B:
    2635                    ;          EXCLUSIVE CPU CYCLES: 13
    2636 000006e4 000023ec             LDW     .D2T1   *+SP(140),A0
    2637                            .dwpsn  file "./../packages/ti/vlib/src/VLIB_Connected_Components_Labeling/VLIB_Connected_Comp
    2638 000006e8     ed3d             LDW     .D2T1   *+SP(44),A3       ; |256| 
    2639 000006ea     4c6e             NOP             3
    2640 000006ec d23ea2e4     [!A0]   LDW     .D2T1   *+SP(84),A4
TMS320C6x Assembler PC v7.4.2 Thu Mar 19 12:40:14 2015

Tools Copyright (c) 1996-2012 Texas Instruments Incorporated
package/lib/Regression/regress_d_c/./../packages/ti/vlib/src/VLIB_Connected_Components_Labeling/VLIB_Connected_Components_Labeling_d.se66 PAGE   49

    2641 000006f0 d2bd22e4     [!A0]   LDW     .D2T1   *+SP(36),A5
    2642 000006f4 d02c4120     [!A0]   BNOP    .S1     $C$L27,2
    2643 000006f8 d2106078     [!A0]   ADD     .L1     A3,A4,A4
    2644 00000700 d20025fc     [!A0]   STW     .D2T1   A4,*+SP(148)
    2645 00000704 d28024fc     [!A0]   STW     .D2T1   A5,*+SP(144)
    2646                               ; BRANCHCC OCCURS {$C$L27}  
    2647 00000708           $C$DW$L$VLIB_Connected_Components_Labeling_d$63$E:
    2648                    ;** --------------------------------------------------------------------------*
    2649 00000708           $C$DW$L$VLIB_Connected_Components_Labeling_d$64$B:
    2650                    ;          EXCLUSIVE CPU CYCLES: 13
    2651                    ;**     -----------------------g45:
    2652                    ;** 257 -----------------------    v$4 = numCCs;
    2653                    ;** 257 -----------------------    U$138 = U$12+v$1;
    2654                    ;** 257 -----------------------    printf((const char *)"\n\nIdentified %d connected-components with a
    2655 00000708 023ea2e4             LDW     .D2T1   *+SP(84),A4
    2656 0000070c 0200002a!            MVKL    .S2     $C$SL13+0,B4
    2657 00000710 0200006a!            MVKH    .S2     $C$SL13+0,B4
    2658                            .dwpsn  file "./../packages/ti/vlib/src/VLIB_Connected_Components_Labeling/VLIB_Connected_Comp
    2659 00000714     bc45             STW     .D2T2   B4,*+SP(4)        ; |257| 
    2660 00000716     0c6e             NOP             1
    2661                    
    2662 00000718     6230             ADD     .L1     A3,A4,A3          ; |257| 
    2663 0000071a     ad4d  ||         LDW     .D2T1   *+SP(36),A4       ; |257| 
    2664                    
    2665 00000720 018025fc             STW     .D2T1   A3,*+SP(148)      ; |257| 
    2666                    $C$DW$227       .dwtag  DW_TAG_TI_branch
    2667                            .dwattr $C$DW$227, DW_AT_low_pc(0x04)
    2668                            .dwattr $C$DW$227, DW_AT_name("printf")
    2669                            .dwattr $C$DW$227, DW_AT_TI_call
    2670                    
    2671 00000724 018cc265             LDW     .D1T1   *+A3(24),A3       ; |257| 
    2672 00000728 00000010! ||         CALL    .S1     printf            ; |257| 
    2673                    
    2674 0000072c 01862162             ADDKPC  .S2     $C$RL35,B3,1      ; |257| 
    2675 00000730 020024fc             STW     .D2T1   A4,*+SP(144)      ; |257| 
    2676 00000734     cc45             STW     .D2T1   A4,*+SP(8)        ; |257| 
    2677 00000736     ec35             STW     .D2T1   A3,*+SP(12)       ; |257| 
    2678 00000738           $C$RL35:   ; CALL OCCURS {printf} {0}        ; |257| 
    2679 00000738           $C$DW$L$VLIB_Connected_Components_Labeling_d$64$E:
    2680                    ;** --------------------------------------------------------------------------*
    2681 00000738           $C$L27:    
    2682 00000738           $C$DW$L$VLIB_Connected_Components_Labeling_d$65$B:
    2683                    ;          EXCLUSIVE CPU CYCLES: 15
    2684                    ;**     -----------------------g46:
    2685                    ;** 260 -----------------------    C$9 = (*U$138).numCCs;
    2686                    ;** 260 -----------------------    if ( !((C$9 != 0)&(v$4 != C$9)) ) goto g48;
    2687                    ;** 262 -----------------------    status_numCCs = 0;
    2688                    ;**     -----------------------g48:
    2689                    ;** 265 -----------------------    if ( v$4 <= 0 ) goto g57;
    2690 00000738 018025ec             LDW     .D2T1   *+SP(148),A3
    2691 00000740 028024ec             LDW     .D2T1   *+SP(144),A5
    2692 00000744 00004000             NOP             3
    2693                            .dwpsn  file "./../packages/ti/vlib/src/VLIB_Connected_Components_Labeling/VLIB_Connected_Comp
    2694 00000748 018c8264             LDW     .D1T1   *+A3(16),A3       ; |260| 
    2695                            .dwpsn  file "./../packages/ti/vlib/src/VLIB_Connected_Components_Labeling/VLIB_Connected_Comp
TMS320C6x Assembler PC v7.4.2 Thu Mar 19 12:40:14 2015

Tools Copyright (c) 1996-2012 Texas Instruments Incorporated
package/lib/Regression/regress_d_c/./../packages/ti/vlib/src/VLIB_Connected_Components_Labeling/VLIB_Connected_Components_Labeling_d.se66 PAGE   50

    2696 0000074c     12a6             CMPGT   .L1     A5,0,A0           ; |265| 
    2697 0000074e     2c6e             NOP             2
    2698 00000750 d0004290     [!A0]   B       .S1     $C$L33            ; |265| 
    2699                            .dwpsn  file "./../packages/ti/vlib/src/VLIB_Connected_Components_Labeling/VLIB_Connected_Comp
    2700 00000754 020caa78             CMPEQ   .L1     A5,A3,A4          ; |260| 
    2701 00000758 020c1a5a             CMPEQ   .L2X    A3,0,B4           ; |260| 
    2702 00000760     9629             OR      .L2X    B4,A4,B0
    2703                            .dwpsn  file "./../packages/ti/vlib/src/VLIB_Connected_Components_Labeling/VLIB_Connected_Comp
    2704 00000762     ca67     [!B0]   ZERO    .L2     B4                ; |262| 
    2705 00000764 320022fe     [!B0]   STW     .D2T2   B4,*+SP(136)      ; |262| 
    2706                            .dwpsn  file "./../packages/ti/vlib/src/VLIB_Connected_Components_Labeling/VLIB_Connected_Comp
    2707                               ; BRANCHCC OCCURS {$C$L33}        ; |265| 
    2708 00000768           $C$DW$L$VLIB_Connected_Components_Labeling_d$65$E:
    2709                    ;** --------------------------------------------------------------------------*
    2710 00000768           $C$DW$L$VLIB_Connected_Components_Labeling_d$66$B:
    2711                    ;          EXCLUSIVE CPU CYCLES: 8
    2712                    ;**     -----------------------    U$243 = status_numCCs == 1;
    2713                    ;** 274 -----------------------    L$5 = numCCs;
    2714                    ;** 265 -----------------------    i = 0;
    2715                    ;**     -----------------------    #pragma MUST_ITERATE(1, 18446744073709551615, 1)
    2716                    ;**     -----------------------    #pragma LOOP_FLAGS(5120u)
    2717 00000768 020022ee             LDW     .D2T2   *+SP(136),B4
    2718                            .dwpsn  file "./../packages/ti/vlib/src/VLIB_Connected_Components_Labeling/VLIB_Connected_Comp
    2719 0000076c 02bd22e6             LDW     .D2T2   *+SP(36),B5       ; |274| 
    2720                            .dwpsn  file "./../packages/ti/vlib/src/VLIB_Connected_Components_Labeling/VLIB_Connected_Comp
    2721 00000770 0700a358             ZERO    .L1     A14               ; |265| 
    2722 00000774 00002000             NOP             2
    2723 00000778 02102a5a             CMPEQ   .L2     B4,1,B4
    2724 00000780     dec5             STW     .D2T2   B4,*+SP(88)
    2725 00000782     fed5             STW     .D2T2   B5,*+SP(92)
    2726 00000784           $C$DW$L$VLIB_Connected_Components_Labeling_d$66$E:
    2727                    ;*----------------------------------------------------------------------------*
    2728                    ;*   SOFTWARE PIPELINE INFORMATION
    2729                    ;*      Disqualified loop: Loop contains a call
    2730                    ;*      Disqualified loop: Loop contains non-pipelinable instructions
    2731                    ;*      Disqualified loop: Loop contains control code
    2732                    ;*----------------------------------------------------------------------------*
    2733 00000784           $C$L28:    
    2734 00000784           $C$DW$L$VLIB_Connected_Components_Labeling_d$67$B:
    2735                    ;          EXCLUSIVE CPU CYCLES: 6
    2736                    ;**     -----------------------g50:
    2737                    ;** 274 -----------------------    VLIB_getCCFeatures(handle, &vlibBlob, (short)i);
    2738                    ;** 276 -----------------------    left = vlibBlob.xmin;
    2739                    ;** 277 -----------------------    right = vlibBlob.xmax;
    2740                    ;** 278 -----------------------    top = vlibBlob.ymin;
    2741                    ;** 279 -----------------------    bottom = vlibBlob.ymax;
    2742                    ;** 280 -----------------------    xsum = vlibBlob.xsum;
    2743                    ;** 281 -----------------------    ysum = vlibBlob.ysum;
    2744                    ;** 282 -----------------------    area = vlibBlob.area;
    2745                    ;** 284 -----------------------    C$8 = (*U$13).staticOutStats;
    2746                    ;** 284 -----------------------    if ( !((C$8 != NULL)&U$243) ) goto g54;
    2747                            .dwpsn  file "./../packages/ti/vlib/src/VLIB_Connected_Components_Labeling/VLIB_Connected_Comp
    2748                    $C$DW$228       .dwtag  DW_TAG_TI_branch
    2749                            .dwattr $C$DW$228, DW_AT_low_pc(0x00)
    2750                            .dwattr $C$DW$228, DW_AT_name("VLIB_getCCFeatures")
TMS320C6x Assembler PC v7.4.2 Thu Mar 19 12:40:14 2015

Tools Copyright (c) 1996-2012 Texas Instruments Incorporated
package/lib/Regression/regress_d_c/./../packages/ti/vlib/src/VLIB_Connected_Components_Labeling/VLIB_Connected_Components_Labeling_d.se66 PAGE   51

    2751                            .dwattr $C$DW$228, DW_AT_TI_call
    2752 00000784 00000010!            CALL    .S1     VLIB_getCCFeatures ; |274| 
    2753 00000788 023f22e4             LDW     .D2T1   *+SP(100),A4
    2754 0000078c 01884162             ADDKPC  .S2     $C$RL36,B3,2      ; |274| 
    2755                    
    2756 00000790 033a1049             EXT     .S1     A14,16,16,A6      ; |274| 
    2757 00000794 023cdec3  ||         ADDAD   .D2     SP,6,B4
    2758                    
    2759 000007a0           $C$RL36:   ; CALL OCCURS {VLIB_getCCFeatures} {0}  ; |274| 
    2760 000007a0           $C$DW$L$VLIB_Connected_Components_Labeling_d$67$E:
    2761                    ;** --------------------------------------------------------------------------*
    2762 000007a0           $C$DW$L$VLIB_Connected_Components_Labeling_d$68$B:
    2763                    ;          EXCLUSIVE CPU CYCLES: 13
    2764                    
    2765 000007a0 002c6265             LDW     .D1T1   *+A11(12),A0      ; |284| 
    2766 000007a4 0fbec2e7  ||         LDW     .D2T2   *+SP(88),B31      ; |277| 
    2767 000007ac     06a7  ||         ZERO    .L2     B5                ; |284| 
    2768 000007a8 01b8aca1  ||         SHL     .S1     A14,5,A3          ; |285| 
    2769                    
    2770 000007b0 018ddc40             ADDAW   .D1     A3,A14,A3         ; |285| 
    2771 000007ae     de4d  ||         LDW     .D2T2   *+SP(72),B4       ; |279| 
    2772                    
    2773                            .dwpsn  file "./../packages/ti/vlib/src/VLIB_Connected_Components_Labeling/VLIB_Connected_Comp
    2774 000007b4 06bd82e6             LDW     .D2T2   *+SP(48),B13      ; |282| 
    2775                            .dwpsn  file "./../packages/ti/vlib/src/VLIB_Connected_Components_Labeling/VLIB_Connected_Comp
    2776 000007b8 063dc2e6             LDW     .D2T2   *+SP(56),B12      ; |281| 
    2777                            .dwpsn  file "./../packages/ti/vlib/src/VLIB_Connected_Components_Labeling/VLIB_Connected_Comp
    2778 000007c0 053da2e6             LDW     .D2T2   *+SP(52),B10      ; |280| 
    2779                    
    2780 000007c4     2ae7     [ A0]   MVK     .L2     0x1,B5            ; |284| 
    2781 000007c6     01b0  ||         ADD     .L1     A0,A3,A3          ; |285| 
    2782                    
    2783                            .dwpsn  file "./../packages/ti/vlib/src/VLIB_Connected_Components_Labeling/VLIB_Connected_Comp
    2784 000007c8 0017ef7a             AND     .L2     B31,B5,B0         ; |284| 
    2785 000007cc 30001390     [!B0]   B       .S1     $C$L30            ; |284| 
    2786                            .dwpsn  file "./../packages/ti/vlib/src/VLIB_Connected_Components_Labeling/VLIB_Connected_Comp
    2787 000007d0 053de2e4             LDW     .D2T1   *+SP(60),A10      ; |276| 
    2788                            .dwpsn  file "./../packages/ti/vlib/src/VLIB_Connected_Components_Labeling/VLIB_Connected_Comp
    2789 000007d4 220c6264     [ B0]   LDW     .D1T1   *+A3(12),A4       ; |285| 
    2790                            .dwpsn  file "./../packages/ti/vlib/src/VLIB_Connected_Components_Labeling/VLIB_Connected_Comp
    2791 000007d8 063e22e4             LDW     .D2T1   *+SP(68),A12      ; |277| 
    2792                            .dwpsn  file "./../packages/ti/vlib/src/VLIB_Connected_Components_Labeling/VLIB_Connected_Comp
    2793 000007e0 06be02e4             LDW     .D2T1   *+SP(64),A13      ; |278| 
    2794                            .dwpsn  file "./../packages/ti/vlib/src/VLIB_Connected_Components_Labeling/VLIB_Connected_Comp
    2795 000007e4     9f45             STW     .D2T2   B4,*+SP(96)       ; |279| 
    2796                            .dwpsn  file "./../packages/ti/vlib/src/VLIB_Connected_Components_Labeling/VLIB_Connected_Comp
    2797                               ; BRANCHCC OCCURS {$C$L30}        ; |284| 
    2798 000007e6           $C$DW$L$VLIB_Connected_Components_Labeling_d$68$E:
    2799                    ;** --------------------------------------------------------------------------*
    2800 000007e6           $C$DW$L$VLIB_Connected_Components_Labeling_d$69$B:
    2801                    ;          EXCLUSIVE CPU CYCLES: 8
    2802                    ;** 285 -----------------------    C$7 = &C$8[i];
    2803                    ;** 285 -----------------------    if ( left != (*C$7).xmin ) goto g53;
    2804 000007e6     9507             MV      .L2X    A10,B4
    2805                            .dwpsn  file "./../packages/ti/vlib/src/VLIB_Connected_Components_Labeling/VLIB_Connected_Comp
TMS320C6x Assembler PC v7.4.2 Thu Mar 19 12:40:14 2015

Tools Copyright (c) 1996-2012 Texas Instruments Incorporated
package/lib/Regression/regress_d_c/./../packages/ti/vlib/src/VLIB_Connected_Components_Labeling/VLIB_Connected_Components_Labeling_d.se66 PAGE   52

    2806 000007e8 00109a7a             CMPEQ   .L2X    B4,A4,B0          ; |285| 
    2807                    
    2808 000007ec 228c8265     [ B0]   LDW     .D1T1   *+A3(16),A5       ; |285| 
    2809 000007f0 2f3f02e7  || [ B0]   LDW     .D2T2   *+SP(96),B30      ; |285| 
    2810 000007f4 22301fdb  || [ B0]   MV      .L2X    A12,B4            ; |285| 
    2811 000007f8 30000e90  || [!B0]   B       .S1     $C$L29            ; |285| 
    2812                    
    2813 00000800 220ca265     [ B0]   LDW     .D1T1   *+A3(20),A4       ; |285| 
    2814 00000804 2fb41fda  || [ B0]   MV      .L2X    A13,B31           ; |285| 
    2815                    
    2816 00000808 230cc264     [ B0]   LDW     .D1T1   *+A3(24),A6       ; |285| 
    2817 0000080c 238c2264     [ B0]   LDW     .D1T1   *+A3(4),A7        ; |285| 
    2818 00000810 240c4264     [ B0]   LDW     .D1T1   *+A3(8),A8        ; |285| 
    2819 00000814 218c0264     [ B0]   LDW     .D1T1   *A3,A3            ; |285| 
    2820                               ; BRANCHCC OCCURS {$C$L29}        ; |285| 
    2821 00000818           $C$DW$L$VLIB_Connected_Components_Labeling_d$69$E:
    2822                    ;** --------------------------------------------------------------------------*
    2823 00000818           $C$DW$L$VLIB_Connected_Components_Labeling_d$70$B:
    2824                    ;          EXCLUSIVE CPU CYCLES: 13
    2825                    ;** 285 -----------------------    if ( !((right != (*C$7).xmax)|(top != (*C$7).ymin)|(bottom != (*C$7
    2826                    
    2827 00000818 0317fa7b             CMPEQ   .L2X    B31,A5,B6         ; |285| 
    2828 0000081c 000023ec  ||         LDW     .D2T1   *+SP(140),A0
    2829                    
    2830 00000820 02909a7a             CMPEQ   .L2X    B4,A4,B5          ; |285| 
    2831                    
    2832 00000824 021bda7b             CMPEQ   .L2X    B30,A6,B4         ; |285| 
    2833 00000828 0298a7e2  ||         AND     .S2     B5,B6,B5
    2834                    
    2835 0000082c 0e9d5a7b             CMPEQ   .L2X    B10,A7,B29        ; |285| 
    2836 00000830 0290a7e2  ||         AND     .S2     B5,B4,B5
    2837                    
    2838 00000834 0e219a7b             CMPEQ   .L2X    B12,A8,B28        ; |285| 
    2839 00000838 02f4a7e2  ||         AND     .S2     B5,B29,B5
    2840                    
    2841 0000083c 0d8dba7b             CMPEQ   .L2X    B13,A3,B27        ; |285| 
    2842 00000840 02f0a7e2  ||         AND     .S2     B5,B28,B5
    2843                    
    2844 00000844 006caf7a             AND     .L2     B5,B27,B0
    2845                    
    2846 00000848 3004a359     [!B0]   MVK     .L1     0x1,A0            ; nullify predicate
    2847 0000084c 20000510  || [ B0]   B       .S1     $C$L31            ; |285| 
    2848                    
    2849                            .dwpsn  file "./../packages/ti/vlib/src/VLIB_Connected_Components_Labeling/VLIB_Connected_Comp
    2850 00000850 d0428120     [!A0]   BNOP    .S1     $C$L32,4          ; |294| 
    2851                            .dwpsn  file "./../packages/ti/vlib/src/VLIB_Connected_Components_Labeling/VLIB_Connected_Comp
    2852                               ; BRANCHCC OCCURS {$C$L31}        ; |285| 
    2853 00000854           $C$DW$L$VLIB_Connected_Components_Labeling_d$70$E:
    2854                    ;** --------------------------------------------------------------------------*
    2855 00000854           $C$L29:    
    2856 00000854           $C$DW$L$VLIB_Connected_Components_Labeling_d$71$B:
    2857                    ;          EXCLUSIVE CPU CYCLES: 2
    2858                    ;**     -----------------------g53:
    2859                    ;** 292 -----------------------    status_stats = 0;
    2860                            .dwpsn  file "./../packages/ti/vlib/src/VLIB_Connected_Components_Labeling/VLIB_Connected_Comp
TMS320C6x Assembler PC v7.4.2 Thu Mar 19 12:40:14 2015

Tools Copyright (c) 1996-2012 Texas Instruments Incorporated
package/lib/Regression/regress_d_c/./../packages/ti/vlib/src/VLIB_Connected_Components_Labeling/VLIB_Connected_Components_Labeling_d.se66 PAGE   53

    2861 00000854 0180a358             ZERO    .L1     A3                ; |292| 
