TMS320C6x Assembler PC v7.4.2 Thu Mar 19 12:40:28 2015

Tools Copyright (c) 1996-2012 Texas Instruments Incorporated
package/lib/Regression/regress_d_c/./../packages/ti/vlib/src/VLIB_convertUYVYint_to_YUV420pl/VLIB_convertUYVYint_to_YUV420pl_d.se66 PAGE    1

       1                    ;******************************************************************************
       2                    ;* TMS320C6x C/C++ Codegen                                          PC v7.4.2 *
       3                    ;* Date/Time created: Thu Mar 19 12:40:27 2015                                *
       4                    ;******************************************************************************
       5                            .compiler_opts --abi=eabi --c64p_l1d_workaround=off --endian=little --hll_source=on --long_pre
       6                    
       7                    ;******************************************************************************
       8                    ;* GLOBAL FILE PARAMETERS                                                     *
       9                    ;*                                                                            *
      10                    ;*   Architecture      : TMS320C66xx                                          *
      11                    ;*   Optimization      : Enabled at level 3                                   *
      12                    ;*   Optimizing for    : Speed                                                *
      13                    ;*                       Based on options: -o3, no -ms                        *
      14                    ;*   Endian            : Little                                               *
      15                    ;*   Interrupt Thrshld : 10000                                                *
      16                    ;*   Data Access Model : Far                                                  *
      17                    ;*   Pipelining        : Enabled                                              *
      18                    ;*   Speculate Loads   : Enabled with threshold = 0                           *
      19                    ;*   Memory Aliases    : Presume are aliases (pessimistic)                    *
      20                    ;*   Debug Info        : DWARF Debug w/Optimization                           *
      21                    ;*                                                                            *
      22                    ;******************************************************************************
      23                    
      24                            .asg    A15, FP
      25                            .asg    B14, DP
      26                            .asg    B15, SP
      27                            .global $bss
      28                    
      29                    
      30                    $C$DW$CU        .dwtag  DW_TAG_compile_unit
      31                            .dwattr $C$DW$CU, DW_AT_name("./../packages/ti/vlib/src/VLIB_convertUYVYint_to_YUV420pl/VLIB_c
      32                            .dwattr $C$DW$CU, DW_AT_producer("TI TMS320C6x C/C++ Codegen PC v7.4.2 Copyright (c) 1996-2012
      33                            .dwattr $C$DW$CU, DW_AT_TI_version(0x01)
      34                            .dwattr $C$DW$CU, DW_AT_comp_dir("c:\nightlybuilds\vlib\ti\vlib\vlib\examples")
      35                    
      36                    $C$DW$1 .dwtag  DW_TAG_subprogram, DW_AT_name("_itoll")
      37                            .dwattr $C$DW$1, DW_AT_TI_symbol_name("_itoll")
      38                            .dwattr $C$DW$1, DW_AT_type(*$C$DW$T$14)
      39                            .dwattr $C$DW$1, DW_AT_declaration
      40                            .dwattr $C$DW$1, DW_AT_external
      41                            .dwattr $C$DW$1, DW_AT_decl_file("C:/VLIB_Tools/CCSV5_4_0/ccsv5/tools/compiler/C6000/include/c
      42                            .dwattr $C$DW$1, DW_AT_decl_line(0xdf)
      43                            .dwattr $C$DW$1, DW_AT_decl_column(0x0b)
      44                    $C$DW$2 .dwtag  DW_TAG_formal_parameter
      45                            .dwattr $C$DW$2, DW_AT_type(*$C$DW$T$11)
      46                    $C$DW$3 .dwtag  DW_TAG_formal_parameter
      47                            .dwattr $C$DW$3, DW_AT_type(*$C$DW$T$11)
      48                            .dwendtag $C$DW$1
      49                    
      50                    
      51                    $C$DW$4 .dwtag  DW_TAG_subprogram, DW_AT_name("printf")
      52                            .dwattr $C$DW$4, DW_AT_TI_symbol_name("printf")
      53                            .dwattr $C$DW$4, DW_AT_type(*$C$DW$T$10)
      54                            .dwattr $C$DW$4, DW_AT_declaration
      55                            .dwattr $C$DW$4, DW_AT_external
TMS320C6x Assembler PC v7.4.2 Thu Mar 19 12:40:28 2015

Tools Copyright (c) 1996-2012 Texas Instruments Incorporated
package/lib/Regression/regress_d_c/./../packages/ti/vlib/src/VLIB_convertUYVYint_to_YUV420pl/VLIB_convertUYVYint_to_YUV420pl_d.se66 PAGE    2

      56                            .dwattr $C$DW$4, DW_AT_decl_file("C:/VLIB_Tools/CCSV5_4_0/ccsv5/tools/compiler/C6000/include/s
      57                            .dwattr $C$DW$4, DW_AT_decl_line(0xb8)
      58                            .dwattr $C$DW$4, DW_AT_decl_column(0x19)
      59                    $C$DW$5 .dwtag  DW_TAG_formal_parameter
      60                            .dwattr $C$DW$5, DW_AT_type(*$C$DW$T$101)
      61                    $C$DW$6 .dwtag  DW_TAG_unspecified_parameters
      62                            .dwendtag $C$DW$4
      63                    
      64                    
      65                    $C$DW$7 .dwtag  DW_TAG_subprogram, DW_AT_name("sprintf")
      66                            .dwattr $C$DW$7, DW_AT_TI_symbol_name("sprintf")
      67                            .dwattr $C$DW$7, DW_AT_type(*$C$DW$T$10)
      68                            .dwattr $C$DW$7, DW_AT_declaration
      69                            .dwattr $C$DW$7, DW_AT_external
      70                            .dwattr $C$DW$7, DW_AT_decl_file("C:/VLIB_Tools/CCSV5_4_0/ccsv5/tools/compiler/C6000/include/s
      71                            .dwattr $C$DW$7, DW_AT_decl_line(0xbc)
      72                            .dwattr $C$DW$7, DW_AT_decl_column(0x19)
      73                    $C$DW$8 .dwtag  DW_TAG_formal_parameter
      74                            .dwattr $C$DW$8, DW_AT_type(*$C$DW$T$59)
      75                    $C$DW$9 .dwtag  DW_TAG_formal_parameter
      76                            .dwattr $C$DW$9, DW_AT_type(*$C$DW$T$101)
      77                    $C$DW$10        .dwtag  DW_TAG_unspecified_parameters
      78                            .dwendtag $C$DW$7
      79                    
      80                    
      81                    $C$DW$11        .dwtag  DW_TAG_subprogram, DW_AT_name("malloc")
      82                            .dwattr $C$DW$11, DW_AT_TI_symbol_name("malloc")
      83                            .dwattr $C$DW$11, DW_AT_type(*$C$DW$T$3)
      84                            .dwattr $C$DW$11, DW_AT_declaration
      85                            .dwattr $C$DW$11, DW_AT_external
      86                            .dwattr $C$DW$11, DW_AT_decl_file("C:/VLIB_Tools/CCSV5_4_0/ccsv5/tools/compiler/C6000/include/
      87                            .dwattr $C$DW$11, DW_AT_decl_line(0x82)
      88                            .dwattr $C$DW$11, DW_AT_decl_column(0x19)
      89                    $C$DW$12        .dwtag  DW_TAG_formal_parameter
      90                            .dwattr $C$DW$12, DW_AT_type(*$C$DW$T$52)
      91                            .dwendtag $C$DW$11
      92                    
      93                    
      94                    $C$DW$13        .dwtag  DW_TAG_subprogram, DW_AT_name("free")
      95                            .dwattr $C$DW$13, DW_AT_TI_symbol_name("free")
      96                            .dwattr $C$DW$13, DW_AT_declaration
      97                            .dwattr $C$DW$13, DW_AT_external
      98                            .dwattr $C$DW$13, DW_AT_decl_file("C:/VLIB_Tools/CCSV5_4_0/ccsv5/tools/compiler/C6000/include/
      99                            .dwattr $C$DW$13, DW_AT_decl_line(0x86)
     100                            .dwattr $C$DW$13, DW_AT_decl_column(0x19)
     101                    $C$DW$14        .dwtag  DW_TAG_formal_parameter
     102                            .dwattr $C$DW$14, DW_AT_type(*$C$DW$T$3)
     103                            .dwendtag $C$DW$13
     104                    
     105                    
     106                    $C$DW$15        .dwtag  DW_TAG_subprogram, DW_AT_name("VLIB_cache_inval")
     107                            .dwattr $C$DW$15, DW_AT_TI_symbol_name("VLIB_cache_inval")
     108                            .dwattr $C$DW$15, DW_AT_type(*$C$DW$T$10)
     109                            .dwattr $C$DW$15, DW_AT_declaration
     110                            .dwattr $C$DW$15, DW_AT_external
TMS320C6x Assembler PC v7.4.2 Thu Mar 19 12:40:28 2015

Tools Copyright (c) 1996-2012 Texas Instruments Incorporated
package/lib/Regression/regress_d_c/./../packages/ti/vlib/src/VLIB_convertUYVYint_to_YUV420pl/VLIB_convertUYVYint_to_YUV420pl_d.se66 PAGE    3

     111                            .dwattr $C$DW$15, DW_AT_decl_file(".\..\packages\ti\vlib\src\VLIB_convertUYVYint_to_YUV420pl\.
     112                            .dwattr $C$DW$15, DW_AT_decl_line(0x58)
     113                            .dwattr $C$DW$15, DW_AT_decl_column(0x05)
     114                    
     115                    $C$DW$16        .dwtag  DW_TAG_subprogram, DW_AT_name("VLIB_profile_init")
     116                            .dwattr $C$DW$16, DW_AT_TI_symbol_name("VLIB_profile_init")
     117                            .dwattr $C$DW$16, DW_AT_declaration
     118                            .dwattr $C$DW$16, DW_AT_external
     119                            .dwattr $C$DW$16, DW_AT_decl_file(".\..\packages\ti\vlib\src\VLIB_convertUYVYint_to_YUV420pl\.
     120                            .dwattr $C$DW$16, DW_AT_decl_line(0x7b)
     121                            .dwattr $C$DW$16, DW_AT_decl_column(0x06)
     122                    $C$DW$17        .dwtag  DW_TAG_formal_parameter
     123                            .dwattr $C$DW$17, DW_AT_type(*$C$DW$T$10)
     124                    $C$DW$18        .dwtag  DW_TAG_formal_parameter
     125                            .dwattr $C$DW$18, DW_AT_type(*$C$DW$T$59)
     126                            .dwendtag $C$DW$16
     127                    
     128                    
     129                    $C$DW$19        .dwtag  DW_TAG_subprogram, DW_AT_name("VLIB_formula_add_test")
     130                            .dwattr $C$DW$19, DW_AT_TI_symbol_name("VLIB_formula_add_test")
     131                            .dwattr $C$DW$19, DW_AT_declaration
     132                            .dwattr $C$DW$19, DW_AT_external
     133                            .dwattr $C$DW$19, DW_AT_decl_file(".\..\packages\ti\vlib\src\VLIB_convertUYVYint_to_YUV420pl\.
     134                            .dwattr $C$DW$19, DW_AT_decl_line(0x7d)
     135                            .dwattr $C$DW$19, DW_AT_decl_column(0x06)
     136                    $C$DW$20        .dwtag  DW_TAG_formal_parameter
     137                            .dwattr $C$DW$20, DW_AT_type(*$C$DW$T$10)
     138                    $C$DW$21        .dwtag  DW_TAG_formal_parameter
     139                            .dwattr $C$DW$21, DW_AT_type(*$C$DW$T$10)
     140                    $C$DW$22        .dwtag  DW_TAG_formal_parameter
     141                            .dwattr $C$DW$22, DW_AT_type(*$C$DW$T$10)
     142                    $C$DW$23        .dwtag  DW_TAG_formal_parameter
     143                            .dwattr $C$DW$23, DW_AT_type(*$C$DW$T$10)
     144                    $C$DW$24        .dwtag  DW_TAG_formal_parameter
     145                            .dwattr $C$DW$24, DW_AT_type(*$C$DW$T$59)
     146                    $C$DW$25        .dwtag  DW_TAG_formal_parameter
     147                            .dwattr $C$DW$25, DW_AT_type(*$C$DW$T$10)
     148                            .dwendtag $C$DW$19
     149                    
     150                    
     151                    $C$DW$26        .dwtag  DW_TAG_subprogram, DW_AT_name("VLIB_skip_test")
     152                            .dwattr $C$DW$26, DW_AT_TI_symbol_name("VLIB_skip_test")
     153                            .dwattr $C$DW$26, DW_AT_declaration
     154                            .dwattr $C$DW$26, DW_AT_external
     155                            .dwattr $C$DW$26, DW_AT_decl_file(".\..\packages\ti\vlib\src\VLIB_convertUYVYint_to_YUV420pl\.
     156                            .dwattr $C$DW$26, DW_AT_decl_line(0x7e)
     157                            .dwattr $C$DW$26, DW_AT_decl_column(0x06)
     158                    $C$DW$27        .dwtag  DW_TAG_formal_parameter
     159                            .dwattr $C$DW$27, DW_AT_type(*$C$DW$T$59)
     160                            .dwendtag $C$DW$26
     161                    
     162                    
     163                    $C$DW$28        .dwtag  DW_TAG_subprogram, DW_AT_name("VLIB_profile_cycle_report")
     164                            .dwattr $C$DW$28, DW_AT_TI_symbol_name("VLIB_profile_cycle_report")
     165                            .dwattr $C$DW$28, DW_AT_declaration
TMS320C6x Assembler PC v7.4.2 Thu Mar 19 12:40:28 2015

Tools Copyright (c) 1996-2012 Texas Instruments Incorporated
package/lib/Regression/regress_d_c/./../packages/ti/vlib/src/VLIB_convertUYVYint_to_YUV420pl/VLIB_convertUYVYint_to_YUV420pl_d.se66 PAGE    4

     166                            .dwattr $C$DW$28, DW_AT_external
     167                            .dwattr $C$DW$28, DW_AT_decl_file(".\..\packages\ti\vlib\src\VLIB_convertUYVYint_to_YUV420pl\.
     168                            .dwattr $C$DW$28, DW_AT_decl_line(0x7f)
     169                            .dwattr $C$DW$28, DW_AT_decl_column(0x06)
     170                    $C$DW$29        .dwtag  DW_TAG_formal_parameter
     171                            .dwattr $C$DW$29, DW_AT_type(*$C$DW$T$10)
     172                    $C$DW$30        .dwtag  DW_TAG_formal_parameter
     173                            .dwattr $C$DW$30, DW_AT_type(*$C$DW$T$59)
     174                    $C$DW$31        .dwtag  DW_TAG_formal_parameter
     175                            .dwattr $C$DW$31, DW_AT_type(*$C$DW$T$59)
     176                            .dwendtag $C$DW$28
     177                    
     178                    
     179                    $C$DW$32        .dwtag  DW_TAG_subprogram, DW_AT_name("initStack")
     180                            .dwattr $C$DW$32, DW_AT_TI_symbol_name("initStack")
     181                            .dwattr $C$DW$32, DW_AT_declaration
     182                            .dwattr $C$DW$32, DW_AT_external
     183                            .dwattr $C$DW$32, DW_AT_decl_file(".\..\packages\ti\vlib\src\VLIB_convertUYVYint_to_YUV420pl\.
     184                            .dwattr $C$DW$32, DW_AT_decl_line(0x80)
     185                            .dwattr $C$DW$32, DW_AT_decl_column(0x06)
     186                    $C$DW$33        .dwtag  DW_TAG_formal_parameter
     187                            .dwattr $C$DW$33, DW_AT_type(*$C$DW$T$21)
     188                            .dwendtag $C$DW$32
     189                    
     190                    
     191                    $C$DW$34        .dwtag  DW_TAG_subprogram, DW_AT_name("setStackDepth")
     192                            .dwattr $C$DW$34, DW_AT_TI_symbol_name("setStackDepth")
     193                            .dwattr $C$DW$34, DW_AT_declaration
     194                            .dwattr $C$DW$34, DW_AT_external
     195                            .dwattr $C$DW$34, DW_AT_decl_file(".\..\packages\ti\vlib\src\VLIB_convertUYVYint_to_YUV420pl\.
     196                            .dwattr $C$DW$34, DW_AT_decl_line(0x81)
     197                            .dwattr $C$DW$34, DW_AT_decl_column(0x06)
     198                    
     199                    $C$DW$35        .dwtag  DW_TAG_subprogram, DW_AT_name("getSP")
     200                            .dwattr $C$DW$35, DW_AT_TI_symbol_name("getSP")
     201                            .dwattr $C$DW$35, DW_AT_type(*$C$DW$T$21)
     202                            .dwattr $C$DW$35, DW_AT_declaration
     203                            .dwattr $C$DW$35, DW_AT_external
     204                            .dwattr $C$DW$35, DW_AT_decl_file(".\..\packages\ti\vlib\src\VLIB_convertUYVYint_to_YUV420pl\.
     205                            .dwattr $C$DW$35, DW_AT_decl_line(0x82)
     206                            .dwattr $C$DW$35, DW_AT_decl_column(0x0a)
     207                    
     208                    $C$DW$36        .dwtag  DW_TAG_subprogram, DW_AT_name("VLIB_stack_memory")
     209                            .dwattr $C$DW$36, DW_AT_TI_symbol_name("VLIB_stack_memory")
     210                            .dwattr $C$DW$36, DW_AT_declaration
     211                            .dwattr $C$DW$36, DW_AT_external
     212                            .dwattr $C$DW$36, DW_AT_decl_file(".\..\packages\ti\vlib\src\VLIB_convertUYVYint_to_YUV420pl\.
     213                            .dwattr $C$DW$36, DW_AT_decl_line(0x83)
     214                            .dwattr $C$DW$36, DW_AT_decl_column(0x06)
     215                    
     216                    $C$DW$37        .dwtag  DW_TAG_subprogram, DW_AT_name("VLIB_compare_mem")
     217                            .dwattr $C$DW$37, DW_AT_TI_symbol_name("VLIB_compare_mem")
     218                            .dwattr $C$DW$37, DW_AT_type(*$C$DW$T$22)
     219                            .dwattr $C$DW$37, DW_AT_declaration
     220                            .dwattr $C$DW$37, DW_AT_external
TMS320C6x Assembler PC v7.4.2 Thu Mar 19 12:40:28 2015

Tools Copyright (c) 1996-2012 Texas Instruments Incorporated
package/lib/Regression/regress_d_c/./../packages/ti/vlib/src/VLIB_convertUYVYint_to_YUV420pl/VLIB_convertUYVYint_to_YUV420pl_d.se66 PAGE    5

     221                            .dwattr $C$DW$37, DW_AT_decl_file(".\..\packages\ti\vlib\src\VLIB_convertUYVYint_to_YUV420pl\.
     222                            .dwattr $C$DW$37, DW_AT_decl_line(0x6f)
     223                            .dwattr $C$DW$37, DW_AT_decl_column(0x11)
     224                    $C$DW$38        .dwtag  DW_TAG_formal_parameter
     225                            .dwattr $C$DW$38, DW_AT_type(*$C$DW$T$51)
     226                    $C$DW$39        .dwtag  DW_TAG_formal_parameter
     227                            .dwattr $C$DW$39, DW_AT_type(*$C$DW$T$51)
     228                    $C$DW$40        .dwtag  DW_TAG_formal_parameter
     229                            .dwattr $C$DW$40, DW_AT_type(*$C$DW$T$22)
     230                            .dwendtag $C$DW$37
     231                    
     232                    
     233                    $C$DW$41        .dwtag  DW_TAG_subprogram, DW_AT_name("VLIB_fillBuffer")
     234                            .dwattr $C$DW$41, DW_AT_TI_symbol_name("VLIB_fillBuffer")
     235                            .dwattr $C$DW$41, DW_AT_declaration
     236                            .dwattr $C$DW$41, DW_AT_external
     237                            .dwattr $C$DW$41, DW_AT_decl_file(".\..\packages\ti\vlib\src\VLIB_convertUYVYint_to_YUV420pl\.
     238                            .dwattr $C$DW$41, DW_AT_decl_line(0x77)
     239                            .dwattr $C$DW$41, DW_AT_decl_column(0x06)
     240                    $C$DW$42        .dwtag  DW_TAG_formal_parameter
     241                            .dwattr $C$DW$42, DW_AT_type(*$C$DW$T$19)
     242                    $C$DW$43        .dwtag  DW_TAG_formal_parameter
     243                            .dwattr $C$DW$43, DW_AT_type(*$C$DW$T$19)
     244                    $C$DW$44        .dwtag  DW_TAG_formal_parameter
     245                            .dwattr $C$DW$44, DW_AT_type(*$C$DW$T$3)
     246                    $C$DW$45        .dwtag  DW_TAG_formal_parameter
     247                            .dwattr $C$DW$45, DW_AT_type(*$C$DW$T$3)
     248                    $C$DW$46        .dwtag  DW_TAG_formal_parameter
     249                            .dwattr $C$DW$46, DW_AT_type(*$C$DW$T$73)
     250                    $C$DW$47        .dwtag  DW_TAG_formal_parameter
     251                            .dwattr $C$DW$47, DW_AT_type(*$C$DW$T$73)
     252                    $C$DW$48        .dwtag  DW_TAG_formal_parameter
     253                            .dwattr $C$DW$48, DW_AT_type(*$C$DW$T$73)
     254                    $C$DW$49        .dwtag  DW_TAG_formal_parameter
     255                            .dwattr $C$DW$49, DW_AT_type(*$C$DW$T$19)
     256                    $C$DW$50        .dwtag  DW_TAG_formal_parameter
     257                            .dwattr $C$DW$50, DW_AT_type(*$C$DW$T$59)
     258                            .dwendtag $C$DW$41
     259                    
     260                    
     261                    $C$DW$51        .dwtag  DW_TAG_subprogram, DW_AT_name("VLIB_memalign")
     262                            .dwattr $C$DW$51, DW_AT_TI_symbol_name("VLIB_memalign")
     263                            .dwattr $C$DW$51, DW_AT_type(*$C$DW$T$3)
     264                            .dwattr $C$DW$51, DW_AT_declaration
     265                            .dwattr $C$DW$51, DW_AT_external
     266                            .dwattr $C$DW$51, DW_AT_decl_file(".\..\packages\ti\vlib\src\VLIB_convertUYVYint_to_YUV420pl\.
     267                            .dwattr $C$DW$51, DW_AT_decl_line(0xae)
     268                            .dwattr $C$DW$51, DW_AT_decl_column(0x07)
     269                    $C$DW$52        .dwtag  DW_TAG_formal_parameter
     270                            .dwattr $C$DW$52, DW_AT_type(*$C$DW$T$52)
     271                    $C$DW$53        .dwtag  DW_TAG_formal_parameter
     272                            .dwattr $C$DW$53, DW_AT_type(*$C$DW$T$52)
     273                            .dwendtag $C$DW$51
     274                    
     275                    
TMS320C6x Assembler PC v7.4.2 Thu Mar 19 12:40:28 2015

Tools Copyright (c) 1996-2012 Texas Instruments Incorporated
package/lib/Regression/regress_d_c/./../packages/ti/vlib/src/VLIB_convertUYVYint_to_YUV420pl/VLIB_convertUYVYint_to_YUV420pl_d.se66 PAGE    6

     276                    $C$DW$54        .dwtag  DW_TAG_subprogram, DW_AT_name("VLIB_align_free")
     277                            .dwattr $C$DW$54, DW_AT_TI_symbol_name("VLIB_align_free")
     278                            .dwattr $C$DW$54, DW_AT_declaration
     279                            .dwattr $C$DW$54, DW_AT_external
     280                            .dwattr $C$DW$54, DW_AT_decl_file(".\..\packages\ti\vlib\src\VLIB_convertUYVYint_to_YUV420pl\.
     281                            .dwattr $C$DW$54, DW_AT_decl_line(0xb3)
     282                            .dwattr $C$DW$54, DW_AT_decl_column(0x07)
     283                    $C$DW$55        .dwtag  DW_TAG_formal_parameter
     284                            .dwattr $C$DW$55, DW_AT_type(*$C$DW$T$3)
     285                            .dwendtag $C$DW$54
     286                    
     287                    
     288                    $C$DW$56        .dwtag  DW_TAG_subprogram, DW_AT_name("VLIB_convertUYVYint_to_YUV420pl")
     289                            .dwattr $C$DW$56, DW_AT_TI_symbol_name("VLIB_convertUYVYint_to_YUV420pl")
     290                            .dwattr $C$DW$56, DW_AT_type(*$C$DW$T$22)
     291                            .dwattr $C$DW$56, DW_AT_declaration
     292                            .dwattr $C$DW$56, DW_AT_external
     293                            .dwattr $C$DW$56, DW_AT_decl_file(".\..\packages\ti\vlib\src\VLIB_convertUYVYint_to_YUV420pl\c
     294                            .dwattr $C$DW$56, DW_AT_decl_line(0x7d)
     295                            .dwattr $C$DW$56, DW_AT_decl_column(0x09)
     296                    $C$DW$57        .dwtag  DW_TAG_formal_parameter
     297                            .dwattr $C$DW$57, DW_AT_type(*$C$DW$T$94)
     298                    $C$DW$58        .dwtag  DW_TAG_formal_parameter
     299                            .dwattr $C$DW$58, DW_AT_type(*$C$DW$T$21)
     300                    $C$DW$59        .dwtag  DW_TAG_formal_parameter
     301                            .dwattr $C$DW$59, DW_AT_type(*$C$DW$T$22)
     302                    $C$DW$60        .dwtag  DW_TAG_formal_parameter
     303                            .dwattr $C$DW$60, DW_AT_type(*$C$DW$T$21)
     304                    $C$DW$61        .dwtag  DW_TAG_formal_parameter
     305                            .dwattr $C$DW$61, DW_AT_type(*$C$DW$T$92)
     306                    $C$DW$62        .dwtag  DW_TAG_formal_parameter
     307                            .dwattr $C$DW$62, DW_AT_type(*$C$DW$T$92)
     308                    $C$DW$63        .dwtag  DW_TAG_formal_parameter
     309                            .dwattr $C$DW$63, DW_AT_type(*$C$DW$T$92)
     310                            .dwendtag $C$DW$56
     311                    
     312                    
     313                    $C$DW$64        .dwtag  DW_TAG_subprogram, DW_AT_name("VLIB_convertUYVYint_to_YUV420pl_cn")
     314                            .dwattr $C$DW$64, DW_AT_TI_symbol_name("VLIB_convertUYVYint_to_YUV420pl_cn")
     315                            .dwattr $C$DW$64, DW_AT_type(*$C$DW$T$22)
     316                            .dwattr $C$DW$64, DW_AT_declaration
     317                            .dwattr $C$DW$64, DW_AT_external
     318                            .dwattr $C$DW$64, DW_AT_decl_file(".\..\packages\ti\vlib\src\VLIB_convertUYVYint_to_YUV420pl\V
     319                            .dwattr $C$DW$64, DW_AT_decl_line(0x20)
     320                            .dwattr $C$DW$64, DW_AT_decl_column(0x09)
     321                    $C$DW$65        .dwtag  DW_TAG_formal_parameter
     322                            .dwattr $C$DW$65, DW_AT_type(*$C$DW$T$94)
     323                    $C$DW$66        .dwtag  DW_TAG_formal_parameter
     324                            .dwattr $C$DW$66, DW_AT_type(*$C$DW$T$21)
     325                    $C$DW$67        .dwtag  DW_TAG_formal_parameter
     326                            .dwattr $C$DW$67, DW_AT_type(*$C$DW$T$22)
     327                    $C$DW$68        .dwtag  DW_TAG_formal_parameter
     328                            .dwattr $C$DW$68, DW_AT_type(*$C$DW$T$21)
     329                    $C$DW$69        .dwtag  DW_TAG_formal_parameter
     330                            .dwattr $C$DW$69, DW_AT_type(*$C$DW$T$92)
TMS320C6x Assembler PC v7.4.2 Thu Mar 19 12:40:28 2015

Tools Copyright (c) 1996-2012 Texas Instruments Incorporated
package/lib/Regression/regress_d_c/./../packages/ti/vlib/src/VLIB_convertUYVYint_to_YUV420pl/VLIB_convertUYVYint_to_YUV420pl_d.se66 PAGE    7

     331                    $C$DW$70        .dwtag  DW_TAG_formal_parameter
     332                            .dwattr $C$DW$70, DW_AT_type(*$C$DW$T$92)
     333                    $C$DW$71        .dwtag  DW_TAG_formal_parameter
     334                            .dwattr $C$DW$71, DW_AT_type(*$C$DW$T$92)
     335                            .dwendtag $C$DW$64
     336                    
     337                    
     338                    $C$DW$72        .dwtag  DW_TAG_subprogram, DW_AT_name("UYVYint_to_YUV420pl_getTestParams")
     339                            .dwattr $C$DW$72, DW_AT_TI_symbol_name("UYVYint_to_YUV420pl_getTestParams")
     340                            .dwattr $C$DW$72, DW_AT_declaration
     341                            .dwattr $C$DW$72, DW_AT_external
     342                            .dwattr $C$DW$72, DW_AT_decl_file(".\..\packages\ti\vlib\src\VLIB_convertUYVYint_to_YUV420pl\V
     343                            .dwattr $C$DW$72, DW_AT_decl_line(0x2e)
     344                            .dwattr $C$DW$72, DW_AT_decl_column(0x06)
     345                    $C$DW$73        .dwtag  DW_TAG_formal_parameter
     346                            .dwattr $C$DW$73, DW_AT_type(*$C$DW$T$42)
     347                    $C$DW$74        .dwtag  DW_TAG_formal_parameter
     348                            .dwattr $C$DW$74, DW_AT_type(*$C$DW$T$76)
     349                            .dwendtag $C$DW$72
     350                    
     351                    $C$DW$75        .dwtag  DW_TAG_variable, DW_AT_name("test_cases")
     352                            .dwattr $C$DW$75, DW_AT_TI_symbol_name("test_cases")
     353                            .dwattr $C$DW$75, DW_AT_type(*$C$DW$T$22)
     354                            .dwattr $C$DW$75, DW_AT_declaration
     355                            .dwattr $C$DW$75, DW_AT_external
     356                            .dwattr $C$DW$75, DW_AT_decl_file(".\..\packages\ti\vlib\src\VLIB_convertUYVYint_to_YUV420pl\.
     357                            .dwattr $C$DW$75, DW_AT_decl_line(0x60)
     358                            .dwattr $C$DW$75, DW_AT_decl_column(0x13)
     359                    $C$DW$76        .dwtag  DW_TAG_variable, DW_AT_name("act_kernel")
     360                            .dwattr $C$DW$76, DW_AT_TI_symbol_name("act_kernel")
     361                            .dwattr $C$DW$76, DW_AT_type(*$C$DW$T$10)
     362                            .dwattr $C$DW$76, DW_AT_declaration
     363                            .dwattr $C$DW$76, DW_AT_external
     364                            .dwattr $C$DW$76, DW_AT_decl_file(".\..\packages\ti\vlib\src\VLIB_convertUYVYint_to_YUV420pl\.
     365                            .dwattr $C$DW$76, DW_AT_decl_line(0x62)
     366                            .dwattr $C$DW$76, DW_AT_decl_column(0x13)
     367                    $C$DW$77        .dwtag  DW_TAG_variable, DW_AT_name("desc")
     368                            .dwattr $C$DW$77, DW_AT_TI_symbol_name("desc")
     369                            .dwattr $C$DW$77, DW_AT_type(*$C$DW$T$157)
     370                            .dwattr $C$DW$77, DW_AT_declaration
     371                            .dwattr $C$DW$77, DW_AT_external
     372                            .dwattr $C$DW$77, DW_AT_decl_file(".\..\packages\ti\vlib\src\VLIB_convertUYVYint_to_YUV420pl\.
     373                            .dwattr $C$DW$77, DW_AT_decl_line(0x63)
     374                            .dwattr $C$DW$77, DW_AT_decl_column(0x13)
     375                    $C$DW$78        .dwtag  DW_TAG_variable, DW_AT_name("testPatternString")
     376                            .dwattr $C$DW$78, DW_AT_TI_symbol_name("testPatternString")
     377                            .dwattr $C$DW$78, DW_AT_type(*$C$DW$T$157)
     378                            .dwattr $C$DW$78, DW_AT_declaration
     379                            .dwattr $C$DW$78, DW_AT_external
     380                            .dwattr $C$DW$78, DW_AT_decl_file(".\..\packages\ti\vlib\src\VLIB_convertUYVYint_to_YUV420pl\.
     381                            .dwattr $C$DW$78, DW_AT_decl_line(0x64)
     382                            .dwattr $C$DW$78, DW_AT_decl_column(0x13)
     383                    $C$DW$79        .dwtag  DW_TAG_variable, DW_AT_name("est_test")
     384                            .dwattr $C$DW$79, DW_AT_TI_symbol_name("est_test")
     385                            .dwattr $C$DW$79, DW_AT_type(*$C$DW$T$10)
TMS320C6x Assembler PC v7.4.2 Thu Mar 19 12:40:28 2015

Tools Copyright (c) 1996-2012 Texas Instruments Incorporated
package/lib/Regression/regress_d_c/./../packages/ti/vlib/src/VLIB_convertUYVYint_to_YUV420pl/VLIB_convertUYVYint_to_YUV420pl_d.se66 PAGE    8

     386                            .dwattr $C$DW$79, DW_AT_declaration
     387                            .dwattr $C$DW$79, DW_AT_external
     388                            .dwattr $C$DW$79, DW_AT_decl_file(".\..\packages\ti\vlib\src\VLIB_convertUYVYint_to_YUV420pl\.
     389                            .dwattr $C$DW$79, DW_AT_decl_line(0x75)
     390                            .dwattr $C$DW$79, DW_AT_decl_column(0x14)
     391                    $C$DW$80        .dwtag  DW_TAG_variable, DW_AT_name("beg_count")
     392                            .dwattr $C$DW$80, DW_AT_TI_symbol_name("beg_count")
     393                            .dwattr $C$DW$80, DW_AT_type(*$C$DW$T$147)
     394                            .dwattr $C$DW$80, DW_AT_declaration
     395                            .dwattr $C$DW$80, DW_AT_external
     396                            .dwattr $C$DW$80, DW_AT_decl_file(".\..\packages\ti\vlib\src\VLIB_convertUYVYint_to_YUV420pl\.
     397                            .dwattr $C$DW$80, DW_AT_decl_line(0x76)
     398                            .dwattr $C$DW$80, DW_AT_decl_column(0x14)
     399                    $C$DW$81        .dwtag  DW_TAG_variable, DW_AT_name("end_count")
     400                            .dwattr $C$DW$81, DW_AT_TI_symbol_name("end_count")
     401                            .dwattr $C$DW$81, DW_AT_type(*$C$DW$T$147)
     402                            .dwattr $C$DW$81, DW_AT_declaration
     403                            .dwattr $C$DW$81, DW_AT_external
     404                            .dwattr $C$DW$81, DW_AT_decl_file(".\..\packages\ti\vlib\src\VLIB_convertUYVYint_to_YUV420pl\.
     405                            .dwattr $C$DW$81, DW_AT_decl_line(0x77)
     406                            .dwattr $C$DW$81, DW_AT_decl_column(0x14)
     407                    $C$DW$82        .dwtag  DW_TAG_variable, DW_AT_name("overhead")
     408                            .dwattr $C$DW$82, DW_AT_TI_symbol_name("overhead")
     409                            .dwattr $C$DW$82, DW_AT_type(*$C$DW$T$147)
     410                            .dwattr $C$DW$82, DW_AT_declaration
     411                            .dwattr $C$DW$82, DW_AT_external
     412                            .dwattr $C$DW$82, DW_AT_decl_file(".\..\packages\ti\vlib\src\VLIB_convertUYVYint_to_YUV420pl\.
     413                            .dwattr $C$DW$82, DW_AT_decl_line(0x78)
     414                            .dwattr $C$DW$82, DW_AT_decl_column(0x14)
     415                    $C$DW$83        .dwtag  DW_TAG_variable, DW_AT_name("cycles")
     416                            .dwattr $C$DW$83, DW_AT_TI_symbol_name("cycles")
     417                            .dwattr $C$DW$83, DW_AT_type(*$C$DW$T$148)
     418                            .dwattr $C$DW$83, DW_AT_declaration
     419                            .dwattr $C$DW$83, DW_AT_external
     420                            .dwattr $C$DW$83, DW_AT_decl_file(".\..\packages\ti\vlib\src\VLIB_convertUYVYint_to_YUV420pl\.
     421                            .dwattr $C$DW$83, DW_AT_decl_line(0x79)
     422                            .dwattr $C$DW$83, DW_AT_decl_column(0x14)
     423                    ;       C:\VLIB_Tools\CCSV5_4_0\ccsv5\tools\compiler\C6000\bin\opt6x.exe C:\\Users\\gtbldadm\\AppData\
     424 00000000                   .sect   ".text"
     425                            .clink
     426                            .global VLIB_convertUYVYint_to_YUV420pl_d
     427                    
     428                    $C$DW$84        .dwtag  DW_TAG_subprogram, DW_AT_name("VLIB_convertUYVYint_to_YUV420pl_d")
     429                            .dwattr $C$DW$84, DW_AT_low_pc(VLIB_convertUYVYint_to_YUV420pl_d)
     430                            .dwattr $C$DW$84, DW_AT_high_pc(0x00)
     431                            .dwattr $C$DW$84, DW_AT_TI_symbol_name("VLIB_convertUYVYint_to_YUV420pl_d")
     432                            .dwattr $C$DW$84, DW_AT_external
     433                            .dwattr $C$DW$84, DW_AT_TI_begin_file("./../packages/ti/vlib/src/VLIB_convertUYVYint_to_YUV420
     434                            .dwattr $C$DW$84, DW_AT_TI_begin_line(0x26)
     435                            .dwattr $C$DW$84, DW_AT_TI_begin_column(0x06)
     436                            .dwattr $C$DW$84, DW_AT_decl_file("./../packages/ti/vlib/src/VLIB_convertUYVYint_to_YUV420pl/V
     437                            .dwattr $C$DW$84, DW_AT_decl_line(0x26)
     438                            .dwattr $C$DW$84, DW_AT_decl_column(0x06)
     439                            .dwattr $C$DW$84, DW_AT_TI_max_frame_size(0x78)
     440                            .dwpsn  file "./../packages/ti/vlib/src/VLIB_convertUYVYint_to_YUV420pl/VLIB_convertUYVYint_to
TMS320C6x Assembler PC v7.4.2 Thu Mar 19 12:40:28 2015

Tools Copyright (c) 1996-2012 Texas Instruments Incorporated
package/lib/Regression/regress_d_c/./../packages/ti/vlib/src/VLIB_convertUYVYint_to_YUV420pl/VLIB_convertUYVYint_to_YUV420pl_d.se66 PAGE    9

     441                    
     442                            .dwfde $C$DW$CIE, VLIB_convertUYVYint_to_YUV420pl_d
     443                    $C$DW$85        .dwtag  DW_TAG_formal_parameter, DW_AT_name("LevelOfFeedback")
     444                            .dwattr $C$DW$85, DW_AT_TI_symbol_name("LevelOfFeedback")
     445                            .dwattr $C$DW$85, DW_AT_type(*$C$DW$T$19)
     446                            .dwattr $C$DW$85, DW_AT_location[DW_OP_reg4]
     447                    ;----------------------------------------------------------------------
     448                    ;  38 | void VLIB_convertUYVYint_to_YUV420pl_d (uint8_t LevelOfFeedback)       
     449                    ;----------------------------------------------------------------------
     450                    
     451                    ;******************************************************************************
     452                    ;* FUNCTION NAME: VLIB_convertUYVYint_to_YUV420pl_d                           *
     453                    ;*                                                                            *
     454                    ;*   Regs Modified     : A0,A1,A2,A3,A4,A5,A6,A7,A8,A9,A10,A11,A12,A13,A14,   *
     455                    ;*                           A15,B0,B1,B2,B3,B4,B5,B6,B7,B8,B9,B10,B11,B12,   *
     456                    ;*                           B13,SP,A16,A17,A18,A19,A20,A21,A22,A23,A24,A25,  *
     457                    ;*                           A26,A27,A28,A29,A30,A31,B16,B17,B18,B19,B20,B21, *
     458                    ;*                           B22,B23,B24,B25,B26,B27,B28,B29,B30,B31          *
     459                    ;*   Regs Used         : A0,A1,A2,A3,A4,A5,A6,A7,A8,A9,A10,A11,A12,A13,A14,   *
     460                    ;*                           A15,B0,B1,B2,B3,B4,B5,B6,B7,B8,B9,B10,B11,B12,   *
     461                    ;*                           B13,DP,SP,A16,A17,A18,A19,A20,A21,A22,A23,A24,   *
     462                    ;*                           A25,A26,A27,A28,A29,A30,A31,B16,B17,B18,B19,B20, *
     463                    ;*                           B21,B22,B23,B24,B25,B26,B27,B28,B29,B30,B31      *
     464                    ;*   Local Frame Size  : 24 Args + 36 Auto + 56 Save = 116 byte               *
     465                    ;******************************************************************************
     466                    
     467                    ;******************************************************************************
     468                    ;*                                                                            *
     469                    ;* Using -g (debug) with optimization (-o3) may disable key optimizations!    *
     470                    ;*                                                                            *
     471                    ;******************************************************************************
     472 00000000           VLIB_convertUYVYint_to_YUV420pl_d:
     473                    ;** --------------------------------------------------------------------------*
     474                    ;          EXCLUSIVE CPU CYCLES: 16
     475                    ;** 45  -----------------------    UYVYint_to_YUV420pl_getTestParams(&prm, &test_cases);
     476                    ;** 48  -----------------------    VLIB_profile_init(3, "VLIB_convertUYVYint_to_YUV420pl");
     477                    ;** 51  -----------------------    if ( test_cases <= 0 ) goto g18;
     478                            .dwcfi  cfa_offset, 0
     479                    ;----------------------------------------------------------------------
     480                    ;  40 | int32_t    tpi;  /* test parameter index */                            
     481                    ;  43 | UYVYint_to_YUV420pl_testParams_t   *prm;                               
     482                    ;----------------------------------------------------------------------
     483 00000000     25f7             STW     .D2T1   A11,*SP--(8)      ; |39| 
     484                            .dwcfi  cfa_offset, 8
     485                            .dwcfi  save_reg_to_mem, 11, 0
     486 00000002     2577             STW     .D2T1   A10,*SP--(8)      ; |39| 
     487                            .dwcfi  cfa_offset, 16
     488                            .dwcfi  save_reg_to_mem, 10, -8
     489 00000004     9677             STDW    .D2T2   B13:B12,*SP--     ; |39| 
     490                            .dwcfi  cfa_offset, 24
     491                            .dwcfi  save_reg_to_mem, 29, -12
     492                            .dwcfi  save_reg_to_mem, 28, -16
     493 00000006     9577             STDW    .D2T2   B11:B10,*SP--     ; |39| 
     494                            .dwcfi  cfa_offset, 32
     495                            .dwcfi  save_reg_to_mem, 27, -20
TMS320C6x Assembler PC v7.4.2 Thu Mar 19 12:40:28 2015

Tools Copyright (c) 1996-2012 Texas Instruments Incorporated
package/lib/Regression/regress_d_c/./../packages/ti/vlib/src/VLIB_convertUYVYint_to_YUV420pl/VLIB_convertUYVYint_to_YUV420pl_d.se66 PAGE   10

     496                            .dwcfi  save_reg_to_mem, 26, -24
     497 00000008     8777             STDW    .D2T1   A15:A14,*SP--     ; |39| 
     498                            .dwcfi  cfa_offset, 40
     499                            .dwcfi  save_reg_to_mem, 15, -28
     500                            .dwcfi  save_reg_to_mem, 14, -32
     501 0000000a     8677             STDW    .D2T1   A13:A12,*SP--     ; |39| 
     502                            .dwcfi  cfa_offset, 48
     503                            .dwcfi  save_reg_to_mem, 13, -36
     504                            .dwcfi  save_reg_to_mem, 12, -40
     505 0000000c 01be54f6             STW     .D2T2   B3,*SP--(72)      ; |39| 
     506                            .dwcfi  cfa_offset, 120
     507                            .dwcfi  save_reg_to_mem, 19, 0
     508                    $C$DW$86        .dwtag  DW_TAG_variable, DW_AT_name("$O$C1")
     509                            .dwattr $C$DW$86, DW_AT_TI_symbol_name("$O$C1")
     510                            .dwattr $C$DW$86, DW_AT_type(*$C$DW$T$43)
     511                            .dwattr $C$DW$86, DW_AT_location[DW_OP_reg20]
     512                    $C$DW$87        .dwtag  DW_TAG_variable, DW_AT_name("$O$C2")
     513                            .dwattr $C$DW$87, DW_AT_TI_symbol_name("$O$C2")
     514                            .dwattr $C$DW$87, DW_AT_type(*$C$DW$T$24)
     515                            .dwattr $C$DW$87, DW_AT_location[DW_OP_reg0]
     516                    $C$DW$88        .dwtag  DW_TAG_variable, DW_AT_name("$O$C3")
     517                            .dwattr $C$DW$88, DW_AT_TI_symbol_name("$O$C3")
     518                            .dwattr $C$DW$88, DW_AT_type(*$C$DW$T$10)
     519                            .dwattr $C$DW$88, DW_AT_location[DW_OP_reg3]
     520                    $C$DW$89        .dwtag  DW_TAG_variable, DW_AT_name("$O$C4")
     521                            .dwattr $C$DW$89, DW_AT_TI_symbol_name("$O$C4")
     522                            .dwattr $C$DW$89, DW_AT_type(*$C$DW$T$10)
     523                            .dwattr $C$DW$89, DW_AT_location[DW_OP_reg3]
     524                    $C$DW$90        .dwtag  DW_TAG_variable, DW_AT_name("$O$C5")
     525                            .dwattr $C$DW$90, DW_AT_TI_symbol_name("$O$C5")
     526                            .dwattr $C$DW$90, DW_AT_type(*$C$DW$T$11)
     527                            .dwattr $C$DW$90, DW_AT_location[DW_OP_reg10]
     528                    $C$DW$91        .dwtag  DW_TAG_variable, DW_AT_name("$O$U12")
     529                            .dwattr $C$DW$91, DW_AT_TI_symbol_name("$O$U12")
     530                            .dwattr $C$DW$91, DW_AT_type(*$C$DW$T$43)
     531                            .dwattr $C$DW$91, DW_AT_location[DW_OP_reg11]
     532                    $C$DW$92        .dwtag  DW_TAG_variable, DW_AT_name("$O$K49")
     533                            .dwattr $C$DW$92, DW_AT_TI_symbol_name("$O$K49")
     534                            .dwattr $C$DW$92, DW_AT_type(*$C$DW$T$80)
     535                            .dwattr $C$DW$92, DW_AT_location[DW_OP_reg27]
     536                    $C$DW$93        .dwtag  DW_TAG_variable, DW_AT_name("$O$K56")
     537                            .dwattr $C$DW$93, DW_AT_TI_symbol_name("$O$K56")
     538                            .dwattr $C$DW$93, DW_AT_type(*$C$DW$T$10)
     539                            .dwattr $C$DW$93, DW_AT_location[DW_OP_reg3]
     540                    $C$DW$94        .dwtag  DW_TAG_variable, DW_AT_name("$O$K64")
     541                            .dwattr $C$DW$94, DW_AT_TI_symbol_name("$O$K64")
     542                            .dwattr $C$DW$94, DW_AT_type(*$C$DW$T$146)
     543                            .dwattr $C$DW$94, DW_AT_location[DW_OP_reg4]
     544                    $C$DW$95        .dwtag  DW_TAG_variable, DW_AT_name("$O$U73")
     545                            .dwattr $C$DW$95, DW_AT_TI_symbol_name("$O$U73")
     546                            .dwattr $C$DW$95, DW_AT_type(*$C$DW$T$10)
     547                            .dwattr $C$DW$95, DW_AT_location[DW_OP_reg14]
     548                    $C$DW$96        .dwtag  DW_TAG_variable, DW_AT_name("$O$U11")
     549                            .dwattr $C$DW$96, DW_AT_TI_symbol_name("$O$U11")
     550                            .dwattr $C$DW$96, DW_AT_type(*$C$DW$T$10)
TMS320C6x Assembler PC v7.4.2 Thu Mar 19 12:40:28 2015

Tools Copyright (c) 1996-2012 Texas Instruments Incorporated
package/lib/Regression/regress_d_c/./../packages/ti/vlib/src/VLIB_convertUYVYint_to_YUV420pl/VLIB_convertUYVYint_to_YUV420pl_d.se66 PAGE   11

     551                            .dwattr $C$DW$96, DW_AT_location[DW_OP_reg28]
     552                    $C$DW$97        .dwtag  DW_TAG_variable, DW_AT_name("$O$K99")
     553                            .dwattr $C$DW$97, DW_AT_TI_symbol_name("$O$K99")
     554                            .dwattr $C$DW$97, DW_AT_type(*$C$DW$T$80)
     555                            .dwattr $C$DW$97, DW_AT_location[DW_OP_reg8]
     556                    $C$DW$98        .dwtag  DW_TAG_variable, DW_AT_name("tpi")
     557                            .dwattr $C$DW$98, DW_AT_TI_symbol_name("tpi")
     558                            .dwattr $C$DW$98, DW_AT_type(*$C$DW$T$22)
     559                            .dwattr $C$DW$98, DW_AT_location[DW_OP_reg15]
     560                    $C$DW$99        .dwtag  DW_TAG_variable, DW_AT_name("prm")
     561                            .dwattr $C$DW$99, DW_AT_TI_symbol_name("prm")
     562                            .dwattr $C$DW$99, DW_AT_type(*$C$DW$T$41)
     563                            .dwattr $C$DW$99, DW_AT_location[DW_OP_breg31 28]
     564                    $C$DW$100       .dwtag  DW_TAG_variable, DW_AT_name("status_nat_vs_int")
     565                            .dwattr $C$DW$100, DW_AT_TI_symbol_name("status_nat_vs_int")
     566                            .dwattr $C$DW$100, DW_AT_type(*$C$DW$T$22)
     567                            .dwattr $C$DW$100, DW_AT_location[DW_OP_breg31 32]
     568                    $C$DW$101       .dwtag  DW_TAG_variable, DW_AT_name("status_nat_vs_ref")
     569                            .dwattr $C$DW$101, DW_AT_TI_symbol_name("status_nat_vs_ref")
     570                            .dwattr $C$DW$101, DW_AT_type(*$C$DW$T$22)
     571                            .dwattr $C$DW$101, DW_AT_location[DW_OP_reg29]
     572                    $C$DW$102       .dwtag  DW_TAG_variable, DW_AT_name("out_luma")
     573                            .dwattr $C$DW$102, DW_AT_TI_symbol_name("out_luma")
     574                            .dwattr $C$DW$102, DW_AT_type(*$C$DW$T$21)
     575                            .dwattr $C$DW$102, DW_AT_location[DW_OP_reg14]
     576                    $C$DW$103       .dwtag  DW_TAG_variable, DW_AT_name("out_chroma")
     577                            .dwattr $C$DW$103, DW_AT_TI_symbol_name("out_chroma")
     578                            .dwattr $C$DW$103, DW_AT_type(*$C$DW$T$21)
     579                            .dwattr $C$DW$103, DW_AT_location[DW_OP_reg13]
     580                    $C$DW$104       .dwtag  DW_TAG_variable, DW_AT_name("yc")
     581                            .dwattr $C$DW$104, DW_AT_TI_symbol_name("yc")
     582                            .dwattr $C$DW$104, DW_AT_type(*$C$DW$T$20)
     583                            .dwattr $C$DW$104, DW_AT_location[DW_OP_breg31 36]
     584                    $C$DW$105       .dwtag  DW_TAG_variable, DW_AT_name("y")
     585                            .dwattr $C$DW$105, DW_AT_TI_symbol_name("y")
     586                            .dwattr $C$DW$105, DW_AT_type(*$C$DW$T$20)
     587                            .dwattr $C$DW$105, DW_AT_location[DW_OP_breg31 40]
     588                    $C$DW$106       .dwtag  DW_TAG_variable, DW_AT_name("cr")
     589                            .dwattr $C$DW$106, DW_AT_TI_symbol_name("cr")
     590                            .dwattr $C$DW$106, DW_AT_type(*$C$DW$T$20)
     591                            .dwattr $C$DW$106, DW_AT_location[DW_OP_breg31 44]
     592                    $C$DW$107       .dwtag  DW_TAG_variable, DW_AT_name("cb")
     593                            .dwattr $C$DW$107, DW_AT_TI_symbol_name("cb")
     594                            .dwattr $C$DW$107, DW_AT_type(*$C$DW$T$20)
     595                            .dwattr $C$DW$107, DW_AT_location[DW_OP_breg31 48]
     596                    $C$DW$108       .dwtag  DW_TAG_variable, DW_AT_name("y_cn")
     597                            .dwattr $C$DW$108, DW_AT_TI_symbol_name("y_cn")
     598                            .dwattr $C$DW$108, DW_AT_type(*$C$DW$T$20)
     599                            .dwattr $C$DW$108, DW_AT_location[DW_OP_breg31 52]
     600                    $C$DW$109       .dwtag  DW_TAG_variable, DW_AT_name("cr_cn")
     601                            .dwattr $C$DW$109, DW_AT_TI_symbol_name("cr_cn")
     602                            .dwattr $C$DW$109, DW_AT_type(*$C$DW$T$20)
     603                            .dwattr $C$DW$109, DW_AT_location[DW_OP_breg31 56]
     604                    $C$DW$110       .dwtag  DW_TAG_variable, DW_AT_name("cb_cn")
     605                            .dwattr $C$DW$110, DW_AT_TI_symbol_name("cb_cn")
TMS320C6x Assembler PC v7.4.2 Thu Mar 19 12:40:28 2015

Tools Copyright (c) 1996-2012 Texas Instruments Incorporated
package/lib/Regression/regress_d_c/./../packages/ti/vlib/src/VLIB_convertUYVYint_to_YUV420pl/VLIB_convertUYVYint_to_YUV420pl_d.se66 PAGE   12

     606                            .dwattr $C$DW$110, DW_AT_type(*$C$DW$T$20)
     607                            .dwattr $C$DW$110, DW_AT_location[DW_OP_breg31 60]
     608                    $C$DW$111       .dwtag  DW_TAG_variable, DW_AT_name("$O$v1")
     609                            .dwattr $C$DW$111, DW_AT_TI_symbol_name("$O$v1")
     610                            .dwattr $C$DW$111, DW_AT_type(*$C$DW$T$41)
     611                            .dwattr $C$DW$111, DW_AT_location[DW_OP_reg26]
     612                    $C$DW$112       .dwtag  DW_TAG_variable, DW_AT_name("$O$U74")
     613                            .dwattr $C$DW$112, DW_AT_TI_symbol_name("$O$U74")
     614                            .dwattr $C$DW$112, DW_AT_type(*$C$DW$T$10)
     615                            .dwattr $C$DW$112, DW_AT_location[DW_OP_reg13]
     616                    $C$DW$113       .dwtag  DW_TAG_variable, DW_AT_name("$O$v2")
     617                            .dwattr $C$DW$113, DW_AT_TI_symbol_name("$O$v2")
     618                            .dwattr $C$DW$113, DW_AT_type(*$C$DW$T$147)
     619                            .dwattr $C$DW$113, DW_AT_location[DW_OP_reg22]
     620                    $C$DW$114       .dwtag  DW_TAG_variable, DW_AT_name("$O$v2")
     621                            .dwattr $C$DW$114, DW_AT_TI_symbol_name("$O$v2")
     622                            .dwattr $C$DW$114, DW_AT_type(*$C$DW$T$147)
     623                            .dwattr $C$DW$114, DW_AT_location[DW_OP_reg22]
     624 00000010 05000028!            MVKL    .S1     test_cases,A10
     625 00000014 05000068!            MVKH    .S1     test_cases,A10
     626                            .dwpsn  file "./../packages/ti/vlib/src/VLIB_convertUYVYint_to_YUV420pl/VLIB_convertUYVYint_to
     627                    ;----------------------------------------------------------------------
     628                    ;  45 | UYVYint_to_YUV420pl_getTestParams(&prm, &test_cases);                  
     629                    ;----------------------------------------------------------------------
     630 00000018     e636             ADDAW   .D1X    SP,7,A4           ; |45| 
     631                    $C$DW$115       .dwtag  DW_TAG_TI_branch
     632                            .dwattr $C$DW$115, DW_AT_low_pc(0x00)
     633                            .dwattr $C$DW$115, DW_AT_name("UYVYint_to_YUV420pl_getTestParams")
     634                            .dwattr $C$DW$115, DW_AT_TI_call
     635                    
     636 00000020 10000012!            CALLP   .S2     UYVYint_to_YUV420pl_getTestParams,B3
     637 0000001a     9507  ||         MV      .L2X    A10,B4            ; |45| 
     638                    
     639 00000024           $C$RL0:    ; CALL OCCURS {UYVYint_to_YUV420pl_getTestParams} {0}  ; |45| 
     640                    ;** --------------------------------------------------------------------------*
     641                    ;          EXCLUSIVE CPU CYCLES: 8
     642 00000024 0200002a!            MVKL    .S2     $C$SL1+0,B4
     643 00000028 0200006a!            MVKH    .S2     $C$SL1+0,B4
     644                    $C$DW$116       .dwtag  DW_TAG_TI_branch
     645                            .dwattr $C$DW$116, DW_AT_low_pc(0x00)
     646                            .dwattr $C$DW$116, DW_AT_name("VLIB_profile_init")
     647                            .dwattr $C$DW$116, DW_AT_TI_call
     648                    
     649 0000002c 10000013!            CALLP   .S2     VLIB_profile_init,B3
     650 00000030     6626  ||         MVK     .L1     0x3,A4            ; |48| 
     651                    
     652                            .dwpsn  file "./../packages/ti/vlib/src/VLIB_convertUYVYint_to_YUV420pl/VLIB_convertUYVYint_to
     653                    ;----------------------------------------------------------------------
     654                    ;  48 | VLIB_profile_init(3, "VLIB_convertUYVYint_to_YUV420pl");               
     655                    ;----------------------------------------------------------------------
     656 00000032           $C$RL1:    ; CALL OCCURS {VLIB_profile_init} {0}  ; |48| 
     657                    ;** --------------------------------------------------------------------------*
     658                    ;          EXCLUSIVE CPU CYCLES: 13
     659                    
     660 00000032     6506             MV      .L1     A10,A3
TMS320C6x Assembler PC v7.4.2 Thu Mar 19 12:40:28 2015

Tools Copyright (c) 1996-2012 Texas Instruments Incorporated
package/lib/Regression/regress_d_c/./../packages/ti/vlib/src/VLIB_convertUYVYint_to_YUV420pl/VLIB_convertUYVYint_to_YUV420pl_d.se66 PAGE   13

     661 00000034 033ce2e6  ||         LDW     .D2T2   *+SP(28),B6
     662                    
     663                            .dwpsn  file "./../packages/ti/vlib/src/VLIB_convertUYVYint_to_YUV420pl/VLIB_convertUYVYint_to
     664                    ;----------------------------------------------------------------------
     665                    ;  51 | for( tpi=0; tpi < test_cases; tpi++ ) {                                
     666                    ;----------------------------------------------------------------------
     667 00000038 020c0264             LDW     .D1T1   *A3,A4            ; |51| 
     668 00000040 02801028             MVK     .S1     32,A5
     669                            .dwpsn  file "./../packages/ti/vlib/src/VLIB_convertUYVYint_to_YUV420pl/VLIB_convertUYVYint_to
     670                    ;----------------------------------------------------------------------
     671                    ;  54 | int32_t    status_nat_vs_int = vlib_KERNEL_PASS; /* Test status : Natur
     672                    ;     | al c vs. Optimized */                                                  
     673                    ;  55 | int32_t    status_nat_vs_ref = vlib_KERNEL_PASS; /* Test status : Natur
     674                    ;     | al c vs. Static Reference */                                           
     675                    ;  58 | uint32_t    inp_size   =  prm[tpi].pitch * prm[tpi].height * 2;        
     676                    ;  59 | uint32_t    out_luma   =  prm[tpi].width * prm[tpi].height;            
     677                    ;  60 | uint32_t    out_chroma =  prm[tpi].width * prm[tpi].height / 4;        
     678                    ;----------------------------------------------------------------------
     679 00000044 0600a35a             ZERO    .L2     B12               ; |51| 
     680 00000048 0780a358             ZERO    .L1     A15               ; |51| 
     681 0000004c 0594d2f8             SUB     .L1X    B6,A5,A11
     682                    
     683 00000050 00100ad9             CMPGT   .L1     A4,0,A0           ; |51| 
     684 00000054 05801050  ||         ADDK    .S1     32,A11            ; |59| 
     685                    
     686 00000058 d000ae11     [!A0]   B       .S1     $C$L9             ; |51| 
     687 0000005c c52ce264  || [ A0]   LDW     .D1T1   *+A11(28),A10     ; |59| 
     688                    
     689                            .dwpsn  file "./../packages/ti/vlib/src/VLIB_convertUYVYint_to_YUV420pl/VLIB_convertUYVYint_to
     690                    ;----------------------------------------------------------------------
     691                    ;  63 | uint8_t   *yc    = (uint8_t *) VLIB_memalign(8, inp_size);             
     692                    ;----------------------------------------------------------------------
     693 00000060 c22cc266     [ A0]   LDW     .D1T2   *+A11(24),B4      ; |63| 
     694 00000064 0580002a!            MVKL    .S2     testPatternString,B11
     695 00000068 0580006a!            MVKH    .S2     testPatternString,B11
     696 0000006c c220a358     [ A0]   MVK     .L1     0x8,A4            ; |63| 
     697                            .dwpsn  file "./../packages/ti/vlib/src/VLIB_convertUYVYint_to_YUV420pl/VLIB_convertUYVYint_to
     698 00000070 c62ca264     [ A0]   LDW     .D1T1   *+A11(20),A12     ; |59| 
     699                            .dwpsn  file "./../packages/ti/vlib/src/VLIB_convertUYVYint_to_YUV420pl/VLIB_convertUYVYint_to
     700                               ; BRANCHCC OCCURS {$C$L9}         ; |51| 
     701                    ;** --------------------------------------------------------------------------*
     702                    ;**     -----------------------    K$49 = &testPatternString[0];
     703                    ;**     -----------------------    K$56 = 255;
     704                    ;**     -----------------------    K$64 = &cycles[0];
     705                    ;**     -----------------------    K$99 = &desc[0];
     706                    ;**     -----------------------    U$12 = prm-32;
     707                    ;**     -----------------------    U$11 = 0;
     708                    ;** 51  -----------------------    tpi = 0;
     709                    ;**     -----------------------    #pragma LOOP_FLAGS(5120u)
     710                    ;*----------------------------------------------------------------------------*
     711                    ;*   SOFTWARE PIPELINE INFORMATION
     712                    ;*      Disqualified loop: Loop contains a call
     713                    ;*      Disqualified loop: Loop contains non-pipelinable instructions
     714                    ;*      Disqualified loop: Loop contains a call
     715                    ;*      Disqualified loop: Loop contains non-pipelinable instructions
TMS320C6x Assembler PC v7.4.2 Thu Mar 19 12:40:28 2015

Tools Copyright (c) 1996-2012 Texas Instruments Incorporated
package/lib/Regression/regress_d_c/./../packages/ti/vlib/src/VLIB_convertUYVYint_to_YUV420pl/VLIB_convertUYVYint_to_YUV420pl_d.se66 PAGE   14

     716                    ;*      Disqualified loop: Loop contains a call
     717                    ;*      Disqualified loop: Loop contains non-pipelinable instructions
     718                    ;*      Disqualified loop: Loop contains a call
     719                    ;*      Disqualified loop: Loop contains non-pipelinable instructions
     720                    ;*      Disqualified loop: Loop contains a call
     721                    ;*      Disqualified loop: Loop contains non-pipelinable instructions
     722                    ;*      Disqualified loop: Loop contains a call
     723                    ;*      Disqualified loop: Loop contains non-pipelinable instructions
     724                    ;*      Disqualified loop: Loop contains a call
     725                    ;*      Disqualified loop: Loop contains non-pipelinable instructions
     726                    ;*      Disqualified loop: Loop contains control code
     727                    ;*----------------------------------------------------------------------------*
     728 00000074           $C$L1:    
     729                            .dwpsn  file "./../packages/ti/vlib/src/VLIB_convertUYVYint_to_YUV420pl/VLIB_convertUYVYint_to
     730                    $C$DW$L$VLIB_convertUYVYint_to_YUV420pl_d$5$B:
     731                    ;          EXCLUSIVE CPU CYCLES: 6
     732                    ;**     -----------------------g3:
     733                    ;** 59  -----------------------    C$5 = (*(U$12 += 32)).height;
     734                    ;** 59  -----------------------    out_luma = (*U$12).width*C$5;
     735                    ;** 60  -----------------------    out_chroma = out_luma>>2;
     736                    ;** 63  -----------------------    yc = VLIB_memalign(8u, (*U$12).pitch*C$5*2u);
     737                    ;** 64  -----------------------    y = VLIB_memalign(8u, out_luma);
     738                    ;** 65  -----------------------    cr = VLIB_memalign(8u, out_chroma);
     739                    ;** 66  -----------------------    cb = VLIB_memalign(8u, out_chroma);
     740                    ;** 67  -----------------------    y_cn = malloc(out_luma);
     741                    ;** 68  -----------------------    cr_cn = malloc(out_chroma);
     742                    ;** 69  -----------------------    cb_cn = malloc(out_chroma);
     743                    ;** 72  -----------------------    if ( !((yc != NULL)&(y != NULL)&(cr != NULL)&(cb != NULL)&(y_cn != 
     744                    $C$DW$117       .dwtag  DW_TAG_TI_branch
     745                            .dwattr $C$DW$117, DW_AT_low_pc(0x00)
     746                            .dwattr $C$DW$117, DW_AT_name("VLIB_memalign")
     747                            .dwattr $C$DW$117, DW_AT_TI_call
     748                    
     749 00000074 00000011!            CALL    .S1     VLIB_memalign     ; |63| 
     750 00000078 02289802  ||         MPY32   .M2X    A10,B4,B4         ; |63| 
     751                    
     752                            .dwpsn  file "./../packages/ti/vlib/src/VLIB_convertUYVYint_to_YUV420pl/VLIB_convertUYVYint_to
     753 0000007c 01894162             ADDKPC  .S2     $C$RL2,B3,2       ; |63| 
     754 00000080     8241             ADD     .L2     B4,B4,B4          ; |63| 
     755 00000082     0c6e             NOP             1
     756 00000084           $C$RL2:    ; CALL OCCURS {VLIB_memalign} {0}  ; |63| 
     757 00000084           $C$DW$L$VLIB_convertUYVYint_to_YUV420pl_d$5$E:
     758                    ;** --------------------------------------------------------------------------*
     759 00000084           $C$DW$L$VLIB_convertUYVYint_to_YUV420pl_d$6$B:
     760                    ;          EXCLUSIVE CPU CYCLES: 43
     761                            .dwpsn  file "./../packages/ti/vlib/src/VLIB_convertUYVYint_to_YUV420pl/VLIB_convertUYVYint_to
     762 00000084 07314800             MPY32   .M1     A10,A12,A14       ; |59| 
     763                            .dwpsn  file "./../packages/ti/vlib/src/VLIB_convertUYVYint_to_YUV420pl/VLIB_convertUYVYint_to
     764 00000088     ad45             STW     .D2T1   A4,*+SP(36)       ; |63| 
     765                            .dwpsn  file "./../packages/ti/vlib/src/VLIB_convertUYVYint_to_YUV420pl/VLIB_convertUYVYint_to
     766                    ;----------------------------------------------------------------------
     767                    ;  64 | uint8_t   *y     = (uint8_t *) VLIB_memalign(8, out_luma);             
     768                    ;----------------------------------------------------------------------
     769 0000008a     0e26             MVK     .L1     0x8,A4            ; |64| 
     770 0000008c     2c6e             NOP             2
TMS320C6x Assembler PC v7.4.2 Thu Mar 19 12:40:28 2015

Tools Copyright (c) 1996-2012 Texas Instruments Incorporated
package/lib/Regression/regress_d_c/./../packages/ti/vlib/src/VLIB_convertUYVYint_to_YUV420pl/VLIB_convertUYVYint_to_YUV420pl_d.se66 PAGE   15

     771                    $C$DW$118       .dwtag  DW_TAG_TI_branch
     772                            .dwattr $C$DW$118, DW_AT_low_pc(0x00)
     773                            .dwattr $C$DW$118, DW_AT_name("VLIB_memalign")
     774                            .dwattr $C$DW$118, DW_AT_TI_call
     775                    
     776 00000090 10000012!            CALLP   .S2     VLIB_memalign,B3
     777 0000008e     9707  ||         MV      .L2X    A14,B4            ; |64| 
     778                    
     779 00000094           $C$RL3:    ; CALL OCCURS {VLIB_memalign} {0}  ; |64| 
     780                            .dwpsn  file "./../packages/ti/vlib/src/VLIB_convertUYVYint_to_YUV420pl/VLIB_convertUYVYint_to
     781 00000094 06b849a0             SHRU    .S1     A14,2,A13         ; |60| 
     782                            .dwpsn  file "./../packages/ti/vlib/src/VLIB_convertUYVYint_to_YUV420pl/VLIB_convertUYVYint_to
     783 00000098     cd45             STW     .D2T1   A4,*+SP(40)       ; |64| 
     784                    $C$DW$119       .dwtag  DW_TAG_TI_branch
     785                            .dwattr $C$DW$119, DW_AT_low_pc(0x04)
     786                            .dwattr $C$DW$119, DW_AT_name("VLIB_memalign")
     787                            .dwattr $C$DW$119, DW_AT_TI_call
     788                    
     789 0000009a     0e26             MVK     .L1     0x8,A4            ; |65| 
     790 000000a0 10000013! ||         CALLP   .S2     VLIB_memalign,B3
     791 000000a4 02341fda  ||         MV      .L2X    A13,B4            ; |65| 
     792                    
     793                            .dwpsn  file "./../packages/ti/vlib/src/VLIB_convertUYVYint_to_YUV420pl/VLIB_convertUYVYint_to
     794                    ;----------------------------------------------------------------------
     795                    ;  65 | uint8_t   *cr    = (uint8_t *) VLIB_memalign(8, out_chroma);           
     796                    ;----------------------------------------------------------------------
     797                    $C$RL4:    ; CALL OCCURS {VLIB_memalign} {0}  ; |65| 
     798                    $C$DW$120       .dwtag  DW_TAG_TI_branch
     799                            .dwattr $C$DW$120, DW_AT_low_pc(0x00)
     800                            .dwattr $C$DW$120, DW_AT_name("VLIB_memalign")
     801                            .dwattr $C$DW$120, DW_AT_TI_call
     802                    
     803 000000a8 10000013!            CALLP   .S2     VLIB_memalign,B3
     804 000000ac     9687  ||         MV      .L2X    A13,B4            ; |66| 
     805 000000ae     ed45  ||         STW     .D2T1   A4,*+SP(44)       ; |65| 
     806 000000b0 0220a358  ||         MVK     .L1     0x8,A4            ; |66| 
     807                    
     808                            .dwpsn  file "./../packages/ti/vlib/src/VLIB_convertUYVYint_to_YUV420pl/VLIB_convertUYVYint_to
     809                    ;----------------------------------------------------------------------
     810                    ;  66 | uint8_t   *cb    = (uint8_t *) VLIB_memalign(8, out_chroma);           
     811                    ;----------------------------------------------------------------------
     812                    $C$RL5:    ; CALL OCCURS {VLIB_memalign} {0}  ; |66| 
     813                    $C$DW$121       .dwtag  DW_TAG_TI_branch
     814                            .dwattr $C$DW$121, DW_AT_low_pc(0x00)
     815                            .dwattr $C$DW$121, DW_AT_name("malloc")
     816                            .dwattr $C$DW$121, DW_AT_TI_call
     817                    
     818 000000b4 10000013!            CALLP   .S2     malloc,B3
     819 000000b8     8dc5  ||         STW     .D2T1   A4,*+SP(48)       ; |66| 
     820 000000ba     8706  ||         MV      .L1     A14,A4            ; |67| 
     821                    
     822                            .dwpsn  file "./../packages/ti/vlib/src/VLIB_convertUYVYint_to_YUV420pl/VLIB_convertUYVYint_to
     823                    ;----------------------------------------------------------------------
     824                    ;  67 | uint8_t   *y_cn  = (uint8_t *) malloc(out_luma);                       
     825                    ;----------------------------------------------------------------------
TMS320C6x Assembler PC v7.4.2 Thu Mar 19 12:40:28 2015

Tools Copyright (c) 1996-2012 Texas Instruments Incorporated
package/lib/Regression/regress_d_c/./../packages/ti/vlib/src/VLIB_convertUYVYint_to_YUV420pl/VLIB_convertUYVYint_to_YUV420pl_d.se66 PAGE   16

     826                    $C$RL6:    ; CALL OCCURS {malloc} {0}        ; |67| 
     827                    $C$DW$122       .dwtag  DW_TAG_TI_branch
     828                            .dwattr $C$DW$122, DW_AT_low_pc(0x00)
     829                            .dwattr $C$DW$122, DW_AT_name("malloc")
     830                            .dwattr $C$DW$122, DW_AT_TI_call
     831                    
     832 000000c0 10000013!            CALLP   .S2     malloc,B3
     833 000000c4     adc5  ||         STW     .D2T1   A4,*+SP(52)       ; |67| 
     834 000000c6     8686  ||         MV      .L1     A13,A4            ; |68| 
     835                    
     836                            .dwpsn  file "./../packages/ti/vlib/src/VLIB_convertUYVYint_to_YUV420pl/VLIB_convertUYVYint_to
     837                    ;----------------------------------------------------------------------
     838                    ;  68 | uint8_t   *cr_cn = (uint8_t *) malloc(out_chroma);                     
     839                    ;----------------------------------------------------------------------
     840                    $C$RL7:    ; CALL OCCURS {malloc} {0}        ; |68| 
     841                    $C$DW$123       .dwtag  DW_TAG_TI_branch
     842                            .dwattr $C$DW$123, DW_AT_low_pc(0x00)
     843                            .dwattr $C$DW$123, DW_AT_name("malloc")
     844                            .dwattr $C$DW$123, DW_AT_TI_call
     845                    
     846 000000c8 10000013!            CALLP   .S2     malloc,B3
     847 000000cc     cdc5  ||         STW     .D2T1   A4,*+SP(56)       ; |68| 
     848 000000ce     8686  ||         MV      .L1     A13,A4            ; |69| 
     849                    
     850                            .dwpsn  file "./../packages/ti/vlib/src/VLIB_convertUYVYint_to_YUV420pl/VLIB_convertUYVYint_to
     851                    ;----------------------------------------------------------------------
     852                    ;  69 | uint8_t   *cb_cn = (uint8_t *) malloc(out_chroma);                     
     853                    ;----------------------------------------------------------------------
     854 000000d0           $C$RL8:    ; CALL OCCURS {malloc} {0}        ; |69| 
     855 000000d0           $C$DW$L$VLIB_convertUYVYint_to_YUV420pl_d$6$E:
     856                    ;** --------------------------------------------------------------------------*
     857 000000d0           $C$DW$L$VLIB_convertUYVYint_to_YUV420pl_d$7$B:
     858                    ;          EXCLUSIVE CPU CYCLES: 21
     859                    
     860 000000d0     ed2d             LDW     .D2T1   *+SP(44),A2       ; |72| 
     861 000000d2     0627  ||         ZERO    .L2     B4                ; |72| 
     862 000000d4     0313  ||         ZERO    .S2     B6                ; |72| 
     863 000000d6     05a6  ||         ZERO    .L1     A3                ; |72| 
     864                    
     865 000000d8     ad0d             LDW     .D2T1   *+SP(36),A0       ; |72| 
     866 000000da     06a7  ||         ZERO    .L2     B5                ; |72| 
     867                    
     868                            .dwpsn  file "./../packages/ti/vlib/src/VLIB_convertUYVYint_to_YUV420pl/VLIB_convertUYVYint_to
     869                    ;----------------------------------------------------------------------
     870                    ;  72 | if( yc && y && cr && cb && y_cn && cr_cn && cb_cn ) {                  
     871                    ;  74 |     int32_t    fail;                                                   
     872                    ;----------------------------------------------------------------------
     873 000000e0     dd0d             LDW     .D2T2   *+SP(40),B0       ; |72| 
     874 000000e2     bdad             LDW     .D2T2   *+SP(52),B2       ; |72| 
     875 000000e4     8d9d             LDW     .D2T1   *+SP(48),A1       ; |72| 
     876                    
     877 000000e6     edc5             STW     .D2T1   A4,*+SP(60)       ; |69| 
     878 000000e8 a204a35b  || [ A2]   MVK     .L2     0x1,B4            ; |72| 
     879 000000ec     0626  ||         ZERO    .L1     A4                ; |72| 
     880                    
TMS320C6x Assembler PC v7.4.2 Thu Mar 19 12:40:28 2015

Tools Copyright (c) 1996-2012 Texas Instruments Incorporated
package/lib/Regression/regress_d_c/./../packages/ti/vlib/src/VLIB_convertUYVYint_to_YUV420pl/VLIB_convertUYVYint_to_YUV420pl_d.se66 PAGE   17

     881 000000ee     cdad             LDW     .D2T1   *+SP(56),A2       ; |72| 
     882 000000f0     2b67  || [ A0]   MVK     .L2     0x1,B6            ; |72| 
     883                    
     884 000000f2     fd9d             LDW     .D2T2   *+SP(60),B1       ; |72| 
     885 000000f4     aae7  || [ B0]   MVK     .L2     0x1,B5            ; |72| 
     886                    
     887 000000f8 0318af7b             AND     .L2     B5,B6,B6          ; |72| 
     888 000000f6     0293  ||         ZERO    .S2     B5                ; |72| 
     889 00000100 6204a358  || [ B2]   MVK     .L1     0x1,A4            ; |72| 
     890                    
     891 00000104 8284a35b     [ A1]   MVK     .L2     0x1,B5            ; |72| 
     892 00000108 021887e2  ||         AND     .S2     B4,B6,B4          ; |72| 
     893                    
     894 0000010c 0290af7b             AND     .L2     B5,B4,B5          ; |72| 
     895 00000110 0200002a  ||         ZERO    .S2     B4                ; |72| 
     896                    
     897 00000114 a204a35b     [ A2]   MVK     .L2     0x1,B4            ; |72| 
     898 00000118 0290b7e2  ||         AND     .S2X    A4,B5,B5          ; |72| 
     899                    
     900 0000011c 4184a358     [ B1]   MVK     .L1     0x1,A3            ; |72| 
     901 00000120 02148f7a             AND     .L2     B4,B5,B4          ; |72| 
     902 00000124 000c9f7a             AND     .L2X    A3,B4,B0          ; |72| 
     903                    
     904 00000128 30007993     [!B0]   B       .S2     $C$L7             ; |72| 
     905 0000012c 222cc265  || [ B0]   LDW     .D1T1   *+A11(24),A4      ; |77| 
     906 00000130 21807fa8  || [ B0]   MVK     .S1     0xff,A3
     907                    
     908 00000134 228f1809     [ B0]   EXTU    .S1     A3,24,24,A5       ; |77| 
     909 00000138 233d22e5  || [ B0]   LDW     .D2T1   *+SP(36),A6       ; |77| 
     910 0000013c 232c2266  || [ B0]   LDW     .D1T2   *+A11(4),B6       ; |77| 
     911                    
     912                            .dwpsn  file "./../packages/ti/vlib/src/VLIB_convertUYVYint_to_YUV420pl/VLIB_convertUYVYint_to
     913                    ;----------------------------------------------------------------------
     914                    ;  77 | VLIB_fillBuffer(prm[tpi].testPattern,                                  
     915                    ;----------------------------------------------------------------------
     916 00000140 242d4204     [ B0]   LDHU    .D1T1   *+A11(20),A8      ; |77| 
     917 00000144 242dc206     [ B0]   LDHU    .D1T2   *+A11(28),B8      ; |77| 
     918                    $C$DW$124       .dwtag  DW_TAG_TI_branch
     919                            .dwattr $C$DW$124, DW_AT_low_pc(0x00)
     920                            .dwattr $C$DW$124, DW_AT_name("VLIB_fillBuffer")
     921                            .dwattr $C$DW$124, DW_AT_TI_call
     922 00000148 20000010!    [ B0]   CALL    .S1     VLIB_fillBuffer   ; |77| 
     923                    
     924 0000014c 05123009             EXTU    .S1     A4,17,16,A10      ; |77| 
     925 00000150 222c0214  || [ B0]   LDBU    .D1T1   *A11,A4           ; |77| 
     926                    
     927                            .dwpsn  file "./../packages/ti/vlib/src/VLIB_convertUYVYint_to_YUV420pl/VLIB_convertUYVYint_to
     928                               ; BRANCHCC OCCURS {$C$L7}         ; |72| 
     929 00000154           $C$DW$L$VLIB_convertUYVYint_to_YUV420pl_d$7$E:
     930                    ;** --------------------------------------------------------------------------*
     931 00000154           $C$DW$L$VLIB_convertUYVYint_to_YUV420pl_d$8$B:
     932                    ;          EXCLUSIVE CPU CYCLES: 4
     933                    ;** 77  -----------------------    VLIB_fillBuffer((*U$12).testPattern, (unsigned char)K$56, (void *)y
     934                    ;** 137 -----------------------    act_kernel = 0;  // [14]
     935                    ;** 140 -----------------------    VLIB_cache_inval();  // [14]
TMS320C6x Assembler PC v7.4.2 Thu Mar 19 12:40:28 2015

Tools Copyright (c) 1996-2012 Texas Instruments Incorporated
package/lib/Regression/regress_d_c/./../packages/ti/vlib/src/VLIB_convertUYVYint_to_YUV420pl/VLIB_convertUYVYint_to_YUV420pl_d.se66 PAGE   18

     936                    ;** 143 -----------------------    initStack(getSP());  // [14]
     937                    ;** 146 -----------------------    beg_count = _itoll(TSCH, TSCL);  // [14]
     938                    ;** 85  -----------------------    VLIB_convertUYVYint_to_YUV420pl(yc, (*U$12).width, (*U$12).pitch, (
     939                    ;** 153 -----------------------    v$2 = _itoll(TSCH, TSCL);  // [15]
     940                    ;** 153 -----------------------    end_count = v$2;  // [15]
     941                    ;** 156 -----------------------    C$4 = act_kernel;  // [15]
     942                    ;** 156 -----------------------    *((C$4<<3)+K$64) = *((C$4<<3)+K$64)+(v$2-(beg_count+overhead));  //
     943                    ;** 159 -----------------------    setStackDepth();  // [15]
     944                    ;** 137 -----------------------    act_kernel = 1;  // [14]
     945                    ;** 140 -----------------------    VLIB_cache_inval();  // [14]
     946                    ;** 143 -----------------------    initStack(getSP());  // [14]
     947                    ;** 146 -----------------------    beg_count = _itoll(TSCH, TSCL);  // [14]
     948                    ;** 90  -----------------------    VLIB_convertUYVYint_to_YUV420pl_cn(yc, (*U$12).width, (*U$12).pitch
     949                    ;** 153 -----------------------    v$2 = _itoll(TSCH, TSCL);  // [15]
     950                    ;** 153 -----------------------    end_count = v$2;  // [15]
     951                    ;** 156 -----------------------    C$3 = act_kernel;  // [15]
     952                    ;** 156 -----------------------    *((C$3<<3)+K$64) = *((C$3<<3)+K$64)+(v$2-(beg_count+overhead));  //
     953                    ;** 159 -----------------------    setStackDepth();  // [15]
     954                            .dwpsn  file "./../packages/ti/vlib/src/VLIB_convertUYVYint_to_YUV420pl/VLIB_convertUYVYint_to
     955                    ;----------------------------------------------------------------------
     956                    ;  78 | (uint8_t)255,                                                          
     957                    ;  79 | yc, prm[tpi].staticIn,                                                 
     958                    ;  80 | prm[tpi].width, prm[tpi].height, prm[tpi].pitch * 2,                   
     959                    ;  81 | sizeof(uint16_t), testPatternString);                                  
     960                    ;  84 | VLIB_profile_start(vlib_KERNEL_OPT);                                   
     961                    ;  85 | VLIB_convertUYVYint_to_YUV420pl(yc, prm[tpi].width, prm[tpi].pitch, prm
     962                    ;     | [tpi].height, y, cr, cb);                                              
     963                    ;  86 | VLIB_profile_stop();                                                   
     964                    ;  89 | VLIB_profile_start(vlib_KERNEL_CN);                                    
     965                    ;  90 | VLIB_convertUYVYint_to_YUV420pl_cn(yc, prm[tpi].width, prm[tpi].pitch,
     966                    ;     | prm[tpi].height, y_cn, cr_cn, cb_cn);                                  
     967                    ;  91 | VLIB_profile_stop();                                                   
     968                    ;  95 | if( VLIB_compare_mem((void *) y, (void *)y_cn, out_luma) == vlib_KERNEL
     969                    ;     | _FAIL ||                                                               
     970                    ;  96 | VLIB_compare_mem((void *) cr, (void *)cr_cn, out_chroma) == vlib_KERNEL
     971                    ;     | _FAIL ||                                                               
     972                    ;  97 | VLIB_compare_mem((void *) cb, (void *)cb_cn, out_chroma) == vlib_KERNEL
     973                    ;     | _FAIL ) {                                                              
     974                    ;  98 | status_nat_vs_int = vlib_KERNEL_FAIL;                                  
     975                    ;  99 | } else {                                                               
     976                    ; 100 | status_nat_vs_int = vlib_KERNEL_PASS;                                  
     977                    ; 104 | if( prm[tpi].staticOutY != NULL &&                                     
     978                    ; 105 | prm[tpi].staticOutCr != NULL &&                                        
     979                    ; 106 | prm[tpi].staticOutCb != NULL ) {                                       
     980                    ; 108 | if( VLIB_compare_mem((void *) prm[tpi].staticOutY, (void *)y_cn, out_lu
     981                    ;     | ma) == vlib_KERNEL_FAIL ||                                             
     982                    ; 109 | VLIB_compare_mem((void *) prm[tpi].staticOutCr, (void *)cr_cn, out_chro
     983                    ;     | ma) == vlib_KERNEL_FAIL ||                                             
     984                    ; 110 | VLIB_compare_mem((void *) prm[tpi].staticOutCb, (void *)cb_cn, out_chro
     985                    ;     | ma) == vlib_KERNEL_FAIL ) {                                            
     986                    ; 111 | status_nat_vs_ref = vlib_KERNEL_FAIL;                                  
     987                    ; 112 | } else {                                                               
     988                    ; 113 | status_nat_vs_ref = vlib_KERNEL_PASS;                                  
     989                    ; 118 | fail = ((status_nat_vs_int == vlib_KERNEL_FAIL) || (status_nat_vs_ref =
     990                    ;     | = vlib_KERNEL_FAIL)) ? 1 : 0;                                          
TMS320C6x Assembler PC v7.4.2 Thu Mar 19 12:40:28 2015

Tools Copyright (c) 1996-2012 Texas Instruments Incorporated
package/lib/Regression/regress_d_c/./../packages/ti/vlib/src/VLIB_convertUYVYint_to_YUV420pl/VLIB_convertUYVYint_to_YUV420pl_d.se66 PAGE   19

     991                    ; 120 | est_test=1;                                                            
     992                    ; 123 | sprintf(desc, "%s generated input | Opt results compared to NatC result
     993                    ;     | s | width=%d, pitch=%d, height=%d, num_pts=%d",                        
     994                    ; 124 | testPatternString, prm[tpi].width, prm[tpi].pitch, prm[tpi].height, out
     995                    ;     | _luma);                                                                
     996                    ; 125 | VLIB_formula_add_test(out_luma, prm[tpi].height, NULL, fail, desc, NULL
     997                    ;     | );                                                                     
     998                    ; 127 | } else {                                                               
     999                    ; 129 | sprintf(desc, "width=%d, pitch=%d, height=%d, num_pts=%d",             
    1000                    ; 130 | prm[tpi].width, prm[tpi].pitch, prm[tpi].height, out_luma);            
    1001                    ; 131 | VLIB_skip_test(desc);                                                  
    1002                    ; 135 | free(cb_cn);                                                           
    1003                    ; 136 | free(cr_cn);                                                           
    1004                    ; 137 | free(y_cn);                                                            
    1005                    ; 138 | VLIB_align_free(cb);                                                   
    1006                    ; 139 | VLIB_align_free(cr);                                                   
    1007                    ;----------------------------------------------------------------------
    1008 00000154 02141fda             MV      .L2X    A5,B4             ; |77| 
    1009 00000158 0508a35a             MVK     .L2     0x2,B10           ; |77| 
    1010 0000015c 062c1fd8             MV      .L1X    B11,A12           ; |77| 
    1011 00000160 01810162             ADDKPC  .S2     $C$RL9,B3,0       ; |77| 
    1012 00000164           $C$RL9:    ; CALL OCCURS {VLIB_fillBuffer} {0}  ; |77| 
    1013 00000164           $C$DW$L$VLIB_convertUYVYint_to_YUV420pl_d$8$E:
    1014                    ;** --------------------------------------------------------------------------*
    1015 00000164           $C$DW$L$VLIB_convertUYVYint_to_YUV420pl_d$9$B:
    1016                    ;          EXCLUSIVE CPU CYCLES: 114
    1017 00000164 0280002a!            MVKL    .S2     act_kernel,B5
    1018                    
    1019 00000168 0280006b!            MVKH    .S2     act_kernel,B5
    1020 0000016c     0627  ||         ZERO    .L2     B4                ; |137| 
    1021                    
    1022                    $C$DW$125       .dwtag  DW_TAG_TI_branch
    1023                            .dwattr $C$DW$125, DW_AT_low_pc(0x00)
    1024                            .dwattr $C$DW$125, DW_AT_name("VLIB_cache_inval")
    1025                            .dwattr $C$DW$125, DW_AT_TI_call
    1026                    
    1027 00000170 10000012!            CALLP   .S2     VLIB_cache_inval,B3
    1028 0000016e     10c5  ||         STW     .D2T2   B4,*B5            ; |137| 
    1029                    
    1030                            .dwpsn  file ".\..\packages\ti\vlib\src\VLIB_convertUYVYint_to_YUV420pl\..\common\VLIB_profile
    1031                    ;----------------------------------------------------------------------
    1032                    ; 140 | VLIB_align_free(y);                                                    
    1033                    ; 141 | VLIB_align_free(yc);                                                   
    1034                    ;----------------------------------------------------------------------
    1035                    $C$RL10:   ; CALL OCCURS {VLIB_cache_inval} {0}  ; |140| 
    1036                    $C$DW$126       .dwtag  DW_TAG_TI_branch
    1037                            .dwattr $C$DW$126, DW_AT_low_pc(0x00)
    1038                            .dwattr $C$DW$126, DW_AT_name("getSP")
    1039                            .dwattr $C$DW$126, DW_AT_TI_call
    1040 00000174 10000012!            CALLP   .S2     getSP,B3
    1041                            .dwpsn  file ".\..\packages\ti\vlib\src\VLIB_convertUYVYint_to_YUV420pl\..\common\VLIB_profile
    1042                    ;----------------------------------------------------------------------
    1043                    ; 145 | VLIB_profile_cycle_report(vlib_PROFILE_FORMULA_RANGE,                  
    1044                    ;----------------------------------------------------------------------
    1045                    $C$RL11:   ; CALL OCCURS {getSP} {0}         ; |143| 
TMS320C6x Assembler PC v7.4.2 Thu Mar 19 12:40:28 2015

Tools Copyright (c) 1996-2012 Texas Instruments Incorporated
package/lib/Regression/regress_d_c/./../packages/ti/vlib/src/VLIB_convertUYVYint_to_YUV420pl/VLIB_convertUYVYint_to_YUV420pl_d.se66 PAGE   20

    1046                    $C$DW$127       .dwtag  DW_TAG_TI_branch
    1047                            .dwattr $C$DW$127, DW_AT_low_pc(0x00)
    1048                            .dwattr $C$DW$127, DW_AT_name("initStack")
    1049                            .dwattr $C$DW$127, DW_AT_TI_call
    1050 00000178 10000012!            CALLP   .S2     initStack,B3
    1051 00000180           $C$RL12:   ; CALL OCCURS {initStack} {0}     ; |143| 
    1052                            .dwpsn  file ".\..\packages\ti\vlib\src\VLIB_convertUYVYint_to_YUV420pl\..\common\VLIB_profile
    1053                    ;----------------------------------------------------------------------
    1054                    ; 146 | "N = width * height; M = height",                                      
    1055                    ; 147 | "width * height");                                                     
    1056                    ; 150 | VLIB_kernel_memory();                                                  
    1057                    ;----------------------------------------------------------------------
    1058 00000180 022803e2             MVC     .S2     TSCL,B4           ; |146| 
    1059 00000184 02ac03e2             MVC     .S2     TSCH,B5           ; |146| 
    1060                    
    1061 00000188 0300002b!            MVKL    .S2     beg_count,B6
    1062 0000018c 023d22e4  ||         LDW     .D2T1   *+SP(36),A4       ; |85| 
    1063                    
    1064 00000190 0300006b!            MVKH    .S2     beg_count,B6
    1065 00000194 043d62e6  ||         LDW     .D2T2   *+SP(44),B8       ; |85| 
    1066                    
    1067 00000198 021803c7             STDW    .D2T2   B5:B4,*B6         ; |146| 
    1068 0000019c 032cc264  ||         LDW     .D1T1   *+A11(24),A6      ; |85| 
    1069                    
    1070 000001a0 022ca267             LDW     .D1T2   *+A11(20),B4      ; |85| 
    1071 000001a4 043d42e4  ||         LDW     .D2T1   *+SP(40),A8       ; |85| 
    1072                    
    1073                    $C$DW$128       .dwtag  DW_TAG_TI_branch
    1074                            .dwattr $C$DW$128, DW_AT_low_pc(0x00)
    1075                            .dwattr $C$DW$128, DW_AT_name("VLIB_convertUYVYint_to_YUV420pl")
    1076                            .dwattr $C$DW$128, DW_AT_TI_call
    1077                    
    1078 000001a8 10000013!            CALLP   .S2     VLIB_convertUYVYint_to_YUV420pl,B3
    1079 000001ac 032ce267  ||         LDW     .D1T2   *+A11(28),B6      ; |85| 
    1080 000001b0 053d82e4  ||         LDW     .D2T1   *+SP(48),A10      ; |85| 
    1081                    
    1082                            .dwpsn  file "./../packages/ti/vlib/src/VLIB_convertUYVYint_to_YUV420pl/VLIB_convertUYVYint_to
    1083 000001b4           $C$RL13:   ; CALL OCCURS {VLIB_convertUYVYint_to_YUV420pl} {0}  ; |85| 
    1084                            .dwpsn  file ".\..\packages\ti\vlib\src\VLIB_convertUYVYint_to_YUV420pl\..\common\VLIB_profile
    1085                    ;----------------------------------------------------------------------
    1086                    ; 154 | #ifndef __ONESHOTTEST                                                  
    1087                    ;----------------------------------------------------------------------
    1088 000001b4 032803e2             MVC     .S2     TSCL,B6           ; |153| 
    1089 000001b8 022c03e2             MVC     .S2     TSCH,B4           ; |153| 
    1090 000001bc 02000028!            MVKL    .S1     beg_count,A4
    1091 000001c0 01800028!            MVKL    .S1     act_kernel,A3
    1092                    
    1093 000001c4 01800069!            MVKH    .S1     act_kernel,A3
    1094 000001c8 0280002a! ||         MVKL    .S2     overhead,B5
    1095                    
    1096 000001cc 018c0265             LDW     .D1T1   *A3,A3            ; |156| 
    1097 000001d0 0280006b! ||         MVKH    .S2     overhead,B5
    1098 000001d4 02000068! ||         MVKH    .S1     beg_count,A4
    1099                    
    1100 000001d8 03100365             LDDW    .D1T1   *A4,A7:A6         ; |156| 
TMS320C6x Assembler PC v7.4.2 Thu Mar 19 12:40:28 2015

Tools Copyright (c) 1996-2012 Texas Instruments Incorporated
package/lib/Regression/regress_d_c/./../packages/ti/vlib/src/VLIB_convertUYVYint_to_YUV420pl/VLIB_convertUYVYint_to_YUV420pl_d.se66 PAGE   21

    1101 000001dc 041403e6  ||         LDDW    .D2T2   *B5,B9:B8         ; |156| 
    1102                    
    1103 000001e0 0f800028!            MVKL    .S1     cycles,A31
    1104 000001e4 0f800068!            MVKH    .S1     cycles,A31
    1105 000001e8 03900fda             MV      .L2     B4,B7             ; |153| 
    1106                            .dwpsn  file ".\..\packages\ti\vlib\src\VLIB_convertUYVYint_to_YUV420pl\..\common\VLIB_profile
    1107                    ;----------------------------------------------------------------------
    1108                    ; 156 | main() {                                                               
    1109                    ; 157 | if( VLIB_cache_init()) {                                               
    1110                    ; 158 |     VLIB_memError("VLIB_convertUYVYint_to_YUV420pl");                  
    1111                    ;----------------------------------------------------------------------
    1112 000001ec 027c6b64             LDDW    .D1T1   *+A31[A3],A5:A4   ; |156| 
    1113 000001f0 0219157a             ADDU    .L2X    B8,A6,B5:B4       ; |156| 
    1114 000001f4 0424a07a             ADD     .L2     B5,B9,B8          ; |156| 
    1115                    
    1116 000001f8 041d11e3             ADD     .S2X    B8,A7,B8          ; |156| 
    1117 000001fc 0210c5fa  ||         SUBU    .L2     B6,B4,B5:B4       ; |156| 
    1118                    
    1119 00000200 0fa0e0fb             SUB     .L2     B7,B8,B31         ; |156| 
    1120 00000204 0297184a  ||         EXT     .S2     B5,24,24,B5       ; |156| 
    1121                    
    1122 00000208 03109579             ADDU    .L1X    A4,B4,A7:A6       ; |156| 
    1123 0000020c 0217e07b  ||         ADD     .L2     B31,B5,B4         ; |156| 
    1124 00000210 04000028! ||         MVKL    .S1     end_count,A8
    1125                    
    1126 00000218     e2c0             ADD     .L1     A7,A5,A4          ; |156| 
    1127 00000214 04000069! ||         MVKH    .S1     end_count,A8
    1128                    
    1129 0000021a     9270             ADD     .L1X    A4,B4,A7          ; |156| 
    1130 00000220 02000028! ||         MVKL    .S1     cycles,A4
    1131                    
    1132 00000224 02000069!            MVKH    .S1     cycles,A4
    1133 00000228 03200346  ||         STDW    .D1T2   B7:B6,*A8         ; |153| 
    1134                    
    1135                    $C$DW$129       .dwtag  DW_TAG_TI_branch
    1136                            .dwattr $C$DW$129, DW_AT_low_pc(0x00)
    1137                            .dwattr $C$DW$129, DW_AT_name("setStackDepth")
    1138                            .dwattr $C$DW$129, DW_AT_TI_call
    1139                    
    1140 0000022c 10000013!            CALLP   .S2     setStackDepth,B3
    1141 00000230 03106b44  ||         STDW    .D1T1   A7:A6,*+A4[A3]    ; |156| 
    1142                    
    1143                            .dwpsn  file ".\..\packages\ti\vlib\src\VLIB_convertUYVYint_to_YUV420pl\..\common\VLIB_profile
    1144                    ;----------------------------------------------------------------------
    1145                    ; 159 | } else {                                                               
    1146                    ;----------------------------------------------------------------------
    1147 00000234           $C$RL14:   ; CALL OCCURS {setStackDepth} {0}  ; |159| 
    1148 00000234 0280002a!            MVKL    .S2     act_kernel,B5
    1149                    
    1150 00000238 0280006b!            MVKH    .S2     act_kernel,B5
    1151 0000023c 0204a35a  ||         MVK     .L2     1,B4              ; |137| 
    1152                    
    1153                    $C$DW$130       .dwtag  DW_TAG_TI_branch
    1154                            .dwattr $C$DW$130, DW_AT_low_pc(0x00)
    1155                            .dwattr $C$DW$130, DW_AT_name("VLIB_cache_inval")
TMS320C6x Assembler PC v7.4.2 Thu Mar 19 12:40:28 2015

Tools Copyright (c) 1996-2012 Texas Instruments Incorporated
package/lib/Regression/regress_d_c/./../packages/ti/vlib/src/VLIB_convertUYVYint_to_YUV420pl/VLIB_convertUYVYint_to_YUV420pl_d.se66 PAGE   22

    1156                            .dwattr $C$DW$130, DW_AT_TI_call
    1157                    
    1158 00000240 10000013!            CALLP   .S2     VLIB_cache_inval,B3
    1159 00000244 021402f6  ||         STW     .D2T2   B4,*B5            ; |137| 
    1160                    
    1161                            .dwpsn  file ".\..\packages\ti\vlib\src\VLIB_convertUYVYint_to_YUV420pl\..\common\VLIB_profile
    1162                    $C$RL15:   ; CALL OCCURS {VLIB_cache_inval} {0}  ; |140| 
    1163                    $C$DW$131       .dwtag  DW_TAG_TI_branch
    1164                            .dwattr $C$DW$131, DW_AT_low_pc(0x00)
    1165                            .dwattr $C$DW$131, DW_AT_name("getSP")
    1166                            .dwattr $C$DW$131, DW_AT_TI_call
    1167 00000248 10000012!            CALLP   .S2     getSP,B3
    1168                            .dwpsn  file ".\..\packages\ti\vlib\src\VLIB_convertUYVYint_to_YUV420pl\..\common\VLIB_profile
    1169                    $C$RL16:   ; CALL OCCURS {getSP} {0}         ; |143| 
    1170                    $C$DW$132       .dwtag  DW_TAG_TI_branch
    1171                            .dwattr $C$DW$132, DW_AT_low_pc(0x00)
    1172                            .dwattr $C$DW$132, DW_AT_name("initStack")
    1173                            .dwattr $C$DW$132, DW_AT_TI_call
    1174 0000024c 10000012!            CALLP   .S2     initStack,B3
    1175 00000250           $C$RL17:   ; CALL OCCURS {initStack} {0}     ; |143| 
    1176                            .dwpsn  file ".\..\packages\ti\vlib\src\VLIB_convertUYVYint_to_YUV420pl\..\common\VLIB_profile
    1177 00000250 032803e2             MVC     .S2     TSCL,B6           ; |146| 
    1178 00000254 022c03e2             MVC     .S2     TSCH,B4           ; |146| 
    1179                    
    1180 00000258 0280002b!            MVKL    .S2     beg_count,B5
    1181 0000025c 023d22e4  ||         LDW     .D2T1   *+SP(36),A4       ; |90| 
    1182                    
    1183 00000260 0280006b!            MVKH    .S2     beg_count,B5
    1184 00000268     e247  ||         MV      .L2     B4,B7             ; |146| 
    1185 00000264 043dc2e7  ||         LDW     .D2T2   *+SP(56),B8       ; |90| 
    1186                    
    1187 0000026a     10e5             STDW    .D2T2   B7:B6,*B5         ; |146| 
    1188 0000026c 032cc264  ||         LDW     .D1T1   *+A11(24),A6      ; |90| 
    1189                    
    1190 00000270 043da2e5             LDW     .D2T1   *+SP(52),A8       ; |90| 
    1191 00000274 022ca266  ||         LDW     .D1T2   *+A11(20),B4      ; |90| 
    1192                    
    1193                    $C$DW$133       .dwtag  DW_TAG_TI_branch
    1194                            .dwattr $C$DW$133, DW_AT_low_pc(0x00)
    1195                            .dwattr $C$DW$133, DW_AT_name("VLIB_convertUYVYint_to_YUV420pl_cn")
    1196                            .dwattr $C$DW$133, DW_AT_TI_call
    1197                    
    1198 00000278 10000013!            CALLP   .S2     VLIB_convertUYVYint_to_YUV420pl_cn,B3
    1199 00000280 032ce267  ||         LDW     .D1T2   *+A11(28),B6      ; |90| 
    1200 00000284 053de2e4  ||         LDW     .D2T1   *+SP(60),A10      ; |90| 
    1201                    
    1202                            .dwpsn  file "./../packages/ti/vlib/src/VLIB_convertUYVYint_to_YUV420pl/VLIB_convertUYVYint_to
    1203 00000288           $C$RL18:   ; CALL OCCURS {VLIB_convertUYVYint_to_YUV420pl_cn} {0}  ; |90| 
    1204                            .dwpsn  file ".\..\packages\ti\vlib\src\VLIB_convertUYVYint_to_YUV420pl\..\common\VLIB_profile
    1205 00000288 032803e2             MVC     .S2     TSCL,B6           ; |153| 
    1206 0000028c 022c03e2             MVC     .S2     TSCH,B4           ; |153| 
    1207 00000290 0380002a!            MVKL    .S2     beg_count,B7
    1208                    
    1209 00000294 01800029!            MVKL    .S1     act_kernel,A3
    1210 00000298 0280002a! ||         MVKL    .S2     overhead,B5
TMS320C6x Assembler PC v7.4.2 Thu Mar 19 12:40:28 2015

Tools Copyright (c) 1996-2012 Texas Instruments Incorporated
package/lib/Regression/regress_d_c/./../packages/ti/vlib/src/VLIB_convertUYVYint_to_YUV420pl/VLIB_convertUYVYint_to_YUV420pl_d.se66 PAGE   23

    1211                    
    1212 0000029c 01800069!            MVKH    .S1     act_kernel,A3
    1213 000002a0 0380006a! ||         MVKH    .S2     beg_count,B7
    1214                    
    1215 000002a4 018c0265             LDW     .D1T1   *A3,A3            ; |156| 
    1216 000002a8 0280006b! ||         MVKH    .S2     overhead,B5
    1217 000002ac 041c03e6  ||         LDDW    .D2T2   *B7,B9:B8         ; |156| 
    1218                    
    1219                            .dwpsn  file ".\..\packages\ti\vlib\src\VLIB_convertUYVYint_to_YUV420pl\..\common\VLIB_profile
    1220 000002b0 081403e6             LDDW    .D2T2   *B5,B17:B16       ; |156| 
    1221 000002b4 02000028!            MVKL    .S1     cycles,A4
    1222 000002b8 02000068!            MVKH    .S1     cycles,A4
    1223                            .dwpsn  file ".\..\packages\ti\vlib\src\VLIB_convertUYVYint_to_YUV420pl\..\common\VLIB_profile
    1224 000002bc 03900fda             MV      .L2     B4,B7             ; |153| 
    1225                            .dwpsn  file ".\..\packages\ti\vlib\src\VLIB_convertUYVYint_to_YUV420pl\..\common\VLIB_profile
    1226 000002c0 03106b64             LDDW    .D1T1   *+A4[A3],A7:A6    ; |156| 
    1227 000002c4 0222057a             ADDU    .L2     B16,B8,B5:B4      ; |156| 
    1228 000002c8 0844a07a             ADD     .L2     B5,B17,B16        ; |156| 
    1229                    
    1230 000002cc 04a601e3             ADD     .S2     B16,B9,B9         ; |156| 
    1231 000002d0 0210c5fa  ||         SUBU    .L2     B6,B4,B5:B4       ; |156| 
    1232                    
    1233 000002d4 0fa4e0fb             SUB     .L2     B7,B9,B31         ; |156| 
    1234 000002d8 0297184a  ||         EXT     .S2     B5,24,24,B5       ; |156| 
    1235                    
    1236 000002dc 0210d579             ADDU    .L1X    A6,B4,A5:A4       ; |156| 
    1237 000002e0 0217e07a  ||         ADD     .L2     B31,B5,B4         ; |156| 
    1238                    
    1239 000002e4     c246             MV      .L1     A4,A6             ; |156| 
    1240 000002e6     a3ca  ||         ADD     .S1     A5,A7,A4          ; |156| 
    1241                    
    1242 000002f0 03909078             ADD     .L1X    A4,B4,A7          ; |156| 
    1243 000002ec 02000029! ||         MVKL    .S1     cycles,A4
    1244 000002e8 0400002b! ||         MVKL    .S2     end_count,B8
    1245                    
    1246 000002f4 02000069!            MVKH    .S1     cycles,A4
    1247 000002f8 0400006a! ||         MVKH    .S2     end_count,B8
    1248                    
    1249                    $C$DW$134       .dwtag  DW_TAG_TI_branch
    1250                            .dwattr $C$DW$134, DW_AT_low_pc(0x00)
    1251                            .dwattr $C$DW$134, DW_AT_name("setStackDepth")
    1252                            .dwattr $C$DW$134, DW_AT_TI_call
    1253                    
    1254 00000300 10000013!            CALLP   .S2     setStackDepth,B3
    1255 00000308 03106b44  ||         STDW    .D1T1   A7:A6,*+A4[A3]    ; |156| 
    1256 00000304 032003c7  ||         STDW    .D2T2   B7:B6,*B8         ; |153| 
    1257                    
    1258                            .dwpsn  file ".\..\packages\ti\vlib\src\VLIB_convertUYVYint_to_YUV420pl\..\common\VLIB_profile
    1259                    ;----------------------------------------------------------------------
    1260                    ; 160 | VLIB_convertUYVYint_to_YUV420pl_d(0);                                  
    1261                    ; 163 | #endif /* __ONESHOTTEST */                                             
    1262                    ;----------------------------------------------------------------------
    1263 0000030c           $C$RL19:   ; CALL OCCURS {setStackDepth} {0}  ; |159| 
    1264 0000030c           $C$DW$L$VLIB_convertUYVYint_to_YUV420pl_d$9$E:
    1265                    ;** --------------------------------------------------------------------------*
TMS320C6x Assembler PC v7.4.2 Thu Mar 19 12:40:28 2015

Tools Copyright (c) 1996-2012 Texas Instruments Incorporated
package/lib/Regression/regress_d_c/./../packages/ti/vlib/src/VLIB_convertUYVYint_to_YUV420pl/VLIB_convertUYVYint_to_YUV420pl_d.se66 PAGE   24

    1266 0000030c           $C$DW$L$VLIB_convertUYVYint_to_YUV420pl_d$10$B:
    1267                    ;          EXCLUSIVE CPU CYCLES: 7
    1268                    ;** 95  -----------------------    U$73 = out_luma;
    1269                    ;** 55  -----------------------    status_nat_vs_ref = 1;
    1270                    ;** 95  -----------------------    if ( !VLIB_compare_mem((void *)y, (void *)y_cn, U$73) ) goto g8;
    1271                            .dwpsn  file "./../packages/ti/vlib/src/VLIB_convertUYVYint_to_YUV420pl/VLIB_convertUYVYint_to
    1272 0000030c     cd4d             LDW     .D2T1   *+SP(40),A4       ; |95| 
    1273                    $C$DW$135       .dwtag  DW_TAG_TI_branch
    1274                            .dwattr $C$DW$135, DW_AT_low_pc(0x00)
    1275                            .dwattr $C$DW$135, DW_AT_name("VLIB_compare_mem")
    1276                            .dwattr $C$DW$135, DW_AT_TI_call
    1277                    
    1278 00000310 10000013!            CALLP   .S2     VLIB_compare_mem,B3
    1279 0000030e     bdcd  ||         LDW     .D2T2   *+SP(52),B4       ; |95| 
    1280 00000314     c706  ||         MV      .L1     A14,A6            ; |95| 
    1281                    
    1282 00000316           $C$RL20:   ; CALL OCCURS {VLIB_compare_mem} {0}  ; |95| 
    1283 00000316           $C$DW$L$VLIB_convertUYVYint_to_YUV420pl_d$10$E:
    1284                    ;** --------------------------------------------------------------------------*
    1285 00000316           $C$DW$L$VLIB_convertUYVYint_to_YUV420pl_d$11$B:
    1286                    ;          EXCLUSIVE CPU CYCLES: 7
    1287 00000316     0246             MV      .L1     A4,A0             ; |95| 
    1288                    
    1289 00000318 d0001311     [!A0]   B       .S1     $C$L2             ; |95| 
    1290 00000320 c23dc2e6  || [ A0]   LDW     .D2T2   *+SP(56),B4       ; |95| 
    1291                    
    1292                    $C$DW$136       .dwtag  DW_TAG_TI_branch
    1293                            .dwattr $C$DW$136, DW_AT_low_pc(0x00)
    1294                            .dwattr $C$DW$136, DW_AT_name("VLIB_compare_mem")
    1295                            .dwattr $C$DW$136, DW_AT_TI_call
    1296 00000324 c0000010!    [ A0]   CALL    .S1     VLIB_compare_mem  ; |95| 
    1297 00000328 c23d62e4     [ A0]   LDW     .D2T1   *+SP(44),A4       ; |95| 
    1298                            .dwpsn  file "./../packages/ti/vlib/src/VLIB_convertUYVYint_to_YUV420pl/VLIB_convertUYVYint_to
    1299 0000032c 0684a35a             MVK     .L2     0x1,B13           ; |55| 
    1300                            .dwpsn  file "./../packages/ti/vlib/src/VLIB_convertUYVYint_to_YUV420pl/VLIB_convertUYVYint_to
    1301 00000330 d180a358     [!A0]   ZERO    .L1     A3                ; |98| 
    1302 00000334 d1bd02f4     [!A0]   STW     .D2T1   A3,*+SP(32)       ; |98| 
    1303                            .dwpsn  file "./../packages/ti/vlib/src/VLIB_convertUYVYint_to_YUV420pl/VLIB_convertUYVYint_to
    1304                               ; BRANCHCC OCCURS {$C$L2}         ; |95| 
    1305 00000338           $C$DW$L$VLIB_convertUYVYint_to_YUV420pl_d$11$E:
    1306                    ;** --------------------------------------------------------------------------*
    1307 00000338           $C$DW$L$VLIB_convertUYVYint_to_YUV420pl_d$12$B:
    1308                    ;          EXCLUSIVE CPU CYCLES: 1
    1309                    ;** 95  -----------------------    U$74 = out_chroma;
    1310                    ;** 95  -----------------------    if ( !VLIB_compare_mem((void *)cr, (void *)cr_cn, U$74) ) goto g8;
    1311                    
    1312 00000338 03340fd9             MV      .L1     A13,A6            ; |95| 
    1313 0000033c 01880162  ||         ADDKPC  .S2     $C$RL21,B3,0      ; |95| 
    1314                    
    1315 00000340           $C$RL21:   ; CALL OCCURS {VLIB_compare_mem} {0}  ; |95| 
    1316 00000340           $C$DW$L$VLIB_convertUYVYint_to_YUV420pl_d$12$E:
    1317                    ;** --------------------------------------------------------------------------*
    1318 00000340           $C$DW$L$VLIB_convertUYVYint_to_YUV420pl_d$13$B:
    1319                    ;          EXCLUSIVE CPU CYCLES: 7
    1320 00000340     0246             MV      .L1     A4,A0             ; |95| 
TMS320C6x Assembler PC v7.4.2 Thu Mar 19 12:40:28 2015

Tools Copyright (c) 1996-2012 Texas Instruments Incorporated
package/lib/Regression/regress_d_c/./../packages/ti/vlib/src/VLIB_convertUYVYint_to_YUV420pl/VLIB_convertUYVYint_to_YUV420pl_d.se66 PAGE   25

    1321 00000342     0b3a     [!A0]   B       .S1     $C$L2             ; |95| 
    1322                    $C$DW$137       .dwtag  DW_TAG_TI_branch
    1323                            .dwattr $C$DW$137, DW_AT_low_pc(0x00)
    1324                            .dwattr $C$DW$137, DW_AT_name("VLIB_compare_mem")
    1325                            .dwattr $C$DW$137, DW_AT_TI_call
    1326 00000344 c0000010!    [ A0]   CALL    .S1     VLIB_compare_mem  ; |95| 
    1327 00000348 c23d82e4     [ A0]   LDW     .D2T1   *+SP(48),A4       ; |95| 
    1328                            .dwpsn  file "./../packages/ti/vlib/src/VLIB_convertUYVYint_to_YUV420pl/VLIB_convertUYVYint_to
    1329 0000034c d180a358     [!A0]   ZERO    .L1     A3                ; |98| 
    1330 00000350 d1bd02f4     [!A0]   STW     .D2T1   A3,*+SP(32)       ; |98| 
    1331 00000354     0c6e             NOP             1
    1332                            .dwpsn  file "./../packages/ti/vlib/src/VLIB_convertUYVYint_to_YUV420pl/VLIB_convertUYVYint_to
    1333                               ; BRANCHCC OCCURS {$C$L2}         ; |95| 
    1334 00000360           $C$DW$L$VLIB_convertUYVYint_to_YUV420pl_d$13$E:
    1335                    ;** --------------------------------------------------------------------------*
    1336 00000360           $C$DW$L$VLIB_convertUYVYint_to_YUV420pl_d$14$B:
    1337                    ;          EXCLUSIVE CPU CYCLES: 1
    1338                    ;** 95  -----------------------    if ( !VLIB_compare_mem((void *)cb, (void *)cb_cn, U$74) ) goto g8;
    1339                    ;** 54  -----------------------    status_nat_vs_int = 1;
    1340                    ;**     -----------------------    goto g9;
    1341                    
    1342 00000360     c686             MV      .L1     A13,A6            ; |95| 
    1343 00000362     9507  ||         MV      .L2X    A10,B4            ; |95| 
    1344 00000364 01820162  ||         ADDKPC  .S2     $C$RL22,B3,0      ; |95| 
    1345                    
    1346 00000368           $C$RL22:   ; CALL OCCURS {VLIB_compare_mem} {0}  ; |95| 
    1347 00000368           $C$DW$L$VLIB_convertUYVYint_to_YUV420pl_d$14$E:
    1348                    ;** --------------------------------------------------------------------------*
    1349 00000368           $C$DW$L$VLIB_convertUYVYint_to_YUV420pl_d$15$B:
    1350                    ;          EXCLUSIVE CPU CYCLES: 7
    1351 00000368     0246             MV      .L1     A4,A0             ; |95| 
    1352                    
    1353 00000374 c0000992     [ A0]   B       .S2     $C$L3
    1354 0000036c c12c6265  || [ A0]   LDW     .D1T1   *+A11(12),A2      ; |104| 
    1355 00000370 c1b41fd9  || [ A0]   MV      .L1X    B13,A3            ; |95| 
    1356 0000036a     49ee  || [!A0]   ZERO    .S1     A3                ; |98| 
    1357                    
    1358 00000380 00801fda             MV      .L2X    A0,B1             ; guard predicate rewrite
    1359 00000378 d1bd02f5  || [!A0]   STW     .D2T1   A3,*+SP(32)       ; |98| 
    1360                    
    1361 00000384 4180a359     [ B1]   ZERO    .L1     A3                ; |104| 
    1362 00000388 c1bd02f4  || [ A0]   STW     .D2T1   A3,*+SP(32)       ; |54| 
    1363                    
    1364                            .dwpsn  file "./../packages/ti/vlib/src/VLIB_convertUYVYint_to_YUV420pl/VLIB_convertUYVYint_to
    1365 0000038c c02c4264     [ A0]   LDW     .D1T1   *+A11(8),A0       ; |104| 
    1366 00000390 40ac8264     [ B1]   LDW     .D1T1   *+A11(16),A1      ; |104| 
    1367 00000394 4200a358     [ B1]   ZERO    .L1     A4                ; |104| 
    1368                               ; BRANCHCC OCCURS {$C$L3}  
    1369 00000398           $C$DW$L$VLIB_convertUYVYint_to_YUV420pl_d$15$E:
    1370                    ;** --------------------------------------------------------------------------*
    1371 00000398           $C$L2:    
    1372                            .dwpsn  file "./../packages/ti/vlib/src/VLIB_convertUYVYint_to_YUV420pl/VLIB_convertUYVYint_to
    1373 00000398           $C$DW$L$VLIB_convertUYVYint_to_YUV420pl_d$16$B:
    1374                    ;          EXCLUSIVE CPU CYCLES: 5
    1375                    ;**     -----------------------g8:
TMS320C6x Assembler PC v7.4.2 Thu Mar 19 12:40:28 2015

Tools Copyright (c) 1996-2012 Texas Instruments Incorporated
package/lib/Regression/regress_d_c/./../packages/ti/vlib/src/VLIB_convertUYVYint_to_YUV420pl/VLIB_convertUYVYint_to_YUV420pl_d.se66 PAGE   26

    1376                    ;** 98  -----------------------    status_nat_vs_int = 0;
    1377                            .dwpsn  file "./../packages/ti/vlib/src/VLIB_convertUYVYint_to_YUV420pl/VLIB_convertUYVYint_to
    1378 00000398 012c6264             LDW     .D1T1   *+A11(12),A2      ; |104| 
    1379 0000039c 0200a358             ZERO    .L1     A4                ; |104| 
    1380 000003a0 002c4264             LDW     .D1T1   *+A11(8),A0       ; |104| 
    1381 000003a4 00ac8264             LDW     .D1T1   *+A11(16),A1      ; |104| 
    1382 000003a8 0180a358             ZERO    .L1     A3                ; |104| 
    1383 000003ac           $C$DW$L$VLIB_convertUYVYint_to_YUV420pl_d$16$E:
    1384                    ;** --------------------------------------------------------------------------*
    1385 000003ac           $C$L3:    
    1386 000003ac           $C$DW$L$VLIB_convertUYVYint_to_YUV420pl_d$17$B:
    1387                    ;          EXCLUSIVE CPU CYCLES: 12
    1388                    ;**     -----------------------g9:
    1389                    ;** 104 -----------------------    v$1 = prm;
    1390                    ;** 104 -----------------------    C$2 = (*U$12).staticOutY;
    1391                    ;** 104 -----------------------    if ( !((C$2 != NULL)&((*U$12).staticOutCr != NULL)&((*U$12).staticO
    1392                    
    1393 000003ac a1b41fd9     [ A2]   MV      .L1X    B13,A3            ; |104| 
    1394 000003b0 0200a35a  ||         ZERO    .L2     B4                ; |104| 
    1395                    
    1396 000003b4 053ce2e6             LDW     .D2T2   *+SP(28),B10      ; |104| 
    1397 000003b8 c2341fd8     [ A0]   MV      .L1X    B13,A4            ; |104| 
    1398 000003bc 01906f78             AND     .L1     A3,A4,A3          ; |104| 
    1399 000003c0 82340fda     [ A1]   MV      .L2     B13,B4            ; |104| 
    1400 000003c4     9589             AND     .L2X    B4,A3,B0          ; |104| 
    1401                    
    1402 000003d4 3231407a     [!B0]   ADD     .L2     B10,B12,B4        ; |123| 
    1403 000003c8 30001a13  || [!B0]   B       .S2     $C$L6             ; |104| 
    1404 000003cc 223da2e7  || [ B0]   LDW     .D2T2   *+SP(52),B4       ; |108| 
    1405 000003d0 31800029! || [!B0]   MVKL    .S1     est_test,A3
    1406 000003c6     ea66  || [!B0]   MVK     .L1     1,A4              ; |120| 
    1407                    
    1408                    $C$DW$138       .dwtag  DW_TAG_TI_branch
    1409                            .dwattr $C$DW$138, DW_AT_low_pc(0x00)
    1410                            .dwattr $C$DW$138, DW_AT_name("VLIB_compare_mem")
    1411                            .dwattr $C$DW$138, DW_AT_TI_call
    1412                    
    1413 000003d8 20000013!    [ B0]   CALL    .S2     VLIB_compare_mem  ; |108| 
    1414 000003e0 3290e2e7  || [!B0]   LDW     .D2T2   *+B4(28),B5       ; |123| 
    1415 000003e4 31800068! || [!B0]   MVKH    .S1     est_test,A3
    1416                    
    1417 000003e8 320c0275     [!B0]   STW     .D1T1   A4,*A3            ; |120| 
    1418 000003ec 32000029! || [!B0]   MVKL    .S1     desc,A4
    1419 000003f0 3310c2e6  || [!B0]   LDW     .D2T2   *+B4(24),B6       ; |123| 
    1420                    
    1421 000003f4 3380002a!    [!B0]   MVKL    .S2     $C$SL2+0,B7
    1422 000003f8 3380006a!    [!B0]   MVKH    .S2     $C$SL2+0,B7
    1423                            .dwpsn  file "./../packages/ti/vlib/src/VLIB_convertUYVYint_to_YUV420pl/VLIB_convertUYVYint_to
    1424 000003fc 3210a2e6     [!B0]   LDW     .D2T2   *+B4(20),B4       ; |123| 
    1425                            .dwpsn  file "./../packages/ti/vlib/src/VLIB_convertUYVYint_to_YUV420pl/VLIB_convertUYVYint_to
    1426                               ; BRANCHCC OCCURS {$C$L6}         ; |104| 
    1427 00000400           $C$DW$L$VLIB_convertUYVYint_to_YUV420pl_d$17$E:
    1428                    ;** --------------------------------------------------------------------------*
    1429 00000400           $C$DW$L$VLIB_convertUYVYint_to_YUV420pl_d$18$B:
    1430                    ;          EXCLUSIVE CPU CYCLES: 1
TMS320C6x Assembler PC v7.4.2 Thu Mar 19 12:40:28 2015

Tools Copyright (c) 1996-2012 Texas Instruments Incorporated
package/lib/Regression/regress_d_c/./../packages/ti/vlib/src/VLIB_convertUYVYint_to_YUV420pl/VLIB_convertUYVYint_to_YUV420pl_d.se66 PAGE   27

    1431                    ;** 108 -----------------------    if ( !VLIB_compare_mem((void *)C$2, (void *)y_cn, U$73) ) goto g14;
    1432                    
    1433 00000400     c706             MV      .L1     A14,A6            ; |108| 
    1434 00000402     804e  ||         MV      .S1     A0,A4             ; |108| 
    1435 00000404 01820162  ||         ADDKPC  .S2     $C$RL23,B3,0      ; |108| 
    1436                    
    1437                            .dwpsn  file "./../packages/ti/vlib/src/VLIB_convertUYVYint_to_YUV420pl/VLIB_convertUYVYint_to
    1438 00000408           $C$RL23:   ; CALL OCCURS {VLIB_compare_mem} {0}  ; |108| 
    1439 00000408           $C$DW$L$VLIB_convertUYVYint_to_YUV420pl_d$18$E:
    1440                    ;** --------------------------------------------------------------------------*
    1441 00000408           $C$DW$L$VLIB_convertUYVYint_to_YUV420pl_d$19$B:
    1442                    ;          EXCLUSIVE CPU CYCLES: 7
    1443 00000408     0246             MV      .L1     A4,A0             ; |108| 
    1444                    
    1445 0000040c c22c6264     [ A0]   LDW     .D1T1   *+A11(12),A4      ; |108| 
    1446 0000040a     0cba  || [!A0]   B       .S1     $C$L4             ; |108| 
    1447                    
    1448                    $C$DW$139       .dwtag  DW_TAG_TI_branch
    1449                            .dwattr $C$DW$139, DW_AT_low_pc(0x00)
    1450                            .dwattr $C$DW$139, DW_AT_name("VLIB_compare_mem")
    1451                            .dwattr $C$DW$139, DW_AT_TI_call
    1452                    
    1453 00000410 c0000011!    [ A0]   CALL    .S1     VLIB_compare_mem  ; |108| 
    1454 00000414 d53ce2e6  || [!A0]   LDW     .D2T2   *+SP(28),B10      ; |112| 
    1455                    
    1456 00000418 c23dc2e6     [ A0]   LDW     .D2T2   *+SP(56),B4       ; |108| 
    1457                            .dwpsn  file "./../packages/ti/vlib/src/VLIB_convertUYVYint_to_YUV420pl/VLIB_convertUYVYint_to
    1458 00000420 d680a35a     [!A0]   ZERO    .L2     B13               ; |111| 
    1459 00000424     2c6e             NOP             2
    1460                            .dwpsn  file "./../packages/ti/vlib/src/VLIB_convertUYVYint_to_YUV420pl/VLIB_convertUYVYint_to
    1461                               ; BRANCHCC OCCURS {$C$L4}         ; |108| 
    1462 00000426           $C$DW$L$VLIB_convertUYVYint_to_YUV420pl_d$19$E:
    1463                    ;** --------------------------------------------------------------------------*
    1464 00000426           $C$DW$L$VLIB_convertUYVYint_to_YUV420pl_d$20$B:
    1465                    ;          EXCLUSIVE CPU CYCLES: 1
    1466                    ;** 108 -----------------------    if ( !VLIB_compare_mem((*U$12).staticOutCr, (void *)cr_cn, (int)out
    1467                    
    1468 00000426     c686             MV      .L1     A13,A6            ; |108| 
    1469 00000428 01830162  ||         ADDKPC  .S2     $C$RL24,B3,0      ; |108| 
    1470                    
    1471 0000042c           $C$RL24:   ; CALL OCCURS {VLIB_compare_mem} {0}  ; |108| 
    1472 0000042c           $C$DW$L$VLIB_convertUYVYint_to_YUV420pl_d$20$E:
    1473                    ;** --------------------------------------------------------------------------*
    1474 0000042c           $C$DW$L$VLIB_convertUYVYint_to_YUV420pl_d$21$B:
    1475                    ;          EXCLUSIVE CPU CYCLES: 7
    1476 0000042c     0246             MV      .L1     A4,A0             ; |108| 
    1477                    
    1478 0000042e     08ba     [!A0]   B       .S1     $C$L4             ; |108| 
    1479 00000430 d53ce2e6  || [!A0]   LDW     .D2T2   *+SP(28),B10      ; |112| 
    1480                    
    1481                    $C$DW$140       .dwtag  DW_TAG_TI_branch
    1482                            .dwattr $C$DW$140, DW_AT_low_pc(0x00)
    1483                            .dwattr $C$DW$140, DW_AT_name("VLIB_compare_mem")
    1484                            .dwattr $C$DW$140, DW_AT_TI_call
    1485 00000434 c0000010!    [ A0]   CALL    .S1     VLIB_compare_mem  ; |108| 
TMS320C6x Assembler PC v7.4.2 Thu Mar 19 12:40:28 2015

Tools Copyright (c) 1996-2012 Texas Instruments Incorporated
package/lib/Regression/regress_d_c/./../packages/ti/vlib/src/VLIB_convertUYVYint_to_YUV420pl/VLIB_convertUYVYint_to_YUV420pl_d.se66 PAGE   28

    1486 00000438 c22c8264     [ A0]   LDW     .D1T1   *+A11(16),A4      ; |108| 
    1487                            .dwpsn  file "./../packages/ti/vlib/src/VLIB_convertUYVYint_to_YUV420pl/VLIB_convertUYVYint_to
    1488 00000440 d680a35a     [!A0]   ZERO    .L2     B13               ; |111| 
    1489 00000444     2c6e             NOP             2
    1490                            .dwpsn  file "./../packages/ti/vlib/src/VLIB_convertUYVYint_to_YUV420pl/VLIB_convertUYVYint_to
    1491                               ; BRANCHCC OCCURS {$C$L4}         ; |108| 
    1492 00000446           $C$DW$L$VLIB_convertUYVYint_to_YUV420pl_d$21$E:
    1493                    ;** --------------------------------------------------------------------------*
    1494 00000446           $C$DW$L$VLIB_convertUYVYint_to_YUV420pl_d$22$B:
    1495                    ;          EXCLUSIVE CPU CYCLES: 1
    1496                    ;** 108 -----------------------    if ( !VLIB_compare_mem((*U$12).staticOutCb, (void *)cb_cn, (int)out
    1497                    ;** 113 -----------------------    status_nat_vs_ref = 1;
    1498                    ;** 113 -----------------------    goto g15;
    1499                    
    1500 00000446     c686             MV      .L1     A13,A6            ; |108| 
    1501 0000044c 02281fda  ||         MV      .L2X    A10,B4            ; |108| 
    1502 00000448 01840163  ||         ADDKPC  .S2     $C$RL25,B3,0      ; |108| 
    1503                    
    1504 00000450           $C$RL25:   ; CALL OCCURS {VLIB_compare_mem} {0}  ; |108| 
    1505 00000450           $C$DW$L$VLIB_convertUYVYint_to_YUV420pl_d$22$E:
    1506                    ;** --------------------------------------------------------------------------*
    1507 00000450           $C$DW$L$VLIB_convertUYVYint_to_YUV420pl_d$23$B:
    1508                    ;          EXCLUSIVE CPU CYCLES: 7
    1509 00000450     0246             MV      .L1     A4,A0             ; |108| 
    1510                    
    1511 00000452     852a     [ A0]   BNOP    .S1     $C$L5,4           ; |113| 
    1512 00000454 d53ce2e7  || [!A0]   LDW     .D2T2   *+SP(28),B10      ; |112| 
    1513 00000458 d680a35a  || [!A0]   ZERO    .L2     B13               ; |111| 
    1514                    
    1515                            .dwpsn  file "./../packages/ti/vlib/src/VLIB_convertUYVYint_to_YUV420pl/VLIB_convertUYVYint_to
    1516 00000460 0231407a             ADD     .L2     B10,B12,B4        ; |123| 
    1517                            .dwpsn  file "./../packages/ti/vlib/src/VLIB_convertUYVYint_to_YUV420pl/VLIB_convertUYVYint_to
    1518                               ; BRANCHCC OCCURS {$C$L5}         ; |113| 
    1519 00000464           $C$DW$L$VLIB_convertUYVYint_to_YUV420pl_d$23$E:
    1520                    ;** --------------------------------------------------------------------------*
    1521 00000464           $C$L4:    
    1522                            .dwpsn  file "./../packages/ti/vlib/src/VLIB_convertUYVYint_to_YUV420pl/VLIB_convertUYVYint_to
    1523 00000464           $C$DW$L$VLIB_convertUYVYint_to_YUV420pl_d$24$B:
    1524                    ;          EXCLUSIVE CPU CYCLES: 1
    1525                    ;**     -----------------------g14:
    1526                    ;** 112 -----------------------    v$1 = prm;
    1527                    ;** 111 -----------------------    status_nat_vs_ref = 0;
    1528                            .dwpsn  file "./../packages/ti/vlib/src/VLIB_convertUYVYint_to_YUV420pl/VLIB_convertUYVYint_to
    1529 00000464 0231407a             ADD     .L2     B10,B12,B4        ; |123| 
    1530 00000468           $C$DW$L$VLIB_convertUYVYint_to_YUV420pl_d$24$E:
    1531                    ;** --------------------------------------------------------------------------*
    1532 00000468           $C$L5:    
    1533 00000468           $C$DW$L$VLIB_convertUYVYint_to_YUV420pl_d$25$B:
    1534                    ;          EXCLUSIVE CPU CYCLES: 5
    1535                    
    1536 00000468     f05d             LDW     .D2T2   *+B4(28),B5       ; |123| 
    1537 0000046c 01800029! ||         MVKL    .S1     est_test,A3
    1538 0000046a     2626  ||         MVK     .L1     1,A4              ; |120| 
    1539 00000470 0380002a! ||         MVKL    .S2     $C$SL2+0,B7
    1540                    
TMS320C6x Assembler PC v7.4.2 Thu Mar 19 12:40:28 2015

Tools Copyright (c) 1996-2012 Texas Instruments Incorporated
package/lib/Regression/regress_d_c/./../packages/ti/vlib/src/VLIB_convertUYVYint_to_YUV420pl/VLIB_convertUYVYint_to_YUV420pl_d.se66 PAGE   29

    1541 00000474 01800069!            MVKH    .S1     est_test,A3
    1542 00000478 0380006b! ||         MVKH    .S2     $C$SL2+0,B7
    1543 00000480 0310c2e6  ||         LDW     .D2T2   *+B4(24),B6       ; |123| 
    1544                    
    1545                            .dwpsn  file "./../packages/ti/vlib/src/VLIB_convertUYVYint_to_YUV420pl/VLIB_convertUYVYint_to
    1546 00000484 020c0274             STW     .D1T1   A4,*A3            ; |120| 
    1547                            .dwpsn  file "./../packages/ti/vlib/src/VLIB_convertUYVYint_to_YUV420pl/VLIB_convertUYVYint_to
    1548 00000488 0210a2e6             LDW     .D2T2   *+B4(20),B4       ; |123| 
    1549 0000048c 02000028!            MVKL    .S1     desc,A4
    1550 00000490           $C$DW$L$VLIB_convertUYVYint_to_YUV420pl_d$25$E:
    1551                    ;** --------------------------------------------------------------------------*
    1552 00000490           $C$L6:    
    1553                            .dwpsn  file "./../packages/ti/vlib/src/VLIB_convertUYVYint_to_YUV420pl/VLIB_convertUYVYint_to
    1554                    $C$DW$L$VLIB_convertUYVYint_to_YUV420pl_d$26$B:
    1555                    ;          EXCLUSIVE CPU CYCLES: 6
    1556                    ;**     -----------------------g15:
    1557                    ;** 120 -----------------------    est_test = 1;
    1558                    ;** 123 -----------------------    C$1 = U$11+v$1;
    1559                    ;** 123 -----------------------    sprintf(K$99, (const char *)"%s generated input | Opt results compa
    1560                    ;** 125 -----------------------    VLIB_formula_add_test(U$73, (int)(*U$12).height, 0, (status_nat_vs_
    1561                    ;** 127 -----------------------    goto g17;
    1562                    $C$DW$141       .dwtag  DW_TAG_TI_branch
    1563                            .dwattr $C$DW$141, DW_AT_low_pc(0x00)
    1564                            .dwattr $C$DW$141, DW_AT_name("sprintf")
    1565                            .dwattr $C$DW$141, DW_AT_TI_call
    1566                    
    1567 00000490 00000011!            CALL    .S1     sprintf           ; |123| 
    1568 00000494     bcd5  ||         STW     .D2T2   B5,*+SP(20)       ; |123| 
    1569                    
    1570                            .dwpsn  file "./../packages/ti/vlib/src/VLIB_convertUYVYint_to_YUV420pl/VLIB_convertUYVYint_to
    1571 00000496     bc75             STW     .D2T2   B7,*+SP(4)        ; |123| 
    1572 00000498 073cc2f4             STW     .D2T1   A14,*+SP(24)      ; |123| 
    1573 000004a0 05bc42f6             STW     .D2T2   B11,*+SP(8)       ; |123| 
    1574 000004a4     9ce5             STW     .D2T2   B6,*+SP(16)       ; |123| 
    1575                    
    1576 000004a6     fc45             STW     .D2T2   B4,*+SP(12)       ; |123| 
    1577 000004a8 01840163  ||         ADDKPC  .S2     $C$RL26,B3,0      ; |123| 
    1578 000004ac 02000068! ||         MVKH    .S1     desc,A4
    1579                    
    1580 000004b0           $C$RL26:   ; CALL OCCURS {sprintf} {0}       ; |123| 
    1581 000004b0           $C$DW$L$VLIB_convertUYVYint_to_YUV420pl_d$26$E:
    1582                    ;** --------------------------------------------------------------------------*
    1583 000004b0           $C$DW$L$VLIB_convertUYVYint_to_YUV420pl_d$27$B:
    1584                    ;          EXCLUSIVE CPU CYCLES: 13
    1585 000004b0 01bd02e4             LDW     .D2T1   *+SP(32),A3       ; |123| 
    1586                            .dwpsn  file "./../packages/ti/vlib/src/VLIB_convertUYVYint_to_YUV420pl/VLIB_convertUYVYint_to
    1587 000004b4 02340a5a             CMPEQ   .L2     B13,0,B4          ; |125| 
    1588 000004b8 04000028!            MVKL    .S1     desc,A8
    1589 000004c0 02380fd8             MV      .L1     A14,A4            ; |125| 
    1590 000004c4 04000068!            MVKH    .S1     desc,A8
    1591 000004c8 018c0a58             CMPEQ   .L1     A3,0,A3           ; |125| 
    1592 000004cc 0300a358             ZERO    .L1     A6                ; |125| 
    1593                    $C$DW$142       .dwtag  DW_TAG_TI_branch
    1594                            .dwattr $C$DW$142, DW_AT_low_pc(0x04)
    1595                            .dwattr $C$DW$142, DW_AT_name("VLIB_formula_add_test")
TMS320C6x Assembler PC v7.4.2 Thu Mar 19 12:40:28 2015

Tools Copyright (c) 1996-2012 Texas Instruments Incorporated
package/lib/Regression/regress_d_c/./../packages/ti/vlib/src/VLIB_convertUYVYint_to_YUV420pl/VLIB_convertUYVYint_to_YUV420pl_d.se66 PAGE   30

    1596                            .dwattr $C$DW$142, DW_AT_TI_call
    1597                    
    1598 000004d0 0400a35b             ZERO    .L2     B8                ; |125| 
    1599 000004d4 10000013! ||         CALLP   .S2     VLIB_formula_add_test,B3
    1600 000004d8 030c98b3  ||         OR      .D2X    B4,A3,B6          ; |125| 
    1601 000004dc 022ce266  ||         LDW     .D1T2   *+A11(28),B4      ; |125| 
    1602                    
    1603 000004e0           $C$RL27:   ; CALL OCCURS {VLIB_formula_add_test} {0}  ; |125| 
    1604 000004e0           $C$DW$L$VLIB_convertUYVYint_to_YUV420pl_d$27$E:
    1605                    ;** --------------------------------------------------------------------------*
    1606 000004e0           $C$DW$L$VLIB_convertUYVYint_to_YUV420pl_d$28$B:
    1607                    ;          EXCLUSIVE CPU CYCLES: 6
    1608                            .dwpsn  file "./../packages/ti/vlib/src/VLIB_convertUYVYint_to_YUV420pl/VLIB_convertUYVYint_to
    1609 000004e0 00000c10             B       .S1     $C$L8             ; |127| 
    1610                            .dwpsn  file "./../packages/ti/vlib/src/VLIB_convertUYVYint_to_YUV420pl/VLIB_convertUYVYint_to
    1611                    $C$DW$143       .dwtag  DW_TAG_TI_branch
    1612                            .dwattr $C$DW$143, DW_AT_low_pc(0x00)
    1613                            .dwattr $C$DW$143, DW_AT_name("free")
    1614                            .dwattr $C$DW$143, DW_AT_TI_call
    1615 000004e4 00000010!            CALL    .S1     free              ; |135| 
    1616 000004e8     edcd             LDW     .D2T1   *+SP(60),A4       ; |135| 
    1617 000004ea     4c6e             NOP             3
    1618                            .dwpsn  file "./../packages/ti/vlib/src/VLIB_convertUYVYint_to_YUV420pl/VLIB_convertUYVYint_to
    1619                               ; BRANCH OCCURS {$C$L8}           ; |127| 
    1620 000004ec           $C$DW$L$VLIB_convertUYVYint_to_YUV420pl_d$28$E:
    1621                    ;** --------------------------------------------------------------------------*
    1622 000004ec           $C$L7:    
    1623                            .dwpsn  file "./../packages/ti/vlib/src/VLIB_convertUYVYint_to_YUV420pl/VLIB_convertUYVYint_to
    1624 000004ec           $C$DW$L$VLIB_convertUYVYint_to_YUV420pl_d$29$B:
    1625                    ;          EXCLUSIVE CPU CYCLES: 8
    1626                    ;**     -----------------------g16:
    1627                    ;** 129 -----------------------    sprintf(K$99, (const char *)"width=%d, pitch=%d, height=%d, num_pts
    1628                    ;** 131 -----------------------    VLIB_skip_test(K$99);
    1629                    
    1630 000004ec 022cc265             LDW     .D1T1   *+A11(24),A4      ; |129| 
    1631 000004f0 0200002a! ||         MVKL    .S2     $C$SL3+0,B4
    1632                    
    1633 000004f4 02aca265             LDW     .D1T1   *+A11(20),A5      ; |129| 
    1634 000004f8 0200006a! ||         MVKH    .S2     $C$SL3+0,B4
    1635                    
    1636                    $C$DW$144       .dwtag  DW_TAG_TI_branch
    1637                            .dwattr $C$DW$144, DW_AT_low_pc(0x00)
    1638                            .dwattr $C$DW$144, DW_AT_name("sprintf")
    1639                            .dwattr $C$DW$144, DW_AT_TI_call
    1640                    
    1641 00000500 00000011!            CALL    .S1     sprintf           ; |129| 
    1642 00000504 01ace264  ||         LDW     .D1T1   *+A11(28),A3      ; |129| 
    1643                    
    1644                            .dwpsn  file "./../packages/ti/vlib/src/VLIB_convertUYVYint_to_YUV420pl/VLIB_convertUYVYint_to
    1645 00000508 023c22f6             STW     .D2T2   B4,*+SP(4)        ; |129| 
    1646 0000050c 073ca2f4             STW     .D2T1   A14,*+SP(20)      ; |129| 
    1647                    
    1648 00000514     ec45             STW     .D2T1   A4,*+SP(12)       ; |129| 
    1649 00000510 02000029! ||         MVKL    .S1     desc,A4
    1650                    
TMS320C6x Assembler PC v7.4.2 Thu Mar 19 12:40:28 2015

Tools Copyright (c) 1996-2012 Texas Instruments Incorporated
package/lib/Regression/regress_d_c/./../packages/ti/vlib/src/VLIB_convertUYVYint_to_YUV420pl/VLIB_convertUYVYint_to_YUV420pl_d.se66 PAGE   31

    1651 00000518 02000068!            MVKH    .S1     desc,A4
    1652 00000516     cc55  ||         STW     .D2T1   A5,*+SP(8)        ; |129| 
    1653                    
    1654 00000524 01bc82f4             STW     .D2T1   A3,*+SP(16)       ; |129| 
    1655 00000520 01820163  ||         ADDKPC  .S2     $C$RL28,B3,0      ; |129| 
    1656                    
    1657 00000528           $C$RL28:   ; CALL OCCURS {sprintf} {0}       ; |129| 
    1658 00000528           $C$DW$L$VLIB_convertUYVYint_to_YUV420pl_d$29$E:
    1659                    ;** --------------------------------------------------------------------------*
    1660 00000528           $C$DW$L$VLIB_convertUYVYint_to_YUV420pl_d$30$B:
    1661                    ;          EXCLUSIVE CPU CYCLES: 12
    1662 00000528 02000028!            MVKL    .S1     desc,A4
    1663                    $C$DW$145       .dwtag  DW_TAG_TI_branch
    1664                            .dwattr $C$DW$145, DW_AT_low_pc(0x00)
    1665                            .dwattr $C$DW$145, DW_AT_name("VLIB_skip_test")
    1666                            .dwattr $C$DW$145, DW_AT_TI_call
    1667                    
    1668 0000052c 10000013!            CALLP   .S2     VLIB_skip_test,B3
    1669 00000530 02000068! ||         MVKH    .S1     desc,A4
    1670                    
    1671                            .dwpsn  file "./../packages/ti/vlib/src/VLIB_convertUYVYint_to_YUV420pl/VLIB_convertUYVYint_to
    1672 00000534           $C$RL29:   ; CALL OCCURS {VLIB_skip_test} {0}  ; |131| 
    1673                            .dwpsn  file "./../packages/ti/vlib/src/VLIB_convertUYVYint_to_YUV420pl/VLIB_convertUYVYint_to
    1674                    $C$DW$146       .dwtag  DW_TAG_TI_branch
    1675                            .dwattr $C$DW$146, DW_AT_low_pc(0x00)
    1676                            .dwattr $C$DW$146, DW_AT_name("free")
    1677                            .dwattr $C$DW$146, DW_AT_TI_call
    1678 00000534 00000010!            CALL    .S1     free              ; |135| 
    1679 00000538     edcd             LDW     .D2T1   *+SP(60),A4       ; |135| 
    1680 0000053a     4c6e             NOP             3
    1681 00000540           $C$DW$L$VLIB_convertUYVYint_to_YUV420pl_d$30$E:
    1682                    ;** --------------------------------------------------------------------------*
    1683 00000540           $C$L8:    
    1684                            .dwpsn  file "./../packages/ti/vlib/src/VLIB_convertUYVYint_to_YUV420pl/VLIB_convertUYVYint_to
    1685 00000540           $C$DW$L$VLIB_convertUYVYint_to_YUV420pl_d$31$B:
    1686                    ;          EXCLUSIVE CPU CYCLES: 1
    1687                    ;**     -----------------------g17:
    1688                    ;** 135 -----------------------    free((void *)cb_cn);
    1689                    ;** 136 -----------------------    free((void *)cr_cn);
    1690                    ;** 137 -----------------------    free((void *)y_cn);
    1691                    ;** 138 -----------------------    VLIB_align_free((void *)cb);
    1692                    ;** 139 -----------------------    VLIB_align_free((void *)cr);
    1693                    ;** 140 -----------------------    VLIB_align_free((void *)y);
    1694                    ;** 141 -----------------------    VLIB_align_free((void *)yc);
    1695                    ;** 51  -----------------------    U$11 += 32;
    1696                    ;** 51  -----------------------    if ( test_cases > (++tpi) ) goto g3;
    1697                            .dwpsn  file "./../packages/ti/vlib/src/VLIB_convertUYVYint_to_YUV420pl/VLIB_convertUYVYint_to
    1698 00000540 01810162             ADDKPC  .S2     $C$RL30,B3,0      ; |135| 
    1699                    $C$RL30:   ; CALL OCCURS {free} {0}          ; |135| 
    1700                    $C$DW$L$VLIB_convertUYVYint_to_YUV420pl_d$31$E:
    1701                    ;** --------------------------------------------------------------------------*
    1702                    $C$DW$L$VLIB_convertUYVYint_to_YUV420pl_d$32$B:
    1703                    ;          EXCLUSIVE CPU CYCLES: 36
    1704                    $C$DW$147       .dwtag  DW_TAG_TI_branch
    1705                            .dwattr $C$DW$147, DW_AT_low_pc(0x00)
TMS320C6x Assembler PC v7.4.2 Thu Mar 19 12:40:28 2015

Tools Copyright (c) 1996-2012 Texas Instruments Incorporated
package/lib/Regression/regress_d_c/./../packages/ti/vlib/src/VLIB_convertUYVYint_to_YUV420pl/VLIB_convertUYVYint_to_YUV420pl_d.se66 PAGE   32

    1706                            .dwattr $C$DW$147, DW_AT_name("free")
    1707                            .dwattr $C$DW$147, DW_AT_TI_call
    1708                    
    1709 00000544 10000013!            CALLP   .S2     free,B3
    1710 00000548 023dc2e4  ||         LDW     .D2T1   *+SP(56),A4       ; |136| 
    1711                    
    1712                            .dwpsn  file "./../packages/ti/vlib/src/VLIB_convertUYVYint_to_YUV420pl/VLIB_convertUYVYint_to
    1713                    $C$RL31:   ; CALL OCCURS {free} {0}          ; |136| 
    1714                    $C$DW$148       .dwtag  DW_TAG_TI_branch
    1715                            .dwattr $C$DW$148, DW_AT_low_pc(0x00)
    1716                            .dwattr $C$DW$148, DW_AT_name("free")
    1717                            .dwattr $C$DW$148, DW_AT_TI_call
    1718                    
    1719 0000054c 10000013!            CALLP   .S2     free,B3
    1720 00000550 023da2e4  ||         LDW     .D2T1   *+SP(52),A4       ; |137| 
    1721                    
    1722                            .dwpsn  file "./../packages/ti/vlib/src/VLIB_convertUYVYint_to_YUV420pl/VLIB_convertUYVYint_to
    1723                    $C$RL32:   ; CALL OCCURS {free} {0}          ; |137| 
    1724                    $C$DW$149       .dwtag  DW_TAG_TI_branch
    1725                            .dwattr $C$DW$149, DW_AT_low_pc(0x00)
    1726                            .dwattr $C$DW$149, DW_AT_name("VLIB_align_free")
    1727                            .dwattr $C$DW$149, DW_AT_TI_call
    1728                    
    1729 00000554 10000013!            CALLP   .S2     VLIB_align_free,B3
    1730 00000558 023d82e5  ||         LDW     .D2T1   *+SP(48),A4       ; |138| 
    1731                    
    1732                            .dwpsn  file "./../packages/ti/vlib/src/VLIB_convertUYVYint_to_YUV420pl/VLIB_convertUYVYint_to
    1733                    $C$RL33:   ; CALL OCCURS {VLIB_align_free} {0}  ; |138| 
    1734                    $C$DW$150       .dwtag  DW_TAG_TI_branch
    1735                            .dwattr $C$DW$150, DW_AT_low_pc(0x00)
    1736                            .dwattr $C$DW$150, DW_AT_name("VLIB_align_free")
    1737                            .dwattr $C$DW$150, DW_AT_TI_call
    1738                    
    1739 00000560 10000013!            CALLP   .S2     VLIB_align_free,B3
    1740 00000564 023d62e4  ||         LDW     .D2T1   *+SP(44),A4       ; |139| 
    1741                    
    1742                            .dwpsn  file "./../packages/ti/vlib/src/VLIB_convertUYVYint_to_YUV420pl/VLIB_convertUYVYint_to
    1743                    $C$RL34:   ; CALL OCCURS {VLIB_align_free} {0}  ; |139| 
    1744                    $C$DW$151       .dwtag  DW_TAG_TI_branch
    1745                            .dwattr $C$DW$151, DW_AT_low_pc(0x00)
    1746                            .dwattr $C$DW$151, DW_AT_name("VLIB_align_free")
    1747                            .dwattr $C$DW$151, DW_AT_TI_call
    1748                    
    1749 00000568 10000013!            CALLP   .S2     VLIB_align_free,B3
    1750 0000056c 023d42e4  ||         LDW     .D2T1   *+SP(40),A4       ; |140| 
    1751                    
    1752                            .dwpsn  file "./../packages/ti/vlib/src/VLIB_convertUYVYint_to_YUV420pl/VLIB_convertUYVYint_to
    1753                    $C$RL35:   ; CALL OCCURS {VLIB_align_free} {0}  ; |140| 
    1754                    $C$DW$152       .dwtag  DW_TAG_TI_branch
    1755                            .dwattr $C$DW$152, DW_AT_low_pc(0x00)
    1756                            .dwattr $C$DW$152, DW_AT_name("VLIB_align_free")
    1757                            .dwattr $C$DW$152, DW_AT_TI_call
    1758                    
    1759 00000570 10000013!            CALLP   .S2     VLIB_align_free,B3
    1760 00000574 023d22e4  ||         LDW     .D2T1   *+SP(36),A4       ; |141| 
TMS320C6x Assembler PC v7.4.2 Thu Mar 19 12:40:28 2015

Tools Copyright (c) 1996-2012 Texas Instruments Incorporated
package/lib/Regression/regress_d_c/./../packages/ti/vlib/src/VLIB_convertUYVYint_to_YUV420pl/VLIB_convertUYVYint_to_YUV420pl_d.se66 PAGE   33

    1761                    
    1762                            .dwpsn  file "./../packages/ti/vlib/src/VLIB_convertUYVYint_to_YUV420pl/VLIB_convertUYVYint_to
    1763 00000578           $C$RL36:   ; CALL OCCURS {VLIB_align_free} {0}  ; |141| 
    1764 00000578           $C$DW$L$VLIB_convertUYVYint_to_YUV420pl_d$32$E:
    1765                    ;** --------------------------------------------------------------------------*
    1766 00000578           $C$DW$L$VLIB_convertUYVYint_to_YUV420pl_d$33$B:
    1767                    ;          EXCLUSIVE CPU CYCLES: 14
    1768 00000578 01800028!            MVKL    .S1     test_cases,A3
    1769 0000057c 01800068!            MVKH    .S1     test_cases,A3
    1770                            .dwpsn  file "./../packages/ti/vlib/src/VLIB_convertUYVYint_to_YUV420pl/VLIB_convertUYVYint_to
    1771 00000580 018c0264             LDW     .D1T1   *A3,A3            ; |51| 
    1772 00000584 07bc2058             ADD     .L1     1,A15,A15         ; |51| 
    1773                            .dwpsn  file "./../packages/ti/vlib/src/VLIB_convertUYVYint_to_YUV420pl/VLIB_convertUYVYint_to
    1774 00000588 05801050             ADDK    .S1     32,A11            ; |59| 
    1775                            .dwpsn  file "./../packages/ti/vlib/src/VLIB_convertUYVYint_to_YUV420pl/VLIB_convertUYVYint_to
    1776 0000058c 06001052             ADDK    .S2     32,B12            ; |51| 
    1777 00000590 00000000             NOP             1
    1778 00000594 003c68f8             CMPGT   .L1     A3,A15,A0         ; |51| 
    1779                    
    1780 00000598 cfff5e91     [ A0]   B       .S1     $C$L1             ; |51| 
    1781 0000059c c22cc266  || [ A0]   LDW     .D1T2   *+A11(24),B4      ; |63| 
    1782                    
    1783                            .dwpsn  file "./../packages/ti/vlib/src/VLIB_convertUYVYint_to_YUV420pl/VLIB_convertUYVYint_to
    1784 000005a0 c52ce264     [ A0]   LDW     .D1T1   *+A11(28),A10     ; |59| 
    1785                            .dwpsn  file "./../packages/ti/vlib/src/VLIB_convertUYVYint_to_YUV420pl/VLIB_convertUYVYint_to
    1786 000005a4 c220a358     [ A0]   MVK     .L1     0x8,A4            ; |63| 
    1787                            .dwpsn  file "./../packages/ti/vlib/src/VLIB_convertUYVYint_to_YUV420pl/VLIB_convertUYVYint_to
    1788 000005a8 c62ca264     [ A0]   LDW     .D1T1   *+A11(20),A12     ; |59| 
    1789 000005ac 00002000             NOP             2
    1790                            .dwpsn  file "./../packages/ti/vlib/src/VLIB_convertUYVYint_to_YUV420pl/VLIB_convertUYVYint_to
    1791                               ; BRANCHCC OCCURS {$C$L1}         ; |51| 
    1792 000005b0           $C$DW$L$VLIB_convertUYVYint_to_YUV420pl_d$33$E:
    1793                    ;** --------------------------------------------------------------------------*
    1794 000005b0           $C$L9:    
    1795                    ;          EXCLUSIVE CPU CYCLES: 8
    1796                    ;**     -----------------------g18:
    1797                    ;** 145 -----------------------    VLIB_profile_cycle_report(2, "N = width * height; M = height", "wid
    1798                    ;** 158 -----------------------    printf((const char *)"---------------------------------------------
    1799                    ;** 165 -----------------------    VLIB_stack_memory();  // [18]
    1800                    ;**     -----------------------    return;
    1801 000005b0 0200002a!            MVKL    .S2     $C$SL5+0,B4
    1802                    
    1803 000005b4 03000029!            MVKL    .S1     $C$SL4+0,A6
    1804 000005b8 0200006a! ||         MVKH    .S2     $C$SL5+0,B4
    1805                    
    1806                    $C$DW$153       .dwtag  DW_TAG_TI_branch
    1807                            .dwattr $C$DW$153, DW_AT_low_pc(0x00)
    1808                            .dwattr $C$DW$153, DW_AT_name("VLIB_profile_cycle_report")
    1809                            .dwattr $C$DW$153, DW_AT_TI_call
    1810                    
    1811 000005bc 10000013!            CALLP   .S2     VLIB_profile_cycle_report,B3
    1812 000005c0 03000069! ||         MVKH    .S1     $C$SL4+0,A6
    1813 000005c4 0208a358  ||         MVK     .L1     0x2,A4            ; |145| 
    1814                    
    1815                            .dwpsn  file "./../packages/ti/vlib/src/VLIB_convertUYVYint_to_YUV420pl/VLIB_convertUYVYint_to
TMS320C6x Assembler PC v7.4.2 Thu Mar 19 12:40:28 2015

Tools Copyright (c) 1996-2012 Texas Instruments Incorporated
package/lib/Regression/regress_d_c/./../packages/ti/vlib/src/VLIB_convertUYVYint_to_YUV420pl/VLIB_convertUYVYint_to_YUV420pl_d.se66 PAGE   34

    1816 000005c8           $C$RL37:   ; CALL OCCURS {VLIB_profile_cycle_report} {0}  ; |145| 
    1817                    ;** --------------------------------------------------------------------------*
    1818                    ;          EXCLUSIVE CPU CYCLES: 14
    1819 000005c8 0200002a!            MVKL    .S2     $C$SL6+0,B4
    1820 000005cc 0200006a!            MVKH    .S2     $C$SL6+0,B4
    1821                    $C$DW$154       .dwtag  DW_TAG_TI_branch
    1822                            .dwattr $C$DW$154, DW_AT_low_pc(0x00)
    1823                            .dwattr $C$DW$154, DW_AT_name("printf")
    1824                            .dwattr $C$DW$154, DW_AT_TI_call
    1825                    
    1826 000005d0 10000013!            CALLP   .S2     printf,B3
    1827 000005d4 023c22f6  ||         STW     .D2T2   B4,*+SP(4)        ; |158| 
    1828                    
    1829                            .dwpsn  file ".\..\packages\ti\vlib\src\VLIB_convertUYVYint_to_YUV420pl\../common/VLIB_memory.
    1830                    $C$RL38:   ; CALL OCCURS {printf} {0}        ; |158| 
    1831                    $C$DW$155       .dwtag  DW_TAG_TI_branch
    1832                            .dwattr $C$DW$155, DW_AT_low_pc(0x00)
    1833                            .dwattr $C$DW$155, DW_AT_name("VLIB_stack_memory")
    1834                            .dwattr $C$DW$155, DW_AT_TI_call
    1835 000005d8 10000012!            CALLP   .S2     VLIB_stack_memory,B3
    1836                            .dwpsn  file ".\..\packages\ti\vlib\src\VLIB_convertUYVYint_to_YUV420pl\../common/VLIB_memory.
    1837 000005dc           $C$RL39:   ; CALL OCCURS {VLIB_stack_memory} {0}  ; |165| 
    1838                    ;** --------------------------------------------------------------------------*
    1839                    ;          EXCLUSIVE CPU CYCLES: 13
    1840                            .dwpsn  file "./../packages/ti/vlib/src/VLIB_convertUYVYint_to_YUV420pl/VLIB_convertUYVYint_to
    1841 000005dc 01be52e6             LDW     .D2T2   *++SP(72),B3      ; |151| 
    1842                            .dwcfi  cfa_offset, 48
    1843                            .dwcfi  restore_reg, 19
    1844 000005e0 063c33e4             LDDW    .D2T1   *++SP,A13:A12
    1845                            .dwcfi  cfa_offset, 40
    1846                            .dwcfi  restore_reg, 13
    1847                            .dwcfi  restore_reg, 12
    1848 000005e4 073c33e4             LDDW    .D2T1   *++SP,A15:A14
    1849                            .dwcfi  cfa_offset, 32
    1850                            .dwcfi  restore_reg, 15
    1851                            .dwcfi  restore_reg, 14
    1852 000005e8 053c33e6             LDDW    .D2T2   *++SP,B11:B10
    1853                            .dwcfi  cfa_offset, 24
    1854                            .dwcfi  restore_reg, 27
    1855                            .dwcfi  restore_reg, 26
    1856 000005ec 063c33e6             LDDW    .D2T2   *++SP,B13:B12
    1857                            .dwcfi  cfa_offset, 16
    1858                            .dwcfi  restore_reg, 29
    1859                            .dwcfi  restore_reg, 28
    1860 000005f0 053c52e4             LDW     .D2T1   *++SP(8),A10
    1861                            .dwcfi  cfa_offset, 8
    1862                            .dwcfi  restore_reg, 10
    1863 000005f4 05bc52e4             LDW     .D2T1   *++SP(8),A11      ; |151| 
    1864                            .dwcfi  cfa_offset, 0
    1865                            .dwcfi  restore_reg, 11
    1866                            .dwcfi  cfa_offset, 0
    1867                    $C$DW$156       .dwtag  DW_TAG_TI_branch
    1868                            .dwattr $C$DW$156, DW_AT_low_pc(0x00)
    1869                            .dwattr $C$DW$156, DW_AT_TI_return
    1870 000005f8 008ca362             RETNOP  .S2     B3,5
TMS320C6x Assembler PC v7.4.2 Thu Mar 19 12:40:28 2015

Tools Copyright (c) 1996-2012 Texas Instruments Incorporated
package/lib/Regression/regress_d_c/./../packages/ti/vlib/src/VLIB_convertUYVYint_to_YUV420pl/VLIB_convertUYVYint_to_YUV420pl_d.se66 PAGE   35

    1871                               ; BRANCH OCCURS {B3}  
    1872                    
    1873                    $C$DW$157       .dwtag  DW_TAG_TI_loop
    1874                            .dwattr $C$DW$157, DW_AT_name("c:\nightlybuilds\vlib\ti\vlib\vlib\examples\package/lib/Regress
    1875                            .dwattr $C$DW$157, DW_AT_TI_begin_file("./../packages/ti/vlib/src/VLIB_convertUYVYint_to_YUV42
    1876                            .dwattr $C$DW$157, DW_AT_TI_begin_line(0x33)
    1877                            .dwattr $C$DW$157, DW_AT_TI_end_line(0x8e)
    1878                    $C$DW$158       .dwtag  DW_TAG_TI_loop_range
    1879                            .dwattr $C$DW$158, DW_AT_low_pc($C$DW$L$VLIB_convertUYVYint_to_YUV420pl_d$5$B)
    1880                            .dwattr $C$DW$158, DW_AT_high_pc($C$DW$L$VLIB_convertUYVYint_to_YUV420pl_d$5$E)
    1881                    $C$DW$159       .dwtag  DW_TAG_TI_loop_range
    1882                            .dwattr $C$DW$159, DW_AT_low_pc($C$DW$L$VLIB_convertUYVYint_to_YUV420pl_d$29$B)
    1883                            .dwattr $C$DW$159, DW_AT_high_pc($C$DW$L$VLIB_convertUYVYint_to_YUV420pl_d$29$E)
    1884                    $C$DW$160       .dwtag  DW_TAG_TI_loop_range
    1885                            .dwattr $C$DW$160, DW_AT_low_pc($C$DW$L$VLIB_convertUYVYint_to_YUV420pl_d$18$B)
    1886                            .dwattr $C$DW$160, DW_AT_high_pc($C$DW$L$VLIB_convertUYVYint_to_YUV420pl_d$18$E)
    1887                    $C$DW$161       .dwtag  DW_TAG_TI_loop_range
    1888                            .dwattr $C$DW$161, DW_AT_low_pc($C$DW$L$VLIB_convertUYVYint_to_YUV420pl_d$19$B)
    1889                            .dwattr $C$DW$161, DW_AT_high_pc($C$DW$L$VLIB_convertUYVYint_to_YUV420pl_d$19$E)
    1890                    $C$DW$162       .dwtag  DW_TAG_TI_loop_range
    1891                            .dwattr $C$DW$162, DW_AT_low_pc($C$DW$L$VLIB_convertUYVYint_to_YUV420pl_d$20$B)
    1892                            .dwattr $C$DW$162, DW_AT_high_pc($C$DW$L$VLIB_convertUYVYint_to_YUV420pl_d$20$E)
    1893                    $C$DW$163       .dwtag  DW_TAG_TI_loop_range
    1894                            .dwattr $C$DW$163, DW_AT_low_pc($C$DW$L$VLIB_convertUYVYint_to_YUV420pl_d$21$B)
    1895                            .dwattr $C$DW$163, DW_AT_high_pc($C$DW$L$VLIB_convertUYVYint_to_YUV420pl_d$21$E)
    1896                    $C$DW$164       .dwtag  DW_TAG_TI_loop_range
    1897                            .dwattr $C$DW$164, DW_AT_low_pc($C$DW$L$VLIB_convertUYVYint_to_YUV420pl_d$22$B)
    1898                            .dwattr $C$DW$164, DW_AT_high_pc($C$DW$L$VLIB_convertUYVYint_to_YUV420pl_d$22$E)
    1899                    $C$DW$165       .dwtag  DW_TAG_TI_loop_range
    1900                            .dwattr $C$DW$165, DW_AT_low_pc($C$DW$L$VLIB_convertUYVYint_to_YUV420pl_d$23$B)
    1901                            .dwattr $C$DW$165, DW_AT_high_pc($C$DW$L$VLIB_convertUYVYint_to_YUV420pl_d$23$E)
    1902                    $C$DW$166       .dwtag  DW_TAG_TI_loop_range
    1903                            .dwattr $C$DW$166, DW_AT_low_pc($C$DW$L$VLIB_convertUYVYint_to_YUV420pl_d$24$B)
    1904                            .dwattr $C$DW$166, DW_AT_high_pc($C$DW$L$VLIB_convertUYVYint_to_YUV420pl_d$24$E)
    1905                    $C$DW$167       .dwtag  DW_TAG_TI_loop_range
    1906                            .dwattr $C$DW$167, DW_AT_low_pc($C$DW$L$VLIB_convertUYVYint_to_YUV420pl_d$6$B)
    1907                            .dwattr $C$DW$167, DW_AT_high_pc($C$DW$L$VLIB_convertUYVYint_to_YUV420pl_d$6$E)
    1908                    $C$DW$168       .dwtag  DW_TAG_TI_loop_range
    1909                            .dwattr $C$DW$168, DW_AT_low_pc($C$DW$L$VLIB_convertUYVYint_to_YUV420pl_d$7$B)
    1910                            .dwattr $C$DW$168, DW_AT_high_pc($C$DW$L$VLIB_convertUYVYint_to_YUV420pl_d$7$E)
    1911                    $C$DW$169       .dwtag  DW_TAG_TI_loop_range
    1912                            .dwattr $C$DW$169, DW_AT_low_pc($C$DW$L$VLIB_convertUYVYint_to_YUV420pl_d$8$B)
    1913                            .dwattr $C$DW$169, DW_AT_high_pc($C$DW$L$VLIB_convertUYVYint_to_YUV420pl_d$8$E)
    1914                    $C$DW$170       .dwtag  DW_TAG_TI_loop_range
    1915                            .dwattr $C$DW$170, DW_AT_low_pc($C$DW$L$VLIB_convertUYVYint_to_YUV420pl_d$9$B)
    1916                            .dwattr $C$DW$170, DW_AT_high_pc($C$DW$L$VLIB_convertUYVYint_to_YUV420pl_d$9$E)
    1917                    $C$DW$171       .dwtag  DW_TAG_TI_loop_range
    1918                            .dwattr $C$DW$171, DW_AT_low_pc($C$DW$L$VLIB_convertUYVYint_to_YUV420pl_d$10$B)
    1919                            .dwattr $C$DW$171, DW_AT_high_pc($C$DW$L$VLIB_convertUYVYint_to_YUV420pl_d$10$E)
    1920                    $C$DW$172       .dwtag  DW_TAG_TI_loop_range
    1921                            .dwattr $C$DW$172, DW_AT_low_pc($C$DW$L$VLIB_convertUYVYint_to_YUV420pl_d$11$B)
    1922                            .dwattr $C$DW$172, DW_AT_high_pc($C$DW$L$VLIB_convertUYVYint_to_YUV420pl_d$11$E)
    1923                    $C$DW$173       .dwtag  DW_TAG_TI_loop_range
    1924                            .dwattr $C$DW$173, DW_AT_low_pc($C$DW$L$VLIB_convertUYVYint_to_YUV420pl_d$12$B)
    1925                            .dwattr $C$DW$173, DW_AT_high_pc($C$DW$L$VLIB_convertUYVYint_to_YUV420pl_d$12$E)
TMS320C6x Assembler PC v7.4.2 Thu Mar 19 12:40:28 2015

Tools Copyright (c) 1996-2012 Texas Instruments Incorporated
package/lib/Regression/regress_d_c/./../packages/ti/vlib/src/VLIB_convertUYVYint_to_YUV420pl/VLIB_convertUYVYint_to_YUV420pl_d.se66 PAGE   36

    1926                    $C$DW$174       .dwtag  DW_TAG_TI_loop_range
    1927                            .dwattr $C$DW$174, DW_AT_low_pc($C$DW$L$VLIB_convertUYVYint_to_YUV420pl_d$13$B)
    1928                            .dwattr $C$DW$174, DW_AT_high_pc($C$DW$L$VLIB_convertUYVYint_to_YUV420pl_d$13$E)
    1929                    $C$DW$175       .dwtag  DW_TAG_TI_loop_range
    1930                            .dwattr $C$DW$175, DW_AT_low_pc($C$DW$L$VLIB_convertUYVYint_to_YUV420pl_d$14$B)
    1931                            .dwattr $C$DW$175, DW_AT_high_pc($C$DW$L$VLIB_convertUYVYint_to_YUV420pl_d$14$E)
    1932                    $C$DW$176       .dwtag  DW_TAG_TI_loop_range
    1933                            .dwattr $C$DW$176, DW_AT_low_pc($C$DW$L$VLIB_convertUYVYint_to_YUV420pl_d$15$B)
    1934                            .dwattr $C$DW$176, DW_AT_high_pc($C$DW$L$VLIB_convertUYVYint_to_YUV420pl_d$15$E)
    1935                    $C$DW$177       .dwtag  DW_TAG_TI_loop_range
    1936                            .dwattr $C$DW$177, DW_AT_low_pc($C$DW$L$VLIB_convertUYVYint_to_YUV420pl_d$16$B)
    1937                            .dwattr $C$DW$177, DW_AT_high_pc($C$DW$L$VLIB_convertUYVYint_to_YUV420pl_d$16$E)
    1938                    $C$DW$178       .dwtag  DW_TAG_TI_loop_range
    1939                            .dwattr $C$DW$178, DW_AT_low_pc($C$DW$L$VLIB_convertUYVYint_to_YUV420pl_d$17$B)
    1940                            .dwattr $C$DW$178, DW_AT_high_pc($C$DW$L$VLIB_convertUYVYint_to_YUV420pl_d$17$E)
    1941                    $C$DW$179       .dwtag  DW_TAG_TI_loop_range
    1942                            .dwattr $C$DW$179, DW_AT_low_pc($C$DW$L$VLIB_convertUYVYint_to_YUV420pl_d$25$B)
    1943                            .dwattr $C$DW$179, DW_AT_high_pc($C$DW$L$VLIB_convertUYVYint_to_YUV420pl_d$25$E)
    1944                    $C$DW$180       .dwtag  DW_TAG_TI_loop_range
    1945                            .dwattr $C$DW$180, DW_AT_low_pc($C$DW$L$VLIB_convertUYVYint_to_YUV420pl_d$26$B)
    1946                            .dwattr $C$DW$180, DW_AT_high_pc($C$DW$L$VLIB_convertUYVYint_to_YUV420pl_d$26$E)
    1947                    $C$DW$181       .dwtag  DW_TAG_TI_loop_range
    1948                            .dwattr $C$DW$181, DW_AT_low_pc($C$DW$L$VLIB_convertUYVYint_to_YUV420pl_d$27$B)
    1949                            .dwattr $C$DW$181, DW_AT_high_pc($C$DW$L$VLIB_convertUYVYint_to_YUV420pl_d$27$E)
    1950                    $C$DW$182       .dwtag  DW_TAG_TI_loop_range
    1951                            .dwattr $C$DW$182, DW_AT_low_pc($C$DW$L$VLIB_convertUYVYint_to_YUV420pl_d$28$B)
    1952                            .dwattr $C$DW$182, DW_AT_high_pc($C$DW$L$VLIB_convertUYVYint_to_YUV420pl_d$28$E)
    1953                    $C$DW$183       .dwtag  DW_TAG_TI_loop_range
    1954                            .dwattr $C$DW$183, DW_AT_low_pc($C$DW$L$VLIB_convertUYVYint_to_YUV420pl_d$30$B)
    1955                            .dwattr $C$DW$183, DW_AT_high_pc($C$DW$L$VLIB_convertUYVYint_to_YUV420pl_d$30$E)
    1956                    $C$DW$184       .dwtag  DW_TAG_TI_loop_range
    1957                            .dwattr $C$DW$184, DW_AT_low_pc($C$DW$L$VLIB_convertUYVYint_to_YUV420pl_d$31$B)
    1958                            .dwattr $C$DW$184, DW_AT_high_pc($C$DW$L$VLIB_convertUYVYint_to_YUV420pl_d$31$E)
    1959                    $C$DW$185       .dwtag  DW_TAG_TI_loop_range
    1960                            .dwattr $C$DW$185, DW_AT_low_pc($C$DW$L$VLIB_convertUYVYint_to_YUV420pl_d$32$B)
    1961                            .dwattr $C$DW$185, DW_AT_high_pc($C$DW$L$VLIB_convertUYVYint_to_YUV420pl_d$32$E)
    1962                    $C$DW$186       .dwtag  DW_TAG_TI_loop_range
    1963                            .dwattr $C$DW$186, DW_AT_low_pc($C$DW$L$VLIB_convertUYVYint_to_YUV420pl_d$33$B)
    1964                            .dwattr $C$DW$186, DW_AT_high_pc($C$DW$L$VLIB_convertUYVYint_to_YUV420pl_d$33$E)
    1965                            .dwendtag $C$DW$157
    1966                    
    1967                            .dwattr $C$DW$84, DW_AT_TI_end_file("./../packages/ti/vlib/src/VLIB_convertUYVYint_to_YUV420pl
    1968                            .dwattr $C$DW$84, DW_AT_TI_end_line(0x97)
    1969                            .dwattr $C$DW$84, DW_AT_TI_end_column(0x01)
    1970                            .dwendentry
    1971                            .dwendtag $C$DW$84
    1972                    
    1973                    ;; Inlined function references:
    1974                    ;; [ 14] VLIB_profile_start
    1975                    ;; [ 15] VLIB_profile_stop
    1976                    ;; [ 18] VLIB_kernel_memory
    1977                    ;******************************************************************************
    1978                    ;* STRINGS                                                                    *
    1979                    ;******************************************************************************
    1980 00000000                   .sect   ".const:.string"
TMS320C6x Assembler PC v7.4.2 Thu Mar 19 12:40:28 2015

Tools Copyright (c) 1996-2012 Texas Instruments Incorporated
package/lib/Regression/regress_d_c/./../packages/ti/vlib/src/VLIB_convertUYVYint_to_YUV420pl/VLIB_convertUYVYint_to_YUV420pl_d.se66 PAGE   37

    1981 00000000 00000056  $C$SL1: .string "VLIB_convertUYVYint_to_YUV420pl",0
         00000001 0000004C 
         00000002 00000049 
         00000003 00000042 
         00000004 0000005F 
         00000005 00000063 
         00000006 0000006F 
         00000007 0000006E 
         00000008 00000076 
         00000009 00000065 
         0000000a 00000072 
         0000000b 00000074 
         0000000c 00000055 
         0000000d 00000059 
         0000000e 00000056 
         0000000f 00000059 
         00000010 00000069 
         00000011 0000006E 
         00000012 00000074 
         00000013 0000005F 
         00000014 00000074 
         00000015 0000006F 
         00000016 0000005F 
         00000017 00000059 
         00000018 00000055 
         00000019 00000056 
         0000001a 00000034 
         0000001b 00000032 
         0000001c 00000030 
         0000001d 00000070 
         0000001e 0000006C 
         0000001f 00000000 
    1982 00000020 00000025  $C$SL2: .string "%s generated input | Opt results compared to NatC results |"
         00000021 00000073 
         00000022 00000020 
         00000023 00000067 
         00000024 00000065 
         00000025 0000006E 
         00000026 00000065 
         00000027 00000072 
         00000028 00000061 
         00000029 00000074 
         0000002a 00000065 
         0000002b 00000064 
         0000002c 00000020 
         0000002d 00000069 
         0000002e 0000006E 
         0000002f 00000070 
         00000030 00000075 
         00000031 00000074 
         00000032 00000020 
         00000033 0000007C 
         00000034 00000020 
         00000035 0000004F 
         00000036 00000070 
TMS320C6x Assembler PC v7.4.2 Thu Mar 19 12:40:28 2015

Tools Copyright (c) 1996-2012 Texas Instruments Incorporated
package/lib/Regression/regress_d_c/./../packages/ti/vlib/src/VLIB_convertUYVYint_to_YUV420pl/VLIB_convertUYVYint_to_YUV420pl_d.se66 PAGE   38

         00000037 00000074 
         00000038 00000020 
         00000039 00000072 
         0000003a 00000065 
         0000003b 00000073 
         0000003c 00000075 
         0000003d 0000006C 
         0000003e 00000074 
         0000003f 00000073 
         00000040 00000020 
         00000041 00000063 
         00000042 0000006F 
         00000043 0000006D 
         00000044 00000070 
         00000045 00000061 
         00000046 00000072 
         00000047 00000065 
         00000048 00000064 
         00000049 00000020 
         0000004a 00000074 
         0000004b 0000006F 
         0000004c 00000020 
         0000004d 0000004E 
         0000004e 00000061 
         0000004f 00000074 
         00000050 00000043 
         00000051 00000020 
         00000052 00000072 
         00000053 00000065 
         00000054 00000073 
         00000055 00000075 
         00000056 0000006C 
         00000057 00000074 
         00000058 00000073 
         00000059 00000020 
         0000005a 0000007C 
    1983 0000005b 00000020          .string " width=%d, pitch=%d, height=%d, num_pts=%d",0
         0000005c 00000077 
         0000005d 00000069 
         0000005e 00000064 
         0000005f 00000074 
         00000060 00000068 
         00000061 0000003D 
         00000062 00000025 
         00000063 00000064 
         00000064 0000002C 
         00000065 00000020 
         00000066 00000070 
         00000067 00000069 
         00000068 00000074 
         00000069 00000063 
         0000006a 00000068 
         0000006b 0000003D 
         0000006c 00000025 
         0000006d 00000064 
TMS320C6x Assembler PC v7.4.2 Thu Mar 19 12:40:28 2015

Tools Copyright (c) 1996-2012 Texas Instruments Incorporated
package/lib/Regression/regress_d_c/./../packages/ti/vlib/src/VLIB_convertUYVYint_to_YUV420pl/VLIB_convertUYVYint_to_YUV420pl_d.se66 PAGE   39

         0000006e 0000002C 
         0000006f 00000020 
         00000070 00000068 
         00000071 00000065 
         00000072 00000069 
         00000073 00000067 
         00000074 00000068 
         00000075 00000074 
         00000076 0000003D 
         00000077 00000025 
         00000078 00000064 
         00000079 0000002C 
         0000007a 00000020 
         0000007b 0000006E 
         0000007c 00000075 
         0000007d 0000006D 
         0000007e 0000005F 
         0000007f 00000070 
         00000080 00000074 
         00000081 00000073 
         00000082 0000003D 
         00000083 00000025 
         00000084 00000064 
         00000085 00000000 
    1984 00000086 00000077  $C$SL3: .string "width=%d, pitch=%d, height=%d, num_pts=%d",0
         00000087 00000069 
         00000088 00000064 
         00000089 00000074 
         0000008a 00000068 
         0000008b 0000003D 
         0000008c 00000025 
         0000008d 00000064 
         0000008e 0000002C 
         0000008f 00000020 
         00000090 00000070 
         00000091 00000069 
         00000092 00000074 
         00000093 00000063 
         00000094 00000068 
         00000095 0000003D 
         00000096 00000025 
         00000097 00000064 
         00000098 0000002C 
         00000099 00000020 
         0000009a 00000068 
         0000009b 00000065 
         0000009c 00000069 
         0000009d 00000067 
         0000009e 00000068 
         0000009f 00000074 
         000000a0 0000003D 
         000000a1 00000025 
         000000a2 00000064 
         000000a3 0000002C 
         000000a4 00000020 
TMS320C6x Assembler PC v7.4.2 Thu Mar 19 12:40:28 2015

Tools Copyright (c) 1996-2012 Texas Instruments Incorporated
package/lib/Regression/regress_d_c/./../packages/ti/vlib/src/VLIB_convertUYVYint_to_YUV420pl/VLIB_convertUYVYint_to_YUV420pl_d.se66 PAGE   40

         000000a5 0000006E 
         000000a6 00000075 
         000000a7 0000006D 
         000000a8 0000005F 
         000000a9 00000070 
         000000aa 00000074 
         000000ab 00000073 
         000000ac 0000003D 
         000000ad 00000025 
         000000ae 00000064 
         000000af 00000000 
    1985 000000b0 00000077  $C$SL4: .string "width * height",0
         000000b1 00000069 
         000000b2 00000064 
         000000b3 00000074 
         000000b4 00000068 
         000000b5 00000020 
         000000b6 0000002A 
         000000b7 00000020 
         000000b8 00000068 
         000000b9 00000065 
         000000ba 00000069 
         000000bb 00000067 
         000000bc 00000068 
         000000bd 00000074 
         000000be 00000000 
    1986 000000bf 0000004E  $C$SL5: .string "N = width * height; M = height",0
         000000c0 00000020 
         000000c1 0000003D 
         000000c2 00000020 
         000000c3 00000077 
         000000c4 00000069 
         000000c5 00000064 
         000000c6 00000074 
         000000c7 00000068 
         000000c8 00000020 
         000000c9 0000002A 
         000000ca 00000020 
         000000cb 00000068 
         000000cc 00000065 
         000000cd 00000069 
         000000ce 00000067 
         000000cf 00000068 
         000000d0 00000074 
         000000d1 0000003B 
         000000d2 00000020 
         000000d3 0000004D 
         000000d4 00000020 
         000000d5 0000003D 
         000000d6 00000020 
         000000d7 00000068 
         000000d8 00000065 
         000000d9 00000069 
         000000da 00000067 
         000000db 00000068 
TMS320C6x Assembler PC v7.4.2 Thu Mar 19 12:40:28 2015

Tools Copyright (c) 1996-2012 Texas Instruments Incorporated
package/lib/Regression/regress_d_c/./../packages/ti/vlib/src/VLIB_convertUYVYint_to_YUV420pl/VLIB_convertUYVYint_to_YUV420pl_d.se66 PAGE   41

         000000dc 00000074 
         000000dd 00000000 
    1987 000000de 0000002D  $C$SL6: .string "-----------------------------------------------------------"
         000000df 0000002D 
         000000e0 0000002D 
         000000e1 0000002D 
         000000e2 0000002D 
         000000e3 0000002D 
         000000e4 0000002D 
         000000e5 0000002D 
         000000e6 0000002D 
         000000e7 0000002D 
         000000e8 0000002D 
         000000e9 0000002D 
         000000ea 0000002D 
         000000eb 0000002D 
         000000ec 0000002D 
         000000ed 0000002D 
         000000ee 0000002D 
         000000ef 0000002D 
         000000f0 0000002D 
         000000f1 0000002D 
         000000f2 0000002D 
         000000f3 0000002D 
         000000f4 0000002D 
         000000f5 0000002D 
         000000f6 0000002D 
         000000f7 0000002D 
         000000f8 0000002D 
         000000f9 0000002D 
         000000fa 0000002D 
         000000fb 0000002D 
         000000fc 0000002D 
         000000fd 0000002D 
         000000fe 0000002D 
         000000ff 0000002D 
         00000100 0000002D 
         00000101 0000002D 
         00000102 0000002D 
         00000103 0000002D 
         00000104 0000002D 
         00000105 0000002D 
         00000106 0000002D 
         00000107 0000002D 
         00000108 0000002D 
         00000109 0000002D 
         0000010a 0000002D 
         0000010b 0000002D 
         0000010c 0000002D 
         0000010d 0000002D 
         0000010e 0000002D 
         0000010f 0000002D 
         00000110 0000002D 
         00000111 0000002D 
         00000112 0000002D 
TMS320C6x Assembler PC v7.4.2 Thu Mar 19 12:40:28 2015

Tools Copyright (c) 1996-2012 Texas Instruments Incorporated
package/lib/Regression/regress_d_c/./../packages/ti/vlib/src/VLIB_convertUYVYint_to_YUV420pl/VLIB_convertUYVYint_to_YUV420pl_d.se66 PAGE   42

         00000113 0000002D 
         00000114 0000002D 
         00000115 0000002D 
         00000116 0000002D 
         00000117 0000002D 
         00000118 0000002D 
    1988 00000119 0000002D          .string "-----------------------------------------------------------"
         0000011a 0000002D 
         0000011b 0000002D 
         0000011c 0000002D 
         0000011d 0000002D 
         0000011e 0000002D 
         0000011f 0000002D 
         00000120 0000002D 
         00000121 0000002D 
         00000122 0000002D 
         00000123 0000002D 
         00000124 0000002D 
         00000125 0000002D 
         00000126 0000002D 
         00000127 0000002D 
         00000128 0000002D 
         00000129 0000002D 
         0000012a 0000002D 
         0000012b 0000002D 
         0000012c 0000002D 
         0000012d 0000002D 
         0000012e 0000002D 
         0000012f 0000002D 
         00000130 0000002D 
         00000131 0000002D 
         00000132 0000002D 
         00000133 0000002D 
         00000134 0000002D 
         00000135 0000002D 
         00000136 0000002D 
         00000137 0000002D 
         00000138 0000002D 
         00000139 0000002D 
         0000013a 0000002D 
         0000013b 0000002D 
         0000013c 0000002D 
         0000013d 0000002D 
         0000013e 0000002D 
         0000013f 0000002D 
         00000140 0000002D 
         00000141 0000002D 
         00000142 0000002D 
         00000143 0000002D 
         00000144 0000002D 
         00000145 0000002D 
         00000146 0000002D 
         00000147 0000002D 
         00000148 0000002D 
         00000149 0000002D 
TMS320C6x Assembler PC v7.4.2 Thu Mar 19 12:40:28 2015

Tools Copyright (c) 1996-2012 Texas Instruments Incorporated
package/lib/Regression/regress_d_c/./../packages/ti/vlib/src/VLIB_convertUYVYint_to_YUV420pl/VLIB_convertUYVYint_to_YUV420pl_d.se66 PAGE   43

         0000014a 0000002D 
         0000014b 0000002D 
         0000014c 0000002D 
         0000014d 0000002D 
         0000014e 0000002D 
         0000014f 0000002D 
         00000150 0000002D 
         00000151 0000002D 
         00000152 0000002D 
         00000153 0000002D 
    1989 00000154 0000002D          .string "-----------------------",10,0
         00000155 0000002D 
         00000156 0000002D 
         00000157 0000002D 
         00000158 0000002D 
         00000159 0000002D 
         0000015a 0000002D 
         0000015b 0000002D 
         0000015c 0000002D 
         0000015d 0000002D 
         0000015e 0000002D 
         0000015f 0000002D 
         00000160 0000002D 
         00000161 0000002D 
         00000162 0000002D 
         00000163 0000002D 
         00000164 0000002D 
         00000165 0000002D 
         00000166 0000002D 
         00000167 0000002D 
         00000168 0000002D 
         00000169 0000002D 
         0000016a 0000002D 
         0000016b 0000000A 
         0000016c 00000000 
    1990                    ;*****************************************************************************
    1991                    ;* UNDEFINED EXTERNAL REFERENCES                                             *
    1992                    ;*****************************************************************************
    1993                            .global printf
    1994                            .global sprintf
    1995                            .global malloc
    1996                            .global free
    1997                            .global VLIB_cache_inval
    1998                            .global VLIB_profile_init
    1999                            .global VLIB_formula_add_test
    2000                            .global VLIB_skip_test
    2001                            .global VLIB_profile_cycle_report
    2002                            .global initStack
    2003                            .global setStackDepth
    2004                            .global getSP
    2005                            .global VLIB_stack_memory
    2006                            .global VLIB_compare_mem
    2007                            .global VLIB_fillBuffer
    2008                            .global VLIB_memalign
    2009                            .global VLIB_align_free
TMS320C6x Assembler PC v7.4.2 Thu Mar 19 12:40:28 2015

Tools Copyright (c) 1996-2012 Texas Instruments Incorporated
package/lib/Regression/regress_d_c/./../packages/ti/vlib/src/VLIB_convertUYVYint_to_YUV420pl/VLIB_convertUYVYint_to_YUV420pl_d.se66 PAGE   44

    2010                            .global VLIB_convertUYVYint_to_YUV420pl
    2011                            .global VLIB_convertUYVYint_to_YUV420pl_cn
    2012                            .global UYVYint_to_YUV420pl_getTestParams
    2013                            .global test_cases
    2014                            .global act_kernel
    2015                            .global desc
    2016                            .global testPatternString
    2017                            .global est_test
    2018                            .global beg_count
    2019                            .global end_count
    2020                            .global overhead
    2021                            .global cycles
    2022                    
    2023                    ;******************************************************************************
    2024                    ;* BUILD ATTRIBUTES                                                           *
    2025                    ;******************************************************************************
    2026                            .battr "TI", Tag_File, 1, Tag_Long_Precision_Bits(2)
    2027                            .battr "TI", Tag_File, 1, Tag_Bitfield_layout(2)
    2028                            .battr "TI", Tag_File, 1, Tag_ABI_enum_size(2)
    2029                            .battr "c6xabi", Tag_File, 1, Tag_ABI_wchar_t(1)
    2030                            .battr "c6xabi", Tag_File, 1, Tag_ABI_array_object_alignment(0)
    2031                            .battr "c6xabi", Tag_File, 1, Tag_ABI_array_object_align_expected(0)
    2032                            .battr "c6xabi", Tag_File, 1, Tag_ABI_PIC(0)
    2033                            .battr "c6xabi", Tag_File, 1, Tag_ABI_PID(0)
    2034                            .battr "c6xabi", Tag_File, 1, Tag_ABI_DSBT(0)
    2035                            .battr "c6xabi", Tag_File, 1, Tag_ABI_stack_align_needed(0)
    2036                            .battr "c6xabi", Tag_File, 1, Tag_ABI_stack_align_preserved(0)
    2037                            .battr "TI", Tag_File, 1, Tag_Tramps_Use_SOC(1)
    2038                    
    2039                    ;******************************************************************************
    2040                    ;* TYPE INFORMATION                                                           *
    2041                    ;******************************************************************************
    2042                    
    2043                    $C$DW$T$36      .dwtag  DW_TAG_enumeration_type
    2044                            .dwattr $C$DW$T$36, DW_AT_byte_size(0x04)
    2045                    $C$DW$187       .dwtag  DW_TAG_enumerator, DW_AT_name("VLIB_NO_ERROR"), DW_AT_const_value(0x00)
    2046                            .dwattr $C$DW$187, DW_AT_decl_file(".\..\packages\ti\vlib\src\VLIB_convertUYVYint_to_YUV420pl\
    2047                            .dwattr $C$DW$187, DW_AT_decl_line(0x7a)
    2048                            .dwattr $C$DW$187, DW_AT_decl_column(0x05)
    2049                    $C$DW$188       .dwtag  DW_TAG_enumerator, DW_AT_name("VLIB_ERR_INPUT_INVALID"), DW_AT_const_value(0x0
    2050                            .dwattr $C$DW$188, DW_AT_decl_file(".\..\packages\ti\vlib\src\VLIB_convertUYVYint_to_YUV420pl\
    2051                            .dwattr $C$DW$188, DW_AT_decl_line(0x7b)
    2052                            .dwattr $C$DW$188, DW_AT_decl_column(0x05)
    2053                    $C$DW$189       .dwtag  DW_TAG_enumerator, DW_AT_name("VLIB_ERR_INPUT_NEGATIVE"), DW_AT_const_value(0x
    2054                            .dwattr $C$DW$189, DW_AT_decl_file(".\..\packages\ti\vlib\src\VLIB_convertUYVYint_to_YUV420pl\
    2055                            .dwattr $C$DW$189, DW_AT_decl_line(0x7c)
    2056                            .dwattr $C$DW$189, DW_AT_decl_column(0x05)
    2057                    $C$DW$190       .dwtag  DW_TAG_enumerator, DW_AT_name("VLIB_ERR_INPUT_EXCEEDED_RANGE"), DW_AT_const_va
    2058                            .dwattr $C$DW$190, DW_AT_decl_file(".\..\packages\ti\vlib\src\VLIB_convertUYVYint_to_YUV420pl\
    2059                            .dwattr $C$DW$190, DW_AT_decl_line(0x7d)
    2060                            .dwattr $C$DW$190, DW_AT_decl_column(0x05)
    2061                    $C$DW$191       .dwtag  DW_TAG_enumerator, DW_AT_name("VLIB_ERR_MEMORY_EXCEEDED_BOUNDARY"), DW_AT_cons
    2062                            .dwattr $C$DW$191, DW_AT_decl_file(".\..\packages\ti\vlib\src\VLIB_convertUYVYint_to_YUV420pl\
    2063                            .dwattr $C$DW$191, DW_AT_decl_line(0x7e)
    2064                            .dwattr $C$DW$191, DW_AT_decl_column(0x05)
TMS320C6x Assembler PC v7.4.2 Thu Mar 19 12:40:28 2015

Tools Copyright (c) 1996-2012 Texas Instruments Incorporated
package/lib/Regression/regress_d_c/./../packages/ti/vlib/src/VLIB_convertUYVYint_to_YUV420pl/VLIB_convertUYVYint_to_YUV420pl_d.se66 PAGE   45

    2065                    $C$DW$192       .dwtag  DW_TAG_enumerator, DW_AT_name("VLIB_ERR_MEMORY_ALLOCATION_FAILURE"), DW_AT_con
    2066                            .dwattr $C$DW$192, DW_AT_decl_file(".\..\packages\ti\vlib\src\VLIB_convertUYVYint_to_YUV420pl\
    2067                            .dwattr $C$DW$192, DW_AT_decl_line(0x7f)
    2068                            .dwattr $C$DW$192, DW_AT_decl_column(0x05)
    2069                    $C$DW$193       .dwtag  DW_TAG_enumerator, DW_AT_name("VLIB_ERR_MEMORY_POINTER_NULL"), DW_AT_const_val
    2070                            .dwattr $C$DW$193, DW_AT_decl_file(".\..\packages\ti\vlib\src\VLIB_convertUYVYint_to_YUV420pl\
    2071                            .dwattr $C$DW$193, DW_AT_decl_line(0x80)
    2072                            .dwattr $C$DW$193, DW_AT_decl_column(0x05)
    2073                    $C$DW$194       .dwtag  DW_TAG_enumerator, DW_AT_name("VLIB_ERR_DMA_FAILURE"), DW_AT_const_value(0x07)
    2074                            .dwattr $C$DW$194, DW_AT_decl_file(".\..\packages\ti\vlib\src\VLIB_convertUYVYint_to_YUV420pl\
    2075                            .dwattr $C$DW$194, DW_AT_decl_line(0x81)
    2076                            .dwattr $C$DW$194, DW_AT_decl_column(0x05)
    2077                    $C$DW$195       .dwtag  DW_TAG_enumerator, DW_AT_name("VLIB_ERR_FILE_OPEN_FAILURE"), DW_AT_const_value
    2078                            .dwattr $C$DW$195, DW_AT_decl_file(".\..\packages\ti\vlib\src\VLIB_convertUYVYint_to_YUV420pl\
    2079                            .dwattr $C$DW$195, DW_AT_decl_line(0x82)
    2080                            .dwattr $C$DW$195, DW_AT_decl_column(0x05)
    2081                    $C$DW$196       .dwtag  DW_TAG_enumerator, DW_AT_name("VLIB_ERR_FILE_READ_FAILURE"), DW_AT_const_value
    2082                            .dwattr $C$DW$196, DW_AT_decl_file(".\..\packages\ti\vlib\src\VLIB_convertUYVYint_to_YUV420pl\
    2083                            .dwattr $C$DW$196, DW_AT_decl_line(0x83)
    2084                            .dwattr $C$DW$196, DW_AT_decl_column(0x05)
    2085                    $C$DW$197       .dwtag  DW_TAG_enumerator, DW_AT_name("VLIB_ERR_FILE_WRITE_FAILURE"), DW_AT_const_valu
    2086                            .dwattr $C$DW$197, DW_AT_decl_file(".\..\packages\ti\vlib\src\VLIB_convertUYVYint_to_YUV420pl\
    2087                            .dwattr $C$DW$197, DW_AT_decl_line(0x84)
    2088                            .dwattr $C$DW$197, DW_AT_decl_column(0x05)
    2089                    $C$DW$198       .dwtag  DW_TAG_enumerator, DW_AT_name("VLIB_ERR_FILE_CLOSE_FAILURE"), DW_AT_const_valu
    2090                            .dwattr $C$DW$198, DW_AT_decl_file(".\..\packages\ti\vlib\src\VLIB_convertUYVYint_to_YUV420pl\
    2091                            .dwattr $C$DW$198, DW_AT_decl_line(0x85)
    2092                            .dwattr $C$DW$198, DW_AT_decl_column(0x05)
    2093                    $C$DW$199       .dwtag  DW_TAG_enumerator, DW_AT_name("VLIB_ERR_FILE_FORMAT_FAILURE"), DW_AT_const_val
    2094                            .dwattr $C$DW$199, DW_AT_decl_file(".\..\packages\ti\vlib\src\VLIB_convertUYVYint_to_YUV420pl\
    2095                            .dwattr $C$DW$199, DW_AT_decl_line(0x86)
    2096                            .dwattr $C$DW$199, DW_AT_decl_column(0x05)
    2097                    $C$DW$200       .dwtag  DW_TAG_enumerator, DW_AT_name("VLIB_WARNING_LOW_MEMORY"), DW_AT_const_value(0x
    2098                            .dwattr $C$DW$200, DW_AT_decl_file(".\..\packages\ti\vlib\src\VLIB_convertUYVYint_to_YUV420pl\
    2099                            .dwattr $C$DW$200, DW_AT_decl_line(0x87)
    2100                            .dwattr $C$DW$200, DW_AT_decl_column(0x05)
    2101                    $C$DW$201       .dwtag  DW_TAG_enumerator, DW_AT_name("VLIB_ERR_NOT_IMPLEMENTED"), DW_AT_const_value(0
    2102                            .dwattr $C$DW$201, DW_AT_decl_file(".\..\packages\ti\vlib\src\VLIB_convertUYVYint_to_YUV420pl\
    2103                            .dwattr $C$DW$201, DW_AT_decl_line(0x88)
    2104                            .dwattr $C$DW$201, DW_AT_decl_column(0x05)
    2105                    $C$DW$202       .dwtag  DW_TAG_enumerator, DW_AT_name("VLIB_ERROR_MAX"), DW_AT_const_value(0x0f)
    2106                            .dwattr $C$DW$202, DW_AT_decl_file(".\..\packages\ti\vlib\src\VLIB_convertUYVYint_to_YUV420pl\
    2107                            .dwattr $C$DW$202, DW_AT_decl_line(0x89)
    2108                            .dwattr $C$DW$202, DW_AT_decl_column(0x05)
    2109                            .dwendtag $C$DW$T$36
    2110                    
    2111                            .dwattr $C$DW$T$36, DW_AT_decl_file(".\..\packages\ti\vlib\src\VLIB_convertUYVYint_to_YUV420pl
    2112                            .dwattr $C$DW$T$36, DW_AT_decl_line(0x79)
    2113                            .dwattr $C$DW$T$36, DW_AT_decl_column(0x0e)
    2114                    $C$DW$T$37      .dwtag  DW_TAG_typedef, DW_AT_name("VLIB_STATUS")
    2115                            .dwattr $C$DW$T$37, DW_AT_type(*$C$DW$T$36)
    2116                            .dwattr $C$DW$T$37, DW_AT_language(DW_LANG_C)
    2117                            .dwattr $C$DW$T$37, DW_AT_decl_file(".\..\packages\ti\vlib\src\VLIB_convertUYVYint_to_YUV420pl
    2118                            .dwattr $C$DW$T$37, DW_AT_decl_line(0x8a)
    2119                            .dwattr $C$DW$T$37, DW_AT_decl_column(0x03)
TMS320C6x Assembler PC v7.4.2 Thu Mar 19 12:40:28 2015

Tools Copyright (c) 1996-2012 Texas Instruments Incorporated
package/lib/Regression/regress_d_c/./../packages/ti/vlib/src/VLIB_convertUYVYint_to_YUV420pl/VLIB_convertUYVYint_to_YUV420pl_d.se66 PAGE   46

    2120                    
    2121                    $C$DW$T$38      .dwtag  DW_TAG_enumeration_type
    2122                            .dwattr $C$DW$T$38, DW_AT_byte_size(0x04)
    2123                    $C$DW$203       .dwtag  DW_TAG_enumerator, DW_AT_name("vlib_KERNEL_OPT"), DW_AT_const_value(0x00)
    2124                            .dwattr $C$DW$203, DW_AT_decl_file(".\..\packages\ti\vlib\src\VLIB_convertUYVYint_to_YUV420pl\
    2125                            .dwattr $C$DW$203, DW_AT_decl_line(0x6a)
    2126                            .dwattr $C$DW$203, DW_AT_decl_column(0x05)
    2127                    $C$DW$204       .dwtag  DW_TAG_enumerator, DW_AT_name("vlib_KERNEL_CN"), DW_AT_const_value(0x01)
    2128                            .dwattr $C$DW$204, DW_AT_decl_file(".\..\packages\ti\vlib\src\VLIB_convertUYVYint_to_YUV420pl\
    2129                            .dwattr $C$DW$204, DW_AT_decl_line(0x6b)
    2130                            .dwattr $C$DW$204, DW_AT_decl_column(0x05)
    2131                    $C$DW$205       .dwtag  DW_TAG_enumerator, DW_AT_name("vlib_KERNEL_CNT"), DW_AT_const_value(0x02)
    2132                            .dwattr $C$DW$205, DW_AT_decl_file(".\..\packages\ti\vlib\src\VLIB_convertUYVYint_to_YUV420pl\
    2133                            .dwattr $C$DW$205, DW_AT_decl_line(0x6c)
    2134                            .dwattr $C$DW$205, DW_AT_decl_column(0x05)
    2135                            .dwendtag $C$DW$T$38
    2136                    
    2137                            .dwattr $C$DW$T$38, DW_AT_decl_file(".\..\packages\ti\vlib\src\VLIB_convertUYVYint_to_YUV420pl
    2138                            .dwattr $C$DW$T$38, DW_AT_decl_line(0x69)
    2139                            .dwattr $C$DW$T$38, DW_AT_decl_column(0x06)
    2140                    
    2141                    $C$DW$T$39      .dwtag  DW_TAG_enumeration_type
    2142                            .dwattr $C$DW$T$39, DW_AT_byte_size(0x04)
    2143                    $C$DW$206       .dwtag  DW_TAG_enumerator, DW_AT_name("vlib_KERNEL_FAIL"), DW_AT_const_value(0x00)
    2144                            .dwattr $C$DW$206, DW_AT_decl_file(".\..\packages\ti\vlib\src\VLIB_convertUYVYint_to_YUV420pl\
    2145                            .dwattr $C$DW$206, DW_AT_decl_line(0x72)
    2146                            .dwattr $C$DW$206, DW_AT_decl_column(0x05)
    2147                    $C$DW$207       .dwtag  DW_TAG_enumerator, DW_AT_name("vlib_KERNEL_PASS"), DW_AT_const_value(0x01)
    2148                            .dwattr $C$DW$207, DW_AT_decl_file(".\..\packages\ti\vlib\src\VLIB_convertUYVYint_to_YUV420pl\
    2149                            .dwattr $C$DW$207, DW_AT_decl_line(0x73)
    2150                            .dwattr $C$DW$207, DW_AT_decl_column(0x05)
    2151                            .dwendtag $C$DW$T$39
    2152                    
    2153                            .dwattr $C$DW$T$39, DW_AT_decl_file(".\..\packages\ti\vlib\src\VLIB_convertUYVYint_to_YUV420pl
    2154                            .dwattr $C$DW$T$39, DW_AT_decl_line(0x71)
    2155                            .dwattr $C$DW$T$39, DW_AT_decl_column(0x06)
    2156                    
    2157                    $C$DW$T$23      .dwtag  DW_TAG_structure_type
    2158                            .dwattr $C$DW$T$23, DW_AT_byte_size(0x20)
    2159                    $C$DW$208       .dwtag  DW_TAG_member
    2160                            .dwattr $C$DW$208, DW_AT_type(*$C$DW$T$19)
    2161                            .dwattr $C$DW$208, DW_AT_name("testPattern")
    2162                            .dwattr $C$DW$208, DW_AT_TI_symbol_name("testPattern")
    2163                            .dwattr $C$DW$208, DW_AT_data_member_location[DW_OP_plus_uconst 0x0]
    2164                            .dwattr $C$DW$208, DW_AT_accessibility(DW_ACCESS_public)
    2165                            .dwattr $C$DW$208, DW_AT_decl_file(".\..\packages\ti\vlib\src\VLIB_convertUYVYint_to_YUV420pl\
    2166                            .dwattr $C$DW$208, DW_AT_decl_line(0x24)
    2167                            .dwattr $C$DW$208, DW_AT_decl_column(0x0e)
    2168                    $C$DW$209       .dwtag  DW_TAG_member
    2169                            .dwattr $C$DW$209, DW_AT_type(*$C$DW$T$20)
    2170                            .dwattr $C$DW$209, DW_AT_name("staticIn")
    2171                            .dwattr $C$DW$209, DW_AT_TI_symbol_name("staticIn")
    2172                            .dwattr $C$DW$209, DW_AT_data_member_location[DW_OP_plus_uconst 0x4]
    2173                            .dwattr $C$DW$209, DW_AT_accessibility(DW_ACCESS_public)
    2174                            .dwattr $C$DW$209, DW_AT_decl_file(".\..\packages\ti\vlib\src\VLIB_convertUYVYint_to_YUV420pl\
TMS320C6x Assembler PC v7.4.2 Thu Mar 19 12:40:28 2015

Tools Copyright (c) 1996-2012 Texas Instruments Incorporated
package/lib/Regression/regress_d_c/./../packages/ti/vlib/src/VLIB_convertUYVYint_to_YUV420pl/VLIB_convertUYVYint_to_YUV420pl_d.se66 PAGE   47

    2175                            .dwattr $C$DW$209, DW_AT_decl_line(0x25)
    2176                            .dwattr $C$DW$209, DW_AT_decl_column(0x0e)
    2177                    $C$DW$210       .dwtag  DW_TAG_member
    2178                            .dwattr $C$DW$210, DW_AT_type(*$C$DW$T$20)
    2179                            .dwattr $C$DW$210, DW_AT_name("staticOutY")
    2180                            .dwattr $C$DW$210, DW_AT_TI_symbol_name("staticOutY")
    2181                            .dwattr $C$DW$210, DW_AT_data_member_location[DW_OP_plus_uconst 0x8]
    2182                            .dwattr $C$DW$210, DW_AT_accessibility(DW_ACCESS_public)
    2183                            .dwattr $C$DW$210, DW_AT_decl_file(".\..\packages\ti\vlib\src\VLIB_convertUYVYint_to_YUV420pl\
    2184                            .dwattr $C$DW$210, DW_AT_decl_line(0x26)
    2185                            .dwattr $C$DW$210, DW_AT_decl_column(0x0e)
    2186                    $C$DW$211       .dwtag  DW_TAG_member
    2187                            .dwattr $C$DW$211, DW_AT_type(*$C$DW$T$20)
    2188                            .dwattr $C$DW$211, DW_AT_name("staticOutCr")
    2189                            .dwattr $C$DW$211, DW_AT_TI_symbol_name("staticOutCr")
    2190                            .dwattr $C$DW$211, DW_AT_data_member_location[DW_OP_plus_uconst 0xc]
    2191                            .dwattr $C$DW$211, DW_AT_accessibility(DW_ACCESS_public)
    2192                            .dwattr $C$DW$211, DW_AT_decl_file(".\..\packages\ti\vlib\src\VLIB_convertUYVYint_to_YUV420pl\
    2193                            .dwattr $C$DW$211, DW_AT_decl_line(0x27)
    2194                            .dwattr $C$DW$211, DW_AT_decl_column(0x0e)
    2195                    $C$DW$212       .dwtag  DW_TAG_member
    2196                            .dwattr $C$DW$212, DW_AT_type(*$C$DW$T$20)
    2197                            .dwattr $C$DW$212, DW_AT_name("staticOutCb")
    2198                            .dwattr $C$DW$212, DW_AT_TI_symbol_name("staticOutCb")
    2199                            .dwattr $C$DW$212, DW_AT_data_member_location[DW_OP_plus_uconst 0x10]
    2200                            .dwattr $C$DW$212, DW_AT_accessibility(DW_ACCESS_public)
    2201                            .dwattr $C$DW$212, DW_AT_decl_file(".\..\packages\ti\vlib\src\VLIB_convertUYVYint_to_YUV420pl\
    2202                            .dwattr $C$DW$212, DW_AT_decl_line(0x28)
    2203                            .dwattr $C$DW$212, DW_AT_decl_column(0x0e)
    2204                    $C$DW$213       .dwtag  DW_TAG_member
    2205                            .dwattr $C$DW$213, DW_AT_type(*$C$DW$T$21)
    2206                            .dwattr $C$DW$213, DW_AT_name("width")
    2207                            .dwattr $C$DW$213, DW_AT_TI_symbol_name("width")
    2208                            .dwattr $C$DW$213, DW_AT_data_member_location[DW_OP_plus_uconst 0x14]
    2209                            .dwattr $C$DW$213, DW_AT_accessibility(DW_ACCESS_public)
    2210                            .dwattr $C$DW$213, DW_AT_decl_file(".\..\packages\ti\vlib\src\VLIB_convertUYVYint_to_YUV420pl\
    2211                            .dwattr $C$DW$213, DW_AT_decl_line(0x29)
    2212                            .dwattr $C$DW$213, DW_AT_decl_column(0x0e)
    2213                    $C$DW$214       .dwtag  DW_TAG_member
    2214                            .dwattr $C$DW$214, DW_AT_type(*$C$DW$T$22)
    2215                            .dwattr $C$DW$214, DW_AT_name("pitch")
    2216                            .dwattr $C$DW$214, DW_AT_TI_symbol_name("pitch")
    2217                            .dwattr $C$DW$214, DW_AT_data_member_location[DW_OP_plus_uconst 0x18]
    2218                            .dwattr $C$DW$214, DW_AT_accessibility(DW_ACCESS_public)
    2219                            .dwattr $C$DW$214, DW_AT_decl_file(".\..\packages\ti\vlib\src\VLIB_convertUYVYint_to_YUV420pl\
    2220                            .dwattr $C$DW$214, DW_AT_decl_line(0x2a)
    2221                            .dwattr $C$DW$214, DW_AT_decl_column(0x0e)
    2222                    $C$DW$215       .dwtag  DW_TAG_member
    2223                            .dwattr $C$DW$215, DW_AT_type(*$C$DW$T$21)
    2224                            .dwattr $C$DW$215, DW_AT_name("height")
    2225                            .dwattr $C$DW$215, DW_AT_TI_symbol_name("height")
    2226                            .dwattr $C$DW$215, DW_AT_data_member_location[DW_OP_plus_uconst 0x1c]
    2227                            .dwattr $C$DW$215, DW_AT_accessibility(DW_ACCESS_public)
    2228                            .dwattr $C$DW$215, DW_AT_decl_file(".\..\packages\ti\vlib\src\VLIB_convertUYVYint_to_YUV420pl\
    2229                            .dwattr $C$DW$215, DW_AT_decl_line(0x2b)
TMS320C6x Assembler PC v7.4.2 Thu Mar 19 12:40:28 2015

Tools Copyright (c) 1996-2012 Texas Instruments Incorporated
package/lib/Regression/regress_d_c/./../packages/ti/vlib/src/VLIB_convertUYVYint_to_YUV420pl/VLIB_convertUYVYint_to_YUV420pl_d.se66 PAGE   48

    2230                            .dwattr $C$DW$215, DW_AT_decl_column(0x0e)
    2231                            .dwendtag $C$DW$T$23
    2232                    
    2233                            .dwattr $C$DW$T$23, DW_AT_decl_file(".\..\packages\ti\vlib\src\VLIB_convertUYVYint_to_YUV420pl
    2234                            .dwattr $C$DW$T$23, DW_AT_decl_line(0x23)
    2235                            .dwattr $C$DW$T$23, DW_AT_decl_column(0x10)
    2236                    $C$DW$T$40      .dwtag  DW_TAG_typedef, DW_AT_name("UYVYint_to_YUV420pl_testParams_t")
    2237                            .dwattr $C$DW$T$40, DW_AT_type(*$C$DW$T$23)
    2238                            .dwattr $C$DW$T$40, DW_AT_language(DW_LANG_C)
    2239                            .dwattr $C$DW$T$40, DW_AT_decl_file(".\..\packages\ti\vlib\src\VLIB_convertUYVYint_to_YUV420pl
    2240                            .dwattr $C$DW$T$40, DW_AT_decl_line(0x2c)
    2241                            .dwattr $C$DW$T$40, DW_AT_decl_column(0x03)
    2242                    $C$DW$T$41      .dwtag  DW_TAG_pointer_type
    2243                            .dwattr $C$DW$T$41, DW_AT_type(*$C$DW$T$40)
    2244                            .dwattr $C$DW$T$41, DW_AT_address_class(0x20)
    2245                    $C$DW$T$42      .dwtag  DW_TAG_pointer_type
    2246                            .dwattr $C$DW$T$42, DW_AT_type(*$C$DW$T$41)
    2247                            .dwattr $C$DW$T$42, DW_AT_address_class(0x20)
    2248                    $C$DW$T$43      .dwtag  DW_TAG_pointer_type
    2249                            .dwattr $C$DW$T$43, DW_AT_type(*$C$DW$T$23)
    2250                            .dwattr $C$DW$T$43, DW_AT_address_class(0x20)
    2251                    
    2252                    $C$DW$T$25      .dwtag  DW_TAG_structure_type
    2253                            .dwattr $C$DW$T$25, DW_AT_byte_size(0x18)
    2254                    $C$DW$216       .dwtag  DW_TAG_member
    2255                            .dwattr $C$DW$216, DW_AT_type(*$C$DW$T$10)
    2256                            .dwattr $C$DW$216, DW_AT_name("fd")
    2257                            .dwattr $C$DW$216, DW_AT_TI_symbol_name("fd")
    2258                            .dwattr $C$DW$216, DW_AT_data_member_location[DW_OP_plus_uconst 0x0]
    2259                            .dwattr $C$DW$216, DW_AT_accessibility(DW_ACCESS_public)
    2260                            .dwattr $C$DW$216, DW_AT_decl_file("C:/VLIB_Tools/CCSV5_4_0/ccsv5/tools/compiler/C6000/include
    2261                            .dwattr $C$DW$216, DW_AT_decl_line(0x49)
    2262                            .dwattr $C$DW$216, DW_AT_decl_column(0x0b)
    2263                    $C$DW$217       .dwtag  DW_TAG_member
    2264                            .dwattr $C$DW$217, DW_AT_type(*$C$DW$T$24)
    2265                            .dwattr $C$DW$217, DW_AT_name("buf")
    2266                            .dwattr $C$DW$217, DW_AT_TI_symbol_name("buf")
    2267                            .dwattr $C$DW$217, DW_AT_data_member_location[DW_OP_plus_uconst 0x4]
    2268                            .dwattr $C$DW$217, DW_AT_accessibility(DW_ACCESS_public)
    2269                            .dwattr $C$DW$217, DW_AT_decl_file("C:/VLIB_Tools/CCSV5_4_0/ccsv5/tools/compiler/C6000/include
    2270                            .dwattr $C$DW$217, DW_AT_decl_line(0x4a)
    2271                            .dwattr $C$DW$217, DW_AT_decl_column(0x16)
    2272                    $C$DW$218       .dwtag  DW_TAG_member
    2273                            .dwattr $C$DW$218, DW_AT_type(*$C$DW$T$24)
    2274                            .dwattr $C$DW$218, DW_AT_name("pos")
    2275                            .dwattr $C$DW$218, DW_AT_TI_symbol_name("pos")
    2276                            .dwattr $C$DW$218, DW_AT_data_member_location[DW_OP_plus_uconst 0x8]
    2277                            .dwattr $C$DW$218, DW_AT_accessibility(DW_ACCESS_public)
    2278                            .dwattr $C$DW$218, DW_AT_decl_file("C:/VLIB_Tools/CCSV5_4_0/ccsv5/tools/compiler/C6000/include
    2279                            .dwattr $C$DW$218, DW_AT_decl_line(0x4b)
    2280                            .dwattr $C$DW$218, DW_AT_decl_column(0x16)
    2281                    $C$DW$219       .dwtag  DW_TAG_member
    2282                            .dwattr $C$DW$219, DW_AT_type(*$C$DW$T$24)
    2283                            .dwattr $C$DW$219, DW_AT_name("bufend")
    2284                            .dwattr $C$DW$219, DW_AT_TI_symbol_name("bufend")
TMS320C6x Assembler PC v7.4.2 Thu Mar 19 12:40:28 2015

Tools Copyright (c) 1996-2012 Texas Instruments Incorporated
package/lib/Regression/regress_d_c/./../packages/ti/vlib/src/VLIB_convertUYVYint_to_YUV420pl/VLIB_convertUYVYint_to_YUV420pl_d.se66 PAGE   49

    2285                            .dwattr $C$DW$219, DW_AT_data_member_location[DW_OP_plus_uconst 0xc]
    2286                            .dwattr $C$DW$219, DW_AT_accessibility(DW_ACCESS_public)
    2287                            .dwattr $C$DW$219, DW_AT_decl_file("C:/VLIB_Tools/CCSV5_4_0/ccsv5/tools/compiler/C6000/include
    2288                            .dwattr $C$DW$219, DW_AT_decl_line(0x4c)
    2289                            .dwattr $C$DW$219, DW_AT_decl_column(0x16)
    2290                    $C$DW$220       .dwtag  DW_TAG_member
    2291                            .dwattr $C$DW$220, DW_AT_type(*$C$DW$T$24)
    2292                            .dwattr $C$DW$220, DW_AT_name("buff_stop")
    2293                            .dwattr $C$DW$220, DW_AT_TI_symbol_name("buff_stop")
    2294                            .dwattr $C$DW$220, DW_AT_data_member_location[DW_OP_plus_uconst 0x10]
    2295                            .dwattr $C$DW$220, DW_AT_accessibility(DW_ACCESS_public)
    2296                            .dwattr $C$DW$220, DW_AT_decl_file("C:/VLIB_Tools/CCSV5_4_0/ccsv5/tools/compiler/C6000/include
    2297                            .dwattr $C$DW$220, DW_AT_decl_line(0x4d)
    2298                            .dwattr $C$DW$220, DW_AT_decl_column(0x16)
    2299                    $C$DW$221       .dwtag  DW_TAG_member
    2300                            .dwattr $C$DW$221, DW_AT_type(*$C$DW$T$11)
    2301                            .dwattr $C$DW$221, DW_AT_name("flags")
    2302                            .dwattr $C$DW$221, DW_AT_TI_symbol_name("flags")
    2303                            .dwattr $C$DW$221, DW_AT_data_member_location[DW_OP_plus_uconst 0x14]
    2304                            .dwattr $C$DW$221, DW_AT_accessibility(DW_ACCESS_public)
    2305                            .dwattr $C$DW$221, DW_AT_decl_file("C:/VLIB_Tools/CCSV5_4_0/ccsv5/tools/compiler/C6000/include
    2306                            .dwattr $C$DW$221, DW_AT_decl_line(0x4e)
    2307                            .dwattr $C$DW$221, DW_AT_decl_column(0x16)
    2308                            .dwendtag $C$DW$T$25
    2309                    
    2310                            .dwattr $C$DW$T$25, DW_AT_decl_file("C:/VLIB_Tools/CCSV5_4_0/ccsv5/tools/compiler/C6000/includ
    2311                            .dwattr $C$DW$T$25, DW_AT_decl_line(0x48)
    2312                            .dwattr $C$DW$T$25, DW_AT_decl_column(0x10)
    2313                    $C$DW$T$45      .dwtag  DW_TAG_typedef, DW_AT_name("FILE")
    2314                            .dwattr $C$DW$T$45, DW_AT_type(*$C$DW$T$25)
    2315                            .dwattr $C$DW$T$45, DW_AT_language(DW_LANG_C)
    2316                            .dwattr $C$DW$T$45, DW_AT_decl_file("C:/VLIB_Tools/CCSV5_4_0/ccsv5/tools/compiler/C6000/includ
    2317                            .dwattr $C$DW$T$45, DW_AT_decl_line(0x4f)
    2318                            .dwattr $C$DW$T$45, DW_AT_decl_column(0x03)
    2319                    
    2320                    $C$DW$T$26      .dwtag  DW_TAG_structure_type
    2321                            .dwattr $C$DW$T$26, DW_AT_byte_size(0x08)
    2322                    $C$DW$222       .dwtag  DW_TAG_member
    2323                            .dwattr $C$DW$222, DW_AT_type(*$C$DW$T$10)
    2324                            .dwattr $C$DW$222, DW_AT_name("quot")
    2325                            .dwattr $C$DW$222, DW_AT_TI_symbol_name("quot")
    2326                            .dwattr $C$DW$222, DW_AT_data_member_location[DW_OP_plus_uconst 0x0]
    2327                            .dwattr $C$DW$222, DW_AT_accessibility(DW_ACCESS_public)
    2328                            .dwattr $C$DW$222, DW_AT_decl_file("C:/VLIB_Tools/CCSV5_4_0/ccsv5/tools/compiler/C6000/include
    2329                            .dwattr $C$DW$222, DW_AT_decl_line(0x3e)
    2330                            .dwattr $C$DW$222, DW_AT_decl_column(0x16)
    2331                    $C$DW$223       .dwtag  DW_TAG_member
    2332                            .dwattr $C$DW$223, DW_AT_type(*$C$DW$T$10)
    2333                            .dwattr $C$DW$223, DW_AT_name("rem")
    2334                            .dwattr $C$DW$223, DW_AT_TI_symbol_name("rem")
    2335                            .dwattr $C$DW$223, DW_AT_data_member_location[DW_OP_plus_uconst 0x4]
    2336                            .dwattr $C$DW$223, DW_AT_accessibility(DW_ACCESS_public)
    2337                            .dwattr $C$DW$223, DW_AT_decl_file("C:/VLIB_Tools/CCSV5_4_0/ccsv5/tools/compiler/C6000/include
    2338                            .dwattr $C$DW$223, DW_AT_decl_line(0x3e)
    2339                            .dwattr $C$DW$223, DW_AT_decl_column(0x1c)
TMS320C6x Assembler PC v7.4.2 Thu Mar 19 12:40:28 2015

Tools Copyright (c) 1996-2012 Texas Instruments Incorporated
package/lib/Regression/regress_d_c/./../packages/ti/vlib/src/VLIB_convertUYVYint_to_YUV420pl/VLIB_convertUYVYint_to_YUV420pl_d.se66 PAGE   50

    2340                            .dwendtag $C$DW$T$26
    2341                    
    2342                            .dwattr $C$DW$T$26, DW_AT_decl_file("C:/VLIB_Tools/CCSV5_4_0/ccsv5/tools/compiler/C6000/includ
    2343                            .dwattr $C$DW$T$26, DW_AT_decl_line(0x3e)
    2344                            .dwattr $C$DW$T$26, DW_AT_decl_column(0x10)
    2345                    $C$DW$T$46      .dwtag  DW_TAG_typedef, DW_AT_name("div_t")
    2346                            .dwattr $C$DW$T$46, DW_AT_type(*$C$DW$T$26)
    2347                            .dwattr $C$DW$T$46, DW_AT_language(DW_LANG_C)
    2348                            .dwattr $C$DW$T$46, DW_AT_decl_file("C:/VLIB_Tools/CCSV5_4_0/ccsv5/tools/compiler/C6000/includ
    2349                            .dwattr $C$DW$T$46, DW_AT_decl_line(0x3e)
    2350                            .dwattr $C$DW$T$46, DW_AT_decl_column(0x23)
    2351                    
    2352                    $C$DW$T$27      .dwtag  DW_TAG_structure_type
    2353                            .dwattr $C$DW$T$27, DW_AT_byte_size(0x08)
    2354                    $C$DW$224       .dwtag  DW_TAG_member
    2355                            .dwattr $C$DW$224, DW_AT_type(*$C$DW$T$10)
    2356                            .dwattr $C$DW$224, DW_AT_name("quot")
    2357                            .dwattr $C$DW$224, DW_AT_TI_symbol_name("quot")
    2358                            .dwattr $C$DW$224, DW_AT_data_member_location[DW_OP_plus_uconst 0x0]
    2359                            .dwattr $C$DW$224, DW_AT_accessibility(DW_ACCESS_public)
    2360                            .dwattr $C$DW$224, DW_AT_decl_file("C:/VLIB_Tools/CCSV5_4_0/ccsv5/tools/compiler/C6000/include
    2361                            .dwattr $C$DW$224, DW_AT_decl_line(0x40)
    2362                            .dwattr $C$DW$224, DW_AT_decl_column(0x17)
    2363                    $C$DW$225       .dwtag  DW_TAG_member
    2364                            .dwattr $C$DW$225, DW_AT_type(*$C$DW$T$10)
    2365                            .dwattr $C$DW$225, DW_AT_name("rem")
    2366                            .dwattr $C$DW$225, DW_AT_TI_symbol_name("rem")
    2367                            .dwattr $C$DW$225, DW_AT_data_member_location[DW_OP_plus_uconst 0x4]
    2368                            .dwattr $C$DW$225, DW_AT_accessibility(DW_ACCESS_public)
    2369                            .dwattr $C$DW$225, DW_AT_decl_file("C:/VLIB_Tools/CCSV5_4_0/ccsv5/tools/compiler/C6000/include
    2370                            .dwattr $C$DW$225, DW_AT_decl_line(0x40)
    2371                            .dwattr $C$DW$225, DW_AT_decl_column(0x1d)
    2372                            .dwendtag $C$DW$T$27
    2373                    
    2374                            .dwattr $C$DW$T$27, DW_AT_decl_file("C:/VLIB_Tools/CCSV5_4_0/ccsv5/tools/compiler/C6000/includ
    2375                            .dwattr $C$DW$T$27, DW_AT_decl_line(0x40)
    2376                            .dwattr $C$DW$T$27, DW_AT_decl_column(0x10)
    2377                    $C$DW$T$47      .dwtag  DW_TAG_typedef, DW_AT_name("ldiv_t")
    2378                            .dwattr $C$DW$T$47, DW_AT_type(*$C$DW$T$27)
    2379                            .dwattr $C$DW$T$47, DW_AT_language(DW_LANG_C)
    2380                            .dwattr $C$DW$T$47, DW_AT_decl_file("C:/VLIB_Tools/CCSV5_4_0/ccsv5/tools/compiler/C6000/includ
    2381                            .dwattr $C$DW$T$47, DW_AT_decl_line(0x40)
    2382                            .dwattr $C$DW$T$47, DW_AT_decl_column(0x24)
    2383                    
    2384                    $C$DW$T$28      .dwtag  DW_TAG_structure_type
    2385                            .dwattr $C$DW$T$28, DW_AT_byte_size(0x10)
    2386                    $C$DW$226       .dwtag  DW_TAG_member
    2387                            .dwattr $C$DW$226, DW_AT_type(*$C$DW$T$14)
    2388                            .dwattr $C$DW$226, DW_AT_name("quot")
    2389                            .dwattr $C$DW$226, DW_AT_TI_symbol_name("quot")
    2390                            .dwattr $C$DW$226, DW_AT_data_member_location[DW_OP_plus_uconst 0x0]
    2391                            .dwattr $C$DW$226, DW_AT_accessibility(DW_ACCESS_public)
    2392                            .dwattr $C$DW$226, DW_AT_decl_file("C:/VLIB_Tools/CCSV5_4_0/ccsv5/tools/compiler/C6000/include
    2393                            .dwattr $C$DW$226, DW_AT_decl_line(0x43)
    2394                            .dwattr $C$DW$226, DW_AT_decl_column(0x1c)
TMS320C6x Assembler PC v7.4.2 Thu Mar 19 12:40:28 2015

Tools Copyright (c) 1996-2012 Texas Instruments Incorporated
package/lib/Regression/regress_d_c/./../packages/ti/vlib/src/VLIB_convertUYVYint_to_YUV420pl/VLIB_convertUYVYint_to_YUV420pl_d.se66 PAGE   51

    2395                    $C$DW$227       .dwtag  DW_TAG_member
    2396                            .dwattr $C$DW$227, DW_AT_type(*$C$DW$T$14)
    2397                            .dwattr $C$DW$227, DW_AT_name("rem")
    2398                            .dwattr $C$DW$227, DW_AT_TI_symbol_name("rem")
    2399                            .dwattr $C$DW$227, DW_AT_data_member_location[DW_OP_plus_uconst 0x8]
    2400                            .dwattr $C$DW$227, DW_AT_accessibility(DW_ACCESS_public)
    2401                            .dwattr $C$DW$227, DW_AT_decl_file("C:/VLIB_Tools/CCSV5_4_0/ccsv5/tools/compiler/C6000/include
    2402                            .dwattr $C$DW$227, DW_AT_decl_line(0x43)
    2403                            .dwattr $C$DW$227, DW_AT_decl_column(0x22)
    2404                            .dwendtag $C$DW$T$28
    2405                    
    2406                            .dwattr $C$DW$T$28, DW_AT_decl_file("C:/VLIB_Tools/CCSV5_4_0/ccsv5/tools/compiler/C6000/includ
    2407                            .dwattr $C$DW$T$28, DW_AT_decl_line(0x43)
    2408                            .dwattr $C$DW$T$28, DW_AT_decl_column(0x10)
    2409                    $C$DW$T$48      .dwtag  DW_TAG_typedef, DW_AT_name("lldiv_t")
    2410                            .dwattr $C$DW$T$48, DW_AT_type(*$C$DW$T$28)
    2411                            .dwattr $C$DW$T$48, DW_AT_language(DW_LANG_C)
    2412                            .dwattr $C$DW$T$48, DW_AT_decl_file("C:/VLIB_Tools/CCSV5_4_0/ccsv5/tools/compiler/C6000/includ
    2413                            .dwattr $C$DW$T$48, DW_AT_decl_line(0x43)
    2414                            .dwattr $C$DW$T$48, DW_AT_decl_column(0x29)
    2415                    
    2416                    $C$DW$T$29      .dwtag  DW_TAG_structure_type
    2417                            .dwattr $C$DW$T$29, DW_AT_byte_size(0x24)
    2418                    $C$DW$228       .dwtag  DW_TAG_member
    2419                            .dwattr $C$DW$228, DW_AT_type(*$C$DW$T$22)
    2420                            .dwattr $C$DW$228, DW_AT_name("area")
    2421                            .dwattr $C$DW$228, DW_AT_TI_symbol_name("area")
    2422                            .dwattr $C$DW$228, DW_AT_data_member_location[DW_OP_plus_uconst 0x0]
    2423                            .dwattr $C$DW$228, DW_AT_accessibility(DW_ACCESS_public)
    2424                            .dwattr $C$DW$228, DW_AT_decl_file(".\..\packages\ti\vlib\src\VLIB_convertUYVYint_to_YUV420pl\
    2425                            .dwattr $C$DW$228, DW_AT_decl_line(0x69)
    2426                            .dwattr $C$DW$228, DW_AT_decl_column(0x0d)
    2427                    $C$DW$229       .dwtag  DW_TAG_member
    2428                            .dwattr $C$DW$229, DW_AT_type(*$C$DW$T$22)
    2429                            .dwattr $C$DW$229, DW_AT_name("xsum")
    2430                            .dwattr $C$DW$229, DW_AT_TI_symbol_name("xsum")
    2431                            .dwattr $C$DW$229, DW_AT_data_member_location[DW_OP_plus_uconst 0x4]
    2432                            .dwattr $C$DW$229, DW_AT_accessibility(DW_ACCESS_public)
    2433                            .dwattr $C$DW$229, DW_AT_decl_file(".\..\packages\ti\vlib\src\VLIB_convertUYVYint_to_YUV420pl\
    2434                            .dwattr $C$DW$229, DW_AT_decl_line(0x6a)
    2435                            .dwattr $C$DW$229, DW_AT_decl_column(0x0d)
    2436                    $C$DW$230       .dwtag  DW_TAG_member
    2437                            .dwattr $C$DW$230, DW_AT_type(*$C$DW$T$22)
    2438                            .dwattr $C$DW$230, DW_AT_name("ysum")
    2439                            .dwattr $C$DW$230, DW_AT_TI_symbol_name("ysum")
    2440                            .dwattr $C$DW$230, DW_AT_data_member_location[DW_OP_plus_uconst 0x8]
    2441                            .dwattr $C$DW$230, DW_AT_accessibility(DW_ACCESS_public)
    2442                            .dwattr $C$DW$230, DW_AT_decl_file(".\..\packages\ti\vlib\src\VLIB_convertUYVYint_to_YUV420pl\
    2443                            .dwattr $C$DW$230, DW_AT_decl_line(0x6b)
    2444                            .dwattr $C$DW$230, DW_AT_decl_column(0x0d)
    2445                    $C$DW$231       .dwtag  DW_TAG_member
    2446                            .dwattr $C$DW$231, DW_AT_type(*$C$DW$T$22)
    2447                            .dwattr $C$DW$231, DW_AT_name("xmin")
    2448                            .dwattr $C$DW$231, DW_AT_TI_symbol_name("xmin")
    2449                            .dwattr $C$DW$231, DW_AT_data_member_location[DW_OP_plus_uconst 0xc]
TMS320C6x Assembler PC v7.4.2 Thu Mar 19 12:40:28 2015

Tools Copyright (c) 1996-2012 Texas Instruments Incorporated
package/lib/Regression/regress_d_c/./../packages/ti/vlib/src/VLIB_convertUYVYint_to_YUV420pl/VLIB_convertUYVYint_to_YUV420pl_d.se66 PAGE   52

    2450                            .dwattr $C$DW$231, DW_AT_accessibility(DW_ACCESS_public)
    2451                            .dwattr $C$DW$231, DW_AT_decl_file(".\..\packages\ti\vlib\src\VLIB_convertUYVYint_to_YUV420pl\
    2452                            .dwattr $C$DW$231, DW_AT_decl_line(0x6d)
    2453                            .dwattr $C$DW$231, DW_AT_decl_column(0x0d)
    2454                    $C$DW$232       .dwtag  DW_TAG_member
    2455                            .dwattr $C$DW$232, DW_AT_type(*$C$DW$T$22)
    2456                            .dwattr $C$DW$232, DW_AT_name("ymin")
    2457                            .dwattr $C$DW$232, DW_AT_TI_symbol_name("ymin")
    2458                            .dwattr $C$DW$232, DW_AT_data_member_location[DW_OP_plus_uconst 0x10]
    2459                            .dwattr $C$DW$232, DW_AT_accessibility(DW_ACCESS_public)
    2460                            .dwattr $C$DW$232, DW_AT_decl_file(".\..\packages\ti\vlib\src\VLIB_convertUYVYint_to_YUV420pl\
    2461                            .dwattr $C$DW$232, DW_AT_decl_line(0x6e)
    2462                            .dwattr $C$DW$232, DW_AT_decl_column(0x0d)
    2463                    $C$DW$233       .dwtag  DW_TAG_member
    2464                            .dwattr $C$DW$233, DW_AT_type(*$C$DW$T$22)
    2465                            .dwattr $C$DW$233, DW_AT_name("xmax")
    2466                            .dwattr $C$DW$233, DW_AT_TI_symbol_name("xmax")
    2467                            .dwattr $C$DW$233, DW_AT_data_member_location[DW_OP_plus_uconst 0x14]
    2468                            .dwattr $C$DW$233, DW_AT_accessibility(DW_ACCESS_public)
    2469                            .dwattr $C$DW$233, DW_AT_decl_file(".\..\packages\ti\vlib\src\VLIB_convertUYVYint_to_YUV420pl\
    2470                            .dwattr $C$DW$233, DW_AT_decl_line(0x6f)
    2471                            .dwattr $C$DW$233, DW_AT_decl_column(0x0d)
    2472                    $C$DW$234       .dwtag  DW_TAG_member
    2473                            .dwattr $C$DW$234, DW_AT_type(*$C$DW$T$22)
    2474                            .dwattr $C$DW$234, DW_AT_name("ymax")
    2475                            .dwattr $C$DW$234, DW_AT_TI_symbol_name("ymax")
    2476                            .dwattr $C$DW$234, DW_AT_data_member_location[DW_OP_plus_uconst 0x18]
    2477                            .dwattr $C$DW$234, DW_AT_accessibility(DW_ACCESS_public)
    2478                            .dwattr $C$DW$234, DW_AT_decl_file(".\..\packages\ti\vlib\src\VLIB_convertUYVYint_to_YUV420pl\
    2479                            .dwattr $C$DW$234, DW_AT_decl_line(0x70)
    2480                            .dwattr $C$DW$234, DW_AT_decl_column(0x0d)
    2481                    $C$DW$235       .dwtag  DW_TAG_member
    2482                            .dwattr $C$DW$235, DW_AT_type(*$C$DW$T$22)
    2483                            .dwattr $C$DW$235, DW_AT_name("seedx")
    2484                            .dwattr $C$DW$235, DW_AT_TI_symbol_name("seedx")
    2485                            .dwattr $C$DW$235, DW_AT_data_member_location[DW_OP_plus_uconst 0x1c]
    2486                            .dwattr $C$DW$235, DW_AT_accessibility(DW_ACCESS_public)
    2487                            .dwattr $C$DW$235, DW_AT_decl_file(".\..\packages\ti\vlib\src\VLIB_convertUYVYint_to_YUV420pl\
    2488                            .dwattr $C$DW$235, DW_AT_decl_line(0x72)
    2489                            .dwattr $C$DW$235, DW_AT_decl_column(0x0d)
    2490                    $C$DW$236       .dwtag  DW_TAG_member
    2491                            .dwattr $C$DW$236, DW_AT_type(*$C$DW$T$22)
    2492                            .dwattr $C$DW$236, DW_AT_name("seedy")
    2493                            .dwattr $C$DW$236, DW_AT_TI_symbol_name("seedy")
    2494                            .dwattr $C$DW$236, DW_AT_data_member_location[DW_OP_plus_uconst 0x20]
    2495                            .dwattr $C$DW$236, DW_AT_accessibility(DW_ACCESS_public)
    2496                            .dwattr $C$DW$236, DW_AT_decl_file(".\..\packages\ti\vlib\src\VLIB_convertUYVYint_to_YUV420pl\
    2497                            .dwattr $C$DW$236, DW_AT_decl_line(0x73)
    2498                            .dwattr $C$DW$236, DW_AT_decl_column(0x0d)
    2499                            .dwendtag $C$DW$T$29
    2500                    
    2501                            .dwattr $C$DW$T$29, DW_AT_decl_file(".\..\packages\ti\vlib\src\VLIB_convertUYVYint_to_YUV420pl
    2502                            .dwattr $C$DW$T$29, DW_AT_decl_line(0x68)
    2503                            .dwattr $C$DW$T$29, DW_AT_decl_column(0x10)
    2504                    $C$DW$T$49      .dwtag  DW_TAG_typedef, DW_AT_name("VLIB_CC")
TMS320C6x Assembler PC v7.4.2 Thu Mar 19 12:40:28 2015

Tools Copyright (c) 1996-2012 Texas Instruments Incorporated
package/lib/Regression/regress_d_c/./../packages/ti/vlib/src/VLIB_convertUYVYint_to_YUV420pl/VLIB_convertUYVYint_to_YUV420pl_d.se66 PAGE   53

    2505                            .dwattr $C$DW$T$49, DW_AT_type(*$C$DW$T$29)
    2506                            .dwattr $C$DW$T$49, DW_AT_language(DW_LANG_C)
    2507                            .dwattr $C$DW$T$49, DW_AT_decl_file(".\..\packages\ti\vlib\src\VLIB_convertUYVYint_to_YUV420pl
    2508                            .dwattr $C$DW$T$49, DW_AT_decl_line(0x75)
    2509                            .dwattr $C$DW$T$49, DW_AT_decl_column(0x03)
    2510                    
    2511                    $C$DW$T$32      .dwtag  DW_TAG_structure_type
    2512                            .dwattr $C$DW$T$32, DW_AT_byte_size(0x10)
    2513                    $C$DW$237       .dwtag  DW_TAG_member
    2514                            .dwattr $C$DW$237, DW_AT_type(*$C$DW$T$8)
    2515                            .dwattr $C$DW$237, DW_AT_name("daylight")
    2516                            .dwattr $C$DW$237, DW_AT_TI_symbol_name("daylight")
    2517                            .dwattr $C$DW$237, DW_AT_data_member_location[DW_OP_plus_uconst 0x0]
    2518                            .dwattr $C$DW$237, DW_AT_accessibility(DW_ACCESS_public)
    2519                            .dwattr $C$DW$237, DW_AT_decl_file("C:/VLIB_Tools/CCSV5_4_0/ccsv5/tools/compiler/C6000/include
    2520                            .dwattr $C$DW$237, DW_AT_decl_line(0x52)
    2521                            .dwattr $C$DW$237, DW_AT_decl_column(0x0b)
    2522                    $C$DW$238       .dwtag  DW_TAG_member
    2523                            .dwattr $C$DW$238, DW_AT_type(*$C$DW$T$10)
    2524                            .dwattr $C$DW$238, DW_AT_name("timezone")
    2525                            .dwattr $C$DW$238, DW_AT_TI_symbol_name("timezone")
    2526                            .dwattr $C$DW$238, DW_AT_data_member_location[DW_OP_plus_uconst 0x4]
    2527                            .dwattr $C$DW$238, DW_AT_accessibility(DW_ACCESS_public)
    2528                            .dwattr $C$DW$238, DW_AT_decl_file("C:/VLIB_Tools/CCSV5_4_0/ccsv5/tools/compiler/C6000/include
    2529                            .dwattr $C$DW$238, DW_AT_decl_line(0x53)
    2530                            .dwattr $C$DW$238, DW_AT_decl_column(0x0b)
    2531                    $C$DW$239       .dwtag  DW_TAG_member
    2532                            .dwattr $C$DW$239, DW_AT_type(*$C$DW$T$31)
    2533                            .dwattr $C$DW$239, DW_AT_name("tzname")
    2534                            .dwattr $C$DW$239, DW_AT_TI_symbol_name("tzname")
    2535                            .dwattr $C$DW$239, DW_AT_data_member_location[DW_OP_plus_uconst 0x8]
    2536                            .dwattr $C$DW$239, DW_AT_accessibility(DW_ACCESS_public)
    2537                            .dwattr $C$DW$239, DW_AT_decl_file("C:/VLIB_Tools/CCSV5_4_0/ccsv5/tools/compiler/C6000/include
    2538                            .dwattr $C$DW$239, DW_AT_decl_line(0x54)
    2539                            .dwattr $C$DW$239, DW_AT_decl_column(0x0b)
    2540                    $C$DW$240       .dwtag  DW_TAG_member
    2541                            .dwattr $C$DW$240, DW_AT_type(*$C$DW$T$31)
    2542                            .dwattr $C$DW$240, DW_AT_name("dstname")
    2543                            .dwattr $C$DW$240, DW_AT_TI_symbol_name("dstname")
    2544                            .dwattr $C$DW$240, DW_AT_data_member_location[DW_OP_plus_uconst 0xc]
    2545                            .dwattr $C$DW$240, DW_AT_accessibility(DW_ACCESS_public)
    2546                            .dwattr $C$DW$240, DW_AT_decl_file("C:/VLIB_Tools/CCSV5_4_0/ccsv5/tools/compiler/C6000/include
    2547                            .dwattr $C$DW$240, DW_AT_decl_line(0x55)
    2548                            .dwattr $C$DW$240, DW_AT_decl_column(0x0b)
    2549                            .dwendtag $C$DW$T$32
    2550                    
    2551                            .dwattr $C$DW$T$32, DW_AT_decl_file("C:/VLIB_Tools/CCSV5_4_0/ccsv5/tools/compiler/C6000/includ
    2552                            .dwattr $C$DW$T$32, DW_AT_decl_line(0x51)
    2553                            .dwattr $C$DW$T$32, DW_AT_decl_column(0x01)
    2554                    $C$DW$T$50      .dwtag  DW_TAG_typedef, DW_AT_name("TZ")
    2555                            .dwattr $C$DW$T$50, DW_AT_type(*$C$DW$T$32)
    2556                            .dwattr $C$DW$T$50, DW_AT_language(DW_LANG_C)
    2557                            .dwattr $C$DW$T$50, DW_AT_decl_file("C:/VLIB_Tools/CCSV5_4_0/ccsv5/tools/compiler/C6000/includ
    2558                            .dwattr $C$DW$T$50, DW_AT_decl_line(0x56)
    2559                            .dwattr $C$DW$T$50, DW_AT_decl_column(0x03)
TMS320C6x Assembler PC v7.4.2 Thu Mar 19 12:40:28 2015

Tools Copyright (c) 1996-2012 Texas Instruments Incorporated
package/lib/Regression/regress_d_c/./../packages/ti/vlib/src/VLIB_convertUYVYint_to_YUV420pl/VLIB_convertUYVYint_to_YUV420pl_d.se66 PAGE   54

    2560                    $C$DW$T$2       .dwtag  DW_TAG_unspecified_type
    2561                            .dwattr $C$DW$T$2, DW_AT_name("void")
    2562                    $C$DW$T$3       .dwtag  DW_TAG_pointer_type
    2563                            .dwattr $C$DW$T$3, DW_AT_type(*$C$DW$T$2)
    2564                            .dwattr $C$DW$T$3, DW_AT_address_class(0x20)
    2565                    $C$DW$T$51      .dwtag  DW_TAG_typedef, DW_AT_name("VLIB_PTR")
    2566                            .dwattr $C$DW$T$51, DW_AT_type(*$C$DW$T$3)
    2567                            .dwattr $C$DW$T$51, DW_AT_language(DW_LANG_C)
    2568                            .dwattr $C$DW$T$51, DW_AT_decl_file(".\..\packages\ti\vlib\src\VLIB_convertUYVYint_to_YUV420pl
    2569                            .dwattr $C$DW$T$51, DW_AT_decl_line(0x5c)
    2570                            .dwattr $C$DW$T$51, DW_AT_decl_column(0x19)
    2571                    $C$DW$T$4       .dwtag  DW_TAG_base_type
    2572                            .dwattr $C$DW$T$4, DW_AT_encoding(DW_ATE_boolean)
    2573                            .dwattr $C$DW$T$4, DW_AT_name("bool")
    2574                            .dwattr $C$DW$T$4, DW_AT_byte_size(0x01)
    2575                    $C$DW$T$5       .dwtag  DW_TAG_base_type
    2576                            .dwattr $C$DW$T$5, DW_AT_encoding(DW_ATE_signed_char)
    2577                            .dwattr $C$DW$T$5, DW_AT_name("signed char")
    2578                            .dwattr $C$DW$T$5, DW_AT_byte_size(0x01)
    2579                    $C$DW$T$80      .dwtag  DW_TAG_pointer_type
    2580                            .dwattr $C$DW$T$80, DW_AT_type(*$C$DW$T$5)
    2581                            .dwattr $C$DW$T$80, DW_AT_address_class(0x20)
    2582                    $C$DW$T$90      .dwtag  DW_TAG_typedef, DW_AT_name("int8_t")
    2583                            .dwattr $C$DW$T$90, DW_AT_type(*$C$DW$T$5)
    2584                            .dwattr $C$DW$T$90, DW_AT_language(DW_LANG_C)
    2585                            .dwattr $C$DW$T$90, DW_AT_decl_file("C:/VLIB_Tools/CCSV5_4_0/ccsv5/tools/compiler/C6000/includ
    2586                            .dwattr $C$DW$T$90, DW_AT_decl_line(0x2a)
    2587                            .dwattr $C$DW$T$90, DW_AT_decl_column(0x1d)
    2588                    $C$DW$T$91      .dwtag  DW_TAG_typedef, DW_AT_name("int_least8_t")
    2589                            .dwattr $C$DW$T$91, DW_AT_type(*$C$DW$T$90)
    2590                            .dwattr $C$DW$T$91, DW_AT_language(DW_LANG_C)
    2591                            .dwattr $C$DW$T$91, DW_AT_decl_file("C:/VLIB_Tools/CCSV5_4_0/ccsv5/tools/compiler/C6000/includ
    2592                            .dwattr $C$DW$T$91, DW_AT_decl_line(0x39)
    2593                            .dwattr $C$DW$T$91, DW_AT_decl_column(0x17)
    2594                    $C$DW$T$6       .dwtag  DW_TAG_base_type
    2595                            .dwattr $C$DW$T$6, DW_AT_encoding(DW_ATE_unsigned_char)
    2596                            .dwattr $C$DW$T$6, DW_AT_name("unsigned char")
    2597                            .dwattr $C$DW$T$6, DW_AT_byte_size(0x01)
    2598                    $C$DW$T$24      .dwtag  DW_TAG_pointer_type
    2599                            .dwattr $C$DW$T$24, DW_AT_type(*$C$DW$T$6)
    2600                            .dwattr $C$DW$T$24, DW_AT_address_class(0x20)
    2601                    $C$DW$T$19      .dwtag  DW_TAG_typedef, DW_AT_name("uint8_t")
    2602                            .dwattr $C$DW$T$19, DW_AT_type(*$C$DW$T$6)
    2603                            .dwattr $C$DW$T$19, DW_AT_language(DW_LANG_C)
    2604                            .dwattr $C$DW$T$19, DW_AT_decl_file("C:/VLIB_Tools/CCSV5_4_0/ccsv5/tools/compiler/C6000/includ
    2605                            .dwattr $C$DW$T$19, DW_AT_decl_line(0x2b)
    2606                            .dwattr $C$DW$T$19, DW_AT_decl_column(0x1c)
    2607                    $C$DW$T$20      .dwtag  DW_TAG_pointer_type
    2608                            .dwattr $C$DW$T$20, DW_AT_type(*$C$DW$T$19)
    2609                            .dwattr $C$DW$T$20, DW_AT_address_class(0x20)
    2610                    $C$DW$T$92      .dwtag  DW_TAG_restrict_type
    2611                            .dwattr $C$DW$T$92, DW_AT_type(*$C$DW$T$20)
    2612                    $C$DW$T$93      .dwtag  DW_TAG_const_type
    2613                            .dwattr $C$DW$T$93, DW_AT_type(*$C$DW$T$19)
    2614                    $C$DW$T$94      .dwtag  DW_TAG_pointer_type
TMS320C6x Assembler PC v7.4.2 Thu Mar 19 12:40:28 2015

Tools Copyright (c) 1996-2012 Texas Instruments Incorporated
package/lib/Regression/regress_d_c/./../packages/ti/vlib/src/VLIB_convertUYVYint_to_YUV420pl/VLIB_convertUYVYint_to_YUV420pl_d.se66 PAGE   55

    2615                            .dwattr $C$DW$T$94, DW_AT_type(*$C$DW$T$93)
    2616                            .dwattr $C$DW$T$94, DW_AT_address_class(0x20)
    2617                    $C$DW$T$95      .dwtag  DW_TAG_typedef, DW_AT_name("uint_least8_t")
    2618                            .dwattr $C$DW$T$95, DW_AT_type(*$C$DW$T$19)
    2619                            .dwattr $C$DW$T$95, DW_AT_language(DW_LANG_C)
    2620                            .dwattr $C$DW$T$95, DW_AT_decl_file("C:/VLIB_Tools/CCSV5_4_0/ccsv5/tools/compiler/C6000/includ
    2621                            .dwattr $C$DW$T$95, DW_AT_decl_line(0x3a)
    2622                            .dwattr $C$DW$T$95, DW_AT_decl_column(0x16)
    2623                    $C$DW$T$7       .dwtag  DW_TAG_base_type
    2624                            .dwattr $C$DW$T$7, DW_AT_encoding(DW_ATE_signed_char)
    2625                            .dwattr $C$DW$T$7, DW_AT_name("wchar_t")
    2626                            .dwattr $C$DW$T$7, DW_AT_byte_size(0x02)
    2627                    $C$DW$T$8       .dwtag  DW_TAG_base_type
    2628                            .dwattr $C$DW$T$8, DW_AT_encoding(DW_ATE_signed)
    2629                            .dwattr $C$DW$T$8, DW_AT_name("short")
    2630                            .dwattr $C$DW$T$8, DW_AT_byte_size(0x02)
    2631                    $C$DW$T$96      .dwtag  DW_TAG_typedef, DW_AT_name("int16_t")
    2632                            .dwattr $C$DW$T$96, DW_AT_type(*$C$DW$T$8)
    2633                            .dwattr $C$DW$T$96, DW_AT_language(DW_LANG_C)
    2634                            .dwattr $C$DW$T$96, DW_AT_decl_file("C:/VLIB_Tools/CCSV5_4_0/ccsv5/tools/compiler/C6000/includ
    2635                            .dwattr $C$DW$T$96, DW_AT_decl_line(0x2c)
    2636                            .dwattr $C$DW$T$96, DW_AT_decl_column(0x1d)
    2637                    $C$DW$T$97      .dwtag  DW_TAG_typedef, DW_AT_name("int_least16_t")
    2638                            .dwattr $C$DW$T$97, DW_AT_type(*$C$DW$T$96)
    2639                            .dwattr $C$DW$T$97, DW_AT_language(DW_LANG_C)
    2640                            .dwattr $C$DW$T$97, DW_AT_decl_file("C:/VLIB_Tools/CCSV5_4_0/ccsv5/tools/compiler/C6000/includ
    2641                            .dwattr $C$DW$T$97, DW_AT_decl_line(0x3c)
    2642                            .dwattr $C$DW$T$97, DW_AT_decl_column(0x17)
    2643                    $C$DW$T$9       .dwtag  DW_TAG_base_type
    2644                            .dwattr $C$DW$T$9, DW_AT_encoding(DW_ATE_unsigned)
    2645                            .dwattr $C$DW$T$9, DW_AT_name("unsigned short")
    2646                            .dwattr $C$DW$T$9, DW_AT_byte_size(0x02)
    2647                    $C$DW$T$73      .dwtag  DW_TAG_typedef, DW_AT_name("uint16_t")
    2648                            .dwattr $C$DW$T$73, DW_AT_type(*$C$DW$T$9)
    2649                            .dwattr $C$DW$T$73, DW_AT_language(DW_LANG_C)
    2650                            .dwattr $C$DW$T$73, DW_AT_decl_file("C:/VLIB_Tools/CCSV5_4_0/ccsv5/tools/compiler/C6000/includ
    2651                            .dwattr $C$DW$T$73, DW_AT_decl_line(0x2d)
    2652                            .dwattr $C$DW$T$73, DW_AT_decl_column(0x1c)
    2653                    $C$DW$T$99      .dwtag  DW_TAG_typedef, DW_AT_name("uint_least16_t")
    2654                            .dwattr $C$DW$T$99, DW_AT_type(*$C$DW$T$73)
    2655                            .dwattr $C$DW$T$99, DW_AT_language(DW_LANG_C)
    2656                            .dwattr $C$DW$T$99, DW_AT_decl_file("C:/VLIB_Tools/CCSV5_4_0/ccsv5/tools/compiler/C6000/includ
    2657                            .dwattr $C$DW$T$99, DW_AT_decl_line(0x3d)
    2658                            .dwattr $C$DW$T$99, DW_AT_decl_column(0x16)
    2659                    $C$DW$T$98      .dwtag  DW_TAG_typedef, DW_AT_name("wchar_t")
    2660                            .dwattr $C$DW$T$98, DW_AT_type(*$C$DW$T$9)
    2661                            .dwattr $C$DW$T$98, DW_AT_language(DW_LANG_C)
    2662                            .dwattr $C$DW$T$98, DW_AT_decl_file("C:/VLIB_Tools/CCSV5_4_0/ccsv5/tools/compiler/C6000/includ
    2663                            .dwattr $C$DW$T$98, DW_AT_decl_line(0x53)
    2664                            .dwattr $C$DW$T$98, DW_AT_decl_column(0x1a)
    2665                    $C$DW$T$10      .dwtag  DW_TAG_base_type
    2666                            .dwattr $C$DW$T$10, DW_AT_encoding(DW_ATE_signed)
    2667                            .dwattr $C$DW$T$10, DW_AT_name("int")
    2668                            .dwattr $C$DW$T$10, DW_AT_byte_size(0x04)
    2669                    $C$DW$T$121     .dwtag  DW_TAG_typedef, DW_AT_name("fpos_t")
TMS320C6x Assembler PC v7.4.2 Thu Mar 19 12:40:28 2015

Tools Copyright (c) 1996-2012 Texas Instruments Incorporated
package/lib/Regression/regress_d_c/./../packages/ti/vlib/src/VLIB_convertUYVYint_to_YUV420pl/VLIB_convertUYVYint_to_YUV420pl_d.se66 PAGE   56

    2670                            .dwattr $C$DW$T$121, DW_AT_type(*$C$DW$T$10)
    2671                            .dwattr $C$DW$T$121, DW_AT_language(DW_LANG_C)
    2672                            .dwattr $C$DW$T$121, DW_AT_decl_file("C:/VLIB_Tools/CCSV5_4_0/ccsv5/tools/compiler/C6000/inclu
    2673                            .dwattr $C$DW$T$121, DW_AT_decl_line(0x53)
    2674                            .dwattr $C$DW$T$121, DW_AT_decl_column(0x0d)
    2675                    $C$DW$T$22      .dwtag  DW_TAG_typedef, DW_AT_name("int32_t")
    2676                            .dwattr $C$DW$T$22, DW_AT_type(*$C$DW$T$10)
    2677                            .dwattr $C$DW$T$22, DW_AT_language(DW_LANG_C)
    2678                            .dwattr $C$DW$T$22, DW_AT_decl_file("C:/VLIB_Tools/CCSV5_4_0/ccsv5/tools/compiler/C6000/includ
    2679                            .dwattr $C$DW$T$22, DW_AT_decl_line(0x2e)
    2680                            .dwattr $C$DW$T$22, DW_AT_decl_column(0x1d)
    2681                    $C$DW$T$113     .dwtag  DW_TAG_typedef, DW_AT_name("VLIB_CCHandle")
    2682                            .dwattr $C$DW$T$113, DW_AT_type(*$C$DW$T$22)
    2683                            .dwattr $C$DW$T$113, DW_AT_language(DW_LANG_C)
    2684                            .dwattr $C$DW$T$113, DW_AT_decl_file(".\..\packages\ti\vlib\src\VLIB_convertUYVYint_to_YUV420p
    2685                            .dwattr $C$DW$T$113, DW_AT_decl_line(0x77)
    2686                            .dwattr $C$DW$T$113, DW_AT_decl_column(0x11)
    2687                    
    2688                    $C$DW$T$33      .dwtag  DW_TAG_array_type
    2689                            .dwattr $C$DW$T$33, DW_AT_type(*$C$DW$T$22)
    2690                            .dwattr $C$DW$T$33, DW_AT_language(DW_LANG_C)
    2691                            .dwattr $C$DW$T$33, DW_AT_byte_size(0x10)
    2692                    $C$DW$241       .dwtag  DW_TAG_subrange_type
    2693                            .dwattr $C$DW$241, DW_AT_upper_bound(0x03)
    2694                            .dwendtag $C$DW$T$33
    2695                    
    2696                    $C$DW$T$76      .dwtag  DW_TAG_pointer_type
    2697                            .dwattr $C$DW$T$76, DW_AT_type(*$C$DW$T$22)
    2698                            .dwattr $C$DW$T$76, DW_AT_address_class(0x20)
    2699                    $C$DW$T$116     .dwtag  DW_TAG_typedef, DW_AT_name("int_fast16_t")
    2700                            .dwattr $C$DW$T$116, DW_AT_type(*$C$DW$T$22)
    2701                            .dwattr $C$DW$T$116, DW_AT_language(DW_LANG_C)
    2702                            .dwattr $C$DW$T$116, DW_AT_decl_file("C:/VLIB_Tools/CCSV5_4_0/ccsv5/tools/compiler/C6000/inclu
    2703                            .dwattr $C$DW$T$116, DW_AT_decl_line(0x4b)
    2704                            .dwattr $C$DW$T$116, DW_AT_decl_column(0x17)
    2705                    $C$DW$T$117     .dwtag  DW_TAG_typedef, DW_AT_name("int_fast32_t")
    2706                            .dwattr $C$DW$T$117, DW_AT_type(*$C$DW$T$22)
    2707                            .dwattr $C$DW$T$117, DW_AT_language(DW_LANG_C)
    2708                            .dwattr $C$DW$T$117, DW_AT_decl_file("C:/VLIB_Tools/CCSV5_4_0/ccsv5/tools/compiler/C6000/inclu
    2709                            .dwattr $C$DW$T$117, DW_AT_decl_line(0x4e)
    2710                            .dwattr $C$DW$T$117, DW_AT_decl_column(0x17)
