TMS320C6x Assembler PC v7.4.2 Thu Mar 19 12:41:33 2015

Tools Copyright (c) 1996-2012 Texas Instruments Incorporated
package/lib/Regression/regress_d_c/./../packages/ti/vlib/src/VLIB_harrisScore_7x7/VLIB_harrisScore_7x7_d.se66 PAGE    1

       1                    ;******************************************************************************
       2                    ;* TMS320C6x C/C++ Codegen                                          PC v7.4.2 *
       3                    ;* Date/Time created: Thu Mar 19 12:41:32 2015                                *
       4                    ;******************************************************************************
       5                            .compiler_opts --abi=eabi --c64p_l1d_workaround=off --endian=little --hll_source=on --long_pre
       6                    
       7                    ;******************************************************************************
       8                    ;* GLOBAL FILE PARAMETERS                                                     *
       9                    ;*                                                                            *
      10                    ;*   Architecture      : TMS320C66xx                                          *
      11                    ;*   Optimization      : Enabled at level 3                                   *
      12                    ;*   Optimizing for    : Speed                                                *
      13                    ;*                       Based on options: -o3, no -ms                        *
      14                    ;*   Endian            : Little                                               *
      15                    ;*   Interrupt Thrshld : 10000                                                *
      16                    ;*   Data Access Model : Far                                                  *
      17                    ;*   Pipelining        : Enabled                                              *
      18                    ;*   Speculate Loads   : Enabled with threshold = 0                           *
      19                    ;*   Memory Aliases    : Presume are aliases (pessimistic)                    *
      20                    ;*   Debug Info        : DWARF Debug w/Optimization                           *
      21                    ;*                                                                            *
      22                    ;******************************************************************************
      23                    
      24                            .asg    A15, FP
      25                            .asg    B14, DP
      26                            .asg    B15, SP
      27                            .global $bss
      28                    
      29                    
      30                    $C$DW$CU        .dwtag  DW_TAG_compile_unit
      31                            .dwattr $C$DW$CU, DW_AT_name("./../packages/ti/vlib/src/VLIB_harrisScore_7x7/VLIB_harrisScore_
      32                            .dwattr $C$DW$CU, DW_AT_producer("TI TMS320C6x C/C++ Codegen PC v7.4.2 Copyright (c) 1996-2012
      33                            .dwattr $C$DW$CU, DW_AT_TI_version(0x01)
      34                            .dwattr $C$DW$CU, DW_AT_comp_dir("c:\nightlybuilds\vlib\ti\vlib\vlib\examples")
      35                    
      36                    $C$DW$1 .dwtag  DW_TAG_subprogram, DW_AT_name("_itoll")
      37                            .dwattr $C$DW$1, DW_AT_TI_symbol_name("_itoll")
      38                            .dwattr $C$DW$1, DW_AT_type(*$C$DW$T$14)
      39                            .dwattr $C$DW$1, DW_AT_declaration
      40                            .dwattr $C$DW$1, DW_AT_external
      41                            .dwattr $C$DW$1, DW_AT_decl_file("C:/VLIB_Tools/CCSV5_4_0/ccsv5/tools/compiler/C6000/include/c
      42                            .dwattr $C$DW$1, DW_AT_decl_line(0xdf)
      43                            .dwattr $C$DW$1, DW_AT_decl_column(0x0b)
      44                    $C$DW$2 .dwtag  DW_TAG_formal_parameter
      45                            .dwattr $C$DW$2, DW_AT_type(*$C$DW$T$11)
      46                    $C$DW$3 .dwtag  DW_TAG_formal_parameter
      47                            .dwattr $C$DW$3, DW_AT_type(*$C$DW$T$11)
      48                            .dwendtag $C$DW$1
      49                    
      50                    
      51                    $C$DW$4 .dwtag  DW_TAG_subprogram, DW_AT_name("printf")
      52                            .dwattr $C$DW$4, DW_AT_TI_symbol_name("printf")
      53                            .dwattr $C$DW$4, DW_AT_type(*$C$DW$T$10)
      54                            .dwattr $C$DW$4, DW_AT_declaration
      55                            .dwattr $C$DW$4, DW_AT_external
TMS320C6x Assembler PC v7.4.2 Thu Mar 19 12:41:33 2015

Tools Copyright (c) 1996-2012 Texas Instruments Incorporated
package/lib/Regression/regress_d_c/./../packages/ti/vlib/src/VLIB_harrisScore_7x7/VLIB_harrisScore_7x7_d.se66 PAGE    2

      56                            .dwattr $C$DW$4, DW_AT_decl_file("C:/VLIB_Tools/CCSV5_4_0/ccsv5/tools/compiler/C6000/include/s
      57                            .dwattr $C$DW$4, DW_AT_decl_line(0xb8)
      58                            .dwattr $C$DW$4, DW_AT_decl_column(0x19)
      59                    $C$DW$5 .dwtag  DW_TAG_formal_parameter
      60                            .dwattr $C$DW$5, DW_AT_type(*$C$DW$T$113)
      61                    $C$DW$6 .dwtag  DW_TAG_unspecified_parameters
      62                            .dwendtag $C$DW$4
      63                    
      64                    
      65                    $C$DW$7 .dwtag  DW_TAG_subprogram, DW_AT_name("sprintf")
      66                            .dwattr $C$DW$7, DW_AT_TI_symbol_name("sprintf")
      67                            .dwattr $C$DW$7, DW_AT_type(*$C$DW$T$10)
      68                            .dwattr $C$DW$7, DW_AT_declaration
      69                            .dwattr $C$DW$7, DW_AT_external
      70                            .dwattr $C$DW$7, DW_AT_decl_file("C:/VLIB_Tools/CCSV5_4_0/ccsv5/tools/compiler/C6000/include/s
      71                            .dwattr $C$DW$7, DW_AT_decl_line(0xbc)
      72                            .dwattr $C$DW$7, DW_AT_decl_column(0x19)
      73                    $C$DW$8 .dwtag  DW_TAG_formal_parameter
      74                            .dwattr $C$DW$8, DW_AT_type(*$C$DW$T$26)
      75                    $C$DW$9 .dwtag  DW_TAG_formal_parameter
      76                            .dwattr $C$DW$9, DW_AT_type(*$C$DW$T$113)
      77                    $C$DW$10        .dwtag  DW_TAG_unspecified_parameters
      78                            .dwendtag $C$DW$7
      79                    
      80                    
      81                    $C$DW$11        .dwtag  DW_TAG_subprogram, DW_AT_name("malloc")
      82                            .dwattr $C$DW$11, DW_AT_TI_symbol_name("malloc")
      83                            .dwattr $C$DW$11, DW_AT_type(*$C$DW$T$3)
      84                            .dwattr $C$DW$11, DW_AT_declaration
      85                            .dwattr $C$DW$11, DW_AT_external
      86                            .dwattr $C$DW$11, DW_AT_decl_file("C:/VLIB_Tools/CCSV5_4_0/ccsv5/tools/compiler/C6000/include/
      87                            .dwattr $C$DW$11, DW_AT_decl_line(0x82)
      88                            .dwattr $C$DW$11, DW_AT_decl_column(0x19)
      89                    $C$DW$12        .dwtag  DW_TAG_formal_parameter
      90                            .dwattr $C$DW$12, DW_AT_type(*$C$DW$T$55)
      91                            .dwendtag $C$DW$11
      92                    
      93                    
      94                    $C$DW$13        .dwtag  DW_TAG_subprogram, DW_AT_name("free")
      95                            .dwattr $C$DW$13, DW_AT_TI_symbol_name("free")
      96                            .dwattr $C$DW$13, DW_AT_declaration
      97                            .dwattr $C$DW$13, DW_AT_external
      98                            .dwattr $C$DW$13, DW_AT_decl_file("C:/VLIB_Tools/CCSV5_4_0/ccsv5/tools/compiler/C6000/include/
      99                            .dwattr $C$DW$13, DW_AT_decl_line(0x86)
     100                            .dwattr $C$DW$13, DW_AT_decl_column(0x19)
     101                    $C$DW$14        .dwtag  DW_TAG_formal_parameter
     102                            .dwattr $C$DW$14, DW_AT_type(*$C$DW$T$3)
     103                            .dwendtag $C$DW$13
     104                    
     105                    
     106                    $C$DW$15        .dwtag  DW_TAG_subprogram, DW_AT_name("VLIB_cache_inval")
     107                            .dwattr $C$DW$15, DW_AT_TI_symbol_name("VLIB_cache_inval")
     108                            .dwattr $C$DW$15, DW_AT_type(*$C$DW$T$10)
     109                            .dwattr $C$DW$15, DW_AT_declaration
     110                            .dwattr $C$DW$15, DW_AT_external
TMS320C6x Assembler PC v7.4.2 Thu Mar 19 12:41:33 2015

Tools Copyright (c) 1996-2012 Texas Instruments Incorporated
package/lib/Regression/regress_d_c/./../packages/ti/vlib/src/VLIB_harrisScore_7x7/VLIB_harrisScore_7x7_d.se66 PAGE    3

     111                            .dwattr $C$DW$15, DW_AT_decl_file(".\..\packages\ti\vlib\src\VLIB_harrisScore_7x7\..\common\c6
     112                            .dwattr $C$DW$15, DW_AT_decl_line(0x58)
     113                            .dwattr $C$DW$15, DW_AT_decl_column(0x05)
     114                    
     115                    $C$DW$16        .dwtag  DW_TAG_subprogram, DW_AT_name("VLIB_profile_init")
     116                            .dwattr $C$DW$16, DW_AT_TI_symbol_name("VLIB_profile_init")
     117                            .dwattr $C$DW$16, DW_AT_declaration
     118                            .dwattr $C$DW$16, DW_AT_external
     119                            .dwattr $C$DW$16, DW_AT_decl_file(".\..\packages\ti\vlib\src\VLIB_harrisScore_7x7\..\common\VL
     120                            .dwattr $C$DW$16, DW_AT_decl_line(0x7b)
     121                            .dwattr $C$DW$16, DW_AT_decl_column(0x06)
     122                    $C$DW$17        .dwtag  DW_TAG_formal_parameter
     123                            .dwattr $C$DW$17, DW_AT_type(*$C$DW$T$10)
     124                    $C$DW$18        .dwtag  DW_TAG_formal_parameter
     125                            .dwattr $C$DW$18, DW_AT_type(*$C$DW$T$26)
     126                            .dwendtag $C$DW$16
     127                    
     128                    
     129                    $C$DW$19        .dwtag  DW_TAG_subprogram, DW_AT_name("VLIB_formula_add_test")
     130                            .dwattr $C$DW$19, DW_AT_TI_symbol_name("VLIB_formula_add_test")
     131                            .dwattr $C$DW$19, DW_AT_declaration
     132                            .dwattr $C$DW$19, DW_AT_external
     133                            .dwattr $C$DW$19, DW_AT_decl_file(".\..\packages\ti\vlib\src\VLIB_harrisScore_7x7\..\common\VL
     134                            .dwattr $C$DW$19, DW_AT_decl_line(0x7d)
     135                            .dwattr $C$DW$19, DW_AT_decl_column(0x06)
     136                    $C$DW$20        .dwtag  DW_TAG_formal_parameter
     137                            .dwattr $C$DW$20, DW_AT_type(*$C$DW$T$10)
     138                    $C$DW$21        .dwtag  DW_TAG_formal_parameter
     139                            .dwattr $C$DW$21, DW_AT_type(*$C$DW$T$10)
     140                    $C$DW$22        .dwtag  DW_TAG_formal_parameter
     141                            .dwattr $C$DW$22, DW_AT_type(*$C$DW$T$10)
     142                    $C$DW$23        .dwtag  DW_TAG_formal_parameter
     143                            .dwattr $C$DW$23, DW_AT_type(*$C$DW$T$10)
     144                    $C$DW$24        .dwtag  DW_TAG_formal_parameter
     145                            .dwattr $C$DW$24, DW_AT_type(*$C$DW$T$26)
     146                    $C$DW$25        .dwtag  DW_TAG_formal_parameter
     147                            .dwattr $C$DW$25, DW_AT_type(*$C$DW$T$10)
     148                            .dwendtag $C$DW$19
     149                    
     150                    
     151                    $C$DW$26        .dwtag  DW_TAG_subprogram, DW_AT_name("VLIB_skip_test")
     152                            .dwattr $C$DW$26, DW_AT_TI_symbol_name("VLIB_skip_test")
     153                            .dwattr $C$DW$26, DW_AT_declaration
     154                            .dwattr $C$DW$26, DW_AT_external
     155                            .dwattr $C$DW$26, DW_AT_decl_file(".\..\packages\ti\vlib\src\VLIB_harrisScore_7x7\..\common\VL
     156                            .dwattr $C$DW$26, DW_AT_decl_line(0x7e)
     157                            .dwattr $C$DW$26, DW_AT_decl_column(0x06)
     158                    $C$DW$27        .dwtag  DW_TAG_formal_parameter
     159                            .dwattr $C$DW$27, DW_AT_type(*$C$DW$T$26)
     160                            .dwendtag $C$DW$26
     161                    
     162                    
     163                    $C$DW$28        .dwtag  DW_TAG_subprogram, DW_AT_name("VLIB_profile_cycle_report")
     164                            .dwattr $C$DW$28, DW_AT_TI_symbol_name("VLIB_profile_cycle_report")
     165                            .dwattr $C$DW$28, DW_AT_declaration
TMS320C6x Assembler PC v7.4.2 Thu Mar 19 12:41:33 2015

Tools Copyright (c) 1996-2012 Texas Instruments Incorporated
package/lib/Regression/regress_d_c/./../packages/ti/vlib/src/VLIB_harrisScore_7x7/VLIB_harrisScore_7x7_d.se66 PAGE    4

     166                            .dwattr $C$DW$28, DW_AT_external
     167                            .dwattr $C$DW$28, DW_AT_decl_file(".\..\packages\ti\vlib\src\VLIB_harrisScore_7x7\..\common\VL
     168                            .dwattr $C$DW$28, DW_AT_decl_line(0x7f)
     169                            .dwattr $C$DW$28, DW_AT_decl_column(0x06)
     170                    $C$DW$29        .dwtag  DW_TAG_formal_parameter
     171                            .dwattr $C$DW$29, DW_AT_type(*$C$DW$T$10)
     172                    $C$DW$30        .dwtag  DW_TAG_formal_parameter
     173                            .dwattr $C$DW$30, DW_AT_type(*$C$DW$T$26)
     174                    $C$DW$31        .dwtag  DW_TAG_formal_parameter
     175                            .dwattr $C$DW$31, DW_AT_type(*$C$DW$T$26)
     176                            .dwendtag $C$DW$28
     177                    
     178                    
     179                    $C$DW$32        .dwtag  DW_TAG_subprogram, DW_AT_name("initStack")
     180                            .dwattr $C$DW$32, DW_AT_TI_symbol_name("initStack")
     181                            .dwattr $C$DW$32, DW_AT_declaration
     182                            .dwattr $C$DW$32, DW_AT_external
     183                            .dwattr $C$DW$32, DW_AT_decl_file(".\..\packages\ti\vlib\src\VLIB_harrisScore_7x7\..\common\VL
     184                            .dwattr $C$DW$32, DW_AT_decl_line(0x80)
     185                            .dwattr $C$DW$32, DW_AT_decl_column(0x06)
     186                    $C$DW$33        .dwtag  DW_TAG_formal_parameter
     187                            .dwattr $C$DW$33, DW_AT_type(*$C$DW$T$21)
     188                            .dwendtag $C$DW$32
     189                    
     190                    
     191                    $C$DW$34        .dwtag  DW_TAG_subprogram, DW_AT_name("setStackDepth")
     192                            .dwattr $C$DW$34, DW_AT_TI_symbol_name("setStackDepth")
     193                            .dwattr $C$DW$34, DW_AT_declaration
     194                            .dwattr $C$DW$34, DW_AT_external
     195                            .dwattr $C$DW$34, DW_AT_decl_file(".\..\packages\ti\vlib\src\VLIB_harrisScore_7x7\..\common\VL
     196                            .dwattr $C$DW$34, DW_AT_decl_line(0x81)
     197                            .dwattr $C$DW$34, DW_AT_decl_column(0x06)
     198                    
     199                    $C$DW$35        .dwtag  DW_TAG_subprogram, DW_AT_name("getSP")
     200                            .dwattr $C$DW$35, DW_AT_TI_symbol_name("getSP")
     201                            .dwattr $C$DW$35, DW_AT_type(*$C$DW$T$21)
     202                            .dwattr $C$DW$35, DW_AT_declaration
     203                            .dwattr $C$DW$35, DW_AT_external
     204                            .dwattr $C$DW$35, DW_AT_decl_file(".\..\packages\ti\vlib\src\VLIB_harrisScore_7x7\..\common\VL
     205                            .dwattr $C$DW$35, DW_AT_decl_line(0x82)
     206                            .dwattr $C$DW$35, DW_AT_decl_column(0x0a)
     207                    
     208                    $C$DW$36        .dwtag  DW_TAG_subprogram, DW_AT_name("VLIB_stack_memory")
     209                            .dwattr $C$DW$36, DW_AT_TI_symbol_name("VLIB_stack_memory")
     210                            .dwattr $C$DW$36, DW_AT_declaration
     211                            .dwattr $C$DW$36, DW_AT_external
     212                            .dwattr $C$DW$36, DW_AT_decl_file(".\..\packages\ti\vlib\src\VLIB_harrisScore_7x7\..\common\VL
     213                            .dwattr $C$DW$36, DW_AT_decl_line(0x83)
     214                            .dwattr $C$DW$36, DW_AT_decl_column(0x06)
     215                    
     216                    $C$DW$37        .dwtag  DW_TAG_subprogram, DW_AT_name("VLIB_fillBuffer")
     217                            .dwattr $C$DW$37, DW_AT_TI_symbol_name("VLIB_fillBuffer")
     218                            .dwattr $C$DW$37, DW_AT_declaration
     219                            .dwattr $C$DW$37, DW_AT_external
     220                            .dwattr $C$DW$37, DW_AT_decl_file(".\..\packages\ti\vlib\src\VLIB_harrisScore_7x7\../common/VL
TMS320C6x Assembler PC v7.4.2 Thu Mar 19 12:41:33 2015

Tools Copyright (c) 1996-2012 Texas Instruments Incorporated
package/lib/Regression/regress_d_c/./../packages/ti/vlib/src/VLIB_harrisScore_7x7/VLIB_harrisScore_7x7_d.se66 PAGE    5

     221                            .dwattr $C$DW$37, DW_AT_decl_line(0x77)
     222                            .dwattr $C$DW$37, DW_AT_decl_column(0x06)
     223                    $C$DW$38        .dwtag  DW_TAG_formal_parameter
     224                            .dwattr $C$DW$38, DW_AT_type(*$C$DW$T$19)
     225                    $C$DW$39        .dwtag  DW_TAG_formal_parameter
     226                            .dwattr $C$DW$39, DW_AT_type(*$C$DW$T$19)
     227                    $C$DW$40        .dwtag  DW_TAG_formal_parameter
     228                            .dwattr $C$DW$40, DW_AT_type(*$C$DW$T$3)
     229                    $C$DW$41        .dwtag  DW_TAG_formal_parameter
     230                            .dwattr $C$DW$41, DW_AT_type(*$C$DW$T$3)
     231                    $C$DW$42        .dwtag  DW_TAG_formal_parameter
     232                            .dwattr $C$DW$42, DW_AT_type(*$C$DW$T$75)
     233                    $C$DW$43        .dwtag  DW_TAG_formal_parameter
     234                            .dwattr $C$DW$43, DW_AT_type(*$C$DW$T$75)
     235                    $C$DW$44        .dwtag  DW_TAG_formal_parameter
     236                            .dwattr $C$DW$44, DW_AT_type(*$C$DW$T$75)
     237                    $C$DW$45        .dwtag  DW_TAG_formal_parameter
     238                            .dwattr $C$DW$45, DW_AT_type(*$C$DW$T$19)
     239                    $C$DW$46        .dwtag  DW_TAG_formal_parameter
     240                            .dwattr $C$DW$46, DW_AT_type(*$C$DW$T$26)
     241                            .dwendtag $C$DW$37
     242                    
     243                    
     244                    $C$DW$47        .dwtag  DW_TAG_subprogram, DW_AT_name("VLIB_memalign")
     245                            .dwattr $C$DW$47, DW_AT_TI_symbol_name("VLIB_memalign")
     246                            .dwattr $C$DW$47, DW_AT_type(*$C$DW$T$3)
     247                            .dwattr $C$DW$47, DW_AT_declaration
     248                            .dwattr $C$DW$47, DW_AT_external
     249                            .dwattr $C$DW$47, DW_AT_decl_file(".\..\packages\ti\vlib\src\VLIB_harrisScore_7x7\../common/VL
     250                            .dwattr $C$DW$47, DW_AT_decl_line(0xae)
     251                            .dwattr $C$DW$47, DW_AT_decl_column(0x07)
     252                    $C$DW$48        .dwtag  DW_TAG_formal_parameter
     253                            .dwattr $C$DW$48, DW_AT_type(*$C$DW$T$55)
     254                    $C$DW$49        .dwtag  DW_TAG_formal_parameter
     255                            .dwattr $C$DW$49, DW_AT_type(*$C$DW$T$55)
     256                            .dwendtag $C$DW$47
     257                    
     258                    
     259                    $C$DW$50        .dwtag  DW_TAG_subprogram, DW_AT_name("VLIB_malloc")
     260                            .dwattr $C$DW$50, DW_AT_TI_symbol_name("VLIB_malloc")
     261                            .dwattr $C$DW$50, DW_AT_type(*$C$DW$T$3)
     262                            .dwattr $C$DW$50, DW_AT_declaration
     263                            .dwattr $C$DW$50, DW_AT_external
     264                            .dwattr $C$DW$50, DW_AT_decl_file(".\..\packages\ti\vlib\src\VLIB_harrisScore_7x7\../common/VL
     265                            .dwattr $C$DW$50, DW_AT_decl_line(0xaf)
     266                            .dwattr $C$DW$50, DW_AT_decl_column(0x07)
     267                    $C$DW$51        .dwtag  DW_TAG_formal_parameter
     268                            .dwattr $C$DW$51, DW_AT_type(*$C$DW$T$55)
     269                            .dwendtag $C$DW$50
     270                    
     271                    
     272                    $C$DW$52        .dwtag  DW_TAG_subprogram, DW_AT_name("VLIB_align_free")
     273                            .dwattr $C$DW$52, DW_AT_TI_symbol_name("VLIB_align_free")
     274                            .dwattr $C$DW$52, DW_AT_declaration
     275                            .dwattr $C$DW$52, DW_AT_external
TMS320C6x Assembler PC v7.4.2 Thu Mar 19 12:41:33 2015

Tools Copyright (c) 1996-2012 Texas Instruments Incorporated
package/lib/Regression/regress_d_c/./../packages/ti/vlib/src/VLIB_harrisScore_7x7/VLIB_harrisScore_7x7_d.se66 PAGE    6

     276                            .dwattr $C$DW$52, DW_AT_decl_file(".\..\packages\ti\vlib\src\VLIB_harrisScore_7x7\../common/VL
     277                            .dwattr $C$DW$52, DW_AT_decl_line(0xb3)
     278                            .dwattr $C$DW$52, DW_AT_decl_column(0x07)
     279                    $C$DW$53        .dwtag  DW_TAG_formal_parameter
     280                            .dwattr $C$DW$53, DW_AT_type(*$C$DW$T$3)
     281                            .dwendtag $C$DW$52
     282                    
     283                    
     284                    $C$DW$54        .dwtag  DW_TAG_subprogram, DW_AT_name("VLIB_free")
     285                            .dwattr $C$DW$54, DW_AT_TI_symbol_name("VLIB_free")
     286                            .dwattr $C$DW$54, DW_AT_declaration
     287                            .dwattr $C$DW$54, DW_AT_external
     288                            .dwattr $C$DW$54, DW_AT_decl_file(".\..\packages\ti\vlib\src\VLIB_harrisScore_7x7\../common/VL
     289                            .dwattr $C$DW$54, DW_AT_decl_line(0xb4)
     290                            .dwattr $C$DW$54, DW_AT_decl_column(0x07)
     291                    $C$DW$55        .dwtag  DW_TAG_formal_parameter
     292                            .dwattr $C$DW$55, DW_AT_type(*$C$DW$T$3)
     293                            .dwendtag $C$DW$54
     294                    
     295                    
     296                    $C$DW$56        .dwtag  DW_TAG_subprogram, DW_AT_name("VLIB_harrisScore_7x7")
     297                            .dwattr $C$DW$56, DW_AT_TI_symbol_name("VLIB_harrisScore_7x7")
     298                            .dwattr $C$DW$56, DW_AT_type(*$C$DW$T$23)
     299                            .dwattr $C$DW$56, DW_AT_declaration
     300                            .dwattr $C$DW$56, DW_AT_external
     301                            .dwattr $C$DW$56, DW_AT_decl_file(".\..\packages\ti\vlib\src\VLIB_harrisScore_7x7\c66/VLIB_har
     302                            .dwattr $C$DW$56, DW_AT_decl_line(0x8d)
     303                            .dwattr $C$DW$56, DW_AT_decl_column(0x0c)
     304                    $C$DW$57        .dwtag  DW_TAG_formal_parameter
     305                            .dwattr $C$DW$57, DW_AT_type(*$C$DW$T$106)
     306                    $C$DW$58        .dwtag  DW_TAG_formal_parameter
     307                            .dwattr $C$DW$58, DW_AT_type(*$C$DW$T$106)
     308                    $C$DW$59        .dwtag  DW_TAG_formal_parameter
     309                            .dwattr $C$DW$59, DW_AT_type(*$C$DW$T$23)
     310                    $C$DW$60        .dwtag  DW_TAG_formal_parameter
     311                            .dwattr $C$DW$60, DW_AT_type(*$C$DW$T$23)
     312                    $C$DW$61        .dwtag  DW_TAG_formal_parameter
     313                            .dwattr $C$DW$61, DW_AT_type(*$C$DW$T$103)
     314                    $C$DW$62        .dwtag  DW_TAG_formal_parameter
     315                            .dwattr $C$DW$62, DW_AT_type(*$C$DW$T$75)
     316                    $C$DW$63        .dwtag  DW_TAG_formal_parameter
     317                            .dwattr $C$DW$63, DW_AT_type(*$C$DW$T$20)
     318                            .dwendtag $C$DW$56
     319                    
     320                    
     321                    $C$DW$64        .dwtag  DW_TAG_subprogram, DW_AT_name("VLIB_harrisScore_7x7_cn")
     322                            .dwattr $C$DW$64, DW_AT_TI_symbol_name("VLIB_harrisScore_7x7_cn")
     323                            .dwattr $C$DW$64, DW_AT_type(*$C$DW$T$23)
     324                            .dwattr $C$DW$64, DW_AT_declaration
     325                            .dwattr $C$DW$64, DW_AT_external
     326                            .dwattr $C$DW$64, DW_AT_decl_file(".\..\packages\ti\vlib\src\VLIB_harrisScore_7x7\VLIB_harrisS
     327                            .dwattr $C$DW$64, DW_AT_decl_line(0x20)
     328                            .dwattr $C$DW$64, DW_AT_decl_column(0x09)
     329                    $C$DW$65        .dwtag  DW_TAG_formal_parameter
     330                            .dwattr $C$DW$65, DW_AT_type(*$C$DW$T$106)
TMS320C6x Assembler PC v7.4.2 Thu Mar 19 12:41:33 2015

Tools Copyright (c) 1996-2012 Texas Instruments Incorporated
package/lib/Regression/regress_d_c/./../packages/ti/vlib/src/VLIB_harrisScore_7x7/VLIB_harrisScore_7x7_d.se66 PAGE    7

     331                    $C$DW$66        .dwtag  DW_TAG_formal_parameter
     332                            .dwattr $C$DW$66, DW_AT_type(*$C$DW$T$106)
     333                    $C$DW$67        .dwtag  DW_TAG_formal_parameter
     334                            .dwattr $C$DW$67, DW_AT_type(*$C$DW$T$23)
     335                    $C$DW$68        .dwtag  DW_TAG_formal_parameter
     336                            .dwattr $C$DW$68, DW_AT_type(*$C$DW$T$23)
     337                    $C$DW$69        .dwtag  DW_TAG_formal_parameter
     338                            .dwattr $C$DW$69, DW_AT_type(*$C$DW$T$103)
     339                    $C$DW$70        .dwtag  DW_TAG_formal_parameter
     340                            .dwattr $C$DW$70, DW_AT_type(*$C$DW$T$24)
     341                    $C$DW$71        .dwtag  DW_TAG_formal_parameter
     342                            .dwattr $C$DW$71, DW_AT_type(*$C$DW$T$20)
     343                            .dwendtag $C$DW$64
     344                    
     345                    
     346                    $C$DW$72        .dwtag  DW_TAG_subprogram, DW_AT_name("harrisScore_7x7_getTestParams")
     347                            .dwattr $C$DW$72, DW_AT_TI_symbol_name("harrisScore_7x7_getTestParams")
     348                            .dwattr $C$DW$72, DW_AT_declaration
     349                            .dwattr $C$DW$72, DW_AT_external
     350                            .dwattr $C$DW$72, DW_AT_decl_file(".\..\packages\ti\vlib\src\VLIB_harrisScore_7x7\VLIB_harrisS
     351                            .dwattr $C$DW$72, DW_AT_decl_line(0x2d)
     352                            .dwattr $C$DW$72, DW_AT_decl_column(0x06)
     353                    $C$DW$73        .dwtag  DW_TAG_formal_parameter
     354                            .dwattr $C$DW$73, DW_AT_type(*$C$DW$T$47)
     355                    $C$DW$74        .dwtag  DW_TAG_formal_parameter
     356                            .dwattr $C$DW$74, DW_AT_type(*$C$DW$T$78)
     357                            .dwendtag $C$DW$72
     358                    
     359                    
     360                    $C$DW$75        .dwtag  DW_TAG_subprogram, DW_AT_name("VLIB_xyGradients_cn")
     361                            .dwattr $C$DW$75, DW_AT_TI_symbol_name("VLIB_xyGradients_cn")
     362                            .dwattr $C$DW$75, DW_AT_type(*$C$DW$T$23)
     363                            .dwattr $C$DW$75, DW_AT_declaration
     364                            .dwattr $C$DW$75, DW_AT_external
     365                            .dwattr $C$DW$75, DW_AT_decl_file(".\..\packages\ti\vlib\src\VLIB_harrisScore_7x7\../VLIB_xyGr
     366                            .dwattr $C$DW$75, DW_AT_decl_line(0x20)
     367                            .dwattr $C$DW$75, DW_AT_decl_column(0x09)
     368                    $C$DW$76        .dwtag  DW_TAG_formal_parameter
     369                            .dwattr $C$DW$76, DW_AT_type(*$C$DW$T$99)
     370                    $C$DW$77        .dwtag  DW_TAG_formal_parameter
     371                            .dwattr $C$DW$77, DW_AT_type(*$C$DW$T$103)
     372                    $C$DW$78        .dwtag  DW_TAG_formal_parameter
     373                            .dwattr $C$DW$78, DW_AT_type(*$C$DW$T$103)
     374                    $C$DW$79        .dwtag  DW_TAG_formal_parameter
     375                            .dwattr $C$DW$79, DW_AT_type(*$C$DW$T$75)
     376                    $C$DW$80        .dwtag  DW_TAG_formal_parameter
     377                            .dwattr $C$DW$80, DW_AT_type(*$C$DW$T$75)
     378                            .dwendtag $C$DW$75
     379                    
     380                    $C$DW$81        .dwtag  DW_TAG_variable, DW_AT_name("test_cases")
     381                            .dwattr $C$DW$81, DW_AT_TI_symbol_name("test_cases")
     382                            .dwattr $C$DW$81, DW_AT_type(*$C$DW$T$23)
     383                            .dwattr $C$DW$81, DW_AT_declaration
     384                            .dwattr $C$DW$81, DW_AT_external
     385                            .dwattr $C$DW$81, DW_AT_decl_file(".\..\packages\ti\vlib\src\VLIB_harrisScore_7x7\../common/VL
TMS320C6x Assembler PC v7.4.2 Thu Mar 19 12:41:33 2015

Tools Copyright (c) 1996-2012 Texas Instruments Incorporated
package/lib/Regression/regress_d_c/./../packages/ti/vlib/src/VLIB_harrisScore_7x7/VLIB_harrisScore_7x7_d.se66 PAGE    8

     386                            .dwattr $C$DW$81, DW_AT_decl_line(0x60)
     387                            .dwattr $C$DW$81, DW_AT_decl_column(0x13)
     388                    $C$DW$82        .dwtag  DW_TAG_variable, DW_AT_name("act_kernel")
     389                            .dwattr $C$DW$82, DW_AT_TI_symbol_name("act_kernel")
     390                            .dwattr $C$DW$82, DW_AT_type(*$C$DW$T$10)
     391                            .dwattr $C$DW$82, DW_AT_declaration
     392                            .dwattr $C$DW$82, DW_AT_external
     393                            .dwattr $C$DW$82, DW_AT_decl_file(".\..\packages\ti\vlib\src\VLIB_harrisScore_7x7\../common/VL
     394                            .dwattr $C$DW$82, DW_AT_decl_line(0x62)
     395                            .dwattr $C$DW$82, DW_AT_decl_column(0x13)
     396                    $C$DW$83        .dwtag  DW_TAG_variable, DW_AT_name("desc")
     397                            .dwattr $C$DW$83, DW_AT_TI_symbol_name("desc")
     398                            .dwattr $C$DW$83, DW_AT_type(*$C$DW$T$173)
     399                            .dwattr $C$DW$83, DW_AT_declaration
     400                            .dwattr $C$DW$83, DW_AT_external
     401                            .dwattr $C$DW$83, DW_AT_decl_file(".\..\packages\ti\vlib\src\VLIB_harrisScore_7x7\../common/VL
     402                            .dwattr $C$DW$83, DW_AT_decl_line(0x63)
     403                            .dwattr $C$DW$83, DW_AT_decl_column(0x13)
     404                    $C$DW$84        .dwtag  DW_TAG_variable, DW_AT_name("testPatternString")
     405                            .dwattr $C$DW$84, DW_AT_TI_symbol_name("testPatternString")
     406                            .dwattr $C$DW$84, DW_AT_type(*$C$DW$T$173)
     407                            .dwattr $C$DW$84, DW_AT_declaration
     408                            .dwattr $C$DW$84, DW_AT_external
     409                            .dwattr $C$DW$84, DW_AT_decl_file(".\..\packages\ti\vlib\src\VLIB_harrisScore_7x7\../common/VL
     410                            .dwattr $C$DW$84, DW_AT_decl_line(0x64)
     411                            .dwattr $C$DW$84, DW_AT_decl_column(0x13)
     412                    $C$DW$85        .dwtag  DW_TAG_variable, DW_AT_name("est_test")
     413                            .dwattr $C$DW$85, DW_AT_TI_symbol_name("est_test")
     414                            .dwattr $C$DW$85, DW_AT_type(*$C$DW$T$10)
     415                            .dwattr $C$DW$85, DW_AT_declaration
     416                            .dwattr $C$DW$85, DW_AT_external
     417                            .dwattr $C$DW$85, DW_AT_decl_file(".\..\packages\ti\vlib\src\VLIB_harrisScore_7x7\..\common\VL
     418                            .dwattr $C$DW$85, DW_AT_decl_line(0x75)
     419                            .dwattr $C$DW$85, DW_AT_decl_column(0x14)
     420                    $C$DW$86        .dwtag  DW_TAG_variable, DW_AT_name("beg_count")
     421                            .dwattr $C$DW$86, DW_AT_TI_symbol_name("beg_count")
     422                            .dwattr $C$DW$86, DW_AT_type(*$C$DW$T$163)
     423                            .dwattr $C$DW$86, DW_AT_declaration
     424                            .dwattr $C$DW$86, DW_AT_external
     425                            .dwattr $C$DW$86, DW_AT_decl_file(".\..\packages\ti\vlib\src\VLIB_harrisScore_7x7\..\common\VL
     426                            .dwattr $C$DW$86, DW_AT_decl_line(0x76)
     427                            .dwattr $C$DW$86, DW_AT_decl_column(0x14)
     428                    $C$DW$87        .dwtag  DW_TAG_variable, DW_AT_name("end_count")
     429                            .dwattr $C$DW$87, DW_AT_TI_symbol_name("end_count")
     430                            .dwattr $C$DW$87, DW_AT_type(*$C$DW$T$163)
     431                            .dwattr $C$DW$87, DW_AT_declaration
     432                            .dwattr $C$DW$87, DW_AT_external
     433                            .dwattr $C$DW$87, DW_AT_decl_file(".\..\packages\ti\vlib\src\VLIB_harrisScore_7x7\..\common\VL
     434                            .dwattr $C$DW$87, DW_AT_decl_line(0x77)
     435                            .dwattr $C$DW$87, DW_AT_decl_column(0x14)
     436                    $C$DW$88        .dwtag  DW_TAG_variable, DW_AT_name("overhead")
     437                            .dwattr $C$DW$88, DW_AT_TI_symbol_name("overhead")
     438                            .dwattr $C$DW$88, DW_AT_type(*$C$DW$T$163)
     439                            .dwattr $C$DW$88, DW_AT_declaration
     440                            .dwattr $C$DW$88, DW_AT_external
TMS320C6x Assembler PC v7.4.2 Thu Mar 19 12:41:33 2015

Tools Copyright (c) 1996-2012 Texas Instruments Incorporated
package/lib/Regression/regress_d_c/./../packages/ti/vlib/src/VLIB_harrisScore_7x7/VLIB_harrisScore_7x7_d.se66 PAGE    9

     441                            .dwattr $C$DW$88, DW_AT_decl_file(".\..\packages\ti\vlib\src\VLIB_harrisScore_7x7\..\common\VL
     442                            .dwattr $C$DW$88, DW_AT_decl_line(0x78)
     443                            .dwattr $C$DW$88, DW_AT_decl_column(0x14)
     444                    $C$DW$89        .dwtag  DW_TAG_variable, DW_AT_name("cycles")
     445                            .dwattr $C$DW$89, DW_AT_TI_symbol_name("cycles")
     446                            .dwattr $C$DW$89, DW_AT_type(*$C$DW$T$164)
     447                            .dwattr $C$DW$89, DW_AT_declaration
     448                            .dwattr $C$DW$89, DW_AT_external
     449                            .dwattr $C$DW$89, DW_AT_decl_file(".\..\packages\ti\vlib\src\VLIB_harrisScore_7x7\..\common\VL
     450                            .dwattr $C$DW$89, DW_AT_decl_line(0x79)
     451                            .dwattr $C$DW$89, DW_AT_decl_column(0x14)
     452                    ;       C:\VLIB_Tools\CCSV5_4_0\ccsv5\tools\compiler\C6000\bin\opt6x.exe C:\\Users\\gtbldadm\\AppData\
     453 00000000                   .sect   ".text"
     454                            .clink
     455                            .global VLIB_harrisScore_7x7_d
     456                    
     457                    $C$DW$90        .dwtag  DW_TAG_subprogram, DW_AT_name("VLIB_harrisScore_7x7_d")
     458                            .dwattr $C$DW$90, DW_AT_low_pc(VLIB_harrisScore_7x7_d)
     459                            .dwattr $C$DW$90, DW_AT_high_pc(0x00)
     460                            .dwattr $C$DW$90, DW_AT_TI_symbol_name("VLIB_harrisScore_7x7_d")
     461                            .dwattr $C$DW$90, DW_AT_external
     462                            .dwattr $C$DW$90, DW_AT_TI_begin_file("./../packages/ti/vlib/src/VLIB_harrisScore_7x7/VLIB_har
     463                            .dwattr $C$DW$90, DW_AT_TI_begin_line(0x37)
     464                            .dwattr $C$DW$90, DW_AT_TI_begin_column(0x06)
     465                            .dwattr $C$DW$90, DW_AT_decl_file("./../packages/ti/vlib/src/VLIB_harrisScore_7x7/VLIB_harrisS
     466                            .dwattr $C$DW$90, DW_AT_decl_line(0x37)
     467                            .dwattr $C$DW$90, DW_AT_decl_column(0x06)
     468                            .dwattr $C$DW$90, DW_AT_TI_max_frame_size(0x70)
     469                            .dwpsn  file "./../packages/ti/vlib/src/VLIB_harrisScore_7x7/VLIB_harrisScore_7x7_d.c",line 56
     470                    
     471                            .dwfde $C$DW$CIE, VLIB_harrisScore_7x7_d
     472                    $C$DW$91        .dwtag  DW_TAG_formal_parameter, DW_AT_name("LevelOfFeedback")
     473                            .dwattr $C$DW$91, DW_AT_TI_symbol_name("LevelOfFeedback")
     474                            .dwattr $C$DW$91, DW_AT_type(*$C$DW$T$19)
     475                            .dwattr $C$DW$91, DW_AT_location[DW_OP_reg4]
     476                    ;----------------------------------------------------------------------
     477                    ;  55 | void VLIB_harrisScore_7x7_d (uint8_t LevelOfFeedback)                  
     478                    ;----------------------------------------------------------------------
     479                    
     480                    ;******************************************************************************
     481                    ;* FUNCTION NAME: VLIB_harrisScore_7x7_d                                      *
     482                    ;*                                                                            *
     483                    ;*   Regs Modified     : A0,A1,A2,A3,A4,A5,A6,A7,A8,A9,A10,A11,A12,A13,A14,   *
     484                    ;*                           A15,B0,B1,B2,B3,B4,B5,B6,B7,B8,B9,B10,B11,B12,   *
     485                    ;*                           B13,SP,A16,A17,A18,A19,A20,A21,A22,A23,A24,A25,  *
     486                    ;*                           A26,A27,A28,A29,A30,A31,B16,B17,B18,B19,B20,B21, *
     487                    ;*                           B22,B23,B24,B25,B26,B27,B28,B29,B30,B31          *
     488                    ;*   Regs Used         : A0,A1,A2,A3,A4,A5,A6,A7,A8,A9,A10,A11,A12,A13,A14,   *
     489                    ;*                           A15,B0,B1,B2,B3,B4,B5,B6,B7,B8,B9,B10,B11,B12,   *
     490                    ;*                           B13,DP,SP,A16,A17,A18,A19,A20,A21,A22,A23,A24,   *
     491                    ;*                           A25,A26,A27,A28,A29,A30,A31,B16,B17,B18,B19,B20, *
     492                    ;*                           B21,B22,B23,B24,B25,B26,B27,B28,B29,B30,B31      *
     493                    ;*   Local Frame Size  : 24 Args + 32 Auto + 56 Save = 112 byte               *
     494                    ;******************************************************************************
     495                    
TMS320C6x Assembler PC v7.4.2 Thu Mar 19 12:41:33 2015

Tools Copyright (c) 1996-2012 Texas Instruments Incorporated
package/lib/Regression/regress_d_c/./../packages/ti/vlib/src/VLIB_harrisScore_7x7/VLIB_harrisScore_7x7_d.se66 PAGE   10

     496                    ;******************************************************************************
     497                    ;*                                                                            *
     498                    ;* Using -g (debug) with optimization (-o3) may disable key optimizations!    *
     499                    ;*                                                                            *
     500                    ;******************************************************************************
     501 00000000           VLIB_harrisScore_7x7_d:
     502                    ;** --------------------------------------------------------------------------*
     503                    ;          EXCLUSIVE CPU CYCLES: 15
     504                    ;** 62  -----------------------    harrisScore_7x7_getTestParams(&prm, &test_cases);
     505                    ;** 65  -----------------------    VLIB_profile_init(2, "VLIB_harrisScore_7x7");
     506                    ;** 68  -----------------------    if ( test_cases <= 0 ) goto g28;
     507                            .dwcfi  cfa_offset, 0
     508                    ;----------------------------------------------------------------------
     509                    ;  57 | int32_t    tpi;  /* test parameter index */                            
     510                    ;  60 | harrisScore_7x7_testParams_t   *prm;                                   
     511                    ;----------------------------------------------------------------------
     512 00000000     25f7             STW     .D2T1   A11,*SP--(8)      ; |56| 
     513                            .dwcfi  cfa_offset, 8
     514                            .dwcfi  save_reg_to_mem, 11, 0
     515 00000002     2577             STW     .D2T1   A10,*SP--(8)      ; |56| 
     516                            .dwcfi  cfa_offset, 16
     517                            .dwcfi  save_reg_to_mem, 10, -8
     518 00000004     9677             STDW    .D2T2   B13:B12,*SP--     ; |56| 
     519                            .dwcfi  cfa_offset, 24
     520                            .dwcfi  save_reg_to_mem, 29, -12
     521                            .dwcfi  save_reg_to_mem, 28, -16
     522 00000006     9577             STDW    .D2T2   B11:B10,*SP--     ; |56| 
     523                            .dwcfi  cfa_offset, 32
     524                            .dwcfi  save_reg_to_mem, 27, -20
     525                            .dwcfi  save_reg_to_mem, 26, -24
     526 00000008     8777             STDW    .D2T1   A15:A14,*SP--     ; |56| 
     527                            .dwcfi  cfa_offset, 40
     528                            .dwcfi  save_reg_to_mem, 15, -28
     529                            .dwcfi  save_reg_to_mem, 14, -32
     530 0000000a     8677             STDW    .D2T1   A13:A12,*SP--     ; |56| 
     531                            .dwcfi  cfa_offset, 48
     532                            .dwcfi  save_reg_to_mem, 13, -36
     533                            .dwcfi  save_reg_to_mem, 12, -40
     534 0000000c 01be14f6             STW     .D2T2   B3,*SP--(64)      ; |56| 
     535                            .dwcfi  cfa_offset, 112
     536                            .dwcfi  save_reg_to_mem, 19, 0
     537                    $C$DW$92        .dwtag  DW_TAG_variable, DW_AT_name("$O$C6")
     538                            .dwattr $C$DW$92, DW_AT_TI_symbol_name("$O$C6")
     539                            .dwattr $C$DW$92, DW_AT_type(*$C$DW$T$10)
     540                            .dwattr $C$DW$92, DW_AT_location[DW_OP_reg20]
     541                    $C$DW$93        .dwtag  DW_TAG_variable, DW_AT_name("$O$C7")
     542                            .dwattr $C$DW$93, DW_AT_TI_symbol_name("$O$C7")
     543                            .dwattr $C$DW$93, DW_AT_type(*$C$DW$T$10)
     544                            .dwattr $C$DW$93, DW_AT_location[DW_OP_reg4]
     545                    $C$DW$94        .dwtag  DW_TAG_variable, DW_AT_name("$O$C8")
     546                            .dwattr $C$DW$94, DW_AT_TI_symbol_name("$O$C8")
     547                            .dwattr $C$DW$94, DW_AT_type(*$C$DW$T$43)
     548                            .dwattr $C$DW$94, DW_AT_location[DW_OP_reg26]
     549                    $C$DW$95        .dwtag  DW_TAG_variable, DW_AT_name("$O$C9")
     550                            .dwattr $C$DW$95, DW_AT_TI_symbol_name("$O$C9")
TMS320C6x Assembler PC v7.4.2 Thu Mar 19 12:41:33 2015

Tools Copyright (c) 1996-2012 Texas Instruments Incorporated
package/lib/Regression/regress_d_c/./../packages/ti/vlib/src/VLIB_harrisScore_7x7/VLIB_harrisScore_7x7_d.se66 PAGE   11

     551                            .dwattr $C$DW$95, DW_AT_type(*$C$DW$T$10)
     552                            .dwattr $C$DW$95, DW_AT_location[DW_OP_reg20]
     553                    $C$DW$96        .dwtag  DW_TAG_variable, DW_AT_name("$O$C10")
     554                            .dwattr $C$DW$96, DW_AT_TI_symbol_name("$O$C10")
     555                            .dwattr $C$DW$96, DW_AT_type(*$C$DW$T$10)
     556                            .dwattr $C$DW$96, DW_AT_location[DW_OP_reg4]
     557                    $C$DW$97        .dwtag  DW_TAG_variable, DW_AT_name("$O$C11")
     558                            .dwattr $C$DW$97, DW_AT_TI_symbol_name("$O$C11")
     559                            .dwattr $C$DW$97, DW_AT_type(*$C$DW$T$43)
     560                            .dwattr $C$DW$97, DW_AT_location[DW_OP_reg3]
     561                    $C$DW$98        .dwtag  DW_TAG_variable, DW_AT_name("$O$C12")
     562                            .dwattr $C$DW$98, DW_AT_TI_symbol_name("$O$C12")
     563                            .dwattr $C$DW$98, DW_AT_type(*$C$DW$T$10)
     564                            .dwattr $C$DW$98, DW_AT_location[DW_OP_reg3]
     565                    $C$DW$99        .dwtag  DW_TAG_variable, DW_AT_name("$O$C13")
     566                            .dwattr $C$DW$99, DW_AT_TI_symbol_name("$O$C13")
     567                            .dwattr $C$DW$99, DW_AT_type(*$C$DW$T$10)
     568                            .dwattr $C$DW$99, DW_AT_location[DW_OP_regx 0x25]
     569                    $C$DW$100       .dwtag  DW_TAG_variable, DW_AT_name("$O$C14")
     570                            .dwattr $C$DW$100, DW_AT_TI_symbol_name("$O$C14")
     571                            .dwattr $C$DW$100, DW_AT_type(*$C$DW$T$10)
     572                            .dwattr $C$DW$100, DW_AT_location[DW_OP_reg21]
     573                    $C$DW$101       .dwtag  DW_TAG_variable, DW_AT_name("$O$C15")
     574                            .dwattr $C$DW$101, DW_AT_TI_symbol_name("$O$C15")
     575                            .dwattr $C$DW$101, DW_AT_type(*$C$DW$T$10)
     576                            .dwattr $C$DW$101, DW_AT_location[DW_OP_reg20]
     577                    $C$DW$102       .dwtag  DW_TAG_variable, DW_AT_name("$O$C16")
     578                            .dwattr $C$DW$102, DW_AT_TI_symbol_name("$O$C16")
     579                            .dwattr $C$DW$102, DW_AT_type(*$C$DW$T$43)
     580                            .dwattr $C$DW$102, DW_AT_location[DW_OP_reg21]
     581                    $C$DW$103       .dwtag  DW_TAG_variable, DW_AT_name("$O$C17")
     582                            .dwattr $C$DW$103, DW_AT_TI_symbol_name("$O$C17")
     583                            .dwattr $C$DW$103, DW_AT_type(*$C$DW$T$10)
     584                            .dwattr $C$DW$103, DW_AT_location[DW_OP_reg4]
     585                    $C$DW$104       .dwtag  DW_TAG_variable, DW_AT_name("$O$C18")
     586                            .dwattr $C$DW$104, DW_AT_TI_symbol_name("$O$C18")
     587                            .dwattr $C$DW$104, DW_AT_type(*$C$DW$T$10)
     588                            .dwattr $C$DW$104, DW_AT_location[DW_OP_regx 0x25]
     589                    $C$DW$105       .dwtag  DW_TAG_variable, DW_AT_name("$O$C19")
     590                            .dwattr $C$DW$105, DW_AT_TI_symbol_name("$O$C19")
     591                            .dwattr $C$DW$105, DW_AT_type(*$C$DW$T$10)
     592                            .dwattr $C$DW$105, DW_AT_location[DW_OP_reg4]
     593                    $C$DW$106       .dwtag  DW_TAG_variable, DW_AT_name("$O$C20")
     594                            .dwattr $C$DW$106, DW_AT_TI_symbol_name("$O$C20")
     595                            .dwattr $C$DW$106, DW_AT_type(*$C$DW$T$10)
     596                            .dwattr $C$DW$106, DW_AT_location[DW_OP_reg21]
     597                    $C$DW$107       .dwtag  DW_TAG_variable, DW_AT_name("$O$C21")
     598                            .dwattr $C$DW$107, DW_AT_TI_symbol_name("$O$C21")
     599                            .dwattr $C$DW$107, DW_AT_type(*$C$DW$T$9)
     600                            .dwattr $C$DW$107, DW_AT_location[DW_OP_reg8]
     601                    $C$DW$108       .dwtag  DW_TAG_variable, DW_AT_name("$O$C22")
     602                            .dwattr $C$DW$108, DW_AT_TI_symbol_name("$O$C22")
     603                            .dwattr $C$DW$108, DW_AT_type(*$C$DW$T$10)
     604                            .dwattr $C$DW$108, DW_AT_location[DW_OP_reg10]
     605                    $C$DW$109       .dwtag  DW_TAG_variable, DW_AT_name("$O$C23")
TMS320C6x Assembler PC v7.4.2 Thu Mar 19 12:41:33 2015

Tools Copyright (c) 1996-2012 Texas Instruments Incorporated
package/lib/Regression/regress_d_c/./../packages/ti/vlib/src/VLIB_harrisScore_7x7/VLIB_harrisScore_7x7_d.se66 PAGE   12

     606                            .dwattr $C$DW$109, DW_AT_TI_symbol_name("$O$C23")
     607                            .dwattr $C$DW$109, DW_AT_type(*$C$DW$T$10)
     608                            .dwattr $C$DW$109, DW_AT_location[DW_OP_reg12]
     609                    $C$DW$110       .dwtag  DW_TAG_variable, DW_AT_name("$O$C24")
     610                            .dwattr $C$DW$110, DW_AT_TI_symbol_name("$O$C24")
     611                            .dwattr $C$DW$110, DW_AT_type(*$C$DW$T$10)
     612                            .dwattr $C$DW$110, DW_AT_location[DW_OP_reg10]
     613                    $C$DW$111       .dwtag  DW_TAG_variable, DW_AT_name("$O$f4")
     614                            .dwattr $C$DW$111, DW_AT_TI_symbol_name("$O$f4")
     615                            .dwattr $C$DW$111, DW_AT_type(*$C$DW$T$10)
     616                            .dwattr $C$DW$111, DW_AT_location[DW_OP_reg0]
     617                    $C$DW$112       .dwtag  DW_TAG_variable, DW_AT_name("$O$f5")
     618                            .dwattr $C$DW$112, DW_AT_TI_symbol_name("$O$f5")
     619                            .dwattr $C$DW$112, DW_AT_type(*$C$DW$T$10)
     620                            .dwattr $C$DW$112, DW_AT_location[DW_OP_reg0]
     621                    $C$DW$113       .dwtag  DW_TAG_variable, DW_AT_name("$O$U12")
     622                            .dwattr $C$DW$113, DW_AT_TI_symbol_name("$O$U12")
     623                            .dwattr $C$DW$113, DW_AT_type(*$C$DW$T$43)
     624                            .dwattr $C$DW$113, DW_AT_location[DW_OP_reg11]
     625                    $C$DW$114       .dwtag  DW_TAG_variable, DW_AT_name("$O$K52")
     626                            .dwattr $C$DW$114, DW_AT_TI_symbol_name("$O$K52")
     627                            .dwattr $C$DW$114, DW_AT_type(*$C$DW$T$83)
     628                            .dwattr $C$DW$114, DW_AT_location[DW_OP_reg12]
     629                    $C$DW$115       .dwtag  DW_TAG_variable, DW_AT_name("$O$K58")
     630                            .dwattr $C$DW$115, DW_AT_TI_symbol_name("$O$K58")
     631                            .dwattr $C$DW$115, DW_AT_type(*$C$DW$T$10)
     632                            .dwattr $C$DW$115, DW_AT_location[DW_OP_reg20]
     633                    $C$DW$116       .dwtag  DW_TAG_variable, DW_AT_name("$O$K83")
     634                            .dwattr $C$DW$116, DW_AT_TI_symbol_name("$O$K83")
     635                            .dwattr $C$DW$116, DW_AT_type(*$C$DW$T$10)
     636                            .dwattr $C$DW$116, DW_AT_location[DW_OP_reg7]
     637                    $C$DW$117       .dwtag  DW_TAG_variable, DW_AT_name("$O$U86")
     638                            .dwattr $C$DW$117, DW_AT_TI_symbol_name("$O$U86")
     639                            .dwattr $C$DW$117, DW_AT_type(*$C$DW$T$28)
     640                            .dwattr $C$DW$117, DW_AT_location[DW_OP_reg3]
     641                    $C$DW$118       .dwtag  DW_TAG_variable, DW_AT_name("$O$U11")
     642                            .dwattr $C$DW$118, DW_AT_TI_symbol_name("$O$U11")
     643                            .dwattr $C$DW$118, DW_AT_type(*$C$DW$T$10)
     644                            .dwattr $C$DW$118, DW_AT_location[DW_OP_reg28]
     645                    $C$DW$119       .dwtag  DW_TAG_variable, DW_AT_name("$O$K113")
     646                            .dwattr $C$DW$119, DW_AT_TI_symbol_name("$O$K113")
     647                            .dwattr $C$DW$119, DW_AT_type(*$C$DW$T$162)
     648                            .dwattr $C$DW$119, DW_AT_location[DW_OP_reg15]
     649                    $C$DW$120       .dwtag  DW_TAG_variable, DW_AT_name("$O$U137")
     650                            .dwattr $C$DW$120, DW_AT_TI_symbol_name("$O$U137")
     651                            .dwattr $C$DW$120, DW_AT_type(*$C$DW$T$108)
     652                            .dwattr $C$DW$120, DW_AT_location[DW_OP_reg6]
     653                    $C$DW$121       .dwtag  DW_TAG_variable, DW_AT_name("$O$U135")
     654                            .dwattr $C$DW$121, DW_AT_TI_symbol_name("$O$U135")
     655                            .dwattr $C$DW$121, DW_AT_type(*$C$DW$T$108)
     656                            .dwattr $C$DW$121, DW_AT_location[DW_OP_reg23]
     657                    $C$DW$122       .dwtag  DW_TAG_variable, DW_AT_name("$O$U174")
     658                            .dwattr $C$DW$122, DW_AT_TI_symbol_name("$O$U174")
     659                            .dwattr $C$DW$122, DW_AT_type(*$C$DW$T$108)
     660                            .dwattr $C$DW$122, DW_AT_location[DW_OP_reg6]
TMS320C6x Assembler PC v7.4.2 Thu Mar 19 12:41:33 2015

Tools Copyright (c) 1996-2012 Texas Instruments Incorporated
package/lib/Regression/regress_d_c/./../packages/ti/vlib/src/VLIB_harrisScore_7x7/VLIB_harrisScore_7x7_d.se66 PAGE   13

     661                    $C$DW$123       .dwtag  DW_TAG_variable, DW_AT_name("$O$U170")
     662                            .dwattr $C$DW$123, DW_AT_TI_symbol_name("$O$U170")
     663                            .dwattr $C$DW$123, DW_AT_type(*$C$DW$T$138)
     664                            .dwattr $C$DW$123, DW_AT_location[DW_OP_reg24]
     665                    $C$DW$124       .dwtag  DW_TAG_variable, DW_AT_name("$O$U159")
     666                            .dwattr $C$DW$124, DW_AT_TI_symbol_name("$O$U159")
     667                            .dwattr $C$DW$124, DW_AT_type(*$C$DW$T$138)
     668                            .dwattr $C$DW$124, DW_AT_location[DW_OP_breg31 32]
     669                    $C$DW$125       .dwtag  DW_TAG_variable, DW_AT_name("$O$U168")
     670                            .dwattr $C$DW$125, DW_AT_TI_symbol_name("$O$U168")
     671                            .dwattr $C$DW$125, DW_AT_type(*$C$DW$T$10)
     672                            .dwattr $C$DW$125, DW_AT_location[DW_OP_reg23]
     673                    $C$DW$126       .dwtag  DW_TAG_variable, DW_AT_name("$O$U93")
     674                            .dwattr $C$DW$126, DW_AT_TI_symbol_name("$O$U93")
     675                            .dwattr $C$DW$126, DW_AT_type(*$C$DW$T$43)
     676                            .dwattr $C$DW$126, DW_AT_location[DW_OP_reg26]
     677                    $C$DW$127       .dwtag  DW_TAG_variable, DW_AT_name("$O$K194")
     678                            .dwattr $C$DW$127, DW_AT_TI_symbol_name("$O$K194")
     679                            .dwattr $C$DW$127, DW_AT_type(*$C$DW$T$83)
     680                            .dwattr $C$DW$127, DW_AT_location[DW_OP_reg8]
     681                    $C$DW$128       .dwtag  DW_TAG_variable, DW_AT_name("$O$L1")
     682                            .dwattr $C$DW$128, DW_AT_TI_symbol_name("$O$L1")
     683                            .dwattr $C$DW$128, DW_AT_type(*$C$DW$T$10)
     684                            .dwattr $C$DW$128, DW_AT_location[DW_OP_reg8]
     685                    $C$DW$129       .dwtag  DW_TAG_variable, DW_AT_name("$O$L2")
     686                            .dwattr $C$DW$129, DW_AT_TI_symbol_name("$O$L2")
     687                            .dwattr $C$DW$129, DW_AT_type(*$C$DW$T$10)
     688                            .dwattr $C$DW$129, DW_AT_location[DW_OP_reg26]
     689                    $C$DW$130       .dwtag  DW_TAG_variable, DW_AT_name("$O$L3")
     690                            .dwattr $C$DW$130, DW_AT_TI_symbol_name("$O$L3")
     691                            .dwattr $C$DW$130, DW_AT_type(*$C$DW$T$10)
     692                            .dwattr $C$DW$130, DW_AT_location[DW_OP_reg5]
     693                    $C$DW$131       .dwtag  DW_TAG_variable, DW_AT_name("$O$L4")
     694                            .dwattr $C$DW$131, DW_AT_TI_symbol_name("$O$L4")
     695                            .dwattr $C$DW$131, DW_AT_type(*$C$DW$T$10)
     696                            .dwattr $C$DW$131, DW_AT_location[DW_OP_reg10]
     697                    $C$DW$132       .dwtag  DW_TAG_variable, DW_AT_name("$O$L5")
     698                            .dwattr $C$DW$132, DW_AT_TI_symbol_name("$O$L5")
     699                            .dwattr $C$DW$132, DW_AT_type(*$C$DW$T$10)
     700                            .dwattr $C$DW$132, DW_AT_location[DW_OP_reg5]
     701                    $C$DW$133       .dwtag  DW_TAG_variable, DW_AT_name("tpi")
     702                            .dwattr $C$DW$133, DW_AT_TI_symbol_name("tpi")
     703                            .dwattr $C$DW$133, DW_AT_type(*$C$DW$T$23)
     704                            .dwattr $C$DW$133, DW_AT_location[DW_OP_reg13]
     705                    $C$DW$134       .dwtag  DW_TAG_variable, DW_AT_name("prm")
     706                            .dwattr $C$DW$134, DW_AT_TI_symbol_name("prm")
     707                            .dwattr $C$DW$134, DW_AT_type(*$C$DW$T$46)
     708                            .dwattr $C$DW$134, DW_AT_location[DW_OP_breg31 28]
     709                    $C$DW$135       .dwtag  DW_TAG_variable, DW_AT_name("status_nat_vs_int")
     710                            .dwattr $C$DW$135, DW_AT_TI_symbol_name("status_nat_vs_int")
     711                            .dwattr $C$DW$135, DW_AT_type(*$C$DW$T$23)
     712                            .dwattr $C$DW$135, DW_AT_location[DW_OP_reg14]
     713                    $C$DW$136       .dwtag  DW_TAG_variable, DW_AT_name("status_nat_vs_ref")
     714                            .dwattr $C$DW$136, DW_AT_TI_symbol_name("status_nat_vs_ref")
     715                            .dwattr $C$DW$136, DW_AT_type(*$C$DW$T$23)
TMS320C6x Assembler PC v7.4.2 Thu Mar 19 12:41:33 2015

Tools Copyright (c) 1996-2012 Texas Instruments Incorporated
package/lib/Regression/regress_d_c/./../packages/ti/vlib/src/VLIB_harrisScore_7x7/VLIB_harrisScore_7x7_d.se66 PAGE   14

     716                            .dwattr $C$DW$136, DW_AT_location[DW_OP_reg12]
     717                    $C$DW$137       .dwtag  DW_TAG_variable, DW_AT_name("out_size")
     718                            .dwattr $C$DW$137, DW_AT_TI_symbol_name("out_size")
     719                            .dwattr $C$DW$137, DW_AT_type(*$C$DW$T$23)
     720                            .dwattr $C$DW$137, DW_AT_location[DW_OP_reg3]
     721                    $C$DW$138       .dwtag  DW_TAG_variable, DW_AT_name("input")
     722                            .dwattr $C$DW$138, DW_AT_TI_symbol_name("input")
     723                            .dwattr $C$DW$138, DW_AT_type(*$C$DW$T$20)
     724                            .dwattr $C$DW$138, DW_AT_location[DW_OP_breg31 36]
     725                    $C$DW$139       .dwtag  DW_TAG_variable, DW_AT_name("gradX")
     726                            .dwattr $C$DW$139, DW_AT_TI_symbol_name("gradX")
     727                            .dwattr $C$DW$139, DW_AT_type(*$C$DW$T$102)
     728                            .dwattr $C$DW$139, DW_AT_location[DW_OP_breg31 40]
     729                    $C$DW$140       .dwtag  DW_TAG_variable, DW_AT_name("gradY")
     730                            .dwattr $C$DW$140, DW_AT_TI_symbol_name("gradY")
     731                            .dwattr $C$DW$140, DW_AT_type(*$C$DW$T$102)
     732                            .dwattr $C$DW$140, DW_AT_location[DW_OP_breg31 44]
     733                    $C$DW$141       .dwtag  DW_TAG_variable, DW_AT_name("outm")
     734                            .dwattr $C$DW$141, DW_AT_TI_symbol_name("outm")
     735                            .dwattr $C$DW$141, DW_AT_type(*$C$DW$T$110)
     736                            .dwattr $C$DW$141, DW_AT_location[DW_OP_breg31 48]
     737                    $C$DW$142       .dwtag  DW_TAG_variable, DW_AT_name("outm_cn")
     738                            .dwattr $C$DW$142, DW_AT_TI_symbol_name("outm_cn")
     739                            .dwattr $C$DW$142, DW_AT_type(*$C$DW$T$110)
     740                            .dwattr $C$DW$142, DW_AT_location[DW_OP_breg31 52]
     741                    $C$DW$143       .dwtag  DW_TAG_variable, DW_AT_name("scratch")
     742                            .dwattr $C$DW$143, DW_AT_TI_symbol_name("scratch")
     743                            .dwattr $C$DW$143, DW_AT_type(*$C$DW$T$20)
     744                            .dwattr $C$DW$143, DW_AT_location[DW_OP_breg31 56]
     745                    $C$DW$144       .dwtag  DW_TAG_variable, DW_AT_name("i")
     746                            .dwattr $C$DW$144, DW_AT_TI_symbol_name("i")
     747                            .dwattr $C$DW$144, DW_AT_type(*$C$DW$T$23)
     748                            .dwattr $C$DW$144, DW_AT_location[DW_OP_reg9]
     749                    $C$DW$145       .dwtag  DW_TAG_variable, DW_AT_name("w")
     750                            .dwattr $C$DW$145, DW_AT_TI_symbol_name("w")
     751                            .dwattr $C$DW$145, DW_AT_type(*$C$DW$T$24)
     752                            .dwattr $C$DW$145, DW_AT_location[DW_OP_reg22]
     753                    $C$DW$146       .dwtag  DW_TAG_variable, DW_AT_name("$O$U97")
     754                            .dwattr $C$DW$146, DW_AT_TI_symbol_name("$O$U97")
     755                            .dwattr $C$DW$146, DW_AT_type(*$C$DW$T$10)
     756                            .dwattr $C$DW$146, DW_AT_location[DW_OP_reg27]
     757                    $C$DW$147       .dwtag  DW_TAG_variable, DW_AT_name("$O$U97")
     758                            .dwattr $C$DW$147, DW_AT_TI_symbol_name("$O$U97")
     759                            .dwattr $C$DW$147, DW_AT_type(*$C$DW$T$10)
     760                            .dwattr $C$DW$147, DW_AT_location[DW_OP_reg27]
     761                    $C$DW$148       .dwtag  DW_TAG_variable, DW_AT_name("$O$U133")
     762                            .dwattr $C$DW$148, DW_AT_TI_symbol_name("$O$U133")
     763                            .dwattr $C$DW$148, DW_AT_type(*$C$DW$T$10)
     764                            .dwattr $C$DW$148, DW_AT_location[DW_OP_reg22]
     765                    $C$DW$149       .dwtag  DW_TAG_variable, DW_AT_name("$O$U133")
     766                            .dwattr $C$DW$149, DW_AT_TI_symbol_name("$O$U133")
     767                            .dwattr $C$DW$149, DW_AT_type(*$C$DW$T$10)
     768                            .dwattr $C$DW$149, DW_AT_location[DW_OP_reg22]
     769                    $C$DW$150       .dwtag  DW_TAG_variable, DW_AT_name("$O$U95")
     770                            .dwattr $C$DW$150, DW_AT_TI_symbol_name("$O$U95")
TMS320C6x Assembler PC v7.4.2 Thu Mar 19 12:41:33 2015

Tools Copyright (c) 1996-2012 Texas Instruments Incorporated
package/lib/Regression/regress_d_c/./../packages/ti/vlib/src/VLIB_harrisScore_7x7/VLIB_harrisScore_7x7_d.se66 PAGE   15

     771                            .dwattr $C$DW$150, DW_AT_type(*$C$DW$T$10)
     772                            .dwattr $C$DW$150, DW_AT_location[DW_OP_reg29]
     773                    $C$DW$151       .dwtag  DW_TAG_variable, DW_AT_name("x")
     774                            .dwattr $C$DW$151, DW_AT_TI_symbol_name("x")
     775                            .dwattr $C$DW$151, DW_AT_type(*$C$DW$T$23)
     776                            .dwattr $C$DW$151, DW_AT_location[DW_OP_reg21]
     777                    $C$DW$152       .dwtag  DW_TAG_variable, DW_AT_name("x")
     778                            .dwattr $C$DW$152, DW_AT_TI_symbol_name("x")
     779                            .dwattr $C$DW$152, DW_AT_type(*$C$DW$T$23)
     780                            .dwattr $C$DW$152, DW_AT_location[DW_OP_reg21]
     781                    $C$DW$153       .dwtag  DW_TAG_variable, DW_AT_name("y")
     782                            .dwattr $C$DW$153, DW_AT_TI_symbol_name("y")
     783                            .dwattr $C$DW$153, DW_AT_type(*$C$DW$T$23)
     784                            .dwattr $C$DW$153, DW_AT_location[DW_OP_reg10]
     785                    $C$DW$154       .dwtag  DW_TAG_variable, DW_AT_name("y")
     786                            .dwattr $C$DW$154, DW_AT_TI_symbol_name("y")
     787                            .dwattr $C$DW$154, DW_AT_type(*$C$DW$T$23)
     788                            .dwattr $C$DW$154, DW_AT_location[DW_OP_reg15]
     789                    $C$DW$155       .dwtag  DW_TAG_variable, DW_AT_name("$O$v1")
     790                            .dwattr $C$DW$155, DW_AT_TI_symbol_name("$O$v1")
     791                            .dwattr $C$DW$155, DW_AT_type(*$C$DW$T$46)
     792                            .dwattr $C$DW$155, DW_AT_location[DW_OP_reg20]
     793                    $C$DW$156       .dwtag  DW_TAG_variable, DW_AT_name("$O$v1")
     794                            .dwattr $C$DW$156, DW_AT_TI_symbol_name("$O$v1")
     795                            .dwattr $C$DW$156, DW_AT_type(*$C$DW$T$46)
     796                            .dwattr $C$DW$156, DW_AT_location[DW_OP_reg15]
     797                    $C$DW$157       .dwtag  DW_TAG_variable, DW_AT_name("$O$v2")
     798                            .dwattr $C$DW$157, DW_AT_TI_symbol_name("$O$v2")
     799                            .dwattr $C$DW$157, DW_AT_type(*$C$DW$T$163)
     800                            .dwattr $C$DW$157, DW_AT_location[DW_OP_reg20]
     801                    $C$DW$158       .dwtag  DW_TAG_variable, DW_AT_name("$O$v2")
     802                            .dwattr $C$DW$158, DW_AT_TI_symbol_name("$O$v2")
     803                            .dwattr $C$DW$158, DW_AT_type(*$C$DW$T$163)
     804                            .dwattr $C$DW$158, DW_AT_location[DW_OP_reg24]
     805 00000010 0200002a!            MVKL    .S2     test_cases,B4
     806 00000014 0200006a!            MVKH    .S2     test_cases,B4
     807                    $C$DW$159       .dwtag  DW_TAG_TI_branch
     808                            .dwattr $C$DW$159, DW_AT_low_pc(0x00)
     809                            .dwattr $C$DW$159, DW_AT_name("harrisScore_7x7_getTestParams")
     810                            .dwattr $C$DW$159, DW_AT_TI_call
     811                    
     812 00000018 10000013!            CALLP   .S2     harrisScore_7x7_getTestParams,B3
     813 00000020 120007fc  ||         ADDAW   .D1X    SP,7,A4           ; |62| 
     814                    
     815                            .dwpsn  file "./../packages/ti/vlib/src/VLIB_harrisScore_7x7/VLIB_harrisScore_7x7_d.c",line 62
     816                    ;----------------------------------------------------------------------
     817                    ;  62 | harrisScore_7x7_getTestParams(&prm, &test_cases);                      
     818                    ;----------------------------------------------------------------------
     819 00000024           $C$RL0:    ; CALL OCCURS {harrisScore_7x7_getTestParams} {0}  ; |62| 
     820                    ;** --------------------------------------------------------------------------*
     821                    ;          EXCLUSIVE CPU CYCLES: 8
     822 00000024 0200002a!            MVKL    .S2     $C$SL1+0,B4
     823 00000028 0200006a!            MVKH    .S2     $C$SL1+0,B4
     824                    $C$DW$160       .dwtag  DW_TAG_TI_branch
     825                            .dwattr $C$DW$160, DW_AT_low_pc(0x00)
TMS320C6x Assembler PC v7.4.2 Thu Mar 19 12:41:33 2015

Tools Copyright (c) 1996-2012 Texas Instruments Incorporated
package/lib/Regression/regress_d_c/./../packages/ti/vlib/src/VLIB_harrisScore_7x7/VLIB_harrisScore_7x7_d.se66 PAGE   16

     826                            .dwattr $C$DW$160, DW_AT_name("VLIB_profile_init")
     827                            .dwattr $C$DW$160, DW_AT_TI_call
     828                    
     829 0000002c 10000013!            CALLP   .S2     VLIB_profile_init,B3
     830 00000030 0208a358  ||         MVK     .L1     0x2,A4            ; |65| 
     831                    
     832                            .dwpsn  file "./../packages/ti/vlib/src/VLIB_harrisScore_7x7/VLIB_harrisScore_7x7_d.c",line 65
     833                    ;----------------------------------------------------------------------
     834                    ;  65 | VLIB_profile_init(2, "VLIB_harrisScore_7x7");                          
     835                    ;----------------------------------------------------------------------
     836 00000034           $C$RL1:    ; CALL OCCURS {VLIB_profile_init} {0}  ; |65| 
     837                    ;** --------------------------------------------------------------------------*
     838                    ;          EXCLUSIVE CPU CYCLES: 14
     839                    ;**     -----------------------    K$52 = &testPatternString[0];
     840                    ;**     -----------------------    K$58 = 255;
     841                    ;**     -----------------------    K$194 = &desc[0];
     842                    ;**     -----------------------    U$12 = prm-28;
     843                    ;**     -----------------------    U$11 = 0;
     844                    ;** 68  -----------------------    tpi = 0;
     845                    ;**     -----------------------    #pragma LOOP_FLAGS(5120u)
     846                    
     847 00000034 01800029!            MVKL    .S1     test_cases,A3
     848 00000038 02bce2e4  ||         LDW     .D2T1   *+SP(28),A5
     849                    
     850 0000003c 01800068!            MVKH    .S1     test_cases,A3
     851                            .dwpsn  file "./../packages/ti/vlib/src/VLIB_harrisScore_7x7/VLIB_harrisScore_7x7_d.c",line 68
     852                    ;----------------------------------------------------------------------
     853                    ;  68 | for( tpi=0; tpi < test_cases; tpi++ ) {                                
     854                    ;----------------------------------------------------------------------
     855 00000040 020c0264             LDW     .D1T1   *A3,A4            ; |68| 
     856                            .dwpsn  file "./../packages/ti/vlib/src/VLIB_harrisScore_7x7/VLIB_harrisScore_7x7_d.c",line 68
     857                    ;----------------------------------------------------------------------
     858                    ;  71 | int32_t    status_nat_vs_int = vlib_KERNEL_PASS; /* Test status : Natur
     859                    ;     | al c vs. Optimized */                                                  
     860                    ;  72 | int32_t    status_nat_vs_ref = vlib_KERNEL_PASS; /* Test status : Natur
     861                    ;     | al c vs. Static Reference */                                           
     862                    ;----------------------------------------------------------------------
     863 00000044 0600a35a             ZERO    .L2     B12               ; |68| 
     864 00000048 0680a358             ZERO    .L1     A13               ; |68| 
     865 0000004c 059789c0             SUB     .D1     A5,28,A11
     866 00000050     0c6e             NOP             1
     867                            .dwpsn  file "./../packages/ti/vlib/src/VLIB_harrisScore_7x7/VLIB_harrisScore_7x7_d.c",line 68
     868 00000052     1226             CMPGT   .L1     A4,0,A0           ; |68| 
     869                    
     870 00000054 d3a02123     [!A0]   BNOP    .S2     $C$L20,1          ; |68| 
     871 00000058 c5800e50  || [ A0]   ADDK    .S1     28,A11            ; |76| 
     872                    
     873                            .dwpsn  file "./../packages/ti/vlib/src/VLIB_harrisScore_7x7/VLIB_harrisScore_7x7_d.c",line 76
     874                    ;----------------------------------------------------------------------
     875                    ;  76 | int32_t    out_size = prm[tpi].width * prm[tpi].height - (3 * prm[tpi].
     876                    ;     | width + 3);                                                            
     877                    ;----------------------------------------------------------------------
     878 00000060 c52c8264     [ A0]   LDW     .D1T1   *+A11(16),A10     ; |76| 
     879 00000064 c62c6264     [ A0]   LDW     .D1T1   *+A11(12),A12     ; |76| 
     880 00000068 00002000             NOP             2
TMS320C6x Assembler PC v7.4.2 Thu Mar 19 12:41:33 2015

Tools Copyright (c) 1996-2012 Texas Instruments Incorporated
package/lib/Regression/regress_d_c/./../packages/ti/vlib/src/VLIB_harrisScore_7x7/VLIB_harrisScore_7x7_d.se66 PAGE   17

     881                            .dwpsn  file "./../packages/ti/vlib/src/VLIB_harrisScore_7x7/VLIB_harrisScore_7x7_d.c",line 68
     882                               ; BRANCHCC OCCURS {$C$L20}        ; |68| 
     883                    ;** --------------------------------------------------------------------------*
     884                    ;**   BEGIN LOOP $C$L1
     885                    ;** --------------------------------------------------------------------------*
     886 0000006c           $C$L1:    
     887                            .dwpsn  file "./../packages/ti/vlib/src/VLIB_harrisScore_7x7/VLIB_harrisScore_7x7_d.c",line 68
     888 0000006c           $C$DW$L$VLIB_harrisScore_7x7_d$4$B:
     889                    ;          EXCLUSIVE CPU CYCLES: 6
     890                    ;**     -----------------------g3:
     891                    ;** 76  -----------------------    C$24 = (*(U$12 += 28)).height;
     892                    ;** 76  -----------------------    C$23 = (*U$12).width;
     893                    ;** 76  -----------------------    out_size = (C$24-3)*C$23-3;
     894                    ;** 79  -----------------------    input = malloc((unsigned)(C$23*C$24));
     895                    ;** 80  -----------------------    gradX = VLIB_malloc((unsigned)((*U$12).width*(*U$12).height*2));
     896                    ;** 81  -----------------------    gradY = VLIB_malloc((unsigned)((*U$12).width*(*U$12).height*2));
     897                    ;** 83  -----------------------    C$22 = out_size*2;
     898                    ;** 83  -----------------------    outm = VLIB_malloc((unsigned)C$22);
     899                    ;** 84  -----------------------    outm_cn = malloc((unsigned)C$22);
     900                    ;** 89  -----------------------    scratch = VLIB_memalign(4u, (unsigned)((*U$12).width*96));
     901                    ;** 93  -----------------------    if ( !((input != NULL)&(gradX != NULL)&(gradY != NULL)&(outm != NUL
     902                            .dwpsn  file "./../packages/ti/vlib/src/VLIB_harrisScore_7x7/VLIB_harrisScore_7x7_d.c",line 79
     903                    ;----------------------------------------------------------------------
     904                    ;  79 | uint8_t   *input    =  (uint8_t *) malloc(prm[tpi].width * prm[tpi].hei
     905                    ;     | ght);                                                                  
     906                    ;----------------------------------------------------------------------
     907                    $C$DW$161       .dwtag  DW_TAG_TI_branch
     908                            .dwattr $C$DW$161, DW_AT_low_pc(0x00)
     909                            .dwattr $C$DW$161, DW_AT_name("malloc")
     910                            .dwattr $C$DW$161, DW_AT_TI_call
     911 0000006c 00000010!            CALL    .S1     malloc            ; |79| 
     912 00000070 01870162             ADDKPC  .S2     $C$RL2,B3,0       ; |79| 
     913 00000074 02314800             MPY32   .M1     A10,A12,A4        ; |79| 
     914 00000078 00004000             NOP             3
     915 0000007c           $C$RL2:    ; CALL OCCURS {malloc} {0}        ; |79| 
     916 0000007c           $C$DW$L$VLIB_harrisScore_7x7_d$4$E:
     917                    ;** --------------------------------------------------------------------------*
     918 0000007c           $C$DW$L$VLIB_harrisScore_7x7_d$5$B:
     919                    ;          EXCLUSIVE CPU CYCLES: 65
     920 0000007c 023d22f4             STW     .D2T1   A4,*+SP(36)       ; |79| 
     921                            .dwpsn  file "./../packages/ti/vlib/src/VLIB_harrisScore_7x7/VLIB_harrisScore_7x7_d.c",line 80
     922                    ;----------------------------------------------------------------------
     923                    ;  80 | int16_t   *gradX    =  (int16_t *) VLIB_malloc(prm[tpi].width * prm[tpi
     924                    ;     | ].height * sizeof(int16_t));                                           
     925                    ;----------------------------------------------------------------------
     926 00000080 01ac6264             LDW     .D1T1   *+A11(12),A3      ; |80| 
     927 00000084 022c8264             LDW     .D1T1   *+A11(16),A4      ; |80| 
     928 00000088 00006000             NOP             4
     929 0000008c 018c8800             MPY32   .M1     A4,A3,A3          ; |80| 
     930 00000090     4c6e             NOP             3
     931                    $C$DW$162       .dwtag  DW_TAG_TI_branch
     932                            .dwattr $C$DW$162, DW_AT_low_pc(0x00)
     933                            .dwattr $C$DW$162, DW_AT_name("VLIB_malloc")
     934                            .dwattr $C$DW$162, DW_AT_TI_call
     935                    
TMS320C6x Assembler PC v7.4.2 Thu Mar 19 12:41:33 2015

Tools Copyright (c) 1996-2012 Texas Instruments Incorporated
package/lib/Regression/regress_d_c/./../packages/ti/vlib/src/VLIB_harrisScore_7x7/VLIB_harrisScore_7x7_d.se66 PAGE   18

     936 00000094 10000012!            CALLP   .S2     VLIB_malloc,B3
     937 00000092     61c0  ||         ADD     .L1     A3,A3,A4          ; |80| 
     938                    
     939 00000098           $C$RL3:    ; CALL OCCURS {VLIB_malloc} {0}   ; |80| 
     940 00000098 023d42f4             STW     .D2T1   A4,*+SP(40)       ; |80| 
     941                            .dwpsn  file "./../packages/ti/vlib/src/VLIB_harrisScore_7x7/VLIB_harrisScore_7x7_d.c",line 81
     942                    ;----------------------------------------------------------------------
     943                    ;  81 | int16_t   *gradY    =  (int16_t *) VLIB_malloc(prm[tpi].width * prm[tpi
     944                    ;     | ].height * sizeof(int16_t));                                           
     945                    ;----------------------------------------------------------------------
     946 000000a0 01ac6264             LDW     .D1T1   *+A11(12),A3      ; |81| 
     947 000000a4 022c8264             LDW     .D1T1   *+A11(16),A4      ; |81| 
     948 000000a8 00006000             NOP             4
     949 000000ac 018c8800             MPY32   .M1     A4,A3,A3          ; |81| 
     950 000000b0     4c6e             NOP             3
     951                    $C$DW$163       .dwtag  DW_TAG_TI_branch
     952                            .dwattr $C$DW$163, DW_AT_low_pc(0x00)
     953                            .dwattr $C$DW$163, DW_AT_name("VLIB_malloc")
     954                            .dwattr $C$DW$163, DW_AT_TI_call
     955                    
     956 000000b4 10000012!            CALLP   .S2     VLIB_malloc,B3
     957 000000b2     61c0  ||         ADD     .L1     A3,A3,A4          ; |81| 
     958                    
     959 000000b8           $C$RL4:    ; CALL OCCURS {VLIB_malloc} {0}   ; |81| 
     960                            .dwpsn  file "./../packages/ti/vlib/src/VLIB_harrisScore_7x7/VLIB_harrisScore_7x7_d.c",line 76
     961 000000b8 01aba058             SUB     .L1     A10,3,A3          ; |76| 
     962 000000c0 018d8800             MPY32   .M1     A12,A3,A3         ; |76| 
     963                            .dwpsn  file "./../packages/ti/vlib/src/VLIB_harrisScore_7x7/VLIB_harrisScore_7x7_d.c",line 81
     964 000000c4     ed45             STW     .D2T1   A4,*+SP(44)       ; |81| 
     965 000000c6     2c6e             NOP             2
     966                            .dwpsn  file "./../packages/ti/vlib/src/VLIB_harrisScore_7x7/VLIB_harrisScore_7x7_d.c",line 76
     967 000000c8     adb0             SUB     .L1     A3,3,A3           ; |76| 
     968                    $C$DW$164       .dwtag  DW_TAG_TI_branch
     969                            .dwattr $C$DW$164, DW_AT_low_pc(0x04)
     970                            .dwattr $C$DW$164, DW_AT_name("VLIB_malloc")
     971                            .dwattr $C$DW$164, DW_AT_TI_call
     972                    
     973 000000ca     61c0             ADD     .L1     A3,A3,A4          ; |83| 
     974 000000cc 10000013! ||         CALLP   .S2     VLIB_malloc,B3
     975 000000d0 050c61e0  ||         ADD     .S1     A3,A3,A10         ; |83| 
     976                    
     977                            .dwpsn  file "./../packages/ti/vlib/src/VLIB_harrisScore_7x7/VLIB_harrisScore_7x7_d.c",line 83
     978                    ;----------------------------------------------------------------------
     979                    ;  83 | uint16_t   *outm     =  (uint16_t *) VLIB_malloc(out_size * sizeof(uint
     980                    ;     | 16_t));                                                                
     981                    ;----------------------------------------------------------------------
     982                    $C$RL5:    ; CALL OCCURS {VLIB_malloc} {0}   ; |83| 
     983                    $C$DW$165       .dwtag  DW_TAG_TI_branch
     984                            .dwattr $C$DW$165, DW_AT_low_pc(0x00)
     985                            .dwattr $C$DW$165, DW_AT_name("malloc")
     986                            .dwattr $C$DW$165, DW_AT_TI_call
     987                    
     988 000000d4 10000013!            CALLP   .S2     malloc,B3
     989 000000d8     8dc5  ||         STW     .D2T1   A4,*+SP(48)       ; |83| 
     990 000000da     8506  ||         MV      .L1     A10,A4            ; |84| 
TMS320C6x Assembler PC v7.4.2 Thu Mar 19 12:41:33 2015

Tools Copyright (c) 1996-2012 Texas Instruments Incorporated
package/lib/Regression/regress_d_c/./../packages/ti/vlib/src/VLIB_harrisScore_7x7/VLIB_harrisScore_7x7_d.se66 PAGE   19

     991                    
     992                            .dwpsn  file "./../packages/ti/vlib/src/VLIB_harrisScore_7x7/VLIB_harrisScore_7x7_d.c",line 84
     993                    ;----------------------------------------------------------------------
     994                    ;  84 | uint16_t   *outm_cn  =  (uint16_t *) malloc(out_size * sizeof(uint16_t)
     995                    ;     | );                                                                     
     996                    ;  86 | #ifdef C64T                                                            
     997                    ;  87 | uint8_t   *scratch    = (uint8_t *) VLIB_memalign(4, 108 * prm[tpi].wid
     998                    ;     | th);                                                                   
     999                    ;  88 | #else                                                                  
    1000                    ;----------------------------------------------------------------------
    1001 000000e0           $C$RL6:    ; CALL OCCURS {malloc} {0}        ; |84| 
    1002                            .dwpsn  file "./../packages/ti/vlib/src/VLIB_harrisScore_7x7/VLIB_harrisScore_7x7_d.c",line 89
    1003                    ;----------------------------------------------------------------------
    1004                    ;  89 | uint8_t   *scratch    = (uint8_t *) VLIB_memalign(4, 96 * prm[tpi].widt
    1005                    ;     | h);                                                                    
    1006                    ;----------------------------------------------------------------------
    1007 000000e0 01ac6264             LDW     .D1T1   *+A11(12),A3      ; |89| 
    1008                            .dwpsn  file "./../packages/ti/vlib/src/VLIB_harrisScore_7x7/VLIB_harrisScore_7x7_d.c",line 84
    1009 000000e4     adc5             STW     .D2T1   A4,*+SP(52)       ; |84| 
    1010 000000e6     4c6e             NOP             3
    1011                            .dwpsn  file "./../packages/ti/vlib/src/VLIB_harrisScore_7x7/VLIB_harrisScore_7x7_d.c",line 89
    1012                    ;----------------------------------------------------------------------
    1013                    ;  90 | #endif                                                                 
    1014                    ;----------------------------------------------------------------------
    1015 000000e8     c5ca             SHL     .S1     A3,6,A4           ; |89| 
    1016 000000ea     b5cb             SHL     .S2X    A3,5,B4           ; |89| 
    1017                    $C$DW$166       .dwtag  DW_TAG_TI_branch
    1018                            .dwattr $C$DW$166, DW_AT_low_pc(0x00)
    1019                            .dwattr $C$DW$166, DW_AT_name("VLIB_memalign")
    1020                            .dwattr $C$DW$166, DW_AT_TI_call
    1021                    
    1022 000000ec 10000013!            CALLP   .S2     VLIB_memalign,B3
    1023 000000f0     9241  ||         ADD     .L2X    B4,A4,B4          ; |89| 
    1024 000000f2     8626  ||         MVK     .L1     0x4,A4            ; |89| 
    1025                    
    1026 000000f4           $C$RL7:    ; CALL OCCURS {VLIB_memalign} {0}  ; |89| 
    1027 000000f4           $C$DW$L$VLIB_harrisScore_7x7_d$5$E:
    1028                    ;** --------------------------------------------------------------------------*
    1029 000000f4           $C$DW$L$VLIB_harrisScore_7x7_d$6$B:
    1030                    ;          EXCLUSIVE CPU CYCLES: 19
    1031                    
    1032 000000f4     ad0d             LDW     .D2T1   *+SP(36),A0       ; |93| 
    1033 000000f6     06a7  ||         ZERO    .L2     B5                ; |93| 
    1034 000000f8     0213  ||         ZERO    .S2     B4                ; |93| 
    1035 000000fa     05a6  ||         ZERO    .L1     A3                ; |93| 
    1036                    
    1037                            .dwpsn  file "./../packages/ti/vlib/src/VLIB_harrisScore_7x7/VLIB_harrisScore_7x7_d.c",line 93
    1038                    ;----------------------------------------------------------------------
    1039                    ;  93 | if( input && gradX && gradY && outm && outm_cn && scratch ) {          
    1040                    ;  95 |     int32_t    fail, x, y;                                             
    1041                    ;----------------------------------------------------------------------
    1042 00000100     dd0d             LDW     .D2T2   *+SP(40),B0       ; |93| 
    1043 00000102     ed1d             LDW     .D2T1   *+SP(44),A1       ; |93| 
    1044 00000104     8dad             LDW     .D2T1   *+SP(48),A2       ; |93| 
    1045 00000106     bdad             LDW     .D2T2   *+SP(52),B2       ; |93| 
TMS320C6x Assembler PC v7.4.2 Thu Mar 19 12:41:33 2015

Tools Copyright (c) 1996-2012 Texas Instruments Incorporated
package/lib/Regression/regress_d_c/./../packages/ti/vlib/src/VLIB_harrisScore_7x7/VLIB_harrisScore_7x7_d.se66 PAGE   20

    1046                    
    1047 00000108     cdc5             STW     .D2T1   A4,*+SP(56)       ; |89| 
    1048 0000010a     2ae7  || [ A0]   MVK     .L2     0x1,B5            ; |93| 
    1049 0000010c     0626  ||         ZERO    .L1     A4                ; |93| 
    1050                    
    1051 0000010e     cd8d             LDW     .D2T1   *+SP(56),A0       ; |93| 
    1052 00000110     aa67  || [ B0]   MVK     .L2     0x1,B4            ; |93| 
    1053                    
    1054 00000118 8204a358     [ A1]   MVK     .L1     0x1,A4            ; |93| 
    1055 00000114 02948f7b  ||         AND     .L2     B4,B5,B5          ; |93| 
    1056 00000112     0213  ||         ZERO    .S2     B4                ; |93| 
    1057                    
    1058 00000120 a204a35a     [ A2]   MVK     .L2     0x1,B4            ; |93| 
    1059                    
    1060 00000124 0290bf7b             AND     .L2X    A4,B5,B5          ; |93| 
    1061 00000128 6184a358  || [ B2]   MVK     .L1     0x1,A3            ; |93| 
    1062                    
    1063 0000012c 02948f7b             AND     .L2     B4,B5,B5          ; |93| 
    1064 00000130     0213  ||         ZERO    .S2     B4                ; |93| 
    1065                    
    1066 00000132     2a67     [ A0]   MVK     .L2     0x1,B4            ; |93| 
    1067 00000134 028cb7e2  ||         AND     .S2X    A3,B5,B5          ; |93| 
    1068                    
    1069 00000138 00148f7a             AND     .L2     B4,B5,B0          ; |93| 
    1070                    
    1071 00000140 22007fab     [ B0]   MVK     .S2     0xff,B4
    1072 00000144 3000b411  || [!B0]   B       .S1     $C$L18            ; |93| 
    1073 00000148 242cc204  || [ B0]   LDHU    .D1T1   *+A11(12),A8      ; |98| 
    1074                    
    1075 0000014c 26000029!    [ B0]   MVKL    .S1     testPatternString,A12
    1076 00000150 222c0214  || [ B0]   LDBU    .D1T1   *A11,A4           ; |98| 
    1077                    
    1078                    $C$DW$167       .dwtag  DW_TAG_TI_branch
    1079                            .dwattr $C$DW$167, DW_AT_low_pc(0x00)
    1080                            .dwattr $C$DW$167, DW_AT_name("VLIB_fillBuffer")
    1081                            .dwattr $C$DW$167, DW_AT_TI_call
    1082                    
    1083 00000154 20000011!    [ B0]   CALL    .S1     VLIB_fillBuffer   ; |98| 
    1084 00000158 242d0207  || [ B0]   LDHU    .D1T2   *+A11(16),B8      ; |98| 
    1085 0000015c 233d22e4  || [ B0]   LDW     .D2T1   *+SP(36),A6       ; |98| 
    1086                    
    1087                            .dwpsn  file "./../packages/ti/vlib/src/VLIB_harrisScore_7x7/VLIB_harrisScore_7x7_d.c",line 98
    1088                    ;----------------------------------------------------------------------
    1089                    ;  98 | VLIB_fillBuffer(prm[tpi].testPattern, (uint8_t)255,                    
    1090                    ;  99 |                 input, prm[tpi].staticIn,                              
    1091                    ; 100 |                 prm[tpi].width, prm[tpi].height, prm[tpi].width,       
    1092                    ; 101 |                 sizeof(uint8_t), testPatternString);                   
    1093                    ; 103 | if( prm[tpi].testPattern == CUSTOM ) {                                 
    1094                    ; 105 |     CreatePattern1(input, prm[tpi].width, prm[tpi].height);            
    1095                    ; 110 | VLIB_xyGradients_cn(input, gradX + prm[tpi].width + 1, gradY + prm[tpi]
    1096                    ;     | .width + 1,                                                            
    1097                    ; 111 |                     prm[tpi].width, prm[tpi].height);                  
    1098                    ; 116 | VLIB_profile_start(vlib_KERNEL_OPT);                                   
    1099                    ; 117 | VLIB_harrisScore_7x7(gradX, gradY, prm[tpi].width, prm[tpi].height,    
    1100                    ; 118 |                      (int16_t *)outm, prm[tpi].k, scratch);            
TMS320C6x Assembler PC v7.4.2 Thu Mar 19 12:41:33 2015

Tools Copyright (c) 1996-2012 Texas Instruments Incorporated
package/lib/Regression/regress_d_c/./../packages/ti/vlib/src/VLIB_harrisScore_7x7/VLIB_harrisScore_7x7_d.se66 PAGE   21

    1101                    ; 119 | VLIB_profile_stop();                                                   
    1102                    ; 122 | VLIB_profile_start(vlib_KERNEL_CN);                                    
    1103                    ; 123 | VLIB_harrisScore_7x7_cn(gradX, gradY, prm[tpi].width, prm[tpi].height, 
    1104                    ; 124 |                         (int16_t *)outm_cn, prm[tpi].k, scratch);      
    1105                    ; 125 | VLIB_profile_stop();                                                   
    1106                    ; 131 | for( y=4; y < prm[tpi].height - 4; y++ ) {                             
    1107                    ; 132 |     for( x=4; x < prm[tpi].width - 4; x++ ) {                          
    1108                    ; 133 |         if( outm[y * prm[tpi].width + x] != outm_cn[y * prm[tpi].width
    1109                    ;     | + x] ) {                                                               
    1110                    ; 134 |             printf("(%d, %d) outm = %x\toutm_cn = %x\n", x, y, outm[y *
    1111                    ;     |  prm[tpi].width + x], outm_cn[y * prm[tpi].width + x]);                
    1112                    ; 135 |             status_nat_vs_int = vlib_KERNEL_FAIL;                      
    1113                    ; 136 |             break;                                                     
    1114                    ; 142 | if( prm[tpi].staticOut != NULL ) {                                     
    1115                    ; 144 |     for( y=4; y < prm[tpi].height - 4; y++ ) {                         
    1116                    ; 145 |         for( x=4; x < prm[tpi].width - 4; x++ ) {                      
    1117                    ; 146 |             if( prm[tpi].staticOut[y * prm[tpi].width + x] != outm_cn[y
    1118                    ;     |  * prm[tpi].width + x] ) {                                             
    1119                    ; 147 |                 printf("(%d, %d) refOut = %x\toutm_cn = %x\n", x, y, pr
    1120                    ;     | m[tpi].staticOut[y * prm[tpi].width + x], outm_cn[y * prm[tpi].width + 
    1121                    ;     | x]);                                                                   
    1122                    ; 148 |                 status_nat_vs_ref = vlib_KERNEL_FAIL;                  
    1123                    ; 149 |                 break;                                                 
    1124                    ; 156 | fail = ((status_nat_vs_int == vlib_KERNEL_FAIL) || (status_nat_vs_ref =
    1125                    ;     | = vlib_KERNEL_FAIL)) ? 1 : 0;                                          
    1126                    ; 158 | est_test=1;                                                            
    1127                    ; 161 | sprintf(desc, "%s generated input | Opt results compared to NatC result
    1128                    ;     | s | width=%d, height=%d, k=%d, %s",                                    
    1129                    ; 162 |         testPatternString, prm[tpi].width, prm[tpi].height, prm[tpi].k,
    1130                    ;     |  prm[tpi].desc);                                                       
    1131                    ; 163 | VLIB_formula_add_test(prm[tpi].width * prm[tpi].height, NULL, NULL, fai
    1132                    ;     | l, desc, NULL);                                                        
    1133                    ; 165 | } else {                                                               
    1134                    ;----------------------------------------------------------------------
    1135 00000160 232c2266     [ B0]   LDW     .D1T2   *+A11(4),B6       ; |98| 
    1136                            .dwpsn  file "./../packages/ti/vlib/src/VLIB_harrisScore_7x7/VLIB_harrisScore_7x7_d.c",line 16
    1137                    ;----------------------------------------------------------------------
    1138                    ; 167 | sprintf(desc, "width=%d, height=%d, k=%d",                             
    1139                    ; 168 |         prm[tpi].width, prm[tpi].height, prm[tpi].k);                  
    1140                    ; 169 | VLIB_skip_test(desc);                                                  
    1141                    ;----------------------------------------------------------------------
    1142 00000164 322c8264     [!B0]   LDW     .D1T1   *+A11(16),A4      ; |167| 
    1143 00000168 31ad4244     [!B0]   LDH     .D1T1   *+A11(20),A3      ; |167| 
    1144                            .dwpsn  file "./../packages/ti/vlib/src/VLIB_harrisScore_7x7/VLIB_harrisScore_7x7_d.c",line 93
    1145                               ; BRANCHCC OCCURS {$C$L18}        ; |93| 
    1146 0000016c           $C$DW$L$VLIB_harrisScore_7x7_d$6$E:
    1147                    ;** --------------------------------------------------------------------------*
    1148 0000016c           $C$DW$L$VLIB_harrisScore_7x7_d$7$B:
    1149                    ;          EXCLUSIVE CPU CYCLES: 2
    1150                    ;** 98  -----------------------    C$21 = (unsigned short)(*U$12).width;
    1151                    ;** 98  -----------------------    VLIB_fillBuffer((*U$12).testPattern, (unsigned char)K$58, (void *)i
    1152                    ;** 103 -----------------------    v$1 = prm;
    1153                    ;**     -----------------------    K$113 = &cycles[0];
    1154                    ;** 71  -----------------------    status_nat_vs_int = 1;
    1155                    ;** 72  -----------------------    status_nat_vs_ref = 1;
TMS320C6x Assembler PC v7.4.2 Thu Mar 19 12:41:33 2015

Tools Copyright (c) 1996-2012 Texas Instruments Incorporated
package/lib/Regression/regress_d_c/./../packages/ti/vlib/src/VLIB_harrisScore_7x7/VLIB_harrisScore_7x7_d.se66 PAGE   22

    1156                    ;** 103 -----------------------    if ( (*U$12).testPattern != 5 ) goto g9;
    1157                            .dwpsn  file "./../packages/ti/vlib/src/VLIB_harrisScore_7x7/VLIB_harrisScore_7x7_d.c",line 98
    1158 0000016c 0213180a             EXTU    .S2     B4,24,24,B4       ; |98| 
    1159                    
    1160 00000170 01880163             ADDKPC  .S2     $C$RL8,B3,0       ; |98| 
    1161 00000174 06000069! ||         MVKH    .S1     testPatternString,A12
    1162 00000178 0504a35b  ||         MVK     .L2     0x1,B10           ; |98| 
    1163 0000017c 05200fd8  ||         MV      .L1     A8,A10            ; |98| 
    1164                    
    1165 00000180           $C$RL8:    ; CALL OCCURS {VLIB_fillBuffer} {0}  ; |98| 
    1166 00000180           $C$DW$L$VLIB_harrisScore_7x7_d$7$E:
    1167                    ;** --------------------------------------------------------------------------*
    1168 00000180           $C$DW$L$VLIB_harrisScore_7x7_d$8$B:
    1169                    ;          EXCLUSIVE CPU CYCLES: 12
    1170                            .dwpsn  file "./../packages/ti/vlib/src/VLIB_harrisScore_7x7/VLIB_harrisScore_7x7_d.c",line 10
    1171 00000180 01ac0214             LDBU    .D1T1   *A11,A3           ; |103| 
    1172 00000184 07281fd8             MV      .L1X    B10,A14           ; |103| 
    1173 00000188 023ce2e6             LDW     .D2T2   *+SP(28),B4       ; |103| 
    1174 0000018c 07800028!            MVKL    .S1     cycles,A15
    1175 00000190 06281fd8             MV      .L1X    B10,A12           ; |103| 
    1176 00000194 000caa58             CMPEQ   .L1     A3,5,A0           ; |103| 
    1177                    
    1178 00000198 d0001311     [!A0]   B       .S1     $C$L3             ; |103| 
    1179 0000019c c22c8264  || [ A0]   LDW     .D1T1   *+A11(16),A4      ; |46| 
    1180                    
    1181                            .dwpsn  file "./../packages/ti/vlib/src/VLIB_harrisScore_7x7/VLIB_harrisScore_7x7_d.c",line 10
    1182 000001a0 c1ac6264     [ A0]   LDW     .D1T1   *+A11(12),A3      ; |105| 
    1183 000001a4 07800068!            MVKH    .S1     cycles,A15
    1184 000001a8     4c6e             NOP             3
    1185                            .dwpsn  file "./../packages/ti/vlib/src/VLIB_harrisScore_7x7/VLIB_harrisScore_7x7_d.c",line 10
    1186                               ; BRANCHCC OCCURS {$C$L3}         ; |103| 
    1187 000001aa           $C$DW$L$VLIB_harrisScore_7x7_d$8$E:
    1188                    ;** --------------------------------------------------------------------------*
    1189 000001aa           $C$DW$L$VLIB_harrisScore_7x7_d$9$B:
    1190                    ;          EXCLUSIVE CPU CYCLES: 9
    1191                    ;** 105 -----------------------    C$20 = (*U$12).width;
    1192                    ;** 105 -----------------------    w = C$20;
    1193                    ;** 46  -----------------------    if ( (C$19 = _mpy(C$20, (*U$12).height)) <= 0 ) goto g9;  // [26]
    1194                    
    1195 000001aa     6a1e             MPY     .M1     A3,A4,A4          ; |46| 
    1196 000001ac     b1c7  ||         MV      .L2X    A3,B5             ; |105| Define a twin register
    1197                    
    1198                            .dwpsn  file "./../packages/ti/vlib/src/VLIB_harrisScore_7x7/VLIB_harrisScore_7x7_d.c",line 10
    1199 000001ae     c2e3             EXT     .S2     B5,16,16,B6       ; |105| 
    1200                            .dwpsn  file "./../packages/ti/vlib/src/VLIB_harrisScore_7x7/VLIB_harrisScore_7x7_d.c",line 46
    1201 000001b0 00100ad8             CMPGT   .L1     A4,0,A0           ; |46| 
    1202                    
    1203 000001b4 d03ca123     [!A0]   BNOP    .S2     $C$L3,5           ; |46| 
    1204 000001b8 c1bd22e5  || [ A0]   LDW     .D2T1   *+SP(36),A3       ; |47| 
    1205 000001c0 c4100fd9  || [ A0]   MV      .L1     A4,A8             ; |47| 
    1206 000001c4 c3803fa9  || [ A0]   MVK     .S1     0x7f,A7
    1207 000001c8 c4800040  || [ A0]   ZERO    .D1     A9                ; |46| 
    1208                    
    1209                               ; BRANCHCC OCCURS {$C$L3}         ; |46| 
    1210 000001cc           $C$DW$L$VLIB_harrisScore_7x7_d$9$E:
TMS320C6x Assembler PC v7.4.2 Thu Mar 19 12:41:33 2015

Tools Copyright (c) 1996-2012 Texas Instruments Incorporated
package/lib/Regression/regress_d_c/./../packages/ti/vlib/src/VLIB_harrisScore_7x7/VLIB_harrisScore_7x7_d.se66 PAGE   23

    1211                    ;** --------------------------------------------------------------------------*
    1212 000001cc           $C$DW$L$VLIB_harrisScore_7x7_d$10$B:
    1213                    ;**     -----------------------    K$83 = 127;
    1214                    ;**     -----------------------    U$86 = input;
    1215                    ;** 47  -----------------------    L$1 = C$19;  // [26]
    1216                    ;** 46  -----------------------    i = 0;  // [26]
    1217                    ;**     -----------------------    #pragma MUST_ITERATE(1, 18446744073709551615, 1)
    1218                    ;**     -----------------------    #pragma LOOP_FLAGS(4096u)
    1219 000001cc           $C$DW$L$VLIB_harrisScore_7x7_d$10$E:
    1220                    ;*----------------------------------------------------------------------------*
    1221                    ;*   SOFTWARE PIPELINE INFORMATION
    1222                    ;*      Disqualified loop: Loop contains a call
    1223                    ;*      Disqualified loop: Loop contains non-pipelinable instructions
    1224                    ;*      Disqualified loop: Loop contains a call
    1225                    ;*      Disqualified loop: Loop contains non-pipelinable instructions
    1226                    ;*----------------------------------------------------------------------------*
    1227 000001cc           $C$L2:    
    1228                            .dwpsn  file "./../packages/ti/vlib/src/VLIB_harrisScore_7x7/VLIB_harrisScore_7x7_d.c",line 46
    1229 000001cc           $C$DW$L$VLIB_harrisScore_7x7_d$11$B:
    1230                    ;          EXCLUSIVE CPU CYCLES: 6
    1231                    ;**     -----------------------g7:
    1232                    ;** 50  -----------------------    C$18 = i/w;  // [26]
    1233                    ;** 50  -----------------------    C$17 = i%w;  // [26]
    1234                    ;** 50  -----------------------    *U$86++ = ((C$17|C$18)+(((unsigned)C$17|(unsigned)C$18)>>31)>>1)+K$
    1235                    ;** 46  -----------------------    ++i;  // [26]
    1236                    ;** 46  -----------------------    if ( L$1 = L$1-1 ) goto g7;  // [26]
    1237                            .dwpsn  file "./../packages/ti/vlib/src/VLIB_harrisScore_7x7/VLIB_harrisScore_7x7_d.c",line 50
    1238                    $C$DW$168       .dwtag  DW_TAG_TI_branch
    1239                            .dwattr $C$DW$168, DW_AT_low_pc(0x00)
    1240                            .dwattr $C$DW$168, DW_AT_name("__c6xabi_divi")
    1241                            .dwattr $C$DW$168, DW_AT_TI_call
    1242 000001cc 00000010!            CALL    .S1     __c6xabi_divi     ; |50| 
    1243 000001d0 01886162             ADDKPC  .S2     $C$RL9,B3,3       ; |50| 
    1244                    
    1245 000001d4     8486             MV      .L1     A9,A4             ; |50| 
    1246 000001d6     8347  ||         MV      .L2     B6,B4             ; |50| 
    1247                    
    1248                    $C$RL9:    ; CALL OCCURS {__c6xabi_divi} {0}  ; |50| 
    1249                    $C$DW$L$VLIB_harrisScore_7x7_d$11$E:
    1250                    ;** --------------------------------------------------------------------------*
    1251                    $C$DW$L$VLIB_harrisScore_7x7_d$12$B:
    1252                    ;          EXCLUSIVE CPU CYCLES: 6
    1253                    $C$DW$169       .dwtag  DW_TAG_TI_branch
    1254                            .dwattr $C$DW$169, DW_AT_low_pc(0x00)
    1255                            .dwattr $C$DW$169, DW_AT_name("__c6xabi_remi")
    1256                            .dwattr $C$DW$169, DW_AT_TI_call
    1257                    
    1258 000001e0 10000013!            CALLP   .S2     __c6xabi_remi,B3
    1259 000001e4     8347  ||         MV      .L2     B6,B4             ; |50| 
    1260 000001e6     0a46  ||         MV      .L1     A4,A16            ; |50| 
    1261 000001e8 022406a0  ||         MV      .S1     A9,A4             ; |50| 
    1262                    
    1263 000001ec           $C$RL10:   ; CALL OCCURS {__c6xabi_remi} {0}  ; |50| 
    1264 000001ec           $C$DW$L$VLIB_harrisScore_7x7_d$12$E:
    1265                    ;** --------------------------------------------------------------------------*
TMS320C6x Assembler PC v7.4.2 Thu Mar 19 12:41:33 2015

Tools Copyright (c) 1996-2012 Texas Instruments Incorporated
package/lib/Regression/regress_d_c/./../packages/ti/vlib/src/VLIB_harrisScore_7x7/VLIB_harrisScore_7x7_d.se66 PAGE   24

    1266 000001ec           $C$DW$L$VLIB_harrisScore_7x7_d$13$B:
    1267                    ;          EXCLUSIVE CPU CYCLES: 7
    1268                    ;**     -----------------------    v$1 = prm;
    1269                    
    1270 000001ec 0023e059             SUB     .L1     A8,1,A0           ; |46| 
    1271 000001f0 029206e1  ||         OR      .S1     A16,A4,A5         ; |50| 
    1272 000001f4 021208b0  ||         OR      .D1     A16,A4,A4         ; |50| 
    1273                    
    1274 000001f8 cffffd93     [ A0]   B       .S2     $C$L2             ; |46| 
    1275 00000208     fec2  ||         SHRU    .S1     A5,31,A5          ; |50| 
    1276 00000204 0423e059  ||         SUB     .L1     A8,1,A8           ; |46| 
    1277 00000200 04a42941  ||         ADD     .D1     1,A9,A9           ; |46| 
    1278                    
    1279 0000020a     a240             ADD     .L1     A5,A4,A4          ; |50| 
    1280 0000020c     2622             SHR     .S1     A4,1,A4           ; |50| 
    1281 0000020e     e250             ADD     .L1     A7,A4,A5          ; |50| 
    1282 00000210 028c3634             STB     .D1T1   A5,*A3++          ; |50| 
    1283 00000214 d23ce2e6     [!A0]   LDW     .D2T2   *+SP(28),B4
    1284                            .dwpsn  file "./../packages/ti/vlib/src/VLIB_harrisScore_7x7/VLIB_harrisScore_7x7_d.c",line 46
    1285                               ; BRANCHCC OCCURS {$C$L2}         ; |46| 
    1286 00000218           $C$DW$L$VLIB_harrisScore_7x7_d$13$E:
    1287                    ;** --------------------------------------------------------------------------*
    1288 00000218           $C$L3:    
    1289                            .dwpsn  file "./../packages/ti/vlib/src/VLIB_harrisScore_7x7/VLIB_harrisScore_7x7_d.c",line 10
    1290 00000218           $C$DW$L$VLIB_harrisScore_7x7_d$14$B:
    1291                    ;          EXCLUSIVE CPU CYCLES: 19
    1292                    ;**     -----------------------g9:
    1293                    ;** 110 -----------------------    C$16 = U$11+v$1;
    1294                    ;** 110 -----------------------    C$15 = (*C$16).width;
    1295                    ;** 110 -----------------------    C$14 = C$15*2;
    1296                    ;** 110 -----------------------    VLIB_xyGradients_cn(input, C$14+gradX+2, C$14+gradY+2, (unsigned sh
    1297                    ;** 137 -----------------------    act_kernel = 0;  // [14]
    1298                    ;** 140 -----------------------    VLIB_cache_inval();  // [14]
    1299                    ;** 143 -----------------------    initStack(getSP());  // [14]
    1300                    ;** 146 -----------------------    beg_count = _itoll(TSCH, TSCL);  // [14]
    1301                    ;** 117 -----------------------    VLIB_harrisScore_7x7(gradX, gradY, (*U$12).width, (*U$12).height, (
    1302                    ;** 153 -----------------------    v$2 = _itoll(TSCH, TSCL);  // [15]
    1303                    ;** 153 -----------------------    end_count = v$2;  // [15]
    1304                    ;** 156 -----------------------    C$13 = act_kernel;  // [15]
    1305                    ;** 156 -----------------------    *((C$13<<3)+K$113) = *((C$13<<3)+K$113)+(v$2-(beg_count+overhead));
    1306                    ;** 159 -----------------------    setStackDepth();  // [15]
    1307                    ;** 137 -----------------------    act_kernel = 1;  // [14]
    1308                    ;** 140 -----------------------    VLIB_cache_inval();  // [14]
    1309                    ;** 143 -----------------------    initStack(getSP());  // [14]
    1310                    ;** 146 -----------------------    beg_count = _itoll(TSCH, TSCL);  // [14]
    1311                    ;** 123 -----------------------    VLIB_harrisScore_7x7_cn(gradX, gradY, (*U$12).width, (*U$12).height
    1312                    ;** 153 -----------------------    v$2 = _itoll(TSCH, TSCL);  // [15]
    1313                    ;** 153 -----------------------    end_count = v$2;  // [15]
    1314                    ;** 156 -----------------------    C$12 = act_kernel;  // [15]
    1315                    ;** 156 -----------------------    *((C$12<<3)+K$113) = *((C$12<<3)+K$113)+(v$2-(beg_count+overhead));
    1316                    ;** 159 -----------------------    setStackDepth();  // [15]
    1317 00000218     ed3d             LDW     .D2T1   *+SP(44),A3
    1318 0000021a     cd4d             LDW     .D2T1   *+SP(40),A4
    1319 00000220 00002000             NOP             2
    1320                            .dwpsn  file "./../packages/ti/vlib/src/VLIB_harrisScore_7x7/VLIB_harrisScore_7x7_d.c",line 11
TMS320C6x Assembler PC v7.4.2 Thu Mar 19 12:41:33 2015

Tools Copyright (c) 1996-2012 Texas Instruments Incorporated
package/lib/Regression/regress_d_c/./../packages/ti/vlib/src/VLIB_harrisScore_7x7/VLIB_harrisScore_7x7_d.se66 PAGE   25

    1321 00000224 02b0807a             ADD     .L2     B4,B12,B5         ; |110| 
    1322 00000228 021462e6             LDW     .D2T2   *+B5(12),B4       ; |110| 
    1323 0000022c 04150284             LDHU    .D2T1   *+B5(16),A8       ; |110| 
    1324 00000230     4c6e             NOP             3
    1325 00000232     8251             ADD     .L2     B4,B4,B5          ; |110| 
    1326 00000234     d263             EXTU    .S2     B4,16,16,B6       ; |110| 
    1327                    
    1328 00000236     b241             ADD     .L2X    A4,B5,B4          ; |110| 
    1329 00000238     72b0  ||         ADD     .L1X    A3,B5,A3          ; |110| 
    1330                    
    1331                    $C$DW$170       .dwtag  DW_TAG_TI_branch
    1332                            .dwattr $C$DW$170, DW_AT_low_pc(0x00)
    1333                            .dwattr $C$DW$170, DW_AT_name("VLIB_xyGradients_cn")
    1334                            .dwattr $C$DW$170, DW_AT_TI_call
    1335                    
    1336 00000240 10000013!            CALLP   .S2     VLIB_xyGradients_cn,B3
    1337 0000023a     ad4d  ||         LDW     .D2T1   *+SP(36),A4       ; |110| 
    1338 00000244     45e0  ||         ADD     .L1     2,A3,A6           ; |110| 
    1339 00000246     4641  ||         ADD     .L2     2,B4,B4           ; |110| 
    1340                    
    1341 00000248           $C$RL11:   ; CALL OCCURS {VLIB_xyGradients_cn} {0}  ; |110| 
    1342 00000248           $C$DW$L$VLIB_harrisScore_7x7_d$14$E:
    1343                    ;** --------------------------------------------------------------------------*
    1344 00000248           $C$DW$L$VLIB_harrisScore_7x7_d$15$B:
    1345                    ;          EXCLUSIVE CPU CYCLES: 110
    1346 00000248 01800028!            MVKL    .S1     act_kernel,A3
    1347                    
    1348 0000024c 01800069!            MVKH    .S1     act_kernel,A3
    1349 00000250 0200a358  ||         ZERO    .L1     A4                ; |137| 
    1350                    
    1351                    $C$DW$171       .dwtag  DW_TAG_TI_branch
    1352                            .dwattr $C$DW$171, DW_AT_low_pc(0x00)
    1353                            .dwattr $C$DW$171, DW_AT_name("VLIB_cache_inval")
    1354                            .dwattr $C$DW$171, DW_AT_TI_call
    1355                    
    1356 00000254 10000013!            CALLP   .S2     VLIB_cache_inval,B3
    1357 00000258 020c0274  ||         STW     .D1T1   A4,*A3            ; |137| 
    1358                    
    1359                            .dwpsn  file ".\..\packages\ti\vlib\src\VLIB_harrisScore_7x7\..\common\VLIB_profile.h",line 14
    1360                    $C$RL12:   ; CALL OCCURS {VLIB_cache_inval} {0}  ; |140| 
    1361                    $C$DW$172       .dwtag  DW_TAG_TI_branch
    1362                            .dwattr $C$DW$172, DW_AT_low_pc(0x00)
    1363                            .dwattr $C$DW$172, DW_AT_name("getSP")
    1364                            .dwattr $C$DW$172, DW_AT_TI_call
    1365 00000260 10000012!            CALLP   .S2     getSP,B3
    1366                            .dwpsn  file ".\..\packages\ti\vlib\src\VLIB_harrisScore_7x7\..\common\VLIB_profile.h",line 14
    1367                    $C$RL13:   ; CALL OCCURS {getSP} {0}         ; |143| 
    1368                    $C$DW$173       .dwtag  DW_TAG_TI_branch
    1369                            .dwattr $C$DW$173, DW_AT_low_pc(0x00)
    1370                            .dwattr $C$DW$173, DW_AT_name("initStack")
    1371                            .dwattr $C$DW$173, DW_AT_TI_call
    1372 00000264 10000012!            CALLP   .S2     initStack,B3
    1373 00000268           $C$RL14:   ; CALL OCCURS {initStack} {0}     ; |143| 
    1374                            .dwpsn  file ".\..\packages\ti\vlib\src\VLIB_harrisScore_7x7\..\common\VLIB_profile.h",line 14
    1375 00000268 082803e2             MVC     .S2     TSCL,B16          ; |146| 
TMS320C6x Assembler PC v7.4.2 Thu Mar 19 12:41:33 2015

Tools Copyright (c) 1996-2012 Texas Instruments Incorporated
package/lib/Regression/regress_d_c/./../packages/ti/vlib/src/VLIB_harrisScore_7x7/VLIB_harrisScore_7x7_d.se66 PAGE   26

    1376 0000026c 022c03e2             MVC     .S2     TSCH,B4           ; |146| 
    1377                    
    1378 00000270 032c8267             LDW     .D1T2   *+A11(16),B6      ; |117| 
    1379 00000274 023d42e4  ||         LDW     .D2T1   *+SP(40),A4       ; |117| 
    1380                    
    1381 00000278 042d4207             LDHU    .D1T2   *+A11(20),B8      ; |117| 
    1382 0000027c 043d82e5  ||         LDW     .D2T1   *+SP(48),A8       ; |117| 
    1383 00000280 01800028! ||         MVKL    .S1     beg_count,A3
    1384                    
    1385 00000284     2a47             MV      .L2     B4,B17            ; |146| 
    1386 00000288 032c6265  ||         LDW     .D1T1   *+A11(12),A6      ; |117| 
    1387 00000286     fd4d  ||         LDW     .D2T2   *+SP(44),B4       ; |117| 
    1388 0000028c 01800068! ||         MVKH    .S1     beg_count,A3
    1389                    
    1390                    $C$DW$174       .dwtag  DW_TAG_TI_branch
    1391                            .dwattr $C$DW$174, DW_AT_low_pc(0x00)
    1392                            .dwattr $C$DW$174, DW_AT_name("VLIB_harrisScore_7x7")
    1393                            .dwattr $C$DW$174, DW_AT_TI_call
    1394                    
    1395 00000290 10000013!            CALLP   .S2     VLIB_harrisScore_7x7,B3
    1396 00000294 053dc2e5  ||         LDW     .D2T1   *+SP(56),A10      ; |117| 
    1397 00000298 080c0346  ||         STDW    .D1T2   B17:B16,*A3       ; |146| 
    1398                    
    1399                            .dwpsn  file "./../packages/ti/vlib/src/VLIB_harrisScore_7x7/VLIB_harrisScore_7x7_d.c",line 11
    1400 000002a0           $C$RL15:   ; CALL OCCURS {VLIB_harrisScore_7x7} {0}  ; |117| 
    1401                            .dwpsn  file ".\..\packages\ti\vlib\src\VLIB_harrisScore_7x7\..\common\VLIB_profile.h",line 15
    1402 000002a0 022803e2             MVC     .S2     TSCL,B4           ; |153| 
    1403 000002a4 02ac03e2             MVC     .S2     TSCH,B5           ; |153| 
    1404 000002a8 01800028!            MVKL    .S1     act_kernel,A3
    1405 000002ac 01800068!            MVKH    .S1     act_kernel,A3
    1406                    
    1407 000002b0 0500002b!            MVKL    .S2     overhead,B10
    1408 000002b4 05000028! ||         MVKL    .S1     beg_count,A10
    1409                    
    1410 000002b8 05000069!            MVKH    .S1     beg_count,A10
    1411 000002bc 0500006b! ||         MVKH    .S2     overhead,B10
    1412 000002c0 080c0264  ||         LDW     .D1T1   *A3,A16           ; |156| 
    1413                    
    1414 000002c4 032803e7             LDDW    .D2T2   *B10,B7:B6        ; |156| 
    1415 000002c8 04280364  ||         LDDW    .D1T1   *A10,A9:A8        ; |156| 
    1416                    
    1417 000002cc 0580002a!            MVKL    .S2     end_count,B11
    1418 000002d0 0580006a!            MVKH    .S2     end_count,B11
    1419 000002d4 022c03c6             STDW    .D2T2   B5:B4,*B11        ; |153| 
    1420                            .dwpsn  file ".\..\packages\ti\vlib\src\VLIB_harrisScore_7x7\..\common\VLIB_profile.h",line 15
    1421 000002d8 033e0b64             LDDW    .D1T1   *+A15[A16],A7:A6  ; |156| 
    1422 000002dc 02191578             ADDU    .L1X    B6,A8,A5:A4       ; |156| 
    1423 000002e0 019cb078             ADD     .L1X    A5,B7,A3          ; |156| 
    1424 000002e4 01a46078             ADD     .L1     A3,A9,A3          ; |156| 
    1425 000002e8 021097f8             SUBU    .L1X    B4,A4,A5:A4       ; |156| 
    1426 000002ec 030cb0fa             SUB     .L2X    B5,A3,B6          ; |156| 
    1427                    
    1428 000002f0 0f971849             EXT     .S1     A5,24,24,A31      ; |156| 
    1429 000002f4 0210c578  ||         ADDU    .L1     A6,A4,A5:A4       ; |156| 
    1430                    
TMS320C6x Assembler PC v7.4.2 Thu Mar 19 12:41:33 2015

Tools Copyright (c) 1996-2012 Texas Instruments Incorporated
package/lib/Regression/regress_d_c/./../packages/ti/vlib/src/VLIB_harrisScore_7x7/VLIB_harrisScore_7x7_d.se66 PAGE   27

    1431 000002f8 019ca079             ADD     .L1     A5,A7,A3          ; |156| 
    1432 000002fc 029bf1e0  ||         ADD     .S1X    B6,A31,A5         ; |156| 
    1433                    
    1434 00000300 02946078             ADD     .L1     A3,A5,A5          ; |156| 
    1435                    $C$DW$175       .dwtag  DW_TAG_TI_branch
    1436                            .dwattr $C$DW$175, DW_AT_low_pc(0x00)
    1437                            .dwattr $C$DW$175, DW_AT_name("setStackDepth")
    1438                            .dwattr $C$DW$175, DW_AT_TI_call
    1439                    
    1440 00000304 10000013!            CALLP   .S2     setStackDepth,B3
    1441 00000308 023e0b44  ||         STDW    .D1T1   A5:A4,*+A15[A16]  ; |156| 
    1442                    
    1443                            .dwpsn  file ".\..\packages\ti\vlib\src\VLIB_harrisScore_7x7\..\common\VLIB_profile.h",line 15
    1444 0000030c           $C$RL16:   ; CALL OCCURS {setStackDepth} {0}  ; |159| 
    1445 0000030c 01800028!            MVKL    .S1     act_kernel,A3
    1446                    
    1447 00000310 01800069!            MVKH    .S1     act_kernel,A3
    1448 00000314 0204a35a  ||         MVK     .L2     1,B4              ; |137| 
    1449                    
    1450                    $C$DW$176       .dwtag  DW_TAG_TI_branch
    1451                            .dwattr $C$DW$176, DW_AT_low_pc(0x00)
    1452                            .dwattr $C$DW$176, DW_AT_name("VLIB_cache_inval")
    1453                            .dwattr $C$DW$176, DW_AT_TI_call
    1454                    
    1455 00000318 10000013!            CALLP   .S2     VLIB_cache_inval,B3
    1456 0000031c 020c0276  ||         STW     .D1T2   B4,*A3            ; |137| 
    1457                    
    1458                            .dwpsn  file ".\..\packages\ti\vlib\src\VLIB_harrisScore_7x7\..\common\VLIB_profile.h",line 14
    1459                    $C$RL17:   ; CALL OCCURS {VLIB_cache_inval} {0}  ; |140| 
    1460                    $C$DW$177       .dwtag  DW_TAG_TI_branch
    1461                            .dwattr $C$DW$177, DW_AT_low_pc(0x00)
    1462                            .dwattr $C$DW$177, DW_AT_name("getSP")
    1463                            .dwattr $C$DW$177, DW_AT_TI_call
    1464 00000320 10000012!            CALLP   .S2     getSP,B3
    1465                            .dwpsn  file ".\..\packages\ti\vlib\src\VLIB_harrisScore_7x7\..\common\VLIB_profile.h",line 14
    1466                    $C$RL18:   ; CALL OCCURS {getSP} {0}         ; |143| 
    1467                    $C$DW$178       .dwtag  DW_TAG_TI_branch
    1468                            .dwattr $C$DW$178, DW_AT_low_pc(0x00)
    1469                            .dwattr $C$DW$178, DW_AT_name("initStack")
    1470                            .dwattr $C$DW$178, DW_AT_TI_call
    1471 00000324 10000012!            CALLP   .S2     initStack,B3
    1472 00000328           $C$RL19:   ; CALL OCCURS {initStack} {0}     ; |143| 
    1473                            .dwpsn  file ".\..\packages\ti\vlib\src\VLIB_harrisScore_7x7\..\common\VLIB_profile.h",line 14
    1474 00000328 042803e2             MVC     .S2     TSCL,B8           ; |146| 
    1475 0000032c 022c03e2             MVC     .S2     TSCH,B4           ; |146| 
    1476                    
    1477 00000330     2647             MV      .L2     B4,B9             ; |146| 
    1478 00000332     6506  ||         MV      .L1     A10,A3            ; |123| 
    1479 00000334 032c8267  ||         LDW     .D1T2   *+A11(16),B6      ; |123| 
    1480 00000338 023d42e4  ||         LDW     .D2T1   *+SP(40),A4       ; |123| 
    1481                    
    1482 00000340 040c0347             STDW    .D1T2   B9:B8,*A3         ; |146| 
    1483 00000344 043da2e4  ||         LDW     .D2T1   *+SP(52),A8       ; |123| 
    1484                    
    1485 00000348 032c6265             LDW     .D1T1   *+A11(12),A6      ; |123| 
TMS320C6x Assembler PC v7.4.2 Thu Mar 19 12:41:33 2015

Tools Copyright (c) 1996-2012 Texas Instruments Incorporated
package/lib/Regression/regress_d_c/./../packages/ti/vlib/src/VLIB_harrisScore_7x7/VLIB_harrisScore_7x7_d.se66 PAGE   28

    1486 0000034c 023d62e6  ||         LDW     .D2T2   *+SP(44),B4       ; |123| 
    1487                    
    1488                    $C$DW$179       .dwtag  DW_TAG_TI_branch
    1489                            .dwattr $C$DW$179, DW_AT_low_pc(0x00)
    1490                            .dwattr $C$DW$179, DW_AT_name("VLIB_harrisScore_7x7_cn")
    1491                            .dwattr $C$DW$179, DW_AT_TI_call
    1492                    
    1493 00000350 10000013!            CALLP   .S2     VLIB_harrisScore_7x7_cn,B3
    1494 00000354 042d4247  ||         LDH     .D1T2   *+A11(20),B8      ; |123| 
    1495 00000358 053dc2e4  ||         LDW     .D2T1   *+SP(56),A10      ; |123| 
    1496                    
    1497                            .dwpsn  file "./../packages/ti/vlib/src/VLIB_harrisScore_7x7/VLIB_harrisScore_7x7_d.c",line 12
    1498 0000035c           $C$RL20:   ; CALL OCCURS {VLIB_harrisScore_7x7_cn} {0}  ; |123| 
    1499                            .dwpsn  file ".\..\packages\ti\vlib\src\VLIB_harrisScore_7x7\..\common\VLIB_profile.h",line 15
    1500 0000035c 042803e2             MVC     .S2     TSCL,B8           ; |153| 
    1501 00000360 022c03e2             MVC     .S2     TSCH,B4           ; |153| 
    1502 00000364 01800028!            MVKL    .S1     act_kernel,A3
    1503 00000368 01800068!            MVKH    .S1     act_kernel,A3
    1504                    
    1505 0000036c 018c0265             LDW     .D1T1   *A3,A3            ; |156| 
    1506 00000370 02000028! ||         MVKL    .S1     beg_count,A4
    1507                    
    1508 00000374 02000068!            MVKH    .S1     beg_count,A4
    1509                    
    1510 00000378 03100365             LDDW    .D1T1   *A4,A7:A6         ; |156| 
    1511 0000037c 032803e6  ||         LDDW    .D2T2   *B10,B7:B6        ; |156| 
    1512                    
    1513 00000380 04900fda             MV      .L2     B4,B9             ; |153| 
    1514 00000384 042c03c6             STDW    .D2T2   B9:B8,*B11        ; |153| 
    1515                            .dwpsn  file ".\..\packages\ti\vlib\src\VLIB_harrisScore_7x7\..\common\VLIB_profile.h",line 15
    1516 00000388 023c6b64             LDDW    .D1T1   *+A15[A3],A5:A4   ; |156| 
    1517 0000038c 00000000             NOP             1
    1518 00000390 0218d57a             ADDU    .L2X    B6,A6,B5:B4       ; |156| 
    1519 00000394     a3e1             ADD     .L2     B5,B7,B6          ; |156| 
    1520                    
    1521 00000396     d3eb             ADD     .S2X    B6,A7,B6          ; |156| 
    1522 00000398 021105fa  ||         SUBU    .L2     B8,B4,B5:B4       ; |156| 
    1523                    
    1524 000003a8     eae3             EXT     .S2     B5,24,24,B7       ; |156| 
    1525 000003a4 0210957b  ||         ADDU    .L2X    A4,B4,B5:B4       ; |156| 
    1526 000003a0 0324c8c3  ||         SUB     .D2     B9,B6,B6          ; |156| 
    1527                    
    1528 000003aa     b2d1             ADD     .L2X    B5,A5,B5          ; |156| 
    1529 000003ac     c3eb  ||         ADD     .S2     B6,B7,B6          ; |156| 
    1530                    
    1531 000003ae     a351             ADD     .L2     B5,B6,B5          ; |156| 
    1532                    $C$DW$180       .dwtag  DW_TAG_TI_branch
    1533                            .dwattr $C$DW$180, DW_AT_low_pc(0x00)
    1534                            .dwattr $C$DW$180, DW_AT_name("setStackDepth")
    1535                            .dwattr $C$DW$180, DW_AT_TI_call
    1536                    
    1537 000003b0 10000013!            CALLP   .S2     setStackDepth,B3
    1538 000003b4 023c6b46  ||         STDW    .D1T2   B5:B4,*+A15[A3]   ; |156| 
    1539                    
    1540                            .dwpsn  file ".\..\packages\ti\vlib\src\VLIB_harrisScore_7x7\..\common\VLIB_profile.h",line 15
TMS320C6x Assembler PC v7.4.2 Thu Mar 19 12:41:33 2015

Tools Copyright (c) 1996-2012 Texas Instruments Incorporated
package/lib/Regression/regress_d_c/./../packages/ti/vlib/src/VLIB_harrisScore_7x7/VLIB_harrisScore_7x7_d.se66 PAGE   29

    1541 000003b8           $C$RL21:   ; CALL OCCURS {setStackDepth} {0}  ; |159| 
    1542 000003b8           $C$DW$L$VLIB_harrisScore_7x7_d$15$E:
    1543                    ;** --------------------------------------------------------------------------*
    1544 000003b8           $C$DW$L$VLIB_harrisScore_7x7_d$16$B:
    1545                    ;          EXCLUSIVE CPU CYCLES: 12
    1546                    ;** 131 -----------------------    v$1 = prm;
    1547                    ;** 131 -----------------------    if ( (*U$12).height < 9 ) goto g17;
    1548                            .dwpsn  file "./../packages/ti/vlib/src/VLIB_harrisScore_7x7/VLIB_harrisScore_7x7_d.c",line 13
    1549 000003b8 01ac8264             LDW     .D1T1   *+A11(16),A3      ; |131| 
    1550 000003c0 07bce2e4             LDW     .D2T1   *+SP(28),A15      ; |131| 
    1551 000003c4 00004000             NOP             3
    1552                    
    1553 000003c8 000d28d9             CMPLT   .L1     A3,9,A0           ; |131| 
    1554 000003cc 01b4aca0  ||         SHL     .S1     A13,5,A3
    1555                    
    1556 000003d0 c0002511     [ A0]   B       .S1     $C$L10            ; |131| 
    1557 000003d4 018dbcc0  ||         SUBAW   .D1     A3,A13,A3
    1558                    
    1559 000003d8 018de078             ADD     .L1     A15,A3,A3
    1560 000003dc d58c6266     [!A0]   LDW     .D1T2   *+A3(12),B11
    1561                            .dwpsn  file "./../packages/ti/vlib/src/VLIB_harrisScore_7x7/VLIB_harrisScore_7x7_d.c",line 13
    1562 000003e0 d20c8264     [!A0]   LDW     .D1T1   *+A3(16),A4       ; |132| 
    1563 000003e4 00002000             NOP             2
    1564                            .dwpsn  file "./../packages/ti/vlib/src/VLIB_harrisScore_7x7/VLIB_harrisScore_7x7_d.c",line 13
    1565                               ; BRANCHCC OCCURS {$C$L10}        ; |131| 
    1566 000003e8           $C$DW$L$VLIB_harrisScore_7x7_d$16$E:
    1567                    ;** --------------------------------------------------------------------------*
    1568 000003e8           $C$DW$L$VLIB_harrisScore_7x7_d$17$B:
    1569                    ;          EXCLUSIVE CPU CYCLES: 4
    1570                    ;**     -----------------------    C$11 = &v$1[tpi];
    1571                    ;**     -----------------------    U$97 = (*C$11).width;
    1572                    ;** 132 -----------------------    L$2 = (*C$11).height-8;
    1573                    ;** 131 -----------------------    y = 4;
    1574                    ;**     -----------------------    #pragma MUST_ITERATE(1, 2147483639, 1)
    1575                    ;**     -----------------------    #pragma LOOP_FLAGS(5120u)
    1576                            .dwpsn  file "./../packages/ti/vlib/src/VLIB_harrisScore_7x7/VLIB_harrisScore_7x7_d.c",line 13
    1577 000003e8 0510a358             MVK     .L1     0x4,A10           ; |131| 
    1578                            .dwpsn  file "./../packages/ti/vlib/src/VLIB_harrisScore_7x7/VLIB_harrisScore_7x7_d.c",line 13
    1579 000003ec 002d28da             CMPLT   .L2     B11,9,B0          ; |132| 
    1580                    
    1581 000003f0 31ad5801     [!B0]   MPY32   .M1X    A10,B11,A3
    1582 000003f4 3fbd82e5  || [!B0]   LDW     .D2T1   *+SP(48),A31
    1583 000003f8 3004a359  || [!B0]   MVK     .L1     0x1,A0
    1584 000003fc 0513105a  ||         SUB     .L2X    A4,8,B10          ; |132| 
    1585                    
    1586 00000400 3f3da2e4     [!B0]   LDW     .D2T1   *+SP(52),A30
    1587 00000404           $C$DW$L$VLIB_harrisScore_7x7_d$17$E:
    1588                    ;** --------------------------------------------------------------------------*
    1589                    ;**   BEGIN LOOP $C$L4
    1590                    ;** --------------------------------------------------------------------------*
    1591 00000404           $C$L4:    
    1592                            .dwpsn  file "./../packages/ti/vlib/src/VLIB_harrisScore_7x7/VLIB_harrisScore_7x7_d.c",line 13
    1593 00000404           $C$DW$L$VLIB_harrisScore_7x7_d$18$B:
    1594                    ;          EXCLUSIVE CPU CYCLES: 6
    1595                    ;**     -----------------------g11:
TMS320C6x Assembler PC v7.4.2 Thu Mar 19 12:41:33 2015

Tools Copyright (c) 1996-2012 Texas Instruments Incorporated
package/lib/Regression/regress_d_c/./../packages/ti/vlib/src/VLIB_harrisScore_7x7/VLIB_harrisScore_7x7_d.se66 PAGE   30

    1596                    ;** 132 -----------------------    if ( U$97 < 9 ) goto g16;
    1597                            .dwpsn  file "./../packages/ti/vlib/src/VLIB_harrisScore_7x7/VLIB_harrisScore_7x7_d.c",line 13
    1598 00000404 2062a120     [ B0]   BNOP    .S1     $C$L8,5           ; |132| 
    1599                               ; BRANCHCC OCCURS {$C$L8}         ; |132| 
    1600 00000408           $C$DW$L$VLIB_harrisScore_7x7_d$18$E:
    1601                    ;** --------------------------------------------------------------------------*
    1602                            .dwpsn  file "./../packages/ti/vlib/src/VLIB_harrisScore_7x7/VLIB_harrisScore_7x7_d.c",line 13
    1603 00000408           $C$DW$L$VLIB_harrisScore_7x7_d$19$B:
    1604                    ;**     -----------------------    C$10 = U$97*y*2;
    1605                    ;**     -----------------------    U$135 = outm+C$10+8;
    1606                    ;**     -----------------------    U$137 = outm_cn+C$10+8;
    1607                    ;** 133 -----------------------    L$3 = U$97-8;
    1608                    ;** 132 -----------------------    --U$137;
    1609                    ;** 132 -----------------------    --U$135;
    1610                    ;** 132 -----------------------    U$133 = 6;
    1611                    ;** 132 -----------------------    x = 3;
    1612                    ;**     -----------------------    #pragma MUST_ITERATE(1, 2147483639, 1)
    1613                    ;**     -----------------------    #pragma LOOP_FLAGS(4352u)
    1614                    ;**     -----------------------g13:
    1615                    ;** 133 -----------------------    f$4 = (*(++U$135) != *(++U$137))-1;
    1616                    ;** 132 -----------------------    U$133 += 2;
    1617                    ;** 132 -----------------------    ++x;
    1618                    ;** 132 -----------------------    L$3 = L$3-1;
    1619                    ;** 132 -----------------------    if ( L$3&f$4 ) goto g13;
    1620                    ;**     -----------------------    if ( f$4 ) goto g16;
    1621 00000408           $C$DW$L$VLIB_harrisScore_7x7_d$19$E:
    1622                    ;*----------------------------------------------------------------------------*
    1623                    ;*   SOFTWARE PIPELINE INFORMATION
    1624                    ;*
    1625                    ;*      Loop found in file               : ./../packages/ti/vlib/src/VLIB_harrisScore_7x7/VLIB_harrisS
    1626                    ;*      Loop source line                 : 132
    1627                    ;*      Loop opening brace source line   : 132
    1628                    ;*      Loop closing brace source line   : 138
    1629                    ;*      Known Minimum Trip Count         : 1                    
    1630                    ;*      Known Max Trip Count Factor      : 1
    1631                    ;*      Loop Carried Dependency Bound(^) : 1
    1632                    ;*      Unpartitioned Resource Bound     : 2
    1633                    ;*      Partitioned Resource Bound(*)    : 2
    1634                    ;*      Resource Partition:
    1635                    ;*                                A-side   B-side
    1636                    ;*      .L units                     1        0     
    1637                    ;*      .S units                     1        0     
    1638                    ;*      .D units                     1        1     
    1639                    ;*      .M units                     0        0     
    1640                    ;*      .X cross paths               1        0     
    1641                    ;*      .T address paths             1        1     
    1642                    ;*      Long read paths              0        0     
    1643                    ;*      Long write paths             0        0     
    1644                    ;*      Logical  ops (.LS)           0        0     (.L or .S unit)
    1645                    ;*      Addition ops (.LSD)          3        2     (.L or .S or .D unit)
    1646                    ;*      Bound(.L .S .LS)             1        0     
    1647                    ;*      Bound(.L .S .D .LS .LSD)     2*       1     
    1648                    ;*
    1649                    ;*      Searching for software pipeline schedule at ...
    1650                    ;*         ii = 4  Unsafe schedule for irregular loop
TMS320C6x Assembler PC v7.4.2 Thu Mar 19 12:41:33 2015

Tools Copyright (c) 1996-2012 Texas Instruments Incorporated
package/lib/Regression/regress_d_c/./../packages/ti/vlib/src/VLIB_harrisScore_7x7/VLIB_harrisScore_7x7_d.se66 PAGE   31

    1651                    ;*         ii = 4  Unsafe schedule for irregular loop
    1652                    ;*         ii = 4  Unsafe schedule for irregular loop
    1653                    ;*         ii = 4  Unsafe schedule for irregular loop
    1654                    ;*         ii = 4  Unsafe schedule for irregular loop
    1655                    ;*         ii = 4  Did not find schedule
    1656                    ;*         ii = 5  Unsafe schedule for irregular loop
    1657                    ;*         ii = 5  Unsafe schedule for irregular loop
    1658                    ;*         ii = 5  Unsafe schedule for irregular loop
    1659                    ;*         ii = 5  Unsafe schedule for irregular loop
    1660                    ;*         ii = 5  Unsafe schedule for irregular loop
    1661                    ;*         ii = 5  Did not find schedule
    1662                    ;*         ii = 6  Unsafe schedule for irregular loop
    1663                    ;*         ii = 6  Unsafe schedule for irregular loop
    1664                    ;*         ii = 6  Unsafe schedule for irregular loop
    1665                    ;*         ii = 6  Unsafe schedule for irregular loop
    1666                    ;*         ii = 6  Unsafe schedule for irregular loop
    1667                    ;*         ii = 6  Did not find schedule
    1668                    ;*         ii = 7  Unsafe schedule for irregular loop
    1669                    ;*         ii = 7  Unsafe schedule for irregular loop
    1670                    ;*         ii = 7  Unsafe schedule for irregular loop
    1671                    ;*         ii = 7  Unsafe schedule for irregular loop
    1672                    ;*         ii = 7  Unsafe schedule for irregular loop
    1673                    ;*         ii = 7  Did not find schedule
    1674                    ;*         ii = 8  Unsafe schedule for irregular loop
    1675                    ;*         ii = 8  Unsafe schedule for irregular loop
    1676                    ;*         ii = 8  Unsafe schedule for irregular loop
    1677                    ;*         ii = 8  Unsafe schedule for irregular loop
    1678                    ;*         ii = 8  Unsafe schedule for irregular loop
    1679                    ;*         ii = 8  Did not find schedule
    1680                    ;*         ii = 9  Schedule found with 2 iterations in parallel
    1681                    ;*
    1682                    ;*      Register Usage Table:
    1683                    ;*          +-----------------------------------------------------------------+
    1684                    ;*          |AAAAAAAAAAAAAAAAAAAAAAAAAAAAAAAA|BBBBBBBBBBBBBBBBBBBBBBBBBBBBBBBB|
    1685                    ;*          |00000000001111111111222222222233|00000000001111111111222222222233|
    1686                    ;*          |01234567890123456789012345678901|01234567890123456789012345678901|
    1687                    ;*          |--------------------------------+--------------------------------|
    1688                    ;*       0: |    ***                         |    ****                        |
    1689                    ;*       1: |    ***                         |    ****                        |
    1690                    ;*       2: |   ****                         |    ****                        |
    1691                    ;*       3: |    ****                        |    ****                        |
    1692                    ;*       4: |   ****                         |    ****                        |
    1693                    ;*       5: |*   ***                         |    ****                        |
    1694                    ;*       6: |    ***                         |    ****                        |
    1695                    ;*       7: |    ***                         |    ****                        |
    1696                    ;*       8: |    ***                         |    ****                        |
    1697                    ;*          +-----------------------------------------------------------------+
    1698                    ;*
    1699                    ;*      Done
    1700                    ;*
    1701                    ;*      Loop will be splooped
    1702                    ;*      Collapsed epilog stages       : 1
    1703                    ;*      Collapsed prolog stages       : 0
    1704                    ;*      Minimum required memory pad   : 0 bytes
    1705                    ;*
TMS320C6x Assembler PC v7.4.2 Thu Mar 19 12:41:33 2015

Tools Copyright (c) 1996-2012 Texas Instruments Incorporated
package/lib/Regression/regress_d_c/./../packages/ti/vlib/src/VLIB_harrisScore_7x7/VLIB_harrisScore_7x7_d.se66 PAGE   32

    1706                    ;*      For further improvement on this loop, try option -mh28
    1707                    ;*
    1708                    ;*      Minimum safe trip count       : 1
    1709                    ;*      Min. prof. trip count  (est.) : 3
    1710                    ;*
    1711                    ;*      Mem bank conflicts/iter(est.) : { min 0.000, est 0.125, max 1.000 }
    1712                    ;*      Mem bank perf. penalty (est.) : 1.4%
    1713                    ;*
    1714                    ;*      Effective ii                : { min 9.00, est 9.13, max 10.00 }
    1715                    ;*
    1716                    ;*
    1717                    ;*      Total cycles (est.)         : 9 + trip_cnt * 9        
    1718                    ;*----------------------------------------------------------------------------*
    1719                    ;*       SETUP CODE
    1720                    ;*
    1721                    ;*                  MVK             0x1,A0
    1722                    ;*
    1723                    ;*        SINGLE SCHEDULED ITERATION
    1724                    ;*
    1725                    ;*        $C$C132:
    1726                    ;*   5      [ A0]   LDHU    .D1T1   *++A6,A4          ; |133|  ^ 
    1727                    ;*     ||   [ A0]   LDHU    .D2T2   *++B7,B4          ; |133|  ^ 
    1728                    ;*   6              NOP             4
    1729                    ;*  10              CMPEQ   .L1X    B4,A4,A3          ; |133|  ^ 
    1730                    ;*  11              EXT     .S1     A3,31,31,A7       ; |133|  ^ 
    1731                    ;*     ||           SUB     .L1     A5,1,A5           ; |132|  ^ 
    1732                    ;*  12              AND     .L1     A7,A5,A3          ; |132|  ^ 
    1733                    ;*  13              MV      .L1     A3,A0             ; |132|  ^ 
    1734                    ;*  14      [ A0]   SPWBR           $C$C132
    1735                    ;*  15              NOP             2
    1736                    ;*  17              ADD     .L2     2,B6,B6           ; |132| 
    1737                    ;*     ||           ADD     .S2     1,B5,B5           ; |132| 
    1738                    ;*  18              ; BRANCHCC OCCURS {$C$C132}       ; |132| 
    1739                    ;*----------------------------------------------------------------------------*
    1740 00000408           $C$L5:    ; PIPED LOOP PROLOG
    1741                    ;          EXCLUSIVE CPU CYCLES: 10
    1742 00000408 c403e000     [ A0]   SPLOOPW 9       ;18               ; (P) 
    1743                    ;** --------------------------------------------------------------------------*
    1744 0000040c           $C$L6:    ; PIPED LOOP KERNEL
    1745 0000040c           $C$DW$L$VLIB_harrisScore_7x7_d$21$B:
    1746                    ;          EXCLUSIVE CPU CYCLES: 9
    1747 0000040c     0c6e             NOP             1
    1748                    
    1749 0000040e     2c67             SPMASK          L1
    1750 00000410     61c0  ||         ADD     .L1     A3,A3,A4
    1751                    
    1752 00000412     2c67             SPMASK          L1
    1753 00000414 02fc8078  ||         ADD     .L1     A4,A31,A5
    1754                    
    1755 00000418 00070001             SPMASK          L1
    1756 00000420 01f88078  ||         ADD     .L1     A4,A30,A3
    1757                    
    1758 00000424     2ce7             SPMASK          L1,L2
    1759 00000426     c5e0  ||         ADD     .L1     6,A3,A6
    1760 00000428 0394d05a  ||         ADD     .L2X    6,A5,B7
TMS320C6x Assembler PC v7.4.2 Thu Mar 19 12:41:33 2015

Tools Copyright (c) 1996-2012 Texas Instruments Incorporated
package/lib/Regression/regress_d_c/./../packages/ti/vlib/src/VLIB_harrisScore_7x7/VLIB_harrisScore_7x7_d.se66 PAGE   33

    1761                    
    1762 0000042c c2183205     [ A0]   LDHU    .D1T1   *++A6,A4          ; |133| (P) <0,5>  ^ 
    1763 00000430 c21c3286  || [ A0]   LDHU    .D2T2   *++B7,B4          ; |133| (P) <0,5>  ^ 
    1764                    
    1765 00000434     2c6e             NOP             2
    1766                    
    1767 00000436     2ee7             SPMASK          L1,L2,S2
    1768 00000438 02af1059  ||         SUB     .L1X    B11,8,A5          ; |133| 
    1769 00000440     c727  ||         MVK     .L2     0x6,B6            ; |132| 
    1770 00000442     6293  ||         MVK     .S2     0x3,B5            ; |132| 
    1771                    
    1772 00000444 00000000             NOP             1
    1773                            .dwpsn  file "./../packages/ti/vlib/src/VLIB_harrisScore_7x7/VLIB_harrisScore_7x7_d.c",line 13
    1774 00000448 01909a78             CMPEQ   .L1X    B4,A4,A3          ; |133| <0,10>  ^ 
    1775                    
    1776 00000450 0297e058             SUB     .L1     A5,1,A5           ; |132| <0,11>  ^ 
    1777 0000044c 038fff49  ||         EXT     .S1     A3,31,31,A7       ; |133| <0,11>  ^ 
    1778                    
    1779                            .dwpsn  file "./../packages/ti/vlib/src/VLIB_harrisScore_7x7/VLIB_harrisScore_7x7_d.c",line 13
    1780 00000454 0194ef78             AND     .L1     A7,A5,A3          ; |132| <0,12>  ^ 
    1781 00000458     01c6             MV      .L1     A3,A0             ; |132| <0,13>  ^ 
    1782 0000045a     2c6e             NOP             2
    1783 00000460 00000000             NOP             1
    1784                    
    1785 00000464 00034001             SPKERNEL 0,0
    1786 00000468     4761  ||         ADD     .L2     2,B6,B6           ; |132| <0,17> 
    1787 0000046a     26af  ||         ADD     .S2     1,B5,B5           ; |132| <0,17> 
    1788                    
    1789 0000046c           $C$DW$L$VLIB_harrisScore_7x7_d$21$E:
    1790                    ;** --------------------------------------------------------------------------*
    1791 0000046c           $C$L7:    ; PIPED LOOP EPILOG
    1792                    ;** --------------------------------------------------------------------------*
    1793 0000046c           $C$DW$L$VLIB_harrisScore_7x7_d$23$B:
    1794                    ;          EXCLUSIVE CPU CYCLES: 7
    1795 0000046c     03c6             MV      .L1     A7,A0
    1796                    
    1797 0000046e     0daa     [ A0]   B       .S1     $C$L9
    1798 00000470 d2297803  || [!A0]   MPY32   .M2X    A10,B11,B4        ; |134| 
    1799 00000474 dfbda2e4  || [!A0]   LDW     .D2T1   *+SP(52),A31      ; |134| 
    1800                    
    1801                            .dwpsn  file "./../packages/ti/vlib/src/VLIB_harrisScore_7x7/VLIB_harrisScore_7x7_d.c",line 13
    1802 00000478 d1bd82e4     [!A0]   LDW     .D2T1   *+SP(48),A3       ; |134| 
    1803                            .dwpsn  file "./../packages/ti/vlib/src/VLIB_harrisScore_7x7/VLIB_harrisScore_7x7_d.c",line 13
    1804 00000480 c5282058     [ A0]   ADD     .L1     1,A10,A10         ; |131| 
    1805 00000484 00000000             NOP             1
    1806                            .dwpsn  file "./../packages/ti/vlib/src/VLIB_harrisScore_7x7/VLIB_harrisScore_7x7_d.c",line 13
    1807 00000488 d2189a42     [!A0]   ADDAH   .D2     B6,B4,B4          ; |134| 
    1808                            .dwpsn  file "./../packages/ti/vlib/src/VLIB_harrisScore_7x7/VLIB_harrisScore_7x7_d.c",line 13
    1809 0000048c c02bf058     [ A0]   SUB     .L1X    B10,1,A0          ; |131| 
    1810                               ; BRANCHCC OCCURS {$C$L9}  
    1811 00000490           $C$DW$L$VLIB_harrisScore_7x7_d$23$E:
    1812                    ;** --------------------------------------------------------------------------*
    1813 00000490           $C$DW$L$VLIB_harrisScore_7x7_d$24$B:
    1814                    ;          EXCLUSIVE CPU CYCLES: 8
    1815                    ;** 134 -----------------------    C$9 = U$97*y*2+U$133;
TMS320C6x Assembler PC v7.4.2 Thu Mar 19 12:41:33 2015

Tools Copyright (c) 1996-2012 Texas Instruments Incorporated
package/lib/Regression/regress_d_c/./../packages/ti/vlib/src/VLIB_harrisScore_7x7/VLIB_harrisScore_7x7_d.se66 PAGE   34

    1816                    ;** 134 -----------------------    printf((const char *)"(%d, %d) outm = %x\toutm_cn = %x\n", x, y, (i
    1817                    ;** 135 -----------------------    status_nat_vs_int = 0;
    1818                    
    1819 00000490 030c907b             ADD     .L2X    A3,B4,B6          ; |134| 
    1820 00000494 0193f079  ||         ADD     .L1X    A31,B4,A3         ; |134| 
    1821 00000498 0380002a! ||         MVKL    .S2     $C$SL2+0,B7
    1822                    
    1823 0000049c 02180287             LDHU    .D2T2   *B6,B4            ; |134| 
    1824 000004a0 018c0205  ||         LDHU    .D1T1   *A3,A3            ; |134| 
    1825 000004a4 0380006a! ||         MVKH    .S2     $C$SL2+0,B7
    1826                    
    1827                            .dwpsn  file "./../packages/ti/vlib/src/VLIB_harrisScore_7x7/VLIB_harrisScore_7x7_d.c",line 13
    1828                    $C$DW$181       .dwtag  DW_TAG_TI_branch
    1829                            .dwattr $C$DW$181, DW_AT_low_pc(0x00)
    1830                            .dwattr $C$DW$181, DW_AT_name("printf")
    1831                            .dwattr $C$DW$181, DW_AT_TI_call
    1832 000004a8 00000010!            CALL    .S1     printf            ; |134| 
    1833 000004ac     bc75             STW     .D2T2   B7,*+SP(4)        ; |134| 
    1834 000004ae     dc55             STW     .D2T2   B5,*+SP(8)        ; |134| 
    1835 000004b0 053c62f4             STW     .D2T1   A10,*+SP(12)      ; |134| 
    1836 000004b4     9cc5             STW     .D2T2   B4,*+SP(16)       ; |134| 
    1837                    
    1838 000004b6     acb5             STW     .D2T1   A3,*+SP(20)       ; |134| 
    1839 000004b8 01880162  ||         ADDKPC  .S2     $C$RL22,B3,0      ; |134| 
    1840                    
    1841 000004c0           $C$RL22:   ; CALL OCCURS {printf} {0}        ; |134| 
    1842 000004c0           $C$DW$L$VLIB_harrisScore_7x7_d$24$E:
    1843                    ;** --------------------------------------------------------------------------*
    1844 000004c0           $C$DW$L$VLIB_harrisScore_7x7_d$25$B:
    1845                    ;          EXCLUSIVE CPU CYCLES: 1
    1846                            .dwpsn  file "./../packages/ti/vlib/src/VLIB_harrisScore_7x7/VLIB_harrisScore_7x7_d.c",line 13
    1847 000004c0 0700a358             ZERO    .L1     A14               ; |135| 
    1848 000004c4           $C$DW$L$VLIB_harrisScore_7x7_d$25$E:
    1849                    ;** --------------------------------------------------------------------------*
    1850 000004c4           $C$L8:    
    1851 000004c4           $C$DW$L$VLIB_harrisScore_7x7_d$26$B:
    1852                    ;          EXCLUSIVE CPU CYCLES: 1
    1853                    
    1854 000004c4 002bf059             SUB     .L1X    B10,1,A0          ; |131| 
    1855 000004c8 052821a0  ||         ADD     .S1     1,A10,A10         ; |131| 
    1856                    
    1857 000004cc           $C$DW$L$VLIB_harrisScore_7x7_d$26$E:
    1858                    ;** --------------------------------------------------------------------------*
    1859 000004cc           $C$L9:    
    1860                            .dwpsn  file "./../packages/ti/vlib/src/VLIB_harrisScore_7x7/VLIB_harrisScore_7x7_d.c",line 13
    1861 000004cc           $C$DW$L$VLIB_harrisScore_7x7_d$27$B:
    1862                    ;          EXCLUSIVE CPU CYCLES: 6
    1863                    ;**     -----------------------g16:
    1864                    ;** 131 -----------------------    ++y;
    1865                    ;** 131 -----------------------    if ( L$2 = L$2-1 ) goto g11;
    1866                    
    1867 000004cc cfd12121     [ A0]   BNOP    .S1     $C$L4,1           ; |131| 
    1868 000004d0 c02d28db  || [ A0]   CMPLT   .L2     B11,9,B0          ; |132| 
    1869 000004d4 052be1a2  ||         SUB     .S2     B10,1,B10         ; |131| 
    1870                    
TMS320C6x Assembler PC v7.4.2 Thu Mar 19 12:41:33 2015

Tools Copyright (c) 1996-2012 Texas Instruments Incorporated
package/lib/Regression/regress_d_c/./../packages/ti/vlib/src/VLIB_harrisScore_7x7/VLIB_harrisScore_7x7_d.se66 PAGE   35

    1871 000004d8 31ad5800     [!B0]   MPY32   .M1X    A10,B11,A3
    1872 000004dc 3f3da2e4     [!B0]   LDW     .D2T1   *+SP(52),A30
    1873 000004e0 3004a358     [!B0]   MVK     .L1     0x1,A0
    1874 000004e4 3fbd82e4     [!B0]   LDW     .D2T1   *+SP(48),A31
    1875                            .dwpsn  file "./../packages/ti/vlib/src/VLIB_harrisScore_7x7/VLIB_harrisScore_7x7_d.c",line 13
    1876                               ; BRANCHCC OCCURS {$C$L4}         ; |131| 
    1877 000004e8           $C$DW$L$VLIB_harrisScore_7x7_d$27$E:
    1878                    ;** --------------------------------------------------------------------------*
    1879 000004e8           $C$L10:    
    1880 000004e8           $C$DW$L$VLIB_harrisScore_7x7_d$28$B:
    1881                    ;          EXCLUSIVE CPU CYCLES: 20
    1882                    ;**     -----------------------g17:
    1883                    ;**     -----------------------    U$95 = (v$1[tpi]).height;
    1884                    ;**     -----------------------    U$11 = _lo(_mpyli(28, tpi));
    1885                    ;**     -----------------------    C$8 = U$11+v$1;
    1886                    ;**     -----------------------    U$97 = (*C$8).width;
    1887                    ;** 142 -----------------------    U$93 = C$8;
    1888                    ;** 142 -----------------------    U$159 = (*U$93).staticOut;
    1889                    ;** 142 -----------------------    if ( !((U$159 != NULL)&(U$95 >= 9)) ) goto g25;
    1890                    
    1891 000004e8 02000e2b             MVK     .S2     28,B4
    1892 000004ec 01b4aca0  ||         SHL     .S1     A13,5,A3
    1893                    
    1894 000004f0 06349572             MPYLI   .M2X    B4,A13,B13:B12
    1895 000004f4 018dbcc0             SUBAW   .D1     A3,A13,A3
    1896 000004f8 018de078             ADD     .L1     A15,A3,A3
    1897 000004fc 068c8266             LDW     .D1T2   *+A3(16),B13
    1898 00000500 053d907a             ADD     .L2X    A15,B12,B10
    1899                            .dwpsn  file "./../packages/ti/vlib/src/VLIB_harrisScore_7x7/VLIB_harrisScore_7x7_d.c",line 14
    1900 00000504 01a842e4             LDW     .D2T1   *+B10(8),A3       ; |142| 
    1901 00000508 0200a35a             ZERO    .L2     B4                ; |142| 
    1902 0000050c 05a862e6             LDW     .D2T2   *+B10(12),B11
    1903 00000510 02b528da             CMPLT   .L2     B13,9,B5          ; |142| 
    1904 00000514     fae7             XOR     .L2     1,B5,B5           ; |142| 
    1905                    
    1906 00000516     01c6             MV      .L1     A3,A0             ; |142| 
    1907 00000518     8d35  ||         STW     .D2T1   A3,*+SP(32)       ; |142| 
    1908                    
    1909 0000051a     2a67     [ A0]   MVK     .L2     0x1,B4            ; |142| 
    1910 00000520 0010af7a             AND     .L2     B5,B4,B0          ; |142| 
    1911                    
    1912 00000524 3050a121     [!B0]   BNOP    .S1     $C$L17,5          ; |142| 
    1913 00000528 2790a359  || [ B0]   MVK     .L1     0x4,A15           ; |144| 
    1914 0000052c 2237005b  || [ B0]   SUB     .L2     B13,8,B4          ; |145| 
    1915 00000530 25371af0  || [ B0]   SUB     .D1X    B13,8,A10         ; |145| 
    1916                    
    1917                               ; BRANCHCC OCCURS {$C$L17}        ; |142| 
    1918 00000534           $C$DW$L$VLIB_harrisScore_7x7_d$28$E:
    1919                    ;** --------------------------------------------------------------------------*
    1920 00000534           $C$DW$L$VLIB_harrisScore_7x7_d$29$B:
    1921                    ;** 145 -----------------------    L$4 = U$95-8;
    1922                    ;** 144 -----------------------    y = 4;
    1923                    ;**     -----------------------    #pragma MUST_ITERATE(1, 2147483639, 1)
    1924                    ;**     -----------------------    #pragma LOOP_FLAGS(5120u)
    1925 00000534           $C$DW$L$VLIB_harrisScore_7x7_d$29$E:
TMS320C6x Assembler PC v7.4.2 Thu Mar 19 12:41:33 2015

Tools Copyright (c) 1996-2012 Texas Instruments Incorporated
package/lib/Regression/regress_d_c/./../packages/ti/vlib/src/VLIB_harrisScore_7x7/VLIB_harrisScore_7x7_d.se66 PAGE   36

    1926                    ;** --------------------------------------------------------------------------*
    1927 00000534           $C$DW$L$VLIB_harrisScore_7x7_d$30$B:
    1928                    ;          EXCLUSIVE CPU CYCLES: 3
    1929                            .dwpsn  file "./../packages/ti/vlib/src/VLIB_harrisScore_7x7/VLIB_harrisScore_7x7_d.c",line 14
    1930 00000534 002d28da             CMPLT   .L2     B11,9,B0          ; |145| 
    1931 00000538 31bd02e4     [!B0]   LDW     .D2T1   *+SP(32),A3
    1932                    
    1933 0000053c 3fbda2e5     [!B0]   LDW     .D2T1   *+SP(52),A31
    1934 00000544 3004a358  || [!B0]   MVK     .L1     0x1,A0
    1935 00000540 322df801  || [!B0]   MPY32   .M1X    A15,B11,A4
    1936                    
    1937 00000548           $C$DW$L$VLIB_harrisScore_7x7_d$30$E:
    1938                    ;** --------------------------------------------------------------------------*
    1939                    ;**   BEGIN LOOP $C$L11
    1940                    ;** --------------------------------------------------------------------------*
    1941 00000548           $C$L11:    
    1942                            .dwpsn  file "./../packages/ti/vlib/src/VLIB_harrisScore_7x7/VLIB_harrisScore_7x7_d.c",line 14
    1943 00000548           $C$DW$L$VLIB_harrisScore_7x7_d$31$B:
    1944                    ;          EXCLUSIVE CPU CYCLES: 6
    1945                    ;**     -----------------------g19:
    1946                    ;** 145 -----------------------    if ( U$97 < 9 ) goto g24;
    1947                            .dwpsn  file "./../packages/ti/vlib/src/VLIB_harrisScore_7x7/VLIB_harrisScore_7x7_d.c",line 14
    1948 00000548 207aa120     [ B0]   BNOP    .S1     $C$L15,5          ; |145| 
    1949                               ; BRANCHCC OCCURS {$C$L15}        ; |145| 
    1950 0000054c           $C$DW$L$VLIB_harrisScore_7x7_d$31$E:
    1951                    ;** --------------------------------------------------------------------------*
    1952                            .dwpsn  file "./../packages/ti/vlib/src/VLIB_harrisScore_7x7/VLIB_harrisScore_7x7_d.c",line 14
    1953 0000054c           $C$DW$L$VLIB_harrisScore_7x7_d$32$B:
    1954                    ;**     -----------------------    C$7 = U$97*y;
    1955                    ;**     -----------------------    U$170 = &U$159[C$7+4];
    1956                    ;**     -----------------------    U$174 = &outm_cn[C$7+4];
    1957                    ;** 146 -----------------------    L$5 = U$97-8;
    1958                    ;** 145 -----------------------    --U$174;
    1959                    ;** 145 -----------------------    --U$170;
    1960                    ;** 145 -----------------------    U$133 = 6;
    1961                    ;** 145 -----------------------    U$168 = 12;
    1962                    ;** 145 -----------------------    x = 3;
    1963                    ;**     -----------------------    #pragma MUST_ITERATE(1, 2147483639, 1)
    1964                    ;**     -----------------------    #pragma LOOP_FLAGS(4352u)
    1965                    ;**     -----------------------g21:
    1966                    ;** 146 -----------------------    f$5 = (*(++U$170) != (unsigned)*(++U$174))-1;
    1967                    ;** 145 -----------------------    U$168 += 4;
    1968                    ;** 145 -----------------------    U$133 += 2;
    1969                    ;** 145 -----------------------    ++x;
    1970                    ;** 145 -----------------------    L$5 = L$5-1;
    1971                    ;** 145 -----------------------    if ( L$5&f$5 ) goto g21;
    1972                    ;**     -----------------------    if ( f$5 ) goto g24;
    1973 0000054c           $C$DW$L$VLIB_harrisScore_7x7_d$32$E:
    1974                    ;*----------------------------------------------------------------------------*
    1975                    ;*   SOFTWARE PIPELINE INFORMATION
    1976                    ;*
    1977                    ;*      Loop found in file               : ./../packages/ti/vlib/src/VLIB_harrisScore_7x7/VLIB_harrisS
    1978                    ;*      Loop source line                 : 145
    1979                    ;*      Loop opening brace source line   : 145
    1980                    ;*      Loop closing brace source line   : 151
TMS320C6x Assembler PC v7.4.2 Thu Mar 19 12:41:33 2015

Tools Copyright (c) 1996-2012 Texas Instruments Incorporated
package/lib/Regression/regress_d_c/./../packages/ti/vlib/src/VLIB_harrisScore_7x7/VLIB_harrisScore_7x7_d.se66 PAGE   37

    1981                    ;*      Known Minimum Trip Count         : 1                    
    1982                    ;*      Known Max Trip Count Factor      : 1
    1983                    ;*      Loop Carried Dependency Bound(^) : 1
    1984                    ;*      Unpartitioned Resource Bound     : 2
    1985                    ;*      Partitioned Resource Bound(*)    : 2
    1986                    ;*      Resource Partition:
    1987                    ;*                                A-side   B-side
    1988                    ;*      .L units                     1        0     
    1989                    ;*      .S units                     1        0     
    1990                    ;*      .D units                     1        1     
    1991                    ;*      .M units                     0        0     
    1992                    ;*      .X cross paths               1        0     
    1993                    ;*      .T address paths             1        1     
    1994                    ;*      Long read paths              0        0     
    1995                    ;*      Long write paths             0        0     
    1996                    ;*      Logical  ops (.LS)           0        0     (.L or .S unit)
    1997                    ;*      Addition ops (.LSD)          3        3     (.L or .S or .D unit)
    1998                    ;*      Bound(.L .S .LS)             1        0     
    1999                    ;*      Bound(.L .S .D .LS .LSD)     2*       2*    
    2000                    ;*
    2001                    ;*      Searching for software pipeline schedule at ...
    2002                    ;*         ii = 4  Unsafe schedule for irregular loop
    2003                    ;*         ii = 4  Unsafe schedule for irregular loop
    2004                    ;*         ii = 4  Unsafe schedule for irregular loop
    2005                    ;*         ii = 4  Unsafe schedule for irregular loop
    2006                    ;*         ii = 4  Unsafe schedule for irregular loop
    2007                    ;*         ii = 4  Did not find schedule
    2008                    ;*         ii = 5  Unsafe schedule for irregular loop
    2009                    ;*         ii = 5  Unsafe schedule for irregular loop
    2010                    ;*         ii = 5  Unsafe schedule for irregular loop
    2011                    ;*         ii = 5  Unsafe schedule for irregular loop
    2012                    ;*         ii = 5  Unsafe schedule for irregular loop
    2013                    ;*         ii = 5  Did not find schedule
    2014                    ;*         ii = 6  Unsafe schedule for irregular loop
    2015                    ;*         ii = 6  Unsafe schedule for irregular loop
    2016                    ;*         ii = 6  Unsafe schedule for irregular loop
    2017                    ;*         ii = 6  Unsafe schedule for irregular loop
    2018                    ;*         ii = 6  Unsafe schedule for irregular loop
    2019                    ;*         ii = 6  Did not find schedule
    2020                    ;*         ii = 7  Unsafe schedule for irregular loop
    2021                    ;*         ii = 7  Unsafe schedule for irregular loop
    2022                    ;*         ii = 7  Unsafe schedule for irregular loop
    2023                    ;*         ii = 7  Unsafe schedule for irregular loop
    2024                    ;*         ii = 7  Unsafe schedule for irregular loop
    2025                    ;*         ii = 7  Did not find schedule
    2026                    ;*         ii = 8  Unsafe schedule for irregular loop
    2027                    ;*         ii = 8  Unsafe schedule for irregular loop
    2028                    ;*         ii = 8  Unsafe schedule for irregular loop
    2029                    ;*         ii = 8  Unsafe schedule for irregular loop
    2030                    ;*         ii = 8  Unsafe schedule for irregular loop
    2031                    ;*         ii = 8  Did not find schedule
    2032                    ;*         ii = 9  Schedule found with 2 iterations in parallel
    2033                    ;*
    2034                    ;*      Register Usage Table:
    2035                    ;*          +-----------------------------------------------------------------+
TMS320C6x Assembler PC v7.4.2 Thu Mar 19 12:41:33 2015

Tools Copyright (c) 1996-2012 Texas Instruments Incorporated
package/lib/Regression/regress_d_c/./../packages/ti/vlib/src/VLIB_harrisScore_7x7/VLIB_harrisScore_7x7_d.se66 PAGE   38

    2036                    ;*          |AAAAAAAAAAAAAAAAAAAAAAAAAAAAAAAA|BBBBBBBBBBBBBBBBBBBBBBBBBBBBBBBB|
    2037                    ;*          |00000000001111111111222222222233|00000000001111111111222222222233|
    2038                    ;*          |01234567890123456789012345678901|01234567890123456789012345678901|
    2039                    ;*          |--------------------------------+--------------------------------|
    2040                    ;*       0: |    ***                         |    *****                       |
    2041                    ;*       1: |    ***                         |    *****                       |
    2042                    ;*       2: |   ****                         |    *****                       |
    2043                    ;*       3: |    ****                        |    *****                       |
    2044                    ;*       4: |   ****                         |    *****                       |
    2045                    ;*       5: |*   ***                         |    *****                       |
    2046                    ;*       6: |    ***                         |    *****                       |
    2047                    ;*       7: |    ***                         |    *****                       |
    2048                    ;*       8: |    ***                         |    *****                       |
    2049                    ;*          +-----------------------------------------------------------------+
    2050                    ;*
    2051                    ;*      Done
    2052                    ;*
    2053                    ;*      Loop will be splooped
    2054                    ;*      Collapsed epilog stages       : 1
    2055                    ;*      Collapsed prolog stages       : 0
    2056                    ;*      Minimum required memory pad   : 0 bytes
    2057                    ;*
    2058                    ;*      For further improvement on this loop, try option -mh56
    2059                    ;*
    2060                    ;*      Minimum safe trip count       : 1
    2061                    ;*      Min. prof. trip count  (est.) : 3
    2062                    ;*
    2063                    ;*      Mem bank conflicts/iter(est.) : { min 0.000, est 0.125, max 1.000 }
    2064                    ;*      Mem bank perf. penalty (est.) : 1.4%
    2065                    ;*
    2066                    ;*      Effective ii                : { min 9.00, est 9.13, max 10.00 }
    2067                    ;*
    2068                    ;*
    2069                    ;*      Total cycles (est.)         : 9 + trip_cnt * 9        
    2070                    ;*----------------------------------------------------------------------------*
    2071                    ;*       SETUP CODE
    2072                    ;*
    2073                    ;*                  MVK             0x1,A0
    2074                    ;*
    2075                    ;*        SINGLE SCHEDULED ITERATION
    2076                    ;*
    2077                    ;*        $C$C78:
    2078                    ;*   5      [ A0]   LDHU    .D1T1   *++A6,A4          ; |146|  ^ 
    2079                    ;*     ||   [ A0]   LDW     .D2T2   *++B8,B4          ; |146|  ^ 
    2080                    ;*   6              NOP             4
    2081                    ;*  10              CMPEQ   .L1X    B4,A4,A3          ; |146|  ^ 
    2082                    ;*  11              EXT     .S1     A3,31,31,A7       ; |146|  ^ 
    2083                    ;*     ||           SUB     .L1     A5,1,A5           ; |145|  ^ 
    2084                    ;*  12              AND     .L1     A7,A5,A3          ; |145|  ^ 
    2085                    ;*  13              MV      .L1     A3,A0             ; |145|  ^ 
    2086                    ;*  14      [ A0]   SPWBR           $C$C78
    2087                    ;*  15              NOP             2
    2088                    ;*  17              ADD     .L2     4,B7,B7           ; |145| 
    2089                    ;*     ||           ADD     .S2     2,B6,B6           ; |145| 
    2090                    ;*     ||           ADD     .D2     1,B5,B5           ; |145| 
TMS320C6x Assembler PC v7.4.2 Thu Mar 19 12:41:33 2015

Tools Copyright (c) 1996-2012 Texas Instruments Incorporated
package/lib/Regression/regress_d_c/./../packages/ti/vlib/src/VLIB_harrisScore_7x7/VLIB_harrisScore_7x7_d.se66 PAGE   39

    2091                    ;*  18              ; BRANCHCC OCCURS {$C$C78}        ; |145| 
    2092                    ;*----------------------------------------------------------------------------*
    2093 0000054c           $C$L12:    ; PIPED LOOP PROLOG
    2094                    ;          EXCLUSIVE CPU CYCLES: 10
    2095 0000054c c403e000     [ A0]   SPLOOPW 9       ;18               ; (P) 
    2096                    ;** --------------------------------------------------------------------------*
    2097 00000550           $C$L13:    ; PIPED LOOP KERNEL
    2098 00000550           $C$DW$L$VLIB_harrisScore_7x7_d$34$B:
    2099                    ;          EXCLUSIVE CPU CYCLES: 9
    2100 00000550     0c6e             NOP             1
    2101                    
    2102 00000552     6c66             SPMASK          D1
    2103 00000554 018c9c40  ||         ADDAW   .D1     A3,A4,A3
    2104                    
    2105 00000558 00430001             SPMASK          D1
    2106 00000560 028e0940  ||         ADD     .D1     A3,16,A5
    2107                    
    2108 00000564 00430001             SPMASK          D1
    2109 00000568 01fc9a40  ||         ADDAH   .D1     A31,A4,A3
    2110                    
    2111 0000056c     2ce7             SPMASK          L1,L2
    2112 0000056e     c5e0  ||         ADD     .L1     6,A3,A6
    2113 00000570 0417905a  ||         SUB     .L2X    A5,4,B8           ; |145| 
    2114                    
    2115 00000574 c2183205     [ A0]   LDHU    .D1T1   *++A6,A4          ; |146| (P) <0,5>  ^ 
    2116 00000578 c22032e6  || [ A0]   LDW     .D2T2   *++B8,B4          ; |146| (P) <0,5>  ^ 
    2117                    
    2118 00000580     2c6e             NOP             2
    2119                    
    2120 00000582     aee7             SPMASK          L1,L2,S2,D2
    2121 00000584 02af1059  ||         SUB     .L1X    B11,8,A5          ; |146| 
    2122 00000588     c727  ||         MVK     .L2     0x6,B6            ; |145| 
    2123 0000058a     6293  ||         MVK     .S2     0x3,B5            ; |145| 
    2124 0000058c 03818042  ||         MVK     .D2     0xc,B7            ; |145| 
    2125                    
    2126 00000590 00000000             NOP             1
    2127                            .dwpsn  file "./../packages/ti/vlib/src/VLIB_harrisScore_7x7/VLIB_harrisScore_7x7_d.c",line 14
    2128 00000594 01909a78             CMPEQ   .L1X    B4,A4,A3          ; |146| <0,10>  ^ 
    2129                    
    2130 000005a0 0297e058             SUB     .L1     A5,1,A5           ; |145| <0,11>  ^ 
    2131 00000598 038fff49  ||         EXT     .S1     A3,31,31,A7       ; |146| <0,11>  ^ 
    2132                    
    2133                            .dwpsn  file "./../packages/ti/vlib/src/VLIB_harrisScore_7x7/VLIB_harrisScore_7x7_d.c",line 14
    2134 000005a4 0194ef78             AND     .L1     A7,A5,A3          ; |145| <0,12>  ^ 
    2135 000005a8     01c6             MV      .L1     A3,A0             ; |145| <0,13>  ^ 
    2136 000005aa     2c6e             NOP             2
    2137 000005ac 00000000             NOP             1
    2138                    
    2139 000005b0 00034001             SPKERNEL 0,0
    2140 000005b4     87f1  ||         ADD     .L2     4,B7,B7           ; |145| <0,17> 
    2141 000005b6     472f  ||         ADD     .S2     2,B6,B6           ; |145| <0,17> 
    2142 000005b8     baf7  ||         ADD     .D2     1,B5,B5           ; |145| <0,17> 
    2143                    
    2144 000005c0           $C$DW$L$VLIB_harrisScore_7x7_d$34$E:
    2145                    ;** --------------------------------------------------------------------------*
TMS320C6x Assembler PC v7.4.2 Thu Mar 19 12:41:33 2015

Tools Copyright (c) 1996-2012 Texas Instruments Incorporated
package/lib/Regression/regress_d_c/./../packages/ti/vlib/src/VLIB_harrisScore_7x7/VLIB_harrisScore_7x7_d.se66 PAGE   40

    2146 000005c0           $C$L14:    ; PIPED LOOP EPILOG
    2147                    ;** --------------------------------------------------------------------------*
    2148 000005c0           $C$DW$L$VLIB_harrisScore_7x7_d$36$B:
    2149                    ;          EXCLUSIVE CPU CYCLES: 7
    2150                    
    2151 000005c0 001c0fd9             MV      .L1     A7,A0
    2152 000005c4 023d7802  ||         MPY32   .M2X    A15,B11,B4        ; |147| 
    2153                    
    2154 000005c8 c0001191     [ A0]   B       .S1     $C$L16
    2155 000005d0 d1bd02e4  || [!A0]   LDW     .D2T1   *+SP(32),A3       ; |147| 
    2156 000005cc 00800fd9  ||         MV      .L1     A0,A1             ; guard predicate rewrite
    2157                    
    2158 000005d4 dfbda2e5     [!A0]   LDW     .D2T1   *+SP(52),A31      ; |147| 
    2159 000005d8 c02be059  || [ A0]   SUB     .L1     A10,1,A0          ; |144| 
    2160 000005dc 87bc21a0  || [ A1]   ADD     .S1     1,A15,A15         ; |144| 
    2161                    
    2162                            .dwpsn  file "./../packages/ti/vlib/src/VLIB_harrisScore_7x7/VLIB_harrisScore_7x7_d.c",line 14
    2163 000005e0 9000a358     [!A1]   ZERO    .L1     A0                ; |144| nullify predicate
    2164                    
    2165 000005e4 039c9c43             ADDAW   .D2     B7,B4,B7          ; |147| 
    2166 000005e8 cfffed10  || [ A0]   B       .S1     $C$L11            ; |144| 
    2167                    
    2168                            .dwpsn  file "./../packages/ti/vlib/src/VLIB_harrisScore_7x7/VLIB_harrisScore_7x7_d.c",line 14
    2169 000005ec 02189a42             ADDAH   .D2     B6,B4,B4          ; |147| 
    2170                    
    2171 000005f0 822bf05b     [ A1]   SUB     .L2X    A10,1,B4          ; |144| 
    2172 000005f4 852be059  || [ A1]   SUB     .L1     A10,1,A10         ; |144| 
    2173                    
    2174                               ; BRANCHCC OCCURS {$C$L16}  
    2175 00000600           $C$DW$L$VLIB_harrisScore_7x7_d$36$E:
    2176                    ;** --------------------------------------------------------------------------*
    2177 00000600           $C$DW$L$VLIB_harrisScore_7x7_d$37$B:
    2178                    ;          EXCLUSIVE CPU CYCLES: 8
    2179                    ;** 147 -----------------------    C$6 = U$97*y;
    2180                    ;** 147 -----------------------    printf((const char *)"(%d, %d) refOut = %x\toutm_cn = %x\n", x, y, 
    2181                    ;** 148 -----------------------    status_nat_vs_ref = 0;
    2182                    
    2183 00000600 030cf07b             ADD     .L2X    A3,B7,B6          ; |147| 
    2184 00000604 0193f079  ||         ADD     .L1X    A31,B4,A3         ; |147| 
    2185 00000608 0400002a! ||         MVKL    .S2     $C$SL3+0,B8
    2186                    
    2187 0000060c 021802e7             LDW     .D2T2   *B6,B4            ; |147| 
    2188 00000610 018c0205  ||         LDHU    .D1T1   *A3,A3            ; |147| 
    2189 00000614 0400006a! ||         MVKH    .S2     $C$SL3+0,B8
    2190                    
    2191                    $C$DW$182       .dwtag  DW_TAG_TI_branch
    2192                            .dwattr $C$DW$182, DW_AT_low_pc(0x00)
    2193                            .dwattr $C$DW$182, DW_AT_name("printf")
    2194                            .dwattr $C$DW$182, DW_AT_TI_call
    2195 00000618 00000010!            CALL    .S1     printf            ; |147| 
    2196 0000061c 043c22f6             STW     .D2T2   B8,*+SP(4)        ; |147| 
    2197 00000620 02bc42f6             STW     .D2T2   B5,*+SP(8)        ; |147| 
    2198 00000624 07bc62f4             STW     .D2T1   A15,*+SP(12)      ; |147| 
    2199 00000628     acb5             STW     .D2T1   A3,*+SP(20)       ; |147| 
    2200                    
TMS320C6x Assembler PC v7.4.2 Thu Mar 19 12:41:33 2015

Tools Copyright (c) 1996-2012 Texas Instruments Incorporated
package/lib/Regression/regress_d_c/./../packages/ti/vlib/src/VLIB_harrisScore_7x7/VLIB_harrisScore_7x7_d.se66 PAGE   41

    2201 0000062a     9cc5             STW     .D2T2   B4,*+SP(16)       ; |147| 
    2202 0000062c 01840162  ||         ADDKPC  .S2     $C$RL23,B3,0      ; |147| 
    2203                    
    2204 00000630           $C$RL23:   ; CALL OCCURS {printf} {0}        ; |147| 
    2205 00000630           $C$DW$L$VLIB_harrisScore_7x7_d$37$E:
    2206                    ;** --------------------------------------------------------------------------*
    2207 00000630           $C$DW$L$VLIB_harrisScore_7x7_d$38$B:
    2208                    ;          EXCLUSIVE CPU CYCLES: 1
    2209                            .dwpsn  file "./../packages/ti/vlib/src/VLIB_harrisScore_7x7/VLIB_harrisScore_7x7_d.c",line 14
    2210 00000630 0600a358             ZERO    .L1     A12               ; |148| 
    2211 00000634           $C$DW$L$VLIB_harrisScore_7x7_d$38$E:
    2212                    ;** --------------------------------------------------------------------------*
    2213 00000634           $C$L15:    
    2214 00000634           $C$DW$L$VLIB_harrisScore_7x7_d$39$B:
    2215                    ;          EXCLUSIVE CPU CYCLES: 4
    2216                            .dwpsn  file "./../packages/ti/vlib/src/VLIB_harrisScore_7x7/VLIB_harrisScore_7x7_d.c",line 14
    2217 00000634 002be058             SUB     .L1     A10,1,A0          ; |144| 
    2218 00000638 cf942120     [ A0]   BNOP    .S1     $C$L11,1          ; |144| 
    2219                    
    2220 00000640 022bf05b             SUB     .L2X    A10,1,B4          ; |144| 
    2221 00000644 052be059  ||         SUB     .L1     A10,1,A10         ; |144| 
    2222 00000648 07bc21a0  ||         ADD     .S1     1,A15,A15         ; |144| 
    2223                    
    2224 0000064c           $C$DW$L$VLIB_harrisScore_7x7_d$39$E:
    2225                    ;** --------------------------------------------------------------------------*
    2226 0000064c           $C$L16:    
    2227                            .dwpsn  file "./../packages/ti/vlib/src/VLIB_harrisScore_7x7/VLIB_harrisScore_7x7_d.c",line 14
    2228 0000064c           $C$DW$L$VLIB_harrisScore_7x7_d$40$B:
    2229                    ;          EXCLUSIVE CPU CYCLES: 3
    2230                    ;**     -----------------------g24:
    2231                    ;** 144 -----------------------    ++y;
    2232                    ;** 144 -----------------------    if ( L$4 = L$4-1 ) goto g19;
    2233 0000064c c02d28da     [ A0]   CMPLT   .L2     B11,9,B0          ; |145| 
    2234                    
    2235 00000650 3fbda2e5     [!B0]   LDW     .D2T1   *+SP(52),A31
    2236 00000654 3004a359  || [!B0]   MVK     .L1     0x1,A0
    2237 00000658 322df800  || [!B0]   MPY32   .M1X    A15,B11,A4
    2238                    
    2239 0000065c 31bd02e4     [!B0]   LDW     .D2T1   *+SP(32),A3
    2240                            .dwpsn  file "./../packages/ti/vlib/src/VLIB_harrisScore_7x7/VLIB_harrisScore_7x7_d.c",line 14
    2241                               ; BRANCHCC OCCURS {$C$L11}        ; |144| 
    2242 00000660           $C$DW$L$VLIB_harrisScore_7x7_d$40$E:
    2243                    ;** --------------------------------------------------------------------------*
    2244 00000660           $C$L17:    
    2245                            .dwpsn  file "./../packages/ti/vlib/src/VLIB_harrisScore_7x7/VLIB_harrisScore_7x7_d.c",line 14
    2246 00000660           $C$DW$L$VLIB_harrisScore_7x7_d$41$B:
    2247                    ;          EXCLUSIVE CPU CYCLES: 13
    2248                    ;**     -----------------------g25:
    2249                    ;** 158 -----------------------    est_test = 1;
    2250                    ;** 161 -----------------------    sprintf(K$194, (const char *)"%s generated input | Opt results comp
    2251                    ;** 163 -----------------------    VLIB_formula_add_test((*U$12).width*(*U$12).height, 0, 0, (status_n
    2252                    ;** 165 -----------------------    goto g27;
    2253                            .dwpsn  file "./../packages/ti/vlib/src/VLIB_harrisScore_7x7/VLIB_harrisScore_7x7_d.c",line 16
    2254 00000660 02a942c6             LDH     .D2T2   *+B10(20),B5      ; |161| 
    2255                    
TMS320C6x Assembler PC v7.4.2 Thu Mar 19 12:41:33 2015

Tools Copyright (c) 1996-2012 Texas Instruments Incorporated
package/lib/Regression/regress_d_c/./../packages/ti/vlib/src/VLIB_harrisScore_7x7/VLIB_harrisScore_7x7_d.se66 PAGE   42

    2256 00000664 0328c2e7             LDW     .D2T2   *+B10(24),B6      ; |161| 
    2257 00000668 0380002a! ||         MVKL    .S2     $C$SL4+0,B7
    2258                    
    2259 0000066c 0200002b!            MVKL    .S2     testPatternString,B4
    2260 00000670 05bc62f6  ||         STW     .D2T2   B11,*+SP(12)      ; |161| 
    2261                    
    2262 00000674 0380006b!            MVKH    .S2     $C$SL4+0,B7
    2263 00000678 06bc82f6  ||         STW     .D2T2   B13,*+SP(16)      ; |161| 
    2264                    
    2265 0000067c 02000029!            MVKL    .S1     est_test,A4
    2266 00000680 0200006b! ||         MVKH    .S2     testPatternString,B4
    2267 00000684     bc75  ||         STW     .D2T2   B7,*+SP(4)        ; |161| 
    2268                    
    2269 00000686     25a6             MVK     .L1     1,A3              ; |158| 
    2270 00000688 02000069! ||         MVKH    .S1     est_test,A4
    2271 0000068c     dc45  ||         STW     .D2T2   B4,*+SP(8)        ; |161| 
    2272                    
    2273 0000068e     0034             STW     .D1T1   A3,*A4            ; |158| 
    2274 00000690 02000029! ||         MVKL    .S1     desc,A4
    2275 00000694     bcd5  ||         STW     .D2T2   B5,*+SP(20)       ; |161| 
    2276                    
    2277                    $C$DW$183       .dwtag  DW_TAG_TI_branch
    2278                            .dwattr $C$DW$183, DW_AT_low_pc(0x00)
    2279                            .dwattr $C$DW$183, DW_AT_name("sprintf")
    2280                            .dwattr $C$DW$183, DW_AT_TI_call
    2281                    
    2282 000006a0 10000012!            CALLP   .S2     sprintf,B3
    2283 00000698 02000069! ||         MVKH    .S1     desc,A4
    2284 00000696     dce5  ||         STW     .D2T2   B6,*+SP(24)       ; |161| 
    2285                    
    2286 000006a4           $C$RL24:   ; CALL OCCURS {sprintf} {0}       ; |161| 
    2287 000006a4           $C$DW$L$VLIB_harrisScore_7x7_d$41$E:
    2288                    ;** --------------------------------------------------------------------------*
    2289 000006a4           $C$DW$L$VLIB_harrisScore_7x7_d$42$B:
    2290                    ;          EXCLUSIVE CPU CYCLES: 12
    2291                            .dwpsn  file "./../packages/ti/vlib/src/VLIB_harrisScore_7x7/VLIB_harrisScore_7x7_d.c",line 16
    2292 000006a4 02ac8264             LDW     .D1T1   *+A11(16),A5      ; |163| 
    2293 000006a8 01ac6264             LDW     .D1T1   *+A11(12),A3      ; |163| 
    2294 000006ac 02380a58             CMPEQ   .L1     A14,0,A4          ; |163| 
    2295 000006b0 02301a5a             CMPEQ   .L2X    A12,0,B4          ; |163| 
    2296 000006b4 04000028!            MVKL    .S1     desc,A8
    2297 000006b8 0400a35a             ZERO    .L2     B8                ; |163| 
    2298                    $C$DW$184       .dwtag  DW_TAG_TI_branch
    2299                            .dwattr $C$DW$184, DW_AT_low_pc(0x00)
    2300                            .dwattr $C$DW$184, DW_AT_name("VLIB_formula_add_test")
    2301                            .dwattr $C$DW$184, DW_AT_TI_call
    2302                    
    2303 000006bc 10000013!            CALLP   .S2     VLIB_formula_add_test,B3
    2304 000006c0 03109ffb  ||         OR      .L2X    B4,A4,B6          ; |163| 
    2305 000006c4 020ca801  ||         MPY32   .M1     A5,A3,A4          ; |163| 
    2306 000006c8     1a77  ||         ZERO    .D2     B4                ; |163| 
    2307 000006cc 04000068! ||         MVKH    .S1     desc,A8
    2308 000006ca     0726  ||         ZERO    .L1     A6                ; |163| 
    2309                    
    2310 000006d0           $C$RL25:   ; CALL OCCURS {VLIB_formula_add_test} {0}  ; |163| 
TMS320C6x Assembler PC v7.4.2 Thu Mar 19 12:41:33 2015

Tools Copyright (c) 1996-2012 Texas Instruments Incorporated
package/lib/Regression/regress_d_c/./../packages/ti/vlib/src/VLIB_harrisScore_7x7/VLIB_harrisScore_7x7_d.se66 PAGE   43

    2311 000006d0           $C$DW$L$VLIB_harrisScore_7x7_d$42$E:
    2312                    ;** --------------------------------------------------------------------------*
    2313 000006d0           $C$DW$L$VLIB_harrisScore_7x7_d$43$B:
    2314                    ;          EXCLUSIVE CPU CYCLES: 6
    2315                            .dwpsn  file "./../packages/ti/vlib/src/VLIB_harrisScore_7x7/VLIB_harrisScore_7x7_d.c",line 16
    2316 000006d0 00000c10             B       .S1     $C$L19            ; |165| 
    2317                            .dwpsn  file "./../packages/ti/vlib/src/VLIB_harrisScore_7x7/VLIB_harrisScore_7x7_d.c",line 17
    2318                    ;----------------------------------------------------------------------
    2319                    ; 173 | VLIB_align_free(scratch);                                              
    2320                    ;----------------------------------------------------------------------
    2321                    $C$DW$185       .dwtag  DW_TAG_TI_branch
    2322                            .dwattr $C$DW$185, DW_AT_low_pc(0x00)
    2323                            .dwattr $C$DW$185, DW_AT_name("VLIB_align_free")
    2324                            .dwattr $C$DW$185, DW_AT_TI_call
    2325 000006d4 00000010!            CALL    .S1     VLIB_align_free   ; |173| 
    2326 000006d8     cdcd             LDW     .D2T1   *+SP(56),A4       ; |173| 
    2327 000006da     4c6e             NOP             3
    2328                            .dwpsn  file "./../packages/ti/vlib/src/VLIB_harrisScore_7x7/VLIB_harrisScore_7x7_d.c",line 16
    2329                               ; BRANCH OCCURS {$C$L19}          ; |165| 
    2330 000006e0           $C$DW$L$VLIB_harrisScore_7x7_d$43$E:
    2331                    ;** --------------------------------------------------------------------------*
    2332 000006e0           $C$L18:    
    2333                            .dwpsn  file "./../packages/ti/vlib/src/VLIB_harrisScore_7x7/VLIB_harrisScore_7x7_d.c",line 93
    2334                    $C$DW$L$VLIB_harrisScore_7x7_d$44$B:
    2335                    ;          EXCLUSIVE CPU CYCLES: 6
    2336                    ;**     -----------------------g26:
    2337                    ;** 167 -----------------------    sprintf(K$194, (const char *)"width=%d, height=%d, k=%d", (*U$12).w
    2338                    ;** 169 -----------------------    VLIB_skip_test(K$194);
    2339                    $C$DW$186       .dwtag  DW_TAG_TI_branch
    2340                            .dwattr $C$DW$186, DW_AT_low_pc(0x00)
    2341                            .dwattr $C$DW$186, DW_AT_name("sprintf")
    2342                            .dwattr $C$DW$186, DW_AT_TI_call
    2343                    
    2344 000006e0 00000011!            CALL    .S1     sprintf           ; |167| 
    2345 000006e4 02ac6265  ||         LDW     .D1T1   *+A11(12),A5      ; |167| 
    2346 000006e8 0200002a! ||         MVKL    .S2     $C$SL5+0,B4
    2347                    
    2348 000006ec 0200006a!            MVKH    .S2     $C$SL5+0,B4
    2349                            .dwpsn  file "./../packages/ti/vlib/src/VLIB_harrisScore_7x7/VLIB_harrisScore_7x7_d.c",line 16
    2350 000006f0     bc45             STW     .D2T2   B4,*+SP(4)        ; |167| 
    2351 000006f2     ec45             STW     .D2T1   A4,*+SP(12)       ; |167| 
    2352                    
    2353 000006f4 02000029!            MVKL    .S1     desc,A4
    2354 000006f8     8cb5  ||         STW     .D2T1   A3,*+SP(16)       ; |167| 
    2355                    
    2356 000006fa     cc55             STW     .D2T1   A5,*+SP(8)        ; |167| 
    2357 00000700 02000069! ||         MVKH    .S1     desc,A4
    2358 00000704 01820162  ||         ADDKPC  .S2     $C$RL26,B3,0      ; |167| 
    2359                    
    2360 00000708           $C$RL26:   ; CALL OCCURS {sprintf} {0}       ; |167| 
    2361 00000708           $C$DW$L$VLIB_harrisScore_7x7_d$44$E:
    2362                    ;** --------------------------------------------------------------------------*
    2363 00000708           $C$DW$L$VLIB_harrisScore_7x7_d$45$B:
    2364                    ;          EXCLUSIVE CPU CYCLES: 12
    2365 00000708 02000028!            MVKL    .S1     desc,A4
TMS320C6x Assembler PC v7.4.2 Thu Mar 19 12:41:33 2015

Tools Copyright (c) 1996-2012 Texas Instruments Incorporated
package/lib/Regression/regress_d_c/./../packages/ti/vlib/src/VLIB_harrisScore_7x7/VLIB_harrisScore_7x7_d.se66 PAGE   44

    2366                    $C$DW$187       .dwtag  DW_TAG_TI_branch
    2367                            .dwattr $C$DW$187, DW_AT_low_pc(0x00)
    2368                            .dwattr $C$DW$187, DW_AT_name("VLIB_skip_test")
    2369                            .dwattr $C$DW$187, DW_AT_TI_call
    2370                    
    2371 0000070c 10000013!            CALLP   .S2     VLIB_skip_test,B3
    2372 00000710 02000068! ||         MVKH    .S1     desc,A4
    2373                    
    2374                            .dwpsn  file "./../packages/ti/vlib/src/VLIB_harrisScore_7x7/VLIB_harrisScore_7x7_d.c",line 16
    2375 00000714           $C$RL27:   ; CALL OCCURS {VLIB_skip_test} {0}  ; |169| 
    2376                            .dwpsn  file "./../packages/ti/vlib/src/VLIB_harrisScore_7x7/VLIB_harrisScore_7x7_d.c",line 17
    2377                    $C$DW$188       .dwtag  DW_TAG_TI_branch
    2378                            .dwattr $C$DW$188, DW_AT_low_pc(0x00)
    2379                            .dwattr $C$DW$188, DW_AT_name("VLIB_align_free")
    2380                            .dwattr $C$DW$188, DW_AT_TI_call
    2381 00000714 00000010!            CALL    .S1     VLIB_align_free   ; |173| 
    2382 00000718     cdcd             LDW     .D2T1   *+SP(56),A4       ; |173| 
    2383 0000071a     4c6e             NOP             3
    2384 00000720           $C$DW$L$VLIB_harrisScore_7x7_d$45$E:
    2385                    ;** --------------------------------------------------------------------------*
    2386 00000720           $C$L19:    
    2387                            .dwpsn  file "./../packages/ti/vlib/src/VLIB_harrisScore_7x7/VLIB_harrisScore_7x7_d.c",line 16
    2388 00000720           $C$DW$L$VLIB_harrisScore_7x7_d$46$B:
    2389                    ;          EXCLUSIVE CPU CYCLES: 1
    2390                    ;**     -----------------------g27:
    2391                    ;** 173 -----------------------    VLIB_align_free((void *)scratch);
    2392                    ;** 174 -----------------------    free((void *)outm_cn);
    2393                    ;** 175 -----------------------    VLIB_free((void *)outm);
    2394                    ;** 176 -----------------------    VLIB_free((void *)gradY);
    2395                    ;** 177 -----------------------    VLIB_free((void *)gradX);
    2396                    ;** 178 -----------------------    free((void *)input);
    2397                    ;** 68  -----------------------    U$11 += 28;
    2398                    ;** 68  -----------------------    if ( test_cases > (++tpi) ) goto g3;
    2399                            .dwpsn  file "./../packages/ti/vlib/src/VLIB_harrisScore_7x7/VLIB_harrisScore_7x7_d.c",line 17
    2400 00000720 01810162             ADDKPC  .S2     $C$RL28,B3,0      ; |173| 
    2401                    $C$RL28:   ; CALL OCCURS {VLIB_align_free} {0}  ; |173| 
    2402                    $C$DW$L$VLIB_harrisScore_7x7_d$46$E:
    2403                    ;** --------------------------------------------------------------------------*
    2404                    $C$DW$L$VLIB_harrisScore_7x7_d$47$B:
    2405                    ;          EXCLUSIVE CPU CYCLES: 30
    2406                    $C$DW$189       .dwtag  DW_TAG_TI_branch
    2407                            .dwattr $C$DW$189, DW_AT_low_pc(0x00)
    2408                            .dwattr $C$DW$189, DW_AT_name("free")
    2409                            .dwattr $C$DW$189, DW_AT_TI_call
    2410                    
    2411 00000724 10000013!            CALLP   .S2     free,B3
    2412 00000728 023da2e4  ||         LDW     .D2T1   *+SP(52),A4       ; |174| 
    2413                    
    2414                            .dwpsn  file "./../packages/ti/vlib/src/VLIB_harrisScore_7x7/VLIB_harrisScore_7x7_d.c",line 17
    2415                    ;----------------------------------------------------------------------
    2416                    ; 174 | free(outm_cn);                                                         
    2417                    ;----------------------------------------------------------------------
    2418                    $C$RL29:   ; CALL OCCURS {free} {0}          ; |174| 
    2419                    $C$DW$190       .dwtag  DW_TAG_TI_branch
    2420                            .dwattr $C$DW$190, DW_AT_low_pc(0x00)
TMS320C6x Assembler PC v7.4.2 Thu Mar 19 12:41:33 2015

Tools Copyright (c) 1996-2012 Texas Instruments Incorporated
package/lib/Regression/regress_d_c/./../packages/ti/vlib/src/VLIB_harrisScore_7x7/VLIB_harrisScore_7x7_d.se66 PAGE   45

    2421                            .dwattr $C$DW$190, DW_AT_name("VLIB_free")
    2422                            .dwattr $C$DW$190, DW_AT_TI_call
    2423                    
    2424 0000072c 10000013!            CALLP   .S2     VLIB_free,B3
    2425 00000730 023d82e4  ||         LDW     .D2T1   *+SP(48),A4       ; |175| 
    2426                    
    2427                            .dwpsn  file "./../packages/ti/vlib/src/VLIB_harrisScore_7x7/VLIB_harrisScore_7x7_d.c",line 17
    2428                    ;----------------------------------------------------------------------
    2429                    ; 175 | VLIB_free(outm);                                                       
    2430                    ;----------------------------------------------------------------------
    2431                    $C$RL30:   ; CALL OCCURS {VLIB_free} {0}     ; |175| 
    2432                    $C$DW$191       .dwtag  DW_TAG_TI_branch
    2433                            .dwattr $C$DW$191, DW_AT_low_pc(0x00)
    2434                            .dwattr $C$DW$191, DW_AT_name("VLIB_free")
    2435                            .dwattr $C$DW$191, DW_AT_TI_call
    2436                    
    2437 00000734 10000013!            CALLP   .S2     VLIB_free,B3
    2438 00000738 023d62e5  ||         LDW     .D2T1   *+SP(44),A4       ; |176| 
    2439                    
    2440                            .dwpsn  file "./../packages/ti/vlib/src/VLIB_harrisScore_7x7/VLIB_harrisScore_7x7_d.c",line 17
    2441                    ;----------------------------------------------------------------------
    2442                    ; 176 | VLIB_free(gradY);                                                      
    2443                    ;----------------------------------------------------------------------
    2444                    $C$RL31:   ; CALL OCCURS {VLIB_free} {0}     ; |176| 
    2445                    $C$DW$192       .dwtag  DW_TAG_TI_branch
    2446                            .dwattr $C$DW$192, DW_AT_low_pc(0x00)
    2447                            .dwattr $C$DW$192, DW_AT_name("VLIB_free")
    2448                            .dwattr $C$DW$192, DW_AT_TI_call
    2449                    
    2450 00000740 10000013!            CALLP   .S2     VLIB_free,B3
    2451 00000744 023d42e4  ||         LDW     .D2T1   *+SP(40),A4       ; |177| 
    2452                    
    2453                            .dwpsn  file "./../packages/ti/vlib/src/VLIB_harrisScore_7x7/VLIB_harrisScore_7x7_d.c",line 17
    2454                    ;----------------------------------------------------------------------
    2455                    ; 177 | VLIB_free(gradX);                                                      
    2456                    ;----------------------------------------------------------------------
    2457                    $C$RL32:   ; CALL OCCURS {VLIB_free} {0}     ; |177| 
    2458                    $C$DW$193       .dwtag  DW_TAG_TI_branch
    2459                            .dwattr $C$DW$193, DW_AT_low_pc(0x00)
    2460                            .dwattr $C$DW$193, DW_AT_name("free")
    2461                            .dwattr $C$DW$193, DW_AT_TI_call
    2462                    
    2463 00000748 10000013!            CALLP   .S2     free,B3
    2464 0000074c 023d22e4  ||         LDW     .D2T1   *+SP(36),A4       ; |178| 
    2465                    
    2466                            .dwpsn  file "./../packages/ti/vlib/src/VLIB_harrisScore_7x7/VLIB_harrisScore_7x7_d.c",line 17
    2467                    ;----------------------------------------------------------------------
    2468                    ; 178 | free(input);                                                           
    2469                    ;----------------------------------------------------------------------
    2470 00000750           $C$RL33:   ; CALL OCCURS {free} {0}          ; |178| 
    2471 00000750           $C$DW$L$VLIB_harrisScore_7x7_d$47$E:
    2472                    ;** --------------------------------------------------------------------------*
    2473 00000750           $C$DW$L$VLIB_harrisScore_7x7_d$48$B:
    2474                    ;          EXCLUSIVE CPU CYCLES: 14
    2475 00000750 01800028!            MVKL    .S1     test_cases,A3
TMS320C6x Assembler PC v7.4.2 Thu Mar 19 12:41:33 2015

Tools Copyright (c) 1996-2012 Texas Instruments Incorporated
package/lib/Regression/regress_d_c/./../packages/ti/vlib/src/VLIB_harrisScore_7x7/VLIB_harrisScore_7x7_d.se66 PAGE   46

    2476 00000754 01800068!            MVKH    .S1     test_cases,A3
    2477                            .dwpsn  file "./../packages/ti/vlib/src/VLIB_harrisScore_7x7/VLIB_harrisScore_7x7_d.c",line 68
    2478 00000758 018c0264             LDW     .D1T1   *A3,A3            ; |68| 
    2479 0000075c 06b42058             ADD     .L1     1,A13,A13         ; |68| 
    2480                            .dwpsn  file "./../packages/ti/vlib/src/VLIB_harrisScore_7x7/VLIB_harrisScore_7x7_d.c",line 76
    2481 00000760 05800e50             ADDK    .S1     28,A11            ; |76| 
    2482                            .dwpsn  file "./../packages/ti/vlib/src/VLIB_harrisScore_7x7/VLIB_harrisScore_7x7_d.c",line 68
    2483 00000764 06000e52             ADDK    .S2     28,B12            ; |68| 
    2484 00000768 00000000             NOP             1
    2485 0000076c 003468f8             CMPGT   .L1     A3,A13,A0         ; |68| 
    2486                    
    2487 00000770 ce434121     [ A0]   BNOP    .S1     $C$L1,2           ; |68| 
    2488 00000774 c52c8264  || [ A0]   LDW     .D1T1   *+A11(16),A10     ; |76| 
    2489                    
    2490                            .dwpsn  file "./../packages/ti/vlib/src/VLIB_harrisScore_7x7/VLIB_harrisScore_7x7_d.c",line 76
    2491 00000778 c62c6264     [ A0]   LDW     .D1T1   *+A11(12),A12     ; |76| 
    2492 0000077c 00002000             NOP             2
    2493                            .dwpsn  file "./../packages/ti/vlib/src/VLIB_harrisScore_7x7/VLIB_harrisScore_7x7_d.c",line 68
    2494                               ; BRANCHCC OCCURS {$C$L1}         ; |68| 
    2495 00000780           $C$DW$L$VLIB_harrisScore_7x7_d$48$E:
    2496                    ;** --------------------------------------------------------------------------*
    2497 00000780           $C$L20:    
    2498                    ;          EXCLUSIVE CPU CYCLES: 8
    2499                    ;**     -----------------------g28:
    2500                    ;** 182 -----------------------    VLIB_profile_cycle_report(2, "N = width * height", "width * height"
    2501                    ;** 158 -----------------------    printf((const char *)"---------------------------------------------
    2502                    ;** 165 -----------------------    VLIB_stack_memory();  // [17]
    2503                    ;**     -----------------------    return;
    2504 00000780 0200002a!            MVKL    .S2     $C$SL7+0,B4
    2505                    
    2506 00000784 03000029!            MVKL    .S1     $C$SL6+0,A6
    2507 00000788 0200006a! ||         MVKH    .S2     $C$SL7+0,B4
    2508                    
    2509                    $C$DW$194       .dwtag  DW_TAG_TI_branch
    2510                            .dwattr $C$DW$194, DW_AT_low_pc(0x00)
    2511                            .dwattr $C$DW$194, DW_AT_name("VLIB_profile_cycle_report")
    2512                            .dwattr $C$DW$194, DW_AT_TI_call
    2513                    
    2514 0000078c 10000013!            CALLP   .S2     VLIB_profile_cycle_report,B3
    2515 00000790 03000069! ||         MVKH    .S1     $C$SL6+0,A6
    2516 00000794 0208a358  ||         MVK     .L1     0x2,A4            ; |182| 
    2517                    
    2518                            .dwpsn  file "./../packages/ti/vlib/src/VLIB_harrisScore_7x7/VLIB_harrisScore_7x7_d.c",line 18
    2519                    ;----------------------------------------------------------------------
    2520                    ; 182 | VLIB_profile_cycle_report(vlib_PROFILE_FORMULA_RANGE,                  
    2521                    ; 183 |                           "N = width * height",                        
    2522                    ; 184 |                           "width * height");                           
    2523                    ; 187 | VLIB_kernel_memory();                                                  
    2524                    ;----------------------------------------------------------------------
    2525 00000798           $C$RL34:   ; CALL OCCURS {VLIB_profile_cycle_report} {0}  ; |182| 
    2526                    ;** --------------------------------------------------------------------------*
    2527                    ;          EXCLUSIVE CPU CYCLES: 14
    2528 00000798 0200002a!            MVKL    .S2     $C$SL8+0,B4
    2529 0000079c 0200006a!            MVKH    .S2     $C$SL8+0,B4
    2530                    $C$DW$195       .dwtag  DW_TAG_TI_branch
TMS320C6x Assembler PC v7.4.2 Thu Mar 19 12:41:33 2015

Tools Copyright (c) 1996-2012 Texas Instruments Incorporated
package/lib/Regression/regress_d_c/./../packages/ti/vlib/src/VLIB_harrisScore_7x7/VLIB_harrisScore_7x7_d.se66 PAGE   47

    2531                            .dwattr $C$DW$195, DW_AT_low_pc(0x00)
    2532                            .dwattr $C$DW$195, DW_AT_name("printf")
    2533                            .dwattr $C$DW$195, DW_AT_TI_call
    2534                    
    2535 000007a0 10000013!            CALLP   .S2     printf,B3
    2536 000007a4 023c22f6  ||         STW     .D2T2   B4,*+SP(4)        ; |158| 
    2537                    
    2538                            .dwpsn  file ".\..\packages\ti\vlib\src\VLIB_harrisScore_7x7\../common/VLIB_memory.h",line 158
    2539                    $C$RL35:   ; CALL OCCURS {printf} {0}        ; |158| 
    2540                    $C$DW$196       .dwtag  DW_TAG_TI_branch
    2541                            .dwattr $C$DW$196, DW_AT_low_pc(0x00)
    2542                            .dwattr $C$DW$196, DW_AT_name("VLIB_stack_memory")
    2543                            .dwattr $C$DW$196, DW_AT_TI_call
    2544 000007a8 10000012!            CALLP   .S2     VLIB_stack_memory,B3
    2545                            .dwpsn  file ".\..\packages\ti\vlib\src\VLIB_harrisScore_7x7\../common/VLIB_memory.h",line 165
    2546 000007ac           $C$RL36:   ; CALL OCCURS {VLIB_stack_memory} {0}  ; |165| 
    2547                    ;** --------------------------------------------------------------------------*
    2548                    ;          EXCLUSIVE CPU CYCLES: 13
    2549                            .dwpsn  file "./../packages/ti/vlib/src/VLIB_harrisScore_7x7/VLIB_harrisScore_7x7_d.c",line 18
    2550 000007ac 01be12e6             LDW     .D2T2   *++SP(64),B3      ; |188| 
    2551                            .dwcfi  cfa_offset, 48
    2552                            .dwcfi  restore_reg, 19
    2553 000007b0     c677             LDDW    .D2T1   *++SP,A13:A12
    2554                            .dwcfi  cfa_offset, 40
    2555                            .dwcfi  restore_reg, 13
    2556                            .dwcfi  restore_reg, 12
    2557 000007b2     c777             LDDW    .D2T1   *++SP,A15:A14
    2558                            .dwcfi  cfa_offset, 32
    2559                            .dwcfi  restore_reg, 15
    2560                            .dwcfi  restore_reg, 14
    2561 000007b4     d577             LDDW    .D2T2   *++SP,B11:B10
    2562                            .dwcfi  cfa_offset, 24
    2563                            .dwcfi  restore_reg, 27
    2564                            .dwcfi  restore_reg, 26
    2565 000007b6     d677             LDDW    .D2T2   *++SP,B13:B12
    2566                            .dwcfi  cfa_offset, 16
    2567                            .dwcfi  restore_reg, 29
    2568                            .dwcfi  restore_reg, 28
    2569 000007b8     6577             LDW     .D2T1   *++SP(8),A10
    2570                            .dwcfi  cfa_offset, 8
    2571                            .dwcfi  restore_reg, 10
    2572 000007ba     65f7             LDW     .D2T1   *++SP(8),A11      ; |188| 
    2573                            .dwcfi  cfa_offset, 0
    2574                            .dwcfi  restore_reg, 11
    2575                            .dwcfi  cfa_offset, 0
    2576                    $C$DW$197       .dwtag  DW_TAG_TI_branch
    2577                            .dwattr $C$DW$197, DW_AT_low_pc(0x00)
    2578                            .dwattr $C$DW$197, DW_AT_TI_return
    2579 000007c0 008ca362             RETNOP  .S2     B3,5
    2580                               ; BRANCH OCCURS {B3}  
    2581                    
    2582                    $C$DW$198       .dwtag  DW_TAG_TI_loop
    2583                            .dwattr $C$DW$198, DW_AT_name("c:\nightlybuilds\vlib\ti\vlib\vlib\examples\package/lib/Regress
    2584                            .dwattr $C$DW$198, DW_AT_TI_begin_file("./../packages/ti/vlib/src/VLIB_harrisScore_7x7/VLIB_ha
    2585                            .dwattr $C$DW$198, DW_AT_TI_begin_line(0x44)
TMS320C6x Assembler PC v7.4.2 Thu Mar 19 12:41:33 2015

Tools Copyright (c) 1996-2012 Texas Instruments Incorporated
package/lib/Regression/regress_d_c/./../packages/ti/vlib/src/VLIB_harrisScore_7x7/VLIB_harrisScore_7x7_d.se66 PAGE   48

    2586                            .dwattr $C$DW$198, DW_AT_TI_end_line(0xb3)
    2587                    $C$DW$199       .dwtag  DW_TAG_TI_loop_range
    2588                            .dwattr $C$DW$199, DW_AT_low_pc($C$DW$L$VLIB_harrisScore_7x7_d$4$B)
    2589                            .dwattr $C$DW$199, DW_AT_high_pc($C$DW$L$VLIB_harrisScore_7x7_d$4$E)
    2590                    $C$DW$200       .dwtag  DW_TAG_TI_loop_range
    2591                            .dwattr $C$DW$200, DW_AT_low_pc($C$DW$L$VLIB_harrisScore_7x7_d$44$B)
    2592                            .dwattr $C$DW$200, DW_AT_high_pc($C$DW$L$VLIB_harrisScore_7x7_d$44$E)
    2593                    $C$DW$201       .dwtag  DW_TAG_TI_loop_range
    2594                            .dwattr $C$DW$201, DW_AT_low_pc($C$DW$L$VLIB_harrisScore_7x7_d$29$B)
    2595                            .dwattr $C$DW$201, DW_AT_high_pc($C$DW$L$VLIB_harrisScore_7x7_d$29$E)
    2596                    $C$DW$202       .dwtag  DW_TAG_TI_loop_range
    2597                            .dwattr $C$DW$202, DW_AT_low_pc($C$DW$L$VLIB_harrisScore_7x7_d$30$B)
    2598                            .dwattr $C$DW$202, DW_AT_high_pc($C$DW$L$VLIB_harrisScore_7x7_d$30$E)
    2599                    $C$DW$203       .dwtag  DW_TAG_TI_loop_range
    2600                            .dwattr $C$DW$203, DW_AT_low_pc($C$DW$L$VLIB_harrisScore_7x7_d$17$B)
    2601                            .dwattr $C$DW$203, DW_AT_high_pc($C$DW$L$VLIB_harrisScore_7x7_d$17$E)
    2602                    $C$DW$204       .dwtag  DW_TAG_TI_loop_range
    2603                            .dwattr $C$DW$204, DW_AT_low_pc($C$DW$L$VLIB_harrisScore_7x7_d$10$B)
    2604                            .dwattr $C$DW$204, DW_AT_high_pc($C$DW$L$VLIB_harrisScore_7x7_d$10$E)
    2605                    $C$DW$205       .dwtag  DW_TAG_TI_loop_range
    2606                            .dwattr $C$DW$205, DW_AT_low_pc($C$DW$L$VLIB_harrisScore_7x7_d$5$B)
    2607                            .dwattr $C$DW$205, DW_AT_high_pc($C$DW$L$VLIB_harrisScore_7x7_d$5$E)
    2608                    $C$DW$206       .dwtag  DW_TAG_TI_loop_range
    2609                            .dwattr $C$DW$206, DW_AT_low_pc($C$DW$L$VLIB_harrisScore_7x7_d$6$B)
    2610                            .dwattr $C$DW$206, DW_AT_high_pc($C$DW$L$VLIB_harrisScore_7x7_d$6$E)
    2611                    $C$DW$207       .dwtag  DW_TAG_TI_loop_range
    2612                            .dwattr $C$DW$207, DW_AT_low_pc($C$DW$L$VLIB_harrisScore_7x7_d$7$B)
    2613                            .dwattr $C$DW$207, DW_AT_high_pc($C$DW$L$VLIB_harrisScore_7x7_d$7$E)
    2614                    $C$DW$208       .dwtag  DW_TAG_TI_loop_range
    2615                            .dwattr $C$DW$208, DW_AT_low_pc($C$DW$L$VLIB_harrisScore_7x7_d$8$B)
    2616                            .dwattr $C$DW$208, DW_AT_high_pc($C$DW$L$VLIB_harrisScore_7x7_d$8$E)
    2617                    $C$DW$209       .dwtag  DW_TAG_TI_loop_range
    2618                            .dwattr $C$DW$209, DW_AT_low_pc($C$DW$L$VLIB_harrisScore_7x7_d$9$B)
    2619                            .dwattr $C$DW$209, DW_AT_high_pc($C$DW$L$VLIB_harrisScore_7x7_d$9$E)
    2620                    $C$DW$210       .dwtag  DW_TAG_TI_loop_range
    2621                            .dwattr $C$DW$210, DW_AT_low_pc($C$DW$L$VLIB_harrisScore_7x7_d$14$B)
    2622                            .dwattr $C$DW$210, DW_AT_high_pc($C$DW$L$VLIB_harrisScore_7x7_d$14$E)
    2623                    $C$DW$211       .dwtag  DW_TAG_TI_loop_range
    2624                            .dwattr $C$DW$211, DW_AT_low_pc($C$DW$L$VLIB_harrisScore_7x7_d$15$B)
    2625                            .dwattr $C$DW$211, DW_AT_high_pc($C$DW$L$VLIB_harrisScore_7x7_d$15$E)
    2626                    $C$DW$212       .dwtag  DW_TAG_TI_loop_range
    2627                            .dwattr $C$DW$212, DW_AT_low_pc($C$DW$L$VLIB_harrisScore_7x7_d$16$B)
    2628                            .dwattr $C$DW$212, DW_AT_high_pc($C$DW$L$VLIB_harrisScore_7x7_d$16$E)
    2629                    $C$DW$213       .dwtag  DW_TAG_TI_loop_range
    2630                            .dwattr $C$DW$213, DW_AT_low_pc($C$DW$L$VLIB_harrisScore_7x7_d$28$B)
    2631                            .dwattr $C$DW$213, DW_AT_high_pc($C$DW$L$VLIB_harrisScore_7x7_d$28$E)
    2632                    $C$DW$214       .dwtag  DW_TAG_TI_loop_range
    2633                            .dwattr $C$DW$214, DW_AT_low_pc($C$DW$L$VLIB_harrisScore_7x7_d$41$B)
    2634                            .dwattr $C$DW$214, DW_AT_high_pc($C$DW$L$VLIB_harrisScore_7x7_d$41$E)
    2635                    $C$DW$215       .dwtag  DW_TAG_TI_loop_range
    2636                            .dwattr $C$DW$215, DW_AT_low_pc($C$DW$L$VLIB_harrisScore_7x7_d$42$B)
    2637                            .dwattr $C$DW$215, DW_AT_high_pc($C$DW$L$VLIB_harrisScore_7x7_d$42$E)
    2638                    $C$DW$216       .dwtag  DW_TAG_TI_loop_range
    2639                            .dwattr $C$DW$216, DW_AT_low_pc($C$DW$L$VLIB_harrisScore_7x7_d$43$B)
    2640                            .dwattr $C$DW$216, DW_AT_high_pc($C$DW$L$VLIB_harrisScore_7x7_d$43$E)
TMS320C6x Assembler PC v7.4.2 Thu Mar 19 12:41:33 2015

Tools Copyright (c) 1996-2012 Texas Instruments Incorporated
package/lib/Regression/regress_d_c/./../packages/ti/vlib/src/VLIB_harrisScore_7x7/VLIB_harrisScore_7x7_d.se66 PAGE   49

    2641                    $C$DW$217       .dwtag  DW_TAG_TI_loop_range
    2642                            .dwattr $C$DW$217, DW_AT_low_pc($C$DW$L$VLIB_harrisScore_7x7_d$45$B)
    2643                            .dwattr $C$DW$217, DW_AT_high_pc($C$DW$L$VLIB_harrisScore_7x7_d$45$E)
    2644                    $C$DW$218       .dwtag  DW_TAG_TI_loop_range
    2645                            .dwattr $C$DW$218, DW_AT_low_pc($C$DW$L$VLIB_harrisScore_7x7_d$46$B)
    2646                            .dwattr $C$DW$218, DW_AT_high_pc($C$DW$L$VLIB_harrisScore_7x7_d$46$E)
    2647                    $C$DW$219       .dwtag  DW_TAG_TI_loop_range
    2648                            .dwattr $C$DW$219, DW_AT_low_pc($C$DW$L$VLIB_harrisScore_7x7_d$47$B)
    2649                            .dwattr $C$DW$219, DW_AT_high_pc($C$DW$L$VLIB_harrisScore_7x7_d$47$E)
    2650                    $C$DW$220       .dwtag  DW_TAG_TI_loop_range
    2651                            .dwattr $C$DW$220, DW_AT_low_pc($C$DW$L$VLIB_harrisScore_7x7_d$48$B)
    2652                            .dwattr $C$DW$220, DW_AT_high_pc($C$DW$L$VLIB_harrisScore_7x7_d$48$E)
    2653                    
    2654                    $C$DW$221       .dwtag  DW_TAG_TI_loop
    2655                            .dwattr $C$DW$221, DW_AT_name("c:\nightlybuilds\vlib\ti\vlib\vlib\examples\package/lib/Regress
    2656                            .dwattr $C$DW$221, DW_AT_TI_begin_file("./../packages/ti/vlib/src/VLIB_harrisScore_7x7/VLIB_ha
    2657                            .dwattr $C$DW$221, DW_AT_TI_begin_line(0x2e)
    2658                            .dwattr $C$DW$221, DW_AT_TI_end_line(0x33)
    2659                    $C$DW$222       .dwtag  DW_TAG_TI_loop_range
    2660                            .dwattr $C$DW$222, DW_AT_low_pc($C$DW$L$VLIB_harrisScore_7x7_d$11$B)
    2661                            .dwattr $C$DW$222, DW_AT_high_pc($C$DW$L$VLIB_harrisScore_7x7_d$11$E)
    2662                    $C$DW$223       .dwtag  DW_TAG_TI_loop_range
    2663                            .dwattr $C$DW$223, DW_AT_low_pc($C$DW$L$VLIB_harrisScore_7x7_d$12$B)
    2664                            .dwattr $C$DW$223, DW_AT_high_pc($C$DW$L$VLIB_harrisScore_7x7_d$12$E)
    2665                    $C$DW$224       .dwtag  DW_TAG_TI_loop_range
    2666                            .dwattr $C$DW$224, DW_AT_low_pc($C$DW$L$VLIB_harrisScore_7x7_d$13$B)
    2667                            .dwattr $C$DW$224, DW_AT_high_pc($C$DW$L$VLIB_harrisScore_7x7_d$13$E)
    2668                            .dwendtag $C$DW$221
    2669                    
    2670                    
    2671                    $C$DW$225       .dwtag  DW_TAG_TI_loop
    2672                            .dwattr $C$DW$225, DW_AT_name("c:\nightlybuilds\vlib\ti\vlib\vlib\examples\package/lib/Regress
    2673                            .dwattr $C$DW$225, DW_AT_TI_begin_file("./../packages/ti/vlib/src/VLIB_harrisScore_7x7/VLIB_ha
    2674                            .dwattr $C$DW$225, DW_AT_TI_begin_line(0x83)
    2675                            .dwattr $C$DW$225, DW_AT_TI_end_line(0x8b)
    2676                    $C$DW$226       .dwtag  DW_TAG_TI_loop_range
    2677                            .dwattr $C$DW$226, DW_AT_low_pc($C$DW$L$VLIB_harrisScore_7x7_d$18$B)
    2678                            .dwattr $C$DW$226, DW_AT_high_pc($C$DW$L$VLIB_harrisScore_7x7_d$18$E)
    2679                    $C$DW$227       .dwtag  DW_TAG_TI_loop_range
    2680                            .dwattr $C$DW$227, DW_AT_low_pc($C$DW$L$VLIB_harrisScore_7x7_d$24$B)
    2681                            .dwattr $C$DW$227, DW_AT_high_pc($C$DW$L$VLIB_harrisScore_7x7_d$24$E)
    2682                    $C$DW$228       .dwtag  DW_TAG_TI_loop_range
    2683                            .dwattr $C$DW$228, DW_AT_low_pc($C$DW$L$VLIB_harrisScore_7x7_d$25$B)
    2684                            .dwattr $C$DW$228, DW_AT_high_pc($C$DW$L$VLIB_harrisScore_7x7_d$25$E)
    2685                    $C$DW$229       .dwtag  DW_TAG_TI_loop_range
    2686                            .dwattr $C$DW$229, DW_AT_low_pc($C$DW$L$VLIB_harrisScore_7x7_d$19$B)
    2687                            .dwattr $C$DW$229, DW_AT_high_pc($C$DW$L$VLIB_harrisScore_7x7_d$19$E)
    2688                    $C$DW$230       .dwtag  DW_TAG_TI_loop_range
    2689                            .dwattr $C$DW$230, DW_AT_low_pc($C$DW$L$VLIB_harrisScore_7x7_d$23$B)
    2690                            .dwattr $C$DW$230, DW_AT_high_pc($C$DW$L$VLIB_harrisScore_7x7_d$23$E)
    2691                    $C$DW$231       .dwtag  DW_TAG_TI_loop_range
    2692                            .dwattr $C$DW$231, DW_AT_low_pc($C$DW$L$VLIB_harrisScore_7x7_d$26$B)
    2693                            .dwattr $C$DW$231, DW_AT_high_pc($C$DW$L$VLIB_harrisScore_7x7_d$26$E)
    2694                    $C$DW$232       .dwtag  DW_TAG_TI_loop_range
    2695                            .dwattr $C$DW$232, DW_AT_low_pc($C$DW$L$VLIB_harrisScore_7x7_d$27$B)
TMS320C6x Assembler PC v7.4.2 Thu Mar 19 12:41:33 2015

Tools Copyright (c) 1996-2012 Texas Instruments Incorporated
package/lib/Regression/regress_d_c/./../packages/ti/vlib/src/VLIB_harrisScore_7x7/VLIB_harrisScore_7x7_d.se66 PAGE   50

    2696                            .dwattr $C$DW$232, DW_AT_high_pc($C$DW$L$VLIB_harrisScore_7x7_d$27$E)
    2697                    
    2698                    $C$DW$233       .dwtag  DW_TAG_TI_loop
    2699                            .dwattr $C$DW$233, DW_AT_name("c:\nightlybuilds\vlib\ti\vlib\vlib\examples\package/lib/Regress
    2700                            .dwattr $C$DW$233, DW_AT_TI_begin_file("./../packages/ti/vlib/src/VLIB_harrisScore_7x7/VLIB_ha
    2701                            .dwattr $C$DW$233, DW_AT_TI_begin_line(0x84)
    2702                            .dwattr $C$DW$233, DW_AT_TI_end_line(0x8a)
    2703                    $C$DW$234       .dwtag  DW_TAG_TI_loop_range
    2704                            .dwattr $C$DW$234, DW_AT_low_pc($C$DW$L$VLIB_harrisScore_7x7_d$21$B)
    2705                            .dwattr $C$DW$234, DW_AT_high_pc($C$DW$L$VLIB_harrisScore_7x7_d$21$E)
    2706                            .dwendtag $C$DW$233
    2707                    
    2708                            .dwendtag $C$DW$225
    2709                    
    2710                    
    2711                    $C$DW$235       .dwtag  DW_TAG_TI_loop
    2712                            .dwattr $C$DW$235, DW_AT_name("c:\nightlybuilds\vlib\ti\vlib\vlib\examples\package/lib/Regress
    2713                            .dwattr $C$DW$235, DW_AT_TI_begin_file("./../packages/ti/vlib/src/VLIB_harrisScore_7x7/VLIB_ha
    2714                            .dwattr $C$DW$235, DW_AT_TI_begin_line(0x90)
    2715                            .dwattr $C$DW$235, DW_AT_TI_end_line(0x98)
    2716                    $C$DW$236       .dwtag  DW_TAG_TI_loop_range
    2717                            .dwattr $C$DW$236, DW_AT_low_pc($C$DW$L$VLIB_harrisScore_7x7_d$31$B)
    2718                            .dwattr $C$DW$236, DW_AT_high_pc($C$DW$L$VLIB_harrisScore_7x7_d$31$E)
    2719                    $C$DW$237       .dwtag  DW_TAG_TI_loop_range
    2720                            .dwattr $C$DW$237, DW_AT_low_pc($C$DW$L$VLIB_harrisScore_7x7_d$37$B)
    2721                            .dwattr $C$DW$237, DW_AT_high_pc($C$DW$L$VLIB_harrisScore_7x7_d$37$E)
    2722                    $C$DW$238       .dwtag  DW_TAG_TI_loop_range
    2723                            .dwattr $C$DW$238, DW_AT_low_pc($C$DW$L$VLIB_harrisScore_7x7_d$38$B)
    2724                            .dwattr $C$DW$238, DW_AT_high_pc($C$DW$L$VLIB_harrisScore_7x7_d$38$E)
    2725                    $C$DW$239       .dwtag  DW_TAG_TI_loop_range
    2726                            .dwattr $C$DW$239, DW_AT_low_pc($C$DW$L$VLIB_harrisScore_7x7_d$32$B)
    2727                            .dwattr $C$DW$239, DW_AT_high_pc($C$DW$L$VLIB_harrisScore_7x7_d$32$E)
    2728                    $C$DW$240       .dwtag  DW_TAG_TI_loop_range
    2729                            .dwattr $C$DW$240, DW_AT_low_pc($C$DW$L$VLIB_harrisScore_7x7_d$36$B)
    2730                            .dwattr $C$DW$240, DW_AT_high_pc($C$DW$L$VLIB_harrisScore_7x7_d$36$E)
    2731                    $C$DW$241       .dwtag  DW_TAG_TI_loop_range
    2732                            .dwattr $C$DW$241, DW_AT_low_pc($C$DW$L$VLIB_harrisScore_7x7_d$39$B)
    2733                            .dwattr $C$DW$241, DW_AT_high_pc($C$DW$L$VLIB_harrisScore_7x7_d$39$E)
    2734                    $C$DW$242       .dwtag  DW_TAG_TI_loop_range
    2735                            .dwattr $C$DW$242, DW_AT_low_pc($C$DW$L$VLIB_harrisScore_7x7_d$40$B)
    2736                            .dwattr $C$DW$242, DW_AT_high_pc($C$DW$L$VLIB_harrisScore_7x7_d$40$E)
    2737                    
    2738                    $C$DW$243       .dwtag  DW_TAG_TI_loop
    2739                            .dwattr $C$DW$243, DW_AT_name("c:\nightlybuilds\vlib\ti\vlib\vlib\examples\package/lib/Regress
    2740                            .dwattr $C$DW$243, DW_AT_TI_begin_file("./../packages/ti/vlib/src/VLIB_harrisScore_7x7/VLIB_ha
    2741                            .dwattr $C$DW$243, DW_AT_TI_begin_line(0x91)
    2742                            .dwattr $C$DW$243, DW_AT_TI_end_line(0x97)
    2743                    $C$DW$244       .dwtag  DW_TAG_TI_loop_range
    2744                            .dwattr $C$DW$244, DW_AT_low_pc($C$DW$L$VLIB_harrisScore_7x7_d$34$B)
    2745                            .dwattr $C$DW$244, DW_AT_high_pc($C$DW$L$VLIB_harrisScore_7x7_d$34$E)
    2746                            .dwendtag $C$DW$243
    2747                    
    2748                            .dwendtag $C$DW$235
    2749                    
    2750                            .dwendtag $C$DW$198
TMS320C6x Assembler PC v7.4.2 Thu Mar 19 12:41:33 2015

Tools Copyright (c) 1996-2012 Texas Instruments Incorporated
package/lib/Regression/regress_d_c/./../packages/ti/vlib/src/VLIB_harrisScore_7x7/VLIB_harrisScore_7x7_d.se66 PAGE   51

    2751                    
    2752                            .dwattr $C$DW$90, DW_AT_TI_end_file("./../packages/ti/vlib/src/VLIB_harrisScore_7x7/VLIB_harri
    2753                            .dwattr $C$DW$90, DW_AT_TI_end_line(0xbc)
    2754                            .dwattr $C$DW$90, DW_AT_TI_end_column(0x01)
    2755                            .dwendentry
    2756                            .dwendtag $C$DW$90
    2757                    
    2758                    ;; Inlined function references:
    2759                    ;; [ 14] VLIB_profile_start
    2760                    ;; [ 15] VLIB_profile_stop
    2761                    ;; [ 17] VLIB_kernel_memory
    2762                    ;; [ 26] CreatePattern1
    2763                    ;******************************************************************************
    2764                    ;* STRINGS                                                                    *
    2765                    ;******************************************************************************
    2766 00000000                   .sect   ".const:.string"
    2767 00000000 00000056  $C$SL1: .string "VLIB_harrisScore_7x7",0
         00000001 0000004C 
         00000002 00000049 
         00000003 00000042 
         00000004 0000005F 
         00000005 00000068 
         00000006 00000061 
         00000007 00000072 
         00000008 00000072 
         00000009 00000069 
         0000000a 00000073 
         0000000b 00000053 
         0000000c 00000063 
         0000000d 0000006F 
         0000000e 00000072 
         0000000f 00000065 
         00000010 0000005F 
         00000011 00000037 
         00000012 00000078 
         00000013 00000037 
         00000014 00000000 
    2768 00000015 00000028  $C$SL2: .string "(%d, %d) outm = %x",9,"outm_cn = %x",10,0
         00000016 00000025 
         00000017 00000064 
         00000018 0000002C 
         00000019 00000020 
         0000001a 00000025 
         0000001b 00000064 
         0000001c 00000029 
         0000001d 00000020 
         0000001e 0000006F 
         0000001f 00000075 
         00000020 00000074 
         00000021 0000006D 
         00000022 00000020 
         00000023 0000003D 
         00000024 00000020 
         00000025 00000025 
         00000026 00000078 
TMS320C6x Assembler PC v7.4.2 Thu Mar 19 12:41:33 2015

Tools Copyright (c) 1996-2012 Texas Instruments Incorporated
package/lib/Regression/regress_d_c/./../packages/ti/vlib/src/VLIB_harrisScore_7x7/VLIB_harrisScore_7x7_d.se66 PAGE   52

         00000027 00000009 
         00000028 0000006F 
         00000029 00000075 
         0000002a 00000074 
         0000002b 0000006D 
         0000002c 0000005F 
         0000002d 00000063 
         0000002e 0000006E 
         0000002f 00000020 
         00000030 0000003D 
         00000031 00000020 
         00000032 00000025 
         00000033 00000078 
         00000034 0000000A 
         00000035 00000000 
    2769 00000036 00000028  $C$SL3: .string "(%d, %d) refOut = %x",9,"outm_cn = %x",10,0
         00000037 00000025 
         00000038 00000064 
         00000039 0000002C 
         0000003a 00000020 
         0000003b 00000025 
         0000003c 00000064 
         0000003d 00000029 
         0000003e 00000020 
         0000003f 00000072 
         00000040 00000065 
         00000041 00000066 
         00000042 0000004F 
         00000043 00000075 
         00000044 00000074 
         00000045 00000020 
         00000046 0000003D 
         00000047 00000020 
         00000048 00000025 
         00000049 00000078 
         0000004a 00000009 
         0000004b 0000006F 
         0000004c 00000075 
         0000004d 00000074 
         0000004e 0000006D 
         0000004f 0000005F 
         00000050 00000063 
         00000051 0000006E 
         00000052 00000020 
         00000053 0000003D 
         00000054 00000020 
         00000055 00000025 
         00000056 00000078 
         00000057 0000000A 
         00000058 00000000 
    2770 00000059 00000025  $C$SL4: .string "%s generated input | Opt results compared to NatC results |"
         0000005a 00000073 
         0000005b 00000020 
         0000005c 00000067 
         0000005d 00000065 
TMS320C6x Assembler PC v7.4.2 Thu Mar 19 12:41:33 2015

Tools Copyright (c) 1996-2012 Texas Instruments Incorporated
package/lib/Regression/regress_d_c/./../packages/ti/vlib/src/VLIB_harrisScore_7x7/VLIB_harrisScore_7x7_d.se66 PAGE   53

         0000005e 0000006E 
         0000005f 00000065 
         00000060 00000072 
         00000061 00000061 
         00000062 00000074 
         00000063 00000065 
         00000064 00000064 
         00000065 00000020 
         00000066 00000069 
         00000067 0000006E 
         00000068 00000070 
         00000069 00000075 
         0000006a 00000074 
         0000006b 00000020 
         0000006c 0000007C 
         0000006d 00000020 
         0000006e 0000004F 
         0000006f 00000070 
         00000070 00000074 
         00000071 00000020 
         00000072 00000072 
         00000073 00000065 
         00000074 00000073 
         00000075 00000075 
         00000076 0000006C 
         00000077 00000074 
         00000078 00000073 
         00000079 00000020 
         0000007a 00000063 
         0000007b 0000006F 
         0000007c 0000006D 
         0000007d 00000070 
         0000007e 00000061 
         0000007f 00000072 
         00000080 00000065 
         00000081 00000064 
         00000082 00000020 
         00000083 00000074 
         00000084 0000006F 
         00000085 00000020 
         00000086 0000004E 
         00000087 00000061 
         00000088 00000074 
         00000089 00000043 
         0000008a 00000020 
         0000008b 00000072 
         0000008c 00000065 
         0000008d 00000073 
         0000008e 00000075 
         0000008f 0000006C 
         00000090 00000074 
         00000091 00000073 
         00000092 00000020 
         00000093 0000007C 
    2771 00000094 00000020          .string " width=%d, height=%d, k=%d, %s",0
TMS320C6x Assembler PC v7.4.2 Thu Mar 19 12:41:33 2015

Tools Copyright (c) 1996-2012 Texas Instruments Incorporated
package/lib/Regression/regress_d_c/./../packages/ti/vlib/src/VLIB_harrisScore_7x7/VLIB_harrisScore_7x7_d.se66 PAGE   54

         00000095 00000077 
         00000096 00000069 
         00000097 00000064 
         00000098 00000074 
         00000099 00000068 
         0000009a 0000003D 
         0000009b 00000025 
         0000009c 00000064 
         0000009d 0000002C 
         0000009e 00000020 
         0000009f 00000068 
         000000a0 00000065 
         000000a1 00000069 
         000000a2 00000067 
         000000a3 00000068 
         000000a4 00000074 
         000000a5 0000003D 
         000000a6 00000025 
         000000a7 00000064 
         000000a8 0000002C 
         000000a9 00000020 
         000000aa 0000006B 
         000000ab 0000003D 
         000000ac 00000025 
         000000ad 00000064 
         000000ae 0000002C 
         000000af 00000020 
         000000b0 00000025 
         000000b1 00000073 
         000000b2 00000000 
    2772 000000b3 00000077  $C$SL5: .string "width=%d, height=%d, k=%d",0
         000000b4 00000069 
         000000b5 00000064 
         000000b6 00000074 
         000000b7 00000068 
         000000b8 0000003D 
         000000b9 00000025 
         000000ba 00000064 
         000000bb 0000002C 
         000000bc 00000020 
         000000bd 00000068 
         000000be 00000065 
         000000bf 00000069 
         000000c0 00000067 
         000000c1 00000068 
         000000c2 00000074 
         000000c3 0000003D 
         000000c4 00000025 
         000000c5 00000064 
         000000c6 0000002C 
         000000c7 00000020 
         000000c8 0000006B 
         000000c9 0000003D 
         000000ca 00000025 
         000000cb 00000064 
TMS320C6x Assembler PC v7.4.2 Thu Mar 19 12:41:33 2015

Tools Copyright (c) 1996-2012 Texas Instruments Incorporated
package/lib/Regression/regress_d_c/./../packages/ti/vlib/src/VLIB_harrisScore_7x7/VLIB_harrisScore_7x7_d.se66 PAGE   55

         000000cc 00000000 
    2773 000000cd 00000077  $C$SL6: .string "width * height",0
         000000ce 00000069 
         000000cf 00000064 
         000000d0 00000074 
         000000d1 00000068 
         000000d2 00000020 
         000000d3 0000002A 
         000000d4 00000020 
         000000d5 00000068 
         000000d6 00000065 
         000000d7 00000069 
         000000d8 00000067 
         000000d9 00000068 
         000000da 00000074 
         000000db 00000000 
    2774 000000dc 0000004E  $C$SL7: .string "N = width * height",0
         000000dd 00000020 
         000000de 0000003D 
         000000df 00000020 
         000000e0 00000077 
         000000e1 00000069 
         000000e2 00000064 
         000000e3 00000074 
         000000e4 00000068 
         000000e5 00000020 
         000000e6 0000002A 
         000000e7 00000020 
         000000e8 00000068 
         000000e9 00000065 
         000000ea 00000069 
         000000eb 00000067 
         000000ec 00000068 
         000000ed 00000074 
         000000ee 00000000 
    2775 000000ef 0000002D  $C$SL8: .string "-----------------------------------------------------------"
         000000f0 0000002D 
         000000f1 0000002D 
         000000f2 0000002D 
         000000f3 0000002D 
         000000f4 0000002D 
         000000f5 0000002D 
         000000f6 0000002D 
         000000f7 0000002D 
         000000f8 0000002D 
         000000f9 0000002D 
         000000fa 0000002D 
         000000fb 0000002D 
         000000fc 0000002D 
         000000fd 0000002D 
         000000fe 0000002D 
         000000ff 0000002D 
         00000100 0000002D 
         00000101 0000002D 
         00000102 0000002D 
TMS320C6x Assembler PC v7.4.2 Thu Mar 19 12:41:33 2015

Tools Copyright (c) 1996-2012 Texas Instruments Incorporated
package/lib/Regression/regress_d_c/./../packages/ti/vlib/src/VLIB_harrisScore_7x7/VLIB_harrisScore_7x7_d.se66 PAGE   56

         00000103 0000002D 
         00000104 0000002D 
         00000105 0000002D 
         00000106 0000002D 
         00000107 0000002D 
         00000108 0000002D 
         00000109 0000002D 
         0000010a 0000002D 
         0000010b 0000002D 
         0000010c 0000002D 
         0000010d 0000002D 
         0000010e 0000002D 
         0000010f 0000002D 
         00000110 0000002D 
         00000111 0000002D 
         00000112 0000002D 
         00000113 0000002D 
         00000114 0000002D 
         00000115 0000002D 
         00000116 0000002D 
         00000117 0000002D 
         00000118 0000002D 
         00000119 0000002D 
         0000011a 0000002D 
         0000011b 0000002D 
         0000011c 0000002D 
         0000011d 0000002D 
         0000011e 0000002D 
         0000011f 0000002D 
         00000120 0000002D 
         00000121 0000002D 
         00000122 0000002D 
         00000123 0000002D 
         00000124 0000002D 
         00000125 0000002D 
         00000126 0000002D 
         00000127 0000002D 
         00000128 0000002D 
         00000129 0000002D 
    2776 0000012a 0000002D          .string "-----------------------------------------------------------"
         0000012b 0000002D 
         0000012c 0000002D 
         0000012d 0000002D 
         0000012e 0000002D 
         0000012f 0000002D 
         00000130 0000002D 
         00000131 0000002D 
         00000132 0000002D 
         00000133 0000002D 
         00000134 0000002D 
         00000135 0000002D 
         00000136 0000002D 
         00000137 0000002D 
         00000138 0000002D 
         00000139 0000002D 
TMS320C6x Assembler PC v7.4.2 Thu Mar 19 12:41:33 2015

Tools Copyright (c) 1996-2012 Texas Instruments Incorporated
package/lib/Regression/regress_d_c/./../packages/ti/vlib/src/VLIB_harrisScore_7x7/VLIB_harrisScore_7x7_d.se66 PAGE   57

         0000013a 0000002D 
         0000013b 0000002D 
         0000013c 0000002D 
         0000013d 0000002D 
         0000013e 0000002D 
         0000013f 0000002D 
         00000140 0000002D 
         00000141 0000002D 
         00000142 0000002D 
         00000143 0000002D 
         00000144 0000002D 
         00000145 0000002D 
         00000146 0000002D 
         00000147 0000002D 
         00000148 0000002D 
         00000149 0000002D 
         0000014a 0000002D 
         0000014b 0000002D 
         0000014c 0000002D 
         0000014d 0000002D 
         0000014e 0000002D 
         0000014f 0000002D 
         00000150 0000002D 
         00000151 0000002D 
         00000152 0000002D 
         00000153 0000002D 
         00000154 0000002D 
         00000155 0000002D 
         00000156 0000002D 
         00000157 0000002D 
         00000158 0000002D 
         00000159 0000002D 
         0000015a 0000002D 
         0000015b 0000002D 
         0000015c 0000002D 
         0000015d 0000002D 
         0000015e 0000002D 
         0000015f 0000002D 
         00000160 0000002D 
         00000161 0000002D 
         00000162 0000002D 
         00000163 0000002D 
         00000164 0000002D 
    2777 00000165 0000002D          .string "-----------------------",10,0
         00000166 0000002D 
         00000167 0000002D 
         00000168 0000002D 
         00000169 0000002D 
         0000016a 0000002D 
         0000016b 0000002D 
         0000016c 0000002D 
         0000016d 0000002D 
         0000016e 0000002D 
         0000016f 0000002D 
         00000170 0000002D 
TMS320C6x Assembler PC v7.4.2 Thu Mar 19 12:41:33 2015

Tools Copyright (c) 1996-2012 Texas Instruments Incorporated
package/lib/Regression/regress_d_c/./../packages/ti/vlib/src/VLIB_harrisScore_7x7/VLIB_harrisScore_7x7_d.se66 PAGE   58

         00000171 0000002D 
         00000172 0000002D 
         00000173 0000002D 
         00000174 0000002D 
         00000175 0000002D 
         00000176 0000002D 
         00000177 0000002D 
         00000178 0000002D 
         00000179 0000002D 
         0000017a 0000002D 
         0000017b 0000002D 
         0000017c 0000000A 
         0000017d 00000000 
    2778                    ;*****************************************************************************
    2779                    ;* UNDEFINED EXTERNAL REFERENCES                                             *
    2780                    ;*****************************************************************************
    2781                            .global printf
    2782                            .global sprintf
    2783                            .global malloc
    2784                            .global free
    2785                            .global VLIB_cache_inval
    2786                            .global VLIB_profile_init
    2787                            .global VLIB_formula_add_test
    2788                            .global VLIB_skip_test
    2789                            .global VLIB_profile_cycle_report
    2790                            .global initStack
    2791                            .global setStackDepth
    2792                            .global getSP
    2793                            .global VLIB_stack_memory
    2794                            .global VLIB_fillBuffer
    2795                            .global VLIB_memalign
    2796                            .global VLIB_malloc
    2797                            .global VLIB_align_free
    2798                            .global VLIB_free
    2799                            .global VLIB_harrisScore_7x7
    2800                            .global VLIB_harrisScore_7x7_cn
    2801                            .global harrisScore_7x7_getTestParams
    2802                            .global VLIB_xyGradients_cn
    2803                            .global test_cases
    2804                            .global act_kernel
    2805                            .global desc
    2806                            .global testPatternString
    2807                            .global est_test
    2808                            .global beg_count
    2809                            .global end_count
    2810                            .global overhead
    2811                            .global cycles
    2812                            .global __c6xabi_divi
    2813                            .global __c6xabi_remi
    2814                    
    2815                    ;******************************************************************************
