TMS320C6x Assembler PC v7.4.2 Thu Mar 19 12:40:30 2015

Tools Copyright (c) 1996-2012 Texas Instruments Incorporated
package/lib/Regression/regress_d_c/./../packages/ti/vlib/src/VLIB_convertUYVYint_to_YUV422pl/VLIB_convertUYVYint_to_YUV422pl_d.se66 PAGE    1

       1                    ;******************************************************************************
       2                    ;* TMS320C6x C/C++ Codegen                                          PC v7.4.2 *
       3                    ;* Date/Time created: Thu Mar 19 12:40:29 2015                                *
       4                    ;******************************************************************************
       5                            .compiler_opts --abi=eabi --c64p_l1d_workaround=off --endian=little --hll_source=on --long_pre
       6                    
       7                    ;******************************************************************************
       8                    ;* GLOBAL FILE PARAMETERS                                                     *
       9                    ;*                                                                            *
      10                    ;*   Architecture      : TMS320C66xx                                          *
      11                    ;*   Optimization      : Enabled at level 3                                   *
      12                    ;*   Optimizing for    : Speed                                                *
      13                    ;*                       Based on options: -o3, no -ms                        *
      14                    ;*   Endian            : Little                                               *
      15                    ;*   Interrupt Thrshld : 10000                                                *
      16                    ;*   Data Access Model : Far                                                  *
      17                    ;*   Pipelining        : Enabled                                              *
      18                    ;*   Speculate Loads   : Enabled with threshold = 0                           *
      19                    ;*   Memory Aliases    : Presume are aliases (pessimistic)                    *
      20                    ;*   Debug Info        : DWARF Debug w/Optimization                           *
      21                    ;*                                                                            *
      22                    ;******************************************************************************
      23                    
      24                            .asg    A15, FP
      25                            .asg    B14, DP
      26                            .asg    B15, SP
      27                            .global $bss
      28                    
      29                    
      30                    $C$DW$CU        .dwtag  DW_TAG_compile_unit
      31                            .dwattr $C$DW$CU, DW_AT_name("./../packages/ti/vlib/src/VLIB_convertUYVYint_to_YUV422pl/VLIB_c
      32                            .dwattr $C$DW$CU, DW_AT_producer("TI TMS320C6x C/C++ Codegen PC v7.4.2 Copyright (c) 1996-2012
      33                            .dwattr $C$DW$CU, DW_AT_TI_version(0x01)
      34                            .dwattr $C$DW$CU, DW_AT_comp_dir("c:\nightlybuilds\vlib\ti\vlib\vlib\examples")
      35                    
      36                    $C$DW$1 .dwtag  DW_TAG_subprogram, DW_AT_name("_itoll")
      37                            .dwattr $C$DW$1, DW_AT_TI_symbol_name("_itoll")
      38                            .dwattr $C$DW$1, DW_AT_type(*$C$DW$T$14)
      39                            .dwattr $C$DW$1, DW_AT_declaration
      40                            .dwattr $C$DW$1, DW_AT_external
      41                            .dwattr $C$DW$1, DW_AT_decl_file("C:/VLIB_Tools/CCSV5_4_0/ccsv5/tools/compiler/C6000/include/c
      42                            .dwattr $C$DW$1, DW_AT_decl_line(0xdf)
      43                            .dwattr $C$DW$1, DW_AT_decl_column(0x0b)
      44                    $C$DW$2 .dwtag  DW_TAG_formal_parameter
      45                            .dwattr $C$DW$2, DW_AT_type(*$C$DW$T$11)
      46                    $C$DW$3 .dwtag  DW_TAG_formal_parameter
      47                            .dwattr $C$DW$3, DW_AT_type(*$C$DW$T$11)
      48                            .dwendtag $C$DW$1
      49                    
      50                    
      51                    $C$DW$4 .dwtag  DW_TAG_subprogram, DW_AT_name("printf")
      52                            .dwattr $C$DW$4, DW_AT_TI_symbol_name("printf")
      53                            .dwattr $C$DW$4, DW_AT_type(*$C$DW$T$10)
      54                            .dwattr $C$DW$4, DW_AT_declaration
      55                            .dwattr $C$DW$4, DW_AT_external
TMS320C6x Assembler PC v7.4.2 Thu Mar 19 12:40:30 2015

Tools Copyright (c) 1996-2012 Texas Instruments Incorporated
package/lib/Regression/regress_d_c/./../packages/ti/vlib/src/VLIB_convertUYVYint_to_YUV422pl/VLIB_convertUYVYint_to_YUV422pl_d.se66 PAGE    2

      56                            .dwattr $C$DW$4, DW_AT_decl_file("C:/VLIB_Tools/CCSV5_4_0/ccsv5/tools/compiler/C6000/include/s
      57                            .dwattr $C$DW$4, DW_AT_decl_line(0xb8)
      58                            .dwattr $C$DW$4, DW_AT_decl_column(0x19)
      59                    $C$DW$5 .dwtag  DW_TAG_formal_parameter
      60                            .dwattr $C$DW$5, DW_AT_type(*$C$DW$T$103)
      61                    $C$DW$6 .dwtag  DW_TAG_unspecified_parameters
      62                            .dwendtag $C$DW$4
      63                    
      64                    
      65                    $C$DW$7 .dwtag  DW_TAG_subprogram, DW_AT_name("sprintf")
      66                            .dwattr $C$DW$7, DW_AT_TI_symbol_name("sprintf")
      67                            .dwattr $C$DW$7, DW_AT_type(*$C$DW$T$10)
      68                            .dwattr $C$DW$7, DW_AT_declaration
      69                            .dwattr $C$DW$7, DW_AT_external
      70                            .dwattr $C$DW$7, DW_AT_decl_file("C:/VLIB_Tools/CCSV5_4_0/ccsv5/tools/compiler/C6000/include/s
      71                            .dwattr $C$DW$7, DW_AT_decl_line(0xbc)
      72                            .dwattr $C$DW$7, DW_AT_decl_column(0x19)
      73                    $C$DW$8 .dwtag  DW_TAG_formal_parameter
      74                            .dwattr $C$DW$8, DW_AT_type(*$C$DW$T$59)
      75                    $C$DW$9 .dwtag  DW_TAG_formal_parameter
      76                            .dwattr $C$DW$9, DW_AT_type(*$C$DW$T$103)
      77                    $C$DW$10        .dwtag  DW_TAG_unspecified_parameters
      78                            .dwendtag $C$DW$7
      79                    
      80                    
      81                    $C$DW$11        .dwtag  DW_TAG_subprogram, DW_AT_name("malloc")
      82                            .dwattr $C$DW$11, DW_AT_TI_symbol_name("malloc")
      83                            .dwattr $C$DW$11, DW_AT_type(*$C$DW$T$3)
      84                            .dwattr $C$DW$11, DW_AT_declaration
      85                            .dwattr $C$DW$11, DW_AT_external
      86                            .dwattr $C$DW$11, DW_AT_decl_file("C:/VLIB_Tools/CCSV5_4_0/ccsv5/tools/compiler/C6000/include/
      87                            .dwattr $C$DW$11, DW_AT_decl_line(0x82)
      88                            .dwattr $C$DW$11, DW_AT_decl_column(0x19)
      89                    $C$DW$12        .dwtag  DW_TAG_formal_parameter
      90                            .dwattr $C$DW$12, DW_AT_type(*$C$DW$T$52)
      91                            .dwendtag $C$DW$11
      92                    
      93                    
      94                    $C$DW$13        .dwtag  DW_TAG_subprogram, DW_AT_name("free")
      95                            .dwattr $C$DW$13, DW_AT_TI_symbol_name("free")
      96                            .dwattr $C$DW$13, DW_AT_declaration
      97                            .dwattr $C$DW$13, DW_AT_external
      98                            .dwattr $C$DW$13, DW_AT_decl_file("C:/VLIB_Tools/CCSV5_4_0/ccsv5/tools/compiler/C6000/include/
      99                            .dwattr $C$DW$13, DW_AT_decl_line(0x86)
     100                            .dwattr $C$DW$13, DW_AT_decl_column(0x19)
     101                    $C$DW$14        .dwtag  DW_TAG_formal_parameter
     102                            .dwattr $C$DW$14, DW_AT_type(*$C$DW$T$3)
     103                            .dwendtag $C$DW$13
     104                    
     105                    
     106                    $C$DW$15        .dwtag  DW_TAG_subprogram, DW_AT_name("VLIB_cache_inval")
     107                            .dwattr $C$DW$15, DW_AT_TI_symbol_name("VLIB_cache_inval")
     108                            .dwattr $C$DW$15, DW_AT_type(*$C$DW$T$10)
     109                            .dwattr $C$DW$15, DW_AT_declaration
     110                            .dwattr $C$DW$15, DW_AT_external
TMS320C6x Assembler PC v7.4.2 Thu Mar 19 12:40:30 2015

Tools Copyright (c) 1996-2012 Texas Instruments Incorporated
package/lib/Regression/regress_d_c/./../packages/ti/vlib/src/VLIB_convertUYVYint_to_YUV422pl/VLIB_convertUYVYint_to_YUV422pl_d.se66 PAGE    3

     111                            .dwattr $C$DW$15, DW_AT_decl_file(".\..\packages\ti\vlib\src\VLIB_convertUYVYint_to_YUV422pl\.
     112                            .dwattr $C$DW$15, DW_AT_decl_line(0x58)
     113                            .dwattr $C$DW$15, DW_AT_decl_column(0x05)
     114                    
     115                    $C$DW$16        .dwtag  DW_TAG_subprogram, DW_AT_name("VLIB_profile_init")
     116                            .dwattr $C$DW$16, DW_AT_TI_symbol_name("VLIB_profile_init")
     117                            .dwattr $C$DW$16, DW_AT_declaration
     118                            .dwattr $C$DW$16, DW_AT_external
     119                            .dwattr $C$DW$16, DW_AT_decl_file(".\..\packages\ti\vlib\src\VLIB_convertUYVYint_to_YUV422pl\.
     120                            .dwattr $C$DW$16, DW_AT_decl_line(0x7b)
     121                            .dwattr $C$DW$16, DW_AT_decl_column(0x06)
     122                    $C$DW$17        .dwtag  DW_TAG_formal_parameter
     123                            .dwattr $C$DW$17, DW_AT_type(*$C$DW$T$10)
     124                    $C$DW$18        .dwtag  DW_TAG_formal_parameter
     125                            .dwattr $C$DW$18, DW_AT_type(*$C$DW$T$59)
     126                            .dwendtag $C$DW$16
     127                    
     128                    
     129                    $C$DW$19        .dwtag  DW_TAG_subprogram, DW_AT_name("VLIB_profile_setMode")
     130                            .dwattr $C$DW$19, DW_AT_TI_symbol_name("VLIB_profile_setMode")
     131                            .dwattr $C$DW$19, DW_AT_declaration
     132                            .dwattr $C$DW$19, DW_AT_external
     133                            .dwattr $C$DW$19, DW_AT_decl_file(".\..\packages\ti\vlib\src\VLIB_convertUYVYint_to_YUV422pl\.
     134                            .dwattr $C$DW$19, DW_AT_decl_line(0x7c)
     135                            .dwattr $C$DW$19, DW_AT_decl_column(0x06)
     136                    $C$DW$20        .dwtag  DW_TAG_formal_parameter
     137                            .dwattr $C$DW$20, DW_AT_type(*$C$DW$T$10)
     138                    $C$DW$21        .dwtag  DW_TAG_formal_parameter
     139                            .dwattr $C$DW$21, DW_AT_type(*$C$DW$T$10)
     140                    $C$DW$22        .dwtag  DW_TAG_formal_parameter
     141                            .dwattr $C$DW$22, DW_AT_type(*$C$DW$T$59)
     142                    $C$DW$23        .dwtag  DW_TAG_formal_parameter
     143                            .dwattr $C$DW$23, DW_AT_type(*$C$DW$T$10)
     144                            .dwendtag $C$DW$19
     145                    
     146                    
     147                    $C$DW$24        .dwtag  DW_TAG_subprogram, DW_AT_name("VLIB_formula_add_test")
     148                            .dwattr $C$DW$24, DW_AT_TI_symbol_name("VLIB_formula_add_test")
     149                            .dwattr $C$DW$24, DW_AT_declaration
     150                            .dwattr $C$DW$24, DW_AT_external
     151                            .dwattr $C$DW$24, DW_AT_decl_file(".\..\packages\ti\vlib\src\VLIB_convertUYVYint_to_YUV422pl\.
     152                            .dwattr $C$DW$24, DW_AT_decl_line(0x7d)
     153                            .dwattr $C$DW$24, DW_AT_decl_column(0x06)
     154                    $C$DW$25        .dwtag  DW_TAG_formal_parameter
     155                            .dwattr $C$DW$25, DW_AT_type(*$C$DW$T$10)
     156                    $C$DW$26        .dwtag  DW_TAG_formal_parameter
     157                            .dwattr $C$DW$26, DW_AT_type(*$C$DW$T$10)
     158                    $C$DW$27        .dwtag  DW_TAG_formal_parameter
     159                            .dwattr $C$DW$27, DW_AT_type(*$C$DW$T$10)
     160                    $C$DW$28        .dwtag  DW_TAG_formal_parameter
     161                            .dwattr $C$DW$28, DW_AT_type(*$C$DW$T$10)
     162                    $C$DW$29        .dwtag  DW_TAG_formal_parameter
     163                            .dwattr $C$DW$29, DW_AT_type(*$C$DW$T$59)
     164                    $C$DW$30        .dwtag  DW_TAG_formal_parameter
     165                            .dwattr $C$DW$30, DW_AT_type(*$C$DW$T$10)
TMS320C6x Assembler PC v7.4.2 Thu Mar 19 12:40:30 2015

Tools Copyright (c) 1996-2012 Texas Instruments Incorporated
package/lib/Regression/regress_d_c/./../packages/ti/vlib/src/VLIB_convertUYVYint_to_YUV422pl/VLIB_convertUYVYint_to_YUV422pl_d.se66 PAGE    4

     166                            .dwendtag $C$DW$24
     167                    
     168                    
     169                    $C$DW$31        .dwtag  DW_TAG_subprogram, DW_AT_name("VLIB_skip_test")
     170                            .dwattr $C$DW$31, DW_AT_TI_symbol_name("VLIB_skip_test")
     171                            .dwattr $C$DW$31, DW_AT_declaration
     172                            .dwattr $C$DW$31, DW_AT_external
     173                            .dwattr $C$DW$31, DW_AT_decl_file(".\..\packages\ti\vlib\src\VLIB_convertUYVYint_to_YUV422pl\.
     174                            .dwattr $C$DW$31, DW_AT_decl_line(0x7e)
     175                            .dwattr $C$DW$31, DW_AT_decl_column(0x06)
     176                    $C$DW$32        .dwtag  DW_TAG_formal_parameter
     177                            .dwattr $C$DW$32, DW_AT_type(*$C$DW$T$59)
     178                            .dwendtag $C$DW$31
     179                    
     180                    
     181                    $C$DW$33        .dwtag  DW_TAG_subprogram, DW_AT_name("VLIB_profile_cycle_report")
     182                            .dwattr $C$DW$33, DW_AT_TI_symbol_name("VLIB_profile_cycle_report")
     183                            .dwattr $C$DW$33, DW_AT_declaration
     184                            .dwattr $C$DW$33, DW_AT_external
     185                            .dwattr $C$DW$33, DW_AT_decl_file(".\..\packages\ti\vlib\src\VLIB_convertUYVYint_to_YUV422pl\.
     186                            .dwattr $C$DW$33, DW_AT_decl_line(0x7f)
     187                            .dwattr $C$DW$33, DW_AT_decl_column(0x06)
     188                    $C$DW$34        .dwtag  DW_TAG_formal_parameter
     189                            .dwattr $C$DW$34, DW_AT_type(*$C$DW$T$10)
     190                    $C$DW$35        .dwtag  DW_TAG_formal_parameter
     191                            .dwattr $C$DW$35, DW_AT_type(*$C$DW$T$59)
     192                    $C$DW$36        .dwtag  DW_TAG_formal_parameter
     193                            .dwattr $C$DW$36, DW_AT_type(*$C$DW$T$59)
     194                            .dwendtag $C$DW$33
     195                    
     196                    
     197                    $C$DW$37        .dwtag  DW_TAG_subprogram, DW_AT_name("initStack")
     198                            .dwattr $C$DW$37, DW_AT_TI_symbol_name("initStack")
     199                            .dwattr $C$DW$37, DW_AT_declaration
     200                            .dwattr $C$DW$37, DW_AT_external
     201                            .dwattr $C$DW$37, DW_AT_decl_file(".\..\packages\ti\vlib\src\VLIB_convertUYVYint_to_YUV422pl\.
     202                            .dwattr $C$DW$37, DW_AT_decl_line(0x80)
     203                            .dwattr $C$DW$37, DW_AT_decl_column(0x06)
     204                    $C$DW$38        .dwtag  DW_TAG_formal_parameter
     205                            .dwattr $C$DW$38, DW_AT_type(*$C$DW$T$21)
     206                            .dwendtag $C$DW$37
     207                    
     208                    
     209                    $C$DW$39        .dwtag  DW_TAG_subprogram, DW_AT_name("setStackDepth")
     210                            .dwattr $C$DW$39, DW_AT_TI_symbol_name("setStackDepth")
     211                            .dwattr $C$DW$39, DW_AT_declaration
     212                            .dwattr $C$DW$39, DW_AT_external
     213                            .dwattr $C$DW$39, DW_AT_decl_file(".\..\packages\ti\vlib\src\VLIB_convertUYVYint_to_YUV422pl\.
     214                            .dwattr $C$DW$39, DW_AT_decl_line(0x81)
     215                            .dwattr $C$DW$39, DW_AT_decl_column(0x06)
     216                    
     217                    $C$DW$40        .dwtag  DW_TAG_subprogram, DW_AT_name("getSP")
     218                            .dwattr $C$DW$40, DW_AT_TI_symbol_name("getSP")
     219                            .dwattr $C$DW$40, DW_AT_type(*$C$DW$T$21)
     220                            .dwattr $C$DW$40, DW_AT_declaration
TMS320C6x Assembler PC v7.4.2 Thu Mar 19 12:40:30 2015

Tools Copyright (c) 1996-2012 Texas Instruments Incorporated
package/lib/Regression/regress_d_c/./../packages/ti/vlib/src/VLIB_convertUYVYint_to_YUV422pl/VLIB_convertUYVYint_to_YUV422pl_d.se66 PAGE    5

     221                            .dwattr $C$DW$40, DW_AT_external
     222                            .dwattr $C$DW$40, DW_AT_decl_file(".\..\packages\ti\vlib\src\VLIB_convertUYVYint_to_YUV422pl\.
     223                            .dwattr $C$DW$40, DW_AT_decl_line(0x82)
     224                            .dwattr $C$DW$40, DW_AT_decl_column(0x0a)
     225                    
     226                    $C$DW$41        .dwtag  DW_TAG_subprogram, DW_AT_name("VLIB_stack_memory")
     227                            .dwattr $C$DW$41, DW_AT_TI_symbol_name("VLIB_stack_memory")
     228                            .dwattr $C$DW$41, DW_AT_declaration
     229                            .dwattr $C$DW$41, DW_AT_external
     230                            .dwattr $C$DW$41, DW_AT_decl_file(".\..\packages\ti\vlib\src\VLIB_convertUYVYint_to_YUV422pl\.
     231                            .dwattr $C$DW$41, DW_AT_decl_line(0x83)
     232                            .dwattr $C$DW$41, DW_AT_decl_column(0x06)
     233                    
     234                    $C$DW$42        .dwtag  DW_TAG_subprogram, DW_AT_name("VLIB_compare_mem")
     235                            .dwattr $C$DW$42, DW_AT_TI_symbol_name("VLIB_compare_mem")
     236                            .dwattr $C$DW$42, DW_AT_type(*$C$DW$T$22)
     237                            .dwattr $C$DW$42, DW_AT_declaration
     238                            .dwattr $C$DW$42, DW_AT_external
     239                            .dwattr $C$DW$42, DW_AT_decl_file(".\..\packages\ti\vlib\src\VLIB_convertUYVYint_to_YUV422pl\.
     240                            .dwattr $C$DW$42, DW_AT_decl_line(0x6f)
     241                            .dwattr $C$DW$42, DW_AT_decl_column(0x11)
     242                    $C$DW$43        .dwtag  DW_TAG_formal_parameter
     243                            .dwattr $C$DW$43, DW_AT_type(*$C$DW$T$51)
     244                    $C$DW$44        .dwtag  DW_TAG_formal_parameter
     245                            .dwattr $C$DW$44, DW_AT_type(*$C$DW$T$51)
     246                    $C$DW$45        .dwtag  DW_TAG_formal_parameter
     247                            .dwattr $C$DW$45, DW_AT_type(*$C$DW$T$22)
     248                            .dwendtag $C$DW$42
     249                    
     250                    
     251                    $C$DW$46        .dwtag  DW_TAG_subprogram, DW_AT_name("VLIB_fillBuffer")
     252                            .dwattr $C$DW$46, DW_AT_TI_symbol_name("VLIB_fillBuffer")
     253                            .dwattr $C$DW$46, DW_AT_declaration
     254                            .dwattr $C$DW$46, DW_AT_external
     255                            .dwattr $C$DW$46, DW_AT_decl_file(".\..\packages\ti\vlib\src\VLIB_convertUYVYint_to_YUV422pl\.
     256                            .dwattr $C$DW$46, DW_AT_decl_line(0x77)
     257                            .dwattr $C$DW$46, DW_AT_decl_column(0x06)
     258                    $C$DW$47        .dwtag  DW_TAG_formal_parameter
     259                            .dwattr $C$DW$47, DW_AT_type(*$C$DW$T$19)
     260                    $C$DW$48        .dwtag  DW_TAG_formal_parameter
     261                            .dwattr $C$DW$48, DW_AT_type(*$C$DW$T$19)
     262                    $C$DW$49        .dwtag  DW_TAG_formal_parameter
     263                            .dwattr $C$DW$49, DW_AT_type(*$C$DW$T$3)
     264                    $C$DW$50        .dwtag  DW_TAG_formal_parameter
     265                            .dwattr $C$DW$50, DW_AT_type(*$C$DW$T$3)
     266                    $C$DW$51        .dwtag  DW_TAG_formal_parameter
     267                            .dwattr $C$DW$51, DW_AT_type(*$C$DW$T$75)
     268                    $C$DW$52        .dwtag  DW_TAG_formal_parameter
     269                            .dwattr $C$DW$52, DW_AT_type(*$C$DW$T$75)
     270                    $C$DW$53        .dwtag  DW_TAG_formal_parameter
     271                            .dwattr $C$DW$53, DW_AT_type(*$C$DW$T$75)
     272                    $C$DW$54        .dwtag  DW_TAG_formal_parameter
     273                            .dwattr $C$DW$54, DW_AT_type(*$C$DW$T$19)
     274                    $C$DW$55        .dwtag  DW_TAG_formal_parameter
     275                            .dwattr $C$DW$55, DW_AT_type(*$C$DW$T$59)
TMS320C6x Assembler PC v7.4.2 Thu Mar 19 12:40:30 2015

Tools Copyright (c) 1996-2012 Texas Instruments Incorporated
package/lib/Regression/regress_d_c/./../packages/ti/vlib/src/VLIB_convertUYVYint_to_YUV422pl/VLIB_convertUYVYint_to_YUV422pl_d.se66 PAGE    6

     276                            .dwendtag $C$DW$46
     277                    
     278                    
     279                    $C$DW$56        .dwtag  DW_TAG_subprogram, DW_AT_name("VLIB_memalign")
     280                            .dwattr $C$DW$56, DW_AT_TI_symbol_name("VLIB_memalign")
     281                            .dwattr $C$DW$56, DW_AT_type(*$C$DW$T$3)
     282                            .dwattr $C$DW$56, DW_AT_declaration
     283                            .dwattr $C$DW$56, DW_AT_external
     284                            .dwattr $C$DW$56, DW_AT_decl_file(".\..\packages\ti\vlib\src\VLIB_convertUYVYint_to_YUV422pl\.
     285                            .dwattr $C$DW$56, DW_AT_decl_line(0xae)
     286                            .dwattr $C$DW$56, DW_AT_decl_column(0x07)
     287                    $C$DW$57        .dwtag  DW_TAG_formal_parameter
     288                            .dwattr $C$DW$57, DW_AT_type(*$C$DW$T$52)
     289                    $C$DW$58        .dwtag  DW_TAG_formal_parameter
     290                            .dwattr $C$DW$58, DW_AT_type(*$C$DW$T$52)
     291                            .dwendtag $C$DW$56
     292                    
     293                    
     294                    $C$DW$59        .dwtag  DW_TAG_subprogram, DW_AT_name("VLIB_align_free")
     295                            .dwattr $C$DW$59, DW_AT_TI_symbol_name("VLIB_align_free")
     296                            .dwattr $C$DW$59, DW_AT_declaration
     297                            .dwattr $C$DW$59, DW_AT_external
     298                            .dwattr $C$DW$59, DW_AT_decl_file(".\..\packages\ti\vlib\src\VLIB_convertUYVYint_to_YUV422pl\.
     299                            .dwattr $C$DW$59, DW_AT_decl_line(0xb3)
     300                            .dwattr $C$DW$59, DW_AT_decl_column(0x07)
     301                    $C$DW$60        .dwtag  DW_TAG_formal_parameter
     302                            .dwattr $C$DW$60, DW_AT_type(*$C$DW$T$3)
     303                            .dwendtag $C$DW$59
     304                    
     305                    
     306                    $C$DW$61        .dwtag  DW_TAG_subprogram, DW_AT_name("VLIB_convertUYVYint_to_YUV422pl")
     307                            .dwattr $C$DW$61, DW_AT_TI_symbol_name("VLIB_convertUYVYint_to_YUV422pl")
     308                            .dwattr $C$DW$61, DW_AT_type(*$C$DW$T$22)
     309                            .dwattr $C$DW$61, DW_AT_declaration
     310                            .dwattr $C$DW$61, DW_AT_external
     311                            .dwattr $C$DW$61, DW_AT_decl_file(".\..\packages\ti\vlib\src\VLIB_convertUYVYint_to_YUV422pl\c
     312                            .dwattr $C$DW$61, DW_AT_decl_line(0x7e)
     313                            .dwattr $C$DW$61, DW_AT_decl_column(0x09)
     314                    $C$DW$62        .dwtag  DW_TAG_formal_parameter
     315                            .dwattr $C$DW$62, DW_AT_type(*$C$DW$T$96)
     316                    $C$DW$63        .dwtag  DW_TAG_formal_parameter
     317                            .dwattr $C$DW$63, DW_AT_type(*$C$DW$T$21)
     318                    $C$DW$64        .dwtag  DW_TAG_formal_parameter
     319                            .dwattr $C$DW$64, DW_AT_type(*$C$DW$T$22)
     320                    $C$DW$65        .dwtag  DW_TAG_formal_parameter
     321                            .dwattr $C$DW$65, DW_AT_type(*$C$DW$T$21)
     322                    $C$DW$66        .dwtag  DW_TAG_formal_parameter
     323                            .dwattr $C$DW$66, DW_AT_type(*$C$DW$T$94)
     324                    $C$DW$67        .dwtag  DW_TAG_formal_parameter
     325                            .dwattr $C$DW$67, DW_AT_type(*$C$DW$T$94)
     326                    $C$DW$68        .dwtag  DW_TAG_formal_parameter
     327                            .dwattr $C$DW$68, DW_AT_type(*$C$DW$T$94)
     328                            .dwendtag $C$DW$61
     329                    
     330                    
TMS320C6x Assembler PC v7.4.2 Thu Mar 19 12:40:30 2015

Tools Copyright (c) 1996-2012 Texas Instruments Incorporated
package/lib/Regression/regress_d_c/./../packages/ti/vlib/src/VLIB_convertUYVYint_to_YUV422pl/VLIB_convertUYVYint_to_YUV422pl_d.se66 PAGE    7

     331                    $C$DW$69        .dwtag  DW_TAG_subprogram, DW_AT_name("VLIB_convertUYVYint_to_YUV422pl_cn")
     332                            .dwattr $C$DW$69, DW_AT_TI_symbol_name("VLIB_convertUYVYint_to_YUV422pl_cn")
     333                            .dwattr $C$DW$69, DW_AT_type(*$C$DW$T$22)
     334                            .dwattr $C$DW$69, DW_AT_declaration
     335                            .dwattr $C$DW$69, DW_AT_external
     336                            .dwattr $C$DW$69, DW_AT_decl_file(".\..\packages\ti\vlib\src\VLIB_convertUYVYint_to_YUV422pl\V
     337                            .dwattr $C$DW$69, DW_AT_decl_line(0x20)
     338                            .dwattr $C$DW$69, DW_AT_decl_column(0x09)
     339                    $C$DW$70        .dwtag  DW_TAG_formal_parameter
     340                            .dwattr $C$DW$70, DW_AT_type(*$C$DW$T$96)
     341                    $C$DW$71        .dwtag  DW_TAG_formal_parameter
     342                            .dwattr $C$DW$71, DW_AT_type(*$C$DW$T$21)
     343                    $C$DW$72        .dwtag  DW_TAG_formal_parameter
     344                            .dwattr $C$DW$72, DW_AT_type(*$C$DW$T$22)
     345                    $C$DW$73        .dwtag  DW_TAG_formal_parameter
     346                            .dwattr $C$DW$73, DW_AT_type(*$C$DW$T$21)
     347                    $C$DW$74        .dwtag  DW_TAG_formal_parameter
     348                            .dwattr $C$DW$74, DW_AT_type(*$C$DW$T$94)
     349                    $C$DW$75        .dwtag  DW_TAG_formal_parameter
     350                            .dwattr $C$DW$75, DW_AT_type(*$C$DW$T$94)
     351                    $C$DW$76        .dwtag  DW_TAG_formal_parameter
     352                            .dwattr $C$DW$76, DW_AT_type(*$C$DW$T$94)
     353                            .dwendtag $C$DW$69
     354                    
     355                    
     356                    $C$DW$77        .dwtag  DW_TAG_subprogram, DW_AT_name("UYVYint_to_YUV422pl_getTestParams")
     357                            .dwattr $C$DW$77, DW_AT_TI_symbol_name("UYVYint_to_YUV422pl_getTestParams")
     358                            .dwattr $C$DW$77, DW_AT_declaration
     359                            .dwattr $C$DW$77, DW_AT_external
     360                            .dwattr $C$DW$77, DW_AT_decl_file(".\..\packages\ti\vlib\src\VLIB_convertUYVYint_to_YUV422pl\V
     361                            .dwattr $C$DW$77, DW_AT_decl_line(0x2e)
     362                            .dwattr $C$DW$77, DW_AT_decl_column(0x06)
     363                    $C$DW$78        .dwtag  DW_TAG_formal_parameter
     364                            .dwattr $C$DW$78, DW_AT_type(*$C$DW$T$42)
     365                    $C$DW$79        .dwtag  DW_TAG_formal_parameter
     366                            .dwattr $C$DW$79, DW_AT_type(*$C$DW$T$78)
     367                            .dwendtag $C$DW$77
     368                    
     369                    $C$DW$80        .dwtag  DW_TAG_variable, DW_AT_name("test_cases")
     370                            .dwattr $C$DW$80, DW_AT_TI_symbol_name("test_cases")
     371                            .dwattr $C$DW$80, DW_AT_type(*$C$DW$T$22)
     372                            .dwattr $C$DW$80, DW_AT_declaration
     373                            .dwattr $C$DW$80, DW_AT_external
     374                            .dwattr $C$DW$80, DW_AT_decl_file(".\..\packages\ti\vlib\src\VLIB_convertUYVYint_to_YUV422pl\.
     375                            .dwattr $C$DW$80, DW_AT_decl_line(0x60)
     376                            .dwattr $C$DW$80, DW_AT_decl_column(0x13)
     377                    $C$DW$81        .dwtag  DW_TAG_variable, DW_AT_name("act_kernel")
     378                            .dwattr $C$DW$81, DW_AT_TI_symbol_name("act_kernel")
     379                            .dwattr $C$DW$81, DW_AT_type(*$C$DW$T$10)
     380                            .dwattr $C$DW$81, DW_AT_declaration
     381                            .dwattr $C$DW$81, DW_AT_external
     382                            .dwattr $C$DW$81, DW_AT_decl_file(".\..\packages\ti\vlib\src\VLIB_convertUYVYint_to_YUV422pl\.
     383                            .dwattr $C$DW$81, DW_AT_decl_line(0x62)
     384                            .dwattr $C$DW$81, DW_AT_decl_column(0x13)
     385                    $C$DW$82        .dwtag  DW_TAG_variable, DW_AT_name("desc")
TMS320C6x Assembler PC v7.4.2 Thu Mar 19 12:40:30 2015

Tools Copyright (c) 1996-2012 Texas Instruments Incorporated
package/lib/Regression/regress_d_c/./../packages/ti/vlib/src/VLIB_convertUYVYint_to_YUV422pl/VLIB_convertUYVYint_to_YUV422pl_d.se66 PAGE    8

     386                            .dwattr $C$DW$82, DW_AT_TI_symbol_name("desc")
     387                            .dwattr $C$DW$82, DW_AT_type(*$C$DW$T$159)
     388                            .dwattr $C$DW$82, DW_AT_declaration
     389                            .dwattr $C$DW$82, DW_AT_external
     390                            .dwattr $C$DW$82, DW_AT_decl_file(".\..\packages\ti\vlib\src\VLIB_convertUYVYint_to_YUV422pl\.
     391                            .dwattr $C$DW$82, DW_AT_decl_line(0x63)
     392                            .dwattr $C$DW$82, DW_AT_decl_column(0x13)
     393                    $C$DW$83        .dwtag  DW_TAG_variable, DW_AT_name("testPatternString")
     394                            .dwattr $C$DW$83, DW_AT_TI_symbol_name("testPatternString")
     395                            .dwattr $C$DW$83, DW_AT_type(*$C$DW$T$159)
     396                            .dwattr $C$DW$83, DW_AT_declaration
     397                            .dwattr $C$DW$83, DW_AT_external
     398                            .dwattr $C$DW$83, DW_AT_decl_file(".\..\packages\ti\vlib\src\VLIB_convertUYVYint_to_YUV422pl\.
     399                            .dwattr $C$DW$83, DW_AT_decl_line(0x64)
     400                            .dwattr $C$DW$83, DW_AT_decl_column(0x13)
     401                    $C$DW$84        .dwtag  DW_TAG_variable, DW_AT_name("est_test")
     402                            .dwattr $C$DW$84, DW_AT_TI_symbol_name("est_test")
     403                            .dwattr $C$DW$84, DW_AT_type(*$C$DW$T$10)
     404                            .dwattr $C$DW$84, DW_AT_declaration
     405                            .dwattr $C$DW$84, DW_AT_external
     406                            .dwattr $C$DW$84, DW_AT_decl_file(".\..\packages\ti\vlib\src\VLIB_convertUYVYint_to_YUV422pl\.
     407                            .dwattr $C$DW$84, DW_AT_decl_line(0x75)
     408                            .dwattr $C$DW$84, DW_AT_decl_column(0x14)
     409                    $C$DW$85        .dwtag  DW_TAG_variable, DW_AT_name("beg_count")
     410                            .dwattr $C$DW$85, DW_AT_TI_symbol_name("beg_count")
     411                            .dwattr $C$DW$85, DW_AT_type(*$C$DW$T$149)
     412                            .dwattr $C$DW$85, DW_AT_declaration
     413                            .dwattr $C$DW$85, DW_AT_external
     414                            .dwattr $C$DW$85, DW_AT_decl_file(".\..\packages\ti\vlib\src\VLIB_convertUYVYint_to_YUV422pl\.
     415                            .dwattr $C$DW$85, DW_AT_decl_line(0x76)
     416                            .dwattr $C$DW$85, DW_AT_decl_column(0x14)
     417                    $C$DW$86        .dwtag  DW_TAG_variable, DW_AT_name("end_count")
     418                            .dwattr $C$DW$86, DW_AT_TI_symbol_name("end_count")
     419                            .dwattr $C$DW$86, DW_AT_type(*$C$DW$T$149)
     420                            .dwattr $C$DW$86, DW_AT_declaration
     421                            .dwattr $C$DW$86, DW_AT_external
     422                            .dwattr $C$DW$86, DW_AT_decl_file(".\..\packages\ti\vlib\src\VLIB_convertUYVYint_to_YUV422pl\.
     423                            .dwattr $C$DW$86, DW_AT_decl_line(0x77)
     424                            .dwattr $C$DW$86, DW_AT_decl_column(0x14)
     425                    $C$DW$87        .dwtag  DW_TAG_variable, DW_AT_name("overhead")
     426                            .dwattr $C$DW$87, DW_AT_TI_symbol_name("overhead")
     427                            .dwattr $C$DW$87, DW_AT_type(*$C$DW$T$149)
     428                            .dwattr $C$DW$87, DW_AT_declaration
     429                            .dwattr $C$DW$87, DW_AT_external
     430                            .dwattr $C$DW$87, DW_AT_decl_file(".\..\packages\ti\vlib\src\VLIB_convertUYVYint_to_YUV422pl\.
     431                            .dwattr $C$DW$87, DW_AT_decl_line(0x78)
     432                            .dwattr $C$DW$87, DW_AT_decl_column(0x14)
     433                    $C$DW$88        .dwtag  DW_TAG_variable, DW_AT_name("cycles")
     434                            .dwattr $C$DW$88, DW_AT_TI_symbol_name("cycles")
     435                            .dwattr $C$DW$88, DW_AT_type(*$C$DW$T$150)
     436                            .dwattr $C$DW$88, DW_AT_declaration
     437                            .dwattr $C$DW$88, DW_AT_external
     438                            .dwattr $C$DW$88, DW_AT_decl_file(".\..\packages\ti\vlib\src\VLIB_convertUYVYint_to_YUV422pl\.
     439                            .dwattr $C$DW$88, DW_AT_decl_line(0x79)
     440                            .dwattr $C$DW$88, DW_AT_decl_column(0x14)
TMS320C6x Assembler PC v7.4.2 Thu Mar 19 12:40:30 2015

Tools Copyright (c) 1996-2012 Texas Instruments Incorporated
package/lib/Regression/regress_d_c/./../packages/ti/vlib/src/VLIB_convertUYVYint_to_YUV422pl/VLIB_convertUYVYint_to_YUV422pl_d.se66 PAGE    9

     441                    ;       C:\VLIB_Tools\CCSV5_4_0\ccsv5\tools\compiler\C6000\bin\opt6x.exe C:\\Users\\gtbldadm\\AppData\
     442 00000000                   .sect   ".text"
     443                            .clink
     444                            .global VLIB_convertUYVYint_to_YUV422pl_d
     445                    
     446                    $C$DW$89        .dwtag  DW_TAG_subprogram, DW_AT_name("VLIB_convertUYVYint_to_YUV422pl_d")
     447                            .dwattr $C$DW$89, DW_AT_low_pc(VLIB_convertUYVYint_to_YUV422pl_d)
     448                            .dwattr $C$DW$89, DW_AT_high_pc(0x00)
     449                            .dwattr $C$DW$89, DW_AT_TI_symbol_name("VLIB_convertUYVYint_to_YUV422pl_d")
     450                            .dwattr $C$DW$89, DW_AT_external
     451                            .dwattr $C$DW$89, DW_AT_TI_begin_file("./../packages/ti/vlib/src/VLIB_convertUYVYint_to_YUV422
     452                            .dwattr $C$DW$89, DW_AT_TI_begin_line(0x26)
     453                            .dwattr $C$DW$89, DW_AT_TI_begin_column(0x06)
     454                            .dwattr $C$DW$89, DW_AT_decl_file("./../packages/ti/vlib/src/VLIB_convertUYVYint_to_YUV422pl/V
     455                            .dwattr $C$DW$89, DW_AT_decl_line(0x26)
     456                            .dwattr $C$DW$89, DW_AT_decl_column(0x06)
     457                            .dwattr $C$DW$89, DW_AT_TI_max_frame_size(0x70)
     458                            .dwpsn  file "./../packages/ti/vlib/src/VLIB_convertUYVYint_to_YUV422pl/VLIB_convertUYVYint_to
     459                    
     460                            .dwfde $C$DW$CIE, VLIB_convertUYVYint_to_YUV422pl_d
     461                    $C$DW$90        .dwtag  DW_TAG_formal_parameter, DW_AT_name("LevelOfFeedback")
     462                            .dwattr $C$DW$90, DW_AT_TI_symbol_name("LevelOfFeedback")
     463                            .dwattr $C$DW$90, DW_AT_type(*$C$DW$T$19)
     464                            .dwattr $C$DW$90, DW_AT_location[DW_OP_reg4]
     465                    ;----------------------------------------------------------------------
     466                    ;  38 | void VLIB_convertUYVYint_to_YUV422pl_d (uint8_t LevelOfFeedback)       
     467                    ;----------------------------------------------------------------------
     468                    
     469                    ;******************************************************************************
     470                    ;* FUNCTION NAME: VLIB_convertUYVYint_to_YUV422pl_d                           *
     471                    ;*                                                                            *
     472                    ;*   Regs Modified     : A0,A1,A2,A3,A4,A5,A6,A7,A8,A9,A10,A11,A12,A13,A14,   *
     473                    ;*                           A15,B0,B1,B2,B3,B4,B5,B6,B7,B8,B9,B10,B11,B12,   *
     474                    ;*                           B13,SP,A16,A17,A18,A19,A20,A21,A22,A23,A24,A25,  *
     475                    ;*                           A26,A27,A28,A29,A30,A31,B16,B17,B18,B19,B20,B21, *
     476                    ;*                           B22,B23,B24,B25,B26,B27,B28,B29,B30,B31          *
     477                    ;*   Regs Used         : A0,A1,A2,A3,A4,A5,A6,A7,A8,A9,A10,A11,A12,A13,A14,   *
     478                    ;*                           A15,B0,B1,B2,B3,B4,B5,B6,B7,B8,B9,B10,B11,B12,   *
     479                    ;*                           B13,DP,SP,A16,A17,A18,A19,A20,A21,A22,A23,A24,   *
     480                    ;*                           A25,A26,A27,A28,A29,A30,A31,B16,B17,B18,B19,B20, *
     481                    ;*                           B21,B22,B23,B24,B25,B26,B27,B28,B29,B30,B31      *
     482                    ;*   Local Frame Size  : 24 Args + 32 Auto + 56 Save = 112 byte               *
     483                    ;******************************************************************************
     484                    
     485                    ;******************************************************************************
     486                    ;*                                                                            *
     487                    ;* Using -g (debug) with optimization (-o3) may disable key optimizations!    *
     488                    ;*                                                                            *
     489                    ;******************************************************************************
     490 00000000           VLIB_convertUYVYint_to_YUV422pl_d:
     491                    ;** --------------------------------------------------------------------------*
     492                    ;          EXCLUSIVE CPU CYCLES: 16
     493                    ;** 45  -----------------------    UYVYint_to_YUV422pl_getTestParams(&prm, &test_cases);
     494                    ;** 48  -----------------------    VLIB_profile_init(3, "VLIB_convertUYVYint_to_YUV422pl");
     495                    ;** 51  -----------------------    if ( test_cases <= 0 ) goto g18;
TMS320C6x Assembler PC v7.4.2 Thu Mar 19 12:40:30 2015

Tools Copyright (c) 1996-2012 Texas Instruments Incorporated
package/lib/Regression/regress_d_c/./../packages/ti/vlib/src/VLIB_convertUYVYint_to_YUV422pl/VLIB_convertUYVYint_to_YUV422pl_d.se66 PAGE   10

     496                            .dwcfi  cfa_offset, 0
     497                    ;----------------------------------------------------------------------
     498                    ;  40 | int32_t    tpi;  /* test parameter index */                            
     499                    ;  43 | UYVYint_to_YUV422pl_testParams_t   *prm;                               
     500                    ;----------------------------------------------------------------------
     501 00000000     25f7             STW     .D2T1   A11,*SP--(8)      ; |39| 
     502                            .dwcfi  cfa_offset, 8
     503                            .dwcfi  save_reg_to_mem, 11, 0
     504 00000002     2577             STW     .D2T1   A10,*SP--(8)      ; |39| 
     505                            .dwcfi  cfa_offset, 16
     506                            .dwcfi  save_reg_to_mem, 10, -8
     507 00000004     9677             STDW    .D2T2   B13:B12,*SP--     ; |39| 
     508                            .dwcfi  cfa_offset, 24
     509                            .dwcfi  save_reg_to_mem, 29, -12
     510                            .dwcfi  save_reg_to_mem, 28, -16
     511 00000006     9577             STDW    .D2T2   B11:B10,*SP--     ; |39| 
     512                            .dwcfi  cfa_offset, 32
     513                            .dwcfi  save_reg_to_mem, 27, -20
     514                            .dwcfi  save_reg_to_mem, 26, -24
     515 00000008     8777             STDW    .D2T1   A15:A14,*SP--     ; |39| 
     516                            .dwcfi  cfa_offset, 40
     517                            .dwcfi  save_reg_to_mem, 15, -28
     518                            .dwcfi  save_reg_to_mem, 14, -32
     519 0000000a     8677             STDW    .D2T1   A13:A12,*SP--     ; |39| 
     520                            .dwcfi  cfa_offset, 48
     521                            .dwcfi  save_reg_to_mem, 13, -36
     522                            .dwcfi  save_reg_to_mem, 12, -40
     523 0000000c 01be14f6             STW     .D2T2   B3,*SP--(64)      ; |39| 
     524                            .dwcfi  cfa_offset, 112
     525                            .dwcfi  save_reg_to_mem, 19, 0
     526                    $C$DW$91        .dwtag  DW_TAG_variable, DW_AT_name("$O$C1")
     527                            .dwattr $C$DW$91, DW_AT_TI_symbol_name("$O$C1")
     528                            .dwattr $C$DW$91, DW_AT_type(*$C$DW$T$82)
     529                            .dwattr $C$DW$91, DW_AT_location[DW_OP_reg10]
     530                    $C$DW$92        .dwtag  DW_TAG_variable, DW_AT_name("$O$C2")
     531                            .dwattr $C$DW$92, DW_AT_TI_symbol_name("$O$C2")
     532                            .dwattr $C$DW$92, DW_AT_type(*$C$DW$T$43)
     533                            .dwattr $C$DW$92, DW_AT_location[DW_OP_reg21]
     534                    $C$DW$93        .dwtag  DW_TAG_variable, DW_AT_name("$O$C3")
     535                            .dwattr $C$DW$93, DW_AT_TI_symbol_name("$O$C3")
     536                            .dwattr $C$DW$93, DW_AT_type(*$C$DW$T$24)
     537                            .dwattr $C$DW$93, DW_AT_location[DW_OP_reg0]
     538                    $C$DW$94        .dwtag  DW_TAG_variable, DW_AT_name("$O$C4")
     539                            .dwattr $C$DW$94, DW_AT_TI_symbol_name("$O$C4")
     540                            .dwattr $C$DW$94, DW_AT_type(*$C$DW$T$10)
     541                            .dwattr $C$DW$94, DW_AT_location[DW_OP_reg3]
     542                    $C$DW$95        .dwtag  DW_TAG_variable, DW_AT_name("$O$C5")
     543                            .dwattr $C$DW$95, DW_AT_TI_symbol_name("$O$C5")
     544                            .dwattr $C$DW$95, DW_AT_type(*$C$DW$T$10)
     545                            .dwattr $C$DW$95, DW_AT_location[DW_OP_reg3]
     546                    $C$DW$96        .dwtag  DW_TAG_variable, DW_AT_name("$O$C6")
     547                            .dwattr $C$DW$96, DW_AT_TI_symbol_name("$O$C6")
     548                            .dwattr $C$DW$96, DW_AT_type(*$C$DW$T$11)
     549                            .dwattr $C$DW$96, DW_AT_location[DW_OP_reg10]
     550                    $C$DW$97        .dwtag  DW_TAG_variable, DW_AT_name("$O$U12")
TMS320C6x Assembler PC v7.4.2 Thu Mar 19 12:40:30 2015

Tools Copyright (c) 1996-2012 Texas Instruments Incorporated
package/lib/Regression/regress_d_c/./../packages/ti/vlib/src/VLIB_convertUYVYint_to_YUV422pl/VLIB_convertUYVYint_to_YUV422pl_d.se66 PAGE   11

     551                            .dwattr $C$DW$97, DW_AT_TI_symbol_name("$O$U12")
     552                            .dwattr $C$DW$97, DW_AT_type(*$C$DW$T$43)
     553                            .dwattr $C$DW$97, DW_AT_location[DW_OP_reg11]
     554                    $C$DW$98        .dwtag  DW_TAG_variable, DW_AT_name("$O$K50")
     555                            .dwattr $C$DW$98, DW_AT_TI_symbol_name("$O$K50")
     556                            .dwattr $C$DW$98, DW_AT_type(*$C$DW$T$82)
     557                            .dwattr $C$DW$98, DW_AT_location[DW_OP_reg12]
     558                    $C$DW$99        .dwtag  DW_TAG_variable, DW_AT_name("$O$K57")
     559                            .dwattr $C$DW$99, DW_AT_TI_symbol_name("$O$K57")
     560                            .dwattr $C$DW$99, DW_AT_type(*$C$DW$T$10)
     561                            .dwattr $C$DW$99, DW_AT_location[DW_OP_reg3]
     562                    $C$DW$100       .dwtag  DW_TAG_variable, DW_AT_name("$O$K65")
     563                            .dwattr $C$DW$100, DW_AT_TI_symbol_name("$O$K65")
     564                            .dwattr $C$DW$100, DW_AT_type(*$C$DW$T$148)
     565                            .dwattr $C$DW$100, DW_AT_location[DW_OP_reg6]
     566                    $C$DW$101       .dwtag  DW_TAG_variable, DW_AT_name("$O$U73")
     567                            .dwattr $C$DW$101, DW_AT_TI_symbol_name("$O$U73")
     568                            .dwattr $C$DW$101, DW_AT_type(*$C$DW$T$10)
     569                            .dwattr $C$DW$101, DW_AT_location[DW_OP_reg14]
     570                    $C$DW$102       .dwtag  DW_TAG_variable, DW_AT_name("$O$U11")
     571                            .dwattr $C$DW$102, DW_AT_TI_symbol_name("$O$U11")
     572                            .dwattr $C$DW$102, DW_AT_type(*$C$DW$T$10)
     573                            .dwattr $C$DW$102, DW_AT_location[DW_OP_reg27]
     574                    $C$DW$103       .dwtag  DW_TAG_variable, DW_AT_name("$O$K99")
     575                            .dwattr $C$DW$103, DW_AT_TI_symbol_name("$O$K99")
     576                            .dwattr $C$DW$103, DW_AT_type(*$C$DW$T$82)
     577                            .dwattr $C$DW$103, DW_AT_location[DW_OP_reg8]
     578                    $C$DW$104       .dwtag  DW_TAG_variable, DW_AT_name("tpi")
     579                            .dwattr $C$DW$104, DW_AT_TI_symbol_name("tpi")
     580                            .dwattr $C$DW$104, DW_AT_type(*$C$DW$T$22)
     581                            .dwattr $C$DW$104, DW_AT_location[DW_OP_reg15]
     582                    $C$DW$105       .dwtag  DW_TAG_variable, DW_AT_name("prm")
     583                            .dwattr $C$DW$105, DW_AT_TI_symbol_name("prm")
     584                            .dwattr $C$DW$105, DW_AT_type(*$C$DW$T$41)
     585                            .dwattr $C$DW$105, DW_AT_location[DW_OP_breg31 28]
     586                    $C$DW$106       .dwtag  DW_TAG_variable, DW_AT_name("status_nat_vs_int")
     587                            .dwattr $C$DW$106, DW_AT_TI_symbol_name("status_nat_vs_int")
     588                            .dwattr $C$DW$106, DW_AT_type(*$C$DW$T$22)
     589                            .dwattr $C$DW$106, DW_AT_location[DW_OP_reg28]
     590                    $C$DW$107       .dwtag  DW_TAG_variable, DW_AT_name("status_nat_vs_ref")
     591                            .dwattr $C$DW$107, DW_AT_TI_symbol_name("status_nat_vs_ref")
     592                            .dwattr $C$DW$107, DW_AT_type(*$C$DW$T$22)
     593                            .dwattr $C$DW$107, DW_AT_location[DW_OP_reg29]
     594                    $C$DW$108       .dwtag  DW_TAG_variable, DW_AT_name("out_luma")
     595                            .dwattr $C$DW$108, DW_AT_TI_symbol_name("out_luma")
     596                            .dwattr $C$DW$108, DW_AT_type(*$C$DW$T$21)
     597                            .dwattr $C$DW$108, DW_AT_location[DW_OP_reg14]
     598                    $C$DW$109       .dwtag  DW_TAG_variable, DW_AT_name("out_chroma")
     599                            .dwattr $C$DW$109, DW_AT_TI_symbol_name("out_chroma")
     600                            .dwattr $C$DW$109, DW_AT_type(*$C$DW$T$21)
     601                            .dwattr $C$DW$109, DW_AT_location[DW_OP_reg13]
     602                    $C$DW$110       .dwtag  DW_TAG_variable, DW_AT_name("yc")
     603                            .dwattr $C$DW$110, DW_AT_TI_symbol_name("yc")
     604                            .dwattr $C$DW$110, DW_AT_type(*$C$DW$T$20)
     605                            .dwattr $C$DW$110, DW_AT_location[DW_OP_breg31 32]
TMS320C6x Assembler PC v7.4.2 Thu Mar 19 12:40:30 2015

Tools Copyright (c) 1996-2012 Texas Instruments Incorporated
package/lib/Regression/regress_d_c/./../packages/ti/vlib/src/VLIB_convertUYVYint_to_YUV422pl/VLIB_convertUYVYint_to_YUV422pl_d.se66 PAGE   12

     606                    $C$DW$111       .dwtag  DW_TAG_variable, DW_AT_name("y")
     607                            .dwattr $C$DW$111, DW_AT_TI_symbol_name("y")
     608                            .dwattr $C$DW$111, DW_AT_type(*$C$DW$T$20)
     609                            .dwattr $C$DW$111, DW_AT_location[DW_OP_breg31 36]
     610                    $C$DW$112       .dwtag  DW_TAG_variable, DW_AT_name("cr")
     611                            .dwattr $C$DW$112, DW_AT_TI_symbol_name("cr")
     612                            .dwattr $C$DW$112, DW_AT_type(*$C$DW$T$20)
     613                            .dwattr $C$DW$112, DW_AT_location[DW_OP_breg31 40]
     614                    $C$DW$113       .dwtag  DW_TAG_variable, DW_AT_name("cb")
     615                            .dwattr $C$DW$113, DW_AT_TI_symbol_name("cb")
     616                            .dwattr $C$DW$113, DW_AT_type(*$C$DW$T$20)
     617                            .dwattr $C$DW$113, DW_AT_location[DW_OP_breg31 44]
     618                    $C$DW$114       .dwtag  DW_TAG_variable, DW_AT_name("y_cn")
     619                            .dwattr $C$DW$114, DW_AT_TI_symbol_name("y_cn")
     620                            .dwattr $C$DW$114, DW_AT_type(*$C$DW$T$20)
     621                            .dwattr $C$DW$114, DW_AT_location[DW_OP_breg31 48]
     622                    $C$DW$115       .dwtag  DW_TAG_variable, DW_AT_name("cr_cn")
     623                            .dwattr $C$DW$115, DW_AT_TI_symbol_name("cr_cn")
     624                            .dwattr $C$DW$115, DW_AT_type(*$C$DW$T$20)
     625                            .dwattr $C$DW$115, DW_AT_location[DW_OP_breg31 52]
     626                    $C$DW$116       .dwtag  DW_TAG_variable, DW_AT_name("cb_cn")
     627                            .dwattr $C$DW$116, DW_AT_TI_symbol_name("cb_cn")
     628                            .dwattr $C$DW$116, DW_AT_type(*$C$DW$T$20)
     629                            .dwattr $C$DW$116, DW_AT_location[DW_OP_breg31 56]
     630                    $C$DW$117       .dwtag  DW_TAG_variable, DW_AT_name("$O$v1")
     631                            .dwattr $C$DW$117, DW_AT_TI_symbol_name("$O$v1")
     632                            .dwattr $C$DW$117, DW_AT_type(*$C$DW$T$41)
     633                            .dwattr $C$DW$117, DW_AT_location[DW_OP_reg26]
     634                    $C$DW$118       .dwtag  DW_TAG_variable, DW_AT_name("$O$U74")
     635                            .dwattr $C$DW$118, DW_AT_TI_symbol_name("$O$U74")
     636                            .dwattr $C$DW$118, DW_AT_type(*$C$DW$T$10)
     637                            .dwattr $C$DW$118, DW_AT_location[DW_OP_reg13]
     638                    $C$DW$119       .dwtag  DW_TAG_variable, DW_AT_name("$O$v2")
     639                            .dwattr $C$DW$119, DW_AT_TI_symbol_name("$O$v2")
     640                            .dwattr $C$DW$119, DW_AT_type(*$C$DW$T$149)
     641                            .dwattr $C$DW$119, DW_AT_location[DW_OP_reg22]
     642                    $C$DW$120       .dwtag  DW_TAG_variable, DW_AT_name("$O$v2")
     643                            .dwattr $C$DW$120, DW_AT_TI_symbol_name("$O$v2")
     644                            .dwattr $C$DW$120, DW_AT_type(*$C$DW$T$149)
     645                            .dwattr $C$DW$120, DW_AT_location[DW_OP_regx 0x35]
     646 00000010 05000028!            MVKL    .S1     test_cases,A10
     647 00000014 05000068!            MVKH    .S1     test_cases,A10
     648                            .dwpsn  file "./../packages/ti/vlib/src/VLIB_convertUYVYint_to_YUV422pl/VLIB_convertUYVYint_to
     649                    ;----------------------------------------------------------------------
     650                    ;  45 | UYVYint_to_YUV422pl_getTestParams(&prm, &test_cases);                  
     651                    ;----------------------------------------------------------------------
     652 00000018     e636             ADDAW   .D1X    SP,7,A4           ; |45| 
     653                    $C$DW$121       .dwtag  DW_TAG_TI_branch
     654                            .dwattr $C$DW$121, DW_AT_low_pc(0x00)
     655                            .dwattr $C$DW$121, DW_AT_name("UYVYint_to_YUV422pl_getTestParams")
     656                            .dwattr $C$DW$121, DW_AT_TI_call
     657                    
     658 00000020 10000012!            CALLP   .S2     UYVYint_to_YUV422pl_getTestParams,B3
     659 0000001a     9507  ||         MV      .L2X    A10,B4            ; |45| 
     660                    
TMS320C6x Assembler PC v7.4.2 Thu Mar 19 12:40:30 2015

Tools Copyright (c) 1996-2012 Texas Instruments Incorporated
package/lib/Regression/regress_d_c/./../packages/ti/vlib/src/VLIB_convertUYVYint_to_YUV422pl/VLIB_convertUYVYint_to_YUV422pl_d.se66 PAGE   13

     661 00000024           $C$RL0:    ; CALL OCCURS {UYVYint_to_YUV422pl_getTestParams} {0}  ; |45| 
     662                    ;** --------------------------------------------------------------------------*
     663                    ;          EXCLUSIVE CPU CYCLES: 8
     664 00000024 0200002a!            MVKL    .S2     $C$SL1+0,B4
     665 00000028 0200006a!            MVKH    .S2     $C$SL1+0,B4
     666                    $C$DW$122       .dwtag  DW_TAG_TI_branch
     667                            .dwattr $C$DW$122, DW_AT_low_pc(0x00)
     668                            .dwattr $C$DW$122, DW_AT_name("VLIB_profile_init")
     669                            .dwattr $C$DW$122, DW_AT_TI_call
     670                    
     671 0000002c 10000013!            CALLP   .S2     VLIB_profile_init,B3
     672 00000030 020ca358  ||         MVK     .L1     0x3,A4            ; |48| 
     673                    
     674                            .dwpsn  file "./../packages/ti/vlib/src/VLIB_convertUYVYint_to_YUV422pl/VLIB_convertUYVYint_to
     675                    ;----------------------------------------------------------------------
     676                    ;  48 | VLIB_profile_init(3, "VLIB_convertUYVYint_to_YUV422pl");               
     677                    ;----------------------------------------------------------------------
     678 00000034           $C$RL1:    ; CALL OCCURS {VLIB_profile_init} {0}  ; |48| 
     679                    ;** --------------------------------------------------------------------------*
     680                    ;          EXCLUSIVE CPU CYCLES: 12
     681                    
     682 00000034 02280265             LDW     .D1T1   *A10,A4           ; |51| 
     683 00000038     fcfd  ||         LDW     .D2T2   *+SP(28),B7
     684                    
     685 0000003a     02b2             MVK     .S1     32,A5
     686                            .dwpsn  file "./../packages/ti/vlib/src/VLIB_convertUYVYint_to_YUV422pl/VLIB_convertUYVYint_to
     687                    ;----------------------------------------------------------------------
     688                    ;  51 | for( tpi=0; tpi < test_cases; tpi++ ) {                                
     689                    ;  54 |     int32_t    status_nat_vs_int = vlib_KERNEL_PASS; /* Test status : N
     690                    ;     | atural c vs. Optimized */                                              
     691                    ;  55 |     int32_t    status_nat_vs_ref = vlib_KERNEL_PASS; /* Test status : N
     692                    ;     | atural c vs. Static Reference */                                       
     693                    ;  58 |     uint32_t    inp_size   =  prm[tpi].pitch * prm[tpi].height * 2;    
     694                    ;----------------------------------------------------------------------
     695 00000040 0580a35a             ZERO    .L2     B11               ; |51| 
     696 00000044 0780a358             ZERO    .L1     A15               ; |51| 
     697 00000048     0c6e             NOP             1
     698                    
     699 0000004a     1226             CMPGT   .L1     A4,0,A0           ; |51| 
     700 0000004c 059cbd70  ||         SUB     .S1X    B7,A5,A11
     701                    
     702 00000050 d000b013     [!A0]   B       .S2     $C$L9             ; |51| 
     703 00000054 05801050  ||         ADDK    .S1     32,A11            ; |59| 
     704                    
     705                            .dwpsn  file "./../packages/ti/vlib/src/VLIB_convertUYVYint_to_YUV422pl/VLIB_convertUYVYint_to
     706                    ;----------------------------------------------------------------------
     707                    ;  59 | uint32_t    out_luma   =  prm[tpi].width * prm[tpi].height;            
     708                    ;  60 | uint32_t    out_chroma =  prm[tpi].width * prm[tpi].height / 2;        
     709                    ;----------------------------------------------------------------------
     710 00000058 c52ce264     [ A0]   LDW     .D1T1   *+A11(28),A10     ; |59| 
     711                            .dwpsn  file "./../packages/ti/vlib/src/VLIB_convertUYVYint_to_YUV422pl/VLIB_convertUYVYint_to
     712                    ;----------------------------------------------------------------------
     713                    ;  63 | uint8_t   *yc    = (uint8_t *) VLIB_memalign(8, inp_size);             
     714                    ;----------------------------------------------------------------------
     715 00000060 c22cc266     [ A0]   LDW     .D1T2   *+A11(24),B4      ; |63| 
TMS320C6x Assembler PC v7.4.2 Thu Mar 19 12:40:30 2015

Tools Copyright (c) 1996-2012 Texas Instruments Incorporated
package/lib/Regression/regress_d_c/./../packages/ti/vlib/src/VLIB_convertUYVYint_to_YUV422pl/VLIB_convertUYVYint_to_YUV422pl_d.se66 PAGE   14

     716 00000064 c220a358     [ A0]   MVK     .L1     0x8,A4            ; |63| 
     717                            .dwpsn  file "./../packages/ti/vlib/src/VLIB_convertUYVYint_to_YUV422pl/VLIB_convertUYVYint_to
     718 00000068 c62ca264     [ A0]   LDW     .D1T1   *+A11(20),A12     ; |59| 
     719 0000006c     0c6e             NOP             1
     720                            .dwpsn  file "./../packages/ti/vlib/src/VLIB_convertUYVYint_to_YUV422pl/VLIB_convertUYVYint_to
     721                               ; BRANCHCC OCCURS {$C$L9}         ; |51| 
     722                    ;** --------------------------------------------------------------------------*
     723                    ;          EXCLUSIVE CPU CYCLES: 1
     724                    ;**     -----------------------    K$50 = &testPatternString[0];
     725                    ;**     -----------------------    K$57 = 255;
     726                    ;**     -----------------------    K$65 = &cycles[0];
     727                    ;**     -----------------------    K$99 = &desc[0];
     728                    ;**     -----------------------    U$12 = prm-32;
     729                    ;**     -----------------------    U$11 = 0;
     730                    ;** 51  -----------------------    tpi = 0;
     731                    ;**     -----------------------    #pragma LOOP_FLAGS(5120u)
     732 0000006e     0c6e             NOP             1
     733                    ;*----------------------------------------------------------------------------*
     734                    ;*   SOFTWARE PIPELINE INFORMATION
     735                    ;*      Disqualified loop: Loop contains a call
     736                    ;*      Disqualified loop: Loop contains non-pipelinable instructions
     737                    ;*      Disqualified loop: Loop contains a call
     738                    ;*      Disqualified loop: Loop contains non-pipelinable instructions
     739                    ;*      Disqualified loop: Loop contains a call
     740                    ;*      Disqualified loop: Loop contains non-pipelinable instructions
     741                    ;*      Disqualified loop: Loop contains a call
     742                    ;*      Disqualified loop: Loop contains non-pipelinable instructions
     743                    ;*      Disqualified loop: Loop contains a call
     744                    ;*      Disqualified loop: Loop contains non-pipelinable instructions
     745                    ;*      Disqualified loop: Loop contains a call
     746                    ;*      Disqualified loop: Loop contains non-pipelinable instructions
     747                    ;*      Disqualified loop: Loop contains a call
     748                    ;*      Disqualified loop: Loop contains non-pipelinable instructions
     749                    ;*      Disqualified loop: Loop contains control code
     750                    ;*----------------------------------------------------------------------------*
     751 00000070           $C$L1:    
     752                            .dwpsn  file "./../packages/ti/vlib/src/VLIB_convertUYVYint_to_YUV422pl/VLIB_convertUYVYint_to
     753                    $C$DW$L$VLIB_convertUYVYint_to_YUV422pl_d$5$B:
     754                    ;          EXCLUSIVE CPU CYCLES: 6
     755                    ;**     -----------------------g3:
     756                    ;** 59  -----------------------    C$6 = (*(U$12 += 32)).height;
     757                    ;** 59  -----------------------    out_luma = (*U$12).width*C$6;
     758                    ;** 60  -----------------------    out_chroma = out_luma>>1;
     759                    ;** 63  -----------------------    yc = VLIB_memalign(8u, (*U$12).pitch*C$6*2u);
     760                    ;** 64  -----------------------    y = VLIB_memalign(8u, out_luma);
     761                    ;** 65  -----------------------    cr = VLIB_memalign(8u, out_chroma);
     762                    ;** 66  -----------------------    cb = VLIB_memalign(8u, out_chroma);
     763                    ;** 67  -----------------------    y_cn = malloc(out_luma);
     764                    ;** 68  -----------------------    cr_cn = malloc(out_chroma);
     765                    ;** 69  -----------------------    cb_cn = malloc(out_chroma);
     766                    ;** 72  -----------------------    if ( !((yc != NULL)&(y != NULL)&(cr != NULL)&(cb != NULL)&(y_cn != 
     767                    $C$DW$123       .dwtag  DW_TAG_TI_branch
     768                            .dwattr $C$DW$123, DW_AT_low_pc(0x00)
     769                            .dwattr $C$DW$123, DW_AT_name("VLIB_memalign")
     770                            .dwattr $C$DW$123, DW_AT_TI_call
TMS320C6x Assembler PC v7.4.2 Thu Mar 19 12:40:30 2015

Tools Copyright (c) 1996-2012 Texas Instruments Incorporated
package/lib/Regression/regress_d_c/./../packages/ti/vlib/src/VLIB_convertUYVYint_to_YUV422pl/VLIB_convertUYVYint_to_YUV422pl_d.se66 PAGE   15

     771                    
     772 00000070 00000011!            CALL    .S1     VLIB_memalign     ; |63| 
     773 00000074 02289802  ||         MPY32   .M2X    A10,B4,B4         ; |63| 
     774                    
     775                            .dwpsn  file "./../packages/ti/vlib/src/VLIB_convertUYVYint_to_YUV422pl/VLIB_convertUYVYint_to
     776 00000078 01894162             ADDKPC  .S2     $C$RL2,B3,2       ; |63| 
     777 00000080     8241             ADD     .L2     B4,B4,B4          ; |63| 
     778 00000082     0c6e             NOP             1
     779 00000084           $C$RL2:    ; CALL OCCURS {VLIB_memalign} {0}  ; |63| 
     780 00000084           $C$DW$L$VLIB_convertUYVYint_to_YUV422pl_d$5$E:
     781                    ;** --------------------------------------------------------------------------*
     782 00000084           $C$DW$L$VLIB_convertUYVYint_to_YUV422pl_d$6$B:
     783                    ;          EXCLUSIVE CPU CYCLES: 43
     784                            .dwpsn  file "./../packages/ti/vlib/src/VLIB_convertUYVYint_to_YUV422pl/VLIB_convertUYVYint_to
     785 00000084 07314800             MPY32   .M1     A10,A12,A14       ; |59| 
     786                            .dwpsn  file "./../packages/ti/vlib/src/VLIB_convertUYVYint_to_YUV422pl/VLIB_convertUYVYint_to
     787 00000088     8d45             STW     .D2T1   A4,*+SP(32)       ; |63| 
     788                            .dwpsn  file "./../packages/ti/vlib/src/VLIB_convertUYVYint_to_YUV422pl/VLIB_convertUYVYint_to
     789                    ;----------------------------------------------------------------------
     790                    ;  64 | uint8_t   *y     = (uint8_t *) VLIB_memalign(8, out_luma);             
     791                    ;----------------------------------------------------------------------
     792 0000008a     0e26             MVK     .L1     0x8,A4            ; |64| 
     793 0000008c     2c6e             NOP             2
     794                    $C$DW$124       .dwtag  DW_TAG_TI_branch
     795                            .dwattr $C$DW$124, DW_AT_low_pc(0x00)
     796                            .dwattr $C$DW$124, DW_AT_name("VLIB_memalign")
     797                            .dwattr $C$DW$124, DW_AT_TI_call
     798                    
     799 00000090 10000012!            CALLP   .S2     VLIB_memalign,B3
     800 0000008e     9707  ||         MV      .L2X    A14,B4            ; |64| 
     801                    
     802 00000094           $C$RL3:    ; CALL OCCURS {VLIB_memalign} {0}  ; |64| 
     803                            .dwpsn  file "./../packages/ti/vlib/src/VLIB_convertUYVYint_to_YUV422pl/VLIB_convertUYVYint_to
     804 00000094 06b829a0             SHRU    .S1     A14,1,A13         ; |60| 
     805                            .dwpsn  file "./../packages/ti/vlib/src/VLIB_convertUYVYint_to_YUV422pl/VLIB_convertUYVYint_to
     806 00000098     ad45             STW     .D2T1   A4,*+SP(36)       ; |64| 
     807                    $C$DW$125       .dwtag  DW_TAG_TI_branch
     808                            .dwattr $C$DW$125, DW_AT_low_pc(0x04)
     809                            .dwattr $C$DW$125, DW_AT_name("VLIB_memalign")
     810                            .dwattr $C$DW$125, DW_AT_TI_call
     811                    
     812 0000009a     0e26             MVK     .L1     0x8,A4            ; |65| 
     813 000000a0 10000013! ||         CALLP   .S2     VLIB_memalign,B3
     814 000000a4 02341fda  ||         MV      .L2X    A13,B4            ; |65| 
     815                    
     816                            .dwpsn  file "./../packages/ti/vlib/src/VLIB_convertUYVYint_to_YUV422pl/VLIB_convertUYVYint_to
     817                    ;----------------------------------------------------------------------
     818                    ;  65 | uint8_t   *cr    = (uint8_t *) VLIB_memalign(8, out_chroma);           
     819                    ;----------------------------------------------------------------------
     820                    $C$RL4:    ; CALL OCCURS {VLIB_memalign} {0}  ; |65| 
     821                    $C$DW$126       .dwtag  DW_TAG_TI_branch
     822                            .dwattr $C$DW$126, DW_AT_low_pc(0x00)
     823                            .dwattr $C$DW$126, DW_AT_name("VLIB_memalign")
     824                            .dwattr $C$DW$126, DW_AT_TI_call
     825                    
TMS320C6x Assembler PC v7.4.2 Thu Mar 19 12:40:30 2015

Tools Copyright (c) 1996-2012 Texas Instruments Incorporated
package/lib/Regression/regress_d_c/./../packages/ti/vlib/src/VLIB_convertUYVYint_to_YUV422pl/VLIB_convertUYVYint_to_YUV422pl_d.se66 PAGE   16

     826 000000a8 10000013!            CALLP   .S2     VLIB_memalign,B3
     827 000000ac     9687  ||         MV      .L2X    A13,B4            ; |66| 
     828 000000ae     cd45  ||         STW     .D2T1   A4,*+SP(40)       ; |65| 
     829 000000b0 0220a358  ||         MVK     .L1     0x8,A4            ; |66| 
     830                    
     831                            .dwpsn  file "./../packages/ti/vlib/src/VLIB_convertUYVYint_to_YUV422pl/VLIB_convertUYVYint_to
     832                    ;----------------------------------------------------------------------
     833                    ;  66 | uint8_t   *cb    = (uint8_t *) VLIB_memalign(8, out_chroma);           
     834                    ;----------------------------------------------------------------------
     835                    $C$RL5:    ; CALL OCCURS {VLIB_memalign} {0}  ; |66| 
     836                    $C$DW$127       .dwtag  DW_TAG_TI_branch
     837                            .dwattr $C$DW$127, DW_AT_low_pc(0x00)
     838                            .dwattr $C$DW$127, DW_AT_name("malloc")
     839                            .dwattr $C$DW$127, DW_AT_TI_call
     840                    
     841 000000b4 10000013!            CALLP   .S2     malloc,B3
     842 000000b8     ed45  ||         STW     .D2T1   A4,*+SP(44)       ; |66| 
     843 000000ba     8706  ||         MV      .L1     A14,A4            ; |67| 
     844                    
     845                            .dwpsn  file "./../packages/ti/vlib/src/VLIB_convertUYVYint_to_YUV422pl/VLIB_convertUYVYint_to
     846                    ;----------------------------------------------------------------------
     847                    ;  67 | uint8_t   *y_cn  = (uint8_t *) malloc(out_luma);                       
     848                    ;----------------------------------------------------------------------
     849                    $C$RL6:    ; CALL OCCURS {malloc} {0}        ; |67| 
     850                    $C$DW$128       .dwtag  DW_TAG_TI_branch
     851                            .dwattr $C$DW$128, DW_AT_low_pc(0x00)
     852                            .dwattr $C$DW$128, DW_AT_name("malloc")
     853                            .dwattr $C$DW$128, DW_AT_TI_call
     854                    
     855 000000c0 10000013!            CALLP   .S2     malloc,B3
     856 000000c4     8dc5  ||         STW     .D2T1   A4,*+SP(48)       ; |67| 
     857 000000c6     8686  ||         MV      .L1     A13,A4            ; |68| 
     858                    
     859                            .dwpsn  file "./../packages/ti/vlib/src/VLIB_convertUYVYint_to_YUV422pl/VLIB_convertUYVYint_to
     860                    ;----------------------------------------------------------------------
     861                    ;  68 | uint8_t   *cr_cn = (uint8_t *) malloc(out_chroma);                     
     862                    ;----------------------------------------------------------------------
     863                    $C$RL7:    ; CALL OCCURS {malloc} {0}        ; |68| 
     864                    $C$DW$129       .dwtag  DW_TAG_TI_branch
     865                            .dwattr $C$DW$129, DW_AT_low_pc(0x00)
     866                            .dwattr $C$DW$129, DW_AT_name("malloc")
     867                            .dwattr $C$DW$129, DW_AT_TI_call
     868                    
     869 000000c8 10000013!            CALLP   .S2     malloc,B3
     870 000000cc     adc5  ||         STW     .D2T1   A4,*+SP(52)       ; |68| 
     871 000000ce     8686  ||         MV      .L1     A13,A4            ; |69| 
     872                    
     873                            .dwpsn  file "./../packages/ti/vlib/src/VLIB_convertUYVYint_to_YUV422pl/VLIB_convertUYVYint_to
     874                    ;----------------------------------------------------------------------
     875                    ;  69 | uint8_t   *cb_cn = (uint8_t *) malloc(out_chroma);                     
     876                    ;----------------------------------------------------------------------
     877 000000d0           $C$RL8:    ; CALL OCCURS {malloc} {0}        ; |69| 
     878 000000d0           $C$DW$L$VLIB_convertUYVYint_to_YUV422pl_d$6$E:
     879                    ;** --------------------------------------------------------------------------*
     880 000000d0           $C$DW$L$VLIB_convertUYVYint_to_YUV422pl_d$7$B:
TMS320C6x Assembler PC v7.4.2 Thu Mar 19 12:40:30 2015

Tools Copyright (c) 1996-2012 Texas Instruments Incorporated
package/lib/Regression/regress_d_c/./../packages/ti/vlib/src/VLIB_convertUYVYint_to_YUV422pl/VLIB_convertUYVYint_to_YUV422pl_d.se66 PAGE   17

     881                    ;          EXCLUSIVE CPU CYCLES: 21
     882                    
     883 000000d0     cd2d             LDW     .D2T1   *+SP(40),A2       ; |72| 
     884 000000d2     06a7  ||         ZERO    .L2     B5                ; |72| 
     885 000000d4     0313  ||         ZERO    .S2     B6                ; |72| 
     886 000000d6     05a6  ||         ZERO    .L1     A3                ; |72| 
     887                    
     888 000000d8     8d0d             LDW     .D2T1   *+SP(32),A0       ; |72| 
     889 000000da     0627  ||         ZERO    .L2     B4                ; |72| 
     890                    
     891                            .dwpsn  file "./../packages/ti/vlib/src/VLIB_convertUYVYint_to_YUV422pl/VLIB_convertUYVYint_to
     892                    ;----------------------------------------------------------------------
     893                    ;  72 | if( yc && y && cr && cb && y_cn && cr_cn && cb_cn ) {                  
     894                    ;  74 |     int32_t    fail, mode;                                             
     895                    ;----------------------------------------------------------------------
     896 000000e0     bd0d             LDW     .D2T2   *+SP(36),B0       ; |72| 
     897 000000e2     9dad             LDW     .D2T2   *+SP(48),B2       ; |72| 
     898 000000e4     ed1d             LDW     .D2T1   *+SP(44),A1       ; |72| 
     899                    
     900 000000e6     cdc5             STW     .D2T1   A4,*+SP(56)       ; |69| 
     901 000000e8 a284a35b  || [ A2]   MVK     .L2     0x1,B5            ; |72| 
     902 000000ec     0626  ||         ZERO    .L1     A4                ; |72| 
     903                    
     904 000000ee     adad             LDW     .D2T1   *+SP(52),A2       ; |72| 
     905 000000f0     2b67  || [ A0]   MVK     .L2     0x1,B6            ; |72| 
     906                    
     907 000000f2     dd9d             LDW     .D2T2   *+SP(56),B1       ; |72| 
     908 000000f4     aa67  || [ B0]   MVK     .L2     0x1,B4            ; |72| 
     909                    
     910 000000f8 03188f7b             AND     .L2     B4,B6,B6          ; |72| 
     911 000000f6     0213  ||         ZERO    .S2     B4                ; |72| 
     912 00000100 6204a358  || [ B2]   MVK     .L1     0x1,A4            ; |72| 
     913                    
     914 00000104 8204a35b     [ A1]   MVK     .L2     0x1,B4            ; |72| 
     915 00000108 0298a7e2  ||         AND     .S2     B5,B6,B5          ; |72| 
     916                    
     917 0000010c 02948f7b             AND     .L2     B4,B5,B5          ; |72| 
     918 00000110 0200002a  ||         ZERO    .S2     B4                ; |72| 
     919                    
     920 00000114 a204a35b     [ A2]   MVK     .L2     0x1,B4            ; |72| 
     921 00000118 0290b7e2  ||         AND     .S2X    A4,B5,B5          ; |72| 
     922                    
     923 0000011c 4184a358     [ B1]   MVK     .L1     0x1,A3            ; |72| 
     924 00000120 02148f7a             AND     .L2     B4,B5,B4          ; |72| 
     925 00000124 000c9f7a             AND     .L2X    A3,B4,B0          ; |72| 
     926                    
     927 00000128 30007c13     [!B0]   B       .S2     $C$L7             ; |72| 
     928 0000012c 222cc265  || [ B0]   LDW     .D1T1   *+A11(24),A4      ; |77| 
     929 00000130 21807fa8  || [ B0]   MVK     .S1     0xff,A3
     930                    
     931 00000134 238f1809     [ B0]   EXTU    .S1     A3,24,24,A7       ; |77| 
     932 00000138 233d02e5  || [ B0]   LDW     .D2T1   *+SP(32),A6       ; |77| 
     933 0000013c 232c2266  || [ B0]   LDW     .D1T2   *+A11(4),B6       ; |77| 
     934                    
     935 00000140 26000029!    [ B0]   MVKL    .S1     testPatternString,A12
TMS320C6x Assembler PC v7.4.2 Thu Mar 19 12:40:30 2015

Tools Copyright (c) 1996-2012 Texas Instruments Incorporated
package/lib/Regression/regress_d_c/./../packages/ti/vlib/src/VLIB_convertUYVYint_to_YUV422pl/VLIB_convertUYVYint_to_YUV422pl_d.se66 PAGE   18

     936 00000144 242d4204  || [ B0]   LDHU    .D1T1   *+A11(20),A8      ; |77| 
     937                    
     938                            .dwpsn  file "./../packages/ti/vlib/src/VLIB_convertUYVYint_to_YUV422pl/VLIB_convertUYVYint_to
     939                    ;----------------------------------------------------------------------
     940                    ;  77 | VLIB_fillBuffer(prm[tpi].testPattern,                                  
     941                    ;----------------------------------------------------------------------
     942 00000148 242dc206     [ B0]   LDHU    .D1T2   *+A11(28),B8      ; |77| 
     943                    $C$DW$130       .dwtag  DW_TAG_TI_branch
     944                            .dwattr $C$DW$130, DW_AT_low_pc(0x00)
     945                            .dwattr $C$DW$130, DW_AT_name("VLIB_fillBuffer")
     946                            .dwattr $C$DW$130, DW_AT_TI_call
     947 0000014c 20000010!    [ B0]   CALL    .S1     VLIB_fillBuffer   ; |77| 
     948                    
     949 00000150 05123009             EXTU    .S1     A4,17,16,A10      ; |77| 
     950 00000154 222c0214  || [ B0]   LDBU    .D1T1   *A11,A4           ; |77| 
     951                    
     952                            .dwpsn  file "./../packages/ti/vlib/src/VLIB_convertUYVYint_to_YUV422pl/VLIB_convertUYVYint_to
     953                               ; BRANCHCC OCCURS {$C$L7}         ; |72| 
     954 00000158           $C$DW$L$VLIB_convertUYVYint_to_YUV422pl_d$7$E:
     955                    ;** --------------------------------------------------------------------------*
     956 00000158           $C$DW$L$VLIB_convertUYVYint_to_YUV422pl_d$8$B:
     957                    ;          EXCLUSIVE CPU CYCLES: 4
     958                    ;** 77  -----------------------    VLIB_fillBuffer((*U$12).testPattern, (unsigned char)K$57, (void *)y
     959                    ;** 137 -----------------------    act_kernel = 0;  // [15]
     960                    ;** 140 -----------------------    VLIB_cache_inval();  // [15]
     961                    ;** 143 -----------------------    initStack(getSP());  // [15]
     962                    ;** 146 -----------------------    beg_count = _itoll(TSCH, TSCL);  // [15]
     963                    ;** 85  -----------------------    VLIB_convertUYVYint_to_YUV422pl(yc, (*U$12).width, (*U$12).pitch, (
     964                    ;** 153 -----------------------    v$2 = _itoll(TSCH, TSCL);  // [16]
     965                    ;** 153 -----------------------    end_count = v$2;  // [16]
     966                    ;** 156 -----------------------    C$5 = act_kernel;  // [16]
     967                    ;** 156 -----------------------    *((C$5<<3)+K$65) = *((C$5<<3)+K$65)+(v$2-(beg_count+overhead));  //
     968                    ;** 159 -----------------------    setStackDepth();  // [16]
     969                    ;** 137 -----------------------    act_kernel = 1;  // [15]
     970                    ;** 140 -----------------------    VLIB_cache_inval();  // [15]
     971                    ;** 143 -----------------------    initStack(getSP());  // [15]
     972                    ;** 146 -----------------------    beg_count = _itoll(TSCH, TSCL);  // [15]
     973                    ;** 90  -----------------------    VLIB_convertUYVYint_to_YUV422pl_cn(yc, (*U$12).width, (*U$12).pitch
     974                    ;** 153 -----------------------    v$2 = _itoll(TSCH, TSCL);  // [16]
     975                    ;** 153 -----------------------    end_count = v$2;  // [16]
     976                    ;** 156 -----------------------    C$4 = act_kernel;  // [16]
     977                    ;** 156 -----------------------    *((C$4<<3)+K$65) = *((C$4<<3)+K$65)+(v$2-(beg_count+overhead));  //
     978                    ;** 159 -----------------------    setStackDepth();  // [16]
     979                            .dwpsn  file "./../packages/ti/vlib/src/VLIB_convertUYVYint_to_YUV422pl/VLIB_convertUYVYint_to
     980                    ;----------------------------------------------------------------------
     981                    ;  78 | (uint8_t)255,                                                          
     982                    ;  79 | yc, prm[tpi].staticIn,                                                 
     983                    ;  80 | prm[tpi].width, prm[tpi].height, prm[tpi].pitch * 2,                   
     984                    ;  81 | sizeof(uint16_t), testPatternString);                                  
     985                    ;  84 | VLIB_profile_start(vlib_KERNEL_OPT);                                   
     986                    ;  85 | VLIB_convertUYVYint_to_YUV422pl(yc, prm[tpi].width, prm[tpi].pitch, prm
     987                    ;     | [tpi].height, y, cr, cb);                                              
     988                    ;  86 | VLIB_profile_stop();                                                   
     989                    ;  89 | VLIB_profile_start(vlib_KERNEL_CN);                                    
     990                    ;  90 | VLIB_convertUYVYint_to_YUV422pl_cn(yc, prm[tpi].width, prm[tpi].pitch,
TMS320C6x Assembler PC v7.4.2 Thu Mar 19 12:40:30 2015

Tools Copyright (c) 1996-2012 Texas Instruments Incorporated
package/lib/Regression/regress_d_c/./../packages/ti/vlib/src/VLIB_convertUYVYint_to_YUV422pl/VLIB_convertUYVYint_to_YUV422pl_d.se66 PAGE   19

     991                    ;     | prm[tpi].height, y_cn, cr_cn, cb_cn);                                  
     992                    ;  91 | VLIB_profile_stop();                                                   
     993                    ;  95 | if( VLIB_compare_mem((void *) y, (void *)y_cn, out_luma) == vlib_KERNEL
     994                    ;     | _FAIL ||                                                               
     995                    ;  96 | VLIB_compare_mem((void *) cr, (void *)cr_cn, out_chroma) == vlib_KERNEL
     996                    ;     | _FAIL ||                                                               
     997                    ;  97 | VLIB_compare_mem((void *) cb, (void *)cb_cn, out_chroma) == vlib_KERNEL
     998                    ;     | _FAIL ) {                                                              
     999                    ;  98 | status_nat_vs_int = vlib_KERNEL_FAIL;                                  
    1000                    ;  99 | } else {                                                               
    1001                    ; 100 | status_nat_vs_int = vlib_KERNEL_PASS;                                  
    1002                    ; 104 | if( prm[tpi].staticOutY != NULL &&                                     
    1003                    ; 105 | prm[tpi].staticOutCr != NULL &&                                        
    1004                    ; 106 | prm[tpi].staticOutCb != NULL ) {                                       
    1005                    ; 108 | if( VLIB_compare_mem((void *) prm[tpi].staticOutY, (void *)y_cn, out_lu
    1006                    ;     | ma) == vlib_KERNEL_FAIL ||                                             
    1007                    ; 109 | VLIB_compare_mem((void *) prm[tpi].staticOutCr, (void *)cr_cn, out_chro
    1008                    ;     | ma) == vlib_KERNEL_FAIL ||                                             
    1009                    ; 110 | VLIB_compare_mem((void *) prm[tpi].staticOutCb, (void *)cb_cn, out_chro
    1010                    ;     | ma) == vlib_KERNEL_FAIL ) {                                            
    1011                    ; 111 | status_nat_vs_ref = vlib_KERNEL_FAIL;                                  
    1012                    ; 112 | } else {                                                               
    1013                    ; 113 | status_nat_vs_ref = vlib_KERNEL_PASS;                                  
    1014                    ; 118 | fail = ((status_nat_vs_int == vlib_KERNEL_FAIL) || (status_nat_vs_ref =
    1015                    ;     | = vlib_KERNEL_FAIL)) ? 1 : 0;                                          
    1016                    ; 120 | est_test=1;                                                            
    1017                    ; 123 | sprintf(desc, "%s generated input | Opt results compared to NatC result
    1018                    ;     | s | width=%d, pitch=%d, height=%d, num_pts=%d",                        
    1019                    ; 124 | testPatternString, prm[tpi].width, prm[tpi].pitch, prm[tpi].height, out
    1020                    ;     | _luma);                                                                
    1021                    ; 125 | mode = (prm[tpi].pitch == prm[tpi].width) ? 1 : 2;                     
    1022                    ; 126 | VLIB_formula_add_test(out_luma, prm[tpi].height, NULL, fail, desc, mode
    1023                    ;     | );                                                                     
    1024                    ; 128 | } else {                                                               
    1025                    ; 130 | sprintf(desc, "width=%d, pitch=%d, height=%d, num_pts=%d",             
    1026                    ; 131 | prm[tpi].width, prm[tpi].pitch, prm[tpi].height, out_luma);            
    1027                    ; 132 | VLIB_skip_test(desc);                                                  
    1028                    ; 136 | free(cb_cn);                                                           
    1029                    ; 137 | free(cr_cn);                                                           
    1030                    ; 138 | free(y_cn);                                                            
    1031                    ; 139 | VLIB_align_free(cb);                                                   
    1032                    ;----------------------------------------------------------------------
    1033 00000158 021c1fda             MV      .L2X    A7,B4             ; |77| 
    1034 0000015c 06000068!            MVKH    .S1     testPatternString,A12
    1035 00000160 0508a35a             MVK     .L2     0x2,B10           ; |77| 
    1036 00000164 01820162             ADDKPC  .S2     $C$RL9,B3,0       ; |77| 
    1037 00000168           $C$RL9:    ; CALL OCCURS {VLIB_fillBuffer} {0}  ; |77| 
    1038 00000168           $C$DW$L$VLIB_convertUYVYint_to_YUV422pl_d$8$E:
    1039                    ;** --------------------------------------------------------------------------*
    1040 00000168           $C$DW$L$VLIB_convertUYVYint_to_YUV422pl_d$9$B:
    1041                    ;          EXCLUSIVE CPU CYCLES: 112
    1042 00000168 0280002a!            MVKL    .S2     act_kernel,B5
    1043                    
    1044 0000016c 0280006b!            MVKH    .S2     act_kernel,B5
    1045 00000170     0627  ||         ZERO    .L2     B4                ; |137| 
TMS320C6x Assembler PC v7.4.2 Thu Mar 19 12:40:30 2015

Tools Copyright (c) 1996-2012 Texas Instruments Incorporated
package/lib/Regression/regress_d_c/./../packages/ti/vlib/src/VLIB_convertUYVYint_to_YUV422pl/VLIB_convertUYVYint_to_YUV422pl_d.se66 PAGE   20

    1046                    
    1047                    $C$DW$131       .dwtag  DW_TAG_TI_branch
    1048                            .dwattr $C$DW$131, DW_AT_low_pc(0x00)
    1049                            .dwattr $C$DW$131, DW_AT_name("VLIB_cache_inval")
    1050                            .dwattr $C$DW$131, DW_AT_TI_call
    1051                    
    1052 00000174 10000012!            CALLP   .S2     VLIB_cache_inval,B3
    1053 00000172     10c5  ||         STW     .D2T2   B4,*B5            ; |137| 
    1054                    
    1055                            .dwpsn  file ".\..\packages\ti\vlib\src\VLIB_convertUYVYint_to_YUV422pl\..\common\VLIB_profile
    1056                    ;----------------------------------------------------------------------
    1057                    ; 140 | VLIB_align_free(cr);                                                   
    1058                    ; 141 | VLIB_align_free(y);                                                    
    1059                    ; 142 | VLIB_align_free(yc);                                                   
    1060                    ;----------------------------------------------------------------------
    1061                    $C$RL10:   ; CALL OCCURS {VLIB_cache_inval} {0}  ; |140| 
    1062                    $C$DW$132       .dwtag  DW_TAG_TI_branch
    1063                            .dwattr $C$DW$132, DW_AT_low_pc(0x00)
    1064                            .dwattr $C$DW$132, DW_AT_name("getSP")
    1065                            .dwattr $C$DW$132, DW_AT_TI_call
    1066 00000178 10000012!            CALLP   .S2     getSP,B3
    1067                            .dwpsn  file ".\..\packages\ti\vlib\src\VLIB_convertUYVYint_to_YUV422pl\..\common\VLIB_profile
    1068                    $C$RL11:   ; CALL OCCURS {getSP} {0}         ; |143| 
    1069                    $C$DW$133       .dwtag  DW_TAG_TI_branch
    1070                            .dwattr $C$DW$133, DW_AT_low_pc(0x00)
    1071                            .dwattr $C$DW$133, DW_AT_name("initStack")
    1072                            .dwattr $C$DW$133, DW_AT_TI_call
    1073 00000180 10000012!            CALLP   .S2     initStack,B3
    1074 00000184           $C$RL12:   ; CALL OCCURS {initStack} {0}     ; |143| 
    1075                            .dwpsn  file ".\..\packages\ti\vlib\src\VLIB_convertUYVYint_to_YUV422pl\..\common\VLIB_profile
    1076                    ;----------------------------------------------------------------------
    1077                    ; 146 | VLIB_profile_setMode(1, 2, "pitch == width", 0); /* Mode 1 */          
    1078                    ; 147 | VLIB_profile_cycle_report(vlib_PROFILE_FORMULA_RANGE,                  
    1079                    ; 148 |                           "N = width * height",                        
    1080                    ; 149 |                           "width * height");                           
    1081                    ; 151 | VLIB_profile_setMode(2, 3, "pitch > width", 1); /* Mode 2 */           
    1082                    ; 152 | VLIB_profile_cycle_report(vlib_PROFILE_FORMULA_RANGE,                  
    1083                    ;----------------------------------------------------------------------
    1084 00000184 032803e2             MVC     .S2     TSCL,B6           ; |146| 
    1085 00000188 022c03e2             MVC     .S2     TSCH,B4           ; |146| 
    1086                            .dwpsn  file "./../packages/ti/vlib/src/VLIB_convertUYVYint_to_YUV422pl/VLIB_convertUYVYint_to
    1087 0000018c 023d02e4             LDW     .D2T1   *+SP(32),A4       ; |85| 
    1088                    
    1089 00000190 0280002b!            MVKL    .S2     beg_count,B5
    1090 00000194 043d42e6  ||         LDW     .D2T2   *+SP(40),B8       ; |85| 
    1091                    
    1092 00000198 0280006b!            MVKH    .S2     beg_count,B5
    1093 0000019c 03900fdb  ||         MV      .L2     B4,B7             ; |146| 
    1094 000001a0 043d22e5  ||         LDW     .D2T1   *+SP(36),A8       ; |85| 
    1095 000001a4 022ca266  ||         LDW     .D1T2   *+A11(20),B4      ; |85| 
    1096                    
    1097 000001a8 031403c7             STDW    .D2T2   B7:B6,*B5         ; |146| 
    1098 000001ac 032cc264  ||         LDW     .D1T1   *+A11(24),A6      ; |85| 
    1099                    
    1100                    $C$DW$134       .dwtag  DW_TAG_TI_branch
TMS320C6x Assembler PC v7.4.2 Thu Mar 19 12:40:30 2015

Tools Copyright (c) 1996-2012 Texas Instruments Incorporated
package/lib/Regression/regress_d_c/./../packages/ti/vlib/src/VLIB_convertUYVYint_to_YUV422pl/VLIB_convertUYVYint_to_YUV422pl_d.se66 PAGE   21

    1101                            .dwattr $C$DW$134, DW_AT_low_pc(0x00)
    1102                            .dwattr $C$DW$134, DW_AT_name("VLIB_convertUYVYint_to_YUV422pl")
    1103                            .dwattr $C$DW$134, DW_AT_TI_call
    1104                    
    1105 000001b0 10000013!            CALLP   .S2     VLIB_convertUYVYint_to_YUV422pl,B3
    1106 000001b4 032ce267  ||         LDW     .D1T2   *+A11(28),B6      ; |85| 
    1107 000001b8 053d62e4  ||         LDW     .D2T1   *+SP(44),A10      ; |85| 
    1108                    
    1109 000001bc           $C$RL13:   ; CALL OCCURS {VLIB_convertUYVYint_to_YUV422pl} {0}  ; |85| 
    1110                            .dwpsn  file ".\..\packages\ti\vlib\src\VLIB_convertUYVYint_to_YUV422pl\..\common\VLIB_profile
    1111                    ;----------------------------------------------------------------------
    1112                    ; 153 | "N = width * height; M = height",                                      
    1113                    ; 154 | "width * height");                                                     
    1114                    ;----------------------------------------------------------------------
    1115 000001bc 032803e2             MVC     .S2     TSCL,B6           ; |153| 
    1116 000001c0 022c03e2             MVC     .S2     TSCH,B4           ; |153| 
    1117 000001c4 02000028!            MVKL    .S1     beg_count,A4
    1118 000001c8 01800028!            MVKL    .S1     act_kernel,A3
    1119                    
    1120 000001cc 01800069!            MVKH    .S1     act_kernel,A3
    1121 000001d0 0280002a! ||         MVKL    .S2     overhead,B5
    1122                    
    1123 000001d4 018c0265             LDW     .D1T1   *A3,A3            ; |156| 
    1124 000001d8 0280006b! ||         MVKH    .S2     overhead,B5
    1125 000001dc 02000068! ||         MVKH    .S1     beg_count,A4
    1126                    
    1127 000001e4 02100364             LDDW    .D1T1   *A4,A5:A4         ; |156| 
    1128 000001e0 041403e7  ||         LDDW    .D2T2   *B5,B9:B8         ; |156| 
    1129                    
    1130 000001e8 03000028!            MVKL    .S1     cycles,A6
    1131 000001ec 03000068!            MVKH    .S1     cycles,A6
    1132 000001f0     e247             MV      .L2     B4,B7             ; |153| 
    1133                            .dwpsn  file ".\..\packages\ti\vlib\src\VLIB_convertUYVYint_to_YUV422pl\..\common\VLIB_profile
    1134                    ;----------------------------------------------------------------------
    1135                    ; 157 | VLIB_kernel_memory();                                                  
    1136                    ;----------------------------------------------------------------------
    1137 000001f2     656c             LDDW    .D1T1   *+A6[A3],A7:A6    ; |156| 
    1138 000001f4 0211157a             ADDU    .L2X    B8,A4,B5:B4       ; |156| 
    1139 000001f8 0424a07a             ADD     .L2     B5,B9,B8          ; |156| 
    1140                    
    1141 00000200 041511e3             ADD     .S2X    B8,A5,B8          ; |156| 
    1142 00000204 0210c5fa  ||         SUBU    .L2     B6,B4,B5:B4       ; |156| 
    1143                    
    1144 00000208 0fa0e0fb             SUB     .L2     B7,B8,B31         ; |156| 
    1145 0000020c 0297184b  ||         EXT     .S2     B5,24,24,B5       ; |156| 
    1146 00000210 04000028! ||         MVKL    .S1     end_count,A8
    1147                    
    1148 00000214 0210d579             ADDU    .L1X    A6,B4,A5:A4       ; |156| 
    1149 00000218 0217e07b  ||         ADD     .L2     B31,B5,B4         ; |156| 
    1150 0000021c 04000068! ||         MVKH    .S1     end_count,A8
    1151                    
    1152 00000224     a3d0             ADD     .L1     A5,A7,A5          ; |156| 
    1153 00000220 03000029! ||         MVKL    .S1     cycles,A6
    1154                    
    1155 00000226     b250             ADD     .L1X    A5,B4,A5          ; |156| 
TMS320C6x Assembler PC v7.4.2 Thu Mar 19 12:40:30 2015

Tools Copyright (c) 1996-2012 Texas Instruments Incorporated
package/lib/Regression/regress_d_c/./../packages/ti/vlib/src/VLIB_convertUYVYint_to_YUV422pl/VLIB_convertUYVYint_to_YUV422pl_d.se66 PAGE   22

    1156 00000228 03000069! ||         MVKH    .S1     cycles,A6
    1157 0000022c 03200346  ||         STDW    .D1T2   B7:B6,*A8         ; |153| 
    1158                    
    1159                    $C$DW$135       .dwtag  DW_TAG_TI_branch
    1160                            .dwattr $C$DW$135, DW_AT_low_pc(0x00)
    1161                            .dwattr $C$DW$135, DW_AT_name("setStackDepth")
    1162                            .dwattr $C$DW$135, DW_AT_TI_call
    1163                    
    1164 00000230 10000013!            CALLP   .S2     setStackDepth,B3
    1165 00000234 02186b44  ||         STDW    .D1T1   A5:A4,*+A6[A3]    ; |156| 
    1166                    
    1167                            .dwpsn  file ".\..\packages\ti\vlib\src\VLIB_convertUYVYint_to_YUV422pl\..\common\VLIB_profile
    1168 00000238           $C$RL14:   ; CALL OCCURS {setStackDepth} {0}  ; |159| 
    1169 00000238 0280002a!            MVKL    .S2     act_kernel,B5
    1170                    
    1171 00000240 0280006b!            MVKH    .S2     act_kernel,B5
    1172 00000244     2627  ||         MVK     .L2     1,B4              ; |137| 
    1173                    
    1174                    $C$DW$136       .dwtag  DW_TAG_TI_branch
    1175                            .dwattr $C$DW$136, DW_AT_low_pc(0x00)
    1176                            .dwattr $C$DW$136, DW_AT_name("VLIB_cache_inval")
    1177                            .dwattr $C$DW$136, DW_AT_TI_call
    1178                    
    1179 00000248 10000012!            CALLP   .S2     VLIB_cache_inval,B3
    1180 00000246     10c5  ||         STW     .D2T2   B4,*B5            ; |137| 
    1181                    
    1182                            .dwpsn  file ".\..\packages\ti\vlib\src\VLIB_convertUYVYint_to_YUV422pl\..\common\VLIB_profile
    1183                    $C$RL15:   ; CALL OCCURS {VLIB_cache_inval} {0}  ; |140| 
    1184                    $C$DW$137       .dwtag  DW_TAG_TI_branch
    1185                            .dwattr $C$DW$137, DW_AT_low_pc(0x00)
    1186                            .dwattr $C$DW$137, DW_AT_name("getSP")
    1187                            .dwattr $C$DW$137, DW_AT_TI_call
    1188 0000024c 10000012!            CALLP   .S2     getSP,B3
    1189                            .dwpsn  file ".\..\packages\ti\vlib\src\VLIB_convertUYVYint_to_YUV422pl\..\common\VLIB_profile
    1190                    $C$RL16:   ; CALL OCCURS {getSP} {0}         ; |143| 
    1191                    $C$DW$138       .dwtag  DW_TAG_TI_branch
    1192                            .dwattr $C$DW$138, DW_AT_low_pc(0x00)
    1193                            .dwattr $C$DW$138, DW_AT_name("initStack")
    1194                            .dwattr $C$DW$138, DW_AT_TI_call
    1195 00000250 10000012!            CALLP   .S2     initStack,B3
    1196 00000254           $C$RL17:   ; CALL OCCURS {initStack} {0}     ; |143| 
    1197                            .dwpsn  file ".\..\packages\ti\vlib\src\VLIB_convertUYVYint_to_YUV422pl\..\common\VLIB_profile
    1198 00000254 032803e2             MVC     .S2     TSCL,B6           ; |146| 
    1199 00000258 022c03e2             MVC     .S2     TSCH,B4           ; |146| 
    1200                    
    1201 00000260 0280002b!            MVKL    .S2     beg_count,B5
    1202 00000264     8d4d  ||         LDW     .D2T1   *+SP(32),A4       ; |90| 
    1203                    
    1204 00000268 0280006b!            MVKH    .S2     beg_count,B5
    1205 00000266     e247  ||         MV      .L2     B4,B7             ; |146| 
    1206 0000026c 043da2e6  ||         LDW     .D2T2   *+SP(52),B8       ; |90| 
    1207                    
    1208 00000270 031403c7             STDW    .D2T2   B7:B6,*B5         ; |146| 
    1209 00000274 032cc264  ||         LDW     .D1T1   *+A11(24),A6      ; |90| 
    1210                    
TMS320C6x Assembler PC v7.4.2 Thu Mar 19 12:40:30 2015

Tools Copyright (c) 1996-2012 Texas Instruments Incorporated
package/lib/Regression/regress_d_c/./../packages/ti/vlib/src/VLIB_convertUYVYint_to_YUV422pl/VLIB_convertUYVYint_to_YUV422pl_d.se66 PAGE   23

    1211 00000278 043d82e5             LDW     .D2T1   *+SP(48),A8       ; |90| 
    1212 00000280 022ca266  ||         LDW     .D1T2   *+A11(20),B4      ; |90| 
    1213                    
    1214                    $C$DW$139       .dwtag  DW_TAG_TI_branch
    1215                            .dwattr $C$DW$139, DW_AT_low_pc(0x00)
    1216                            .dwattr $C$DW$139, DW_AT_name("VLIB_convertUYVYint_to_YUV422pl_cn")
    1217                            .dwattr $C$DW$139, DW_AT_TI_call
    1218                    
    1219 00000284 10000013!            CALLP   .S2     VLIB_convertUYVYint_to_YUV422pl_cn,B3
    1220 00000288 032ce267  ||         LDW     .D1T2   *+A11(28),B6      ; |90| 
    1221 0000028c 053dc2e4  ||         LDW     .D2T1   *+SP(56),A10      ; |90| 
    1222                    
    1223                            .dwpsn  file "./../packages/ti/vlib/src/VLIB_convertUYVYint_to_YUV422pl/VLIB_convertUYVYint_to
    1224 00000290           $C$RL18:   ; CALL OCCURS {VLIB_convertUYVYint_to_YUV422pl_cn} {0}  ; |90| 
    1225                            .dwpsn  file ".\..\packages\ti\vlib\src\VLIB_convertUYVYint_to_YUV422pl\..\common\VLIB_profile
    1226 00000290 082803e2             MVC     .S2     TSCL,B16          ; |153| 
    1227 00000294 022c03e2             MVC     .S2     TSCH,B4           ; |153| 
    1228                    
    1229 00000298 01800029!            MVKL    .S1     act_kernel,A3
    1230 0000029c 0280002a! ||         MVKL    .S2     overhead,B5
    1231                    
    1232 000002a0 01800069!            MVKH    .S1     act_kernel,A3
    1233 000002a4 0300002a! ||         MVKL    .S2     beg_count,B6
    1234                    
    1235 000002a8 018c0265             LDW     .D1T1   *A3,A3            ; |156| 
    1236 000002ac 0300006a! ||         MVKH    .S2     beg_count,B6
    1237                    
    1238 000002b0 0280006b!            MVKH    .S2     overhead,B5
    1239 000002b4 041803e6  ||         LDDW    .D2T2   *B6,B9:B8         ; |156| 
    1240                    
    1241                            .dwpsn  file ".\..\packages\ti\vlib\src\VLIB_convertUYVYint_to_YUV422pl\..\common\VLIB_profile
    1242 000002b8 031403e6             LDDW    .D2T2   *B5,B7:B6         ; |156| 
    1243 000002bc 02000028!            MVKL    .S1     cycles,A4
    1244 000002c0 02000068!            MVKH    .S1     cycles,A4
    1245 000002c4     646c             LDDW    .D1T1   *+A4[A3],A7:A6    ; |156| 
    1246                            .dwpsn  file ".\..\packages\ti\vlib\src\VLIB_convertUYVYint_to_YUV422pl\..\common\VLIB_profile
    1247 000002c6     2a47             MV      .L2     B4,B17            ; |153| 
    1248                            .dwpsn  file ".\..\packages\ti\vlib\src\VLIB_convertUYVYint_to_YUV422pl\..\common\VLIB_profile
    1249 000002c8 0220c57a             ADDU    .L2     B6,B8,B5:B4       ; |156| 
    1250                    
    1251 000002d0 021ca1e2             ADD     .S2     B5,B7,B4          ; |156| 
    1252 000002cc 031205fb  ||         SUBU    .L2     B16,B4,B7:B6      ; |156| 
    1253                    
    1254 000002d4 0224807a             ADD     .L2     B4,B9,B4          ; |156| 
    1255                    
    1256 000002d8 0218d579             ADDU    .L1X    A6,B6,A5:A4       ; |156| 
    1257 000002e4     cbe3  ||         EXT     .S2     B7,24,24,B6       ; |156| 
    1258 000002e0 021220fb  ||         SUB     .L2     B17,B4,B4         ; |156| 
    1259                    
    1260 000002e6     8341             ADD     .L2     B4,B6,B4          ; |156| 
    1261                    
    1262 000002f0     a3d0             ADD     .L1     A5,A7,A5          ; |156| 
    1263 000002ec 03000029! ||         MVKL    .S1     cycles,A6
    1264 000002e8 0280002b! ||         MVKL    .S2     end_count,B5
    1265                    
TMS320C6x Assembler PC v7.4.2 Thu Mar 19 12:40:30 2015

Tools Copyright (c) 1996-2012 Texas Instruments Incorporated
package/lib/Regression/regress_d_c/./../packages/ti/vlib/src/VLIB_convertUYVYint_to_YUV422pl/VLIB_convertUYVYint_to_YUV422pl_d.se66 PAGE   24

    1266 000002f2     b250             ADD     .L1X    A5,B4,A5          ; |156| 
    1267 000002f4 03000069! ||         MVKH    .S1     cycles,A6
    1268 000002f8 0280006a! ||         MVKH    .S2     end_count,B5
    1269                    
    1270                    $C$DW$140       .dwtag  DW_TAG_TI_branch
    1271                            .dwattr $C$DW$140, DW_AT_low_pc(0x00)
    1272                            .dwattr $C$DW$140, DW_AT_name("setStackDepth")
    1273                            .dwattr $C$DW$140, DW_AT_TI_call
    1274                    
    1275 00000300 10000013!            CALLP   .S2     setStackDepth,B3
    1276 00000308 02186b44  ||         STDW    .D1T1   A5:A4,*+A6[A3]    ; |156| 
    1277 00000304 081403c7  ||         STDW    .D2T2   B17:B16,*B5       ; |153| 
    1278                    
    1279                            .dwpsn  file ".\..\packages\ti\vlib\src\VLIB_convertUYVYint_to_YUV422pl\..\common\VLIB_profile
    1280                    ;----------------------------------------------------------------------
    1281                    ; 161 | #ifndef __ONESHOTTEST                                                  
    1282                    ; 163 | main() {                                                               
    1283                    ; 164 | if( VLIB_cache_init()) {                                               
    1284                    ;----------------------------------------------------------------------
    1285 0000030c           $C$RL19:   ; CALL OCCURS {setStackDepth} {0}  ; |159| 
    1286 0000030c           $C$DW$L$VLIB_convertUYVYint_to_YUV422pl_d$9$E:
    1287                    ;** --------------------------------------------------------------------------*
    1288 0000030c           $C$DW$L$VLIB_convertUYVYint_to_YUV422pl_d$10$B:
    1289                    ;          EXCLUSIVE CPU CYCLES: 7
    1290                    ;** 95  -----------------------    U$73 = out_luma;
    1291                    ;** 55  -----------------------    status_nat_vs_ref = 1;
    1292                    ;** 95  -----------------------    if ( !VLIB_compare_mem((void *)y, (void *)y_cn, U$73) ) goto g8;
    1293                            .dwpsn  file "./../packages/ti/vlib/src/VLIB_convertUYVYint_to_YUV422pl/VLIB_convertUYVYint_to
    1294 0000030c     ad4d             LDW     .D2T1   *+SP(36),A4       ; |95| 
    1295                    $C$DW$141       .dwtag  DW_TAG_TI_branch
    1296                            .dwattr $C$DW$141, DW_AT_low_pc(0x00)
    1297                            .dwattr $C$DW$141, DW_AT_name("VLIB_compare_mem")
    1298                            .dwattr $C$DW$141, DW_AT_TI_call
    1299                    
    1300 00000310 10000013!            CALLP   .S2     VLIB_compare_mem,B3
    1301 0000030e     9dcd  ||         LDW     .D2T2   *+SP(48),B4       ; |95| 
    1302 00000314     c706  ||         MV      .L1     A14,A6            ; |95| 
    1303                    
    1304 00000316           $C$RL20:   ; CALL OCCURS {VLIB_compare_mem} {0}  ; |95| 
    1305 00000316           $C$DW$L$VLIB_convertUYVYint_to_YUV422pl_d$10$E:
    1306                    ;** --------------------------------------------------------------------------*
    1307 00000316           $C$DW$L$VLIB_convertUYVYint_to_YUV422pl_d$11$B:
    1308                    ;          EXCLUSIVE CPU CYCLES: 7
    1309 00000316     0246             MV      .L1     A4,A0             ; |95| 
    1310                    
    1311 00000318 d0001191     [!A0]   B       .S1     $C$L2             ; |95| 
    1312 00000320 c23da2e6  || [ A0]   LDW     .D2T2   *+SP(52),B4       ; |95| 
    1313                    
    1314                    $C$DW$142       .dwtag  DW_TAG_TI_branch
    1315                            .dwattr $C$DW$142, DW_AT_low_pc(0x00)
    1316                            .dwattr $C$DW$142, DW_AT_name("VLIB_compare_mem")
    1317                            .dwattr $C$DW$142, DW_AT_TI_call
    1318 00000324 c0000010!    [ A0]   CALL    .S1     VLIB_compare_mem  ; |95| 
    1319 00000328 c23d42e4     [ A0]   LDW     .D2T1   *+SP(40),A4       ; |95| 
    1320                            .dwpsn  file "./../packages/ti/vlib/src/VLIB_convertUYVYint_to_YUV422pl/VLIB_convertUYVYint_to
TMS320C6x Assembler PC v7.4.2 Thu Mar 19 12:40:30 2015

Tools Copyright (c) 1996-2012 Texas Instruments Incorporated
package/lib/Regression/regress_d_c/./../packages/ti/vlib/src/VLIB_convertUYVYint_to_YUV422pl/VLIB_convertUYVYint_to_YUV422pl_d.se66 PAGE   25

    1321 0000032c 0684a35a             MVK     .L2     0x1,B13           ; |55| 
    1322                            .dwpsn  file "./../packages/ti/vlib/src/VLIB_convertUYVYint_to_YUV422pl/VLIB_convertUYVYint_to
    1323 00000330 d600a35a     [!A0]   ZERO    .L2     B12               ; |98| 
    1324 00000334     0c6e             NOP             1
    1325                            .dwpsn  file "./../packages/ti/vlib/src/VLIB_convertUYVYint_to_YUV422pl/VLIB_convertUYVYint_to
    1326                               ; BRANCHCC OCCURS {$C$L2}         ; |95| 
    1327 00000336           $C$DW$L$VLIB_convertUYVYint_to_YUV422pl_d$11$E:
    1328                    ;** --------------------------------------------------------------------------*
    1329 00000336           $C$DW$L$VLIB_convertUYVYint_to_YUV422pl_d$12$B:
    1330                    ;          EXCLUSIVE CPU CYCLES: 1
    1331                    ;** 95  -----------------------    U$74 = out_chroma;
    1332                    ;** 95  -----------------------    if ( !VLIB_compare_mem((void *)cr, (void *)cr_cn, U$74) ) goto g8;
    1333                    
    1334 00000336     c686             MV      .L1     A13,A6            ; |95| 
    1335 00000338 01880162  ||         ADDKPC  .S2     $C$RL21,B3,0      ; |95| 
    1336                    
    1337 00000340           $C$RL21:   ; CALL OCCURS {VLIB_compare_mem} {0}  ; |95| 
    1338 00000340           $C$DW$L$VLIB_convertUYVYint_to_YUV422pl_d$12$E:
    1339                    ;** --------------------------------------------------------------------------*
    1340 00000340           $C$DW$L$VLIB_convertUYVYint_to_YUV422pl_d$13$B:
    1341                    ;          EXCLUSIVE CPU CYCLES: 7
    1342 00000340     0246             MV      .L1     A4,A0             ; |95| 
    1343 00000342     09ba     [!A0]   B       .S1     $C$L2             ; |95| 
    1344                    $C$DW$143       .dwtag  DW_TAG_TI_branch
    1345                            .dwattr $C$DW$143, DW_AT_low_pc(0x00)
    1346                            .dwattr $C$DW$143, DW_AT_name("VLIB_compare_mem")
    1347                            .dwattr $C$DW$143, DW_AT_TI_call
    1348 00000344 c0000010!    [ A0]   CALL    .S1     VLIB_compare_mem  ; |95| 
    1349 00000348 c23d62e4     [ A0]   LDW     .D2T1   *+SP(44),A4       ; |95| 
    1350                            .dwpsn  file "./../packages/ti/vlib/src/VLIB_convertUYVYint_to_YUV422pl/VLIB_convertUYVYint_to
    1351 0000034c d600a35a     [!A0]   ZERO    .L2     B12               ; |98| 
    1352 00000350     2c6e             NOP             2
    1353                            .dwpsn  file "./../packages/ti/vlib/src/VLIB_convertUYVYint_to_YUV422pl/VLIB_convertUYVYint_to
    1354                               ; BRANCHCC OCCURS {$C$L2}         ; |95| 
    1355 00000352           $C$DW$L$VLIB_convertUYVYint_to_YUV422pl_d$13$E:
    1356                    ;** --------------------------------------------------------------------------*
    1357 00000352           $C$DW$L$VLIB_convertUYVYint_to_YUV422pl_d$14$B:
    1358                    ;          EXCLUSIVE CPU CYCLES: 1
    1359                    ;** 95  -----------------------    if ( !VLIB_compare_mem((void *)cb, (void *)cb_cn, U$74) ) goto g8;
    1360                    ;** 54  -----------------------    status_nat_vs_int = 1;
    1361                    ;**     -----------------------    goto g9;
    1362                    
    1363 00000352     c686             MV      .L1     A13,A6            ; |95| 
    1364 00000358 02281fda  ||         MV      .L2X    A10,B4            ; |95| 
    1365 00000354 01880163  ||         ADDKPC  .S2     $C$RL22,B3,0      ; |95| 
    1366                    
    1367 00000360           $C$RL22:   ; CALL OCCURS {VLIB_compare_mem} {0}  ; |95| 
    1368 00000360           $C$DW$L$VLIB_convertUYVYint_to_YUV422pl_d$14$E:
    1369                    ;** --------------------------------------------------------------------------*
    1370 00000360           $C$DW$L$VLIB_convertUYVYint_to_YUV422pl_d$15$B:
    1371                    ;          EXCLUSIVE CPU CYCLES: 7
    1372 00000360     0246             MV      .L1     A4,A0             ; |95| 
    1373                    
    1374 00000362     08aa     [ A0]   B       .S1     $C$L3
    1375 00000364 c12c6265  || [ A0]   LDW     .D1T1   *+A11(12),A2      ; |104| 
TMS320C6x Assembler PC v7.4.2 Thu Mar 19 12:40:30 2015

Tools Copyright (c) 1996-2012 Texas Instruments Incorporated
package/lib/Regression/regress_d_c/./../packages/ti/vlib/src/VLIB_convertUYVYint_to_YUV422pl/VLIB_convertUYVYint_to_YUV422pl_d.se66 PAGE   26

    1376 00000368 c6340fdb  || [ A0]   MV      .L2     B13,B12           ; |95| 
    1377 0000036c d600002a  || [!A0]   ZERO    .S2     B12               ; |98| 
    1378                    
    1379 00000374 00801fda             MV      .L2X    A0,B1             ; guard predicate rewrite
    1380 00000370 c02c4265  || [ A0]   LDW     .D1T1   *+A11(8),A0       ; |104| 
    1381                    
    1382                            .dwpsn  file "./../packages/ti/vlib/src/VLIB_convertUYVYint_to_YUV422pl/VLIB_convertUYVYint_to
    1383 00000378 40ac8264     [ B1]   LDW     .D1T1   *+A11(16),A1      ; |104| 
    1384 00000380 4180a358     [ B1]   ZERO    .L1     A3                ; |104| 
    1385 00000384 4200a358     [ B1]   ZERO    .L1     A4                ; |104| 
    1386 00000388 00000000             NOP             1
    1387                               ; BRANCHCC OCCURS {$C$L3}  
    1388 0000038c           $C$DW$L$VLIB_convertUYVYint_to_YUV422pl_d$15$E:
    1389                    ;** --------------------------------------------------------------------------*
    1390 0000038c           $C$L2:    
    1391                            .dwpsn  file "./../packages/ti/vlib/src/VLIB_convertUYVYint_to_YUV422pl/VLIB_convertUYVYint_to
    1392 0000038c           $C$DW$L$VLIB_convertUYVYint_to_YUV422pl_d$16$B:
    1393                    ;          EXCLUSIVE CPU CYCLES: 6
    1394                    ;**     -----------------------g8:
    1395                    ;** 98  -----------------------    status_nat_vs_int = 0;
    1396                            .dwpsn  file "./../packages/ti/vlib/src/VLIB_convertUYVYint_to_YUV422pl/VLIB_convertUYVYint_to
    1397 0000038c 012c6264             LDW     .D1T1   *+A11(12),A2      ; |104| 
    1398 00000390 00ac8264             LDW     .D1T1   *+A11(16),A1      ; |104| 
    1399 00000394 002c4264             LDW     .D1T1   *+A11(8),A0       ; |104| 
    1400 00000398     05a6             ZERO    .L1     A3                ; |104| 
    1401 0000039a     0626             ZERO    .L1     A4                ; |104| 
    1402 000003a0 00000000             NOP             1
    1403 000003a4           $C$DW$L$VLIB_convertUYVYint_to_YUV422pl_d$16$E:
    1404                    ;** --------------------------------------------------------------------------*
    1405 000003a4           $C$L3:    
    1406 000003a4           $C$DW$L$VLIB_convertUYVYint_to_YUV422pl_d$17$B:
    1407                    ;          EXCLUSIVE CPU CYCLES: 11
    1408                    ;**     -----------------------g9:
    1409                    ;** 104 -----------------------    v$1 = prm;
    1410                    ;** 104 -----------------------    C$3 = (*U$12).staticOutY;
    1411                    ;** 104 -----------------------    if ( !((C$3 != NULL)&((*U$12).staticOutCr != NULL)&((*U$12).staticO
    1412                    
    1413 000003a4 053ce2e7             LDW     .D2T2   *+SP(28),B10      ; |104| 
    1414 000003a8 a1b41fd9  || [ A2]   MV      .L1X    B13,A3            ; |104| 
    1415 000003ac 0200a35a  ||         ZERO    .L2     B4                ; |104| 
    1416                    
    1417 000003b0 c2341fd8     [ A0]   MV      .L1X    B13,A4            ; |104| 
    1418 000003b4 01906f78             AND     .L1     A3,A4,A3          ; |104| 
    1419 000003b8 82340fda     [ A1]   MV      .L2     B13,B4            ; |104| 
    1420 000003bc 000c9f7a             AND     .L2X    B4,A3,B0          ; |104| 
    1421                    
    1422 000003d0 32ad407a     [!B0]   ADD     .L2     B10,B11,B5        ; |123| 
    1423 000003c4 30001a93  || [!B0]   B       .S2     $C$L6             ; |104| 
    1424 000003c8 223d82e7  || [ B0]   LDW     .D2T2   *+SP(48),B4       ; |108| 
    1425 000003cc 31800029! || [!B0]   MVKL    .S1     est_test,A3
    1426 000003c0 3204a359  || [!B0]   MVK     .L1     1,A4              ; |120| 
    1427                    
    1428                    $C$DW$144       .dwtag  DW_TAG_TI_branch
    1429                            .dwattr $C$DW$144, DW_AT_low_pc(0x00)
    1430                            .dwattr $C$DW$144, DW_AT_name("VLIB_compare_mem")
TMS320C6x Assembler PC v7.4.2 Thu Mar 19 12:40:30 2015

Tools Copyright (c) 1996-2012 Texas Instruments Incorporated
package/lib/Regression/regress_d_c/./../packages/ti/vlib/src/VLIB_convertUYVYint_to_YUV422pl/VLIB_convertUYVYint_to_YUV422pl_d.se66 PAGE   27

    1431                            .dwattr $C$DW$144, DW_AT_TI_call
    1432                    
    1433 000003d4 20000013!    [ B0]   CALL    .S2     VLIB_compare_mem  ; |108| 
    1434 000003d8 3214e2e7  || [!B0]   LDW     .D2T2   *+B5(28),B4       ; |123| 
    1435 000003dc 31800068! || [!B0]   MVKH    .S1     est_test,A3
    1436                    
    1437 000003e0 3380002b!    [!B0]   MVKL    .S2     $C$SL2+0,B7
    1438 000003e4 320c0275  || [!B0]   STW     .D1T1   A4,*A3            ; |120| 
    1439 000003e8 32000029! || [!B0]   MVKL    .S1     desc,A4
    1440 000003ec 3414a2e6  || [!B0]   LDW     .D2T2   *+B5(20),B8       ; |123| 
    1441                    
    1442                            .dwpsn  file "./../packages/ti/vlib/src/VLIB_convertUYVYint_to_YUV422pl/VLIB_convertUYVYint_to
    1443 000003f0 3314c2e6     [!B0]   LDW     .D2T2   *+B5(24),B6       ; |123| 
    1444 000003f4 32b01fda     [!B0]   MV      .L2X    A12,B5            ; |123| 
    1445 000003f8 3380006b!    [!B0]   MVKH    .S2     $C$SL2+0,B7
    1446                            .dwpsn  file "./../packages/ti/vlib/src/VLIB_convertUYVYint_to_YUV422pl/VLIB_convertUYVYint_to
    1447                               ; BRANCHCC OCCURS {$C$L6}         ; |104| 
    1448 00000400           $C$DW$L$VLIB_convertUYVYint_to_YUV422pl_d$17$E:
    1449                    ;** --------------------------------------------------------------------------*
    1450 00000400           $C$DW$L$VLIB_convertUYVYint_to_YUV422pl_d$18$B:
    1451                    ;          EXCLUSIVE CPU CYCLES: 1
    1452                    ;** 108 -----------------------    if ( !VLIB_compare_mem((void *)C$3, (void *)y_cn, U$73) ) goto g14;
    1453                    
    1454 00000400     c706             MV      .L1     A14,A6            ; |108| 
    1455 00000402     804e  ||         MV      .S1     A0,A4             ; |108| 
    1456 00000404 01820162  ||         ADDKPC  .S2     $C$RL23,B3,0      ; |108| 
    1457                    
    1458                            .dwpsn  file "./../packages/ti/vlib/src/VLIB_convertUYVYint_to_YUV422pl/VLIB_convertUYVYint_to
    1459 00000408           $C$RL23:   ; CALL OCCURS {VLIB_compare_mem} {0}  ; |108| 
    1460 00000408           $C$DW$L$VLIB_convertUYVYint_to_YUV422pl_d$18$E:
    1461                    ;** --------------------------------------------------------------------------*
    1462 00000408           $C$DW$L$VLIB_convertUYVYint_to_YUV422pl_d$19$B:
    1463                    ;          EXCLUSIVE CPU CYCLES: 7
    1464 00000408     0246             MV      .L1     A4,A0             ; |108| 
    1465                    
    1466 0000040c c22c6264     [ A0]   LDW     .D1T1   *+A11(12),A4      ; |108| 
    1467 0000040a     0cba  || [!A0]   B       .S1     $C$L4             ; |108| 
    1468                    
    1469                    $C$DW$145       .dwtag  DW_TAG_TI_branch
    1470                            .dwattr $C$DW$145, DW_AT_low_pc(0x00)
    1471                            .dwattr $C$DW$145, DW_AT_name("VLIB_compare_mem")
    1472                            .dwattr $C$DW$145, DW_AT_TI_call
    1473                    
    1474 00000410 c0000011!    [ A0]   CALL    .S1     VLIB_compare_mem  ; |108| 
    1475 00000414 d53ce2e6  || [!A0]   LDW     .D2T2   *+SP(28),B10      ; |112| 
    1476                    
    1477 00000418 c23da2e6     [ A0]   LDW     .D2T2   *+SP(52),B4       ; |108| 
    1478                            .dwpsn  file "./../packages/ti/vlib/src/VLIB_convertUYVYint_to_YUV422pl/VLIB_convertUYVYint_to
    1479 00000420 d680a35a     [!A0]   ZERO    .L2     B13               ; |111| 
    1480 00000424     2c6e             NOP             2
    1481                            .dwpsn  file "./../packages/ti/vlib/src/VLIB_convertUYVYint_to_YUV422pl/VLIB_convertUYVYint_to
    1482                               ; BRANCHCC OCCURS {$C$L4}         ; |108| 
    1483 00000426           $C$DW$L$VLIB_convertUYVYint_to_YUV422pl_d$19$E:
    1484                    ;** --------------------------------------------------------------------------*
    1485 00000426           $C$DW$L$VLIB_convertUYVYint_to_YUV422pl_d$20$B:
TMS320C6x Assembler PC v7.4.2 Thu Mar 19 12:40:30 2015

Tools Copyright (c) 1996-2012 Texas Instruments Incorporated
package/lib/Regression/regress_d_c/./../packages/ti/vlib/src/VLIB_convertUYVYint_to_YUV422pl/VLIB_convertUYVYint_to_YUV422pl_d.se66 PAGE   28

    1486                    ;          EXCLUSIVE CPU CYCLES: 1
    1487                    ;** 108 -----------------------    if ( !VLIB_compare_mem((*U$12).staticOutCr, (void *)cr_cn, (int)out
    1488                    
    1489 00000426     c686             MV      .L1     A13,A6            ; |108| 
    1490 00000428 01830162  ||         ADDKPC  .S2     $C$RL24,B3,0      ; |108| 
    1491                    
    1492 0000042c           $C$RL24:   ; CALL OCCURS {VLIB_compare_mem} {0}  ; |108| 
    1493 0000042c           $C$DW$L$VLIB_convertUYVYint_to_YUV422pl_d$20$E:
    1494                    ;** --------------------------------------------------------------------------*
    1495 0000042c           $C$DW$L$VLIB_convertUYVYint_to_YUV422pl_d$21$B:
    1496                    ;          EXCLUSIVE CPU CYCLES: 7
    1497 0000042c     0246             MV      .L1     A4,A0             ; |108| 
    1498                    
    1499 0000042e     08ba     [!A0]   B       .S1     $C$L4             ; |108| 
    1500 00000430 d53ce2e6  || [!A0]   LDW     .D2T2   *+SP(28),B10      ; |112| 
    1501                    
    1502                    $C$DW$146       .dwtag  DW_TAG_TI_branch
    1503                            .dwattr $C$DW$146, DW_AT_low_pc(0x00)
    1504                            .dwattr $C$DW$146, DW_AT_name("VLIB_compare_mem")
    1505                            .dwattr $C$DW$146, DW_AT_TI_call
    1506 00000434 c0000010!    [ A0]   CALL    .S1     VLIB_compare_mem  ; |108| 
    1507 00000438 c22c8264     [ A0]   LDW     .D1T1   *+A11(16),A4      ; |108| 
    1508                            .dwpsn  file "./../packages/ti/vlib/src/VLIB_convertUYVYint_to_YUV422pl/VLIB_convertUYVYint_to
    1509 00000440 d680a35a     [!A0]   ZERO    .L2     B13               ; |111| 
    1510 00000444     2c6e             NOP             2
    1511                            .dwpsn  file "./../packages/ti/vlib/src/VLIB_convertUYVYint_to_YUV422pl/VLIB_convertUYVYint_to
    1512                               ; BRANCHCC OCCURS {$C$L4}         ; |108| 
    1513 00000446           $C$DW$L$VLIB_convertUYVYint_to_YUV422pl_d$21$E:
    1514                    ;** --------------------------------------------------------------------------*
    1515 00000446           $C$DW$L$VLIB_convertUYVYint_to_YUV422pl_d$22$B:
    1516                    ;          EXCLUSIVE CPU CYCLES: 1
    1517                    ;** 108 -----------------------    if ( !VLIB_compare_mem((*U$12).staticOutCb, (void *)cb_cn, (int)out
    1518                    ;** 113 -----------------------    status_nat_vs_ref = 1;
    1519                    ;** 113 -----------------------    goto g15;
    1520                    
    1521 00000446     c686             MV      .L1     A13,A6            ; |108| 
    1522 0000044c 02281fda  ||         MV      .L2X    A10,B4            ; |108| 
    1523 00000448 01840163  ||         ADDKPC  .S2     $C$RL25,B3,0      ; |108| 
    1524                    
    1525 00000450           $C$RL25:   ; CALL OCCURS {VLIB_compare_mem} {0}  ; |108| 
    1526 00000450           $C$DW$L$VLIB_convertUYVYint_to_YUV422pl_d$22$E:
    1527                    ;** --------------------------------------------------------------------------*
    1528 00000450           $C$DW$L$VLIB_convertUYVYint_to_YUV422pl_d$23$B:
    1529                    ;          EXCLUSIVE CPU CYCLES: 7
    1530 00000450     0246             MV      .L1     A4,A0             ; |108| 
    1531                    
    1532 00000452     852a     [ A0]   BNOP    .S1     $C$L5,4           ; |113| 
    1533 00000454 d53ce2e7  || [!A0]   LDW     .D2T2   *+SP(28),B10      ; |112| 
    1534 00000458 d680a35a  || [!A0]   ZERO    .L2     B13               ; |111| 
    1535                    
    1536                            .dwpsn  file "./../packages/ti/vlib/src/VLIB_convertUYVYint_to_YUV422pl/VLIB_convertUYVYint_to
    1537 00000460 02ad407a             ADD     .L2     B10,B11,B5        ; |123| 
    1538                            .dwpsn  file "./../packages/ti/vlib/src/VLIB_convertUYVYint_to_YUV422pl/VLIB_convertUYVYint_to
    1539                               ; BRANCHCC OCCURS {$C$L5}         ; |113| 
    1540 00000464           $C$DW$L$VLIB_convertUYVYint_to_YUV422pl_d$23$E:
TMS320C6x Assembler PC v7.4.2 Thu Mar 19 12:40:30 2015

Tools Copyright (c) 1996-2012 Texas Instruments Incorporated
package/lib/Regression/regress_d_c/./../packages/ti/vlib/src/VLIB_convertUYVYint_to_YUV422pl/VLIB_convertUYVYint_to_YUV422pl_d.se66 PAGE   29

    1541                    ;** --------------------------------------------------------------------------*
    1542 00000464           $C$L4:    
    1543                            .dwpsn  file "./../packages/ti/vlib/src/VLIB_convertUYVYint_to_YUV422pl/VLIB_convertUYVYint_to
    1544 00000464           $C$DW$L$VLIB_convertUYVYint_to_YUV422pl_d$24$B:
    1545                    ;          EXCLUSIVE CPU CYCLES: 1
    1546                    ;**     -----------------------g14:
    1547                    ;** 112 -----------------------    v$1 = prm;
    1548                    ;** 111 -----------------------    status_nat_vs_ref = 0;
    1549                            .dwpsn  file "./../packages/ti/vlib/src/VLIB_convertUYVYint_to_YUV422pl/VLIB_convertUYVYint_to
    1550 00000464 02ad407a             ADD     .L2     B10,B11,B5        ; |123| 
    1551 00000468           $C$DW$L$VLIB_convertUYVYint_to_YUV422pl_d$24$E:
    1552                    ;** --------------------------------------------------------------------------*
    1553 00000468           $C$L5:    
    1554 00000468           $C$DW$L$VLIB_convertUYVYint_to_YUV422pl_d$25$B:
    1555                    ;          EXCLUSIVE CPU CYCLES: 5
    1556                    
    1557 00000468     f0cd             LDW     .D2T2   *+B5(28),B4       ; |123| 
    1558 0000046c 01800029! ||         MVKL    .S1     est_test,A3
    1559 0000046a     2626  ||         MVK     .L1     1,A4              ; |120| 
    1560 00000470 0380002a! ||         MVKL    .S2     $C$SL2+0,B7
    1561                    
    1562 00000474 01800069!            MVKH    .S1     est_test,A3
    1563 00000478 0380006b! ||         MVKH    .S2     $C$SL2+0,B7
    1564 00000480 0314c2e6  ||         LDW     .D2T2   *+B5(24),B6       ; |123| 
    1565                    
    1566 00000484 020c0275             STW     .D1T1   A4,*A3            ; |120| 
    1567 00000488 0414a2e6  ||         LDW     .D2T2   *+B5(20),B8       ; |123| 
    1568                    
    1569 0000048c 02b01fda             MV      .L2X    A12,B5            ; |123| 
    1570 00000490 02000028!            MVKL    .S1     desc,A4
    1571 00000494           $C$DW$L$VLIB_convertUYVYint_to_YUV422pl_d$25$E:
    1572                    ;** --------------------------------------------------------------------------*
    1573 00000494           $C$L6:    
    1574                            .dwpsn  file "./../packages/ti/vlib/src/VLIB_convertUYVYint_to_YUV422pl/VLIB_convertUYVYint_to
    1575                    $C$DW$L$VLIB_convertUYVYint_to_YUV422pl_d$26$B:
    1576                    ;          EXCLUSIVE CPU CYCLES: 6
    1577                    ;**     -----------------------g15:
    1578                    ;** 120 -----------------------    est_test = 1;
    1579                    ;** 123 -----------------------    C$2 = U$11+v$1;
    1580                    ;** 123 -----------------------    sprintf(K$99, (const char *)"%s generated input | Opt results compa
    1581                    ;** 126 -----------------------    VLIB_formula_add_test(U$73, (int)(*U$12).height, 0, (status_nat_vs_
    1582                    ;** 128 -----------------------    goto g17;
    1583                    $C$DW$147       .dwtag  DW_TAG_TI_branch
    1584                            .dwattr $C$DW$147, DW_AT_low_pc(0x00)
    1585                            .dwattr $C$DW$147, DW_AT_name("sprintf")
    1586                            .dwattr $C$DW$147, DW_AT_TI_call
    1587                    
    1588 00000494 00000011!            CALL    .S1     sprintf           ; |123| 
    1589 00000498     bcc5  ||         STW     .D2T2   B4,*+SP(20)       ; |123| 
    1590                    
    1591                            .dwpsn  file "./../packages/ti/vlib/src/VLIB_convertUYVYint_to_YUV422pl/VLIB_convertUYVYint_to
    1592 0000049a     bc75             STW     .D2T2   B7,*+SP(4)        ; |123| 
    1593 000004a0 02bc42f6             STW     .D2T2   B5,*+SP(8)        ; |123| 
    1594 000004a4 073cc2f4             STW     .D2T1   A14,*+SP(24)      ; |123| 
    1595 000004a8 043c62f6             STW     .D2T2   B8,*+SP(12)       ; |123| 
TMS320C6x Assembler PC v7.4.2 Thu Mar 19 12:40:30 2015

Tools Copyright (c) 1996-2012 Texas Instruments Incorporated
package/lib/Regression/regress_d_c/./../packages/ti/vlib/src/VLIB_convertUYVYint_to_YUV422pl/VLIB_convertUYVYint_to_YUV422pl_d.se66 PAGE   30

    1596                    
    1597 000004ac 033c82f7             STW     .D2T2   B6,*+SP(16)       ; |123| 
    1598 000004b0 01860163  ||         ADDKPC  .S2     $C$RL26,B3,0      ; |123| 
    1599 000004b4 02000068! ||         MVKH    .S1     desc,A4
    1600                    
    1601 000004b8           $C$RL26:   ; CALL OCCURS {sprintf} {0}       ; |123| 
    1602 000004b8           $C$DW$L$VLIB_convertUYVYint_to_YUV422pl_d$26$E:
    1603                    ;** --------------------------------------------------------------------------*
    1604 000004b8           $C$DW$L$VLIB_convertUYVYint_to_YUV422pl_d$27$B:
    1605                    ;          EXCLUSIVE CPU CYCLES: 15
    1606                            .dwpsn  file "./../packages/ti/vlib/src/VLIB_convertUYVYint_to_YUV422pl/VLIB_convertUYVYint_to
    1607 000004b8 01aca264             LDW     .D1T1   *+A11(20),A3      ; |126| 
    1608 000004bc 022cc264             LDW     .D1T1   *+A11(24),A4      ; |126| 
    1609 000004c0 02300a5a             CMPEQ   .L2     B12,0,B4          ; |126| 
    1610 000004c4 02b40a5a             CMPEQ   .L2     B13,0,B5          ; |126| 
    1611 000004c8 04000028!            MVKL    .S1     desc,A8
    1612 000004cc     0726             ZERO    .L1     A6                ; |126| 
    1613 000004ce     85e8             CMPEQ   .L1     A4,A3,A0          ; |126| 
    1614                    
    1615 000004d0 d188a359     [!A0]   MVK     .L1     0x2,A3            ; |126| 
    1616 000004d4 c18000a8  || [ A0]   MVK     .S1     0x1,A3            ; |126| 
    1617                    
    1618 000004d8 0310affa             OR      .L2     B5,B4,B6          ; |126| 
    1619                    $C$DW$148       .dwtag  DW_TAG_TI_branch
    1620                            .dwattr $C$DW$148, DW_AT_low_pc(0x10)
    1621                            .dwattr $C$DW$148, DW_AT_name("VLIB_formula_add_test")
    1622                            .dwattr $C$DW$148, DW_AT_TI_call
    1623                    
    1624 000004e0 022ce267             LDW     .D1T2   *+A11(28),B4      ; |126| 
    1625 000004e4     15c7  ||         MV      .L2X    A3,B8             ; |126| 
    1626 000004e6     8706  ||         MV      .L1     A14,A4            ; |126| 
    1627 000004e8 04000069! ||         MVKH    .S1     desc,A8
    1628 000004ec 10000012! ||         CALLP   .S2     VLIB_formula_add_test,B3
    1629                    
    1630 000004f0           $C$RL27:   ; CALL OCCURS {VLIB_formula_add_test} {0}  ; |126| 
    1631 000004f0           $C$DW$L$VLIB_convertUYVYint_to_YUV422pl_d$27$E:
    1632                    ;** --------------------------------------------------------------------------*
    1633 000004f0           $C$DW$L$VLIB_convertUYVYint_to_YUV422pl_d$28$B:
    1634                    ;          EXCLUSIVE CPU CYCLES: 6
    1635                            .dwpsn  file "./../packages/ti/vlib/src/VLIB_convertUYVYint_to_YUV422pl/VLIB_convertUYVYint_to
    1636 000004f0 00000e10             B       .S1     $C$L8             ; |128| 
    1637                            .dwpsn  file "./../packages/ti/vlib/src/VLIB_convertUYVYint_to_YUV422pl/VLIB_convertUYVYint_to
    1638                    $C$DW$149       .dwtag  DW_TAG_TI_branch
    1639                            .dwattr $C$DW$149, DW_AT_low_pc(0x00)
    1640                            .dwattr $C$DW$149, DW_AT_name("free")
    1641                            .dwattr $C$DW$149, DW_AT_TI_call
    1642 000004f4 00000010!            CALL    .S1     free              ; |136| 
    1643 000004f8     cdcd             LDW     .D2T1   *+SP(56),A4       ; |136| 
    1644 000004fa     4c6e             NOP             3
    1645                            .dwpsn  file "./../packages/ti/vlib/src/VLIB_convertUYVYint_to_YUV422pl/VLIB_convertUYVYint_to
    1646                               ; BRANCH OCCURS {$C$L8}           ; |128| 
    1647 00000500           $C$DW$L$VLIB_convertUYVYint_to_YUV422pl_d$28$E:
    1648                    ;** --------------------------------------------------------------------------*
    1649 00000500           $C$L7:    
    1650                            .dwpsn  file "./../packages/ti/vlib/src/VLIB_convertUYVYint_to_YUV422pl/VLIB_convertUYVYint_to
TMS320C6x Assembler PC v7.4.2 Thu Mar 19 12:40:30 2015

Tools Copyright (c) 1996-2012 Texas Instruments Incorporated
package/lib/Regression/regress_d_c/./../packages/ti/vlib/src/VLIB_convertUYVYint_to_YUV422pl/VLIB_convertUYVYint_to_YUV422pl_d.se66 PAGE   31

    1651 00000500           $C$DW$L$VLIB_convertUYVYint_to_YUV422pl_d$29$B:
    1652                    ;          EXCLUSIVE CPU CYCLES: 8
    1653                    ;**     -----------------------g16:
    1654                    ;** 130 -----------------------    sprintf(K$99, (const char *)"width=%d, pitch=%d, height=%d, num_pts
    1655                    ;** 132 -----------------------    VLIB_skip_test(K$99);
    1656                    
    1657 00000500 022cc265             LDW     .D1T1   *+A11(24),A4      ; |130| 
    1658 00000504 0200002a! ||         MVKL    .S2     $C$SL3+0,B4
    1659                    
    1660 00000508 02aca265             LDW     .D1T1   *+A11(20),A5      ; |130| 
    1661 0000050c 0200006a! ||         MVKH    .S2     $C$SL3+0,B4
    1662                    
    1663                    $C$DW$150       .dwtag  DW_TAG_TI_branch
    1664                            .dwattr $C$DW$150, DW_AT_low_pc(0x00)
    1665                            .dwattr $C$DW$150, DW_AT_name("sprintf")
    1666                            .dwattr $C$DW$150, DW_AT_TI_call
    1667                    
    1668 00000510 00000011!            CALL    .S1     sprintf           ; |130| 
    1669 00000514 01ace264  ||         LDW     .D1T1   *+A11(28),A3      ; |130| 
    1670                    
    1671                            .dwpsn  file "./../packages/ti/vlib/src/VLIB_convertUYVYint_to_YUV422pl/VLIB_convertUYVYint_to
    1672 00000518 023c22f6             STW     .D2T2   B4,*+SP(4)        ; |130| 
    1673 0000051c 073ca2f4             STW     .D2T1   A14,*+SP(20)      ; |130| 
    1674                    
    1675 00000524 023c62f4             STW     .D2T1   A4,*+SP(12)       ; |130| 
    1676 00000520 02000029! ||         MVKL    .S1     desc,A4
    1677                    
    1678 0000052c 02000068!            MVKH    .S1     desc,A4
    1679 00000528 02bc42f5  ||         STW     .D2T1   A5,*+SP(8)        ; |130| 
    1680                    
    1681 00000534 01bc82f4             STW     .D2T1   A3,*+SP(16)       ; |130| 
    1682 00000530 01860163  ||         ADDKPC  .S2     $C$RL28,B3,0      ; |130| 
    1683                    
    1684 00000538           $C$RL28:   ; CALL OCCURS {sprintf} {0}       ; |130| 
    1685 00000538           $C$DW$L$VLIB_convertUYVYint_to_YUV422pl_d$29$E:
    1686                    ;** --------------------------------------------------------------------------*
    1687 00000538           $C$DW$L$VLIB_convertUYVYint_to_YUV422pl_d$30$B:
    1688                    ;          EXCLUSIVE CPU CYCLES: 12
    1689 00000538 02000029!            MVKL    .S1     desc,A4
    1690                    $C$DW$151       .dwtag  DW_TAG_TI_branch
    1691                            .dwattr $C$DW$151, DW_AT_low_pc(0x00)
    1692                            .dwattr $C$DW$151, DW_AT_name("VLIB_skip_test")
    1693                            .dwattr $C$DW$151, DW_AT_TI_call
    1694                    
    1695 00000540 10000013!            CALLP   .S2     VLIB_skip_test,B3
    1696 00000544 02000068! ||         MVKH    .S1     desc,A4
    1697                    
    1698                            .dwpsn  file "./../packages/ti/vlib/src/VLIB_convertUYVYint_to_YUV422pl/VLIB_convertUYVYint_to
    1699 00000548           $C$RL29:   ; CALL OCCURS {VLIB_skip_test} {0}  ; |132| 
    1700                            .dwpsn  file "./../packages/ti/vlib/src/VLIB_convertUYVYint_to_YUV422pl/VLIB_convertUYVYint_to
    1701                    $C$DW$152       .dwtag  DW_TAG_TI_branch
    1702                            .dwattr $C$DW$152, DW_AT_low_pc(0x00)
    1703                            .dwattr $C$DW$152, DW_AT_name("free")
    1704                            .dwattr $C$DW$152, DW_AT_TI_call
    1705 00000548 00000010!            CALL    .S1     free              ; |136| 
TMS320C6x Assembler PC v7.4.2 Thu Mar 19 12:40:30 2015

Tools Copyright (c) 1996-2012 Texas Instruments Incorporated
package/lib/Regression/regress_d_c/./../packages/ti/vlib/src/VLIB_convertUYVYint_to_YUV422pl/VLIB_convertUYVYint_to_YUV422pl_d.se66 PAGE   32

    1706 0000054c     cdcd             LDW     .D2T1   *+SP(56),A4       ; |136| 
    1707 0000054e     4c6e             NOP             3
    1708 00000550           $C$DW$L$VLIB_convertUYVYint_to_YUV422pl_d$30$E:
    1709                    ;** --------------------------------------------------------------------------*
    1710 00000550           $C$L8:    
    1711                            .dwpsn  file "./../packages/ti/vlib/src/VLIB_convertUYVYint_to_YUV422pl/VLIB_convertUYVYint_to
    1712 00000550           $C$DW$L$VLIB_convertUYVYint_to_YUV422pl_d$31$B:
    1713                    ;          EXCLUSIVE CPU CYCLES: 1
    1714                    ;**     -----------------------g17:
    1715                    ;** 136 -----------------------    free((void *)cb_cn);
    1716                    ;** 137 -----------------------    free((void *)cr_cn);
    1717                    ;** 138 -----------------------    free((void *)y_cn);
    1718                    ;** 139 -----------------------    VLIB_align_free((void *)cb);
    1719                    ;** 140 -----------------------    VLIB_align_free((void *)cr);
    1720                    ;** 141 -----------------------    VLIB_align_free((void *)y);
    1721                    ;** 142 -----------------------    VLIB_align_free((void *)yc);
    1722                    ;** 51  -----------------------    U$11 += 32;
    1723                    ;** 51  -----------------------    if ( test_cases > (++tpi) ) goto g3;
    1724                            .dwpsn  file "./../packages/ti/vlib/src/VLIB_convertUYVYint_to_YUV422pl/VLIB_convertUYVYint_to
    1725 00000550 01850162             ADDKPC  .S2     $C$RL30,B3,0      ; |136| 
    1726                    $C$RL30:   ; CALL OCCURS {free} {0}          ; |136| 
    1727                    $C$DW$L$VLIB_convertUYVYint_to_YUV422pl_d$31$E:
    1728                    ;** --------------------------------------------------------------------------*
    1729                    $C$DW$L$VLIB_convertUYVYint_to_YUV422pl_d$32$B:
    1730                    ;          EXCLUSIVE CPU CYCLES: 36
    1731                    $C$DW$153       .dwtag  DW_TAG_TI_branch
    1732                            .dwattr $C$DW$153, DW_AT_low_pc(0x00)
    1733                            .dwattr $C$DW$153, DW_AT_name("free")
    1734                            .dwattr $C$DW$153, DW_AT_TI_call
    1735                    
    1736 00000554 10000013!            CALLP   .S2     free,B3
    1737 00000558 023da2e4  ||         LDW     .D2T1   *+SP(52),A4       ; |137| 
    1738                    
    1739                            .dwpsn  file "./../packages/ti/vlib/src/VLIB_convertUYVYint_to_YUV422pl/VLIB_convertUYVYint_to
    1740                    $C$RL31:   ; CALL OCCURS {free} {0}          ; |137| 
    1741                    $C$DW$154       .dwtag  DW_TAG_TI_branch
    1742                            .dwattr $C$DW$154, DW_AT_low_pc(0x00)
    1743                            .dwattr $C$DW$154, DW_AT_name("free")
    1744                            .dwattr $C$DW$154, DW_AT_TI_call
    1745                    
    1746 00000560 10000013!            CALLP   .S2     free,B3
    1747 00000564 023d82e4  ||         LDW     .D2T1   *+SP(48),A4       ; |138| 
    1748                    
    1749                            .dwpsn  file "./../packages/ti/vlib/src/VLIB_convertUYVYint_to_YUV422pl/VLIB_convertUYVYint_to
    1750                    $C$RL32:   ; CALL OCCURS {free} {0}          ; |138| 
    1751                    $C$DW$155       .dwtag  DW_TAG_TI_branch
    1752                            .dwattr $C$DW$155, DW_AT_low_pc(0x00)
    1753                            .dwattr $C$DW$155, DW_AT_name("VLIB_align_free")
    1754                            .dwattr $C$DW$155, DW_AT_TI_call
    1755                    
    1756 00000568 10000013!            CALLP   .S2     VLIB_align_free,B3
    1757 0000056c 023d62e4  ||         LDW     .D2T1   *+SP(44),A4       ; |139| 
    1758                    
    1759                            .dwpsn  file "./../packages/ti/vlib/src/VLIB_convertUYVYint_to_YUV422pl/VLIB_convertUYVYint_to
    1760                    $C$RL33:   ; CALL OCCURS {VLIB_align_free} {0}  ; |139| 
TMS320C6x Assembler PC v7.4.2 Thu Mar 19 12:40:30 2015

Tools Copyright (c) 1996-2012 Texas Instruments Incorporated
package/lib/Regression/regress_d_c/./../packages/ti/vlib/src/VLIB_convertUYVYint_to_YUV422pl/VLIB_convertUYVYint_to_YUV422pl_d.se66 PAGE   33

    1761                    $C$DW$156       .dwtag  DW_TAG_TI_branch
    1762                            .dwattr $C$DW$156, DW_AT_low_pc(0x00)
    1763                            .dwattr $C$DW$156, DW_AT_name("VLIB_align_free")
    1764                            .dwattr $C$DW$156, DW_AT_TI_call
    1765                    
    1766 00000570 10000013!            CALLP   .S2     VLIB_align_free,B3
    1767 00000574 023d42e4  ||         LDW     .D2T1   *+SP(40),A4       ; |140| 
    1768                    
    1769                            .dwpsn  file "./../packages/ti/vlib/src/VLIB_convertUYVYint_to_YUV422pl/VLIB_convertUYVYint_to
    1770                    $C$RL34:   ; CALL OCCURS {VLIB_align_free} {0}  ; |140| 
    1771                    $C$DW$157       .dwtag  DW_TAG_TI_branch
    1772                            .dwattr $C$DW$157, DW_AT_low_pc(0x00)
    1773                            .dwattr $C$DW$157, DW_AT_name("VLIB_align_free")
    1774                            .dwattr $C$DW$157, DW_AT_TI_call
    1775                    
    1776 00000578 10000013!            CALLP   .S2     VLIB_align_free,B3
    1777 0000057c 023d22e4  ||         LDW     .D2T1   *+SP(36),A4       ; |141| 
    1778                    
    1779                            .dwpsn  file "./../packages/ti/vlib/src/VLIB_convertUYVYint_to_YUV422pl/VLIB_convertUYVYint_to
    1780                    $C$RL35:   ; CALL OCCURS {VLIB_align_free} {0}  ; |141| 
    1781                    $C$DW$158       .dwtag  DW_TAG_TI_branch
    1782                            .dwattr $C$DW$158, DW_AT_low_pc(0x00)
    1783                            .dwattr $C$DW$158, DW_AT_name("VLIB_align_free")
    1784                            .dwattr $C$DW$158, DW_AT_TI_call
    1785                    
    1786 00000580 10000013!            CALLP   .S2     VLIB_align_free,B3
    1787 00000584 023d02e4  ||         LDW     .D2T1   *+SP(32),A4       ; |142| 
    1788                    
    1789                            .dwpsn  file "./../packages/ti/vlib/src/VLIB_convertUYVYint_to_YUV422pl/VLIB_convertUYVYint_to
    1790 00000588           $C$RL36:   ; CALL OCCURS {VLIB_align_free} {0}  ; |142| 
    1791 00000588           $C$DW$L$VLIB_convertUYVYint_to_YUV422pl_d$32$E:
    1792                    ;** --------------------------------------------------------------------------*
    1793 00000588           $C$DW$L$VLIB_convertUYVYint_to_YUV422pl_d$33$B:
    1794                    ;          EXCLUSIVE CPU CYCLES: 14
    1795 00000588 01800028!            MVKL    .S1     test_cases,A3
    1796 0000058c 01800068!            MVKH    .S1     test_cases,A3
    1797                            .dwpsn  file "./../packages/ti/vlib/src/VLIB_convertUYVYint_to_YUV422pl/VLIB_convertUYVYint_to
    1798 00000590 018c0264             LDW     .D1T1   *A3,A3            ; |51| 
    1799 00000594 07bc2058             ADD     .L1     1,A15,A15         ; |51| 
    1800                            .dwpsn  file "./../packages/ti/vlib/src/VLIB_convertUYVYint_to_YUV422pl/VLIB_convertUYVYint_to
    1801 00000598 05801050             ADDK    .S1     32,A11            ; |59| 
    1802                            .dwpsn  file "./../packages/ti/vlib/src/VLIB_convertUYVYint_to_YUV422pl/VLIB_convertUYVYint_to
    1803 0000059c 05801052             ADDK    .S2     32,B11            ; |51| 
    1804 000005a0 00000000             NOP             1
    1805 000005a4 003c68f8             CMPGT   .L1     A3,A15,A0         ; |51| 
    1806                    
    1807 000005a8 cfff5a11     [ A0]   B       .S1     $C$L1             ; |51| 
    1808 000005ac c22cc266  || [ A0]   LDW     .D1T2   *+A11(24),B4      ; |63| 
    1809                    
    1810                            .dwpsn  file "./../packages/ti/vlib/src/VLIB_convertUYVYint_to_YUV422pl/VLIB_convertUYVYint_to
    1811 000005b0 c52ce264     [ A0]   LDW     .D1T1   *+A11(28),A10     ; |59| 
    1812                            .dwpsn  file "./../packages/ti/vlib/src/VLIB_convertUYVYint_to_YUV422pl/VLIB_convertUYVYint_to
    1813 000005b4 c220a358     [ A0]   MVK     .L1     0x8,A4            ; |63| 
    1814                            .dwpsn  file "./../packages/ti/vlib/src/VLIB_convertUYVYint_to_YUV422pl/VLIB_convertUYVYint_to
    1815 000005b8 c62ca264     [ A0]   LDW     .D1T1   *+A11(20),A12     ; |59| 
TMS320C6x Assembler PC v7.4.2 Thu Mar 19 12:40:30 2015

Tools Copyright (c) 1996-2012 Texas Instruments Incorporated
package/lib/Regression/regress_d_c/./../packages/ti/vlib/src/VLIB_convertUYVYint_to_YUV422pl/VLIB_convertUYVYint_to_YUV422pl_d.se66 PAGE   34

    1816 000005bc 00002000             NOP             2
    1817                            .dwpsn  file "./../packages/ti/vlib/src/VLIB_convertUYVYint_to_YUV422pl/VLIB_convertUYVYint_to
    1818                               ; BRANCHCC OCCURS {$C$L1}         ; |51| 
    1819 000005c0           $C$DW$L$VLIB_convertUYVYint_to_YUV422pl_d$33$E:
    1820                    ;** --------------------------------------------------------------------------*
    1821 000005c0           $C$L9:    
    1822                    ;          EXCLUSIVE CPU CYCLES: 7
    1823                    ;**     -----------------------g18:
    1824                    ;** 146 -----------------------    VLIB_profile_setMode(1, 2, "pitch == width", 0);
    1825                    ;** 147 -----------------------    VLIB_profile_cycle_report(2, "N = width * height", C$1 = "width * h
    1826                    ;** 151 -----------------------    VLIB_profile_setMode(2, 3, "pitch > width", 1);
    1827                    ;** 152 -----------------------    VLIB_profile_cycle_report(2, "N = width * height; M = height", C$1)
    1828                    ;** 158 -----------------------    printf((const char *)"---------------------------------------------
    1829                    ;** 165 -----------------------    VLIB_stack_memory();  // [19]
    1830                    ;**     -----------------------    return;
    1831 000005c0 03000028!            MVKL    .S1     $C$SL4+0,A6
    1832                    $C$DW$159       .dwtag  DW_TAG_TI_branch
    1833                            .dwattr $C$DW$159, DW_AT_low_pc(0x00)
    1834                            .dwattr $C$DW$159, DW_AT_name("VLIB_profile_setMode")
    1835                            .dwattr $C$DW$159, DW_AT_TI_call
    1836                    
    1837 000005c4 10000013!            CALLP   .S2     VLIB_profile_setMode,B3
    1838 000005c8 03000069! ||         MVKH    .S1     $C$SL4+0,A6
    1839 000005cc     2626  ||         MVK     .L1     0x1,A4            ; |146| 
    1840 000005ce     4627  ||         MVK     .L2     0x2,B4            ; |146| 
    1841 000005d0 03000042  ||         ZERO    .D2     B6                ; |146| 
    1842                    
    1843                            .dwpsn  file "./../packages/ti/vlib/src/VLIB_convertUYVYint_to_YUV422pl/VLIB_convertUYVYint_to
    1844 000005d4           $C$RL37:   ; CALL OCCURS {VLIB_profile_setMode} {0}  ; |146| 
    1845                    ;** --------------------------------------------------------------------------*
    1846                    ;          EXCLUSIVE CPU CYCLES: 37
    1847                    
    1848 000005d4 05000029!            MVKL    .S1     $C$SL5+0,A10
    1849 000005d8 0200002a! ||         MVKL    .S2     $C$SL6+0,B4
    1850                    
    1851 000005e0 05000069!            MVKH    .S1     $C$SL5+0,A10
    1852 000005e4 0200006a! ||         MVKH    .S2     $C$SL6+0,B4
    1853                    
    1854                    $C$DW$160       .dwtag  DW_TAG_TI_branch
    1855                            .dwattr $C$DW$160, DW_AT_low_pc(0x00)
    1856                            .dwattr $C$DW$160, DW_AT_name("VLIB_profile_cycle_report")
    1857                            .dwattr $C$DW$160, DW_AT_TI_call
    1858                    
    1859 000005e8 10000013!            CALLP   .S2     VLIB_profile_cycle_report,B3
    1860 000005ec     c506  ||         MV      .L1     A10,A6            ; |147| 
    1861 000005ee     4212  ||         MVK     .S1     0x2,A4            ; |147| 
    1862                    
    1863                            .dwpsn  file "./../packages/ti/vlib/src/VLIB_convertUYVYint_to_YUV422pl/VLIB_convertUYVYint_to
    1864 000005f0           $C$RL38:   ; CALL OCCURS {VLIB_profile_cycle_report} {0}  ; |147| 
    1865 000005f0 03000028!            MVKL    .S1     $C$SL7+0,A6
    1866                    $C$DW$161       .dwtag  DW_TAG_TI_branch
    1867                            .dwattr $C$DW$161, DW_AT_low_pc(0x00)
    1868                            .dwattr $C$DW$161, DW_AT_name("VLIB_profile_setMode")
    1869                            .dwattr $C$DW$161, DW_AT_TI_call
    1870                    
TMS320C6x Assembler PC v7.4.2 Thu Mar 19 12:40:30 2015

Tools Copyright (c) 1996-2012 Texas Instruments Incorporated
package/lib/Regression/regress_d_c/./../packages/ti/vlib/src/VLIB_convertUYVYint_to_YUV422pl/VLIB_convertUYVYint_to_YUV422pl_d.se66 PAGE   35

    1871 000005f4 10000013!            CALLP   .S2     VLIB_profile_setMode,B3
    1872 000005f8 03000069! ||         MVKH    .S1     $C$SL7+0,A6
    1873 00000600     2727  ||         MVK     .L2     0x1,B6            ; |151| 
    1874 00000602     4626  ||         MVK     .L1     0x2,A4            ; |151| 
    1875 00000604 02006042  ||         MVK     .D2     0x3,B4            ; |151| 
    1876                    
    1877                            .dwpsn  file "./../packages/ti/vlib/src/VLIB_convertUYVYint_to_YUV422pl/VLIB_convertUYVYint_to
    1878 00000608           $C$RL39:   ; CALL OCCURS {VLIB_profile_setMode} {0}  ; |151| 
    1879 00000608 0200002a!            MVKL    .S2     $C$SL8+0,B4
    1880 0000060c 0200006a!            MVKH    .S2     $C$SL8+0,B4
    1881                    $C$DW$162       .dwtag  DW_TAG_TI_branch
    1882                            .dwattr $C$DW$162, DW_AT_low_pc(0x00)
    1883                            .dwattr $C$DW$162, DW_AT_name("VLIB_profile_cycle_report")
    1884                            .dwattr $C$DW$162, DW_AT_TI_call
    1885                    
    1886 00000610 10000013!            CALLP   .S2     VLIB_profile_cycle_report,B3
    1887 00000614     c506  ||         MV      .L1     A10,A6            ; |152| 
    1888 00000616     4212  ||         MVK     .S1     0x2,A4            ; |152| 
    1889                    
    1890                            .dwpsn  file "./../packages/ti/vlib/src/VLIB_convertUYVYint_to_YUV422pl/VLIB_convertUYVYint_to
    1891 00000618           $C$RL40:   ; CALL OCCURS {VLIB_profile_cycle_report} {0}  ; |152| 
    1892 00000618 01800028!            MVKL    .S1     $C$SL9+0,A3
    1893 00000620 01800068!            MVKH    .S1     $C$SL9+0,A3
    1894                    $C$DW$163       .dwtag  DW_TAG_TI_branch
    1895                            .dwattr $C$DW$163, DW_AT_low_pc(0x00)
    1896                            .dwattr $C$DW$163, DW_AT_name("printf")
    1897                            .dwattr $C$DW$163, DW_AT_TI_call
    1898                    
    1899 00000624 10000013!            CALLP   .S2     printf,B3
    1900 00000628 01bc22f4  ||         STW     .D2T1   A3,*+SP(4)        ; |158| 
    1901                    
    1902                            .dwpsn  file ".\..\packages\ti\vlib\src\VLIB_convertUYVYint_to_YUV422pl\../common/VLIB_memory.
    1903                    $C$RL41:   ; CALL OCCURS {printf} {0}        ; |158| 
    1904                    $C$DW$164       .dwtag  DW_TAG_TI_branch
    1905                            .dwattr $C$DW$164, DW_AT_low_pc(0x00)
    1906                            .dwattr $C$DW$164, DW_AT_name("VLIB_stack_memory")
    1907                            .dwattr $C$DW$164, DW_AT_TI_call
    1908 0000062c 10000012!            CALLP   .S2     VLIB_stack_memory,B3
    1909                            .dwpsn  file ".\..\packages\ti\vlib\src\VLIB_convertUYVYint_to_YUV422pl\../common/VLIB_memory.
    1910 00000630           $C$RL42:   ; CALL OCCURS {VLIB_stack_memory} {0}  ; |165| 
    1911                    ;** --------------------------------------------------------------------------*
    1912                    ;          EXCLUSIVE CPU CYCLES: 13
    1913                            .dwpsn  file "./../packages/ti/vlib/src/VLIB_convertUYVYint_to_YUV422pl/VLIB_convertUYVYint_to
    1914 00000630 01be12e6             LDW     .D2T2   *++SP(64),B3      ; |158| 
    1915                            .dwcfi  cfa_offset, 48
    1916                            .dwcfi  restore_reg, 19
    1917 00000634     c677             LDDW    .D2T1   *++SP,A13:A12
    1918                            .dwcfi  cfa_offset, 40
    1919                            .dwcfi  restore_reg, 13
    1920                            .dwcfi  restore_reg, 12
    1921 00000636     c777             LDDW    .D2T1   *++SP,A15:A14
    1922                            .dwcfi  cfa_offset, 32
    1923                            .dwcfi  restore_reg, 15
    1924                            .dwcfi  restore_reg, 14
    1925 00000638     d577             LDDW    .D2T2   *++SP,B11:B10
TMS320C6x Assembler PC v7.4.2 Thu Mar 19 12:40:30 2015

Tools Copyright (c) 1996-2012 Texas Instruments Incorporated
package/lib/Regression/regress_d_c/./../packages/ti/vlib/src/VLIB_convertUYVYint_to_YUV422pl/VLIB_convertUYVYint_to_YUV422pl_d.se66 PAGE   36

    1926                            .dwcfi  cfa_offset, 24
    1927                            .dwcfi  restore_reg, 27
    1928                            .dwcfi  restore_reg, 26
    1929 0000063a     d677             LDDW    .D2T2   *++SP,B13:B12
    1930                            .dwcfi  cfa_offset, 16
    1931                            .dwcfi  restore_reg, 29
    1932                            .dwcfi  restore_reg, 28
    1933 00000640 053c52e4             LDW     .D2T1   *++SP(8),A10
    1934                            .dwcfi  cfa_offset, 8
    1935                            .dwcfi  restore_reg, 10
    1936 00000644 05bc52e4             LDW     .D2T1   *++SP(8),A11      ; |158| 
    1937                            .dwcfi  cfa_offset, 0
    1938                            .dwcfi  restore_reg, 11
    1939                            .dwcfi  cfa_offset, 0
    1940                    $C$DW$165       .dwtag  DW_TAG_TI_branch
    1941                            .dwattr $C$DW$165, DW_AT_low_pc(0x00)
    1942                            .dwattr $C$DW$165, DW_AT_TI_return
    1943 00000648 008ca362             RETNOP  .S2     B3,5
    1944                               ; BRANCH OCCURS {B3}  
    1945                    
    1946                    $C$DW$166       .dwtag  DW_TAG_TI_loop
    1947                            .dwattr $C$DW$166, DW_AT_name("c:\nightlybuilds\vlib\ti\vlib\vlib\examples\package/lib/Regress
    1948                            .dwattr $C$DW$166, DW_AT_TI_begin_file("./../packages/ti/vlib/src/VLIB_convertUYVYint_to_YUV42
    1949                            .dwattr $C$DW$166, DW_AT_TI_begin_line(0x33)
    1950                            .dwattr $C$DW$166, DW_AT_TI_end_line(0x8f)
    1951                    $C$DW$167       .dwtag  DW_TAG_TI_loop_range
    1952                            .dwattr $C$DW$167, DW_AT_low_pc($C$DW$L$VLIB_convertUYVYint_to_YUV422pl_d$5$B)
    1953                            .dwattr $C$DW$167, DW_AT_high_pc($C$DW$L$VLIB_convertUYVYint_to_YUV422pl_d$5$E)
    1954                    $C$DW$168       .dwtag  DW_TAG_TI_loop_range
    1955                            .dwattr $C$DW$168, DW_AT_low_pc($C$DW$L$VLIB_convertUYVYint_to_YUV422pl_d$29$B)
    1956                            .dwattr $C$DW$168, DW_AT_high_pc($C$DW$L$VLIB_convertUYVYint_to_YUV422pl_d$29$E)
    1957                    $C$DW$169       .dwtag  DW_TAG_TI_loop_range
    1958                            .dwattr $C$DW$169, DW_AT_low_pc($C$DW$L$VLIB_convertUYVYint_to_YUV422pl_d$18$B)
    1959                            .dwattr $C$DW$169, DW_AT_high_pc($C$DW$L$VLIB_convertUYVYint_to_YUV422pl_d$18$E)
    1960                    $C$DW$170       .dwtag  DW_TAG_TI_loop_range
    1961                            .dwattr $C$DW$170, DW_AT_low_pc($C$DW$L$VLIB_convertUYVYint_to_YUV422pl_d$19$B)
    1962                            .dwattr $C$DW$170, DW_AT_high_pc($C$DW$L$VLIB_convertUYVYint_to_YUV422pl_d$19$E)
    1963                    $C$DW$171       .dwtag  DW_TAG_TI_loop_range
    1964                            .dwattr $C$DW$171, DW_AT_low_pc($C$DW$L$VLIB_convertUYVYint_to_YUV422pl_d$20$B)
    1965                            .dwattr $C$DW$171, DW_AT_high_pc($C$DW$L$VLIB_convertUYVYint_to_YUV422pl_d$20$E)
    1966                    $C$DW$172       .dwtag  DW_TAG_TI_loop_range
    1967                            .dwattr $C$DW$172, DW_AT_low_pc($C$DW$L$VLIB_convertUYVYint_to_YUV422pl_d$21$B)
    1968                            .dwattr $C$DW$172, DW_AT_high_pc($C$DW$L$VLIB_convertUYVYint_to_YUV422pl_d$21$E)
    1969                    $C$DW$173       .dwtag  DW_TAG_TI_loop_range
    1970                            .dwattr $C$DW$173, DW_AT_low_pc($C$DW$L$VLIB_convertUYVYint_to_YUV422pl_d$22$B)
    1971                            .dwattr $C$DW$173, DW_AT_high_pc($C$DW$L$VLIB_convertUYVYint_to_YUV422pl_d$22$E)
    1972                    $C$DW$174       .dwtag  DW_TAG_TI_loop_range
    1973                            .dwattr $C$DW$174, DW_AT_low_pc($C$DW$L$VLIB_convertUYVYint_to_YUV422pl_d$23$B)
    1974                            .dwattr $C$DW$174, DW_AT_high_pc($C$DW$L$VLIB_convertUYVYint_to_YUV422pl_d$23$E)
    1975                    $C$DW$175       .dwtag  DW_TAG_TI_loop_range
    1976                            .dwattr $C$DW$175, DW_AT_low_pc($C$DW$L$VLIB_convertUYVYint_to_YUV422pl_d$24$B)
    1977                            .dwattr $C$DW$175, DW_AT_high_pc($C$DW$L$VLIB_convertUYVYint_to_YUV422pl_d$24$E)
    1978                    $C$DW$176       .dwtag  DW_TAG_TI_loop_range
    1979                            .dwattr $C$DW$176, DW_AT_low_pc($C$DW$L$VLIB_convertUYVYint_to_YUV422pl_d$6$B)
    1980                            .dwattr $C$DW$176, DW_AT_high_pc($C$DW$L$VLIB_convertUYVYint_to_YUV422pl_d$6$E)
TMS320C6x Assembler PC v7.4.2 Thu Mar 19 12:40:30 2015

Tools Copyright (c) 1996-2012 Texas Instruments Incorporated
package/lib/Regression/regress_d_c/./../packages/ti/vlib/src/VLIB_convertUYVYint_to_YUV422pl/VLIB_convertUYVYint_to_YUV422pl_d.se66 PAGE   37

    1981                    $C$DW$177       .dwtag  DW_TAG_TI_loop_range
    1982                            .dwattr $C$DW$177, DW_AT_low_pc($C$DW$L$VLIB_convertUYVYint_to_YUV422pl_d$7$B)
    1983                            .dwattr $C$DW$177, DW_AT_high_pc($C$DW$L$VLIB_convertUYVYint_to_YUV422pl_d$7$E)
    1984                    $C$DW$178       .dwtag  DW_TAG_TI_loop_range
    1985                            .dwattr $C$DW$178, DW_AT_low_pc($C$DW$L$VLIB_convertUYVYint_to_YUV422pl_d$8$B)
    1986                            .dwattr $C$DW$178, DW_AT_high_pc($C$DW$L$VLIB_convertUYVYint_to_YUV422pl_d$8$E)
    1987                    $C$DW$179       .dwtag  DW_TAG_TI_loop_range
    1988                            .dwattr $C$DW$179, DW_AT_low_pc($C$DW$L$VLIB_convertUYVYint_to_YUV422pl_d$9$B)
    1989                            .dwattr $C$DW$179, DW_AT_high_pc($C$DW$L$VLIB_convertUYVYint_to_YUV422pl_d$9$E)
    1990                    $C$DW$180       .dwtag  DW_TAG_TI_loop_range
    1991                            .dwattr $C$DW$180, DW_AT_low_pc($C$DW$L$VLIB_convertUYVYint_to_YUV422pl_d$10$B)
    1992                            .dwattr $C$DW$180, DW_AT_high_pc($C$DW$L$VLIB_convertUYVYint_to_YUV422pl_d$10$E)
    1993                    $C$DW$181       .dwtag  DW_TAG_TI_loop_range
    1994                            .dwattr $C$DW$181, DW_AT_low_pc($C$DW$L$VLIB_convertUYVYint_to_YUV422pl_d$11$B)
    1995                            .dwattr $C$DW$181, DW_AT_high_pc($C$DW$L$VLIB_convertUYVYint_to_YUV422pl_d$11$E)
    1996                    $C$DW$182       .dwtag  DW_TAG_TI_loop_range
    1997                            .dwattr $C$DW$182, DW_AT_low_pc($C$DW$L$VLIB_convertUYVYint_to_YUV422pl_d$12$B)
    1998                            .dwattr $C$DW$182, DW_AT_high_pc($C$DW$L$VLIB_convertUYVYint_to_YUV422pl_d$12$E)
    1999                    $C$DW$183       .dwtag  DW_TAG_TI_loop_range
    2000                            .dwattr $C$DW$183, DW_AT_low_pc($C$DW$L$VLIB_convertUYVYint_to_YUV422pl_d$13$B)
    2001                            .dwattr $C$DW$183, DW_AT_high_pc($C$DW$L$VLIB_convertUYVYint_to_YUV422pl_d$13$E)
    2002                    $C$DW$184       .dwtag  DW_TAG_TI_loop_range
    2003                            .dwattr $C$DW$184, DW_AT_low_pc($C$DW$L$VLIB_convertUYVYint_to_YUV422pl_d$14$B)
    2004                            .dwattr $C$DW$184, DW_AT_high_pc($C$DW$L$VLIB_convertUYVYint_to_YUV422pl_d$14$E)
    2005                    $C$DW$185       .dwtag  DW_TAG_TI_loop_range
    2006                            .dwattr $C$DW$185, DW_AT_low_pc($C$DW$L$VLIB_convertUYVYint_to_YUV422pl_d$15$B)
    2007                            .dwattr $C$DW$185, DW_AT_high_pc($C$DW$L$VLIB_convertUYVYint_to_YUV422pl_d$15$E)
    2008                    $C$DW$186       .dwtag  DW_TAG_TI_loop_range
    2009                            .dwattr $C$DW$186, DW_AT_low_pc($C$DW$L$VLIB_convertUYVYint_to_YUV422pl_d$16$B)
    2010                            .dwattr $C$DW$186, DW_AT_high_pc($C$DW$L$VLIB_convertUYVYint_to_YUV422pl_d$16$E)
    2011                    $C$DW$187       .dwtag  DW_TAG_TI_loop_range
    2012                            .dwattr $C$DW$187, DW_AT_low_pc($C$DW$L$VLIB_convertUYVYint_to_YUV422pl_d$17$B)
    2013                            .dwattr $C$DW$187, DW_AT_high_pc($C$DW$L$VLIB_convertUYVYint_to_YUV422pl_d$17$E)
    2014                    $C$DW$188       .dwtag  DW_TAG_TI_loop_range
    2015                            .dwattr $C$DW$188, DW_AT_low_pc($C$DW$L$VLIB_convertUYVYint_to_YUV422pl_d$25$B)
    2016                            .dwattr $C$DW$188, DW_AT_high_pc($C$DW$L$VLIB_convertUYVYint_to_YUV422pl_d$25$E)
    2017                    $C$DW$189       .dwtag  DW_TAG_TI_loop_range
    2018                            .dwattr $C$DW$189, DW_AT_low_pc($C$DW$L$VLIB_convertUYVYint_to_YUV422pl_d$26$B)
    2019                            .dwattr $C$DW$189, DW_AT_high_pc($C$DW$L$VLIB_convertUYVYint_to_YUV422pl_d$26$E)
    2020                    $C$DW$190       .dwtag  DW_TAG_TI_loop_range
    2021                            .dwattr $C$DW$190, DW_AT_low_pc($C$DW$L$VLIB_convertUYVYint_to_YUV422pl_d$27$B)
    2022                            .dwattr $C$DW$190, DW_AT_high_pc($C$DW$L$VLIB_convertUYVYint_to_YUV422pl_d$27$E)
    2023                    $C$DW$191       .dwtag  DW_TAG_TI_loop_range
    2024                            .dwattr $C$DW$191, DW_AT_low_pc($C$DW$L$VLIB_convertUYVYint_to_YUV422pl_d$28$B)
    2025                            .dwattr $C$DW$191, DW_AT_high_pc($C$DW$L$VLIB_convertUYVYint_to_YUV422pl_d$28$E)
    2026                    $C$DW$192       .dwtag  DW_TAG_TI_loop_range
    2027                            .dwattr $C$DW$192, DW_AT_low_pc($C$DW$L$VLIB_convertUYVYint_to_YUV422pl_d$30$B)
    2028                            .dwattr $C$DW$192, DW_AT_high_pc($C$DW$L$VLIB_convertUYVYint_to_YUV422pl_d$30$E)
    2029                    $C$DW$193       .dwtag  DW_TAG_TI_loop_range
    2030                            .dwattr $C$DW$193, DW_AT_low_pc($C$DW$L$VLIB_convertUYVYint_to_YUV422pl_d$31$B)
    2031                            .dwattr $C$DW$193, DW_AT_high_pc($C$DW$L$VLIB_convertUYVYint_to_YUV422pl_d$31$E)
    2032                    $C$DW$194       .dwtag  DW_TAG_TI_loop_range
    2033                            .dwattr $C$DW$194, DW_AT_low_pc($C$DW$L$VLIB_convertUYVYint_to_YUV422pl_d$32$B)
    2034                            .dwattr $C$DW$194, DW_AT_high_pc($C$DW$L$VLIB_convertUYVYint_to_YUV422pl_d$32$E)
    2035                    $C$DW$195       .dwtag  DW_TAG_TI_loop_range
TMS320C6x Assembler PC v7.4.2 Thu Mar 19 12:40:30 2015

Tools Copyright (c) 1996-2012 Texas Instruments Incorporated
package/lib/Regression/regress_d_c/./../packages/ti/vlib/src/VLIB_convertUYVYint_to_YUV422pl/VLIB_convertUYVYint_to_YUV422pl_d.se66 PAGE   38

    2036                            .dwattr $C$DW$195, DW_AT_low_pc($C$DW$L$VLIB_convertUYVYint_to_YUV422pl_d$33$B)
    2037                            .dwattr $C$DW$195, DW_AT_high_pc($C$DW$L$VLIB_convertUYVYint_to_YUV422pl_d$33$E)
    2038                            .dwendtag $C$DW$166
    2039                    
    2040                            .dwattr $C$DW$89, DW_AT_TI_end_file("./../packages/ti/vlib/src/VLIB_convertUYVYint_to_YUV422pl
    2041                            .dwattr $C$DW$89, DW_AT_TI_end_line(0x9e)
    2042                            .dwattr $C$DW$89, DW_AT_TI_end_column(0x01)
    2043                            .dwendentry
    2044                            .dwendtag $C$DW$89
    2045                    
    2046                    ;; Inlined function references:
    2047                    ;; [ 15] VLIB_profile_start
    2048                    ;; [ 16] VLIB_profile_stop
    2049                    ;; [ 19] VLIB_kernel_memory
    2050                    ;******************************************************************************
    2051                    ;* STRINGS                                                                    *
    2052                    ;******************************************************************************
    2053 00000000                   .sect   ".const:.string"
    2054 00000000 00000056  $C$SL1: .string "VLIB_convertUYVYint_to_YUV422pl",0
         00000001 0000004C 
         00000002 00000049 
         00000003 00000042 
         00000004 0000005F 
         00000005 00000063 
         00000006 0000006F 
         00000007 0000006E 
         00000008 00000076 
         00000009 00000065 
         0000000a 00000072 
         0000000b 00000074 
         0000000c 00000055 
         0000000d 00000059 
         0000000e 00000056 
         0000000f 00000059 
         00000010 00000069 
         00000011 0000006E 
         00000012 00000074 
         00000013 0000005F 
         00000014 00000074 
         00000015 0000006F 
         00000016 0000005F 
         00000017 00000059 
         00000018 00000055 
         00000019 00000056 
         0000001a 00000034 
         0000001b 00000032 
         0000001c 00000032 
         0000001d 00000070 
         0000001e 0000006C 
         0000001f 00000000 
    2055 00000020 00000025  $C$SL2: .string "%s generated input | Opt results compared to NatC results |"
         00000021 00000073 
         00000022 00000020 
         00000023 00000067 
         00000024 00000065 
TMS320C6x Assembler PC v7.4.2 Thu Mar 19 12:40:30 2015

Tools Copyright (c) 1996-2012 Texas Instruments Incorporated
package/lib/Regression/regress_d_c/./../packages/ti/vlib/src/VLIB_convertUYVYint_to_YUV422pl/VLIB_convertUYVYint_to_YUV422pl_d.se66 PAGE   39

         00000025 0000006E 
         00000026 00000065 
         00000027 00000072 
         00000028 00000061 
         00000029 00000074 
         0000002a 00000065 
         0000002b 00000064 
         0000002c 00000020 
         0000002d 00000069 
         0000002e 0000006E 
         0000002f 00000070 
         00000030 00000075 
         00000031 00000074 
         00000032 00000020 
         00000033 0000007C 
         00000034 00000020 
         00000035 0000004F 
         00000036 00000070 
         00000037 00000074 
         00000038 00000020 
         00000039 00000072 
         0000003a 00000065 
         0000003b 00000073 
         0000003c 00000075 
         0000003d 0000006C 
         0000003e 00000074 
         0000003f 00000073 
         00000040 00000020 
         00000041 00000063 
         00000042 0000006F 
         00000043 0000006D 
         00000044 00000070 
         00000045 00000061 
         00000046 00000072 
         00000047 00000065 
         00000048 00000064 
         00000049 00000020 
         0000004a 00000074 
         0000004b 0000006F 
         0000004c 00000020 
         0000004d 0000004E 
         0000004e 00000061 
         0000004f 00000074 
         00000050 00000043 
         00000051 00000020 
         00000052 00000072 
         00000053 00000065 
         00000054 00000073 
         00000055 00000075 
         00000056 0000006C 
         00000057 00000074 
         00000058 00000073 
         00000059 00000020 
         0000005a 0000007C 
    2056 0000005b 00000020          .string " width=%d, pitch=%d, height=%d, num_pts=%d",0
TMS320C6x Assembler PC v7.4.2 Thu Mar 19 12:40:30 2015

Tools Copyright (c) 1996-2012 Texas Instruments Incorporated
package/lib/Regression/regress_d_c/./../packages/ti/vlib/src/VLIB_convertUYVYint_to_YUV422pl/VLIB_convertUYVYint_to_YUV422pl_d.se66 PAGE   40

         0000005c 00000077 
         0000005d 00000069 
         0000005e 00000064 
         0000005f 00000074 
         00000060 00000068 
         00000061 0000003D 
         00000062 00000025 
         00000063 00000064 
         00000064 0000002C 
         00000065 00000020 
         00000066 00000070 
         00000067 00000069 
         00000068 00000074 
         00000069 00000063 
         0000006a 00000068 
         0000006b 0000003D 
         0000006c 00000025 
         0000006d 00000064 
         0000006e 0000002C 
         0000006f 00000020 
         00000070 00000068 
         00000071 00000065 
         00000072 00000069 
         00000073 00000067 
         00000074 00000068 
         00000075 00000074 
         00000076 0000003D 
         00000077 00000025 
         00000078 00000064 
         00000079 0000002C 
         0000007a 00000020 
         0000007b 0000006E 
         0000007c 00000075 
         0000007d 0000006D 
         0000007e 0000005F 
         0000007f 00000070 
         00000080 00000074 
         00000081 00000073 
         00000082 0000003D 
         00000083 00000025 
         00000084 00000064 
         00000085 00000000 
    2057 00000086 00000077  $C$SL3: .string "width=%d, pitch=%d, height=%d, num_pts=%d",0
         00000087 00000069 
         00000088 00000064 
         00000089 00000074 
         0000008a 00000068 
         0000008b 0000003D 
         0000008c 00000025 
         0000008d 00000064 
         0000008e 0000002C 
         0000008f 00000020 
         00000090 00000070 
         00000091 00000069 
         00000092 00000074 
TMS320C6x Assembler PC v7.4.2 Thu Mar 19 12:40:30 2015

Tools Copyright (c) 1996-2012 Texas Instruments Incorporated
package/lib/Regression/regress_d_c/./../packages/ti/vlib/src/VLIB_convertUYVYint_to_YUV422pl/VLIB_convertUYVYint_to_YUV422pl_d.se66 PAGE   41

         00000093 00000063 
         00000094 00000068 
         00000095 0000003D 
         00000096 00000025 
         00000097 00000064 
         00000098 0000002C 
         00000099 00000020 
         0000009a 00000068 
         0000009b 00000065 
         0000009c 00000069 
         0000009d 00000067 
         0000009e 00000068 
         0000009f 00000074 
         000000a0 0000003D 
         000000a1 00000025 
         000000a2 00000064 
         000000a3 0000002C 
         000000a4 00000020 
         000000a5 0000006E 
         000000a6 00000075 
         000000a7 0000006D 
         000000a8 0000005F 
         000000a9 00000070 
         000000aa 00000074 
         000000ab 00000073 
         000000ac 0000003D 
         000000ad 00000025 
         000000ae 00000064 
         000000af 00000000 
    2058 000000b0 00000070  $C$SL4: .string "pitch == width",0
         000000b1 00000069 
         000000b2 00000074 
         000000b3 00000063 
         000000b4 00000068 
         000000b5 00000020 
         000000b6 0000003D 
         000000b7 0000003D 
         000000b8 00000020 
         000000b9 00000077 
         000000ba 00000069 
         000000bb 00000064 
         000000bc 00000074 
         000000bd 00000068 
         000000be 00000000 
    2059 000000bf 00000077  $C$SL5: .string "width * height",0
         000000c0 00000069 
         000000c1 00000064 
         000000c2 00000074 
         000000c3 00000068 
         000000c4 00000020 
         000000c5 0000002A 
         000000c6 00000020 
         000000c7 00000068 
         000000c8 00000065 
         000000c9 00000069 
TMS320C6x Assembler PC v7.4.2 Thu Mar 19 12:40:30 2015

Tools Copyright (c) 1996-2012 Texas Instruments Incorporated
package/lib/Regression/regress_d_c/./../packages/ti/vlib/src/VLIB_convertUYVYint_to_YUV422pl/VLIB_convertUYVYint_to_YUV422pl_d.se66 PAGE   42

         000000ca 00000067 
         000000cb 00000068 
         000000cc 00000074 
         000000cd 00000000 
    2060 000000ce 0000004E  $C$SL6: .string "N = width * height",0
         000000cf 00000020 
         000000d0 0000003D 
         000000d1 00000020 
         000000d2 00000077 
         000000d3 00000069 
         000000d4 00000064 
         000000d5 00000074 
         000000d6 00000068 
         000000d7 00000020 
         000000d8 0000002A 
         000000d9 00000020 
         000000da 00000068 
         000000db 00000065 
         000000dc 00000069 
         000000dd 00000067 
         000000de 00000068 
         000000df 00000074 
         000000e0 00000000 
    2061 000000e1 00000070  $C$SL7: .string "pitch > width",0
         000000e2 00000069 
         000000e3 00000074 
         000000e4 00000063 
         000000e5 00000068 
         000000e6 00000020 
         000000e7 0000003E 
         000000e8 00000020 
         000000e9 00000077 
         000000ea 00000069 
         000000eb 00000064 
         000000ec 00000074 
         000000ed 00000068 
         000000ee 00000000 
    2062 000000ef 0000004E  $C$SL8: .string "N = width * height; M = height",0
         000000f0 00000020 
         000000f1 0000003D 
         000000f2 00000020 
         000000f3 00000077 
         000000f4 00000069 
         000000f5 00000064 
         000000f6 00000074 
         000000f7 00000068 
         000000f8 00000020 
         000000f9 0000002A 
         000000fa 00000020 
         000000fb 00000068 
         000000fc 00000065 
         000000fd 00000069 
         000000fe 00000067 
         000000ff 00000068 
         00000100 00000074 
TMS320C6x Assembler PC v7.4.2 Thu Mar 19 12:40:30 2015

Tools Copyright (c) 1996-2012 Texas Instruments Incorporated
package/lib/Regression/regress_d_c/./../packages/ti/vlib/src/VLIB_convertUYVYint_to_YUV422pl/VLIB_convertUYVYint_to_YUV422pl_d.se66 PAGE   43

         00000101 0000003B 
         00000102 00000020 
         00000103 0000004D 
         00000104 00000020 
         00000105 0000003D 
         00000106 00000020 
         00000107 00000068 
         00000108 00000065 
         00000109 00000069 
         0000010a 00000067 
         0000010b 00000068 
         0000010c 00000074 
         0000010d 00000000 
    2063 0000010e 0000002D  $C$SL9: .string "-----------------------------------------------------------"
         0000010f 0000002D 
         00000110 0000002D 
         00000111 0000002D 
         00000112 0000002D 
         00000113 0000002D 
         00000114 0000002D 
         00000115 0000002D 
         00000116 0000002D 
         00000117 0000002D 
         00000118 0000002D 
         00000119 0000002D 
         0000011a 0000002D 
         0000011b 0000002D 
         0000011c 0000002D 
         0000011d 0000002D 
         0000011e 0000002D 
         0000011f 0000002D 
         00000120 0000002D 
         00000121 0000002D 
         00000122 0000002D 
         00000123 0000002D 
         00000124 0000002D 
         00000125 0000002D 
         00000126 0000002D 
         00000127 0000002D 
         00000128 0000002D 
         00000129 0000002D 
         0000012a 0000002D 
         0000012b 0000002D 
         0000012c 0000002D 
         0000012d 0000002D 
         0000012e 0000002D 
         0000012f 0000002D 
         00000130 0000002D 
         00000131 0000002D 
         00000132 0000002D 
         00000133 0000002D 
         00000134 0000002D 
         00000135 0000002D 
         00000136 0000002D 
         00000137 0000002D 
TMS320C6x Assembler PC v7.4.2 Thu Mar 19 12:40:30 2015

Tools Copyright (c) 1996-2012 Texas Instruments Incorporated
package/lib/Regression/regress_d_c/./../packages/ti/vlib/src/VLIB_convertUYVYint_to_YUV422pl/VLIB_convertUYVYint_to_YUV422pl_d.se66 PAGE   44

         00000138 0000002D 
         00000139 0000002D 
         0000013a 0000002D 
         0000013b 0000002D 
         0000013c 0000002D 
         0000013d 0000002D 
         0000013e 0000002D 
         0000013f 0000002D 
         00000140 0000002D 
         00000141 0000002D 
         00000142 0000002D 
         00000143 0000002D 
         00000144 0000002D 
         00000145 0000002D 
         00000146 0000002D 
         00000147 0000002D 
         00000148 0000002D 
    2064 00000149 0000002D          .string "-----------------------------------------------------------"
         0000014a 0000002D 
         0000014b 0000002D 
         0000014c 0000002D 
         0000014d 0000002D 
         0000014e 0000002D 
         0000014f 0000002D 
         00000150 0000002D 
         00000151 0000002D 
         00000152 0000002D 
         00000153 0000002D 
         00000154 0000002D 
         00000155 0000002D 
         00000156 0000002D 
         00000157 0000002D 
         00000158 0000002D 
         00000159 0000002D 
         0000015a 0000002D 
         0000015b 0000002D 
         0000015c 0000002D 
         0000015d 0000002D 
         0000015e 0000002D 
         0000015f 0000002D 
         00000160 0000002D 
         00000161 0000002D 
         00000162 0000002D 
         00000163 0000002D 
         00000164 0000002D 
         00000165 0000002D 
         00000166 0000002D 
         00000167 0000002D 
         00000168 0000002D 
         00000169 0000002D 
         0000016a 0000002D 
         0000016b 0000002D 
         0000016c 0000002D 
         0000016d 0000002D 
         0000016e 0000002D 
TMS320C6x Assembler PC v7.4.2 Thu Mar 19 12:40:30 2015

Tools Copyright (c) 1996-2012 Texas Instruments Incorporated
package/lib/Regression/regress_d_c/./../packages/ti/vlib/src/VLIB_convertUYVYint_to_YUV422pl/VLIB_convertUYVYint_to_YUV422pl_d.se66 PAGE   45

         0000016f 0000002D 
         00000170 0000002D 
         00000171 0000002D 
         00000172 0000002D 
         00000173 0000002D 
         00000174 0000002D 
         00000175 0000002D 
         00000176 0000002D 
         00000177 0000002D 
         00000178 0000002D 
         00000179 0000002D 
         0000017a 0000002D 
         0000017b 0000002D 
         0000017c 0000002D 
         0000017d 0000002D 
         0000017e 0000002D 
         0000017f 0000002D 
         00000180 0000002D 
         00000181 0000002D 
         00000182 0000002D 
         00000183 0000002D 
    2065 00000184 0000002D          .string "-----------------------",10,0
         00000185 0000002D 
         00000186 0000002D 
         00000187 0000002D 
         00000188 0000002D 
         00000189 0000002D 
         0000018a 0000002D 
         0000018b 0000002D 
         0000018c 0000002D 
         0000018d 0000002D 
         0000018e 0000002D 
         0000018f 0000002D 
         00000190 0000002D 
         00000191 0000002D 
         00000192 0000002D 
         00000193 0000002D 
         00000194 0000002D 
         00000195 0000002D 
         00000196 0000002D 
         00000197 0000002D 
         00000198 0000002D 
         00000199 0000002D 
         0000019a 0000002D 
         0000019b 0000000A 
         0000019c 00000000 
    2066                    ;*****************************************************************************
    2067                    ;* UNDEFINED EXTERNAL REFERENCES                                             *
    2068                    ;*****************************************************************************
    2069                            .global printf
    2070                            .global sprintf
    2071                            .global malloc
    2072                            .global free
    2073                            .global VLIB_cache_inval
    2074                            .global VLIB_profile_init
TMS320C6x Assembler PC v7.4.2 Thu Mar 19 12:40:30 2015

Tools Copyright (c) 1996-2012 Texas Instruments Incorporated
package/lib/Regression/regress_d_c/./../packages/ti/vlib/src/VLIB_convertUYVYint_to_YUV422pl/VLIB_convertUYVYint_to_YUV422pl_d.se66 PAGE   46

    2075                            .global VLIB_profile_setMode
    2076                            .global VLIB_formula_add_test
    2077                            .global VLIB_skip_test
    2078                            .global VLIB_profile_cycle_report
    2079                            .global initStack
    2080                            .global setStackDepth
    2081                            .global getSP
    2082                            .global VLIB_stack_memory
    2083                            .global VLIB_compare_mem
    2084                            .global VLIB_fillBuffer
    2085                            .global VLIB_memalign
    2086                            .global VLIB_align_free
    2087                            .global VLIB_convertUYVYint_to_YUV422pl
    2088                            .global VLIB_convertUYVYint_to_YUV422pl_cn
    2089                            .global UYVYint_to_YUV422pl_getTestParams
    2090                            .global test_cases
    2091                            .global act_kernel
    2092                            .global desc
    2093                            .global testPatternString
    2094                            .global est_test
    2095                            .global beg_count
    2096                            .global end_count
    2097                            .global overhead
    2098                            .global cycles
    2099                    
    2100                    ;******************************************************************************
    2101                    ;* BUILD ATTRIBUTES                                                           *
    2102                    ;******************************************************************************
    2103                            .battr "TI", Tag_File, 1, Tag_Long_Precision_Bits(2)
    2104                            .battr "TI", Tag_File, 1, Tag_Bitfield_layout(2)
    2105                            .battr "TI", Tag_File, 1, Tag_ABI_enum_size(2)
    2106                            .battr "c6xabi", Tag_File, 1, Tag_ABI_wchar_t(1)
    2107                            .battr "c6xabi", Tag_File, 1, Tag_ABI_array_object_alignment(0)
    2108                            .battr "c6xabi", Tag_File, 1, Tag_ABI_array_object_align_expected(0)
    2109                            .battr "c6xabi", Tag_File, 1, Tag_ABI_PIC(0)
    2110                            .battr "c6xabi", Tag_File, 1, Tag_ABI_PID(0)
    2111                            .battr "c6xabi", Tag_File, 1, Tag_ABI_DSBT(0)
    2112                            .battr "c6xabi", Tag_File, 1, Tag_ABI_stack_align_needed(0)
    2113                            .battr "c6xabi", Tag_File, 1, Tag_ABI_stack_align_preserved(0)
    2114                            .battr "TI", Tag_File, 1, Tag_Tramps_Use_SOC(1)
    2115                    
    2116                    ;******************************************************************************
    2117                    ;* TYPE INFORMATION                                                           *
    2118                    ;******************************************************************************
    2119                    
    2120                    $C$DW$T$36      .dwtag  DW_TAG_enumeration_type
    2121                            .dwattr $C$DW$T$36, DW_AT_byte_size(0x04)
    2122                    $C$DW$196       .dwtag  DW_TAG_enumerator, DW_AT_name("VLIB_NO_ERROR"), DW_AT_const_value(0x00)
    2123                            .dwattr $C$DW$196, DW_AT_decl_file(".\..\packages\ti\vlib\src\VLIB_convertUYVYint_to_YUV422pl\
    2124                            .dwattr $C$DW$196, DW_AT_decl_line(0x7a)
    2125                            .dwattr $C$DW$196, DW_AT_decl_column(0x05)
    2126                    $C$DW$197       .dwtag  DW_TAG_enumerator, DW_AT_name("VLIB_ERR_INPUT_INVALID"), DW_AT_const_value(0x0
    2127                            .dwattr $C$DW$197, DW_AT_decl_file(".\..\packages\ti\vlib\src\VLIB_convertUYVYint_to_YUV422pl\
    2128                            .dwattr $C$DW$197, DW_AT_decl_line(0x7b)
    2129                            .dwattr $C$DW$197, DW_AT_decl_column(0x05)
TMS320C6x Assembler PC v7.4.2 Thu Mar 19 12:40:30 2015

Tools Copyright (c) 1996-2012 Texas Instruments Incorporated
package/lib/Regression/regress_d_c/./../packages/ti/vlib/src/VLIB_convertUYVYint_to_YUV422pl/VLIB_convertUYVYint_to_YUV422pl_d.se66 PAGE   47

    2130                    $C$DW$198       .dwtag  DW_TAG_enumerator, DW_AT_name("VLIB_ERR_INPUT_NEGATIVE"), DW_AT_const_value(0x
    2131                            .dwattr $C$DW$198, DW_AT_decl_file(".\..\packages\ti\vlib\src\VLIB_convertUYVYint_to_YUV422pl\
    2132                            .dwattr $C$DW$198, DW_AT_decl_line(0x7c)
    2133                            .dwattr $C$DW$198, DW_AT_decl_column(0x05)
    2134                    $C$DW$199       .dwtag  DW_TAG_enumerator, DW_AT_name("VLIB_ERR_INPUT_EXCEEDED_RANGE"), DW_AT_const_va
    2135                            .dwattr $C$DW$199, DW_AT_decl_file(".\..\packages\ti\vlib\src\VLIB_convertUYVYint_to_YUV422pl\
    2136                            .dwattr $C$DW$199, DW_AT_decl_line(0x7d)
    2137                            .dwattr $C$DW$199, DW_AT_decl_column(0x05)
    2138                    $C$DW$200       .dwtag  DW_TAG_enumerator, DW_AT_name("VLIB_ERR_MEMORY_EXCEEDED_BOUNDARY"), DW_AT_cons
    2139                            .dwattr $C$DW$200, DW_AT_decl_file(".\..\packages\ti\vlib\src\VLIB_convertUYVYint_to_YUV422pl\
    2140                            .dwattr $C$DW$200, DW_AT_decl_line(0x7e)
    2141                            .dwattr $C$DW$200, DW_AT_decl_column(0x05)
    2142                    $C$DW$201       .dwtag  DW_TAG_enumerator, DW_AT_name("VLIB_ERR_MEMORY_ALLOCATION_FAILURE"), DW_AT_con
    2143                            .dwattr $C$DW$201, DW_AT_decl_file(".\..\packages\ti\vlib\src\VLIB_convertUYVYint_to_YUV422pl\
    2144                            .dwattr $C$DW$201, DW_AT_decl_line(0x7f)
    2145                            .dwattr $C$DW$201, DW_AT_decl_column(0x05)
    2146                    $C$DW$202       .dwtag  DW_TAG_enumerator, DW_AT_name("VLIB_ERR_MEMORY_POINTER_NULL"), DW_AT_const_val
    2147                            .dwattr $C$DW$202, DW_AT_decl_file(".\..\packages\ti\vlib\src\VLIB_convertUYVYint_to_YUV422pl\
    2148                            .dwattr $C$DW$202, DW_AT_decl_line(0x80)
    2149                            .dwattr $C$DW$202, DW_AT_decl_column(0x05)
    2150                    $C$DW$203       .dwtag  DW_TAG_enumerator, DW_AT_name("VLIB_ERR_DMA_FAILURE"), DW_AT_const_value(0x07)
    2151                            .dwattr $C$DW$203, DW_AT_decl_file(".\..\packages\ti\vlib\src\VLIB_convertUYVYint_to_YUV422pl\
    2152                            .dwattr $C$DW$203, DW_AT_decl_line(0x81)
    2153                            .dwattr $C$DW$203, DW_AT_decl_column(0x05)
    2154                    $C$DW$204       .dwtag  DW_TAG_enumerator, DW_AT_name("VLIB_ERR_FILE_OPEN_FAILURE"), DW_AT_const_value
    2155                            .dwattr $C$DW$204, DW_AT_decl_file(".\..\packages\ti\vlib\src\VLIB_convertUYVYint_to_YUV422pl\
    2156                            .dwattr $C$DW$204, DW_AT_decl_line(0x82)
    2157                            .dwattr $C$DW$204, DW_AT_decl_column(0x05)
    2158                    $C$DW$205       .dwtag  DW_TAG_enumerator, DW_AT_name("VLIB_ERR_FILE_READ_FAILURE"), DW_AT_const_value
    2159                            .dwattr $C$DW$205, DW_AT_decl_file(".\..\packages\ti\vlib\src\VLIB_convertUYVYint_to_YUV422pl\
    2160                            .dwattr $C$DW$205, DW_AT_decl_line(0x83)
    2161                            .dwattr $C$DW$205, DW_AT_decl_column(0x05)
    2162                    $C$DW$206       .dwtag  DW_TAG_enumerator, DW_AT_name("VLIB_ERR_FILE_WRITE_FAILURE"), DW_AT_const_valu
    2163                            .dwattr $C$DW$206, DW_AT_decl_file(".\..\packages\ti\vlib\src\VLIB_convertUYVYint_to_YUV422pl\
    2164                            .dwattr $C$DW$206, DW_AT_decl_line(0x84)
    2165                            .dwattr $C$DW$206, DW_AT_decl_column(0x05)
    2166                    $C$DW$207       .dwtag  DW_TAG_enumerator, DW_AT_name("VLIB_ERR_FILE_CLOSE_FAILURE"), DW_AT_const_valu
    2167                            .dwattr $C$DW$207, DW_AT_decl_file(".\..\packages\ti\vlib\src\VLIB_convertUYVYint_to_YUV422pl\
    2168                            .dwattr $C$DW$207, DW_AT_decl_line(0x85)
    2169                            .dwattr $C$DW$207, DW_AT_decl_column(0x05)
    2170                    $C$DW$208       .dwtag  DW_TAG_enumerator, DW_AT_name("VLIB_ERR_FILE_FORMAT_FAILURE"), DW_AT_const_val
    2171                            .dwattr $C$DW$208, DW_AT_decl_file(".\..\packages\ti\vlib\src\VLIB_convertUYVYint_to_YUV422pl\
    2172                            .dwattr $C$DW$208, DW_AT_decl_line(0x86)
    2173                            .dwattr $C$DW$208, DW_AT_decl_column(0x05)
    2174                    $C$DW$209       .dwtag  DW_TAG_enumerator, DW_AT_name("VLIB_WARNING_LOW_MEMORY"), DW_AT_const_value(0x
    2175                            .dwattr $C$DW$209, DW_AT_decl_file(".\..\packages\ti\vlib\src\VLIB_convertUYVYint_to_YUV422pl\
    2176                            .dwattr $C$DW$209, DW_AT_decl_line(0x87)
    2177                            .dwattr $C$DW$209, DW_AT_decl_column(0x05)
    2178                    $C$DW$210       .dwtag  DW_TAG_enumerator, DW_AT_name("VLIB_ERR_NOT_IMPLEMENTED"), DW_AT_const_value(0
    2179                            .dwattr $C$DW$210, DW_AT_decl_file(".\..\packages\ti\vlib\src\VLIB_convertUYVYint_to_YUV422pl\
    2180                            .dwattr $C$DW$210, DW_AT_decl_line(0x88)
    2181                            .dwattr $C$DW$210, DW_AT_decl_column(0x05)
    2182                    $C$DW$211       .dwtag  DW_TAG_enumerator, DW_AT_name("VLIB_ERROR_MAX"), DW_AT_const_value(0x0f)
    2183                            .dwattr $C$DW$211, DW_AT_decl_file(".\..\packages\ti\vlib\src\VLIB_convertUYVYint_to_YUV422pl\
    2184                            .dwattr $C$DW$211, DW_AT_decl_line(0x89)
TMS320C6x Assembler PC v7.4.2 Thu Mar 19 12:40:30 2015

Tools Copyright (c) 1996-2012 Texas Instruments Incorporated
package/lib/Regression/regress_d_c/./../packages/ti/vlib/src/VLIB_convertUYVYint_to_YUV422pl/VLIB_convertUYVYint_to_YUV422pl_d.se66 PAGE   48

    2185                            .dwattr $C$DW$211, DW_AT_decl_column(0x05)
    2186                            .dwendtag $C$DW$T$36
    2187                    
    2188                            .dwattr $C$DW$T$36, DW_AT_decl_file(".\..\packages\ti\vlib\src\VLIB_convertUYVYint_to_YUV422pl
    2189                            .dwattr $C$DW$T$36, DW_AT_decl_line(0x79)
    2190                            .dwattr $C$DW$T$36, DW_AT_decl_column(0x0e)
    2191                    $C$DW$T$37      .dwtag  DW_TAG_typedef, DW_AT_name("VLIB_STATUS")
    2192                            .dwattr $C$DW$T$37, DW_AT_type(*$C$DW$T$36)
    2193                            .dwattr $C$DW$T$37, DW_AT_language(DW_LANG_C)
    2194                            .dwattr $C$DW$T$37, DW_AT_decl_file(".\..\packages\ti\vlib\src\VLIB_convertUYVYint_to_YUV422pl
    2195                            .dwattr $C$DW$T$37, DW_AT_decl_line(0x8a)
    2196                            .dwattr $C$DW$T$37, DW_AT_decl_column(0x03)
    2197                    
    2198                    $C$DW$T$38      .dwtag  DW_TAG_enumeration_type
    2199                            .dwattr $C$DW$T$38, DW_AT_byte_size(0x04)
    2200                    $C$DW$212       .dwtag  DW_TAG_enumerator, DW_AT_name("vlib_KERNEL_OPT"), DW_AT_const_value(0x00)
    2201                            .dwattr $C$DW$212, DW_AT_decl_file(".\..\packages\ti\vlib\src\VLIB_convertUYVYint_to_YUV422pl\
    2202                            .dwattr $C$DW$212, DW_AT_decl_line(0x6a)
    2203                            .dwattr $C$DW$212, DW_AT_decl_column(0x05)
    2204                    $C$DW$213       .dwtag  DW_TAG_enumerator, DW_AT_name("vlib_KERNEL_CN"), DW_AT_const_value(0x01)
    2205                            .dwattr $C$DW$213, DW_AT_decl_file(".\..\packages\ti\vlib\src\VLIB_convertUYVYint_to_YUV422pl\
    2206                            .dwattr $C$DW$213, DW_AT_decl_line(0x6b)
    2207                            .dwattr $C$DW$213, DW_AT_decl_column(0x05)
    2208                    $C$DW$214       .dwtag  DW_TAG_enumerator, DW_AT_name("vlib_KERNEL_CNT"), DW_AT_const_value(0x02)
    2209                            .dwattr $C$DW$214, DW_AT_decl_file(".\..\packages\ti\vlib\src\VLIB_convertUYVYint_to_YUV422pl\
    2210                            .dwattr $C$DW$214, DW_AT_decl_line(0x6c)
    2211                            .dwattr $C$DW$214, DW_AT_decl_column(0x05)
    2212                            .dwendtag $C$DW$T$38
    2213                    
    2214                            .dwattr $C$DW$T$38, DW_AT_decl_file(".\..\packages\ti\vlib\src\VLIB_convertUYVYint_to_YUV422pl
    2215                            .dwattr $C$DW$T$38, DW_AT_decl_line(0x69)
    2216                            .dwattr $C$DW$T$38, DW_AT_decl_column(0x06)
    2217                    
    2218                    $C$DW$T$39      .dwtag  DW_TAG_enumeration_type
    2219                            .dwattr $C$DW$T$39, DW_AT_byte_size(0x04)
    2220                    $C$DW$215       .dwtag  DW_TAG_enumerator, DW_AT_name("vlib_KERNEL_FAIL"), DW_AT_const_value(0x00)
    2221                            .dwattr $C$DW$215, DW_AT_decl_file(".\..\packages\ti\vlib\src\VLIB_convertUYVYint_to_YUV422pl\
    2222                            .dwattr $C$DW$215, DW_AT_decl_line(0x72)
    2223                            .dwattr $C$DW$215, DW_AT_decl_column(0x05)
    2224                    $C$DW$216       .dwtag  DW_TAG_enumerator, DW_AT_name("vlib_KERNEL_PASS"), DW_AT_const_value(0x01)
    2225                            .dwattr $C$DW$216, DW_AT_decl_file(".\..\packages\ti\vlib\src\VLIB_convertUYVYint_to_YUV422pl\
    2226                            .dwattr $C$DW$216, DW_AT_decl_line(0x73)
    2227                            .dwattr $C$DW$216, DW_AT_decl_column(0x05)
    2228                            .dwendtag $C$DW$T$39
    2229                    
    2230                            .dwattr $C$DW$T$39, DW_AT_decl_file(".\..\packages\ti\vlib\src\VLIB_convertUYVYint_to_YUV422pl
    2231                            .dwattr $C$DW$T$39, DW_AT_decl_line(0x71)
    2232                            .dwattr $C$DW$T$39, DW_AT_decl_column(0x06)
    2233                    
    2234                    $C$DW$T$23      .dwtag  DW_TAG_structure_type
    2235                            .dwattr $C$DW$T$23, DW_AT_byte_size(0x20)
    2236                    $C$DW$217       .dwtag  DW_TAG_member
    2237                            .dwattr $C$DW$217, DW_AT_type(*$C$DW$T$19)
    2238                            .dwattr $C$DW$217, DW_AT_name("testPattern")
    2239                            .dwattr $C$DW$217, DW_AT_TI_symbol_name("testPattern")
TMS320C6x Assembler PC v7.4.2 Thu Mar 19 12:40:30 2015

Tools Copyright (c) 1996-2012 Texas Instruments Incorporated
package/lib/Regression/regress_d_c/./../packages/ti/vlib/src/VLIB_convertUYVYint_to_YUV422pl/VLIB_convertUYVYint_to_YUV422pl_d.se66 PAGE   49

    2240                            .dwattr $C$DW$217, DW_AT_data_member_location[DW_OP_plus_uconst 0x0]
    2241                            .dwattr $C$DW$217, DW_AT_accessibility(DW_ACCESS_public)
    2242                            .dwattr $C$DW$217, DW_AT_decl_file(".\..\packages\ti\vlib\src\VLIB_convertUYVYint_to_YUV422pl\
    2243                            .dwattr $C$DW$217, DW_AT_decl_line(0x24)
    2244                            .dwattr $C$DW$217, DW_AT_decl_column(0x0e)
    2245                    $C$DW$218       .dwtag  DW_TAG_member
    2246                            .dwattr $C$DW$218, DW_AT_type(*$C$DW$T$20)
    2247                            .dwattr $C$DW$218, DW_AT_name("staticIn")
    2248                            .dwattr $C$DW$218, DW_AT_TI_symbol_name("staticIn")
    2249                            .dwattr $C$DW$218, DW_AT_data_member_location[DW_OP_plus_uconst 0x4]
    2250                            .dwattr $C$DW$218, DW_AT_accessibility(DW_ACCESS_public)
    2251                            .dwattr $C$DW$218, DW_AT_decl_file(".\..\packages\ti\vlib\src\VLIB_convertUYVYint_to_YUV422pl\
    2252                            .dwattr $C$DW$218, DW_AT_decl_line(0x25)
    2253                            .dwattr $C$DW$218, DW_AT_decl_column(0x0e)
    2254                    $C$DW$219       .dwtag  DW_TAG_member
    2255                            .dwattr $C$DW$219, DW_AT_type(*$C$DW$T$20)
    2256                            .dwattr $C$DW$219, DW_AT_name("staticOutY")
    2257                            .dwattr $C$DW$219, DW_AT_TI_symbol_name("staticOutY")
    2258                            .dwattr $C$DW$219, DW_AT_data_member_location[DW_OP_plus_uconst 0x8]
    2259                            .dwattr $C$DW$219, DW_AT_accessibility(DW_ACCESS_public)
    2260                            .dwattr $C$DW$219, DW_AT_decl_file(".\..\packages\ti\vlib\src\VLIB_convertUYVYint_to_YUV422pl\
    2261                            .dwattr $C$DW$219, DW_AT_decl_line(0x26)
    2262                            .dwattr $C$DW$219, DW_AT_decl_column(0x0e)
    2263                    $C$DW$220       .dwtag  DW_TAG_member
    2264                            .dwattr $C$DW$220, DW_AT_type(*$C$DW$T$20)
    2265                            .dwattr $C$DW$220, DW_AT_name("staticOutCr")
    2266                            .dwattr $C$DW$220, DW_AT_TI_symbol_name("staticOutCr")
    2267                            .dwattr $C$DW$220, DW_AT_data_member_location[DW_OP_plus_uconst 0xc]
    2268                            .dwattr $C$DW$220, DW_AT_accessibility(DW_ACCESS_public)
    2269                            .dwattr $C$DW$220, DW_AT_decl_file(".\..\packages\ti\vlib\src\VLIB_convertUYVYint_to_YUV422pl\
    2270                            .dwattr $C$DW$220, DW_AT_decl_line(0x27)
    2271                            .dwattr $C$DW$220, DW_AT_decl_column(0x0e)
    2272                    $C$DW$221       .dwtag  DW_TAG_member
    2273                            .dwattr $C$DW$221, DW_AT_type(*$C$DW$T$20)
    2274                            .dwattr $C$DW$221, DW_AT_name("staticOutCb")
    2275                            .dwattr $C$DW$221, DW_AT_TI_symbol_name("staticOutCb")
    2276                            .dwattr $C$DW$221, DW_AT_data_member_location[DW_OP_plus_uconst 0x10]
    2277                            .dwattr $C$DW$221, DW_AT_accessibility(DW_ACCESS_public)
    2278                            .dwattr $C$DW$221, DW_AT_decl_file(".\..\packages\ti\vlib\src\VLIB_convertUYVYint_to_YUV422pl\
    2279                            .dwattr $C$DW$221, DW_AT_decl_line(0x28)
    2280                            .dwattr $C$DW$221, DW_AT_decl_column(0x0e)
    2281                    $C$DW$222       .dwtag  DW_TAG_member
    2282                            .dwattr $C$DW$222, DW_AT_type(*$C$DW$T$21)
    2283                            .dwattr $C$DW$222, DW_AT_name("width")
    2284                            .dwattr $C$DW$222, DW_AT_TI_symbol_name("width")
    2285                            .dwattr $C$DW$222, DW_AT_data_member_location[DW_OP_plus_uconst 0x14]
    2286                            .dwattr $C$DW$222, DW_AT_accessibility(DW_ACCESS_public)
    2287                            .dwattr $C$DW$222, DW_AT_decl_file(".\..\packages\ti\vlib\src\VLIB_convertUYVYint_to_YUV422pl\
    2288                            .dwattr $C$DW$222, DW_AT_decl_line(0x29)
    2289                            .dwattr $C$DW$222, DW_AT_decl_column(0x0e)
    2290                    $C$DW$223       .dwtag  DW_TAG_member
    2291                            .dwattr $C$DW$223, DW_AT_type(*$C$DW$T$22)
    2292                            .dwattr $C$DW$223, DW_AT_name("pitch")
    2293                            .dwattr $C$DW$223, DW_AT_TI_symbol_name("pitch")
    2294                            .dwattr $C$DW$223, DW_AT_data_member_location[DW_OP_plus_uconst 0x18]
TMS320C6x Assembler PC v7.4.2 Thu Mar 19 12:40:30 2015

Tools Copyright (c) 1996-2012 Texas Instruments Incorporated
package/lib/Regression/regress_d_c/./../packages/ti/vlib/src/VLIB_convertUYVYint_to_YUV422pl/VLIB_convertUYVYint_to_YUV422pl_d.se66 PAGE   50

    2295                            .dwattr $C$DW$223, DW_AT_accessibility(DW_ACCESS_public)
    2296                            .dwattr $C$DW$223, DW_AT_decl_file(".\..\packages\ti\vlib\src\VLIB_convertUYVYint_to_YUV422pl\
    2297                            .dwattr $C$DW$223, DW_AT_decl_line(0x2a)
    2298                            .dwattr $C$DW$223, DW_AT_decl_column(0x0e)
    2299                    $C$DW$224       .dwtag  DW_TAG_member
    2300                            .dwattr $C$DW$224, DW_AT_type(*$C$DW$T$21)
    2301                            .dwattr $C$DW$224, DW_AT_name("height")
    2302                            .dwattr $C$DW$224, DW_AT_TI_symbol_name("height")
    2303                            .dwattr $C$DW$224, DW_AT_data_member_location[DW_OP_plus_uconst 0x1c]
    2304                            .dwattr $C$DW$224, DW_AT_accessibility(DW_ACCESS_public)
    2305                            .dwattr $C$DW$224, DW_AT_decl_file(".\..\packages\ti\vlib\src\VLIB_convertUYVYint_to_YUV422pl\
    2306                            .dwattr $C$DW$224, DW_AT_decl_line(0x2b)
    2307                            .dwattr $C$DW$224, DW_AT_decl_column(0x0e)
    2308                            .dwendtag $C$DW$T$23
    2309                    
    2310                            .dwattr $C$DW$T$23, DW_AT_decl_file(".\..\packages\ti\vlib\src\VLIB_convertUYVYint_to_YUV422pl
    2311                            .dwattr $C$DW$T$23, DW_AT_decl_line(0x23)
    2312                            .dwattr $C$DW$T$23, DW_AT_decl_column(0x10)
    2313                    $C$DW$T$40      .dwtag  DW_TAG_typedef, DW_AT_name("UYVYint_to_YUV422pl_testParams_t")
    2314                            .dwattr $C$DW$T$40, DW_AT_type(*$C$DW$T$23)
    2315                            .dwattr $C$DW$T$40, DW_AT_language(DW_LANG_C)
    2316                            .dwattr $C$DW$T$40, DW_AT_decl_file(".\..\packages\ti\vlib\src\VLIB_convertUYVYint_to_YUV422pl
    2317                            .dwattr $C$DW$T$40, DW_AT_decl_line(0x2c)
    2318                            .dwattr $C$DW$T$40, DW_AT_decl_column(0x03)
    2319                    $C$DW$T$41      .dwtag  DW_TAG_pointer_type
    2320                            .dwattr $C$DW$T$41, DW_AT_type(*$C$DW$T$40)
    2321                            .dwattr $C$DW$T$41, DW_AT_address_class(0x20)
    2322                    $C$DW$T$42      .dwtag  DW_TAG_pointer_type
    2323                            .dwattr $C$DW$T$42, DW_AT_type(*$C$DW$T$41)
    2324                            .dwattr $C$DW$T$42, DW_AT_address_class(0x20)
    2325                    $C$DW$T$43      .dwtag  DW_TAG_pointer_type
    2326                            .dwattr $C$DW$T$43, DW_AT_type(*$C$DW$T$23)
    2327                            .dwattr $C$DW$T$43, DW_AT_address_class(0x20)
    2328                    
    2329                    $C$DW$T$25      .dwtag  DW_TAG_structure_type
    2330                            .dwattr $C$DW$T$25, DW_AT_byte_size(0x18)
    2331                    $C$DW$225       .dwtag  DW_TAG_member
    2332                            .dwattr $C$DW$225, DW_AT_type(*$C$DW$T$10)
    2333                            .dwattr $C$DW$225, DW_AT_name("fd")
    2334                            .dwattr $C$DW$225, DW_AT_TI_symbol_name("fd")
    2335                            .dwattr $C$DW$225, DW_AT_data_member_location[DW_OP_plus_uconst 0x0]
    2336                            .dwattr $C$DW$225, DW_AT_accessibility(DW_ACCESS_public)
    2337                            .dwattr $C$DW$225, DW_AT_decl_file("C:/VLIB_Tools/CCSV5_4_0/ccsv5/tools/compiler/C6000/include
    2338                            .dwattr $C$DW$225, DW_AT_decl_line(0x49)
    2339                            .dwattr $C$DW$225, DW_AT_decl_column(0x0b)
    2340                    $C$DW$226       .dwtag  DW_TAG_member
    2341                            .dwattr $C$DW$226, DW_AT_type(*$C$DW$T$24)
    2342                            .dwattr $C$DW$226, DW_AT_name("buf")
    2343                            .dwattr $C$DW$226, DW_AT_TI_symbol_name("buf")
    2344                            .dwattr $C$DW$226, DW_AT_data_member_location[DW_OP_plus_uconst 0x4]
    2345                            .dwattr $C$DW$226, DW_AT_accessibility(DW_ACCESS_public)
    2346                            .dwattr $C$DW$226, DW_AT_decl_file("C:/VLIB_Tools/CCSV5_4_0/ccsv5/tools/compiler/C6000/include
    2347                            .dwattr $C$DW$226, DW_AT_decl_line(0x4a)
    2348                            .dwattr $C$DW$226, DW_AT_decl_column(0x16)
    2349                    $C$DW$227       .dwtag  DW_TAG_member
TMS320C6x Assembler PC v7.4.2 Thu Mar 19 12:40:30 2015

Tools Copyright (c) 1996-2012 Texas Instruments Incorporated
package/lib/Regression/regress_d_c/./../packages/ti/vlib/src/VLIB_convertUYVYint_to_YUV422pl/VLIB_convertUYVYint_to_YUV422pl_d.se66 PAGE   51

    2350                            .dwattr $C$DW$227, DW_AT_type(*$C$DW$T$24)
    2351                            .dwattr $C$DW$227, DW_AT_name("pos")
    2352                            .dwattr $C$DW$227, DW_AT_TI_symbol_name("pos")
    2353                            .dwattr $C$DW$227, DW_AT_data_member_location[DW_OP_plus_uconst 0x8]
    2354                            .dwattr $C$DW$227, DW_AT_accessibility(DW_ACCESS_public)
    2355                            .dwattr $C$DW$227, DW_AT_decl_file("C:/VLIB_Tools/CCSV5_4_0/ccsv5/tools/compiler/C6000/include
    2356                            .dwattr $C$DW$227, DW_AT_decl_line(0x4b)
    2357                            .dwattr $C$DW$227, DW_AT_decl_column(0x16)
    2358                    $C$DW$228       .dwtag  DW_TAG_member
    2359                            .dwattr $C$DW$228, DW_AT_type(*$C$DW$T$24)
    2360                            .dwattr $C$DW$228, DW_AT_name("bufend")
    2361                            .dwattr $C$DW$228, DW_AT_TI_symbol_name("bufend")
    2362                            .dwattr $C$DW$228, DW_AT_data_member_location[DW_OP_plus_uconst 0xc]
    2363                            .dwattr $C$DW$228, DW_AT_accessibility(DW_ACCESS_public)
    2364                            .dwattr $C$DW$228, DW_AT_decl_file("C:/VLIB_Tools/CCSV5_4_0/ccsv5/tools/compiler/C6000/include
    2365                            .dwattr $C$DW$228, DW_AT_decl_line(0x4c)
    2366                            .dwattr $C$DW$228, DW_AT_decl_column(0x16)
    2367                    $C$DW$229       .dwtag  DW_TAG_member
    2368                            .dwattr $C$DW$229, DW_AT_type(*$C$DW$T$24)
    2369                            .dwattr $C$DW$229, DW_AT_name("buff_stop")
    2370                            .dwattr $C$DW$229, DW_AT_TI_symbol_name("buff_stop")
    2371                            .dwattr $C$DW$229, DW_AT_data_member_location[DW_OP_plus_uconst 0x10]
    2372                            .dwattr $C$DW$229, DW_AT_accessibility(DW_ACCESS_public)
    2373                            .dwattr $C$DW$229, DW_AT_decl_file("C:/VLIB_Tools/CCSV5_4_0/ccsv5/tools/compiler/C6000/include
    2374                            .dwattr $C$DW$229, DW_AT_decl_line(0x4d)
    2375                            .dwattr $C$DW$229, DW_AT_decl_column(0x16)
    2376                    $C$DW$230       .dwtag  DW_TAG_member
    2377                            .dwattr $C$DW$230, DW_AT_type(*$C$DW$T$11)
    2378                            .dwattr $C$DW$230, DW_AT_name("flags")
    2379                            .dwattr $C$DW$230, DW_AT_TI_symbol_name("flags")
    2380                            .dwattr $C$DW$230, DW_AT_data_member_location[DW_OP_plus_uconst 0x14]
    2381                            .dwattr $C$DW$230, DW_AT_accessibility(DW_ACCESS_public)
    2382                            .dwattr $C$DW$230, DW_AT_decl_file("C:/VLIB_Tools/CCSV5_4_0/ccsv5/tools/compiler/C6000/include
    2383                            .dwattr $C$DW$230, DW_AT_decl_line(0x4e)
    2384                            .dwattr $C$DW$230, DW_AT_decl_column(0x16)
    2385                            .dwendtag $C$DW$T$25
    2386                    
    2387                            .dwattr $C$DW$T$25, DW_AT_decl_file("C:/VLIB_Tools/CCSV5_4_0/ccsv5/tools/compiler/C6000/includ
    2388                            .dwattr $C$DW$T$25, DW_AT_decl_line(0x48)
    2389                            .dwattr $C$DW$T$25, DW_AT_decl_column(0x10)
    2390                    $C$DW$T$45      .dwtag  DW_TAG_typedef, DW_AT_name("FILE")
    2391                            .dwattr $C$DW$T$45, DW_AT_type(*$C$DW$T$25)
    2392                            .dwattr $C$DW$T$45, DW_AT_language(DW_LANG_C)
    2393                            .dwattr $C$DW$T$45, DW_AT_decl_file("C:/VLIB_Tools/CCSV5_4_0/ccsv5/tools/compiler/C6000/includ
    2394                            .dwattr $C$DW$T$45, DW_AT_decl_line(0x4f)
    2395                            .dwattr $C$DW$T$45, DW_AT_decl_column(0x03)
    2396                    
    2397                    $C$DW$T$26      .dwtag  DW_TAG_structure_type
    2398                            .dwattr $C$DW$T$26, DW_AT_byte_size(0x08)
    2399                    $C$DW$231       .dwtag  DW_TAG_member
    2400                            .dwattr $C$DW$231, DW_AT_type(*$C$DW$T$10)
    2401                            .dwattr $C$DW$231, DW_AT_name("quot")
    2402                            .dwattr $C$DW$231, DW_AT_TI_symbol_name("quot")
    2403                            .dwattr $C$DW$231, DW_AT_data_member_location[DW_OP_plus_uconst 0x0]
    2404                            .dwattr $C$DW$231, DW_AT_accessibility(DW_ACCESS_public)
TMS320C6x Assembler PC v7.4.2 Thu Mar 19 12:40:30 2015

Tools Copyright (c) 1996-2012 Texas Instruments Incorporated
package/lib/Regression/regress_d_c/./../packages/ti/vlib/src/VLIB_convertUYVYint_to_YUV422pl/VLIB_convertUYVYint_to_YUV422pl_d.se66 PAGE   52

    2405                            .dwattr $C$DW$231, DW_AT_decl_file("C:/VLIB_Tools/CCSV5_4_0/ccsv5/tools/compiler/C6000/include
    2406                            .dwattr $C$DW$231, DW_AT_decl_line(0x3e)
    2407                            .dwattr $C$DW$231, DW_AT_decl_column(0x16)
    2408                    $C$DW$232       .dwtag  DW_TAG_member
    2409                            .dwattr $C$DW$232, DW_AT_type(*$C$DW$T$10)
    2410                            .dwattr $C$DW$232, DW_AT_name("rem")
    2411                            .dwattr $C$DW$232, DW_AT_TI_symbol_name("rem")
    2412                            .dwattr $C$DW$232, DW_AT_data_member_location[DW_OP_plus_uconst 0x4]
    2413                            .dwattr $C$DW$232, DW_AT_accessibility(DW_ACCESS_public)
    2414                            .dwattr $C$DW$232, DW_AT_decl_file("C:/VLIB_Tools/CCSV5_4_0/ccsv5/tools/compiler/C6000/include
    2415                            .dwattr $C$DW$232, DW_AT_decl_line(0x3e)
    2416                            .dwattr $C$DW$232, DW_AT_decl_column(0x1c)
    2417                            .dwendtag $C$DW$T$26
    2418                    
    2419                            .dwattr $C$DW$T$26, DW_AT_decl_file("C:/VLIB_Tools/CCSV5_4_0/ccsv5/tools/compiler/C6000/includ
    2420                            .dwattr $C$DW$T$26, DW_AT_decl_line(0x3e)
    2421                            .dwattr $C$DW$T$26, DW_AT_decl_column(0x10)
    2422                    $C$DW$T$46      .dwtag  DW_TAG_typedef, DW_AT_name("div_t")
    2423                            .dwattr $C$DW$T$46, DW_AT_type(*$C$DW$T$26)
    2424                            .dwattr $C$DW$T$46, DW_AT_language(DW_LANG_C)
    2425                            .dwattr $C$DW$T$46, DW_AT_decl_file("C:/VLIB_Tools/CCSV5_4_0/ccsv5/tools/compiler/C6000/includ
    2426                            .dwattr $C$DW$T$46, DW_AT_decl_line(0x3e)
    2427                            .dwattr $C$DW$T$46, DW_AT_decl_column(0x23)
    2428                    
    2429                    $C$DW$T$27      .dwtag  DW_TAG_structure_type
    2430                            .dwattr $C$DW$T$27, DW_AT_byte_size(0x08)
    2431                    $C$DW$233       .dwtag  DW_TAG_member
    2432                            .dwattr $C$DW$233, DW_AT_type(*$C$DW$T$10)
    2433                            .dwattr $C$DW$233, DW_AT_name("quot")
    2434                            .dwattr $C$DW$233, DW_AT_TI_symbol_name("quot")
    2435                            .dwattr $C$DW$233, DW_AT_data_member_location[DW_OP_plus_uconst 0x0]
    2436                            .dwattr $C$DW$233, DW_AT_accessibility(DW_ACCESS_public)
    2437                            .dwattr $C$DW$233, DW_AT_decl_file("C:/VLIB_Tools/CCSV5_4_0/ccsv5/tools/compiler/C6000/include
    2438                            .dwattr $C$DW$233, DW_AT_decl_line(0x40)
    2439                            .dwattr $C$DW$233, DW_AT_decl_column(0x17)
    2440                    $C$DW$234       .dwtag  DW_TAG_member
    2441                            .dwattr $C$DW$234, DW_AT_type(*$C$DW$T$10)
    2442                            .dwattr $C$DW$234, DW_AT_name("rem")
    2443                            .dwattr $C$DW$234, DW_AT_TI_symbol_name("rem")
    2444                            .dwattr $C$DW$234, DW_AT_data_member_location[DW_OP_plus_uconst 0x4]
    2445                            .dwattr $C$DW$234, DW_AT_accessibility(DW_ACCESS_public)
    2446                            .dwattr $C$DW$234, DW_AT_decl_file("C:/VLIB_Tools/CCSV5_4_0/ccsv5/tools/compiler/C6000/include
    2447                            .dwattr $C$DW$234, DW_AT_decl_line(0x40)
    2448                            .dwattr $C$DW$234, DW_AT_decl_column(0x1d)
    2449                            .dwendtag $C$DW$T$27
    2450                    
    2451                            .dwattr $C$DW$T$27, DW_AT_decl_file("C:/VLIB_Tools/CCSV5_4_0/ccsv5/tools/compiler/C6000/includ
    2452                            .dwattr $C$DW$T$27, DW_AT_decl_line(0x40)
    2453                            .dwattr $C$DW$T$27, DW_AT_decl_column(0x10)
    2454                    $C$DW$T$47      .dwtag  DW_TAG_typedef, DW_AT_name("ldiv_t")
    2455                            .dwattr $C$DW$T$47, DW_AT_type(*$C$DW$T$27)
    2456                            .dwattr $C$DW$T$47, DW_AT_language(DW_LANG_C)
    2457                            .dwattr $C$DW$T$47, DW_AT_decl_file("C:/VLIB_Tools/CCSV5_4_0/ccsv5/tools/compiler/C6000/includ
    2458                            .dwattr $C$DW$T$47, DW_AT_decl_line(0x40)
    2459                            .dwattr $C$DW$T$47, DW_AT_decl_column(0x24)
TMS320C6x Assembler PC v7.4.2 Thu Mar 19 12:40:30 2015

Tools Copyright (c) 1996-2012 Texas Instruments Incorporated
package/lib/Regression/regress_d_c/./../packages/ti/vlib/src/VLIB_convertUYVYint_to_YUV422pl/VLIB_convertUYVYint_to_YUV422pl_d.se66 PAGE   53

    2460                    
    2461                    $C$DW$T$28      .dwtag  DW_TAG_structure_type
    2462                            .dwattr $C$DW$T$28, DW_AT_byte_size(0x10)
    2463                    $C$DW$235       .dwtag  DW_TAG_member
    2464                            .dwattr $C$DW$235, DW_AT_type(*$C$DW$T$14)
    2465                            .dwattr $C$DW$235, DW_AT_name("quot")
    2466                            .dwattr $C$DW$235, DW_AT_TI_symbol_name("quot")
    2467                            .dwattr $C$DW$235, DW_AT_data_member_location[DW_OP_plus_uconst 0x0]
    2468                            .dwattr $C$DW$235, DW_AT_accessibility(DW_ACCESS_public)
    2469                            .dwattr $C$DW$235, DW_AT_decl_file("C:/VLIB_Tools/CCSV5_4_0/ccsv5/tools/compiler/C6000/include
    2470                            .dwattr $C$DW$235, DW_AT_decl_line(0x43)
    2471                            .dwattr $C$DW$235, DW_AT_decl_column(0x1c)
    2472                    $C$DW$236       .dwtag  DW_TAG_member
    2473                            .dwattr $C$DW$236, DW_AT_type(*$C$DW$T$14)
    2474                            .dwattr $C$DW$236, DW_AT_name("rem")
    2475                            .dwattr $C$DW$236, DW_AT_TI_symbol_name("rem")
    2476                            .dwattr $C$DW$236, DW_AT_data_member_location[DW_OP_plus_uconst 0x8]
    2477                            .dwattr $C$DW$236, DW_AT_accessibility(DW_ACCESS_public)
    2478                            .dwattr $C$DW$236, DW_AT_decl_file("C:/VLIB_Tools/CCSV5_4_0/ccsv5/tools/compiler/C6000/include
    2479                            .dwattr $C$DW$236, DW_AT_decl_line(0x43)
    2480                            .dwattr $C$DW$236, DW_AT_decl_column(0x22)
    2481                            .dwendtag $C$DW$T$28
    2482                    
    2483                            .dwattr $C$DW$T$28, DW_AT_decl_file("C:/VLIB_Tools/CCSV5_4_0/ccsv5/tools/compiler/C6000/includ
    2484                            .dwattr $C$DW$T$28, DW_AT_decl_line(0x43)
    2485                            .dwattr $C$DW$T$28, DW_AT_decl_column(0x10)
    2486                    $C$DW$T$48      .dwtag  DW_TAG_typedef, DW_AT_name("lldiv_t")
    2487                            .dwattr $C$DW$T$48, DW_AT_type(*$C$DW$T$28)
    2488                            .dwattr $C$DW$T$48, DW_AT_language(DW_LANG_C)
    2489                            .dwattr $C$DW$T$48, DW_AT_decl_file("C:/VLIB_Tools/CCSV5_4_0/ccsv5/tools/compiler/C6000/includ
    2490                            .dwattr $C$DW$T$48, DW_AT_decl_line(0x43)
    2491                            .dwattr $C$DW$T$48, DW_AT_decl_column(0x29)
    2492                    
    2493                    $C$DW$T$29      .dwtag  DW_TAG_structure_type
    2494                            .dwattr $C$DW$T$29, DW_AT_byte_size(0x24)
    2495                    $C$DW$237       .dwtag  DW_TAG_member
    2496                            .dwattr $C$DW$237, DW_AT_type(*$C$DW$T$22)
    2497                            .dwattr $C$DW$237, DW_AT_name("area")
    2498                            .dwattr $C$DW$237, DW_AT_TI_symbol_name("area")
    2499                            .dwattr $C$DW$237, DW_AT_data_member_location[DW_OP_plus_uconst 0x0]
    2500                            .dwattr $C$DW$237, DW_AT_accessibility(DW_ACCESS_public)
    2501                            .dwattr $C$DW$237, DW_AT_decl_file(".\..\packages\ti\vlib\src\VLIB_convertUYVYint_to_YUV422pl\
    2502                            .dwattr $C$DW$237, DW_AT_decl_line(0x69)
    2503                            .dwattr $C$DW$237, DW_AT_decl_column(0x0d)
    2504                    $C$DW$238       .dwtag  DW_TAG_member
    2505                            .dwattr $C$DW$238, DW_AT_type(*$C$DW$T$22)
    2506                            .dwattr $C$DW$238, DW_AT_name("xsum")
    2507                            .dwattr $C$DW$238, DW_AT_TI_symbol_name("xsum")
    2508                            .dwattr $C$DW$238, DW_AT_data_member_location[DW_OP_plus_uconst 0x4]
    2509                            .dwattr $C$DW$238, DW_AT_accessibility(DW_ACCESS_public)
    2510                            .dwattr $C$DW$238, DW_AT_decl_file(".\..\packages\ti\vlib\src\VLIB_convertUYVYint_to_YUV422pl\
    2511                            .dwattr $C$DW$238, DW_AT_decl_line(0x6a)
    2512                            .dwattr $C$DW$238, DW_AT_decl_column(0x0d)
    2513                    $C$DW$239       .dwtag  DW_TAG_member
    2514                            .dwattr $C$DW$239, DW_AT_type(*$C$DW$T$22)
TMS320C6x Assembler PC v7.4.2 Thu Mar 19 12:40:30 2015

Tools Copyright (c) 1996-2012 Texas Instruments Incorporated
package/lib/Regression/regress_d_c/./../packages/ti/vlib/src/VLIB_convertUYVYint_to_YUV422pl/VLIB_convertUYVYint_to_YUV422pl_d.se66 PAGE   54

    2515                            .dwattr $C$DW$239, DW_AT_name("ysum")
    2516                            .dwattr $C$DW$239, DW_AT_TI_symbol_name("ysum")
    2517                            .dwattr $C$DW$239, DW_AT_data_member_location[DW_OP_plus_uconst 0x8]
    2518                            .dwattr $C$DW$239, DW_AT_accessibility(DW_ACCESS_public)
    2519                            .dwattr $C$DW$239, DW_AT_decl_file(".\..\packages\ti\vlib\src\VLIB_convertUYVYint_to_YUV422pl\
    2520                            .dwattr $C$DW$239, DW_AT_decl_line(0x6b)
    2521                            .dwattr $C$DW$239, DW_AT_decl_column(0x0d)
    2522                    $C$DW$240       .dwtag  DW_TAG_member
    2523                            .dwattr $C$DW$240, DW_AT_type(*$C$DW$T$22)
    2524                            .dwattr $C$DW$240, DW_AT_name("xmin")
    2525                            .dwattr $C$DW$240, DW_AT_TI_symbol_name("xmin")
    2526                            .dwattr $C$DW$240, DW_AT_data_member_location[DW_OP_plus_uconst 0xc]
    2527                            .dwattr $C$DW$240, DW_AT_accessibility(DW_ACCESS_public)
    2528                            .dwattr $C$DW$240, DW_AT_decl_file(".\..\packages\ti\vlib\src\VLIB_convertUYVYint_to_YUV422pl\
    2529                            .dwattr $C$DW$240, DW_AT_decl_line(0x6d)
    2530                            .dwattr $C$DW$240, DW_AT_decl_column(0x0d)
    2531                    $C$DW$241       .dwtag  DW_TAG_member
    2532                            .dwattr $C$DW$241, DW_AT_type(*$C$DW$T$22)
    2533                            .dwattr $C$DW$241, DW_AT_name("ymin")
    2534                            .dwattr $C$DW$241, DW_AT_TI_symbol_name("ymin")
    2535                            .dwattr $C$DW$241, DW_AT_data_member_location[DW_OP_plus_uconst 0x10]
    2536                            .dwattr $C$DW$241, DW_AT_accessibility(DW_ACCESS_public)
    2537                            .dwattr $C$DW$241, DW_AT_decl_file(".\..\packages\ti\vlib\src\VLIB_convertUYVYint_to_YUV422pl\
    2538                            .dwattr $C$DW$241, DW_AT_decl_line(0x6e)
    2539                            .dwattr $C$DW$241, DW_AT_decl_column(0x0d)
    2540                    $C$DW$242       .dwtag  DW_TAG_member
    2541                            .dwattr $C$DW$242, DW_AT_type(*$C$DW$T$22)
    2542                            .dwattr $C$DW$242, DW_AT_name("xmax")
    2543                            .dwattr $C$DW$242, DW_AT_TI_symbol_name("xmax")
    2544                            .dwattr $C$DW$242, DW_AT_data_member_location[DW_OP_plus_uconst 0x14]
    2545                            .dwattr $C$DW$242, DW_AT_accessibility(DW_ACCESS_public)
    2546                            .dwattr $C$DW$242, DW_AT_decl_file(".\..\packages\ti\vlib\src\VLIB_convertUYVYint_to_YUV422pl\
    2547                            .dwattr $C$DW$242, DW_AT_decl_line(0x6f)
    2548                            .dwattr $C$DW$242, DW_AT_decl_column(0x0d)
    2549                    $C$DW$243       .dwtag  DW_TAG_member
    2550                            .dwattr $C$DW$243, DW_AT_type(*$C$DW$T$22)
    2551                            .dwattr $C$DW$243, DW_AT_name("ymax")
    2552                            .dwattr $C$DW$243, DW_AT_TI_symbol_name("ymax")
    2553                            .dwattr $C$DW$243, DW_AT_data_member_location[DW_OP_plus_uconst 0x18]
    2554                            .dwattr $C$DW$243, DW_AT_accessibility(DW_ACCESS_public)
    2555                            .dwattr $C$DW$243, DW_AT_decl_file(".\..\packages\ti\vlib\src\VLIB_convertUYVYint_to_YUV422pl\
    2556                            .dwattr $C$DW$243, DW_AT_decl_line(0x70)
    2557                            .dwattr $C$DW$243, DW_AT_decl_column(0x0d)
    2558                    $C$DW$244       .dwtag  DW_TAG_member
    2559                            .dwattr $C$DW$244, DW_AT_type(*$C$DW$T$22)
    2560                            .dwattr $C$DW$244, DW_AT_name("seedx")
    2561                            .dwattr $C$DW$244, DW_AT_TI_symbol_name("seedx")
    2562                            .dwattr $C$DW$244, DW_AT_data_member_location[DW_OP_plus_uconst 0x1c]
    2563                            .dwattr $C$DW$244, DW_AT_accessibility(DW_ACCESS_public)
    2564                            .dwattr $C$DW$244, DW_AT_decl_file(".\..\packages\ti\vlib\src\VLIB_convertUYVYint_to_YUV422pl\
    2565                            .dwattr $C$DW$244, DW_AT_decl_line(0x72)
    2566                            .dwattr $C$DW$244, DW_AT_decl_column(0x0d)
    2567                    $C$DW$245       .dwtag  DW_TAG_member
    2568                            .dwattr $C$DW$245, DW_AT_type(*$C$DW$T$22)
    2569                            .dwattr $C$DW$245, DW_AT_name("seedy")
TMS320C6x Assembler PC v7.4.2 Thu Mar 19 12:40:30 2015

Tools Copyright (c) 1996-2012 Texas Instruments Incorporated
package/lib/Regression/regress_d_c/./../packages/ti/vlib/src/VLIB_convertUYVYint_to_YUV422pl/VLIB_convertUYVYint_to_YUV422pl_d.se66 PAGE   55

    2570                            .dwattr $C$DW$245, DW_AT_TI_symbol_name("seedy")
    2571                            .dwattr $C$DW$245, DW_AT_data_member_location[DW_OP_plus_uconst 0x20]
    2572                            .dwattr $C$DW$245, DW_AT_accessibility(DW_ACCESS_public)
    2573                            .dwattr $C$DW$245, DW_AT_decl_file(".\..\packages\ti\vlib\src\VLIB_convertUYVYint_to_YUV422pl\
    2574                            .dwattr $C$DW$245, DW_AT_decl_line(0x73)
    2575                            .dwattr $C$DW$245, DW_AT_decl_column(0x0d)
    2576                            .dwendtag $C$DW$T$29
    2577                    
    2578                            .dwattr $C$DW$T$29, DW_AT_decl_file(".\..\packages\ti\vlib\src\VLIB_convertUYVYint_to_YUV422pl
    2579                            .dwattr $C$DW$T$29, DW_AT_decl_line(0x68)
    2580                            .dwattr $C$DW$T$29, DW_AT_decl_column(0x10)
    2581                    $C$DW$T$49      .dwtag  DW_TAG_typedef, DW_AT_name("VLIB_CC")
    2582                            .dwattr $C$DW$T$49, DW_AT_type(*$C$DW$T$29)
    2583                            .dwattr $C$DW$T$49, DW_AT_language(DW_LANG_C)
    2584                            .dwattr $C$DW$T$49, DW_AT_decl_file(".\..\packages\ti\vlib\src\VLIB_convertUYVYint_to_YUV422pl
    2585                            .dwattr $C$DW$T$49, DW_AT_decl_line(0x75)
    2586                            .dwattr $C$DW$T$49, DW_AT_decl_column(0x03)
    2587                    
    2588                    $C$DW$T$32      .dwtag  DW_TAG_structure_type
    2589                            .dwattr $C$DW$T$32, DW_AT_byte_size(0x10)
    2590                    $C$DW$246       .dwtag  DW_TAG_member
    2591                            .dwattr $C$DW$246, DW_AT_type(*$C$DW$T$8)
    2592                            .dwattr $C$DW$246, DW_AT_name("daylight")
    2593                            .dwattr $C$DW$246, DW_AT_TI_symbol_name("daylight")
    2594                            .dwattr $C$DW$246, DW_AT_data_member_location[DW_OP_plus_uconst 0x0]
    2595                            .dwattr $C$DW$246, DW_AT_accessibility(DW_ACCESS_public)
    2596                            .dwattr $C$DW$246, DW_AT_decl_file("C:/VLIB_Tools/CCSV5_4_0/ccsv5/tools/compiler/C6000/include
    2597                            .dwattr $C$DW$246, DW_AT_decl_line(0x52)
    2598                            .dwattr $C$DW$246, DW_AT_decl_column(0x0b)
    2599                    $C$DW$247       .dwtag  DW_TAG_member
    2600                            .dwattr $C$DW$247, DW_AT_type(*$C$DW$T$10)
    2601                            .dwattr $C$DW$247, DW_AT_name("timezone")
    2602                            .dwattr $C$DW$247, DW_AT_TI_symbol_name("timezone")
    2603                            .dwattr $C$DW$247, DW_AT_data_member_location[DW_OP_plus_uconst 0x4]
    2604                            .dwattr $C$DW$247, DW_AT_accessibility(DW_ACCESS_public)
    2605                            .dwattr $C$DW$247, DW_AT_decl_file("C:/VLIB_Tools/CCSV5_4_0/ccsv5/tools/compiler/C6000/include
    2606                            .dwattr $C$DW$247, DW_AT_decl_line(0x53)
    2607                            .dwattr $C$DW$247, DW_AT_decl_column(0x0b)
    2608                    $C$DW$248       .dwtag  DW_TAG_member
    2609                            .dwattr $C$DW$248, DW_AT_type(*$C$DW$T$31)
    2610                            .dwattr $C$DW$248, DW_AT_name("tzname")
    2611                            .dwattr $C$DW$248, DW_AT_TI_symbol_name("tzname")
    2612                            .dwattr $C$DW$248, DW_AT_data_member_location[DW_OP_plus_uconst 0x8]
    2613                            .dwattr $C$DW$248, DW_AT_accessibility(DW_ACCESS_public)
    2614                            .dwattr $C$DW$248, DW_AT_decl_file("C:/VLIB_Tools/CCSV5_4_0/ccsv5/tools/compiler/C6000/include
    2615                            .dwattr $C$DW$248, DW_AT_decl_line(0x54)
    2616                            .dwattr $C$DW$248, DW_AT_decl_column(0x0b)
    2617                    $C$DW$249       .dwtag  DW_TAG_member
    2618                            .dwattr $C$DW$249, DW_AT_type(*$C$DW$T$31)
    2619                            .dwattr $C$DW$249, DW_AT_name("dstname")
    2620                            .dwattr $C$DW$249, DW_AT_TI_symbol_name("dstname")
    2621                            .dwattr $C$DW$249, DW_AT_data_member_location[DW_OP_plus_uconst 0xc]
    2622                            .dwattr $C$DW$249, DW_AT_accessibility(DW_ACCESS_public)
    2623                            .dwattr $C$DW$249, DW_AT_decl_file("C:/VLIB_Tools/CCSV5_4_0/ccsv5/tools/compiler/C6000/include
    2624                            .dwattr $C$DW$249, DW_AT_decl_line(0x55)
TMS320C6x Assembler PC v7.4.2 Thu Mar 19 12:40:30 2015

Tools Copyright (c) 1996-2012 Texas Instruments Incorporated
package/lib/Regression/regress_d_c/./../packages/ti/vlib/src/VLIB_convertUYVYint_to_YUV422pl/VLIB_convertUYVYint_to_YUV422pl_d.se66 PAGE   56

    2625                            .dwattr $C$DW$249, DW_AT_decl_column(0x0b)
    2626                            .dwendtag $C$DW$T$32
    2627                    
    2628                            .dwattr $C$DW$T$32, DW_AT_decl_file("C:/VLIB_Tools/CCSV5_4_0/ccsv5/tools/compiler/C6000/includ
    2629                            .dwattr $C$DW$T$32, DW_AT_decl_line(0x51)
    2630                            .dwattr $C$DW$T$32, DW_AT_decl_column(0x01)
    2631                    $C$DW$T$50      .dwtag  DW_TAG_typedef, DW_AT_name("TZ")
    2632                            .dwattr $C$DW$T$50, DW_AT_type(*$C$DW$T$32)
    2633                            .dwattr $C$DW$T$50, DW_AT_language(DW_LANG_C)
    2634                            .dwattr $C$DW$T$50, DW_AT_decl_file("C:/VLIB_Tools/CCSV5_4_0/ccsv5/tools/compiler/C6000/includ
    2635                            .dwattr $C$DW$T$50, DW_AT_decl_line(0x56)
    2636                            .dwattr $C$DW$T$50, DW_AT_decl_column(0x03)
    2637                    $C$DW$T$2       .dwtag  DW_TAG_unspecified_type
    2638                            .dwattr $C$DW$T$2, DW_AT_name("void")
    2639                    $C$DW$T$3       .dwtag  DW_TAG_pointer_type
    2640                            .dwattr $C$DW$T$3, DW_AT_type(*$C$DW$T$2)
    2641                            .dwattr $C$DW$T$3, DW_AT_address_class(0x20)
    2642                    $C$DW$T$51      .dwtag  DW_TAG_typedef, DW_AT_name("VLIB_PTR")
    2643                            .dwattr $C$DW$T$51, DW_AT_type(*$C$DW$T$3)
    2644                            .dwattr $C$DW$T$51, DW_AT_language(DW_LANG_C)
    2645                            .dwattr $C$DW$T$51, DW_AT_decl_file(".\..\packages\ti\vlib\src\VLIB_convertUYVYint_to_YUV422pl
    2646                            .dwattr $C$DW$T$51, DW_AT_decl_line(0x5c)
    2647                            .dwattr $C$DW$T$51, DW_AT_decl_column(0x19)
    2648                    $C$DW$T$4       .dwtag  DW_TAG_base_type
    2649                            .dwattr $C$DW$T$4, DW_AT_encoding(DW_ATE_boolean)
    2650                            .dwattr $C$DW$T$4, DW_AT_name("bool")
    2651                            .dwattr $C$DW$T$4, DW_AT_byte_size(0x01)
    2652                    $C$DW$T$5       .dwtag  DW_TAG_base_type
    2653                            .dwattr $C$DW$T$5, DW_AT_encoding(DW_ATE_signed_char)
    2654                            .dwattr $C$DW$T$5, DW_AT_name("signed char")
    2655                            .dwattr $C$DW$T$5, DW_AT_byte_size(0x01)
    2656                    $C$DW$T$82      .dwtag  DW_TAG_pointer_type
    2657                            .dwattr $C$DW$T$82, DW_AT_type(*$C$DW$T$5)
    2658                            .dwattr $C$DW$T$82, DW_AT_address_class(0x20)
    2659                    $C$DW$T$92      .dwtag  DW_TAG_typedef, DW_AT_name("int8_t")
    2660                            .dwattr $C$DW$T$92, DW_AT_type(*$C$DW$T$5)
    2661                            .dwattr $C$DW$T$92, DW_AT_language(DW_LANG_C)
    2662                            .dwattr $C$DW$T$92, DW_AT_decl_file("C:/VLIB_Tools/CCSV5_4_0/ccsv5/tools/compiler/C6000/includ
    2663                            .dwattr $C$DW$T$92, DW_AT_decl_line(0x2a)
    2664                            .dwattr $C$DW$T$92, DW_AT_decl_column(0x1d)
    2665                    $C$DW$T$93      .dwtag  DW_TAG_typedef, DW_AT_name("int_least8_t")
    2666                            .dwattr $C$DW$T$93, DW_AT_type(*$C$DW$T$92)
    2667                            .dwattr $C$DW$T$93, DW_AT_language(DW_LANG_C)
    2668                            .dwattr $C$DW$T$93, DW_AT_decl_file("C:/VLIB_Tools/CCSV5_4_0/ccsv5/tools/compiler/C6000/includ
    2669                            .dwattr $C$DW$T$93, DW_AT_decl_line(0x39)
    2670                            .dwattr $C$DW$T$93, DW_AT_decl_column(0x17)
    2671                    $C$DW$T$6       .dwtag  DW_TAG_base_type
    2672                            .dwattr $C$DW$T$6, DW_AT_encoding(DW_ATE_unsigned_char)
    2673                            .dwattr $C$DW$T$6, DW_AT_name("unsigned char")
    2674                            .dwattr $C$DW$T$6, DW_AT_byte_size(0x01)
    2675                    $C$DW$T$24      .dwtag  DW_TAG_pointer_type
    2676                            .dwattr $C$DW$T$24, DW_AT_type(*$C$DW$T$6)
    2677                            .dwattr $C$DW$T$24, DW_AT_address_class(0x20)
    2678                    $C$DW$T$19      .dwtag  DW_TAG_typedef, DW_AT_name("uint8_t")
    2679                            .dwattr $C$DW$T$19, DW_AT_type(*$C$DW$T$6)
TMS320C6x Assembler PC v7.4.2 Thu Mar 19 12:40:30 2015

Tools Copyright (c) 1996-2012 Texas Instruments Incorporated
package/lib/Regression/regress_d_c/./../packages/ti/vlib/src/VLIB_convertUYVYint_to_YUV422pl/VLIB_convertUYVYint_to_YUV422pl_d.se66 PAGE   57

    2680                            .dwattr $C$DW$T$19, DW_AT_language(DW_LANG_C)
    2681                            .dwattr $C$DW$T$19, DW_AT_decl_file("C:/VLIB_Tools/CCSV5_4_0/ccsv5/tools/compiler/C6000/includ
    2682                            .dwattr $C$DW$T$19, DW_AT_decl_line(0x2b)
    2683                            .dwattr $C$DW$T$19, DW_AT_decl_column(0x1c)
    2684                    $C$DW$T$20      .dwtag  DW_TAG_pointer_type
    2685                            .dwattr $C$DW$T$20, DW_AT_type(*$C$DW$T$19)
    2686                            .dwattr $C$DW$T$20, DW_AT_address_class(0x20)
    2687                    $C$DW$T$94      .dwtag  DW_TAG_restrict_type
    2688                            .dwattr $C$DW$T$94, DW_AT_type(*$C$DW$T$20)
    2689                    $C$DW$T$95      .dwtag  DW_TAG_const_type
    2690                            .dwattr $C$DW$T$95, DW_AT_type(*$C$DW$T$19)
    2691                    $C$DW$T$96      .dwtag  DW_TAG_pointer_type
    2692                            .dwattr $C$DW$T$96, DW_AT_type(*$C$DW$T$95)
    2693                            .dwattr $C$DW$T$96, DW_AT_address_class(0x20)
    2694                    $C$DW$T$97      .dwtag  DW_TAG_typedef, DW_AT_name("uint_least8_t")
    2695                            .dwattr $C$DW$T$97, DW_AT_type(*$C$DW$T$19)
    2696                            .dwattr $C$DW$T$97, DW_AT_language(DW_LANG_C)
    2697                            .dwattr $C$DW$T$97, DW_AT_decl_file("C:/VLIB_Tools/CCSV5_4_0/ccsv5/tools/compiler/C6000/includ
    2698                            .dwattr $C$DW$T$97, DW_AT_decl_line(0x3a)
    2699                            .dwattr $C$DW$T$97, DW_AT_decl_column(0x16)
    2700                    $C$DW$T$7       .dwtag  DW_TAG_base_type
    2701                            .dwattr $C$DW$T$7, DW_AT_encoding(DW_ATE_signed_char)
    2702                            .dwattr $C$DW$T$7, DW_AT_name("wchar_t")
    2703                            .dwattr $C$DW$T$7, DW_AT_byte_size(0x02)
    2704                    $C$DW$T$8       .dwtag  DW_TAG_base_type
    2705                            .dwattr $C$DW$T$8, DW_AT_encoding(DW_ATE_signed)
