TMS320C6x Assembler PC v7.4.2 Thu Mar 19 12:43:53 2015

Tools Copyright (c) 1996-2012 Texas Instruments Incorporated
package/lib/Regression/regress_d_c/./../packages/ti/vlib/src/VLIB_ORB_computeRBrief/VLIB_ORB_computeRBrief_d.se66 PAGE    1

       1                    ;******************************************************************************
       2                    ;* TMS320C6x C/C++ Codegen                                          PC v7.4.2 *
       3                    ;* Date/Time created: Thu Mar 19 12:43:51 2015                                *
       4                    ;******************************************************************************
       5                            .compiler_opts --abi=eabi --c64p_l1d_workaround=off --endian=little --hll_source=on --long_pre
       6                    
       7                    ;******************************************************************************
       8                    ;* GLOBAL FILE PARAMETERS                                                     *
       9                    ;*                                                                            *
      10                    ;*   Architecture      : TMS320C66xx                                          *
      11                    ;*   Optimization      : Enabled at level 3                                   *
      12                    ;*   Optimizing for    : Speed                                                *
      13                    ;*                       Based on options: -o3, no -ms                        *
      14                    ;*   Endian            : Little                                               *
      15                    ;*   Interrupt Thrshld : 10000                                                *
      16                    ;*   Data Access Model : Far                                                  *
      17                    ;*   Pipelining        : Enabled                                              *
      18                    ;*   Speculate Loads   : Enabled with threshold = 0                           *
      19                    ;*   Memory Aliases    : Presume are aliases (pessimistic)                    *
      20                    ;*   Debug Info        : DWARF Debug w/Optimization                           *
      21                    ;*                                                                            *
      22                    ;******************************************************************************
      23                    
      24                            .asg    A15, FP
      25                            .asg    B14, DP
      26                            .asg    B15, SP
      27                            .global $bss
      28                    
      29                    
      30                    $C$DW$CU        .dwtag  DW_TAG_compile_unit
      31                            .dwattr $C$DW$CU, DW_AT_name("./../packages/ti/vlib/src/VLIB_ORB_computeRBrief/VLIB_ORB_comput
      32                            .dwattr $C$DW$CU, DW_AT_producer("TI TMS320C6x C/C++ Codegen PC v7.4.2 Copyright (c) 1996-2012
      33                            .dwattr $C$DW$CU, DW_AT_TI_version(0x01)
      34                            .dwattr $C$DW$CU, DW_AT_comp_dir("c:\nightlybuilds\vlib\ti\vlib\vlib\examples")
      35                    
      36                    $C$DW$1 .dwtag  DW_TAG_subprogram, DW_AT_name("_itoll")
      37                            .dwattr $C$DW$1, DW_AT_TI_symbol_name("_itoll")
      38                            .dwattr $C$DW$1, DW_AT_type(*$C$DW$T$14)
      39                            .dwattr $C$DW$1, DW_AT_declaration
      40                            .dwattr $C$DW$1, DW_AT_external
      41                            .dwattr $C$DW$1, DW_AT_decl_file("C:/VLIB_Tools/CCSV5_4_0/ccsv5/tools/compiler/C6000/include/c
      42                            .dwattr $C$DW$1, DW_AT_decl_line(0xdf)
      43                            .dwattr $C$DW$1, DW_AT_decl_column(0x0b)
      44                    $C$DW$2 .dwtag  DW_TAG_formal_parameter
      45                            .dwattr $C$DW$2, DW_AT_type(*$C$DW$T$11)
      46                    $C$DW$3 .dwtag  DW_TAG_formal_parameter
      47                            .dwattr $C$DW$3, DW_AT_type(*$C$DW$T$11)
      48                            .dwendtag $C$DW$1
      49                    
      50                    
      51                    $C$DW$4 .dwtag  DW_TAG_subprogram, DW_AT_name("printf")
      52                            .dwattr $C$DW$4, DW_AT_TI_symbol_name("printf")
      53                            .dwattr $C$DW$4, DW_AT_type(*$C$DW$T$10)
      54                            .dwattr $C$DW$4, DW_AT_declaration
      55                            .dwattr $C$DW$4, DW_AT_external
TMS320C6x Assembler PC v7.4.2 Thu Mar 19 12:43:53 2015

Tools Copyright (c) 1996-2012 Texas Instruments Incorporated
package/lib/Regression/regress_d_c/./../packages/ti/vlib/src/VLIB_ORB_computeRBrief/VLIB_ORB_computeRBrief_d.se66 PAGE    2

      56                            .dwattr $C$DW$4, DW_AT_decl_file("C:/VLIB_Tools/CCSV5_4_0/ccsv5/tools/compiler/C6000/include/s
      57                            .dwattr $C$DW$4, DW_AT_decl_line(0xb8)
      58                            .dwattr $C$DW$4, DW_AT_decl_column(0x19)
      59                    $C$DW$5 .dwtag  DW_TAG_formal_parameter
      60                            .dwattr $C$DW$5, DW_AT_type(*$C$DW$T$146)
      61                    $C$DW$6 .dwtag  DW_TAG_unspecified_parameters
      62                            .dwendtag $C$DW$4
      63                    
      64                    
      65                    $C$DW$7 .dwtag  DW_TAG_subprogram, DW_AT_name("sprintf")
      66                            .dwattr $C$DW$7, DW_AT_TI_symbol_name("sprintf")
      67                            .dwattr $C$DW$7, DW_AT_type(*$C$DW$T$10)
      68                            .dwattr $C$DW$7, DW_AT_declaration
      69                            .dwattr $C$DW$7, DW_AT_external
      70                            .dwattr $C$DW$7, DW_AT_decl_file("C:/VLIB_Tools/CCSV5_4_0/ccsv5/tools/compiler/C6000/include/s
      71                            .dwattr $C$DW$7, DW_AT_decl_line(0xbc)
      72                            .dwattr $C$DW$7, DW_AT_decl_column(0x19)
      73                    $C$DW$8 .dwtag  DW_TAG_formal_parameter
      74                            .dwattr $C$DW$8, DW_AT_type(*$C$DW$T$32)
      75                    $C$DW$9 .dwtag  DW_TAG_formal_parameter
      76                            .dwattr $C$DW$9, DW_AT_type(*$C$DW$T$146)
      77                    $C$DW$10        .dwtag  DW_TAG_unspecified_parameters
      78                            .dwendtag $C$DW$7
      79                    
      80                    
      81                    $C$DW$11        .dwtag  DW_TAG_subprogram, DW_AT_name("malloc")
      82                            .dwattr $C$DW$11, DW_AT_TI_symbol_name("malloc")
      83                            .dwattr $C$DW$11, DW_AT_type(*$C$DW$T$3)
      84                            .dwattr $C$DW$11, DW_AT_declaration
      85                            .dwattr $C$DW$11, DW_AT_external
      86                            .dwattr $C$DW$11, DW_AT_decl_file("C:/VLIB_Tools/CCSV5_4_0/ccsv5/tools/compiler/C6000/include/
      87                            .dwattr $C$DW$11, DW_AT_decl_line(0x82)
      88                            .dwattr $C$DW$11, DW_AT_decl_column(0x19)
      89                    $C$DW$12        .dwtag  DW_TAG_formal_parameter
      90                            .dwattr $C$DW$12, DW_AT_type(*$C$DW$T$96)
      91                            .dwendtag $C$DW$11
      92                    
      93                    
      94                    $C$DW$13        .dwtag  DW_TAG_subprogram, DW_AT_name("free")
      95                            .dwattr $C$DW$13, DW_AT_TI_symbol_name("free")
      96                            .dwattr $C$DW$13, DW_AT_declaration
      97                            .dwattr $C$DW$13, DW_AT_external
      98                            .dwattr $C$DW$13, DW_AT_decl_file("C:/VLIB_Tools/CCSV5_4_0/ccsv5/tools/compiler/C6000/include/
      99                            .dwattr $C$DW$13, DW_AT_decl_line(0x86)
     100                            .dwattr $C$DW$13, DW_AT_decl_column(0x19)
     101                    $C$DW$14        .dwtag  DW_TAG_formal_parameter
     102                            .dwattr $C$DW$14, DW_AT_type(*$C$DW$T$3)
     103                            .dwendtag $C$DW$13
     104                    
     105                    
     106                    $C$DW$15        .dwtag  DW_TAG_subprogram, DW_AT_name("memalign")
     107                            .dwattr $C$DW$15, DW_AT_TI_symbol_name("memalign")
     108                            .dwattr $C$DW$15, DW_AT_type(*$C$DW$T$3)
     109                            .dwattr $C$DW$15, DW_AT_declaration
     110                            .dwattr $C$DW$15, DW_AT_external
TMS320C6x Assembler PC v7.4.2 Thu Mar 19 12:43:53 2015

Tools Copyright (c) 1996-2012 Texas Instruments Incorporated
package/lib/Regression/regress_d_c/./../packages/ti/vlib/src/VLIB_ORB_computeRBrief/VLIB_ORB_computeRBrief_d.se66 PAGE    3

     111                            .dwattr $C$DW$15, DW_AT_decl_file("C:/VLIB_Tools/CCSV5_4_0/ccsv5/tools/compiler/C6000/include/
     112                            .dwattr $C$DW$15, DW_AT_decl_line(0x87)
     113                            .dwattr $C$DW$15, DW_AT_decl_column(0x19)
     114                    $C$DW$16        .dwtag  DW_TAG_formal_parameter
     115                            .dwattr $C$DW$16, DW_AT_type(*$C$DW$T$96)
     116                    $C$DW$17        .dwtag  DW_TAG_formal_parameter
     117                            .dwattr $C$DW$17, DW_AT_type(*$C$DW$T$96)
     118                            .dwendtag $C$DW$15
     119                    
     120                    
     121                    $C$DW$18        .dwtag  DW_TAG_subprogram, DW_AT_name("modf")
     122                            .dwattr $C$DW$18, DW_AT_TI_symbol_name("modf")
     123                            .dwattr $C$DW$18, DW_AT_type(*$C$DW$T$17)
     124                            .dwattr $C$DW$18, DW_AT_declaration
     125                            .dwattr $C$DW$18, DW_AT_external
     126                            .dwattr $C$DW$18, DW_AT_decl_file("C:/VLIB_Tools/CCSV5_4_0/ccsv5/tools/compiler/C6000/include/
     127                            .dwattr $C$DW$18, DW_AT_decl_line(0x63)
     128                            .dwattr $C$DW$18, DW_AT_decl_column(0x11)
     129                    $C$DW$19        .dwtag  DW_TAG_formal_parameter
     130                            .dwattr $C$DW$19, DW_AT_type(*$C$DW$T$17)
     131                    $C$DW$20        .dwtag  DW_TAG_formal_parameter
     132                            .dwattr $C$DW$20, DW_AT_type(*$C$DW$T$209)
     133                            .dwendtag $C$DW$18
     134                    
     135                    
     136                    $C$DW$21        .dwtag  DW_TAG_subprogram, DW_AT_name("__c6xabi_nround")
     137                            .dwattr $C$DW$21, DW_AT_TI_symbol_name("__c6xabi_nround")
     138                            .dwattr $C$DW$21, DW_AT_type(*$C$DW$T$17)
     139                            .dwattr $C$DW$21, DW_AT_declaration
     140                            .dwattr $C$DW$21, DW_AT_external
     141                            .dwattr $C$DW$21, DW_AT_decl_file("C:/VLIB_Tools/CCSV5_4_0/ccsv5/tools/compiler/C6000/include/
     142                            .dwattr $C$DW$21, DW_AT_decl_line(0x6b)
     143                            .dwattr $C$DW$21, DW_AT_decl_column(0x11)
     144                    $C$DW$22        .dwtag  DW_TAG_formal_parameter
     145                            .dwattr $C$DW$22, DW_AT_type(*$C$DW$T$17)
     146                            .dwendtag $C$DW$21
     147                    
     148                    
     149                    $C$DW$23        .dwtag  DW_TAG_subprogram, DW_AT_name("VLIB_cache_inval")
     150                            .dwattr $C$DW$23, DW_AT_TI_symbol_name("VLIB_cache_inval")
     151                            .dwattr $C$DW$23, DW_AT_type(*$C$DW$T$10)
     152                            .dwattr $C$DW$23, DW_AT_declaration
     153                            .dwattr $C$DW$23, DW_AT_external
     154                            .dwattr $C$DW$23, DW_AT_decl_file(".\..\packages\ti\vlib\src\VLIB_ORB_computeRBrief\..\common\
     155                            .dwattr $C$DW$23, DW_AT_decl_line(0x58)
     156                            .dwattr $C$DW$23, DW_AT_decl_column(0x05)
     157                    
     158                    $C$DW$24        .dwtag  DW_TAG_subprogram, DW_AT_name("VLIB_profile_init")
     159                            .dwattr $C$DW$24, DW_AT_TI_symbol_name("VLIB_profile_init")
     160                            .dwattr $C$DW$24, DW_AT_declaration
     161                            .dwattr $C$DW$24, DW_AT_external
     162                            .dwattr $C$DW$24, DW_AT_decl_file(".\..\packages\ti\vlib\src\VLIB_ORB_computeRBrief\..\common\
     163                            .dwattr $C$DW$24, DW_AT_decl_line(0x7b)
     164                            .dwattr $C$DW$24, DW_AT_decl_column(0x06)
     165                    $C$DW$25        .dwtag  DW_TAG_formal_parameter
TMS320C6x Assembler PC v7.4.2 Thu Mar 19 12:43:53 2015

Tools Copyright (c) 1996-2012 Texas Instruments Incorporated
package/lib/Regression/regress_d_c/./../packages/ti/vlib/src/VLIB_ORB_computeRBrief/VLIB_ORB_computeRBrief_d.se66 PAGE    4

     166                            .dwattr $C$DW$25, DW_AT_type(*$C$DW$T$10)
     167                    $C$DW$26        .dwtag  DW_TAG_formal_parameter
     168                            .dwattr $C$DW$26, DW_AT_type(*$C$DW$T$32)
     169                            .dwendtag $C$DW$24
     170                    
     171                    
     172                    $C$DW$27        .dwtag  DW_TAG_subprogram, DW_AT_name("VLIB_formula_add_test")
     173                            .dwattr $C$DW$27, DW_AT_TI_symbol_name("VLIB_formula_add_test")
     174                            .dwattr $C$DW$27, DW_AT_declaration
     175                            .dwattr $C$DW$27, DW_AT_external
     176                            .dwattr $C$DW$27, DW_AT_decl_file(".\..\packages\ti\vlib\src\VLIB_ORB_computeRBrief\..\common\
     177                            .dwattr $C$DW$27, DW_AT_decl_line(0x7d)
     178                            .dwattr $C$DW$27, DW_AT_decl_column(0x06)
     179                    $C$DW$28        .dwtag  DW_TAG_formal_parameter
     180                            .dwattr $C$DW$28, DW_AT_type(*$C$DW$T$10)
     181                    $C$DW$29        .dwtag  DW_TAG_formal_parameter
     182                            .dwattr $C$DW$29, DW_AT_type(*$C$DW$T$10)
     183                    $C$DW$30        .dwtag  DW_TAG_formal_parameter
     184                            .dwattr $C$DW$30, DW_AT_type(*$C$DW$T$10)
     185                    $C$DW$31        .dwtag  DW_TAG_formal_parameter
     186                            .dwattr $C$DW$31, DW_AT_type(*$C$DW$T$10)
     187                    $C$DW$32        .dwtag  DW_TAG_formal_parameter
     188                            .dwattr $C$DW$32, DW_AT_type(*$C$DW$T$32)
     189                    $C$DW$33        .dwtag  DW_TAG_formal_parameter
     190                            .dwattr $C$DW$33, DW_AT_type(*$C$DW$T$10)
     191                            .dwendtag $C$DW$27
     192                    
     193                    
     194                    $C$DW$34        .dwtag  DW_TAG_subprogram, DW_AT_name("VLIB_skip_test")
     195                            .dwattr $C$DW$34, DW_AT_TI_symbol_name("VLIB_skip_test")
     196                            .dwattr $C$DW$34, DW_AT_declaration
     197                            .dwattr $C$DW$34, DW_AT_external
     198                            .dwattr $C$DW$34, DW_AT_decl_file(".\..\packages\ti\vlib\src\VLIB_ORB_computeRBrief\..\common\
     199                            .dwattr $C$DW$34, DW_AT_decl_line(0x7e)
     200                            .dwattr $C$DW$34, DW_AT_decl_column(0x06)
     201                    $C$DW$35        .dwtag  DW_TAG_formal_parameter
     202                            .dwattr $C$DW$35, DW_AT_type(*$C$DW$T$32)
     203                            .dwendtag $C$DW$34
     204                    
     205                    
     206                    $C$DW$36        .dwtag  DW_TAG_subprogram, DW_AT_name("VLIB_profile_cycle_report")
     207                            .dwattr $C$DW$36, DW_AT_TI_symbol_name("VLIB_profile_cycle_report")
     208                            .dwattr $C$DW$36, DW_AT_declaration
     209                            .dwattr $C$DW$36, DW_AT_external
     210                            .dwattr $C$DW$36, DW_AT_decl_file(".\..\packages\ti\vlib\src\VLIB_ORB_computeRBrief\..\common\
     211                            .dwattr $C$DW$36, DW_AT_decl_line(0x7f)
     212                            .dwattr $C$DW$36, DW_AT_decl_column(0x06)
     213                    $C$DW$37        .dwtag  DW_TAG_formal_parameter
     214                            .dwattr $C$DW$37, DW_AT_type(*$C$DW$T$10)
     215                    $C$DW$38        .dwtag  DW_TAG_formal_parameter
     216                            .dwattr $C$DW$38, DW_AT_type(*$C$DW$T$32)
     217                    $C$DW$39        .dwtag  DW_TAG_formal_parameter
     218                            .dwattr $C$DW$39, DW_AT_type(*$C$DW$T$32)
     219                            .dwendtag $C$DW$36
     220                    
TMS320C6x Assembler PC v7.4.2 Thu Mar 19 12:43:53 2015

Tools Copyright (c) 1996-2012 Texas Instruments Incorporated
package/lib/Regression/regress_d_c/./../packages/ti/vlib/src/VLIB_ORB_computeRBrief/VLIB_ORB_computeRBrief_d.se66 PAGE    5

     221                    
     222                    $C$DW$40        .dwtag  DW_TAG_subprogram, DW_AT_name("initStack")
     223                            .dwattr $C$DW$40, DW_AT_TI_symbol_name("initStack")
     224                            .dwattr $C$DW$40, DW_AT_declaration
     225                            .dwattr $C$DW$40, DW_AT_external
     226                            .dwattr $C$DW$40, DW_AT_decl_file(".\..\packages\ti\vlib\src\VLIB_ORB_computeRBrief\..\common\
     227                            .dwattr $C$DW$40, DW_AT_decl_line(0x80)
     228                            .dwattr $C$DW$40, DW_AT_decl_column(0x06)
     229                    $C$DW$41        .dwtag  DW_TAG_formal_parameter
     230                            .dwattr $C$DW$41, DW_AT_type(*$C$DW$T$25)
     231                            .dwendtag $C$DW$40
     232                    
     233                    
     234                    $C$DW$42        .dwtag  DW_TAG_subprogram, DW_AT_name("setStackDepth")
     235                            .dwattr $C$DW$42, DW_AT_TI_symbol_name("setStackDepth")
     236                            .dwattr $C$DW$42, DW_AT_declaration
     237                            .dwattr $C$DW$42, DW_AT_external
     238                            .dwattr $C$DW$42, DW_AT_decl_file(".\..\packages\ti\vlib\src\VLIB_ORB_computeRBrief\..\common\
     239                            .dwattr $C$DW$42, DW_AT_decl_line(0x81)
     240                            .dwattr $C$DW$42, DW_AT_decl_column(0x06)
     241                    
     242                    $C$DW$43        .dwtag  DW_TAG_subprogram, DW_AT_name("getSP")
     243                            .dwattr $C$DW$43, DW_AT_TI_symbol_name("getSP")
     244                            .dwattr $C$DW$43, DW_AT_type(*$C$DW$T$25)
     245                            .dwattr $C$DW$43, DW_AT_declaration
     246                            .dwattr $C$DW$43, DW_AT_external
     247                            .dwattr $C$DW$43, DW_AT_decl_file(".\..\packages\ti\vlib\src\VLIB_ORB_computeRBrief\..\common\
     248                            .dwattr $C$DW$43, DW_AT_decl_line(0x82)
     249                            .dwattr $C$DW$43, DW_AT_decl_column(0x0a)
     250                    
     251                    $C$DW$44        .dwtag  DW_TAG_subprogram, DW_AT_name("VLIB_stack_memory")
     252                            .dwattr $C$DW$44, DW_AT_TI_symbol_name("VLIB_stack_memory")
     253                            .dwattr $C$DW$44, DW_AT_declaration
     254                            .dwattr $C$DW$44, DW_AT_external
     255                            .dwattr $C$DW$44, DW_AT_decl_file(".\..\packages\ti\vlib\src\VLIB_ORB_computeRBrief\..\common\
     256                            .dwattr $C$DW$44, DW_AT_decl_line(0x83)
     257                            .dwattr $C$DW$44, DW_AT_decl_column(0x06)
     258                    
     259                    $C$DW$45        .dwtag  DW_TAG_subprogram, DW_AT_name("VLIB_fillBuffer")
     260                            .dwattr $C$DW$45, DW_AT_TI_symbol_name("VLIB_fillBuffer")
     261                            .dwattr $C$DW$45, DW_AT_declaration
     262                            .dwattr $C$DW$45, DW_AT_external
     263                            .dwattr $C$DW$45, DW_AT_decl_file(".\..\packages\ti\vlib\src\VLIB_ORB_computeRBrief\../common/
     264                            .dwattr $C$DW$45, DW_AT_decl_line(0x77)
     265                            .dwattr $C$DW$45, DW_AT_decl_column(0x06)
     266                    $C$DW$46        .dwtag  DW_TAG_formal_parameter
     267                            .dwattr $C$DW$46, DW_AT_type(*$C$DW$T$22)
     268                    $C$DW$47        .dwtag  DW_TAG_formal_parameter
     269                            .dwattr $C$DW$47, DW_AT_type(*$C$DW$T$22)
     270                    $C$DW$48        .dwtag  DW_TAG_formal_parameter
     271                            .dwattr $C$DW$48, DW_AT_type(*$C$DW$T$3)
     272                    $C$DW$49        .dwtag  DW_TAG_formal_parameter
     273                            .dwattr $C$DW$49, DW_AT_type(*$C$DW$T$3)
     274                    $C$DW$50        .dwtag  DW_TAG_formal_parameter
     275                            .dwattr $C$DW$50, DW_AT_type(*$C$DW$T$23)
TMS320C6x Assembler PC v7.4.2 Thu Mar 19 12:43:53 2015

Tools Copyright (c) 1996-2012 Texas Instruments Incorporated
package/lib/Regression/regress_d_c/./../packages/ti/vlib/src/VLIB_ORB_computeRBrief/VLIB_ORB_computeRBrief_d.se66 PAGE    6

     276                    $C$DW$51        .dwtag  DW_TAG_formal_parameter
     277                            .dwattr $C$DW$51, DW_AT_type(*$C$DW$T$23)
     278                    $C$DW$52        .dwtag  DW_TAG_formal_parameter
     279                            .dwattr $C$DW$52, DW_AT_type(*$C$DW$T$23)
     280                    $C$DW$53        .dwtag  DW_TAG_formal_parameter
     281                            .dwattr $C$DW$53, DW_AT_type(*$C$DW$T$22)
     282                    $C$DW$54        .dwtag  DW_TAG_formal_parameter
     283                            .dwattr $C$DW$54, DW_AT_type(*$C$DW$T$32)
     284                            .dwendtag $C$DW$45
     285                    
     286                    
     287                    $C$DW$55        .dwtag  DW_TAG_subprogram, DW_AT_name("VLIB_malloc")
     288                            .dwattr $C$DW$55, DW_AT_TI_symbol_name("VLIB_malloc")
     289                            .dwattr $C$DW$55, DW_AT_type(*$C$DW$T$3)
     290                            .dwattr $C$DW$55, DW_AT_declaration
     291                            .dwattr $C$DW$55, DW_AT_external
     292                            .dwattr $C$DW$55, DW_AT_decl_file(".\..\packages\ti\vlib\src\VLIB_ORB_computeRBrief\../common/
     293                            .dwattr $C$DW$55, DW_AT_decl_line(0xaf)
     294                            .dwattr $C$DW$55, DW_AT_decl_column(0x07)
     295                    $C$DW$56        .dwtag  DW_TAG_formal_parameter
     296                            .dwattr $C$DW$56, DW_AT_type(*$C$DW$T$96)
     297                            .dwendtag $C$DW$55
     298                    
     299                    
     300                    $C$DW$57        .dwtag  DW_TAG_subprogram, DW_AT_name("VLIB_free")
     301                            .dwattr $C$DW$57, DW_AT_TI_symbol_name("VLIB_free")
     302                            .dwattr $C$DW$57, DW_AT_declaration
     303                            .dwattr $C$DW$57, DW_AT_external
     304                            .dwattr $C$DW$57, DW_AT_decl_file(".\..\packages\ti\vlib\src\VLIB_ORB_computeRBrief\../common/
     305                            .dwattr $C$DW$57, DW_AT_decl_line(0xb4)
     306                            .dwattr $C$DW$57, DW_AT_decl_column(0x07)
     307                    $C$DW$58        .dwtag  DW_TAG_formal_parameter
     308                            .dwattr $C$DW$58, DW_AT_type(*$C$DW$T$3)
     309                            .dwendtag $C$DW$57
     310                    
     311                    
     312                    $C$DW$59        .dwtag  DW_TAG_subprogram, DW_AT_name("getRotationMatrix")
     313                            .dwattr $C$DW$59, DW_AT_TI_symbol_name("getRotationMatrix")
     314                            .dwattr $C$DW$59, DW_AT_type(*$C$DW$T$78)
     315                            .dwattr $C$DW$59, DW_AT_declaration
     316                            .dwattr $C$DW$59, DW_AT_external
     317                            .dwattr $C$DW$59, DW_AT_decl_file(".\..\packages\ti\vlib\src\VLIB_ORB_computeRBrief\../common/
     318                            .dwattr $C$DW$59, DW_AT_decl_line(0x52)
     319                            .dwattr $C$DW$59, DW_AT_decl_column(0x10)
     320                    $C$DW$60        .dwtag  DW_TAG_formal_parameter
     321                            .dwattr $C$DW$60, DW_AT_type(*$C$DW$T$10)
     322                            .dwendtag $C$DW$59
     323                    
     324                    
     325                    $C$DW$61        .dwtag  DW_TAG_subprogram, DW_AT_name("VLIB_ORB_computeRBrief")
     326                            .dwattr $C$DW$61, DW_AT_TI_symbol_name("VLIB_ORB_computeRBrief")
     327                            .dwattr $C$DW$61, DW_AT_type(*$C$DW$T$25)
     328                            .dwattr $C$DW$61, DW_AT_declaration
     329                            .dwattr $C$DW$61, DW_AT_external
     330                            .dwattr $C$DW$61, DW_AT_decl_file(".\..\packages\ti\vlib\src\VLIB_ORB_computeRBrief\c66/VLIB_O
TMS320C6x Assembler PC v7.4.2 Thu Mar 19 12:43:53 2015

Tools Copyright (c) 1996-2012 Texas Instruments Incorporated
package/lib/Regression/regress_d_c/./../packages/ti/vlib/src/VLIB_ORB_computeRBrief/VLIB_ORB_computeRBrief_d.se66 PAGE    7

     331                            .dwattr $C$DW$61, DW_AT_decl_line(0x83)
     332                            .dwattr $C$DW$61, DW_AT_decl_column(0x0d)
     333                    $C$DW$62        .dwtag  DW_TAG_formal_parameter
     334                            .dwattr $C$DW$62, DW_AT_type(*$C$DW$T$172)
     335                    $C$DW$63        .dwtag  DW_TAG_formal_parameter
     336                            .dwattr $C$DW$63, DW_AT_type(*$C$DW$T$23)
     337                    $C$DW$64        .dwtag  DW_TAG_formal_parameter
     338                            .dwattr $C$DW$64, DW_AT_type(*$C$DW$T$23)
     339                    $C$DW$65        .dwtag  DW_TAG_formal_parameter
     340                            .dwattr $C$DW$65, DW_AT_type(*$C$DW$T$23)
     341                    $C$DW$66        .dwtag  DW_TAG_formal_parameter
     342                            .dwattr $C$DW$66, DW_AT_type(*$C$DW$T$172)
     343                    $C$DW$67        .dwtag  DW_TAG_formal_parameter
     344                            .dwattr $C$DW$67, DW_AT_type(*$C$DW$T$139)
     345                    $C$DW$68        .dwtag  DW_TAG_formal_parameter
     346                            .dwattr $C$DW$68, DW_AT_type(*$C$DW$T$25)
     347                    $C$DW$69        .dwtag  DW_TAG_formal_parameter
     348                            .dwattr $C$DW$69, DW_AT_type(*$C$DW$T$158)
     349                    $C$DW$70        .dwtag  DW_TAG_formal_parameter
     350                            .dwattr $C$DW$70, DW_AT_type(*$C$DW$T$136)
     351                            .dwendtag $C$DW$61
     352                    
     353                    
     354                    $C$DW$71        .dwtag  DW_TAG_subprogram, DW_AT_name("VLIB_ORB_computeRBrief_cn")
     355                            .dwattr $C$DW$71, DW_AT_TI_symbol_name("VLIB_ORB_computeRBrief_cn")
     356                            .dwattr $C$DW$71, DW_AT_type(*$C$DW$T$25)
     357                            .dwattr $C$DW$71, DW_AT_declaration
     358                            .dwattr $C$DW$71, DW_AT_external
     359                            .dwattr $C$DW$71, DW_AT_decl_file(".\..\packages\ti\vlib\src\VLIB_ORB_computeRBrief\VLIB_ORB_c
     360                            .dwattr $C$DW$71, DW_AT_decl_line(0x23)
     361                            .dwattr $C$DW$71, DW_AT_decl_column(0x0a)
     362                    $C$DW$72        .dwtag  DW_TAG_formal_parameter
     363                            .dwattr $C$DW$72, DW_AT_type(*$C$DW$T$26)
     364                    $C$DW$73        .dwtag  DW_TAG_formal_parameter
     365                            .dwattr $C$DW$73, DW_AT_type(*$C$DW$T$23)
     366                    $C$DW$74        .dwtag  DW_TAG_formal_parameter
     367                            .dwattr $C$DW$74, DW_AT_type(*$C$DW$T$23)
     368                    $C$DW$75        .dwtag  DW_TAG_formal_parameter
     369                            .dwattr $C$DW$75, DW_AT_type(*$C$DW$T$23)
     370                    $C$DW$76        .dwtag  DW_TAG_formal_parameter
     371                            .dwattr $C$DW$76, DW_AT_type(*$C$DW$T$26)
     372                    $C$DW$77        .dwtag  DW_TAG_formal_parameter
     373                            .dwattr $C$DW$77, DW_AT_type(*$C$DW$T$28)
     374                    $C$DW$78        .dwtag  DW_TAG_formal_parameter
     375                            .dwattr $C$DW$78, DW_AT_type(*$C$DW$T$25)
     376                    $C$DW$79        .dwtag  DW_TAG_formal_parameter
     377                            .dwattr $C$DW$79, DW_AT_type(*$C$DW$T$118)
     378                    $C$DW$80        .dwtag  DW_TAG_formal_parameter
     379                            .dwattr $C$DW$80, DW_AT_type(*$C$DW$T$28)
     380                            .dwendtag $C$DW$71
     381                    
     382                    
     383                    $C$DW$81        .dwtag  DW_TAG_subprogram, DW_AT_name("orb_computeRBrief_getTestParams")
     384                            .dwattr $C$DW$81, DW_AT_TI_symbol_name("orb_computeRBrief_getTestParams")
     385                            .dwattr $C$DW$81, DW_AT_declaration
TMS320C6x Assembler PC v7.4.2 Thu Mar 19 12:43:53 2015

Tools Copyright (c) 1996-2012 Texas Instruments Incorporated
package/lib/Regression/regress_d_c/./../packages/ti/vlib/src/VLIB_ORB_computeRBrief/VLIB_ORB_computeRBrief_d.se66 PAGE    8

     386                            .dwattr $C$DW$81, DW_AT_external
     387                            .dwattr $C$DW$81, DW_AT_decl_file(".\..\packages\ti\vlib\src\VLIB_ORB_computeRBrief\VLIB_ORB_c
     388                            .dwattr $C$DW$81, DW_AT_decl_line(0x30)
     389                            .dwattr $C$DW$81, DW_AT_decl_column(0x06)
     390                    $C$DW$82        .dwtag  DW_TAG_formal_parameter
     391                            .dwattr $C$DW$82, DW_AT_type(*$C$DW$T$85)
     392                    $C$DW$83        .dwtag  DW_TAG_formal_parameter
     393                            .dwattr $C$DW$83, DW_AT_type(*$C$DW$T$118)
     394                            .dwendtag $C$DW$81
     395                    
     396                    $C$DW$84        .dwtag  DW_TAG_variable, DW_AT_name("test_cases")
     397                            .dwattr $C$DW$84, DW_AT_TI_symbol_name("test_cases")
     398                            .dwattr $C$DW$84, DW_AT_type(*$C$DW$T$39)
     399                            .dwattr $C$DW$84, DW_AT_declaration
     400                            .dwattr $C$DW$84, DW_AT_external
     401                            .dwattr $C$DW$84, DW_AT_decl_file(".\..\packages\ti\vlib\src\VLIB_ORB_computeRBrief\../common/
     402                            .dwattr $C$DW$84, DW_AT_decl_line(0x60)
     403                            .dwattr $C$DW$84, DW_AT_decl_column(0x13)
     404                    $C$DW$85        .dwtag  DW_TAG_variable, DW_AT_name("act_kernel")
     405                            .dwattr $C$DW$85, DW_AT_TI_symbol_name("act_kernel")
     406                            .dwattr $C$DW$85, DW_AT_type(*$C$DW$T$10)
     407                            .dwattr $C$DW$85, DW_AT_declaration
     408                            .dwattr $C$DW$85, DW_AT_external
     409                            .dwattr $C$DW$85, DW_AT_decl_file(".\..\packages\ti\vlib\src\VLIB_ORB_computeRBrief\../common/
     410                            .dwattr $C$DW$85, DW_AT_decl_line(0x62)
     411                            .dwattr $C$DW$85, DW_AT_decl_column(0x13)
     412                    $C$DW$86        .dwtag  DW_TAG_variable, DW_AT_name("desc")
     413                            .dwattr $C$DW$86, DW_AT_TI_symbol_name("desc")
     414                            .dwattr $C$DW$86, DW_AT_type(*$C$DW$T$218)
     415                            .dwattr $C$DW$86, DW_AT_declaration
     416                            .dwattr $C$DW$86, DW_AT_external
     417                            .dwattr $C$DW$86, DW_AT_decl_file(".\..\packages\ti\vlib\src\VLIB_ORB_computeRBrief\../common/
     418                            .dwattr $C$DW$86, DW_AT_decl_line(0x63)
     419                            .dwattr $C$DW$86, DW_AT_decl_column(0x13)
     420                    $C$DW$87        .dwtag  DW_TAG_variable, DW_AT_name("testPatternString")
     421                            .dwattr $C$DW$87, DW_AT_TI_symbol_name("testPatternString")
     422                            .dwattr $C$DW$87, DW_AT_type(*$C$DW$T$218)
     423                            .dwattr $C$DW$87, DW_AT_declaration
     424                            .dwattr $C$DW$87, DW_AT_external
     425                            .dwattr $C$DW$87, DW_AT_decl_file(".\..\packages\ti\vlib\src\VLIB_ORB_computeRBrief\../common/
     426                            .dwattr $C$DW$87, DW_AT_decl_line(0x64)
     427                            .dwattr $C$DW$87, DW_AT_decl_column(0x13)
     428                    $C$DW$88        .dwtag  DW_TAG_variable, DW_AT_name("est_test")
     429                            .dwattr $C$DW$88, DW_AT_TI_symbol_name("est_test")
     430                            .dwattr $C$DW$88, DW_AT_type(*$C$DW$T$10)
     431                            .dwattr $C$DW$88, DW_AT_declaration
     432                            .dwattr $C$DW$88, DW_AT_external
     433                            .dwattr $C$DW$88, DW_AT_decl_file(".\..\packages\ti\vlib\src\VLIB_ORB_computeRBrief\..\common\
     434                            .dwattr $C$DW$88, DW_AT_decl_line(0x75)
     435                            .dwattr $C$DW$88, DW_AT_decl_column(0x14)
     436                    $C$DW$89        .dwtag  DW_TAG_variable, DW_AT_name("beg_count")
     437                            .dwattr $C$DW$89, DW_AT_TI_symbol_name("beg_count")
     438                            .dwattr $C$DW$89, DW_AT_type(*$C$DW$T$200)
     439                            .dwattr $C$DW$89, DW_AT_declaration
     440                            .dwattr $C$DW$89, DW_AT_external
TMS320C6x Assembler PC v7.4.2 Thu Mar 19 12:43:53 2015

Tools Copyright (c) 1996-2012 Texas Instruments Incorporated
package/lib/Regression/regress_d_c/./../packages/ti/vlib/src/VLIB_ORB_computeRBrief/VLIB_ORB_computeRBrief_d.se66 PAGE    9

     441                            .dwattr $C$DW$89, DW_AT_decl_file(".\..\packages\ti\vlib\src\VLIB_ORB_computeRBrief\..\common\
     442                            .dwattr $C$DW$89, DW_AT_decl_line(0x76)
     443                            .dwattr $C$DW$89, DW_AT_decl_column(0x14)
     444                    $C$DW$90        .dwtag  DW_TAG_variable, DW_AT_name("end_count")
     445                            .dwattr $C$DW$90, DW_AT_TI_symbol_name("end_count")
     446                            .dwattr $C$DW$90, DW_AT_type(*$C$DW$T$200)
     447                            .dwattr $C$DW$90, DW_AT_declaration
     448                            .dwattr $C$DW$90, DW_AT_external
     449                            .dwattr $C$DW$90, DW_AT_decl_file(".\..\packages\ti\vlib\src\VLIB_ORB_computeRBrief\..\common\
     450                            .dwattr $C$DW$90, DW_AT_decl_line(0x77)
     451                            .dwattr $C$DW$90, DW_AT_decl_column(0x14)
     452                    $C$DW$91        .dwtag  DW_TAG_variable, DW_AT_name("overhead")
     453                            .dwattr $C$DW$91, DW_AT_TI_symbol_name("overhead")
     454                            .dwattr $C$DW$91, DW_AT_type(*$C$DW$T$200)
     455                            .dwattr $C$DW$91, DW_AT_declaration
     456                            .dwattr $C$DW$91, DW_AT_external
     457                            .dwattr $C$DW$91, DW_AT_decl_file(".\..\packages\ti\vlib\src\VLIB_ORB_computeRBrief\..\common\
     458                            .dwattr $C$DW$91, DW_AT_decl_line(0x78)
     459                            .dwattr $C$DW$91, DW_AT_decl_column(0x14)
     460                    $C$DW$92        .dwtag  DW_TAG_variable, DW_AT_name("cycles")
     461                            .dwattr $C$DW$92, DW_AT_TI_symbol_name("cycles")
     462                            .dwattr $C$DW$92, DW_AT_type(*$C$DW$T$201)
     463                            .dwattr $C$DW$92, DW_AT_declaration
     464                            .dwattr $C$DW$92, DW_AT_external
     465                            .dwattr $C$DW$92, DW_AT_decl_file(".\..\packages\ti\vlib\src\VLIB_ORB_computeRBrief\..\common\
     466                            .dwattr $C$DW$92, DW_AT_decl_line(0x79)
     467                            .dwattr $C$DW$92, DW_AT_decl_column(0x14)
     468                    ;       C:\VLIB_Tools\CCSV5_4_0\ccsv5\tools\compiler\C6000\bin\opt6x.exe C:\\Users\\gtbldadm\\AppData\
     469 00000000                   .sect   ".text"
     470                            .clink
     471                            .global VLIB_ORB_computeRBrief_d
     472                    
     473                    $C$DW$93        .dwtag  DW_TAG_subprogram, DW_AT_name("VLIB_ORB_computeRBrief_d")
     474                            .dwattr $C$DW$93, DW_AT_low_pc(VLIB_ORB_computeRBrief_d)
     475                            .dwattr $C$DW$93, DW_AT_high_pc(0x00)
     476                            .dwattr $C$DW$93, DW_AT_TI_symbol_name("VLIB_ORB_computeRBrief_d")
     477                            .dwattr $C$DW$93, DW_AT_external
     478                            .dwattr $C$DW$93, DW_AT_TI_begin_file("./../packages/ti/vlib/src/VLIB_ORB_computeRBrief/VLIB_O
     479                            .dwattr $C$DW$93, DW_AT_TI_begin_line(0x26)
     480                            .dwattr $C$DW$93, DW_AT_TI_begin_column(0x06)
     481                            .dwattr $C$DW$93, DW_AT_decl_file("./../packages/ti/vlib/src/VLIB_ORB_computeRBrief/VLIB_ORB_c
     482                            .dwattr $C$DW$93, DW_AT_decl_line(0x26)
     483                            .dwattr $C$DW$93, DW_AT_decl_column(0x06)
     484                            .dwattr $C$DW$93, DW_AT_TI_max_frame_size(0xb0)
     485                            .dwpsn  file "./../packages/ti/vlib/src/VLIB_ORB_computeRBrief/VLIB_ORB_computeRBrief_d.c",lin
     486                    
     487                            .dwfde $C$DW$CIE, VLIB_ORB_computeRBrief_d
     488                    $C$DW$94        .dwtag  DW_TAG_formal_parameter, DW_AT_name("LevelOfFeedback")
     489                            .dwattr $C$DW$94, DW_AT_TI_symbol_name("LevelOfFeedback")
     490                            .dwattr $C$DW$94, DW_AT_type(*$C$DW$T$22)
     491                            .dwattr $C$DW$94, DW_AT_location[DW_OP_reg4]
     492                    ;----------------------------------------------------------------------
     493                    ;  38 | void VLIB_ORB_computeRBrief_d(uint8_t LevelOfFeedback)                 
     494                    ;----------------------------------------------------------------------
     495                    
TMS320C6x Assembler PC v7.4.2 Thu Mar 19 12:43:53 2015

Tools Copyright (c) 1996-2012 Texas Instruments Incorporated
package/lib/Regression/regress_d_c/./../packages/ti/vlib/src/VLIB_ORB_computeRBrief/VLIB_ORB_computeRBrief_d.se66 PAGE   10

     496                    ;******************************************************************************
     497                    ;* FUNCTION NAME: VLIB_ORB_computeRBrief_d                                    *
     498                    ;*                                                                            *
     499                    ;*   Regs Modified     : A0,A1,A2,A3,A4,A5,A6,A7,A8,A9,A10,A11,A12,A13,A14,   *
     500                    ;*                           A15,B0,B1,B2,B3,B4,B5,B6,B7,B8,B9,B10,B11,B12,   *
     501                    ;*                           B13,SP,A16,A17,A18,A19,A20,A21,A22,A23,A24,A25,  *
     502                    ;*                           A26,A27,A28,A29,A30,A31,B16,B17,B18,B19,B20,B21, *
     503                    ;*                           B22,B23,B24,B25,B26,B27,B28,B29,B30,B31          *
     504                    ;*   Regs Used         : A0,A1,A2,A3,A4,A5,A6,A7,A8,A9,A10,A11,A12,A13,A14,   *
     505                    ;*                           A15,B0,B1,B2,B3,B4,B5,B6,B7,B8,B9,B10,B11,B12,   *
     506                    ;*                           B13,DP,SP,A16,A17,A18,A19,A20,A21,A22,A23,A24,   *
     507                    ;*                           A25,A26,A27,A28,A29,A30,A31,B16,B17,B18,B19,B20, *
     508                    ;*                           B21,B22,B23,B24,B25,B26,B27,B28,B29,B30,B31      *
     509                    ;*   Local Frame Size  : 16 Args + 104 Auto + 56 Save = 176 byte              *
     510                    ;******************************************************************************
     511                    
     512                    ;******************************************************************************
     513                    ;*                                                                            *
     514                    ;* Using -g (debug) with optimization (-o3) may disable key optimizations!    *
     515                    ;*                                                                            *
     516                    ;******************************************************************************
     517 00000000           VLIB_ORB_computeRBrief_d:
     518                    ;** --------------------------------------------------------------------------*
     519                    ;          EXCLUSIVE CPU CYCLES: 16
     520                    ;** 45  -----------------------    orb_computeRBrief_getTestParams(&prm, &test_cases);
     521                    ;** 48  -----------------------    VLIB_profile_init(2, "VLIB_ORB_computeRBrief");
     522                    ;** 51  -----------------------    if ( test_cases <= 0 ) goto g60;
     523                            .dwcfi  cfa_offset, 0
     524                    ;----------------------------------------------------------------------
     525                    ;  40 | int32_t    tpi;  /* test parameter index */                            
     526                    ;  43 | orb_computeRBrief_testParams_t   *prm;                                 
     527                    ;----------------------------------------------------------------------
     528 00000000     25f7             STW     .D2T1   A11,*SP--(8)      ; |39| 
     529                            .dwcfi  cfa_offset, 8
     530                            .dwcfi  save_reg_to_mem, 11, 0
     531 00000002     2577             STW     .D2T1   A10,*SP--(8)      ; |39| 
     532                            .dwcfi  cfa_offset, 16
     533                            .dwcfi  save_reg_to_mem, 10, -8
     534 00000004     9677             STDW    .D2T2   B13:B12,*SP--     ; |39| 
     535                            .dwcfi  cfa_offset, 24
     536                            .dwcfi  save_reg_to_mem, 29, -12
     537                            .dwcfi  save_reg_to_mem, 28, -16
     538 00000006     9577             STDW    .D2T2   B11:B10,*SP--     ; |39| 
     539                            .dwcfi  cfa_offset, 32
     540                            .dwcfi  save_reg_to_mem, 27, -20
     541                            .dwcfi  save_reg_to_mem, 26, -24
     542 00000008     8777             STDW    .D2T1   A15:A14,*SP--     ; |39| 
     543                            .dwcfi  cfa_offset, 40
     544                            .dwcfi  save_reg_to_mem, 15, -28
     545                            .dwcfi  save_reg_to_mem, 14, -32
     546 0000000a     8677             STDW    .D2T1   A13:A12,*SP--     ; |39| 
     547                            .dwcfi  cfa_offset, 48
     548                            .dwcfi  save_reg_to_mem, 13, -36
     549                            .dwcfi  save_reg_to_mem, 12, -40
     550 0000000c 01bc54f6             STW     .D2T2   B3,*SP--(8)       ; |39| 
TMS320C6x Assembler PC v7.4.2 Thu Mar 19 12:43:53 2015

Tools Copyright (c) 1996-2012 Texas Instruments Incorporated
package/lib/Regression/regress_d_c/./../packages/ti/vlib/src/VLIB_ORB_computeRBrief/VLIB_ORB_computeRBrief_d.se66 PAGE   11

     551                            .dwcfi  cfa_offset, 56
     552                            .dwcfi  save_reg_to_mem, 19, -48
     553 00000010 07ffc452             ADDK    .S2     -120,SP           ; |39| 
     554                            .dwcfi  cfa_offset, 176
     555                    $C$DW$95        .dwtag  DW_TAG_variable, DW_AT_name("$O$C8")
     556                            .dwattr $C$DW$95, DW_AT_TI_symbol_name("$O$C8")
     557                            .dwattr $C$DW$95, DW_AT_type(*$C$DW$T$10)
     558                            .dwattr $C$DW$95, DW_AT_location[DW_OP_reg8]
     559                    $C$DW$96        .dwtag  DW_TAG_variable, DW_AT_name("$O$C9")
     560                            .dwattr $C$DW$96, DW_AT_TI_symbol_name("$O$C9")
     561                            .dwattr $C$DW$96, DW_AT_type(*$C$DW$T$9)
     562                            .dwattr $C$DW$96, DW_AT_location[DW_OP_reg20]
     563                    $C$DW$97        .dwtag  DW_TAG_variable, DW_AT_name("$O$C10")
     564                            .dwattr $C$DW$97, DW_AT_TI_symbol_name("$O$C10")
     565                            .dwattr $C$DW$97, DW_AT_type(*$C$DW$T$10)
     566                            .dwattr $C$DW$97, DW_AT_location[DW_OP_regx 0x25]
     567                    $C$DW$98        .dwtag  DW_TAG_variable, DW_AT_name("$O$C11")
     568                            .dwattr $C$DW$98, DW_AT_TI_symbol_name("$O$C11")
     569                            .dwattr $C$DW$98, DW_AT_type(*$C$DW$T$9)
     570                            .dwattr $C$DW$98, DW_AT_location[DW_OP_reg6]
     571                    $C$DW$99        .dwtag  DW_TAG_variable, DW_AT_name("$O$C12")
     572                            .dwattr $C$DW$99, DW_AT_TI_symbol_name("$O$C12")
     573                            .dwattr $C$DW$99, DW_AT_type(*$C$DW$T$9)
     574                            .dwattr $C$DW$99, DW_AT_location[DW_OP_reg8]
     575                    $C$DW$100       .dwtag  DW_TAG_variable, DW_AT_name("$O$C13")
     576                            .dwattr $C$DW$100, DW_AT_TI_symbol_name("$O$C13")
     577                            .dwattr $C$DW$100, DW_AT_type(*$C$DW$T$17)
     578                            .dwattr $C$DW$100, DW_AT_location[DW_OP_reg22]
     579                    $C$DW$101       .dwtag  DW_TAG_variable, DW_AT_name("$O$C14")
     580                            .dwattr $C$DW$101, DW_AT_TI_symbol_name("$O$C14")
     581                            .dwattr $C$DW$101, DW_AT_type(*$C$DW$T$10)
     582                            .dwattr $C$DW$101, DW_AT_location[DW_OP_reg6]
     583                    $C$DW$102       .dwtag  DW_TAG_variable, DW_AT_name("$O$C15")
     584                            .dwattr $C$DW$102, DW_AT_TI_symbol_name("$O$C15")
     585                            .dwattr $C$DW$102, DW_AT_type(*$C$DW$T$17)
     586                            .dwattr $C$DW$102, DW_AT_location[DW_OP_regx 0x27]
     587                    $C$DW$103       .dwtag  DW_TAG_variable, DW_AT_name("$O$C16")
     588                            .dwattr $C$DW$103, DW_AT_TI_symbol_name("$O$C16")
     589                            .dwattr $C$DW$103, DW_AT_type(*$C$DW$T$17)
     590                            .dwattr $C$DW$103, DW_AT_location[DW_OP_regx 0x39]
     591                    $C$DW$104       .dwtag  DW_TAG_variable, DW_AT_name("$O$C17")
     592                            .dwattr $C$DW$104, DW_AT_TI_symbol_name("$O$C17")
     593                            .dwattr $C$DW$104, DW_AT_type(*$C$DW$T$17)
     594                            .dwattr $C$DW$104, DW_AT_location[DW_OP_reg22]
     595                    $C$DW$105       .dwtag  DW_TAG_variable, DW_AT_name("$O$C18")
     596                            .dwattr $C$DW$105, DW_AT_TI_symbol_name("$O$C18")
     597                            .dwattr $C$DW$105, DW_AT_type(*$C$DW$T$17)
     598                            .dwattr $C$DW$105, DW_AT_location[DW_OP_reg24]
     599                    $C$DW$106       .dwtag  DW_TAG_variable, DW_AT_name("$O$C19")
     600                            .dwattr $C$DW$106, DW_AT_TI_symbol_name("$O$C19")
     601                            .dwattr $C$DW$106, DW_AT_type(*$C$DW$T$17)
     602                            .dwattr $C$DW$106, DW_AT_location[DW_OP_regx 0x25]
     603                    $C$DW$107       .dwtag  DW_TAG_variable, DW_AT_name("$O$C20")
     604                            .dwattr $C$DW$107, DW_AT_TI_symbol_name("$O$C20")
     605                            .dwattr $C$DW$107, DW_AT_type(*$C$DW$T$17)
TMS320C6x Assembler PC v7.4.2 Thu Mar 19 12:43:53 2015

Tools Copyright (c) 1996-2012 Texas Instruments Incorporated
package/lib/Regression/regress_d_c/./../packages/ti/vlib/src/VLIB_ORB_computeRBrief/VLIB_ORB_computeRBrief_d.se66 PAGE   12

     606                            .dwattr $C$DW$107, DW_AT_location[DW_OP_regx 0x3b]
     607                    $C$DW$108       .dwtag  DW_TAG_variable, DW_AT_name("$O$C21")
     608                            .dwattr $C$DW$108, DW_AT_TI_symbol_name("$O$C21")
     609                            .dwattr $C$DW$108, DW_AT_type(*$C$DW$T$17)
     610                            .dwattr $C$DW$108, DW_AT_location[DW_OP_reg8]
     611                    $C$DW$109       .dwtag  DW_TAG_variable, DW_AT_name("$O$C22")
     612                            .dwattr $C$DW$109, DW_AT_TI_symbol_name("$O$C22")
     613                            .dwattr $C$DW$109, DW_AT_type(*$C$DW$T$122)
     614                            .dwattr $C$DW$109, DW_AT_location[DW_OP_reg5]
     615                    $C$DW$110       .dwtag  DW_TAG_variable, DW_AT_name("$O$C23")
     616                            .dwattr $C$DW$110, DW_AT_TI_symbol_name("$O$C23")
     617                            .dwattr $C$DW$110, DW_AT_type(*$C$DW$T$10)
     618                            .dwattr $C$DW$110, DW_AT_location[DW_OP_reg4]
     619                    $C$DW$111       .dwtag  DW_TAG_variable, DW_AT_name("$O$C24")
     620                            .dwattr $C$DW$111, DW_AT_TI_symbol_name("$O$C24")
     621                            .dwattr $C$DW$111, DW_AT_type(*$C$DW$T$17)
     622                            .dwattr $C$DW$111, DW_AT_location[DW_OP_regx 0x37]
     623                    $C$DW$112       .dwtag  DW_TAG_variable, DW_AT_name("$O$C25")
     624                            .dwattr $C$DW$112, DW_AT_TI_symbol_name("$O$C25")
     625                            .dwattr $C$DW$112, DW_AT_type(*$C$DW$T$122)
     626                            .dwattr $C$DW$112, DW_AT_location[DW_OP_reg6]
     627                    $C$DW$113       .dwtag  DW_TAG_variable, DW_AT_name("$O$C26")
     628                            .dwattr $C$DW$113, DW_AT_TI_symbol_name("$O$C26")
     629                            .dwattr $C$DW$113, DW_AT_type(*$C$DW$T$17)
     630                            .dwattr $C$DW$113, DW_AT_location[DW_OP_reg8]
     631                    $C$DW$114       .dwtag  DW_TAG_variable, DW_AT_name("$O$C27")
     632                            .dwattr $C$DW$114, DW_AT_TI_symbol_name("$O$C27")
     633                            .dwattr $C$DW$114, DW_AT_type(*$C$DW$T$142)
     634                            .dwattr $C$DW$114, DW_AT_location[DW_OP_reg3]
     635                    $C$DW$115       .dwtag  DW_TAG_variable, DW_AT_name("$O$C28")
     636                            .dwattr $C$DW$115, DW_AT_TI_symbol_name("$O$C28")
     637                            .dwattr $C$DW$115, DW_AT_type(*$C$DW$T$11)
     638                            .dwattr $C$DW$115, DW_AT_location[DW_OP_reg26]
     639                    $C$DW$116       .dwtag  DW_TAG_variable, DW_AT_name("$O$C29")
     640                            .dwattr $C$DW$116, DW_AT_TI_symbol_name("$O$C29")
     641                            .dwattr $C$DW$116, DW_AT_type(*$C$DW$T$11)
     642                            .dwattr $C$DW$116, DW_AT_location[DW_OP_reg10]
     643                    $C$DW$117       .dwtag  DW_TAG_variable, DW_AT_name("$O$U13")
     644                            .dwattr $C$DW$117, DW_AT_TI_symbol_name("$O$U13")
     645                            .dwattr $C$DW$117, DW_AT_type(*$C$DW$T$81)
     646                            .dwattr $C$DW$117, DW_AT_location[DW_OP_reg28]
     647                    $C$DW$118       .dwtag  DW_TAG_variable, DW_AT_name("$O$K27")
     648                            .dwattr $C$DW$118, DW_AT_TI_symbol_name("$O$K27")
     649                            .dwattr $C$DW$118, DW_AT_type(*$C$DW$T$11)
     650                            .dwattr $C$DW$118, DW_AT_location[DW_OP_reg20]
     651                    $C$DW$119       .dwtag  DW_TAG_variable, DW_AT_name("$O$U12")
     652                            .dwattr $C$DW$119, DW_AT_TI_symbol_name("$O$U12")
     653                            .dwattr $C$DW$119, DW_AT_type(*$C$DW$T$10)
     654                            .dwattr $C$DW$119, DW_AT_location[DW_OP_reg13]
     655                    $C$DW$120       .dwtag  DW_TAG_variable, DW_AT_name("$O$K108")
     656                            .dwattr $C$DW$120, DW_AT_TI_symbol_name("$O$K108")
     657                            .dwattr $C$DW$120, DW_AT_type(*$C$DW$T$16)
     658                            .dwattr $C$DW$120, DW_AT_location[DW_OP_reg14]
     659                    $C$DW$121       .dwtag  DW_TAG_variable, DW_AT_name("$O$U204")
     660                            .dwattr $C$DW$121, DW_AT_TI_symbol_name("$O$U204")
TMS320C6x Assembler PC v7.4.2 Thu Mar 19 12:43:53 2015

Tools Copyright (c) 1996-2012 Texas Instruments Incorporated
package/lib/Regression/regress_d_c/./../packages/ti/vlib/src/VLIB_ORB_computeRBrief/VLIB_ORB_computeRBrief_d.se66 PAGE   13

     661                            .dwattr $C$DW$121, DW_AT_type(*$C$DW$T$154)
     662                            .dwattr $C$DW$121, DW_AT_location[DW_OP_regx 0x2a]
     663                    $C$DW$122       .dwtag  DW_TAG_variable, DW_AT_name("$O$K229")
     664                            .dwattr $C$DW$122, DW_AT_TI_symbol_name("$O$K229")
     665                            .dwattr $C$DW$122, DW_AT_type(*$C$DW$T$122)
     666                            .dwattr $C$DW$122, DW_AT_location[DW_OP_reg12]
     667                    $C$DW$123       .dwtag  DW_TAG_variable, DW_AT_name("$O$K235")
     668                            .dwattr $C$DW$123, DW_AT_TI_symbol_name("$O$K235")
     669                            .dwattr $C$DW$123, DW_AT_type(*$C$DW$T$10)
     670                            .dwattr $C$DW$123, DW_AT_location[DW_OP_reg20]
     671                    $C$DW$124       .dwtag  DW_TAG_variable, DW_AT_name("$O$K244")
     672                            .dwattr $C$DW$124, DW_AT_TI_symbol_name("$O$K244")
     673                            .dwattr $C$DW$124, DW_AT_type(*$C$DW$T$199)
     674                            .dwattr $C$DW$124, DW_AT_location[DW_OP_reg3]
     675                    $C$DW$125       .dwtag  DW_TAG_variable, DW_AT_name("$O$U256")
     676                            .dwattr $C$DW$125, DW_AT_TI_symbol_name("$O$U256")
     677                            .dwattr $C$DW$125, DW_AT_type(*$C$DW$T$34)
     678                            .dwattr $C$DW$125, DW_AT_location[DW_OP_reg3]
     679                    $C$DW$126       .dwtag  DW_TAG_variable, DW_AT_name("$O$U275")
     680                            .dwattr $C$DW$126, DW_AT_TI_symbol_name("$O$U275")
     681                            .dwattr $C$DW$126, DW_AT_type(*$C$DW$T$34)
     682                            .dwattr $C$DW$126, DW_AT_location[DW_OP_reg3]
     683                    $C$DW$127       .dwtag  DW_TAG_variable, DW_AT_name("$O$K284")
     684                            .dwattr $C$DW$127, DW_AT_TI_symbol_name("$O$K284")
     685                            .dwattr $C$DW$127, DW_AT_type(*$C$DW$T$122)
     686                            .dwattr $C$DW$127, DW_AT_location[DW_OP_reg8]
     687                    $C$DW$128       .dwtag  DW_TAG_variable, DW_AT_name("$O$U201")
     688                            .dwattr $C$DW$128, DW_AT_TI_symbol_name("$O$U201")
     689                            .dwattr $C$DW$128, DW_AT_type(*$C$DW$T$10)
     690                            .dwattr $C$DW$128, DW_AT_location[DW_OP_reg10]
     691                    $C$DW$129       .dwtag  DW_TAG_variable, DW_AT_name("$O$U274")
     692                            .dwattr $C$DW$129, DW_AT_TI_symbol_name("$O$U274")
     693                            .dwattr $C$DW$129, DW_AT_type(*$C$DW$T$34)
     694                            .dwattr $C$DW$129, DW_AT_location[DW_OP_reg27]
     695                    $C$DW$130       .dwtag  DW_TAG_variable, DW_AT_name("$O$L1")
     696                            .dwattr $C$DW$130, DW_AT_TI_symbol_name("$O$L1")
     697                            .dwattr $C$DW$130, DW_AT_type(*$C$DW$T$10)
     698                            .dwattr $C$DW$130, DW_AT_location[DW_OP_reg15]
     699                    $C$DW$131       .dwtag  DW_TAG_variable, DW_AT_name("$O$L2")
     700                            .dwattr $C$DW$131, DW_AT_TI_symbol_name("$O$L2")
     701                            .dwattr $C$DW$131, DW_AT_type(*$C$DW$T$10)
     702                            .dwattr $C$DW$131, DW_AT_location[DW_OP_reg15]
     703                    $C$DW$132       .dwtag  DW_TAG_variable, DW_AT_name("$O$L4")
     704                            .dwattr $C$DW$132, DW_AT_TI_symbol_name("$O$L4")
     705                            .dwattr $C$DW$132, DW_AT_type(*$C$DW$T$10)
     706                            .dwattr $C$DW$132, DW_AT_location[DW_OP_reg17]
     707                    $C$DW$133       .dwtag  DW_TAG_variable, DW_AT_name("$O$L5")
     708                            .dwattr $C$DW$133, DW_AT_TI_symbol_name("$O$L5")
     709                            .dwattr $C$DW$133, DW_AT_type(*$C$DW$T$10)
     710                            .dwattr $C$DW$133, DW_AT_location[DW_OP_reg12]
     711                    $C$DW$134       .dwtag  DW_TAG_variable, DW_AT_name("$O$L6")
     712                            .dwattr $C$DW$134, DW_AT_TI_symbol_name("$O$L6")
     713                            .dwattr $C$DW$134, DW_AT_type(*$C$DW$T$10)
     714                            .dwattr $C$DW$134, DW_AT_location[DW_OP_reg14]
     715                    $C$DW$135       .dwtag  DW_TAG_variable, DW_AT_name("y")
TMS320C6x Assembler PC v7.4.2 Thu Mar 19 12:43:53 2015

Tools Copyright (c) 1996-2012 Texas Instruments Incorporated
package/lib/Regression/regress_d_c/./../packages/ti/vlib/src/VLIB_ORB_computeRBrief/VLIB_ORB_computeRBrief_d.se66 PAGE   14

     716                            .dwattr $C$DW$135, DW_AT_TI_symbol_name("y")
     717                            .dwattr $C$DW$135, DW_AT_type(*$C$DW$T$17)
     718                            .dwattr $C$DW$135, DW_AT_location[DW_OP_breg31 24]
     719                    $C$DW$136       .dwtag  DW_TAG_variable, DW_AT_name("y")
     720                            .dwattr $C$DW$136, DW_AT_TI_symbol_name("y")
     721                            .dwattr $C$DW$136, DW_AT_type(*$C$DW$T$17)
     722                            .dwattr $C$DW$136, DW_AT_location[DW_OP_breg31 32]
     723                    $C$DW$137       .dwtag  DW_TAG_variable, DW_AT_name("nstep")
     724                            .dwattr $C$DW$137, DW_AT_TI_symbol_name("nstep")
     725                            .dwattr $C$DW$137, DW_AT_type(*$C$DW$T$9)
     726                            .dwattr $C$DW$137, DW_AT_location[DW_OP_reg6]
     727                    $C$DW$138       .dwtag  DW_TAG_variable, DW_AT_name("x2p")
     728                            .dwattr $C$DW$138, DW_AT_TI_symbol_name("x2p")
     729                            .dwattr $C$DW$138, DW_AT_type(*$C$DW$T$156)
     730                            .dwattr $C$DW$138, DW_AT_location[DW_OP_reg5]
     731                    $C$DW$139       .dwtag  DW_TAG_variable, DW_AT_name("y2")
     732                            .dwattr $C$DW$139, DW_AT_TI_symbol_name("y2")
     733                            .dwattr $C$DW$139, DW_AT_type(*$C$DW$T$208)
     734                            .dwattr $C$DW$139, DW_AT_location[DW_OP_regx 0x25]
     735                    $C$DW$140       .dwtag  DW_TAG_variable, DW_AT_name("x2")
     736                            .dwattr $C$DW$140, DW_AT_TI_symbol_name("x2")
     737                            .dwattr $C$DW$140, DW_AT_type(*$C$DW$T$208)
     738                            .dwattr $C$DW$140, DW_AT_location[DW_OP_regx 0x35]
     739                    $C$DW$141       .dwtag  DW_TAG_variable, DW_AT_name("pointY")
     740                            .dwattr $C$DW$141, DW_AT_TI_symbol_name("pointY")
     741                            .dwattr $C$DW$141, DW_AT_type(*$C$DW$T$9)
     742                            .dwattr $C$DW$141, DW_AT_location[DW_OP_reg14]
     743                    $C$DW$142       .dwtag  DW_TAG_variable, DW_AT_name("pointX")
     744                            .dwattr $C$DW$142, DW_AT_TI_symbol_name("pointX")
     745                            .dwattr $C$DW$142, DW_AT_type(*$C$DW$T$9)
     746                            .dwattr $C$DW$142, DW_AT_location[DW_OP_reg12]
     747                    $C$DW$143       .dwtag  DW_TAG_variable, DW_AT_name("j")
     748                            .dwattr $C$DW$143, DW_AT_TI_symbol_name("j")
     749                            .dwattr $C$DW$143, DW_AT_type(*$C$DW$T$39)
     750                            .dwattr $C$DW$143, DW_AT_location[DW_OP_regx 0x29]
     751                    $C$DW$144       .dwtag  DW_TAG_variable, DW_AT_name("cnt")
     752                            .dwattr $C$DW$144, DW_AT_TI_symbol_name("cnt")
     753                            .dwattr $C$DW$144, DW_AT_type(*$C$DW$T$39)
     754                            .dwattr $C$DW$144, DW_AT_location[DW_OP_reg11]
     755                    $C$DW$145       .dwtag  DW_TAG_variable, DW_AT_name("intgrlImg")
     756                            .dwattr $C$DW$145, DW_AT_TI_symbol_name("intgrlImg")
     757                            .dwattr $C$DW$145, DW_AT_type(*$C$DW$T$26)
     758                            .dwattr $C$DW$145, DW_AT_location[DW_OP_breg31 80]
     759                    $C$DW$146       .dwtag  DW_TAG_variable, DW_AT_name("relative_patterns")
     760                            .dwattr $C$DW$146, DW_AT_TI_symbol_name("relative_patterns")
     761                            .dwattr $C$DW$146, DW_AT_type(*$C$DW$T$118)
     762                            .dwattr $C$DW$146, DW_AT_location[DW_OP_breg31 84]
     763                    $C$DW$147       .dwtag  DW_TAG_variable, DW_AT_name("validAngles")
     764                            .dwattr $C$DW$147, DW_AT_TI_symbol_name("validAngles")
     765                            .dwattr $C$DW$147, DW_AT_type(*$C$DW$T$205)
     766                            .dwattr $C$DW$147, DW_AT_location[DW_OP_breg31 88]
     767                    $C$DW$148       .dwtag  DW_TAG_variable, DW_AT_name("validFeaturePoints")
     768                            .dwattr $C$DW$148, DW_AT_TI_symbol_name("validFeaturePoints")
     769                            .dwattr $C$DW$148, DW_AT_type(*$C$DW$T$26)
     770                            .dwattr $C$DW$148, DW_AT_location[DW_OP_breg31 92]
TMS320C6x Assembler PC v7.4.2 Thu Mar 19 12:43:53 2015

Tools Copyright (c) 1996-2012 Texas Instruments Incorporated
package/lib/Regression/regress_d_c/./../packages/ti/vlib/src/VLIB_ORB_computeRBrief/VLIB_ORB_computeRBrief_d.se66 PAGE   15

     771                    $C$DW$149       .dwtag  DW_TAG_variable, DW_AT_name("featWedges")
     772                            .dwattr $C$DW$149, DW_AT_TI_symbol_name("featWedges")
     773                            .dwattr $C$DW$149, DW_AT_type(*$C$DW$T$28)
     774                            .dwattr $C$DW$149, DW_AT_location[DW_OP_breg31 96]
     775                    $C$DW$150       .dwtag  DW_TAG_variable, DW_AT_name("outDesc_cn")
     776                            .dwattr $C$DW$150, DW_AT_TI_symbol_name("outDesc_cn")
     777                            .dwattr $C$DW$150, DW_AT_type(*$C$DW$T$28)
     778                            .dwattr $C$DW$150, DW_AT_location[DW_OP_breg31 100]
     779                    $C$DW$151       .dwtag  DW_TAG_variable, DW_AT_name("outDesc")
     780                            .dwattr $C$DW$151, DW_AT_TI_symbol_name("outDesc")
     781                            .dwattr $C$DW$151, DW_AT_type(*$C$DW$T$28)
     782                            .dwattr $C$DW$151, DW_AT_location[DW_OP_breg31 104]
     783                    $C$DW$152       .dwtag  DW_TAG_variable, DW_AT_name("nfeatures")
     784                            .dwattr $C$DW$152, DW_AT_TI_symbol_name("nfeatures")
     785                            .dwattr $C$DW$152, DW_AT_type(*$C$DW$T$25)
     786                            .dwattr $C$DW$152, DW_AT_location[DW_OP_reg26]
     787                    $C$DW$153       .dwtag  DW_TAG_variable, DW_AT_name("status_nat_vs_ref")
     788                            .dwattr $C$DW$153, DW_AT_TI_symbol_name("status_nat_vs_ref")
     789                            .dwattr $C$DW$153, DW_AT_type(*$C$DW$T$39)
     790                            .dwattr $C$DW$153, DW_AT_location[DW_OP_breg31 108]
     791                    $C$DW$154       .dwtag  DW_TAG_variable, DW_AT_name("status_nat_vs_int")
     792                            .dwattr $C$DW$154, DW_AT_TI_symbol_name("status_nat_vs_int")
     793                            .dwattr $C$DW$154, DW_AT_type(*$C$DW$T$39)
     794                            .dwattr $C$DW$154, DW_AT_location[DW_OP_breg31 112]
     795                    $C$DW$155       .dwtag  DW_TAG_variable, DW_AT_name("prm")
     796                            .dwattr $C$DW$155, DW_AT_TI_symbol_name("prm")
     797                            .dwattr $C$DW$155, DW_AT_type(*$C$DW$T$84)
     798                            .dwattr $C$DW$155, DW_AT_location[DW_OP_breg31 40]
     799                    $C$DW$156       .dwtag  DW_TAG_variable, DW_AT_name("tpi")
     800                            .dwattr $C$DW$156, DW_AT_TI_symbol_name("tpi")
     801                            .dwattr $C$DW$156, DW_AT_type(*$C$DW$T$39)
     802                            .dwattr $C$DW$156, DW_AT_location[DW_OP_breg31 116]
     803                    $C$DW$157       .dwtag  DW_TAG_variable, DW_AT_name("$O$S1")
     804                            .dwattr $C$DW$157, DW_AT_TI_symbol_name("$O$S1")
     805                            .dwattr $C$DW$157, DW_AT_type(*$C$DW$T$17)
     806                            .dwattr $C$DW$157, DW_AT_location[DW_OP_reg20]
     807                    $C$DW$158       .dwtag  DW_TAG_variable, DW_AT_name("LevelOfFeedback")
     808                            .dwattr $C$DW$158, DW_AT_TI_symbol_name("LevelOfFeedback")
     809                            .dwattr $C$DW$158, DW_AT_type(*$C$DW$T$137)
     810                            .dwattr $C$DW$158, DW_AT_location[DW_OP_breg31 120]
     811                    $C$DW$159       .dwtag  DW_TAG_variable, DW_AT_name("$O$U58")
     812                            .dwattr $C$DW$159, DW_AT_TI_symbol_name("$O$U58")
     813                            .dwattr $C$DW$159, DW_AT_type(*$C$DW$T$81)
     814                            .dwattr $C$DW$159, DW_AT_location[DW_OP_reg4]
     815                    $C$DW$160       .dwtag  DW_TAG_variable, DW_AT_name("$O$U58")
     816                            .dwattr $C$DW$160, DW_AT_TI_symbol_name("$O$U58")
     817                            .dwattr $C$DW$160, DW_AT_type(*$C$DW$T$81)
     818                            .dwattr $C$DW$160, DW_AT_location[DW_OP_reg3]
     819                    $C$DW$161       .dwtag  DW_TAG_variable, DW_AT_name("$O$U57")
     820                            .dwattr $C$DW$161, DW_AT_TI_symbol_name("$O$U57")
     821                            .dwattr $C$DW$161, DW_AT_type(*$C$DW$T$10)
     822                            .dwattr $C$DW$161, DW_AT_location[DW_OP_reg15]
     823                    $C$DW$162       .dwtag  DW_TAG_variable, DW_AT_name("$O$U109")
     824                            .dwattr $C$DW$162, DW_AT_TI_symbol_name("$O$U109")
     825                            .dwattr $C$DW$162, DW_AT_type(*$C$DW$T$27)
TMS320C6x Assembler PC v7.4.2 Thu Mar 19 12:43:53 2015

Tools Copyright (c) 1996-2012 Texas Instruments Incorporated
package/lib/Regression/regress_d_c/./../packages/ti/vlib/src/VLIB_ORB_computeRBrief/VLIB_ORB_computeRBrief_d.se66 PAGE   16

     826                            .dwattr $C$DW$162, DW_AT_location[DW_OP_reg10]
     827                    $C$DW$163       .dwtag  DW_TAG_variable, DW_AT_name("$O$U109")
     828                            .dwattr $C$DW$163, DW_AT_TI_symbol_name("$O$U109")
     829                            .dwattr $C$DW$163, DW_AT_type(*$C$DW$T$27)
     830                            .dwattr $C$DW$163, DW_AT_location[DW_OP_reg10]
     831                    $C$DW$164       .dwtag  DW_TAG_variable, DW_AT_name("$O$U126")
     832                            .dwattr $C$DW$164, DW_AT_TI_symbol_name("$O$U126")
     833                            .dwattr $C$DW$164, DW_AT_type(*$C$DW$T$34)
     834                            .dwattr $C$DW$164, DW_AT_location[DW_OP_reg12]
     835                    $C$DW$165       .dwtag  DW_TAG_variable, DW_AT_name("$O$U126")
     836                            .dwattr $C$DW$165, DW_AT_TI_symbol_name("$O$U126")
     837                            .dwattr $C$DW$165, DW_AT_type(*$C$DW$T$34)
     838                            .dwattr $C$DW$165, DW_AT_location[DW_OP_reg12]
     839                    $C$DW$166       .dwtag  DW_TAG_variable, DW_AT_name("$O$U254")
     840                            .dwattr $C$DW$166, DW_AT_TI_symbol_name("$O$U254")
     841                            .dwattr $C$DW$166, DW_AT_type(*$C$DW$T$34)
     842                            .dwattr $C$DW$166, DW_AT_location[DW_OP_reg20]
     843                    $C$DW$167       .dwtag  DW_TAG_variable, DW_AT_name("$O$U254")
     844                            .dwattr $C$DW$167, DW_AT_TI_symbol_name("$O$U254")
     845                            .dwattr $C$DW$167, DW_AT_type(*$C$DW$T$34)
     846                            .dwattr $C$DW$167, DW_AT_location[DW_OP_reg20]
     847                    $C$DW$168       .dwtag  DW_TAG_variable, DW_AT_name("$O$U252")
     848                            .dwattr $C$DW$168, DW_AT_TI_symbol_name("$O$U252")
     849                            .dwattr $C$DW$168, DW_AT_type(*$C$DW$T$10)
     850                            .dwattr $C$DW$168, DW_AT_location[DW_OP_reg26]
     851                    $C$DW$169       .dwtag  DW_TAG_variable, DW_AT_name("$O$U252")
     852                            .dwattr $C$DW$169, DW_AT_TI_symbol_name("$O$U252")
     853                            .dwattr $C$DW$169, DW_AT_type(*$C$DW$T$10)
     854                            .dwattr $C$DW$169, DW_AT_location[DW_OP_reg26]
     855                    $C$DW$170       .dwtag  DW_TAG_variable, DW_AT_name("k")
     856                            .dwattr $C$DW$170, DW_AT_TI_symbol_name("k")
     857                            .dwattr $C$DW$170, DW_AT_type(*$C$DW$T$39)
     858                            .dwattr $C$DW$170, DW_AT_location[DW_OP_reg4]
     859                    $C$DW$171       .dwtag  DW_TAG_variable, DW_AT_name("k")
     860                            .dwattr $C$DW$171, DW_AT_TI_symbol_name("k")
     861                            .dwattr $C$DW$171, DW_AT_type(*$C$DW$T$39)
     862                            .dwattr $C$DW$171, DW_AT_location[DW_OP_reg4]
     863                    $C$DW$172       .dwtag  DW_TAG_variable, DW_AT_name("i")
     864                            .dwattr $C$DW$172, DW_AT_TI_symbol_name("i")
     865                            .dwattr $C$DW$172, DW_AT_type(*$C$DW$T$39)
     866                            .dwattr $C$DW$172, DW_AT_location[DW_OP_reg10]
     867                    $C$DW$173       .dwtag  DW_TAG_variable, DW_AT_name("i")
     868                            .dwattr $C$DW$173, DW_AT_TI_symbol_name("i")
     869                            .dwattr $C$DW$173, DW_AT_type(*$C$DW$T$39)
     870                            .dwattr $C$DW$173, DW_AT_location[DW_OP_reg26]
     871                    $C$DW$174       .dwtag  DW_TAG_variable, DW_AT_name("i")
     872                            .dwattr $C$DW$174, DW_AT_TI_symbol_name("i")
     873                            .dwattr $C$DW$174, DW_AT_type(*$C$DW$T$39)
     874                            .dwattr $C$DW$174, DW_AT_location[DW_OP_reg10]
     875                    $C$DW$175       .dwtag  DW_TAG_variable, DW_AT_name("i")
     876                            .dwattr $C$DW$175, DW_AT_TI_symbol_name("i")
     877                            .dwattr $C$DW$175, DW_AT_type(*$C$DW$T$39)
     878                            .dwattr $C$DW$175, DW_AT_location[DW_OP_reg10]
     879                    $C$DW$176       .dwtag  DW_TAG_variable, DW_AT_name("$O$R7")
     880                            .dwattr $C$DW$176, DW_AT_TI_symbol_name("$O$R7")
TMS320C6x Assembler PC v7.4.2 Thu Mar 19 12:43:53 2015

Tools Copyright (c) 1996-2012 Texas Instruments Incorporated
package/lib/Regression/regress_d_c/./../packages/ti/vlib/src/VLIB_ORB_computeRBrief/VLIB_ORB_computeRBrief_d.se66 PAGE   17

     881                            .dwattr $C$DW$176, DW_AT_type(*$C$DW$T$17)
     882                            .dwattr $C$DW$176, DW_AT_location[DW_OP_reg20]
     883                    $C$DW$177       .dwtag  DW_TAG_variable, DW_AT_name("$O$R7")
     884                            .dwattr $C$DW$177, DW_AT_TI_symbol_name("$O$R7")
     885                            .dwattr $C$DW$177, DW_AT_type(*$C$DW$T$17)
     886                            .dwattr $C$DW$177, DW_AT_location[DW_OP_reg20]
     887                    $C$DW$178       .dwtag  DW_TAG_variable, DW_AT_name("$O$R6")
     888                            .dwattr $C$DW$178, DW_AT_TI_symbol_name("$O$R6")
     889                            .dwattr $C$DW$178, DW_AT_type(*$C$DW$T$17)
     890                            .dwattr $C$DW$178, DW_AT_location[DW_OP_reg4]
     891                    $C$DW$179       .dwtag  DW_TAG_variable, DW_AT_name("$O$R6")
     892                            .dwattr $C$DW$179, DW_AT_TI_symbol_name("$O$R6")
     893                            .dwattr $C$DW$179, DW_AT_type(*$C$DW$T$17)
     894                            .dwattr $C$DW$179, DW_AT_location[DW_OP_reg4]
     895                    $C$DW$180       .dwtag  DW_TAG_variable, DW_AT_name("$O$S5")
     896                            .dwattr $C$DW$180, DW_AT_TI_symbol_name("$O$S5")
     897                            .dwattr $C$DW$180, DW_AT_type(*$C$DW$T$6)
     898                            .dwattr $C$DW$180, DW_AT_location[DW_OP_reg3]
     899                    $C$DW$181       .dwtag  DW_TAG_variable, DW_AT_name("$O$S5")
     900                            .dwattr $C$DW$181, DW_AT_TI_symbol_name("$O$S5")
     901                            .dwattr $C$DW$181, DW_AT_type(*$C$DW$T$6)
     902                            .dwattr $C$DW$181, DW_AT_location[DW_OP_reg3]
     903                    $C$DW$182       .dwtag  DW_TAG_variable, DW_AT_name("$O$v1")
     904                            .dwattr $C$DW$182, DW_AT_TI_symbol_name("$O$v1")
     905                            .dwattr $C$DW$182, DW_AT_type(*$C$DW$T$84)
     906                            .dwattr $C$DW$182, DW_AT_location[DW_OP_reg20]
     907                    $C$DW$183       .dwtag  DW_TAG_variable, DW_AT_name("$O$v1")
     908                            .dwattr $C$DW$183, DW_AT_TI_symbol_name("$O$v1")
     909                            .dwattr $C$DW$183, DW_AT_type(*$C$DW$T$84)
     910                            .dwattr $C$DW$183, DW_AT_location[DW_OP_reg12]
     911                    $C$DW$184       .dwtag  DW_TAG_variable, DW_AT_name("$O$v2")
     912                            .dwattr $C$DW$184, DW_AT_TI_symbol_name("$O$v2")
     913                            .dwattr $C$DW$184, DW_AT_type(*$C$DW$T$200)
     914                            .dwattr $C$DW$184, DW_AT_location[DW_OP_reg22]
     915                    $C$DW$185       .dwtag  DW_TAG_variable, DW_AT_name("$O$v2")
     916                            .dwattr $C$DW$185, DW_AT_TI_symbol_name("$O$v2")
     917                            .dwattr $C$DW$185, DW_AT_type(*$C$DW$T$200)
     918                            .dwattr $C$DW$185, DW_AT_location[DW_OP_reg22]
     919                    $C$DW$186       .dwtag  DW_TAG_variable, DW_AT_name("rMat")
     920                            .dwattr $C$DW$186, DW_AT_TI_symbol_name("rMat")
     921                            .dwattr $C$DW$186, DW_AT_type(*$C$DW$T$80)
     922                            .dwattr $C$DW$186, DW_AT_location[DW_OP_breg31 48]
     923 00000014 0200002a!            MVKL    .S2     test_cases,B4
     924 00000018 0200006a!            MVKH    .S2     test_cases,B4
     925                    $C$DW$187       .dwtag  DW_TAG_TI_branch
     926                            .dwattr $C$DW$187, DW_AT_low_pc(0x00)
     927                            .dwattr $C$DW$187, DW_AT_name("orb_computeRBrief_getTestParams")
     928                            .dwattr $C$DW$187, DW_AT_TI_call
     929                    
     930 00000020 10000013!            CALLP   .S2     orb_computeRBrief_getTestParams,B3
     931 00000024     cfc5  ||         STW     .D2T1   A4,*+SP(120)      ; |39| 
     932 00000026     4e36  ||         ADDAW   .D1X    SP,10,A4          ; |45| 
     933                    
     934                            .dwpsn  file "./../packages/ti/vlib/src/VLIB_ORB_computeRBrief/VLIB_ORB_computeRBrief_d.c",lin
     935                    ;----------------------------------------------------------------------
TMS320C6x Assembler PC v7.4.2 Thu Mar 19 12:43:53 2015

Tools Copyright (c) 1996-2012 Texas Instruments Incorporated
package/lib/Regression/regress_d_c/./../packages/ti/vlib/src/VLIB_ORB_computeRBrief/VLIB_ORB_computeRBrief_d.se66 PAGE   18

     936                    ;  45 | orb_computeRBrief_getTestParams(&prm, &test_cases);                    
     937                    ;----------------------------------------------------------------------
     938 00000028           $C$RL0:    ; CALL OCCURS {orb_computeRBrief_getTestParams} {0}  ; |45| 
     939                    ;** --------------------------------------------------------------------------*
     940                    ;          EXCLUSIVE CPU CYCLES: 8
     941 00000028 0200002a!            MVKL    .S2     $C$SL1+0,B4
     942 0000002c 0200006a!            MVKH    .S2     $C$SL1+0,B4
     943                    $C$DW$188       .dwtag  DW_TAG_TI_branch
     944                            .dwattr $C$DW$188, DW_AT_low_pc(0x00)
     945                            .dwattr $C$DW$188, DW_AT_name("VLIB_profile_init")
     946                            .dwattr $C$DW$188, DW_AT_TI_call
     947                    
     948 00000030 10000013!            CALLP   .S2     VLIB_profile_init,B3
     949 00000034     4626  ||         MVK     .L1     0x2,A4            ; |48| 
     950                    
     951                            .dwpsn  file "./../packages/ti/vlib/src/VLIB_ORB_computeRBrief/VLIB_ORB_computeRBrief_d.c",lin
     952                    ;----------------------------------------------------------------------
     953                    ;  48 | VLIB_profile_init(2, "VLIB_ORB_computeRBrief");                        
     954                    ;----------------------------------------------------------------------
     955 00000040           $C$RL1:    ; CALL OCCURS {VLIB_profile_init} {0}  ; |48| 
     956                    ;** --------------------------------------------------------------------------*
     957                    ;          EXCLUSIVE CPU CYCLES: 14
     958                    ;**     -----------------------    K$284 = &desc[0];
     959                    ;**     -----------------------    U$13 = prm-36;
     960                    ;**     -----------------------    K$27 = 61440u;
     961                    ;**     -----------------------    U$12 = 0;
     962                    ;** 51  -----------------------    tpi = 0;
     963                    ;**     -----------------------    #pragma LOOP_FLAGS(5120u)
     964                    
     965 00000040 01800029!            MVKL    .S1     test_cases,A3
     966 00000048 02bd42e6  ||         LDW     .D2T2   *+SP(40),B5
     967 00000044 0680a359  ||         ZERO    .L1     A13               ; |51| 
     968                    
     969 0000004c 01800068!            MVKH    .S1     test_cases,A3
     970                            .dwpsn  file "./../packages/ti/vlib/src/VLIB_ORB_computeRBrief/VLIB_ORB_computeRBrief_d.c",lin
     971                    ;----------------------------------------------------------------------
     972                    ;  51 | for( tpi=0; tpi < test_cases; tpi++ ) {                                
     973                    ;----------------------------------------------------------------------
     974 00000050 020c0264             LDW     .D1T1   *A3,A4            ; |51| 
     975                            .dwpsn  file "./../packages/ti/vlib/src/VLIB_ORB_computeRBrief/VLIB_ORB_computeRBrief_d.c",lin
     976                    ;----------------------------------------------------------------------
     977                    ;  54 | int32_t    status_nat_vs_int = vlib_KERNEL_PASS; /* Test status : Natur
     978                    ;     | al c vs. Optimized */                                                  
     979                    ;  55 | int32_t    status_nat_vs_ref = vlib_KERNEL_PASS; /* Test status : Natur
     980                    ;     | al c vs. Static Reference */                                           
     981                    ;  57 | VLIB_F32    scale;                                                     
     982                    ;----------------------------------------------------------------------
     983 00000054     05a6             ZERO    .L1     A3                ; |51| 
     984 00000056     afb5             STW     .D2T1   A3,*+SP(116)
     985 00000058 06153dc2             SUBAW   .D2     B5,9,B12
     986                            .dwpsn  file "./../packages/ti/vlib/src/VLIB_ORB_computeRBrief/VLIB_ORB_computeRBrief_d.c",lin
     987                    ;----------------------------------------------------------------------
     988                    ;  58 | uint32_t    nfeatures = prm[tpi].true_num_features;                    
     989                    ;----------------------------------------------------------------------
     990 00000060 06001252             ADDK    .S2     36,B12            ; |58| 
TMS320C6x Assembler PC v7.4.2 Thu Mar 19 12:43:53 2015

Tools Copyright (c) 1996-2012 Texas Instruments Incorporated
package/lib/Regression/regress_d_c/./../packages/ti/vlib/src/VLIB_ORB_computeRBrief/VLIB_ORB_computeRBrief_d.se66 PAGE   19

     991                            .dwpsn  file "./../packages/ti/vlib/src/VLIB_ORB_computeRBrief/VLIB_ORB_computeRBrief_d.c",lin
     992 00000064 00100ad8             CMPGT   .L1     A4,0,A0           ; |51| 
     993                    
     994 00000068 d27a8121     [!A0]   BNOP    .S1     $C$L31,4          ; |51| 
     995 0000006c c530e2e6  || [ A0]   LDW     .D2T2   *+B12(28),B10     ; |58| 
     996                    
     997                            .dwpsn  file "./../packages/ti/vlib/src/VLIB_ORB_computeRBrief/VLIB_ORB_computeRBrief_d.c",lin
     998                    ;----------------------------------------------------------------------
     999                    ;  60 | uint8_t    *outDesc             = (uint8_t *)VLIB_malloc(nfeatures * 32
    1000                    ;     | );                                                                     
    1001                    ;----------------------------------------------------------------------
    1002 00000070 0528bca0             SHL     .S1X    B10,5,A10         ; |60| 
    1003                            .dwpsn  file "./../packages/ti/vlib/src/VLIB_ORB_computeRBrief/VLIB_ORB_computeRBrief_d.c",lin
    1004                               ; BRANCHCC OCCURS {$C$L31}        ; |51| 
    1005                    ;** --------------------------------------------------------------------------*
    1006                    ;**   BEGIN LOOP $C$L1
    1007                    ;** --------------------------------------------------------------------------*
    1008 00000074           $C$L1:    
    1009                            .dwpsn  file "./../packages/ti/vlib/src/VLIB_ORB_computeRBrief/VLIB_ORB_computeRBrief_d.c",lin
    1010 00000074           $C$DW$L$VLIB_ORB_computeRBrief_d$4$B:
    1011                    ;          EXCLUSIVE CPU CYCLES: 6
    1012                    ;**     -----------------------g3:
    1013                    ;** 58  -----------------------    nfeatures = (*(U$13 += 36)).true_num_features;
    1014                    ;** 60  -----------------------    C$29 = nfeatures<<5;
    1015                    ;** 60  -----------------------    outDesc = VLIB_malloc(C$29);
    1016                    ;** 61  -----------------------    outDesc_cn = malloc(C$29);
    1017                    ;** 62  -----------------------    featWedges = VLIB_malloc(nfeatures);
    1018                    ;** 63  -----------------------    C$28 = nfeatures*4u;
    1019                    ;** 63  -----------------------    validFeaturePoints = VLIB_malloc(C$28);
    1020                    ;** 64  -----------------------    validAngles = VLIB_malloc(C$28);
    1021                    ;** 65  -----------------------    relative_patterns = memalign(8u, K$27);
    1022                    ;** 66  -----------------------    intgrlImg = VLIB_malloc((unsigned)((*U$13).imageWidth*(*U$13).image
    1023                    ;** 69  -----------------------    if ( !((outDesc != NULL)&(outDesc_cn != NULL)&(featWedges != NULL)&
    1024                            .dwpsn  file "./../packages/ti/vlib/src/VLIB_ORB_computeRBrief/VLIB_ORB_computeRBrief_d.c",lin
    1025                    $C$DW$189       .dwtag  DW_TAG_TI_branch
    1026                            .dwattr $C$DW$189, DW_AT_low_pc(0x00)
    1027                            .dwattr $C$DW$189, DW_AT_name("VLIB_malloc")
    1028                            .dwattr $C$DW$189, DW_AT_TI_call
    1029 00000074 00000010!            CALL    .S1     VLIB_malloc       ; |60| 
    1030 00000078 01886162             ADDKPC  .S2     $C$RL2,B3,3       ; |60| 
    1031 0000007c 02280fd8             MV      .L1     A10,A4            ; |60| 
    1032                    $C$RL2:    ; CALL OCCURS {VLIB_malloc} {0}   ; |60| 
    1033                    $C$DW$L$VLIB_ORB_computeRBrief_d$4$E:
    1034                    ;** --------------------------------------------------------------------------*
    1035                    $C$DW$L$VLIB_ORB_computeRBrief_d$5$B:
    1036                    ;          EXCLUSIVE CPU CYCLES: 49
    1037                    $C$DW$190       .dwtag  DW_TAG_TI_branch
    1038                            .dwattr $C$DW$190, DW_AT_low_pc(0x00)
    1039                            .dwattr $C$DW$190, DW_AT_name("malloc")
    1040                            .dwattr $C$DW$190, DW_AT_TI_call
    1041                    
    1042 00000080 10000013!            CALLP   .S2     malloc,B3
    1043 00000084     cf45  ||         STW     .D2T1   A4,*+SP(104)      ; |60| 
    1044 00000086     8506  ||         MV      .L1     A10,A4            ; |61| 
    1045                    
TMS320C6x Assembler PC v7.4.2 Thu Mar 19 12:43:53 2015

Tools Copyright (c) 1996-2012 Texas Instruments Incorporated
package/lib/Regression/regress_d_c/./../packages/ti/vlib/src/VLIB_ORB_computeRBrief/VLIB_ORB_computeRBrief_d.se66 PAGE   20

    1046                            .dwpsn  file "./../packages/ti/vlib/src/VLIB_ORB_computeRBrief/VLIB_ORB_computeRBrief_d.c",lin
    1047                    ;----------------------------------------------------------------------
    1048                    ;  61 | uint8_t    *outDesc_cn          = (uint8_t *)malloc(nfeatures * 32);   
    1049                    ;----------------------------------------------------------------------
    1050                    $C$RL3:    ; CALL OCCURS {malloc} {0}        ; |61| 
    1051                    $C$DW$191       .dwtag  DW_TAG_TI_branch
    1052                            .dwattr $C$DW$191, DW_AT_low_pc(0x00)
    1053                            .dwattr $C$DW$191, DW_AT_name("VLIB_malloc")
    1054                            .dwattr $C$DW$191, DW_AT_TI_call
    1055                    
    1056 00000088 10000013!            CALLP   .S2     VLIB_malloc,B3
    1057 0000008c     af45  ||         STW     .D2T1   A4,*+SP(100)      ; |61| 
    1058 0000008e     9506  ||         MV      .L1X    B10,A4            ; |62| 
    1059                    
    1060                            .dwpsn  file "./../packages/ti/vlib/src/VLIB_ORB_computeRBrief/VLIB_ORB_computeRBrief_d.c",lin
    1061                    ;----------------------------------------------------------------------
    1062                    ;  62 | uint8_t    *featWedges          = (uint8_t *)VLIB_malloc(nfeatures);   
    1063                    ;----------------------------------------------------------------------
    1064 00000090           $C$RL4:    ; CALL OCCURS {VLIB_malloc} {0}   ; |62| 
    1065                            .dwpsn  file "./../packages/ti/vlib/src/VLIB_ORB_computeRBrief/VLIB_ORB_computeRBrief_d.c",lin
    1066                    ;----------------------------------------------------------------------
    1067                    ;  63 | uint32_t   *validFeaturePoints  = (uint32_t *)VLIB_malloc(nfeatures * s
    1068                    ;     | izeof(uint32_t));                                                      
    1069                    ;----------------------------------------------------------------------
    1070 00000090 05284ca2             SHL     .S2     B10,2,B10         ; |63| 
    1071                            .dwpsn  file "./../packages/ti/vlib/src/VLIB_ORB_computeRBrief/VLIB_ORB_computeRBrief_d.c",lin
    1072 00000094     8f45             STW     .D2T1   A4,*+SP(96)       ; |62| 
    1073                    $C$DW$192       .dwtag  DW_TAG_TI_branch
    1074                            .dwattr $C$DW$192, DW_AT_low_pc(0x04)
    1075                            .dwattr $C$DW$192, DW_AT_name("VLIB_malloc")
    1076                            .dwattr $C$DW$192, DW_AT_TI_call
    1077                    
    1078 00000096     9506             MV      .L1X    B10,A4            ; |63| 
    1079 00000098 10000012! ||         CALLP   .S2     VLIB_malloc,B3
    1080                    
    1081                            .dwpsn  file "./../packages/ti/vlib/src/VLIB_ORB_computeRBrief/VLIB_ORB_computeRBrief_d.c",lin
    1082                    $C$RL5:    ; CALL OCCURS {VLIB_malloc} {0}   ; |63| 
    1083                    $C$DW$193       .dwtag  DW_TAG_TI_branch
    1084                            .dwattr $C$DW$193, DW_AT_low_pc(0x00)
    1085                            .dwattr $C$DW$193, DW_AT_name("VLIB_malloc")
    1086                            .dwattr $C$DW$193, DW_AT_TI_call
    1087                    
    1088 000000a0 10000013!            CALLP   .S2     VLIB_malloc,B3
    1089 000000a4     eec5  ||         STW     .D2T1   A4,*+SP(92)       ; |63| 
    1090 000000a6     9506  ||         MV      .L1X    B10,A4            ; |64| 
    1091                    
    1092                            .dwpsn  file "./../packages/ti/vlib/src/VLIB_ORB_computeRBrief/VLIB_ORB_computeRBrief_d.c",lin
    1093                    ;----------------------------------------------------------------------
    1094                    ;  64 | VLIB_F32   *validAngles         = (VLIB_F32 *)VLIB_malloc(nfeatures * s
    1095                    ;     | izeof(VLIB_F32));                                                      
    1096                    ;----------------------------------------------------------------------
    1097 000000a8           $C$RL6:    ; CALL OCCURS {VLIB_malloc} {0}   ; |64| 
    1098 000000a8 0200a35a             ZERO    .L2     B4
    1099 000000ac 02118f8a             SET     .S2     B4,0xc,0xf,B4
    1100                    $C$DW$194       .dwtag  DW_TAG_TI_branch
TMS320C6x Assembler PC v7.4.2 Thu Mar 19 12:43:53 2015

Tools Copyright (c) 1996-2012 Texas Instruments Incorporated
package/lib/Regression/regress_d_c/./../packages/ti/vlib/src/VLIB_ORB_computeRBrief/VLIB_ORB_computeRBrief_d.se66 PAGE   21

    1101                            .dwattr $C$DW$194, DW_AT_low_pc(0x00)
    1102                            .dwattr $C$DW$194, DW_AT_name("memalign")
    1103                            .dwattr $C$DW$194, DW_AT_TI_call
    1104                    
    1105 000000b0 10000013!            CALLP   .S2     memalign,B3
    1106 000000b4     cec5  ||         STW     .D2T1   A4,*+SP(88)       ; |64| 
    1107 000000b6     0e26  ||         MVK     .L1     0x8,A4            ; |65| 
    1108                    
    1109                            .dwpsn  file "./../packages/ti/vlib/src/VLIB_ORB_computeRBrief/VLIB_ORB_computeRBrief_d.c",lin
    1110                    ;----------------------------------------------------------------------
    1111                    ;  65 | int32_t    *relative_patterns   = (int32_t *)memalign(8, CORB_NUM_ORIEN
    1112                    ;     | TATIONS * CORB_NUM_PATTERNS * 2 * sizeof(int32_t));                    
    1113                    ;----------------------------------------------------------------------
    1114 000000b8           $C$RL7:    ; CALL OCCURS {memalign} {0}      ; |65| 
    1115                            .dwpsn  file "./../packages/ti/vlib/src/VLIB_ORB_computeRBrief/VLIB_ORB_computeRBrief_d.c",lin
    1116                    ;----------------------------------------------------------------------
    1117                    ;  66 | uint32_t   *intgrlImg           = (uint32_t *)VLIB_malloc(prm[tpi].imag
    1118                    ;     | eWidth * prm[tpi].imageHeight * sizeof(uint32_t));                     
    1119                    ;----------------------------------------------------------------------
    1120 000000b8 02318286             LDHU    .D2T2   *+B12(24),B4      ; |66| 
    1121 000000c0 02b1a286             LDHU    .D2T2   *+B12(26),B5      ; |66| 
    1122                            .dwpsn  file "./../packages/ti/vlib/src/VLIB_ORB_computeRBrief/VLIB_ORB_computeRBrief_d.c",lin
    1123 000000c4     aec5             STW     .D2T1   A4,*+SP(84)       ; |65| 
    1124 000000c6     4c6e             NOP             3
    1125                            .dwpsn  file "./../packages/ti/vlib/src/VLIB_ORB_computeRBrief/VLIB_ORB_computeRBrief_d.c",lin
    1126 000000c8 0210af82             MPYU    .M2     B5,B4,B4          ; |66| 
    1127 000000cc     2c6e             NOP             2
    1128                    $C$DW$195       .dwtag  DW_TAG_TI_branch
    1129                            .dwattr $C$DW$195, DW_AT_low_pc(0x04)
    1130                            .dwattr $C$DW$195, DW_AT_name("VLIB_malloc")
    1131                            .dwattr $C$DW$195, DW_AT_TI_call
    1132                    
    1133 000000ce     564a             SHL     .S1X    B4,2,A4           ; |66| 
    1134 000000d0 10000012! ||         CALLP   .S2     VLIB_malloc,B3
    1135                    
    1136 000000d4           $C$RL8:    ; CALL OCCURS {VLIB_malloc} {0}   ; |66| 
    1137 000000d4           $C$DW$L$VLIB_ORB_computeRBrief_d$5$E:
    1138                    ;** --------------------------------------------------------------------------*
    1139 000000d4           $C$DW$L$VLIB_ORB_computeRBrief_d$6$B:
    1140                    ;          EXCLUSIVE CPU CYCLES: 22
    1141                    
    1142 000000d4     af0d             LDW     .D2T1   *+SP(100),A0      ; |69| 
    1143 000000d6     0627  ||         ZERO    .L2     B4                ; |69| 
    1144 000000d8     05a6  ||         ZERO    .L1     A3                ; |69| 
    1145 000000da     0292  ||         ZERO    .S1     A5                ; |69| 
    1146                    
    1147                            .dwpsn  file "./../packages/ti/vlib/src/VLIB_ORB_computeRBrief/VLIB_ORB_computeRBrief_d.c",lin
    1148                    ;----------------------------------------------------------------------
    1149                    ;  69 | if( outDesc && outDesc_cn && featWedges && validFeaturePoints && validA
    1150                    ;     | ngles && relative_patterns && intgrlImg ) {                            
    1151                    ;  71 |     int32_t    fail;                                                   
    1152                    ;  72 |     int32_t    i, cnt, k, j;                                           
    1153                    ;----------------------------------------------------------------------
    1154 000000e0     cf2d             LDW     .D2T1   *+SP(104),A2      ; |69| 
    1155 000000e2     ee9d             LDW     .D2T1   *+SP(92),A1       ; |69| 
TMS320C6x Assembler PC v7.4.2 Thu Mar 19 12:43:53 2015

Tools Copyright (c) 1996-2012 Texas Instruments Incorporated
package/lib/Regression/regress_d_c/./../packages/ti/vlib/src/VLIB_ORB_computeRBrief/VLIB_ORB_computeRBrief_d.se66 PAGE   22

    1156                    
    1157 000000e4     8ec5             STW     .D2T1   A4,*+SP(80)       ; |66| 
    1158 000000e6     0626  ||         ZERO    .L1     A4                ; |69| 
    1159                    
    1160 000000e8     9f0d             LDW     .D2T2   *+SP(96),B0       ; |69| 
    1161                    
    1162 000000ea     2a66     [ A0]   MVK     .L1     0x1,A4            ; |69| 
    1163 000000ec     dead  ||         LDW     .D2T2   *+SP(88),B2       ; |69| 
    1164                    
    1165 000000f0 a204a35a     [ A2]   MVK     .L2     0x1,B4            ; |69| 
    1166 000000ee     aead  ||         LDW     .D2T1   *+SP(84),A2       ; |69| 
    1167                    
    1168 000000f4 02909f7b             AND     .L2X    A4,B4,B5          ; |69| 
    1169 000000f8     0213  ||         ZERO    .S2     B4                ; |69| 
    1170 000000fa     0626  ||         ZERO    .L1     A4                ; |69| 
    1171                    
    1172 00000100 8204a35b     [ A1]   MVK     .L2     0x1,B4            ; |69| 
    1173 00000104     8e9d  ||         LDW     .D2T1   *+SP(80),A1       ; |69| 
    1174                    
    1175 00000106     a9e6     [ B0]   MVK     .L1     0x1,A3            ; |69| 
    1176 00000108 6284a358     [ B2]   MVK     .L1     0x1,A5            ; |69| 
    1177                    
    1178 0000010c 028cbf7b             AND     .L2X    A3,B5,B5          ; |69| 
    1179 00000110 a204a359  || [ A2]   MVK     .L1     0x1,A4            ; |69| 
    1180 00000114 01800028  ||         ZERO    .S1     A3                ; |69| 
    1181                    
    1182 00000118 02148f7a             AND     .L2     B4,B5,B4          ; |69| 
    1183                    
    1184 00000120 8184a359     [ A1]   MVK     .L1     0x1,A3            ; |69| 
    1185 00000124 02149f7a  ||         AND     .L2X    A5,B4,B4          ; |69| 
    1186                    
    1187 00000128 02109f7a             AND     .L2X    A4,B4,B4          ; |69| 
    1188 0000012c     9589             AND     .L2X    A3,B4,B0          ; |69| 
    1189                    
    1190 00000130 34424121     [!B0]   BNOP    .S1     $C$L29,2          ; |69| 
    1191 0000012e     2047  ||         MV      .L2     B0,B1             ; guard predicate rewrite
    1192 00000134 2030e2e6  || [ B0]   LDW     .D2T2   *+B12(28),B0      ; |75| 
    1193                    
    1194                            .dwpsn  file "./../packages/ti/vlib/src/VLIB_ORB_computeRBrief/VLIB_ORB_computeRBrief_d.c",lin
    1195                    ;----------------------------------------------------------------------
    1196                    ;  75 | for( i=0, cnt=0; i < prm[tpi].true_num_features; i++ ) {               
    1197                    ;----------------------------------------------------------------------
    1198 00000138 4580a358     [ B1]   ZERO    .L1     A11               ; |75| 
    1199 00000140 5004a35a     [!B1]   MVK     .L2     0x1,B0            ; |75| nullify predicate
    1200                            .dwpsn  file "./../packages/ti/vlib/src/VLIB_ORB_computeRBrief/VLIB_ORB_computeRBrief_d.c",lin
    1201 00000144 30001c10     [!B0]   B       .S1     $C$L3             ; |75| 
    1202                            .dwpsn  file "./../packages/ti/vlib/src/VLIB_ORB_computeRBrief/VLIB_ORB_computeRBrief_d.c",lin
    1203                               ; BRANCHCC OCCURS {$C$L29}        ; |69| 
    1204 00000148           $C$DW$L$VLIB_ORB_computeRBrief_d$6$E:
    1205                    ;** --------------------------------------------------------------------------*
    1206 00000148           $C$DW$L$VLIB_ORB_computeRBrief_d$7$B:
    1207                    ;          EXCLUSIVE CPU CYCLES: 5
    1208                    ;**     -----------------------    K$235 = 128;
    1209                    ;** 75  -----------------------    cnt = 0;
    1210                    ;** 75  -----------------------    if ( !(*U$13).true_num_features ) goto g12;
TMS320C6x Assembler PC v7.4.2 Thu Mar 19 12:43:53 2015

Tools Copyright (c) 1996-2012 Texas Instruments Incorporated
package/lib/Regression/regress_d_c/./../packages/ti/vlib/src/VLIB_ORB_computeRBrief/VLIB_ORB_computeRBrief_d.se66 PAGE   23

    1211 00000148 223d42e6     [ B0]   LDW     .D2T2   *+SP(40),B4
    1212 0000014c 00006000             NOP             4
    1213                            .dwpsn  file "./../packages/ti/vlib/src/VLIB_ORB_computeRBrief/VLIB_ORB_computeRBrief_d.c",lin
    1214                               ; BRANCHCC OCCURS {$C$L3}         ; |75| 
    1215 00000150           $C$DW$L$VLIB_ORB_computeRBrief_d$7$E:
    1216                    ;** --------------------------------------------------------------------------*
    1217 00000150           $C$DW$L$VLIB_ORB_computeRBrief_d$8$B:
    1218                    ;          EXCLUSIVE CPU CYCLES: 4
    1219                    ;**     -----------------------    U$58 = prm+U$12;
    1220                    ;**     -----------------------    U$57 = 0;
    1221                    ;** 75  -----------------------    i = 0;
    1222                    ;**     -----------------------    #pragma LOOP_FLAGS(5120u)
    1223                    
    1224 00000150 0211b079             ADD     .L1X    A13,B4,A4
    1225 00000154 02a66629  ||         MVKL    .S1     0x40354ccc,A5
    1226 00000158 052c08f0  ||         MV      .D1     A11,A10
    1227                    
    1228 0000015c 01902265             LDW     .D1T1   *+A4(4),A3        ; |76| 
    1229 00000160 026666a9  ||         MVKL    .S1     0xcccccccd,A4
    1230 00000164 07ac0fd8  ||         MV      .L1     A11,A15
    1231                    
    1232 00000168 02666668             MVKH    .S1     0xcccccccd,A4
    1233 0000016c 02a01ae8             MVKH    .S1     0x40354ccc,A5
    1234 00000170           $C$DW$L$VLIB_ORB_computeRBrief_d$8$E:
    1235                    ;*----------------------------------------------------------------------------*
    1236                    ;*   SOFTWARE PIPELINE INFORMATION
    1237                    ;*      Disqualified loop: Loop contains a call
    1238                    ;*      Disqualified loop: Loop contains non-pipelinable instructions
    1239                    ;*----------------------------------------------------------------------------*
    1240 00000170           $C$L2:    
    1241                            .dwpsn  file "./../packages/ti/vlib/src/VLIB_ORB_computeRBrief/VLIB_ORB_computeRBrief_d.c",lin
    1242 00000170           $C$DW$L$VLIB_ORB_computeRBrief_d$9$B:
    1243                    ;          EXCLUSIVE CPU CYCLES: 10
    1244                    ;**     -----------------------g6:
    1245                    ;** 76  -----------------------    C$27 = (*U$58).staticInFeatures+U$57;
    1246                    ;** 76  -----------------------    pointX = *C$27;
    1247                    ;** 77  -----------------------    pointY = C$27[1];
    1248                    ;** 78  -----------------------    range = (int)__c6xabi_nround(21.3);
    1249                    ;** 81  -----------------------    if ( !((pointX >= range)&(pointY >= range)) ) goto g10;
    1250                    ;** 81  -----------------------    v$1 = prm;
    1251                    ;** 81  -----------------------    if ( (*U$13).imageWidth-pointX < range ) goto g11;
    1252                    ;** 81  -----------------------    if ( (*U$13).imageHeight-pointY < range ) goto g11;
    1253                    ;** 85  -----------------------    validFeaturePoints[cnt] = (unsigned)((int)pointY<<16)|(unsigned)poi
    1254                    ;** 86  -----------------------    validAngles[cnt] = *(i*4+(*U$13).staticInAngle);
    1255                    ;** 87  -----------------------    ++cnt;
    1256                    ;** 87  -----------------------    goto g11;
    1257                    ;**     -----------------------g10:
    1258                    ;**     -----------------------    v$1 = prm;
    1259                    ;**     -----------------------g11:
    1260                    ;** 75  -----------------------    U$57 += 4;
    1261                    ;** 75  -----------------------    U$58 = U$12+v$1;
    1262                    ;** 75  -----------------------    if ( (unsigned)(++i) < (*U$58).true_num_features ) goto g6;
    1263 00000170 00004000             NOP             3
    1264                            .dwpsn  file "./../packages/ti/vlib/src/VLIB_ORB_computeRBrief/VLIB_ORB_computeRBrief_d.c",lin
    1265                    ;----------------------------------------------------------------------
TMS320C6x Assembler PC v7.4.2 Thu Mar 19 12:43:53 2015

Tools Copyright (c) 1996-2012 Texas Instruments Incorporated
package/lib/Regression/regress_d_c/./../packages/ti/vlib/src/VLIB_ORB_computeRBrief/VLIB_ORB_computeRBrief_d.se66 PAGE   24

    1266                    ;  76 | int    pointX = prm[tpi].staticInFeatures[2 * i];                      
    1267                    ;----------------------------------------------------------------------
    1268 00000174 018de078             ADD     .L1     A15,A3,A3         ; |76| 
    1269                    $C$DW$196       .dwtag  DW_TAG_TI_branch
    1270                            .dwattr $C$DW$196, DW_AT_low_pc(0x00)
    1271                            .dwattr $C$DW$196, DW_AT_name("__c6xabi_nround")
    1272                            .dwattr $C$DW$196, DW_AT_TI_call
    1273                    
    1274 00000178 00000011!            CALL    .S1     __c6xabi_nround   ; |78| 
    1275 0000017c 060c0204  ||         LDHU    .D1T1   *A3,A12           ; |76| 
    1276                    
    1277                            .dwpsn  file "./../packages/ti/vlib/src/VLIB_ORB_computeRBrief/VLIB_ORB_computeRBrief_d.c",lin
    1278                    ;----------------------------------------------------------------------
    1279                    ;  77 | int    pointY = prm[tpi].staticInFeatures[2 * i + 1];                  
    1280                    ;----------------------------------------------------------------------
    1281 00000180 070c2204             LDHU    .D1T1   *+A3(2),A14       ; |77| 
    1282                            .dwpsn  file "./../packages/ti/vlib/src/VLIB_ORB_computeRBrief/VLIB_ORB_computeRBrief_d.c",lin
    1283                    ;----------------------------------------------------------------------
    1284                    ;  78 | int    range = round(CORB_HALF_PATCH_SIZE * 1.42);                     
    1285                    ;----------------------------------------------------------------------
    1286 00000184 01826162             ADDKPC  .S2     $C$RL9,B3,3       ; |78| 
    1287 00000188           $C$RL9:    ; CALL OCCURS {__c6xabi_nround} {0}  ; |78| 
    1288 00000188           $C$DW$L$VLIB_ORB_computeRBrief_d$9$E:
    1289                    ;** --------------------------------------------------------------------------*
    1290 00000188           $C$DW$L$VLIB_ORB_computeRBrief_d$10$B:
    1291                    ;          EXCLUSIVE CPU CYCLES: 36
    1292 00000188 01948038             DPTRUNC .L1     A5:A4,A3          ; |78| 
    1293                            .dwpsn  file "./../packages/ti/vlib/src/VLIB_ORB_computeRBrief/VLIB_ORB_computeRBrief_d.c",lin
    1294 0000018c 07bc8058             ADD     .L1     4,A15,A15         ; |75| 
    1295 00000190 00002000             NOP             2
    1296                            .dwpsn  file "./../packages/ti/vlib/src/VLIB_ORB_computeRBrief/VLIB_ORB_computeRBrief_d.c",lin
    1297                    ;----------------------------------------------------------------------
    1298                    ;  81 | if(((pointX >= range) &&                                               
    1299                    ;  82 |     (pointY >= range) &&                                               
    1300                    ;  83 |     (prm[tpi].imageWidth - pointX >= range) &&                         
    1301                    ;  84 |     (prm[tpi].imageHeight - pointY >= range))) {                       
    1302                    ;----------------------------------------------------------------------
    1303 00000194 020d8af8             CMPLT   .L1     A12,A3,A4         ; |81| 
    1304 00000198 028dcaf8             CMPLT   .L1     A14,A3,A5         ; |81| 
    1305 0000019c 00148ff8             OR      .L1     A4,A5,A0
    1306 000001a0 d2318286     [!A0]   LDHU    .D2T2   *+B12(24),B4      ; |81| 
    1307 000001a4 c084a358     [ A0]   MVK     .L1     0x1,A1            ; |81| 
    1308 000001a8 c23d42e6     [ A0]   LDW     .D2T2   *+SP(40),B4
    1309 000001ac 00002000             NOP             2
    1310 000001b0 d23092f8     [!A0]   SUB     .L1X    B4,A12,A4         ; |81| 
    1311 000001b4 d08c8af8     [!A0]   CMPLT   .L1     A4,A3,A1          ; |81| 
    1312 000001b8 92b1a286     [!A1]   LDHU    .D2T2   *+B12(26),B5      ; |81| 
    1313 000001bc d23d42e6     [!A0]   LDW     .D2T2   *+SP(40),B4       ; |81| 
    1314 000001c0 8004a35a     [ A1]   MVK     .L2     0x1,B0
    1315 000001c4 00002000             NOP             2
    1316 000001c8 92b8b0fa     [!A1]   SUB     .L2X    B5,A14,B5         ; |81| 
    1317 000001cc 900cbafa     [!A1]   CMPLT   .L2X    B5,A3,B0          ; |81| 
    1318                            .dwpsn  file "./../packages/ti/vlib/src/VLIB_ORB_computeRBrief/VLIB_ORB_computeRBrief_d.c",lin
    1319                    ;----------------------------------------------------------------------
    1320                    ;  85 | validFeaturePoints[cnt] = ((pointY << 0x10U) | pointX);                
TMS320C6x Assembler PC v7.4.2 Thu Mar 19 12:43:53 2015

Tools Copyright (c) 1996-2012 Texas Instruments Incorporated
package/lib/Regression/regress_d_c/./../packages/ti/vlib/src/VLIB_ORB_computeRBrief/VLIB_ORB_computeRBrief_d.se66 PAGE   25

    1321                    ;----------------------------------------------------------------------
    1322 000001d0 31bee2e4     [!B0]   LDW     .D2T1   *+SP(92),A3       ; |85| 
    1323                            .dwpsn  file "./../packages/ti/vlib/src/VLIB_ORB_computeRBrief/VLIB_ORB_computeRBrief_d.c",lin
    1324 000001d4 0211b078             ADD     .L1X    B4,A13,A4         ; |75| 
    1325                            .dwpsn  file "./../packages/ti/vlib/src/VLIB_ORB_computeRBrief/VLIB_ORB_computeRBrief_d.c",lin
    1326                    ;----------------------------------------------------------------------
    1327                    ;  86 | validAngles[cnt]        = prm[tpi].staticInAngle[i];                   
    1328                    ;  87 | cnt++;                                                                 
    1329                    ;  91 | for( i=0; i < cnt; i++ ) {                                             
    1330                    ;  92 | scale = ((VLIB_F32)CORB_NUM_ORIENTATIONS) / 360.0f;                    
    1331                    ;----------------------------------------------------------------------
    1332 000001d8 333062e4     [!B0]   LDW     .D2T1   *+B12(12),A6      ; |86| 
    1333                            .dwpsn  file "./../packages/ti/vlib/src/VLIB_ORB_computeRBrief/VLIB_ORB_computeRBrief_d.c",lin
    1334 000001dc 0290e264             LDW     .D1T1   *+A4(28),A5       ; |75| 
    1335                            .dwpsn  file "./../packages/ti/vlib/src/VLIB_ORB_computeRBrief/VLIB_ORB_computeRBrief_d.c",lin
    1336 000001e0 33b1c018     [!B0]   PACK2   .L1     A14,A12,A7        ; |85| 
    1337 000001e4 338d6a74     [!B0]   STW     .D1T1   A7,*+A3[A11]      ; |85| 
    1338                            .dwpsn  file "./../packages/ti/vlib/src/VLIB_ORB_computeRBrief/VLIB_ORB_computeRBrief_d.c",lin
    1339 000001e8 31bec2e4     [!B0]   LDW     .D2T1   *+SP(88),A3       ; |75| 
    1340                    
    1341 000001ec 33194a65     [!B0]   LDW     .D1T1   *+A6[A10],A6      ; |86| 
    1342 000001f0 05282058  ||         ADD     .L1     1,A10,A10         ; |75| 
    1343                    
    1344 000001f4 00154bf8             CMPLTU  .L1     A10,A5,A0         ; |75| 
    1345                    
    1346 000001f8 cfe42123     [ A0]   BNOP    .S2     $C$L2,1           ; |75| 
    1347 000001fc c2a66628  || [ A0]   MVKL    .S1     0x40354ccc,A5
    1348                    
    1349 00000200 c2a01ae8     [ A0]   MVKH    .S1     0x40354ccc,A5
    1350                    
    1351 00000204 330d6a75     [!B0]   STW     .D1T1   A6,*+A3[A11]      ; |86| 
    1352 00000208 35ac2058  || [!B0]   ADD     .L1     1,A11,A11         ; |87| 
    1353                    
    1354 0000020c c1902265     [ A0]   LDW     .D1T1   *+A4(4),A3        ; |76| 
    1355 00000210 c26666a8  || [ A0]   MVKL    .S1     0xcccccccd,A4
    1356                    
    1357 00000214 c2666669     [ A0]   MVKH    .S1     0xcccccccd,A4
    1358                               ; BRANCHCC OCCURS {$C$L2}         ; |75| 
    1359 00000220           $C$DW$L$VLIB_ORB_computeRBrief_d$10$E:
    1360                    ;** --------------------------------------------------------------------------*
    1361 00000220           $C$L3:    
    1362 00000220           $C$DW$L$VLIB_ORB_computeRBrief_d$11$B:
    1363                    ;          EXCLUSIVE CPU CYCLES: 7
    1364                    ;**     -----------------------g12:
    1365                    ;** 54  -----------------------    status_nat_vs_int = 1;
    1366                    ;** 55  -----------------------    status_nat_vs_ref = 1;
    1367                    ;**     -----------------------    K$244 = &cycles[0];
    1368                    ;**     -----------------------    K$229 = &testPatternString[0];
    1369                    ;** 91  -----------------------    if ( cnt <= 0 ) goto g36;
    1370                    
    1371 00000220 002c0ad9             CMPGT   .L1     A11,0,A0          ; |91| 
    1372 00000224     cebd  ||         LDW     .D2T1   *+SP(88),A3
    1373 00000226     26a7  ||         MVK     .L2     0x1,B5            ; |54| 
    1374                    
    1375 00000228 d0003593     [!A0]   B       .S2     $C$L11            ; |91| 
TMS320C6x Assembler PC v7.4.2 Thu Mar 19 12:43:53 2015

Tools Copyright (c) 1996-2012 Texas Instruments Incorporated
package/lib/Regression/regress_d_c/./../packages/ti/vlib/src/VLIB_ORB_computeRBrief/VLIB_ORB_computeRBrief_d.se66 PAGE   26

    1376 0000022c     8f4d  ||         LDW     .D2T1   *+SP(96),A4
    1377 0000022e     4046  ||         MV      .L1     A0,A2             ; |91| branch predicate copy
    1378 00000230 c75555a9  || [ A0]   MVKL    .S1     0x3daaaaab,A14
    1379 00000234     82c7  ||         MV      .L2     B5,B4             ; |54| 
    1380                    
    1381 00000238 b500a35a     [!A2]   ZERO    .L2     B10
    1382 00000236     ff45  ||         STW     .D2T2   B4,*+SP(108)      ; |54| 
    1383                    
    1384 00000240 b500a358     [!A2]   ZERO    .L1     A10
    1385 00000244 c71ed568     [ A0]   MVKH    .S1     0x3daaaaab,A14
    1386                            .dwpsn  file "./../packages/ti/vlib/src/VLIB_ORB_computeRBrief/VLIB_ORB_computeRBrief_d.c",lin
    1387 00000248     9fd5             STW     .D2T2   B5,*+SP(112)      ; |54| 
    1388                            .dwpsn  file "./../packages/ti/vlib/src/VLIB_ORB_computeRBrief/VLIB_ORB_computeRBrief_d.c",lin
    1389                    ;----------------------------------------------------------------------
    1390                    ;  93 | featWedges[i] = MIN((int32_t)(floor((VLIB_D64)validAngles[i] *\        
    1391                    ;----------------------------------------------------------------------
    1392 0000024a     8dc8             CMPLTU  .L1     A4,A3,A0          ; |93| 
    1393                            .dwpsn  file "./../packages/ti/vlib/src/VLIB_ORB_computeRBrief/VLIB_ORB_computeRBrief_d.c",lin
    1394                               ; BRANCHCC OCCURS {$C$L11}        ; |91| 
    1395 0000024c           $C$DW$L$VLIB_ORB_computeRBrief_d$11$E:
    1396                    ;** --------------------------------------------------------------------------*
    1397 0000024c           $C$DW$L$VLIB_ORB_computeRBrief_d$12$B:
    1398                    ;          EXCLUSIVE CPU CYCLES: 6
    1399                    ;**     -----------------------    K$108 = 0.083333F;
    1400                    ;** 93  -----------------------    if ( featWedges < validAngles ) goto g25;
    1401                    
    1402 0000024c c06e4123     [ A0]   BNOP    .S2     $C$L7,2           ; |93| 
    1403 00000250 d50f8059  || [!A0]   SUB     .L1     A3,4,A10
    1404 00000254 d61006a1  || [!A0]   MV      .S1     A4,A12
    1405 00000258 d7ac08f0  || [!A0]   MV      .D1     A11,A15
    1406                    
    1407 00000260 c50f8058     [ A0]   SUB     .L1     A3,4,A10
    1408 00000264 c6100fd8     [ A0]   MV      .L1     A4,A12
    1409 00000268 c7ac0fd8     [ A0]   MV      .L1     A11,A15
    1410                            .dwpsn  file "./../packages/ti/vlib/src/VLIB_ORB_computeRBrief/VLIB_ORB_computeRBrief_d.c",lin
    1411                    ;----------------------------------------------------------------------
    1412                    ;  94 | (VLIB_D64)scale)), CORB_NUM_ORIENTATIONS - 1);                         
    1413                    ;  97 | for( i = 0; i < CORB_NUM_ORIENTATIONS; i++ ) {                         
    1414                    ;  98 | const RotationMatrix    rMat = getRotationMatrix(i);                   
    1415                    ; 100 | for( j = 0; j < CORB_NUM_PATTERNS; j++ ) {                             
    1416                    ; 101 | const VLIB_D64    x1 = (VLIB_D64) prm[tpi].orbPattern[j * 4];          
    1417                    ; 102 | const VLIB_D64    y1 = (VLIB_D64) prm[tpi].orbPattern[j * 4 + 1];      
    1418                    ; 103 | const VLIB_D64    x2 = (VLIB_D64) prm[tpi].orbPattern[j * 4 + 2];      
    1419                    ; 104 | const VLIB_D64    y2 = (VLIB_D64) prm[tpi].orbPattern[j * 4 + 3];      
    1420                    ; 106 | const int32_t    x1p = ROUND_DOUBLE(rMat.val[0][0] * x1 + rMat.val[0][1
    1421                    ;     | ] * y1);                                                               
    1422                    ; 107 | const int32_t    y1p = ROUND_DOUBLE(rMat.val[1][0] * x1 + rMat.val[1][1
    1423                    ;     | ] * y1);                                                               
    1424                    ; 108 | const int32_t    x2p = ROUND_DOUBLE(rMat.val[0][0] * x2 + rMat.val[0][1
    1425                    ;     | ] * y2);                                                               
    1426                    ; 109 | const int32_t    y2p = ROUND_DOUBLE(rMat.val[1][0] * x2 + rMat.val[1][1
    1427                    ;     | ] * y2);                                                               
    1428                    ; 110 | const int32_t    nstep = (int)prm[tpi].imageWidth;                     
    1429                    ; 111 | int32_t          center;                                               
    1430                    ; 113 | center  = (int32_t)(x1p + prm[tpi].imageWidth * y1p);                  
TMS320C6x Assembler PC v7.4.2 Thu Mar 19 12:43:53 2015

Tools Copyright (c) 1996-2012 Texas Instruments Incorporated
package/lib/Regression/regress_d_c/./../packages/ti/vlib/src/VLIB_ORB_computeRBrief/VLIB_ORB_computeRBrief_d.se66 PAGE   27

    1431                    ; 115 | relative_patterns[i * CORB_NUM_PATTERNS * 2 + j * 2] =                 
    1432                    ; 116 | 4 * (center - CORB_PATCH_KERNEL_HALF_WIDTH - CORB_PATCH_KERNEL_HALF_WID
    1433                    ;     | TH * nstep - 1 - nstep);                                               
    1434                    ; 119 | center  = (int32_t)(x2p + prm[tpi].imageWidth * y2p);                  
    1435                    ; 121 | relative_patterns[i * CORB_NUM_PATTERNS * 2 + j * 2 + 1] =             
    1436                    ; 122 | 4 * (center - CORB_PATCH_KERNEL_HALF_WIDTH - CORB_PATCH_KERNEL_HALF_WID
    1437                    ;     | TH * nstep - 1 - nstep);                                               
    1438                    ; 127 | VLIB_fillBuffer(prm[tpi].testPattern, 128, intgrlImg, prm[tpi].staticIn
    1439                    ;     | Integral,                                                              
    1440                    ; 128 | prm[tpi].imageWidth, prm[tpi].imageHeight, sizeof(uint32_t) * prm[tpi].
    1441                    ;     | imageWidth,                                                            
    1442                    ; 129 | sizeof(uint32_t), testPatternString);                                  
    1443                    ; 133 | VLIB_profile_start(vlib_KERNEL_OPT);                                   
    1444                    ; 134 | VLIB_ORB_computeRBrief(intgrlImg,                                      
    1445                    ; 135 | prm[tpi].imageWidth,                                                   
    1446                    ; 136 | prm[tpi].imageWidth,                                                   
    1447                    ; 137 | prm[tpi].imageHeight,                                                  
    1448                    ; 138 | validFeaturePoints,                                                    
    1449                    ; 139 | featWedges,                                                            
    1450                    ; 140 | cnt,                                                                   
    1451                    ; 141 | relative_patterns,                                                     
    1452                    ; 142 | outDesc);                                                              
    1453                    ; 143 | VLIB_profile_stop();                                                   
    1454                    ; 145 | VLIB_profile_start(vlib_KERNEL_CN);                                    
    1455                    ; 146 | VLIB_ORB_computeRBrief_cn(intgrlImg,                                   
    1456                    ; 147 | prm[tpi].imageWidth,                                                   
    1457                    ; 148 | prm[tpi].imageWidth,                                                   
    1458                    ; 149 | prm[tpi].imageHeight,                                                  
    1459                    ; 150 | validFeaturePoints,                                                    
    1460                    ; 151 | featWedges,                                                            
    1461                    ; 152 | cnt,                                                                   
    1462                    ; 153 | relative_patterns,                                                     
    1463                    ; 154 | outDesc_cn);                                                           
    1464                    ; 155 | VLIB_profile_stop();                                                   
    1465                    ; 158 | for( i=0; i < cnt; i++ ) {                                             
    1466                    ; 159 | for( k=0; k < (CORB_NUM_PATTERNS / 8); k++ ) {                         
    1467                    ; 160 | if((outDesc_cn[i * 32 + k] != outDesc[i * 32 + k])) {                  
    1468                    ; 161 | status_nat_vs_int = vlib_KERNEL_FAIL;                                  
    1469                    ; 162 | if( LevelOfFeedback > 0 ) {                                            
    1470                    ; 163 | printf(" Mismatch in Index = %u %u \n", i, k);                         
    1471                    ; 165 | break;                                                                 
    1472                    ; 171 | if((prm[tpi].testPattern == STATIC) && (prm[tpi].staticOut != NULL)) { 
    1473                    ; 172 | for( i=0; i < cnt; i++ ) {                                             
    1474                    ; 173 | for( k=0; k < (CORB_NUM_PATTERNS / 8); k++ ) {                         
    1475                    ; 174 | if((outDesc_cn[i * 32 + k] != prm[tpi].staticOut[i * 32 + k])) {       
    1476                    ; 175 | status_nat_vs_ref = vlib_KERNEL_FAIL;                                  
    1477                    ; 176 | if( LevelOfFeedback > 0 ) {                                            
    1478                    ; 177 | printf(" Mismatch in Index = %u %u \n", i, k);                         
    1479                    ; 179 | break;                                                                 
    1480                    ; 186 | fail = ((status_nat_vs_int == vlib_KERNEL_FAIL) ||                     
    1481                    ; 187 | (status_nat_vs_ref == vlib_KERNEL_FAIL)) ? 1 : 0;                      
    1482                    ; 189 | est_test=1;                                                            
    1483                    ; 192 | sprintf(desc, "%s generated input | Opt and NatC results compared | out
    1484                    ;     | put->n_features= %d, %s",                                              
    1485                    ; 193 | testPatternString, cnt, prm[tpi].desc);                                
TMS320C6x Assembler PC v7.4.2 Thu Mar 19 12:43:53 2015

Tools Copyright (c) 1996-2012 Texas Instruments Incorporated
package/lib/Regression/regress_d_c/./../packages/ti/vlib/src/VLIB_ORB_computeRBrief/VLIB_ORB_computeRBrief_d.se66 PAGE   28

    1486                    ; 195 | VLIB_formula_add_test(cnt, NULL, NULL, fail, desc, NULL);              
    1487                    ; 197 | } else {                                                               
    1488                    ; 199 | sprintf(desc, "Total Features= %d", prm[tpi].true_num_features);       
    1489                    ; 200 | VLIB_skip_test(desc);                                                  
    1490                    ; 204 | free(outDesc_cn);                                                      
    1491                    ; 205 | VLIB_free(outDesc);                                                    
    1492                    ; 206 | VLIB_free(featWedges);                                                 
    1493                    ; 207 | VLIB_free(validFeaturePoints);                                         
    1494                    ; 208 | VLIB_free(validAngles);                                                
    1495                    ; 209 | align_free(relative_patterns);                                         
    1496                    ; 210 | VLIB_free(intgrlImg);                                                  
    1497                    ; 214 | VLIB_profile_cycle_report(vlib_PROFILE_RANGE,                          
    1498                    ;----------------------------------------------------------------------
    1499                               ; BRANCHCC OCCURS {$C$L7}         ; |93| 
    1500 0000026c           $C$DW$L$VLIB_ORB_computeRBrief_d$12$E:
    1501                    ;** --------------------------------------------------------------------------*
    1502 0000026c           $C$DW$L$VLIB_ORB_computeRBrief_d$13$B:
    1503                    ;**     -----------------------    U$109 = &validAngles[-1];
    1504                    ;**     -----------------------    U$126 = featWedges;
    1505                    ;**     -----------------------    L$1 = cnt;
    1506                    ;**     -----------------------    #pragma MUST_ITERATE(1, 18446744073709551615, 1)
    1507                    ;**     -----------------------    #pragma LOOP_FLAGS(5128u)
    1508 0000026c           $C$DW$L$VLIB_ORB_computeRBrief_d$13$E:
    1509                    ;*----------------------------------------------------------------------------*
    1510                    ;*   SOFTWARE PIPELINE INFORMATION
    1511                    ;*      Disqualified loop: Loop contains a call
    1512                    ;*      Disqualified loop: Loop contains non-pipelinable instructions
    1513                    ;*      Disqualified loop: Loop contains control code
    1514                    ;*----------------------------------------------------------------------------*
    1515 0000026c           $C$L4:    
    1516 0000026c           $C$DW$L$VLIB_ORB_computeRBrief_d$14$B:
    1517                    ;          EXCLUSIVE CPU CYCLES: 10
    1518                    ;**     -----------------------g15:
    1519                    ;** 215 -----------------------    if ( modf(_mpysp2dp(*(++U$109), K$108), &y) < 0.0 ) goto g17;  // [
    1520                    ;** 215 -----------------------    R$7 = y;  // [8]
    1521                    ;** 215 -----------------------    goto g18;  // [8]
    1522                    ;**     -----------------------g17:
    1523                    ;** 215 -----------------------    R$7 = y-1.0;  // [8]
    1524                    ;**     -----------------------g18:
    1525                    ;** 93  -----------------------    if ( (int)R$7 >= 29 ) goto g23;
    1526                            .dwpsn  file "C:/VLIB_Tools/CCSV5_4_0/ccsv5/tools/compiler/C6000/include/math.h",line 215,colu
    1527                    ;----------------------------------------------------------------------
    1528                    ; 215 | NULL,                                                                  
    1529                    ;----------------------------------------------------------------------
    1530 0000026c 01a83264             LDW     .D1T1   *++A10,A3         ; |215| 
    1531 00000270 023c7ec2             ADDAD   .D2     SP,3,B4
    1532 00000274 00002000             NOP             2
    1533                    $C$DW$197       .dwtag  DW_TAG_TI_branch
    1534                            .dwattr $C$DW$197, DW_AT_low_pc(0x00)
    1535                            .dwattr $C$DW$197, DW_AT_name("modf")
    1536                            .dwattr $C$DW$197, DW_AT_TI_call
    1537 00000278 00000010!            CALL    .S1     modf              ; |215| 
    1538 0000027c 023865f0             MPYSP2DP .M1    A3,A14,A5:A4      ; |215| 
    1539 00000280 01816162             ADDKPC  .S2     $C$RL10,B3,3      ; |215| 
    1540 00000284           $C$RL10:   ; CALL OCCURS {modf} {0}          ; |215| 
TMS320C6x Assembler PC v7.4.2 Thu Mar 19 12:43:53 2015

Tools Copyright (c) 1996-2012 Texas Instruments Incorporated
package/lib/Regression/regress_d_c/./../packages/ti/vlib/src/VLIB_ORB_computeRBrief/VLIB_ORB_computeRBrief_d.se66 PAGE   29

    1541 00000284           $C$DW$L$VLIB_ORB_computeRBrief_d$14$E:
    1542                    ;** --------------------------------------------------------------------------*
    1543 00000284           $C$DW$L$VLIB_ORB_computeRBrief_d$15$B:
    1544                    ;          EXCLUSIVE CPU CYCLES: 20
    1545                    
    1546 00000284 030004f9             ZERO    .L1     A7:A6             ; |215| 
    1547 00000288 023c63e6  ||         LDDW    .D2T2   *+SP(24),B5:B4    ; |215| 
    1548                    
    1549 0000028c 00188aa0             CMPLTDP .S1     A5:A4,A7:A6,A0    ; |215| 
    1550 00000290     0626             ZERO    .L1     A4                ; |215| 
    1551 00000292     0ae6     [ A0]   ZERO    .L1     A5
    1552 00000294 c2969d88     [ A0]   SET     .S1     A5,0x14,0x1d,A5
    1553 00000298 050004fa             ZERO    .L2     B11:B10           ; |215| 
    1554 000002a0 c2109b3a     [ A0]   FSUBDP  .L2X    B5:B4,A5:A4,B5:B4 ; |215| 
    1555                            .dwpsn  file "./../packages/ti/vlib/src/VLIB_ORB_computeRBrief/VLIB_ORB_computeRBrief_d.c",lin
    1556 000002a4     bb13             MVK     .S2     29,B6             ; |93| 
    1557 000002a6     0c6e             NOP             1
    1558 000002a8 0294803a             DPTRUNC .L2     B5:B4,B5          ; |93| 
    1559 000002ac 023c9ec2             ADDAD   .D2     SP,4,B4
    1560 000002b0     2c6e             NOP             2
    1561 000002b2     af09             CMPLT   .L2     B5,B6,B0          ; |93| 
    1562                    
    1563 000002b4 30306121     [!B0]   BNOP    .S1     $C$L5,3           ; |93| 
    1564 000002b8 21a80264  || [ B0]   LDW     .D1T1   *A10,A3           ; |215| 
    1565                    
    1566                            .dwpsn  file "C:/VLIB_Tools/CCSV5_4_0/ccsv5/tools/compiler/C6000/include/math.h",line 215,colu
    1567                    ;----------------------------------------------------------------------
    1568                    ; 216 | "Total Number of Features(numFeatures)");                              
    1569                    ; 219 | VLIB_kernel_memory();                                                  
    1570                    ;----------------------------------------------------------------------
    1571                    $C$DW$198       .dwtag  DW_TAG_TI_branch
    1572                            .dwattr $C$DW$198, DW_AT_low_pc(0x00)
    1573                            .dwattr $C$DW$198, DW_AT_name("modf")
    1574                            .dwattr $C$DW$198, DW_AT_TI_call
    1575 000002c0 20000010!    [ B0]   CALL    .S1     modf              ; |215| 
    1576                    
    1577 000002c4 023865f1             MPYSP2DP .M1    A3,A14,A5:A4      ; |215| 
    1578 000002c8 31800ea8  || [!B0]   MVK     .S1     0x1d,A3           ; |93| 
    1579                    
    1580                            .dwpsn  file "./../packages/ti/vlib/src/VLIB_ORB_computeRBrief/VLIB_ORB_computeRBrief_d.c",lin
    1581                               ; BRANCHCC OCCURS {$C$L5}         ; |93| 
    1582 000002cc           $C$DW$L$VLIB_ORB_computeRBrief_d$15$E:
    1583                    ;** --------------------------------------------------------------------------*
    1584 000002cc           $C$DW$L$VLIB_ORB_computeRBrief_d$16$B:
    1585                    ;          EXCLUSIVE CPU CYCLES: 4
    1586                    ;** 215 -----------------------    if ( modf(_mpysp2dp(*U$109, K$108), &y) < 0.0 ) goto g21;  // [8]
    1587                    ;** 215 -----------------------    R$6 = y;  // [8]
    1588                    ;** 215 -----------------------    goto g22;  // [8]
    1589                    ;**     -----------------------g21:
    1590                    ;** 215 -----------------------    R$6 = y-1.0;  // [8]
    1591                    ;**     -----------------------g22:
    1592                    ;** 93  -----------------------    S$5 = (int)R$6;
    1593                    ;** 93  -----------------------    goto g24;
    1594                            .dwpsn  file "C:/VLIB_Tools/CCSV5_4_0/ccsv5/tools/compiler/C6000/include/math.h",line 215,colu
    1595 000002cc 01846162             ADDKPC  .S2     $C$RL11,B3,3      ; |215| 
TMS320C6x Assembler PC v7.4.2 Thu Mar 19 12:43:53 2015

Tools Copyright (c) 1996-2012 Texas Instruments Incorporated
package/lib/Regression/regress_d_c/./../packages/ti/vlib/src/VLIB_ORB_computeRBrief/VLIB_ORB_computeRBrief_d.se66 PAGE   30

    1596 000002d0           $C$RL11:   ; CALL OCCURS {modf} {0}          ; |215| 
    1597 000002d0           $C$DW$L$VLIB_ORB_computeRBrief_d$16$E:
    1598                    ;** --------------------------------------------------------------------------*
    1599 000002d0           $C$DW$L$VLIB_ORB_computeRBrief_d$17$B:
    1600                    ;          EXCLUSIVE CPU CYCLES: 13
    1601                    
    1602 000002d0 00115a63             CMPLTDP .S2X    A5:A4,B11:B10,B0  ; |215| 
    1603 000002d4 023c83e4  ||         LDDW    .D2T1   *+SP(32),A5:A4    ; |215| 
    1604                    
    1605                            .dwpsn  file "./../packages/ti/vlib/src/VLIB_ORB_computeRBrief/VLIB_ORB_computeRBrief_d.c",lin
    1606 000002d8 003fe058             SUB     .L1     A15,1,A0          ; |91| 
    1607                            .dwpsn  file "C:/VLIB_Tools/CCSV5_4_0/ccsv5/tools/compiler/C6000/include/math.h",line 215,colu
    1608 000002dc 0300a358             ZERO    .L1     A6                ; |215| 
    1609 000002e0 2380a358     [ B0]   ZERO    .L1     A7
    1610 000002e4 239e9d88     [ B0]   SET     .S1     A7,0x14,0x1d,A7
    1611 000002e8 22188b38     [ B0]   FSUBDP  .L1     A5:A4,A7:A6,A5:A4 ; |215| 
    1612                            .dwpsn  file "./../packages/ti/vlib/src/VLIB_ORB_computeRBrief/VLIB_ORB_computeRBrief_d.c",lin
    1613 000002ec 07bfe058             SUB     .L1     A15,1,A15         ; |91| 
    1614                            .dwpsn  file "./../packages/ti/vlib/src/VLIB_ORB_computeRBrief/VLIB_ORB_computeRBrief_d.c",lin
    1615 000002f0     058a             B       .S1     $C$L6             ; |93| 
    1616                    
    1617 000002f2     71aa     [ A0]   BNOP    .S1     $C$L4,3           ; |91| 
    1618 000002f4 01948038  ||         DPTRUNC .L1     A5:A4,A3          ; |93| 
    1619                    
    1620 000002f8 018f1808             EXTU    .S1     A3,24,24,A3       ; |93| 
    1621                               ; BRANCH OCCURS {$C$L6}           ; |93| 
    1622 00000300           $C$DW$L$VLIB_ORB_computeRBrief_d$17$E:
    1623                    ;** --------------------------------------------------------------------------*
    1624 00000300           $C$L5:    
    1625 00000300           $C$DW$L$VLIB_ORB_computeRBrief_d$18$B:
    1626                    ;          EXCLUSIVE CPU CYCLES: 6
    1627                    ;**     -----------------------g23:
    1628                    ;** 93  -----------------------    S$5 = 29u;
    1629                    
    1630 00000300 003fe059             SUB     .L1     A15,1,A0          ; |91| 
    1631 00000304 07bfe1a0  ||         SUB     .S1     A15,1,A15         ; |91| 
    1632                    
    1633                            .dwpsn  file "./../packages/ti/vlib/src/VLIB_ORB_computeRBrief/VLIB_ORB_computeRBrief_d.c",lin
    1634 00000308 cfdb8120     [ A0]   BNOP    .S1     $C$L4,4           ; |91| 
    1635 0000030c           $C$DW$L$VLIB_ORB_computeRBrief_d$18$E:
    1636                    ;** --------------------------------------------------------------------------*
    1637 0000030c           $C$L6:    
    1638                            .dwpsn  file "./../packages/ti/vlib/src/VLIB_ORB_computeRBrief/VLIB_ORB_computeRBrief_d.c",lin
    1639 0000030c           $C$DW$L$VLIB_ORB_computeRBrief_d$19$B:
    1640                    ;          EXCLUSIVE CPU CYCLES: 1
    1641                    ;**     -----------------------g24:
    1642                    ;** 93  -----------------------    *U$126++ = S$5;
    1643                    ;** 91  -----------------------    if ( L$1 = L$1-1 ) goto g15;
    1644 0000030c 01b03634             STB     .D1T1   A3,*A12++         ; |93| 
    1645                            .dwpsn  file "./../packages/ti/vlib/src/VLIB_ORB_computeRBrief/VLIB_ORB_computeRBrief_d.c",lin
    1646                               ; BRANCHCC OCCURS {$C$L4}         ; |91| 
    1647 00000310           $C$DW$L$VLIB_ORB_computeRBrief_d$19$E:
    1648                    ;** --------------------------------------------------------------------------*
    1649 00000310           $C$DW$L$VLIB_ORB_computeRBrief_d$20$B:
    1650                    ;          EXCLUSIVE CPU CYCLES: 6
TMS320C6x Assembler PC v7.4.2 Thu Mar 19 12:43:53 2015

Tools Copyright (c) 1996-2012 Texas Instruments Incorporated
package/lib/Regression/regress_d_c/./../packages/ti/vlib/src/VLIB_ORB_computeRBrief/VLIB_ORB_computeRBrief_d.se66 PAGE   31

    1651                    ;** 91  -----------------------    goto g36;
    1652                    
    1653 00000310 0033a121             BNOP    .S1     $C$L11,5          ; |91| 
    1654 00000314 0500a359  ||         ZERO    .L1     A10
    1655 00000318 0500a35a  ||         ZERO    .L2     B10
    1656                    
    1657                               ; BRANCH OCCURS {$C$L11}          ; |91| 
    1658 0000031c           $C$DW$L$VLIB_ORB_computeRBrief_d$20$E:
    1659                    ;** --------------------------------------------------------------------------*
    1660 0000031c           $C$L7:    
    1661                            .dwpsn  file "./../packages/ti/vlib/src/VLIB_ORB_computeRBrief/VLIB_ORB_computeRBrief_d.c",lin
    1662 0000031c           $C$DW$L$VLIB_ORB_computeRBrief_d$21$B:
    1663                    ;**     -----------------------g25:
    1664                    ;**     -----------------------    U$109 = &validAngles[-1];
    1665                    ;**     -----------------------    U$126 = featWedges;
    1666                    ;**     -----------------------    L$2 = cnt;
    1667                    ;**     -----------------------    #pragma[60] (featWedges <= validAngles;)
    1668                    ;**     -----------------------    #pragma MUST_ITERATE(1, 18446744073709551615, 1)
    1669                    ;**     -----------------------    #pragma LOOP_FLAGS(5184u)
    1670 0000031c           $C$DW$L$VLIB_ORB_computeRBrief_d$21$E:
    1671                    ;*----------------------------------------------------------------------------*
    1672                    ;*   SOFTWARE PIPELINE INFORMATION
    1673                    ;*      Disqualified loop: Loop contains a call
    1674                    ;*      Disqualified loop: Loop contains non-pipelinable instructions
    1675                    ;*      Disqualified loop: Loop contains control code
    1676                    ;*----------------------------------------------------------------------------*
    1677 0000031c           $C$L8:    
    1678 0000031c           $C$DW$L$VLIB_ORB_computeRBrief_d$22$B:
    1679                    ;          EXCLUSIVE CPU CYCLES: 10
    1680                    ;**     -----------------------g26:
    1681                    ;** 215 -----------------------    if ( modf(_mpysp2dp(*(++U$109), K$108), &y) < 0.0 ) goto g28;  // [
    1682                    ;** 215 -----------------------    R$7 = y;  // [8]
    1683                    ;** 215 -----------------------    goto g29;  // [8]
    1684                    ;**     -----------------------g28:
    1685                    ;** 215 -----------------------    R$7 = y-1.0;  // [8]
    1686                    ;**     -----------------------g29:
    1687                    ;** 93  -----------------------    if ( (int)R$7 >= 29 ) goto g34;
    1688                            .dwpsn  file "C:/VLIB_Tools/CCSV5_4_0/ccsv5/tools/compiler/C6000/include/math.h",line 215,colu
    1689 0000031c 01a83264             LDW     .D1T1   *++A10,A3         ; |215| 
    1690 00000320 023c7ec2             ADDAD   .D2     SP,3,B4
    1691 00000324 00002000             NOP             2
    1692                    $C$DW$199       .dwtag  DW_TAG_TI_branch
    1693                            .dwattr $C$DW$199, DW_AT_low_pc(0x00)
    1694                            .dwattr $C$DW$199, DW_AT_name("modf")
    1695                            .dwattr $C$DW$199, DW_AT_TI_call
    1696 00000328 00000010!            CALL    .S1     modf              ; |215| 
    1697 0000032c 023865f0             MPYSP2DP .M1    A3,A14,A5:A4      ; |215| 
    1698 00000330 01856162             ADDKPC  .S2     $C$RL12,B3,3      ; |215| 
    1699 00000334           $C$RL12:   ; CALL OCCURS {modf} {0}          ; |215| 
    1700 00000334           $C$DW$L$VLIB_ORB_computeRBrief_d$22$E:
    1701                    ;** --------------------------------------------------------------------------*
    1702 00000334           $C$DW$L$VLIB_ORB_computeRBrief_d$23$B:
    1703                    ;          EXCLUSIVE CPU CYCLES: 20
    1704                    
    1705 00000334 030004f9             ZERO    .L1     A7:A6             ; |215| 
TMS320C6x Assembler PC v7.4.2 Thu Mar 19 12:43:53 2015

Tools Copyright (c) 1996-2012 Texas Instruments Incorporated
package/lib/Regression/regress_d_c/./../packages/ti/vlib/src/VLIB_ORB_computeRBrief/VLIB_ORB_computeRBrief_d.se66 PAGE   32

    1706 00000338 023c63e6  ||         LDDW    .D2T2   *+SP(24),B5:B4    ; |215| 
    1707                    
    1708 0000033c 00188aa0             CMPLTDP .S1     A5:A4,A7:A6,A0    ; |215| 
    1709 00000340     0626             ZERO    .L1     A4                ; |215| 
    1710 00000342     0ae6     [ A0]   ZERO    .L1     A5
    1711 00000344 c2969d88     [ A0]   SET     .S1     A5,0x14,0x1d,A5
    1712 00000348 050004fa             ZERO    .L2     B11:B10           ; |215| 
    1713 0000034c c2109b3a     [ A0]   FSUBDP  .L2X    B5:B4,A5:A4,B5:B4 ; |215| 
    1714                            .dwpsn  file "./../packages/ti/vlib/src/VLIB_ORB_computeRBrief/VLIB_ORB_computeRBrief_d.c",lin
    1715 00000350     bb13             MVK     .S2     29,B6             ; |93| 
    1716 00000352     0c6e             NOP             1
    1717 00000354 0294803a             DPTRUNC .L2     B5:B4,B5          ; |93| 
    1718 00000358 023c9ec2             ADDAD   .D2     SP,4,B4
    1719 00000360     2c6e             NOP             2
    1720 00000362     af09             CMPLT   .L2     B5,B6,B0          ; |93| 
    1721                    
    1722 00000364 30286121     [!B0]   BNOP    .S1     $C$L9,3           ; |93| 
    1723 00000368 21a80264  || [ B0]   LDW     .D1T1   *A10,A3           ; |215| 
    1724                    
    1725                            .dwpsn  file "C:/VLIB_Tools/CCSV5_4_0/ccsv5/tools/compiler/C6000/include/math.h",line 215,colu
    1726                    $C$DW$200       .dwtag  DW_TAG_TI_branch
    1727                            .dwattr $C$DW$200, DW_AT_low_pc(0x00)
    1728                            .dwattr $C$DW$200, DW_AT_name("modf")
    1729                            .dwattr $C$DW$200, DW_AT_TI_call
    1730 0000036c 20000010!    [ B0]   CALL    .S1     modf              ; |215| 
    1731                    
    1732 00000370 023865f1             MPYSP2DP .M1    A3,A14,A5:A4      ; |215| 
    1733 00000374 31800ea8  || [!B0]   MVK     .S1     0x1d,A3           ; |93| 
    1734                    
    1735                            .dwpsn  file "./../packages/ti/vlib/src/VLIB_ORB_computeRBrief/VLIB_ORB_computeRBrief_d.c",lin
    1736                               ; BRANCHCC OCCURS {$C$L9}         ; |93| 
    1737 00000378           $C$DW$L$VLIB_ORB_computeRBrief_d$23$E:
    1738                    ;** --------------------------------------------------------------------------*
    1739 00000378           $C$DW$L$VLIB_ORB_computeRBrief_d$24$B:
    1740                    ;          EXCLUSIVE CPU CYCLES: 4
    1741                    ;** 215 -----------------------    if ( modf(_mpysp2dp(*U$109, K$108), &y) < 0.0 ) goto g32;  // [8]
    1742                    ;** 215 -----------------------    R$6 = y;  // [8]
    1743                    ;** 215 -----------------------    goto g33;  // [8]
    1744                    ;**     -----------------------g32:
    1745                    ;** 215 -----------------------    R$6 = y-1.0;  // [8]
    1746                    ;**     -----------------------g33:
    1747                    ;** 93  -----------------------    S$5 = (int)R$6;
    1748                    ;** 93  -----------------------    goto g35;
    1749                            .dwpsn  file "C:/VLIB_Tools/CCSV5_4_0/ccsv5/tools/compiler/C6000/include/math.h",line 215,colu
    1750 00000378 01886162             ADDKPC  .S2     $C$RL13,B3,3      ; |215| 
    1751 00000380           $C$RL13:   ; CALL OCCURS {modf} {0}          ; |215| 
    1752 00000380           $C$DW$L$VLIB_ORB_computeRBrief_d$24$E:
    1753                    ;** --------------------------------------------------------------------------*
    1754 00000380           $C$DW$L$VLIB_ORB_computeRBrief_d$25$B:
    1755                    ;          EXCLUSIVE CPU CYCLES: 13
    1756                    
    1757 00000380 00115a63             CMPLTDP .S2X    A5:A4,B11:B10,B0  ; |215| 
    1758 00000384 023c83e4  ||         LDDW    .D2T1   *+SP(32),A5:A4    ; |215| 
    1759                    
    1760                            .dwpsn  file "./../packages/ti/vlib/src/VLIB_ORB_computeRBrief/VLIB_ORB_computeRBrief_d.c",lin
TMS320C6x Assembler PC v7.4.2 Thu Mar 19 12:43:53 2015

Tools Copyright (c) 1996-2012 Texas Instruments Incorporated
package/lib/Regression/regress_d_c/./../packages/ti/vlib/src/VLIB_ORB_computeRBrief/VLIB_ORB_computeRBrief_d.se66 PAGE   33

    1761 00000388 003fe058             SUB     .L1     A15,1,A0          ; |91| 
    1762                            .dwpsn  file "C:/VLIB_Tools/CCSV5_4_0/ccsv5/tools/compiler/C6000/include/math.h",line 215,colu
    1763 0000038c     0726             ZERO    .L1     A6                ; |215| 
    1764 0000038e     8be6     [ B0]   ZERO    .L1     A7
    1765 00000390 239e9d88     [ B0]   SET     .S1     A7,0x14,0x1d,A7
    1766 00000394 22188b38     [ B0]   FSUBDP  .L1     A5:A4,A7:A6,A5:A4 ; |215| 
    1767                            .dwpsn  file "./../packages/ti/vlib/src/VLIB_ORB_computeRBrief/VLIB_ORB_computeRBrief_d.c",lin
    1768 00000398 07bfe058             SUB     .L1     A15,1,A15         ; |91| 
    1769                            .dwpsn  file "./../packages/ti/vlib/src/VLIB_ORB_computeRBrief/VLIB_ORB_computeRBrief_d.c",lin
    1770 000003a0 00000410             B       .S1     $C$L10            ; |93| 
    1771                    
    1772 000003a4 cfdf6121     [ A0]   BNOP    .S1     $C$L8,3           ; |91| 
    1773 000003a8 01948038  ||         DPTRUNC .L1     A5:A4,A3          ; |93| 
    1774                    
    1775 000003ac 018f1808             EXTU    .S1     A3,24,24,A3       ; |93| 
    1776                               ; BRANCH OCCURS {$C$L10}          ; |93| 
    1777 000003b0           $C$DW$L$VLIB_ORB_computeRBrief_d$25$E:
    1778                    ;** --------------------------------------------------------------------------*
    1779 000003b0           $C$L9:    
    1780 000003b0           $C$DW$L$VLIB_ORB_computeRBrief_d$26$B:
    1781                    ;          EXCLUSIVE CPU CYCLES: 6
    1782                    ;**     -----------------------g34:
    1783                    ;** 93  -----------------------    S$5 = 29u;
    1784                    
    1785 000003b0 003fe059             SUB     .L1     A15,1,A0          ; |91| 
    1786 000003b4 07bfe1a0  ||         SUB     .S1     A15,1,A15         ; |91| 
    1787                    
    1788                            .dwpsn  file "./../packages/ti/vlib/src/VLIB_ORB_computeRBrief/VLIB_ORB_computeRBrief_d.c",lin
    1789 000003b8 cfdf8121     [ A0]   BNOP    .S1     $C$L8,4           ; |91| 
    1790 000003c0           $C$DW$L$VLIB_ORB_computeRBrief_d$26$E:
    1791                    ;** --------------------------------------------------------------------------*
    1792 000003c0           $C$L10:    
    1793                            .dwpsn  file "./../packages/ti/vlib/src/VLIB_ORB_computeRBrief/VLIB_ORB_computeRBrief_d.c",lin
    1794 000003c0           $C$DW$L$VLIB_ORB_computeRBrief_d$27$B:
    1795                    ;          EXCLUSIVE CPU CYCLES: 1
    1796                    ;**     -----------------------g35:
    1797                    ;** 93  -----------------------    *U$126++ = S$5;
    1798                    ;** 91  -----------------------    if ( L$2 = L$2-1 ) goto g26;
    1799                    
    1800 000003c0 01b03635             STB     .D1T1   A3,*A12++         ; |93| 
    1801 000003c4 d500a35b  || [!A0]   ZERO    .L2     B10
    1802 000003c8 d500a358  || [!A0]   ZERO    .L1     A10
    1803                    
    1804                            .dwpsn  file "./../packages/ti/vlib/src/VLIB_ORB_computeRBrief/VLIB_ORB_computeRBrief_d.c",lin
    1805                               ; BRANCHCC OCCURS {$C$L8}         ; |91| 
    1806 000003cc           $C$DW$L$VLIB_ORB_computeRBrief_d$27$E:
    1807                    ;** --------------------------------------------------------------------------*
    1808 000003cc           $C$L11:    
    1809 000003cc           $C$DW$L$VLIB_ORB_computeRBrief_d$28$B:
    1810                    ;**     -----------------------g36:
    1811                    ;**     -----------------------    U$201 = 0;
    1812                    ;** 97  -----------------------    i = 0;
    1813                    ;**     -----------------------    #pragma MUST_ITERATE(30, 30, 30)
    1814                    ;**     -----------------------    #pragma LOOP_FLAGS(5120u)
    1815 000003cc           $C$DW$L$VLIB_ORB_computeRBrief_d$28$E:
TMS320C6x Assembler PC v7.4.2 Thu Mar 19 12:43:53 2015

Tools Copyright (c) 1996-2012 Texas Instruments Incorporated
package/lib/Regression/regress_d_c/./../packages/ti/vlib/src/VLIB_ORB_computeRBrief/VLIB_ORB_computeRBrief_d.se66 PAGE   34

    1816                    ;** --------------------------------------------------------------------------*
    1817                    ;**   BEGIN LOOP $C$L12
    1818                    ;** --------------------------------------------------------------------------*
    1819 000003cc           $C$L12:    
    1820 000003cc           $C$DW$L$VLIB_ORB_computeRBrief_d$29$B:
    1821                    ;          EXCLUSIVE CPU CYCLES: 6
    1822                    ;**     -----------------------g37:
    1823                    ;** 98  -----------------------    rMat = getRotationMatrix(i);
    1824                    ;**     -----------------------    U$58 = prm+U$12;
    1825                    ;**     -----------------------    U$204 = relative_patterns+U$201-8;
    1826                    ;**     -----------------------    L$4 = 256;
    1827                    ;** 100 -----------------------    j = 0;
    1828                    ;**     -----------------------    #pragma MUST_ITERATE(256, 256, 256)
    1829                    ;**     -----------------------    #pragma LOOP_FLAGS(4096u)
    1830                    ;**     -----------------------g38:
    1831                    ;** 103 -----------------------    C$23 = j*4;
    1832                    ;** 103 -----------------------    C$22 = (*U$58).orbPattern;
    1833                    ;** 103 -----------------------    C$25 = &C$22[C$23];
    1834                    ;** 103 -----------------------    x2 = (double)C$25[2];
    1835                    ;** 104 -----------------------    y2 = (double)C$25[3];
    1836                    ;** 108 -----------------------    C$24 = *(&rMat+8);
    1837                    ;** 108 -----------------------    C$21 = *&rMat;
    1838                    ;** 108 -----------------------    C$26 = C$21*x2+C$24*y2;
    1839                    ;** 108 -----------------------    x2p = (int)(C$26+((C$26 < 0.0) ? -0.5 : 0.5));
    1840                    ;** 109 -----------------------    C$18 = *(&rMat+24);
    1841                    ;** 109 -----------------------    C$16 = *(&rMat+16);
    1842                    ;** 109 -----------------------    C$13 = C$16*x2+C$18*y2;
    1843                    ;** 109 -----------------------    (C$13 < 0.0) ? (S$1 = -0.5) : (S$1 = 0.5);
    1844                    ;** 110 -----------------------    nstep = (*U$58).imageWidth;
    1845                    ;** 115 -----------------------    C$14 = _mpyus(nstep, 3)*4;
    1846                    ;** 115 -----------------------    C$19 = (double)C$25[1];
    1847                    ;** 115 -----------------------    C$17 = (double)C$22[C$23];
    1848                    ;** 115 -----------------------    C$20 = C$21*C$17+C$24*C$19;
    1849                    ;** 115 -----------------------    C$15 = C$16*C$17+C$18*C$19;
    1850                    ;** 115 -----------------------    *(U$204 += 2) = ((int)(C$15+((C$15 < 0.0) ? -0.5 : 0.5))*nstep+(int
    1851                    ;** 121 -----------------------    U$204[1] = ((*U$58).imageWidth*(int)(C$13+S$1)+x2p)*4-C$14-12;
    1852                    ;** 100 -----------------------    ++j;
    1853                    ;** 100 -----------------------    if ( L$4 = L$4-1 ) goto g38;
    1854                    ;** 97  -----------------------    ++i;
    1855                            .dwpsn  file "./../packages/ti/vlib/src/VLIB_ORB_computeRBrief/VLIB_ORB_computeRBrief_d.c",lin
    1856                    $C$DW$201       .dwtag  DW_TAG_TI_branch
    1857                            .dwattr $C$DW$201, DW_AT_low_pc(0x00)
    1858                            .dwattr $C$DW$201, DW_AT_name("getRotationMatrix")
    1859                            .dwattr $C$DW$201, DW_AT_TI_call
    1860 000003cc 00000010!            CALL    .S1     getRotationMatrix ; |98| 
    1861 000003d0 02281fd8             MV      .L1X    B10,A4            ; |98| 
    1862 000003d4 01874162             ADDKPC  .S2     $C$RL14,B3,2      ; |98| 
    1863 000003d8 11800cfc             ADDAW   .D1X    SP,12,A3          ; |98| 
    1864 000003dc           $C$RL14:   ; CALL OCCURS {getRotationMatrix} {0}  ; |98| 
    1865 000003dc           $C$DW$L$VLIB_ORB_computeRBrief_d$29$E:
    1866                    ;** --------------------------------------------------------------------------*
    1867 000003dc           $C$DW$L$VLIB_ORB_computeRBrief_d$30$B:
    1868                    ;          EXCLUSIVE CPU CYCLES: 7
    1869 000003dc 01bea2e4             LDW     .D2T1   *+SP(84),A3
    1870 000003e0 023d42e6             LDW     .D2T2   *+SP(40),B4
TMS320C6x Assembler PC v7.4.2 Thu Mar 19 12:43:53 2015

Tools Copyright (c) 1996-2012 Texas Instruments Incorporated
package/lib/Regression/regress_d_c/./../packages/ti/vlib/src/VLIB_ORB_computeRBrief/VLIB_ORB_computeRBrief_d.se66 PAGE   35

    1871 000003e4 0080802a             MVK     .S2     0x100,B1
    1872                            .dwpsn  file "./../packages/ti/vlib/src/VLIB_ORB_computeRBrief/VLIB_ORB_computeRBrief_d.c",lin
    1873 000003e8     0626             ZERO    .L1     A20               ; |100| 
    1874 000003ea     0c6e             NOP             1
    1875 000003ec 018d4078             ADD     .L1     A10,A3,A3
    1876                    
    1877 000003f0 0a8f0059             SUB     .L1     A3,8,A21
    1878 000003f4 0191b1e0  ||         ADD     .S1X    A13,B4,A3
    1879                    
    1880 000003f8           $C$DW$L$VLIB_ORB_computeRBrief_d$30$E:
    1881                    ;*----------------------------------------------------------------------------*
    1882                    ;*   SOFTWARE PIPELINE INFORMATION
    1883                    ;*
    1884                    ;*      Loop found in file               : ./../packages/ti/vlib/src/VLIB_ORB_computeRBrief/VLIB_ORB_c
    1885                    ;*      Loop source line                 : 100
    1886                    ;*      Loop opening brace source line   : 100
    1887                    ;*      Loop closing brace source line   : 123
    1888                    ;*      Known Minimum Trip Count         : 256                    
    1889                    ;*      Known Maximum Trip Count         : 256                    
    1890                    ;*      Known Max Trip Count Factor      : 256
    1891                    ;*      Loop Carried Dependency Bound(^) : 57
    1892                    ;*      Unpartitioned Resource Bound     : 14
    1893                    ;*      Partitioned Resource Bound(*)    : 16
    1894                    ;*      Resource Partition:
    1895                    ;*                                A-side   B-side
    1896                    ;*      .L units                     7        9     
    1897                    ;*      .S units                    10       11     
    1898                    ;*      .D units                     9        4     
    1899                    ;*      .M units                     7        4     
    1900                    ;*      .X cross paths               7        7     
    1901                    ;*      .T address paths            10        3     
    1902                    ;*      Long read paths              0        0     
    1903                    ;*      Long write paths             0        0     
    1904                    ;*      Logical  ops (.LS)           4        4     (.L or .S unit)
    1905                    ;*      Addition ops (.LSD)         16        9     (.L or .S or .D unit)
    1906                    ;*      Bound(.L .S .LS)            11       12     
    1907                    ;*      Bound(.L .S .D .LS .LSD)    16*      13     
    1908                    ;*
    1909                    ;*      Searching for software pipeline schedule at ...
    1910                    ;*         ii = 57 Did not find schedule
    1911                    ;*         ii = 58 Schedule found with 1 iterations in parallel
    1912                    ;*
    1913                    ;*      Register Usage Table:
    1914                    ;*          +-----------------------------------------------------------------+
    1915                    ;*          |AAAAAAAAAAAAAAAAAAAAAAAAAAAAAAAA|BBBBBBBBBBBBBBBBBBBBBBBBBBBBBBBB|
    1916                    ;*          |00000000001111111111222222222233|00000000001111111111222222222233|
    1917                    ;*          |01234567890123456789012345678901|01234567890123456789012345678901|
    1918                    ;*          |--------------------------------+--------------------------------|
    1919                    ;*       0: |   *                **          | *             *                |
    1920                    ;*       1: |   * *              **          | *             *                |
    1921                    ;*       2: |   * *              **          | *             *                |
    1922                    ;*       3: |   * *              **          | *             *                |
    1923                    ;*       4: |   * *              **          | *             *                |
    1924                    ;*       5: |   ***              **          | *             *                |
    1925                    ;*       6: |   * **             **          | *             *                |
TMS320C6x Assembler PC v7.4.2 Thu Mar 19 12:43:53 2015

Tools Copyright (c) 1996-2012 Texas Instruments Incorporated
package/lib/Regression/regress_d_c/./../packages/ti/vlib/src/VLIB_ORB_computeRBrief/VLIB_ORB_computeRBrief_d.se66 PAGE   36

    1926                    ;*       7: |   ****             **          | *             *                |
    1927                    ;*       8: |   ****             **          | *             *                |
    1928                    ;*       9: |   ****             **          | *             *                |
    1929                    ;*      10: |   ****             **          | *             *                |
    1930                    ;*      11: |   ** *             **          | *    **       *    **          |
    1931                    ;*      12: |   *  *         **  **          | *    ****     *    **          |
    1932                    ;*      13: |   *  *         **  **          | *    ****     *    **          |
    1933                    ;*      14: |   *  * **      **  **          | *    ****     *    **          |
    1934                    ;*      15: |   *  * **      **  **          | *    ****     *  ****          |
    1935                    ;*      16: |   *  * **      *** **          | *  ******     *  ****          |
    1936                    ;*      17: |   **** **      *** **          | *  ******     *  ****          |
    1937                    ;*      18: |   ***  **      *** ***         | *  ******     *  ****          |
    1938                    ;*      19: |   *******      *** ***         | *  **  **     *  ****          |
    1939                    ;*      20: |   *******        * ***         | *  ******     *  ****          |
    1940                    ;*      21: |   *  ****        *****         | *    ****     *******          |
    1941                    ;*      22: |   *******        *****         | *    ****     *******          |
    1942                    ;*      23: |   *******      ******          | *  ******     *******          |
    1943                    ;*      24: |*  ***  **      ******          | *  **  **     *********        |
    1944                    ;*      25: |*  *    **      ******          | *  **  **     *********        |
    1945                    ;*      26: |*  * *  **      ******          | *  **  **     *********        |
    1946                    ;*      27: |*  * *  **      ******          |**  **  **     *********        |
    1947                    ;*      28: |   ***  **      ******          |**      **     *********        |
    1948                    ;*      29: |   ***  **      **  **          |**   *  **     *********        |
    1949                    ;*      30: |   ***  **      **  **          |**   ***       *********        |
    1950                    ;*      31: |   **** **      **  **          | *  ****       *********        |
    1951                    ;*      32: |   *  ****      **  **          | *  ****       *******          |
    1952                    ;*      33: |   *******          **          | *  ******     ***  **          |
    1953                    ;*      34: |   *******          **          | *  ******     *                |
    1954                    ;*      35: |   *******          **          | *  * ****     *                |
    1955                    ;*      36: |   *******          **          | *  * ****     *                |
    1956                    ;*      37: |   *******          **          |**  * ****     *                |
    1957                    ;*      38: |   **  ***          **          |**  * **       *                |
    1958                    ;*      39: |   **  ***          **          |**  ****       *                |
    1959                    ;*      40: |   ** * **          **          |**   *****     *                |
    1960                    ;*      41: |   ** * **          **          | *  ******     *                |
    1961                    ;*      42: |   ** * **          **          |**  **  **     *                |
    1962                    ;*      43: |   ** * **          **          |**  **         *                |
    1963                    ;*      44: |   * ** **          **          |**  **         *                |
    1964                    ;*      45: |   * *****          **          |**  *          *                |
    1965                    ;*      46: |   *******          **          | *  *          *                |
    1966                    ;*      47: |   *****            **          | *  *          *                |
    1967                    ;*      48: |   *****            **          | *  *          *                |
    1968                    ;*      49: |   *****            **          | *  *          *                |
    1969                    ;*      50: |   ****             **          | *             *                |
    1970                    ;*      51: |   ****             **          | *             *                |
    1971                    ;*      52: |   ****             **          | *             *                |
    1972                    ;*      53: |   ****             **          | *             *                |
    1973                    ;*      54: |   ** *             **          | *             *                |
    1974                    ;*      55: |   ** *             **          | *             *                |
    1975                    ;*      56: |   **               **          | *             *                |
    1976                    ;*      57: |   **               **          | *             *                |
    1977                    ;*          +-----------------------------------------------------------------+
    1978                    ;*
    1979                    ;*      Done
    1980                    ;*
TMS320C6x Assembler PC v7.4.2 Thu Mar 19 12:43:53 2015

Tools Copyright (c) 1996-2012 Texas Instruments Incorporated
package/lib/Regression/regress_d_c/./../packages/ti/vlib/src/VLIB_ORB_computeRBrief/VLIB_ORB_computeRBrief_d.se66 PAGE   37

    1981                    ;*      Loop is interruptible
    1982                    ;*      Collapsed epilog stages       : 0
    1983                    ;*      Collapsed prolog stages       : 0
    1984                    ;*
    1985                    ;*      Minimum safe trip count       : 1
    1986                    ;*
    1987                    ;*
    1988                    ;*      Mem bank conflicts/iter(est.) : { min 0.000, est 0.000, max 0.000 }
    1989                    ;*      Mem bank perf. penalty (est.) : 0.0%
    1990                    ;*
    1991                    ;*
    1992                    ;*      Total cycles (est.)         : 0 + min_trip_cnt * 58 = 14848        
    1993                    ;*----------------------------------------------------------------------------*
    1994                    ;*        SINGLE SCHEDULED ITERATION
    1995                    ;*
    1996                    ;*        $C$C148:
    1997                    ;*   0              LDW     .D1T1   *+A3(20),A5       ; |103|  ^ 
    1998                    ;*   1              NOP             3
    1999                    ;*   4              SHL     .S1     A20,2,A4          ; |103| 
    2000                    ;*   5              ADD     .L1     A4,A5,A6          ; |103|  ^ 
    2001                    ;*     ||           LDB     .D1T1   *+A4[A5],A5       ; |115|  ^ 
    2002                    ;*   6              LDB     .D1T1   *+A6(1),A4        ; |115|  ^ 
    2003                    ;*   7              NOP             3
    2004                    ;*  10              LDDW    .D2T2   *+SP(64),B21:B20  ; |109| 
    2005                    ;*     ||           INTDP   .L2X    A5,B7:B6          ; |115|  ^ 
    2006                    ;*  11              LDDW    .D2T2   *+SP(72),B9:B8    ; |109| 
    2007                    ;*     ||           INTDP   .L1     A4,A17:A16        ; |115|  ^ 
    2008                    ;*  12              NOP             1
    2009                    ;*  13              LDDW    .D2T1   *+SP(48),A9:A8    ; |108| 
    2010                    ;*  14              LDDW    .D2T2   *+SP(56),B19:B18  ; |108| 
    2011                    ;*  15              LDB     .D1T1   *+A6(2),A18       ; |103| 
    2012                    ;*     ||           FMPYDP  .M2     B7:B6,B21:B20,B5:B4 ; |115|  ^ 
    2013                    ;*  16              FMPYDP  .M1X    A17:A16,B9:B8,A5:A4 ; |115|  ^ 
    2014                    ;*  17              LDB     .D1T1   *+A6(3),A22       ; |104| 
    2015                    ;*  18              FMPYDP  .M1X    B7:B6,A9:A8,A7:A6 ; |115| 
    2016                    ;*  19              FMPYDP  .M2X    A17:A16,B19:B18,B7:B6 ; |115| 
    2017                    ;*  20              INTDP   .L2X    A18,B17:B16       ; |103| 
    2018                    ;*     ||           FADDDP  .L1X    A5:A4,B5:B4,A19:A18 ; |115|  ^ 
    2019                    ;*  21              ZERO    .L1     A5:A4             ; |115| 
    2020                    ;*  22              INTDP   .L1     A22,A17:A16       ; |104| 
    2021                    ;*     ||           ZERO    .L2     B5:B4             ; |115| 
    2022                    ;*  23              FADDDP  .L2X    B7:B6,A7:A6,B23:B22 ; |115| 
    2023                    ;*     ||           CMPLTDP .S1     A19:A18,A5:A4,A0  ; |115|  ^ 
    2024                    ;*  24              NOP             1
    2025                    ;*  25      [!A0]   ZERO    .S1     A5                ;  ^ 
    2026                    ;*  26      [ A0]   ZERO    .D1     A5                ;  ^ 
    2027                    ;*     ||   [!A0]   SET     .S1     A5,0x15,0x1d,A5   ;  ^ 
    2028                    ;*     ||           CMPLTDP .S2     B23:B22,B5:B4,B0  ; |115| 
    2029                    ;*  27      [ A0]   ZERO    .L1     A4                ; |115| 
    2030                    ;*     ||   [ A0]   MVKH    .S1     0xbfe00000,A5     ;  ^ 
    2031                    ;*     ||   [!A0]   ZERO    .D1     A4                ; |115| 
    2032                    ;*  28              FMPYDP  .M2     B17:B16,B21:B20,B21:B20 ; |109| 
    2033                    ;*     ||           FADDDP  .L1     A5:A4,A19:A18,A5:A4 ; |115|  ^ 
    2034                    ;*     ||   [ B0]   ZERO    .L2     B5
    2035                    ;*  29              FMPYDP  .M2X    A17:A16,B9:B8,B7:B6 ; |109| 
TMS320C6x Assembler PC v7.4.2 Thu Mar 19 12:43:53 2015

Tools Copyright (c) 1996-2012 Texas Instruments Incorporated
package/lib/Regression/regress_d_c/./../packages/ti/vlib/src/VLIB_ORB_computeRBrief/VLIB_ORB_computeRBrief_d.se66 PAGE   38

    2036                    ;*     ||   [ B0]   MVKH    .S2     0xbfe00000,B5
    2037                    ;*     ||   [!B0]   ZERO    .L2     B5
    2038                    ;*  30              LDHU    .D1T1   *+A3(24),A6       ; |110| 
    2039                    ;*     ||   [ B0]   ZERO    .L2     B4                ; |115| 
    2040                    ;*     ||   [!B0]   ZERO    .D2     B4                ; |115| 
    2041                    ;*     ||   [!B0]   SET     .S2     B5,0x15,0x1d,B5
    2042                    ;*  31              DPTRUNC .L1     A5:A4,A7          ; |115|  ^ 
    2043                    ;*     ||           FADDDP  .L2     B5:B4,B23:B22,B5:B4 ; |115| 
    2044                    ;*  32              FMPYDP  .M1X    A17:A16,B19:B18,A5:A4 ; |108| 
    2045                    ;*     ||           ZERO    .L2     B9:B8             ; |109| 
    2046                    ;*  33              FMPYDP  .M1X    B17:B16,A9:A8,A9:A8 ; |108| 
    2047                    ;*     ||           FADDDP  .L2     B7:B6,B21:B20,B7:B6 ; |109| 
    2048                    ;*  34              DPTRUNC .L2     B5:B4,B4          ; |115| 
    2049                    ;*  35              MPY32   .M1     A6,A7,A7          ; |115|  ^ 
    2050                    ;*  36              CMPLTDP .S2     B7:B6,B9:B8,B0    ; |109| 
    2051                    ;*  37              FADDDP  .L1     A5:A4,A9:A8,A9:A8 ; |108| 
    2052                    ;*     ||           MPYSU   .M1     3,A6,A4           ; |115| 
    2053                    ;*  38      [ B0]   ZERO    .L2     B5
    2054                    ;*  39              ZERO    .L2     B9:B8             ; |108| 
    2055                    ;*     ||   [ B0]   MVKH    .S2     0xbfe00000,B5
    2056                    ;*     ||   [!B0]   ZERO    .D2     B5
    2057                    ;*     ||           SHL     .S1     A4,2,A6           ; |115| 
    2058                    ;*     ||           ADD     .D1X    B4,A7,A4          ; |115|  ^ 
    2059                    ;*  40      [ B0]   ZERO    .D2     B4                ; |109| 
    2060                    ;*     ||   [!B0]   ZERO    .L2     B4                ; |109| 
    2061                    ;*     ||   [!B0]   SET     .S2     B5,0x15,0x1d,B5
    2062                    ;*     ||           SHL     .S1     A4,2,A4           ; |115|  ^ 
    2063                    ;*  41              CMPLTDP .S2X    A9:A8,B9:B8,B0    ; |108| 
    2064                    ;*     ||           SUB     .L1     A4,A6,A4          ; |115|  ^ 
    2065                    ;*     ||           FADDDP  .L2     B5:B4,B7:B6,B5:B4 ; |121| 
    2066                    ;*  42              SUB     .L1     A4,12,A4          ; |115|  ^ 
    2067                    ;*  43      [!B0]   ZERO    .L1     A5
    2068                    ;*     ||           STW     .D1T1   A4,*++A21(8)      ; |115|  ^ 
    2069                    ;*  44      [ B0]   ZERO    .L1     A5
    2070                    ;*     ||   [!B0]   SET     .S1     A5,0x15,0x1d,A5
    2071                    ;*     ||           DPTRUNC .L2     B5:B4,B4          ; |121| 
    2072                    ;*     ||           LDHU    .D1T1   *+A3(24),A7       ; |121|  ^ 
    2073                    ;*  45      [ B0]   ZERO    .D1     A4                ; |108| 
    2074                    ;*     ||   [ B0]   MVKH    .S1     0xbfe00000,A5
    2075                    ;*     ||   [!B0]   ZERO    .L1     A4                ; |108| 
    2076                    ;*  46              FADDDP  .L1     A5:A4,A9:A8,A5:A4 ; |108| 
    2077                    ;*  47              NOP             2
    2078                    ;*  49              DPTRUNC .L1     A5:A4,A5          ; |108| 
    2079                    ;*     ||           MPY32   .M1X    B4,A7,A4          ; |121|  ^ 
    2080                    ;*  50              NOP             1
    2081                    ;*  51      [ B1]   SUB     .L2     B1,1,B1           ; |100| 
    2082                    ;*  52      [ B1]   B       .S2     $C$C148           ; |100| 
    2083                    ;*  53              ADD     .L1     A5,A4,A4          ; |121|  ^ 
    2084                    ;*  54              SHL     .S1     A4,2,A4           ; |121|  ^ 
    2085                    ;*  55              SUB     .L1     A4,A6,A4          ; |121|  ^ 
    2086                    ;*  56              SUB     .L1     A4,12,A4          ; |121|  ^ 
    2087                    ;*  57              STW     .D1T1   A4,*+A21(4)       ; |121|  ^ 
    2088                    ;*     ||           ADD     .L1     1,A20,A20         ; |100| Define a twin register
    2089                    ;*  58              ; BRANCHCC OCCURS {$C$C148}       ; |100| 
    2090                    ;*----------------------------------------------------------------------------*
TMS320C6x Assembler PC v7.4.2 Thu Mar 19 12:43:53 2015

Tools Copyright (c) 1996-2012 Texas Instruments Incorporated
package/lib/Regression/regress_d_c/./../packages/ti/vlib/src/VLIB_ORB_computeRBrief/VLIB_ORB_computeRBrief_d.se66 PAGE   39

    2091 000003f8           $C$L13:    ; PIPED LOOP PROLOG
    2092                    ;** --------------------------------------------------------------------------*
    2093 000003f8           $C$L14:    ; PIPED LOOP KERNEL
    2094 000003f8           $C$DW$L$VLIB_ORB_computeRBrief_d$32$B:
    2095                    ;          EXCLUSIVE CPU CYCLES: 58
    2096                            .dwpsn  file "./../packages/ti/vlib/src/VLIB_ORB_computeRBrief/VLIB_ORB_computeRBrief_d.c",lin
    2097 000003f8 028ca264             LDW     .D1T1   *+A3(20),A5       ; |103| <0,0>  ^ 
    2098 00000400 00004000             NOP             3
    2099 00000404 02504ca0             SHL     .S1     A20,2,A4          ; |103| <0,4> 
    2100                    
    2101 00000408     82e0             ADD     .L1     A4,A5,A6          ; |103| <0,5>  ^ 
    2102 0000040a     a65c  ||         LDB     .D1T1   *+A4[A5],A5       ; |115| <0,5>  ^ 
    2103                    
    2104                            .dwpsn  file "./../packages/ti/vlib/src/VLIB_ORB_computeRBrief/VLIB_ORB_computeRBrief_d.c",lin
    2105 0000040c     234c             LDB     .D1T1   *+A6(1),A4        ; |115| <0,6>  ^ 
    2106 0000040e     4c6e             NOP             3
    2107                    
    2108 00000410 0a3d03e7             LDDW    .D2T2   *+SP(64),B21:B20  ; |109| <0,10> 
    2109 00000414 0314173a  ||         INTDP   .L2X    A5,B7:B6          ; |115| <0,10>  ^ 
    2110                    
    2111 00000418 043d23e7             LDDW    .D2T2   *+SP(72),B9:B8    ; |109| <0,11> 
    2112 00000420 08100738  ||         INTDP   .L1     A4,A17:A16        ; |115| <0,11>  ^ 
    2113                    
    2114 00000424 00000000             NOP             1
    2115                            .dwpsn  file "./../packages/ti/vlib/src/VLIB_ORB_computeRBrief/VLIB_ORB_computeRBrief_d.c",lin
    2116 00000428 043cc3e4             LDDW    .D2T1   *+SP(48),A9:A8    ; |108| <0,13> 
    2117 0000042c 093ce3e6             LDDW    .D2T2   *+SP(56),B19:B18  ; |108| <0,14> 
    2118                    
    2119 00000430 09184225             LDB     .D1T1   *+A6(2),A18       ; |103| <0,15> 
    2120 00000434 0250c3f2  ||         FMPYDP  .M2     B7:B6,B21:B20,B5:B4 ; |115| <0,15>  ^ 
    2121                    
    2122                            .dwpsn  file "./../packages/ti/vlib/src/VLIB_ORB_computeRBrief/VLIB_ORB_computeRBrief_d.c",lin
    2123 00000438 022213f0             FMPYDP  .M1X    A17:A16,B9:B8,A5:A4 ; |115| <0,16>  ^ 
    2124                            .dwpsn  file "./../packages/ti/vlib/src/VLIB_ORB_computeRBrief/VLIB_ORB_computeRBrief_d.c",lin
    2125 0000043c 0b186224             LDB     .D1T1   *+A6(3),A22       ; |104| <0,17> 
    2126                            .dwpsn  file "./../packages/ti/vlib/src/VLIB_ORB_computeRBrief/VLIB_ORB_computeRBrief_d.c",lin
    2127 00000440 031913f0             FMPYDP  .M1X    B7:B6,A9:A8,A7:A6 ; |115| <0,18> 
    2128 00000444 034253f2             FMPYDP  .M2X    A17:A16,B19:B18,B7:B6 ; |115| <0,19> 
    2129                    
    2130 00000448 0848173b             INTDP   .L2X    A18,B17:B16       ; |103| <0,20> 
    2131 0000044c 09109b18  ||         FADDDP  .L1X    A5:A4,B5:B4,A19:A18 ; |115| <0,20>  ^ 
    2132                    
    2133 00000450 020004f8             ZERO    .L1     A5:A4             ; |115| <0,21> 
    2134                    
    2135 00000454 020004fb             ZERO    .L2     B5:B4             ; |115| <0,22> 
    2136 00000458 08580738  ||         INTDP   .L1     A22,A17:A16       ; |104| <0,22> 
    2137                    
    2138 0000045c 0b18db1b             FADDDP  .L2X    B7:B6,A7:A6,B23:B22 ; |115| <0,23> 
    2139 00000460 00124aa0  ||         CMPLTDP .S1     A19:A18,A5:A4,A0  ; |115| <0,23>  ^ 
    2140                    
    2141 00000464     0c6e             NOP             1
    2142 00000466     4aee     [!A0]   ZERO    .S1     A5                ; <0,25>  ^ 
    2143                    
    2144 00000468 0012caa3             CMPLTDP .S2     B23:B22,B5:B4,B0  ; |115| <0,26> 
    2145 00000470     0af6  || [ A0]   ZERO    .D1     A5                ; <0,26>  ^ 
TMS320C6x Assembler PC v7.4.2 Thu Mar 19 12:43:53 2015

Tools Copyright (c) 1996-2012 Texas Instruments Incorporated
package/lib/Regression/regress_d_c/./../packages/ti/vlib/src/VLIB_ORB_computeRBrief/VLIB_ORB_computeRBrief_d.se66 PAGE   40

    2146 0000046c d296bd89  || [!A0]   SET     .S1     A5,0x15,0x1d,A5   ; <0,26>  ^ 
    2147                    
    2148 00000472     0a66     [ A0]   ZERO    .L1     A4                ; |115| <0,27> 
    2149 00000478     4a76  || [!A0]   ZERO    .D1     A4                ; |115| <0,27> 
    2150 00000474 c2dff069  || [ A0]   MVKH    .S1     0xbfe00000,A5     ; <0,27>  ^ 
    2151                    
    2152 00000480 0a5203f3             FMPYDP  .M2     B17:B16,B21:B20,B21:B20 ; |109| <0,28> 
    2153 0000047a     8ae7  || [ B0]   ZERO    .L2     B5                ; <0,28> 
    2154 00000484 02488b18  ||         FADDDP  .L1     A5:A4,A19:A18,A5:A4 ; |115| <0,28>  ^ 
    2155                    
    2156 00000488 034113f3             FMPYDP  .M2X    A17:A16,B9:B8,B7:B6 ; |109| <0,29> 
    2157 00000490     cae7  || [!B0]   ZERO    .L2     B5                ; <0,29> 
    2158 0000048c 22dff06b  || [ B0]   MVKH    .S2     0xbfe00000,B5     ; <0,29> 
    2159                    
    2160 00000494 030d8205             LDHU    .D1T1   *+A3(24),A6       ; |110| <0,30> 
    2161 00000492     8a67  || [ B0]   ZERO    .L2     B4                ; |115| <0,30> 
    2162 000004a0 32000042  || [!B0]   ZERO    .D2     B4                ; |115| <0,30> 
    2163 00000498 3296bd8b  || [!B0]   SET     .S2     B5,0x15,0x1d,B5   ; <0,30> 
    2164                    
    2165 000004a4 02588b1b             FADDDP  .L2     B5:B4,B23:B22,B5:B4 ; |115| <0,31> 
    2166 000004a8 03948038  ||         DPTRUNC .L1     A5:A4,A7          ; |115| <0,31>  ^ 
    2167                    
    2168 000004ac 040004fb             ZERO    .L2     B9:B8             ; |109| <0,32> 
    2169 000004b0 024a13f0  ||         FMPYDP  .M1X    A17:A16,B19:B18,A5:A4 ; |108| <0,32> 
    2170                    
    2171 000004b4 044113f1             FMPYDP  .M1X    B17:B16,A9:A8,A9:A8 ; |108| <0,33> 
    2172 000004b8 0350cb1a  ||         FADDDP  .L2     B7:B6,B21:B20,B7:B6 ; |109| <0,33> 
    2173                    
    2174 000004bc 0214803a             DPTRUNC .L2     B5:B4,B4          ; |115| <0,34> 
    2175 000004c0 039cc800             MPY32   .M1     A6,A7,A7          ; |115| <0,35>  ^ 
    2176                            .dwpsn  file "./../packages/ti/vlib/src/VLIB_ORB_computeRBrief/VLIB_ORB_computeRBrief_d.c",lin
    2177 000004c4 0020caa2             CMPLTDP .S2     B7:B6,B9:B8,B0    ; |109| <0,36> 
    2178                    
    2179 000004c8 02186f01             MPYSU   .M1     3,A6,A4           ; |115| <0,37> 
    2180 000004cc 04208b18  ||         FADDDP  .L1     A5:A4,A9:A8,A9:A8 ; |108| <0,37> 
    2181                    
    2182 000004d0     8ae7     [ B0]   ZERO    .L2     B5                ; <0,38> 
    2183                    
    2184 000004d4 040004fb             ZERO    .L2     B9:B8             ; |108| <0,39> 
    2185 000004d2     466a  ||         SHL     .S1     A4,2,A6           ; |115| <0,39> 
    2186 000004e4     caf7  || [!B0]   ZERO    .D2     B5                ; <0,39> 
    2187 000004e0 22dff06b  || [ B0]   MVKH    .S2     0xbfe00000,B5     ; <0,39> 
    2188 000004d8 0210fab1  ||         ADD     .D1X    B4,A7,A4          ; |115| <0,39>  ^ 
    2189                    
    2190 000004e6     ca67     [!B0]   ZERO    .L2     B4                ; |109| <0,40> 
    2191 000004e8     8a77  || [ B0]   ZERO    .D2     B4                ; |109| <0,40> 
    2192 000004ec 3296bd8a  || [!B0]   SET     .S2     B5,0x15,0x1d,B5   ; <0,40> 
    2193 000004ea     4602  ||         SHL     .S1     A4,2,A4           ; |115| <0,40>  ^ 
    2194                    
    2195 000004f0 00211a63             CMPLTDP .S2X    A9:A8,B9:B8,B0    ; |108| <0,41> 
    2196 000004f4 02188b1b  ||         FADDDP  .L2     B5:B4,B7:B6,B5:B4 ; |121| <0,41> 
    2197 000004f8 021880f8  ||         SUB     .L1     A4,A6,A4          ; |115| <0,41>  ^ 
    2198                    
    2199                            .dwpsn  file "./../packages/ti/vlib/src/VLIB_ORB_computeRBrief/VLIB_ORB_computeRBrief_d.c",lin
    2200 00000500 02128058             SUB     .L1     A4,12,A4          ; |115| <0,42>  ^ 
TMS320C6x Assembler PC v7.4.2 Thu Mar 19 12:43:53 2015

Tools Copyright (c) 1996-2012 Texas Instruments Incorporated
package/lib/Regression/regress_d_c/./../packages/ti/vlib/src/VLIB_ORB_computeRBrief/VLIB_ORB_computeRBrief_d.se66 PAGE   41

    2201                    
    2202 00000508     cae6     [!B0]   ZERO    .L1     A5                ; <0,43> 
    2203 00000504 02545275  ||         STW     .D1T1   A4,*++A21(8)      ; |115| <0,43>  ^ 
    2204                    
    2205 0000050a     8ae6     [ B0]   ZERO    .L1     A5                ; <0,44> 
    2206 0000050c 3296bd89  || [!B0]   SET     .S1     A5,0x15,0x1d,A5   ; <0,44> 
    2207 00000510 0214803b  ||         DPTRUNC .L2     B5:B4,B4          ; |121| <0,44> 
    2208 00000514 038d8204  ||         LDHU    .D1T1   *+A3(24),A7       ; |121| <0,44>  ^ 
    2209                    
    2210 00000518     ca66     [!B0]   ZERO    .L1     A4                ; |108| <0,45> 
    2211 0000051a     8a76  || [ B0]   ZERO    .D1     A4                ; |108| <0,45> 
    2212 00000520 22dff068  || [ B0]   MVKH    .S1     0xbfe00000,A5     ; <0,45> 
    2213                    
    2214                            .dwpsn  file "./../packages/ti/vlib/src/VLIB_ORB_computeRBrief/VLIB_ORB_computeRBrief_d.c",lin
    2215 00000524 02208b18             FADDDP  .L1     A5:A4,A9:A8,A5:A4 ; |108| <0,46> 
    2216 00000528 00002000             NOP             2
    2217                    
    2218 0000052c 02948039             DPTRUNC .L1     A5:A4,A5          ; |108| <0,49> 
    2219 00000530 0210f800  ||         MPY32   .M1X    B4,A7,A4          ; |121| <0,49>  ^ 
    2220                    
    2221 00000534 00000000             NOP             1
    2222                            .dwpsn  file "./../packages/ti/vlib/src/VLIB_ORB_computeRBrief/VLIB_ORB_computeRBrief_d.c",lin
    2223 00000538 4087e05a     [ B1]   SUB     .L2     B1,1,B1           ; |100| <0,51> 
    2224 0000053c 4fffdb12     [ B1]   B       .S2     $C$L14            ; |100| <0,52> 
    2225                            .dwpsn  file "./../packages/ti/vlib/src/VLIB_ORB_computeRBrief/VLIB_ORB_computeRBrief_d.c",lin
    2226 00000540     a240             ADD     .L1     A5,A4,A4          ; |121| <0,53>  ^ 
    2227 00000542     4602             SHL     .S1     A4,2,A4           ; |121| <0,54>  ^ 
    2228 00000544 021880f8             SUB     .L1     A4,A6,A4          ; |121| <0,55>  ^ 
    2229 00000548 02128058             SUB     .L1     A4,12,A4          ; |121| <0,56>  ^ 
    2230                    
    2231 0000054c 0a502059             ADD     .L1     1,A20,A20         ; |100| <0,57> Define a twin register
    2232 00000550 02542275  ||         STW     .D1T1   A4,*+A21(4)       ; |121| <0,57>  ^ 
    2233                    
    2234 00000560           $C$DW$L$VLIB_ORB_computeRBrief_d$32$E:
    2235                    ;** --------------------------------------------------------------------------*
    2236 00000560           $C$L15:    ; PIPED LOOP EPILOG
    2237                    ;** --------------------------------------------------------------------------*
    2238 00000560           $C$DW$L$VLIB_ORB_computeRBrief_d$34$B:
    2239                    ;          EXCLUSIVE CPU CYCLES: 9
    2240                    ;** 97  -----------------------    if ( (U$201 += 2048) < 61440 ) goto g37;
    2241                    ;** 127 -----------------------    C$12 = (*U$58).imageWidth;
    2242                    
    2243 00000560 0200a359             ZERO    .L1     A4
    2244 00000564 05040051  ||         ADDK    .S1     2048,A10          ; |97| 
    2245 00000568 0528205a  ||         ADD     .L2     1,B10,B10         ; |97| 
    2246                    
    2247 0000056c 02118f88             SET     .S1     A4,0xc,0xf,A4
    2248                            .dwpsn  file "./../packages/ti/vlib/src/VLIB_ORB_computeRBrief/VLIB_ORB_computeRBrief_d.c",lin
    2249 00000570 00114af8             CMPLT   .L1     A10,A4,A0         ; |97| 
    2250 00000574 cf9ba121     [ A0]   BNOP    .S1     $C$L12,5          ; |97| 
    2251                               ; BRANCHCC OCCURS {$C$L12}        ; |97| 
    2252 00000580           $C$DW$L$VLIB_ORB_computeRBrief_d$34$E:
    2253                    ;** --------------------------------------------------------------------------*
    2254                            .dwpsn  file "./../packages/ti/vlib/src/VLIB_ORB_computeRBrief/VLIB_ORB_computeRBrief_d.c",lin
    2255 00000580           $C$DW$L$VLIB_ORB_computeRBrief_d$35$B:
TMS320C6x Assembler PC v7.4.2 Thu Mar 19 12:43:53 2015

Tools Copyright (c) 1996-2012 Texas Instruments Incorporated
package/lib/Regression/regress_d_c/./../packages/ti/vlib/src/VLIB_ORB_computeRBrief/VLIB_ORB_computeRBrief_d.se66 PAGE   42

    2256                    ;          EXCLUSIVE CPU CYCLES: 8
    2257                    ;** 127 -----------------------    VLIB_fillBuffer((*U$58).testPattern, (unsigned char)K$235, (void *)
    2258                    ;** 137 -----------------------    act_kernel = 0;  // [18]
    2259                    ;** 140 -----------------------    VLIB_cache_inval();  // [18]
    2260                    ;** 143 -----------------------    initStack(getSP());  // [18]
    2261                    ;** 146 -----------------------    beg_count = _itoll(TSCH, TSCL);  // [18]
    2262                    ;** 134 -----------------------    C$11 = (*U$13).imageWidth;
    2263                    ;** 134 -----------------------    VLIB_ORB_computeRBrief(intgrlImg, C$11, C$11, (*U$13).imageHeight, 
    2264                    ;** 153 -----------------------    v$2 = _itoll(TSCH, TSCL);  // [19]
    2265                    ;** 153 -----------------------    end_count = v$2;  // [19]
    2266                    ;** 156 -----------------------    C$10 = act_kernel;  // [19]
    2267                    ;** 156 -----------------------    *((C$10<<3)+K$244) = *((C$10<<3)+K$244)+(v$2-(beg_count+overhead));
    2268                    ;** 159 -----------------------    setStackDepth();  // [19]
    2269                    ;** 137 -----------------------    act_kernel = 1;  // [18]
    2270                    ;** 140 -----------------------    VLIB_cache_inval();  // [18]
    2271                    ;** 143 -----------------------    initStack(getSP());  // [18]
    2272                    ;** 146 -----------------------    beg_count = _itoll(TSCH, TSCL);  // [18]
    2273                    ;** 146 -----------------------    C$9 = (*U$13).imageWidth;
    2274                    ;** 146 -----------------------    VLIB_ORB_computeRBrief_cn(intgrlImg, C$9, C$9, (*U$13).imageHeight,
    2275                    ;** 153 -----------------------    v$2 = _itoll(TSCH, TSCL);  // [19]
    2276                    ;** 153 -----------------------    end_count = v$2;  // [19]
    2277                    ;** 156 -----------------------    C$8 = act_kernel;  // [19]
    2278                    ;** 156 -----------------------    *((C$8<<3)+K$244) = *((C$8<<3)+K$244)+(v$2-(beg_count+overhead));  
    2279                    ;** 159 -----------------------    setStackDepth();  // [19]
    2280                    
    2281 00000580 040d8205             LDHU    .D1T1   *+A3(24),A8       ; |127| 
    2282 00000584 06000029! ||         MVKL    .S1     testPatternString,A12
    2283 00000588 0200402a  ||         MVK     .S2     0x80,B4
    2284                    
    2285 0000058c 030c4266             LDW     .D1T2   *+A3(8),B6        ; |127| 
    2286                    $C$DW$202       .dwtag  DW_TAG_TI_branch
    2287                            .dwattr $C$DW$202, DW_AT_low_pc(0x00)
    2288                            .dwattr $C$DW$202, DW_AT_name("VLIB_fillBuffer")
    2289                            .dwattr $C$DW$202, DW_AT_TI_call
    2290                    
    2291 00000590 00000011!            CALL    .S1     VLIB_fillBuffer   ; |127| 
    2292 00000594 033e82e5  ||         LDW     .D2T1   *+SP(80),A6       ; |127| 
    2293 00000598 040da206  ||         LDHU    .D1T2   *+A3(26),B8       ; |127| 
    2294                    
    2295 0000059c 020c0214             LDBU    .D1T1   *A3,A4            ; |127| 
    2296 000005a0 0213180a             EXTU    .S2     B4,24,24,B4       ; |127| 
    2297 000005a4 06000068!            MVKH    .S1     testPatternString,A12
    2298 000005a8 05225008             EXTU    .S1     A8,18,16,A10      ; |127| 
    2299                    
    2300 000005ac 01850163             ADDKPC  .S2     $C$RL15,B3,0      ; |127| 
    2301 000005b0 0510a35a  ||         MVK     .L2     0x4,B10           ; |127| 
    2302                    
    2303 000005b4           $C$RL15:   ; CALL OCCURS {VLIB_fillBuffer} {0}  ; |127| 
    2304 000005b4           $C$DW$L$VLIB_ORB_computeRBrief_d$35$E:
    2305                    ;** --------------------------------------------------------------------------*
    2306 000005b4           $C$DW$L$VLIB_ORB_computeRBrief_d$36$B:
    2307                    ;          EXCLUSIVE CPU CYCLES: 111
    2308 000005b4 07800028!            MVKL    .S1     act_kernel,A15
    2309                    
    2310 000005b8 07800069!            MVKH    .S1     act_kernel,A15
TMS320C6x Assembler PC v7.4.2 Thu Mar 19 12:43:53 2015

Tools Copyright (c) 1996-2012 Texas Instruments Incorporated
package/lib/Regression/regress_d_c/./../packages/ti/vlib/src/VLIB_ORB_computeRBrief/VLIB_ORB_computeRBrief_d.se66 PAGE   43

    2311 000005bc 0180a358  ||         ZERO    .L1     A3                ; |137| 
    2312                    
    2313                    $C$DW$203       .dwtag  DW_TAG_TI_branch
    2314                            .dwattr $C$DW$203, DW_AT_low_pc(0x00)
    2315                            .dwattr $C$DW$203, DW_AT_name("VLIB_cache_inval")
    2316                            .dwattr $C$DW$203, DW_AT_TI_call
    2317                    
    2318 000005c0 10000013!            CALLP   .S2     VLIB_cache_inval,B3
    2319 000005c4 01bc0274  ||         STW     .D1T1   A3,*A15           ; |137| 
    2320                    
    2321                            .dwpsn  file ".\..\packages\ti\vlib\src\VLIB_ORB_computeRBrief\..\common\VLIB_profile.h",line 
    2322                    $C$RL16:   ; CALL OCCURS {VLIB_cache_inval} {0}  ; |140| 
    2323                    $C$DW$204       .dwtag  DW_TAG_TI_branch
    2324                            .dwattr $C$DW$204, DW_AT_low_pc(0x00)
    2325                            .dwattr $C$DW$204, DW_AT_name("getSP")
    2326                            .dwattr $C$DW$204, DW_AT_TI_call
    2327 000005c8 10000012!            CALLP   .S2     getSP,B3
    2328                            .dwpsn  file ".\..\packages\ti\vlib\src\VLIB_ORB_computeRBrief\..\common\VLIB_profile.h",line 
    2329                    $C$RL17:   ; CALL OCCURS {getSP} {0}         ; |143| 
    2330                    $C$DW$205       .dwtag  DW_TAG_TI_branch
    2331                            .dwattr $C$DW$205, DW_AT_low_pc(0x00)
    2332                            .dwattr $C$DW$205, DW_AT_name("initStack")
    2333                            .dwattr $C$DW$205, DW_AT_TI_call
    2334 000005cc 10000012!            CALLP   .S2     initStack,B3
    2335 000005d0           $C$RL18:   ; CALL OCCURS {initStack} {0}     ; |143| 
    2336                            .dwpsn  file ".\..\packages\ti\vlib\src\VLIB_ORB_computeRBrief\..\common\VLIB_profile.h",line 
    2337 000005d0 042803e2             MVC     .S2     TSCL,B8           ; |146| 
    2338 000005d4 022c03e2             MVC     .S2     TSCH,B4           ; |146| 
    2339                            .dwpsn  file "./../packages/ti/vlib/src/VLIB_ORB_computeRBrief/VLIB_ORB_computeRBrief_d.c",lin
    2340 000005d8 03318284             LDHU    .D2T1   *+B12(24),A6      ; |134| 
    2341 000005dc 023e82e4             LDW     .D2T1   *+SP(80),A4       ; |134| 
    2342 000005e0 053ea2e6             LDW     .D2T2   *+SP(84),B10      ; |134| 
    2343                    
    2344 000005e4 07000029!            MVKL    .S1     beg_count,A14
    2345 000005e8 0331a286  ||         LDHU    .D2T2   *+B12(26),B6      ; |134| 
    2346                    
    2347 000005ec 07000069!            MVKH    .S1     beg_count,A14
    2348 000005f0 04900fdb  ||         MV      .L2     B4,B9             ; |146| 
    2349 000005f4 043ee2e4  ||         LDW     .D2T1   *+SP(92),A8       ; |134| 
    2350                    
    2351 000005f8 04380347             STDW    .D1T2   B9:B8,*A14        ; |146| 
    2352 000005fc 063f42e4  ||         LDW     .D2T1   *+SP(104),A12     ; |134| 
    2353                    
    2354                    $C$DW$206       .dwtag  DW_TAG_TI_branch
    2355                            .dwattr $C$DW$206, DW_AT_low_pc(0x00)
    2356                            .dwattr $C$DW$206, DW_AT_name("VLIB_ORB_computeRBrief")
    2357                            .dwattr $C$DW$206, DW_AT_TI_call
    2358                    
    2359 00000600 10000013!            CALLP   .S2     VLIB_ORB_computeRBrief,B3
    2360 00000604 043f02e7  ||         LDW     .D2T2   *+SP(96),B8       ; |134| 
    2361 00000608 02181fdb  ||         MV      .L2X    A6,B4             ; |134| 
    2362 0000060c 052c0fd8  ||         MV      .L1     A11,A10           ; |134| 
    2363                    
    2364 00000610           $C$RL19:   ; CALL OCCURS {VLIB_ORB_computeRBrief} {0}  ; |134| 
    2365                            .dwpsn  file ".\..\packages\ti\vlib\src\VLIB_ORB_computeRBrief\..\common\VLIB_profile.h",line 
TMS320C6x Assembler PC v7.4.2 Thu Mar 19 12:43:53 2015

Tools Copyright (c) 1996-2012 Texas Instruments Incorporated
package/lib/Regression/regress_d_c/./../packages/ti/vlib/src/VLIB_ORB_computeRBrief/VLIB_ORB_computeRBrief_d.se66 PAGE   44

    2366 00000610 032803e2             MVC     .S2     TSCL,B6           ; |153| 
    2367 00000614 03ac03e2             MVC     .S2     TSCH,B7           ; |153| 
    2368 00000618 0580002a!            MVKL    .S2     overhead,B11
    2369                    
    2370 0000061c 0580006b!            MVKH    .S2     overhead,B11
    2371 00000620 083c0264  ||         LDW     .D1T1   *A15,A16          ; |156| 
    2372                    
    2373 00000624 022c03e7             LDDW    .D2T2   *B11,B5:B4        ; |156| 
    2374 00000628 03380364  ||         LDDW    .D1T1   *A14,A7:A6        ; |156| 
    2375                    
    2376 0000062c 01800028!            MVKL    .S1     cycles,A3
    2377 00000630 01800068!            MVKH    .S1     cycles,A3
    2378 00000634 0680002a!            MVKL    .S2     end_count,B13
    2379                            .dwpsn  file ".\..\packages\ti\vlib\src\VLIB_ORB_computeRBrief\..\common\VLIB_profile.h",line 
    2380 00000638 040e0b64             LDDW    .D1T1   *+A3[A16],A9:A8   ; |156| 
    2381 0000063c 0210d578             ADDU    .L1X    B4,A6,A5:A4       ; |156| 
    2382 00000640     b2b0             ADD     .L1X    A5,B5,A3          ; |156| 
    2383 00000642     63b0             ADD     .L1     A3,A7,A3          ; |156| 
    2384 00000644 0210d7f8             SUBU    .L1X    B6,A4,A5:A4       ; |156| 
    2385 00000648 020cf0fa             SUB     .L2X    B7,A3,B4          ; |156| 
    2386                    
    2387 0000064c 0f971849             EXT     .S1     A5,24,24,A31      ; |156| 
    2388 00000650 02110578  ||         ADDU    .L1     A8,A4,A5:A4       ; |156| 
    2389                    
    2390 00000654 01a4a079             ADD     .L1     A5,A9,A3          ; |156| 
    2391 00000658 0293f1e0  ||         ADD     .S1X    B4,A31,A5         ; |156| 
    2392                    
    2393 00000660 02946079             ADD     .L1     A3,A5,A5          ; |156| 
    2394 00000664 01800028! ||         MVKL    .S1     cycles,A3
    2395                    
    2396 00000668 01800069!            MVKH    .S1     cycles,A3
    2397 0000066c 0680006a! ||         MVKH    .S2     end_count,B13
    2398                    
    2399                    $C$DW$207       .dwtag  DW_TAG_TI_branch
    2400                            .dwattr $C$DW$207, DW_AT_low_pc(0x00)
    2401                            .dwattr $C$DW$207, DW_AT_name("setStackDepth")
    2402                            .dwattr $C$DW$207, DW_AT_TI_call
    2403                    
    2404 00000670 10000013!            CALLP   .S2     setStackDepth,B3
    2405 00000674 020e0b45  ||         STDW    .D1T1   A5:A4,*+A3[A16]   ; |156| 
    2406 00000678 033403c6  ||         STDW    .D2T2   B7:B6,*B13        ; |153| 
    2407                    
    2408                            .dwpsn  file ".\..\packages\ti\vlib\src\VLIB_ORB_computeRBrief\..\common\VLIB_profile.h",line 
    2409 0000067c           $C$RL20:   ; CALL OCCURS {setStackDepth} {0}  ; |159| 
    2410                            .dwpsn  file ".\..\packages\ti\vlib\src\VLIB_ORB_computeRBrief\..\common\VLIB_profile.h",line 
    2411 0000067c 0204a35a             MVK     .L2     1,B4              ; |137| 
    2412                    $C$DW$208       .dwtag  DW_TAG_TI_branch
    2413                            .dwattr $C$DW$208, DW_AT_low_pc(0x00)
    2414                            .dwattr $C$DW$208, DW_AT_name("VLIB_cache_inval")
    2415                            .dwattr $C$DW$208, DW_AT_TI_call
    2416                    
    2417 00000680 10000013!            CALLP   .S2     VLIB_cache_inval,B3
    2418 00000684 023c0276  ||         STW     .D1T2   B4,*A15           ; |137| 
    2419                    
    2420                            .dwpsn  file ".\..\packages\ti\vlib\src\VLIB_ORB_computeRBrief\..\common\VLIB_profile.h",line 
TMS320C6x Assembler PC v7.4.2 Thu Mar 19 12:43:53 2015

Tools Copyright (c) 1996-2012 Texas Instruments Incorporated
package/lib/Regression/regress_d_c/./../packages/ti/vlib/src/VLIB_ORB_computeRBrief/VLIB_ORB_computeRBrief_d.se66 PAGE   45

    2421                    $C$RL21:   ; CALL OCCURS {VLIB_cache_inval} {0}  ; |140| 
    2422                    $C$DW$209       .dwtag  DW_TAG_TI_branch
    2423                            .dwattr $C$DW$209, DW_AT_low_pc(0x00)
    2424                            .dwattr $C$DW$209, DW_AT_name("getSP")
    2425                            .dwattr $C$DW$209, DW_AT_TI_call
    2426 00000688 10000012!            CALLP   .S2     getSP,B3
    2427                            .dwpsn  file ".\..\packages\ti\vlib\src\VLIB_ORB_computeRBrief\..\common\VLIB_profile.h",line 
    2428                    $C$RL22:   ; CALL OCCURS {getSP} {0}         ; |143| 
    2429                    $C$DW$210       .dwtag  DW_TAG_TI_branch
    2430                            .dwattr $C$DW$210, DW_AT_low_pc(0x00)
    2431                            .dwattr $C$DW$210, DW_AT_name("initStack")
    2432                            .dwattr $C$DW$210, DW_AT_TI_call
    2433 0000068c 10000012!            CALLP   .S2     initStack,B3
    2434 00000690           $C$RL23:   ; CALL OCCURS {initStack} {0}     ; |143| 
    2435                            .dwpsn  file ".\..\packages\ti\vlib\src\VLIB_ORB_computeRBrief\..\common\VLIB_profile.h",line 
    2436 00000690 042803e2             MVC     .S2     TSCL,B8           ; |146| 
    2437 00000694 04ac03e2             MVC     .S2     TSCH,B9           ; |146| 
    2438                            .dwpsn  file "./../packages/ti/vlib/src/VLIB_ORB_computeRBrief/VLIB_ORB_computeRBrief_d.c",lin
    2439 00000698 02318286             LDHU    .D2T2   *+B12(24),B4      ; |146| 
    2440 0000069c 023e82e4             LDW     .D2T1   *+SP(80),A4       ; |146| 
    2441                    
    2442 000006a0 04380347             STDW    .D1T2   B9:B8,*A14        ; |146| 
    2443 000006a4 043ee2e4  ||         LDW     .D2T1   *+SP(92),A8       ; |146| 
    2444                    
    2445 000006a8 0331a286             LDHU    .D2T2   *+B12(26),B6      ; |146| 
    2446 000006ac 043f02e6             LDW     .D2T2   *+SP(96),B8       ; |146| 
    2447                    $C$DW$211       .dwtag  DW_TAG_TI_branch
    2448                            .dwattr $C$DW$211, DW_AT_low_pc(0x00)
    2449                            .dwattr $C$DW$211, DW_AT_name("VLIB_ORB_computeRBrief_cn")
    2450                            .dwattr $C$DW$211, DW_AT_TI_call
    2451                    
    2452 000006b0 10000013!            CALLP   .S2     VLIB_ORB_computeRBrief_cn,B3
    2453 000006b4 063f22e5  ||         LDW     .D2T1   *+SP(100),A12     ; |146| 
    2454 000006b8 03101fd8  ||         MV      .L1X    B4,A6             ; |146| 
    2455                    
    2456 000006bc           $C$RL24:   ; CALL OCCURS {VLIB_ORB_computeRBrief_cn} {0}  ; |146| 
    2457                            .dwpsn  file ".\..\packages\ti\vlib\src\VLIB_ORB_computeRBrief\..\common\VLIB_profile.h",line 
    2458 000006bc 032803e2             MVC     .S2     TSCL,B6           ; |153| 
    2459 000006c0 03ac03e2             MVC     .S2     TSCH,B7           ; |153| 
    2460                            .dwpsn  file ".\..\packages\ti\vlib\src\VLIB_ORB_computeRBrief\..\common\VLIB_profile.h",line 
    2461 000006c4 043c0264             LDW     .D1T1   *A15,A8           ; |156| 
    2462 000006c8 02380364             LDDW    .D1T1   *A14,A5:A4        ; |156| 
    2463 000006cc 042c03e6             LDDW    .D2T2   *B11,B9:B8        ; |156| 
    2464 000006d0 01800028!            MVKL    .S1     cycles,A3
    2465 000006d4 01800068!            MVKH    .S1     cycles,A3
    2466 000006d8 030d0b64             LDDW    .D1T1   *+A3[A8],A7:A6    ; |156| 
    2467                            .dwpsn  file ".\..\packages\ti\vlib\src\VLIB_ORB_computeRBrief\..\common\VLIB_profile.h",line 
    2468 000006dc 033403c6             STDW    .D2T2   B7:B6,*B13        ; |153| 
    2469                            .dwpsn  file ".\..\packages\ti\vlib\src\VLIB_ORB_computeRBrief\..\common\VLIB_profile.h",line 
    2470 000006e0 0211157a             ADDU    .L2X    B8,A4,B5:B4       ; |156| 
    2471 000006e4 0424a07a             ADD     .L2     B5,B9,B8          ; |156| 
    2472                    
    2473 000006e8 041511e3             ADD     .S2X    B8,A5,B8          ; |156| 
    2474 000006ec 0210c5fa  ||         SUBU    .L2     B6,B4,B5:B4       ; |156| 
    2475                    
TMS320C6x Assembler PC v7.4.2 Thu Mar 19 12:43:53 2015

Tools Copyright (c) 1996-2012 Texas Instruments Incorporated
package/lib/Regression/regress_d_c/./../packages/ti/vlib/src/VLIB_ORB_computeRBrief/VLIB_ORB_computeRBrief_d.se66 PAGE   46

    2476 000006f0 0497184b             EXT     .S2     B5,24,24,B9       ; |156| 
    2477 000006f4 0218957b  ||         ADDU    .L2X    A6,B4,B5:B4       ; |156| 
    2478 000006f8 041d08c2  ||         SUB     .D2     B7,B8,B8          ; |156| 
    2479                    
    2480 000006fc 029cb07b             ADD     .L2X    B5,A7,B5          ; |156| 
    2481 00000700 042501e2  ||         ADD     .S2     B8,B9,B8          ; |156| 
    2482                    
    2483 00000704 02a0a07a             ADD     .L2     B5,B8,B5          ; |156| 
    2484                    $C$DW$212       .dwtag  DW_TAG_TI_branch
    2485                            .dwattr $C$DW$212, DW_AT_low_pc(0x00)
    2486                            .dwattr $C$DW$212, DW_AT_name("setStackDepth")
    2487                            .dwattr $C$DW$212, DW_AT_TI_call
    2488                    
    2489 00000708 10000013!            CALLP   .S2     setStackDepth,B3
    2490 0000070c 020d0b46  ||         STDW    .D1T2   B5:B4,*+A3[A8]    ; |156| 
    2491                    
    2492                            .dwpsn  file ".\..\packages\ti\vlib\src\VLIB_ORB_computeRBrief\..\common\VLIB_profile.h",line 
    2493 00000710           $C$RL25:   ; CALL OCCURS {setStackDepth} {0}  ; |159| 
    2494 00000710           $C$DW$L$VLIB_ORB_computeRBrief_d$36$E:
    2495                    ;** --------------------------------------------------------------------------*
    2496 00000710           $C$DW$L$VLIB_ORB_computeRBrief_d$37$B:
    2497                    ;          EXCLUSIVE CPU CYCLES: 7
    2498                    ;** 158 -----------------------    if ( cnt <= 0 ) goto g48;
    2499                            .dwpsn  file "./../packages/ti/vlib/src/VLIB_ORB_computeRBrief/VLIB_ORB_computeRBrief_d.c",lin
    2500 00000710 002c0ad8             CMPGT   .L1     A11,0,A0          ; |158| 
    2501                    
    2502 00000714 d039a121     [!A0]   BNOP    .S1     $C$L21,5          ; |158| 
    2503 00000718 c500a35b  || [ A0]   ZERO    .L2     B10
    2504 0000071c c500a359  || [ A0]   ZERO    .L1     A10
    2505 00000720 c62c08f0  || [ A0]   MV      .D1     A11,A12           ; |159| 
    2506                    
    2507                               ; BRANCHCC OCCURS {$C$L21}        ; |158| 
    2508 00000724           $C$DW$L$VLIB_ORB_computeRBrief_d$37$E:
    2509                    ;** --------------------------------------------------------------------------*
    2510 00000724           $C$DW$L$VLIB_ORB_computeRBrief_d$38$B:
    2511                    ;** 159 -----------------------    L$5 = cnt;
    2512                    ;**     -----------------------    U$252 = 0;
    2513                    ;** 158 -----------------------    i = 0;
    2514                    ;**     -----------------------    #pragma MUST_ITERATE(1, 18446744073709551615, 1)
    2515                    ;**     -----------------------    #pragma LOOP_FLAGS(5120u)
    2516 00000724           $C$DW$L$VLIB_ORB_computeRBrief_d$38$E:
    2517                    ;** --------------------------------------------------------------------------*
    2518 00000724           $C$DW$L$VLIB_ORB_computeRBrief_d$39$B:
    2519                    ;          EXCLUSIVE CPU CYCLES: 5
    2520 00000724 023f42e6             LDW     .D2T2   *+SP(104),B4
    2521 00000728 0fbf22e6             LDW     .D2T2   *+SP(100),B31
    2522                            .dwpsn  file "./../packages/ti/vlib/src/VLIB_ORB_computeRBrief/VLIB_ORB_computeRBrief_d.c",lin
    2523 0000072c     0626             ZERO    .L1     A4                ; |159| 
    2524 0000072e     2c6e             NOP             2
    2525 00000730           $C$DW$L$VLIB_ORB_computeRBrief_d$39$E:
    2526                    ;** --------------------------------------------------------------------------*
    2527                    ;**   BEGIN LOOP $C$L16
    2528                    ;** --------------------------------------------------------------------------*
    2529 00000730           $C$L16:    
    2530                            .dwpsn  file "./../packages/ti/vlib/src/VLIB_ORB_computeRBrief/VLIB_ORB_computeRBrief_d.c",lin
TMS320C6x Assembler PC v7.4.2 Thu Mar 19 12:43:53 2015

Tools Copyright (c) 1996-2012 Texas Instruments Incorporated
package/lib/Regression/regress_d_c/./../packages/ti/vlib/src/VLIB_ORB_computeRBrief/VLIB_ORB_computeRBrief_d.se66 PAGE   47

    2531 00000730           $C$DW$L$VLIB_ORB_computeRBrief_d$40$B:
    2532                    ;          EXCLUSIVE CPU CYCLES: 3
    2533                    ;**     -----------------------g42:
    2534                    ;**     -----------------------    U$254 = &outDesc_cn[U$252-1];
    2535                    ;**     -----------------------    U$256 = &outDesc[U$252-1];
    2536                    ;** 159 -----------------------    k = 0;
    2537                    ;**     -----------------------    #pragma MUST_ITERATE(1, 32, 1)
    2538                    ;**     -----------------------    #pragma LOOP_FLAGS(4352u)
    2539 00000730 0291407a             ADD     .L2     B10,B4,B5
    2540 00000734 027d407a             ADD     .L2     B10,B31,B4
    2541                    
    2542 00000738     feb0             SUB     .L1X    B5,1,A3
    2543 0000073a     ee41  ||         SUB     .L2     B4,1,B4
    2544                    
    2545 00000740           $C$DW$L$VLIB_ORB_computeRBrief_d$40$E:
    2546                    ;*----------------------------------------------------------------------------*
    2547                    ;*   SOFTWARE PIPELINE INFORMATION
    2548                    ;*      Disqualified loop: Loop contains control code
    2549                    ;*----------------------------------------------------------------------------*
    2550 00000740           $C$L17:    
    2551                            .dwpsn  file "./../packages/ti/vlib/src/VLIB_ORB_computeRBrief/VLIB_ORB_computeRBrief_d.c",lin
    2552 00000740           $C$DW$L$VLIB_ORB_computeRBrief_d$41$B:
    2553                    ;          EXCLUSIVE CPU CYCLES: 12
    2554                    ;**     -----------------------g43:
    2555                    ;** 160 -----------------------    if ( *(++U$254) != *(++U$256) ) goto g45;
    2556                    
    2557 00000740 02903297             LDBU    .D2T2   *++B4,B5          ; |160| 
    2558 00000744 028c3214  ||         LDBU    .D1T1   *++A3,A5          ; |160| 
    2559                    
    2560 00000748     6c6e             NOP             4
    2561                    
    2562 0000074a     b6e8             CMPEQ   .L1X    B5,A5,A0          ; |160| 
    2563 0000074c     02b2  ||         MVK     .S1     32,A5             ; |159| 
    2564                    
    2565 0000074e     073a     [!A0]   B       .S1     $C$L18            ; |160| 
    2566 00000750 c2102059  || [ A0]   ADD     .L1     1,A4,A4           ; |159| 
    2567 00000754     2056  ||         MV      .D1     A0,A1             ; guard predicate rewrite
    2568                    
    2569                            .dwpsn  file "./../packages/ti/vlib/src/VLIB_ORB_computeRBrief/VLIB_ORB_computeRBrief_d.c",lin
    2570 00000756     8e88             CMPLT   .L1     A4,A5,A0          ; |159| 
    2571 00000758 9000a358     [!A1]   ZERO    .L1     A0                ; |159| nullify predicate
    2572 00000760     5c2a     [ A0]   BNOP    .S1     $C$L17,2          ; |159| 
    2573                            .dwpsn  file "./../packages/ti/vlib/src/VLIB_ORB_computeRBrief/VLIB_ORB_computeRBrief_d.c",lin
    2574                               ; BRANCHCC OCCURS {$C$L18}        ; |160| 
    2575 00000762           $C$DW$L$VLIB_ORB_computeRBrief_d$41$E:
    2576                    ;** --------------------------------------------------------------------------*
    2577 00000762           $C$DW$L$VLIB_ORB_computeRBrief_d$42$B:
    2578                    ;          EXCLUSIVE CPU CYCLES: 3
    2579                    ;** 159 -----------------------    if ( (++k) < 32 ) goto g43;
    2580 00000762     4c6e             NOP             3
    2581                            .dwpsn  file "./../packages/ti/vlib/src/VLIB_ORB_computeRBrief/VLIB_ORB_computeRBrief_d.c",lin
    2582                               ; BRANCHCC OCCURS {$C$L17}        ; |159| 
    2583 00000764           $C$DW$L$VLIB_ORB_computeRBrief_d$42$E:
    2584                    ;** --------------------------------------------------------------------------*
    2585 00000764           $C$DW$L$VLIB_ORB_computeRBrief_d$43$B:
TMS320C6x Assembler PC v7.4.2 Thu Mar 19 12:43:53 2015

Tools Copyright (c) 1996-2012 Texas Instruments Incorporated
package/lib/Regression/regress_d_c/./../packages/ti/vlib/src/VLIB_ORB_computeRBrief/VLIB_ORB_computeRBrief_d.se66 PAGE   48

    2586                    ;          EXCLUSIVE CPU CYCLES: 6
    2587                    ;** 159 -----------------------    goto g47;
    2588                    
    2589 00000764 00388123             BNOP    .S2     $C$L19,4          ; |159| 
    2590 00000768 0033e059  ||         SUB     .L1     A12,1,A0          ; |158| 
    2591 0000076c 0633e1a1  ||         SUB     .S1     A12,1,A12         ; |158| 
    2592 00000770 05282940  ||         ADD     .D1     1,A10,A10         ; |158| 
    2593                    
    2594                            .dwpsn  file "./../packages/ti/vlib/src/VLIB_ORB_computeRBrief/VLIB_ORB_computeRBrief_d.c",lin
    2595 00000774 05001052             ADDK    .S2     32,B10            ; |158| 
    2596                            .dwpsn  file "./../packages/ti/vlib/src/VLIB_ORB_computeRBrief/VLIB_ORB_computeRBrief_d.c",lin
    2597                               ; BRANCH OCCURS {$C$L19}          ; |159| 
    2598 00000778           $C$DW$L$VLIB_ORB_computeRBrief_d$43$E:
    2599                    ;** --------------------------------------------------------------------------*
    2600 00000778           $C$L18:    
    2601                            .dwpsn  file "./../packages/ti/vlib/src/VLIB_ORB_computeRBrief/VLIB_ORB_computeRBrief_d.c",lin
    2602 00000778           $C$DW$L$VLIB_ORB_computeRBrief_d$44$B:
    2603                    ;          EXCLUSIVE CPU CYCLES: 11
    2604                    ;**     -----------------------g45:
    2605                    ;** 161 -----------------------    status_nat_vs_int = 0;
    2606                    ;** 162 -----------------------    if ( !LevelOfFeedback ) goto g47;
    2607                            .dwpsn  file "./../packages/ti/vlib/src/VLIB_ORB_computeRBrief/VLIB_ORB_computeRBrief_d.c",lin
    2608 00000778     cf8d             LDW     .D2T1   *+SP(120),A0      ; |161| 
    2609 0000077a     0627             ZERO    .L2     B4                ; |161| 
    2610 00000780     9fc5             STW     .D2T2   B4,*+SP(112)      ; |161| 
    2611 00000782     2c6e             NOP             2
    2612                    
    2613 00000784     0aba     [!A0]   B       .S1     $C$L20            ; |162| 
    2614 00000786     2046  ||         MV      .L1     A0,A1             ; guard predicate rewrite
    2615 00000788 c200002a! || [ A0]   MVKL    .S2     $C$SL2+0,B4
    2616                    
    2617 0000078c c200006b!    [ A0]   MVKH    .S2     $C$SL2+0,B4
    2618 00000790 95282058  || [!A1]   ADD     .L1     1,A10,A10         ; |158| 
    2619                    
    2620                            .dwpsn  file "./../packages/ti/vlib/src/VLIB_ORB_computeRBrief/VLIB_ORB_computeRBrief_d.c",lin
    2621 00000794 95001052     [!A1]   ADDK    .S2     32,B10            ; |158| 
    2622                    $C$DW$213       .dwtag  DW_TAG_TI_branch
    2623                            .dwattr $C$DW$213, DW_AT_low_pc(0x00)
    2624                            .dwattr $C$DW$213, DW_AT_name("printf")
    2625                            .dwattr $C$DW$213, DW_AT_TI_call
    2626                    
    2627 00000798 c0000011!    [ A0]   CALL    .S1     printf            ; |163| 
    2628 000007a0 d033e059  || [!A0]   SUB     .L1     A12,1,A0          ; |158| 
    2629 000007a4 963029c0  || [!A1]   SUB     .D1     A12,1,A12         ; |158| 
    2630                    
    2631 000007a8 8000a358     [ A1]   ZERO    .L1     A0                ; |158| nullify predicate
    2632 000007ac cffff210     [ A0]   B       .S1     $C$L16            ; |158| 
    2633                            .dwpsn  file "./../packages/ti/vlib/src/VLIB_ORB_computeRBrief/VLIB_ORB_computeRBrief_d.c",lin
    2634                               ; BRANCHCC OCCURS {$C$L20}        ; |162| 
    2635 000007b0           $C$DW$L$VLIB_ORB_computeRBrief_d$44$E:
    2636                    ;** --------------------------------------------------------------------------*
    2637 000007b0           $C$DW$L$VLIB_ORB_computeRBrief_d$45$B:
    2638                    ;          EXCLUSIVE CPU CYCLES: 4
    2639                    ;** 163 -----------------------    printf((const char *)" Mismatch in Index = %u %u \n", i, k);
    2640                            .dwpsn  file "./../packages/ti/vlib/src/VLIB_ORB_computeRBrief/VLIB_ORB_computeRBrief_d.c",lin
TMS320C6x Assembler PC v7.4.2 Thu Mar 19 12:43:53 2015

Tools Copyright (c) 1996-2012 Texas Instruments Incorporated
package/lib/Regression/regress_d_c/./../packages/ti/vlib/src/VLIB_ORB_computeRBrief/VLIB_ORB_computeRBrief_d.se66 PAGE   49

    2641 000007b0     bc45             STW     .D2T2   B4,*+SP(4)        ; |163| 
    2642 000007b2     ec45             STW     .D2T1   A4,*+SP(12)       ; |163| 
    2643                    
    2644 000007b4 01880163             ADDKPC  .S2     $C$RL26,B3,0      ; |163| 
    2645 000007b8 053c42f4  ||         STW     .D2T1   A10,*+SP(8)       ; |163| 
    2646                    
    2647 000007c0           $C$RL26:   ; CALL OCCURS {printf} {0}        ; |163| 
    2648                    
    2649 000007c0 0033e059             SUB     .L1     A12,1,A0          ; |158| 
    2650 000007c4 052821a1  ||         ADD     .S1     1,A10,A10         ; |158| 
    2651 000007c8 05001053  ||         ADDK    .S2     32,B10            ; |158| 
    2652 000007cc 063029c0  ||         SUB     .D1     A12,1,A12         ; |158| 
    2653                    
    2654 000007d0           $C$DW$L$VLIB_ORB_computeRBrief_d$45$E:
    2655                    ;** --------------------------------------------------------------------------*
    2656 000007d0           $C$L19:    
    2657 000007d0           $C$DW$L$VLIB_ORB_computeRBrief_d$46$B:
    2658                    ;          EXCLUSIVE CPU CYCLES: 1
    2659                            .dwpsn  file "./../packages/ti/vlib/src/VLIB_ORB_computeRBrief/VLIB_ORB_computeRBrief_d.c",lin
    2660 000007d0 cfffee10     [ A0]   B       .S1     $C$L16            ; |158| 
    2661 000007d4           $C$DW$L$VLIB_ORB_computeRBrief_d$46$E:
    2662                    ;** --------------------------------------------------------------------------*
    2663 000007d4           $C$L20:    
    2664                            .dwpsn  file "./../packages/ti/vlib/src/VLIB_ORB_computeRBrief/VLIB_ORB_computeRBrief_d.c",lin
    2665 000007d4           $C$DW$L$VLIB_ORB_computeRBrief_d$47$B:
    2666                    ;          EXCLUSIVE CPU CYCLES: 5
    2667                    ;**     -----------------------g47:
    2668                    ;** 158 -----------------------    U$252 += 32;
    2669                    ;** 158 -----------------------    ++i;
    2670                    ;** 158 -----------------------    if ( L$5 = L$5-1 ) goto g42;
    2671 000007d4 c23f42e6     [ A0]   LDW     .D2T2   *+SP(104),B4
    2672 000007d8 cfbf22e6     [ A0]   LDW     .D2T2   *+SP(100),B31
    2673                            .dwpsn  file "./../packages/ti/vlib/src/VLIB_ORB_computeRBrief/VLIB_ORB_computeRBrief_d.c",lin
    2674 000007dc c200a358     [ A0]   ZERO    .L1     A4                ; |159| 
    2675 000007e0 00002000             NOP             2
    2676                            .dwpsn  file "./../packages/ti/vlib/src/VLIB_ORB_computeRBrief/VLIB_ORB_computeRBrief_d.c",lin
    2677                               ; BRANCHCC OCCURS {$C$L16}        ; |158| 
    2678 000007e4           $C$DW$L$VLIB_ORB_computeRBrief_d$47$E:
    2679                    ;** --------------------------------------------------------------------------*
    2680 000007e4           $C$L21:    
    2681 000007e4           $C$DW$L$VLIB_ORB_computeRBrief_d$48$B:
    2682                    ;          EXCLUSIVE CPU CYCLES: 14
    2683                    ;**     -----------------------g48:
    2684                    ;** 171 -----------------------    v$1 = prm;
    2685                    ;** 171 -----------------------    if ( !(((*U$13).testPattern == 4)&((*U$13).staticOut != NULL)) ) go
    2686                            .dwpsn  file "./../packages/ti/vlib/src/VLIB_ORB_computeRBrief/VLIB_ORB_computeRBrief_d.c",lin
    2687 000007e4 02b00296             LDBU    .D2T2   *B12,B5           ; |171| 
    2688 000007e8 003082e6             LDW     .D2T2   *+B12(16),B0      ; |171| 
    2689 000007ec 063d42e4             LDW     .D2T1   *+SP(40),A12      ; |171| 
    2690                            .dwpsn  file "./../packages/ti/vlib/src/VLIB_ORB_computeRBrief/VLIB_ORB_computeRBrief_d.c",lin
    2691 000007f0 002c0ad8             CMPGT   .L1     A11,0,A0          ; |172| 
    2692                            .dwpsn  file "./../packages/ti/vlib/src/VLIB_ORB_computeRBrief/VLIB_ORB_computeRBrief_d.c",lin
    2693 000007f4 0200a35a             ZERO    .L2     B4                ; |171| 
    2694 000007f8 02948a5a             CMPEQ   .L2     B5,4,B5           ; |171| 
    2695 000007fc 2204a35a     [ B0]   MVK     .L2     0x1,B4            ; |171| 
TMS320C6x Assembler PC v7.4.2 Thu Mar 19 12:43:53 2015

Tools Copyright (c) 1996-2012 Texas Instruments Incorporated
package/lib/Regression/regress_d_c/./../packages/ti/vlib/src/VLIB_ORB_computeRBrief/VLIB_ORB_computeRBrief_d.se66 PAGE   50

    2696                    
    2697 00000804     8689             AND     .L2     B4,B5,B0          ; |171| 
    2698 00000800 01b58079  ||         ADD     .L1     A12,A13,A3        ; |192| 
    2699                    
    2700 0000080c 320d0265     [!B0]   LDW     .D1T1   *+A3(32),A4       ; |192| 
    2701 00000808 30002a91  || [!B0]   B       .S1     $C$L28            ; |171| 
    2702 00000806     e866  || [!B0]   MVK     .L1     0x1,A0            ; |172| nullify predicate
    2703 00000810 3200002a! || [!B0]   MVKL    .S2     $C$SL3+0,B4
    2704                    
    2705 00000814 d0002511     [!A0]   B       .S1     $C$L27            ; |172| 
    2706 00000818 3200006a! || [!B0]   MVKH    .S2     $C$SL3+0,B4
    2707                    
    2708                    $C$DW$214       .dwtag  DW_TAG_TI_branch
    2709                            .dwattr $C$DW$214, DW_AT_low_pc(0x00)
    2710                            .dwattr $C$DW$214, DW_AT_name("sprintf")
    2711                            .dwattr $C$DW$214, DW_AT_TI_call
    2712                    
    2713 00000820 30000013!    [!B0]   CALL    .S2     sprintf           ; |192| 
    2714 00000824 31800029! || [!B0]   MVKL    .S1     testPatternString,A3
    2715 00000828 323c22f7  || [!B0]   STW     .D2T2   B4,*+SP(4)        ; |192| 
    2716 0000082c 3204a35a  || [!B0]   MVK     .L2     1,B4              ; |189| 
    2717                    
    2718 00000830 32800028!    [!B0]   MVKL    .S1     est_test,A5
    2719 00000834 31800068!    [!B0]   MVKH    .S1     testPatternString,A3
    2720                    
    2721 00000838 323c82f5     [!B0]   STW     .D2T1   A4,*+SP(16)       ; |192| 
    2722 0000083c 02000028! ||         MVKL    .S1     desc,A4
    2723                    
    2724                               ; BRANCHCC OCCURS {$C$L28}        ; |171| 
    2725 00000840           $C$DW$L$VLIB_ORB_computeRBrief_d$48$E:
    2726                    ;** --------------------------------------------------------------------------*
    2727 00000840           $C$DW$L$VLIB_ORB_computeRBrief_d$49$B:
    2728                    ;          EXCLUSIVE CPU CYCLES: 1
    2729                    ;** 172 -----------------------    if ( cnt <= 0 ) goto g57;
    2730 00000840 c1bfa2e4     [ A0]   LDW     .D2T1   *+SP(116),A3
    2731                            .dwpsn  file "./../packages/ti/vlib/src/VLIB_ORB_computeRBrief/VLIB_ORB_computeRBrief_d.c",lin
    2732                               ; BRANCHCC OCCURS {$C$L27}        ; |172| 
    2733 00000844           $C$DW$L$VLIB_ORB_computeRBrief_d$49$E:
    2734                    ;** --------------------------------------------------------------------------*
    2735 00000844           $C$DW$L$VLIB_ORB_computeRBrief_d$50$B:
    2736                    ;          EXCLUSIVE CPU CYCLES: 8
    2737                    ;**     -----------------------    U$274 = (v$1[tpi]).staticOut;
    2738                    ;** 173 -----------------------    L$6 = cnt;
    2739                    ;**     -----------------------    U$252 = 0;
    2740                    ;** 172 -----------------------    i = 0;
    2741                    ;**     -----------------------    #pragma MUST_ITERATE(1, 18446744073709551615, 1)
    2742                    ;**     -----------------------    #pragma LOOP_FLAGS(5120u)
    2743                            .dwpsn  file "./../packages/ti/vlib/src/VLIB_ORB_computeRBrief/VLIB_ORB_computeRBrief_d.c",lin
    2744 00000844 072c0fd8             MV      .L1     A11,A14           ; |173| 
    2745                            .dwpsn  file "./../packages/ti/vlib/src/VLIB_ORB_computeRBrief/VLIB_ORB_computeRBrief_d.c",lin
    2746 00000848 0500a358             ZERO    .L1     A10               ; |172| 
    2747 0000084c 0500a35a             ZERO    .L2     B10               ; |172| 
    2748 00000850     0c6e             NOP             1
    2749 00000852     a5ca             SHL     .S1     A3,5,A4
    2750 00000854 01907c40             ADDAW   .D1     A4,A3,A3
TMS320C6x Assembler PC v7.4.2 Thu Mar 19 12:43:53 2015

Tools Copyright (c) 1996-2012 Texas Instruments Incorporated
package/lib/Regression/regress_d_c/./../packages/ti/vlib/src/VLIB_ORB_computeRBrief/VLIB_ORB_computeRBrief_d.se66 PAGE   51

    2751 00000858 018d8078             ADD     .L1     A12,A3,A3
    2752 00000860 058c8266             LDW     .D1T2   *+A3(16),B11
    2753 00000864           $C$DW$L$VLIB_ORB_computeRBrief_d$50$E:
    2754                    ;** --------------------------------------------------------------------------*
    2755 00000864           $C$DW$L$VLIB_ORB_computeRBrief_d$51$B:
    2756                    ;          EXCLUSIVE CPU CYCLES: 7
    2757 00000864     bf4d             LDW     .D2T2   *+SP(100),B4
    2758                            .dwpsn  file "./../packages/ti/vlib/src/VLIB_ORB_computeRBrief/VLIB_ORB_computeRBrief_d.c",lin
    2759 00000866     0626             ZERO    .L1     A4                ; |173| 
    2760 00000868 00002000             NOP             2
    2761 0000086c 02ad407a             ADD     .L2     B10,B11,B5
    2762 00000870     0c6e             NOP             1
    2763 00000872     feb0             SUB     .L1X    B5,1,A3
    2764 00000874           $C$DW$L$VLIB_ORB_computeRBrief_d$51$E:
    2765                    ;** --------------------------------------------------------------------------*
    2766                    ;**   BEGIN LOOP $C$L22
    2767                    ;** --------------------------------------------------------------------------*
    2768 00000874           $C$L22:    
    2769                            .dwpsn  file "./../packages/ti/vlib/src/VLIB_ORB_computeRBrief/VLIB_ORB_computeRBrief_d.c",lin
    2770 00000874           $C$DW$L$VLIB_ORB_computeRBrief_d$52$B:
    2771                    ;          EXCLUSIVE CPU CYCLES: 2
    2772                    ;**     -----------------------g51:
    2773                    ;**     -----------------------    U$254 = &outDesc_cn[U$252-1];
    2774                    ;**     -----------------------    U$275 = &U$274[U$252-1];
    2775                    ;** 173 -----------------------    k = 0;
    2776                    ;**     -----------------------    #pragma MUST_ITERATE(1, 32, 1)
    2777                    ;**     -----------------------    #pragma LOOP_FLAGS(4352u)
    2778 00000874 0211407a             ADD     .L2     B10,B4,B4
    2779 00000878 0213e05a             SUB     .L2     B4,1,B4
    2780 00000880           $C$DW$L$VLIB_ORB_computeRBrief_d$52$E:
    2781                    ;*----------------------------------------------------------------------------*
    2782                    ;*   SOFTWARE PIPELINE INFORMATION
    2783                    ;*      Disqualified loop: Loop contains control code
    2784                    ;*----------------------------------------------------------------------------*
    2785 00000880           $C$L23:    
    2786                            .dwpsn  file "./../packages/ti/vlib/src/VLIB_ORB_computeRBrief/VLIB_ORB_computeRBrief_d.c",lin
    2787 00000880           $C$DW$L$VLIB_ORB_computeRBrief_d$53$B:
    2788                    ;          EXCLUSIVE CPU CYCLES: 12
    2789                    ;**     -----------------------g52:
    2790                    ;** 174 -----------------------    if ( *(++U$254) != *(++U$275) ) goto g54;
    2791                    
    2792 00000880 028c3215             LDBU    .D1T1   *++A3,A5          ; |174| 
    2793 00000884 02903296  ||         LDBU    .D2T2   *++B4,B5          ; |174| 
    2794                    
    2795 00000888     6c6e             NOP             4
    2796                    
    2797 0000088a     b6e8             CMPEQ   .L1X    B5,A5,A0          ; |174| 
    2798 0000088c     02b2  ||         MVK     .S1     32,A5             ; |173| 
    2799                    
    2800 0000088e     073a     [!A0]   B       .S1     $C$L24            ; |174| 
    2801 00000890 c2102059  || [ A0]   ADD     .L1     1,A4,A4           ; |173| 
    2802 00000894     2056  ||         MV      .D1     A0,A1             ; guard predicate rewrite
    2803                    
    2804                            .dwpsn  file "./../packages/ti/vlib/src/VLIB_ORB_computeRBrief/VLIB_ORB_computeRBrief_d.c",lin
    2805 00000896     8e88             CMPLT   .L1     A4,A5,A0          ; |173| 
TMS320C6x Assembler PC v7.4.2 Thu Mar 19 12:43:53 2015

Tools Copyright (c) 1996-2012 Texas Instruments Incorporated
package/lib/Regression/regress_d_c/./../packages/ti/vlib/src/VLIB_ORB_computeRBrief/VLIB_ORB_computeRBrief_d.se66 PAGE   52

    2806 00000898 9000a358     [!A1]   ZERO    .L1     A0                ; |173| nullify predicate
    2807 000008a0     5c2a     [ A0]   BNOP    .S1     $C$L23,2          ; |173| 
    2808                            .dwpsn  file "./../packages/ti/vlib/src/VLIB_ORB_computeRBrief/VLIB_ORB_computeRBrief_d.c",lin
    2809                               ; BRANCHCC OCCURS {$C$L24}        ; |174| 
    2810 000008a2           $C$DW$L$VLIB_ORB_computeRBrief_d$53$E:
    2811                    ;** --------------------------------------------------------------------------*
    2812 000008a2           $C$DW$L$VLIB_ORB_computeRBrief_d$54$B:
    2813                    ;          EXCLUSIVE CPU CYCLES: 3
    2814                    ;** 173 -----------------------    if ( (++k) < 32 ) goto g52;
    2815 000008a2     4c6e             NOP             3
    2816                            .dwpsn  file "./../packages/ti/vlib/src/VLIB_ORB_computeRBrief/VLIB_ORB_computeRBrief_d.c",lin
    2817                               ; BRANCHCC OCCURS {$C$L23}        ; |173| 
    2818 000008a4           $C$DW$L$VLIB_ORB_computeRBrief_d$54$E:
    2819                    ;** --------------------------------------------------------------------------*
    2820 000008a4           $C$DW$L$VLIB_ORB_computeRBrief_d$55$B:
    2821                    ;          EXCLUSIVE CPU CYCLES: 6
    2822                    ;** 173 -----------------------    goto g56;
    2823                    
    2824 000008a4 00388123             BNOP    .S2     $C$L25,4          ; |173| 
    2825 000008a8 003be059  ||         SUB     .L1     A14,1,A0          ; |172| 
    2826 000008ac 073be1a1  ||         SUB     .S1     A14,1,A14         ; |172| 
    2827 000008b0 05282940  ||         ADD     .D1     1,A10,A10         ; |172| 
    2828                    
    2829                            .dwpsn  file "./../packages/ti/vlib/src/VLIB_ORB_computeRBrief/VLIB_ORB_computeRBrief_d.c",lin
    2830 000008b4 05001052             ADDK    .S2     32,B10            ; |172| 
    2831                            .dwpsn  file "./../packages/ti/vlib/src/VLIB_ORB_computeRBrief/VLIB_ORB_computeRBrief_d.c",lin
    2832                               ; BRANCH OCCURS {$C$L25}          ; |173| 
    2833 000008b8           $C$DW$L$VLIB_ORB_computeRBrief_d$55$E:
    2834                    ;** --------------------------------------------------------------------------*
    2835 000008b8           $C$L24:    
    2836                            .dwpsn  file "./../packages/ti/vlib/src/VLIB_ORB_computeRBrief/VLIB_ORB_computeRBrief_d.c",lin
    2837 000008b8           $C$DW$L$VLIB_ORB_computeRBrief_d$56$B:
    2838                    ;          EXCLUSIVE CPU CYCLES: 11
    2839                    ;**     -----------------------g54:
    2840                    ;** 175 -----------------------    status_nat_vs_ref = 0;
    2841                    ;** 176 -----------------------    if ( !LevelOfFeedback ) goto g56;
    2842                            .dwpsn  file "./../packages/ti/vlib/src/VLIB_ORB_computeRBrief/VLIB_ORB_computeRBrief_d.c",lin
    2843 000008b8     cf8d             LDW     .D2T1   *+SP(120),A0      ; |175| 
    2844 000008ba     0627             ZERO    .L2     B4                ; |175| 
    2845 000008c0     ff45             STW     .D2T2   B4,*+SP(108)      ; |175| 
    2846 000008c2     2c6e             NOP             2
    2847                    
    2848 000008c4     0aba     [!A0]   B       .S1     $C$L26            ; |176| 
    2849 000008c6     2046  ||         MV      .L1     A0,A1             ; guard predicate rewrite
    2850 000008c8 c200002a! || [ A0]   MVKL    .S2     $C$SL2+0,B4
    2851                    
    2852 000008cc c200006b!    [ A0]   MVKH    .S2     $C$SL2+0,B4
    2853 000008d0 95282058  || [!A1]   ADD     .L1     1,A10,A10         ; |172| 
    2854                    
    2855                            .dwpsn  file "./../packages/ti/vlib/src/VLIB_ORB_computeRBrief/VLIB_ORB_computeRBrief_d.c",lin
    2856 000008d4 95001052     [!A1]   ADDK    .S2     32,B10            ; |172| 
    2857                    $C$DW$215       .dwtag  DW_TAG_TI_branch
    2858                            .dwattr $C$DW$215, DW_AT_low_pc(0x00)
    2859                            .dwattr $C$DW$215, DW_AT_name("printf")
    2860                            .dwattr $C$DW$215, DW_AT_TI_call
TMS320C6x Assembler PC v7.4.2 Thu Mar 19 12:43:53 2015

Tools Copyright (c) 1996-2012 Texas Instruments Incorporated
package/lib/Regression/regress_d_c/./../packages/ti/vlib/src/VLIB_ORB_computeRBrief/VLIB_ORB_computeRBrief_d.se66 PAGE   53

    2861                    
    2862 000008d8 c0000011!    [ A0]   CALL    .S1     printf            ; |177| 
    2863 000008e0 d03be059  || [!A0]   SUB     .L1     A14,1,A0          ; |172| 
    2864 000008e4 973829c0  || [!A1]   SUB     .D1     A14,1,A14         ; |172| 
    2865                    
    2866 000008e8 8000a358     [ A1]   ZERO    .L1     A0                ; |172| nullify predicate
    2867 000008ec cffff290     [ A0]   B       .S1     $C$L22            ; |172| 
    2868                            .dwpsn  file "./../packages/ti/vlib/src/VLIB_ORB_computeRBrief/VLIB_ORB_computeRBrief_d.c",lin
    2869                               ; BRANCHCC OCCURS {$C$L26}        ; |176| 
    2870 000008f0           $C$DW$L$VLIB_ORB_computeRBrief_d$56$E:
    2871                    ;** --------------------------------------------------------------------------*
    2872 000008f0           $C$DW$L$VLIB_ORB_computeRBrief_d$57$B:
    2873                    ;          EXCLUSIVE CPU CYCLES: 4
    2874                    ;** 177 -----------------------    printf((const char *)" Mismatch in Index = %u %u \n", i, k);
    2875                            .dwpsn  file "./../packages/ti/vlib/src/VLIB_ORB_computeRBrief/VLIB_ORB_computeRBrief_d.c",lin
    2876 000008f0     bc45             STW     .D2T2   B4,*+SP(4)        ; |177| 
    2877 000008f2     ec45             STW     .D2T1   A4,*+SP(12)       ; |177| 
    2878                    
    2879 000008f4 01880163             ADDKPC  .S2     $C$RL27,B3,0      ; |177| 
    2880 000008f8 053c42f4  ||         STW     .D2T1   A10,*+SP(8)       ; |177| 
    2881                    
    2882 00000900           $C$RL27:   ; CALL OCCURS {printf} {0}        ; |177| 
    2883                    
    2884 00000900 003be059             SUB     .L1     A14,1,A0          ; |172| 
    2885 00000904 052821a1  ||         ADD     .S1     1,A10,A10         ; |172| 
