TMS320C6x Assembler PC v7.4.2 Thu Mar 19 12:43:01 2015

Tools Copyright (c) 1996-2012 Texas Instruments Incorporated
package/lib/Regression/regress_d_c/./../packages/ti/vlib/src/VLIB_kalmanFilter_4x6_Predict/VLIB_kalmanFilter_4x6_Predict_d.se66 PAGE    1

       1                    ;******************************************************************************
       2                    ;* TMS320C6x C/C++ Codegen                                          PC v7.4.2 *
       3                    ;* Date/Time created: Thu Mar 19 12:43:00 2015                                *
       4                    ;******************************************************************************
       5                            .compiler_opts --abi=eabi --c64p_l1d_workaround=off --endian=little --hll_source=on --long_pre
       6                    
       7                    ;******************************************************************************
       8                    ;* GLOBAL FILE PARAMETERS                                                     *
       9                    ;*                                                                            *
      10                    ;*   Architecture      : TMS320C66xx                                          *
      11                    ;*   Optimization      : Enabled at level 3                                   *
      12                    ;*   Optimizing for    : Speed                                                *
      13                    ;*                       Based on options: -o3, no -ms                        *
      14                    ;*   Endian            : Little                                               *
      15                    ;*   Interrupt Thrshld : 10000                                                *
      16                    ;*   Data Access Model : Far                                                  *
      17                    ;*   Pipelining        : Enabled                                              *
      18                    ;*   Speculate Loads   : Enabled with threshold = 0                           *
      19                    ;*   Memory Aliases    : Presume are aliases (pessimistic)                    *
      20                    ;*   Debug Info        : DWARF Debug w/Optimization                           *
      21                    ;*                                                                            *
      22                    ;******************************************************************************
      23                    
      24                            .asg    A15, FP
      25                            .asg    B14, DP
      26                            .asg    B15, SP
      27                            .global $bss
      28                    
      29                    
      30                    $C$DW$CU        .dwtag  DW_TAG_compile_unit
      31                            .dwattr $C$DW$CU, DW_AT_name("./../packages/ti/vlib/src/VLIB_kalmanFilter_4x6_Predict/VLIB_kal
      32                            .dwattr $C$DW$CU, DW_AT_producer("TI TMS320C6x C/C++ Codegen PC v7.4.2 Copyright (c) 1996-2012
      33                            .dwattr $C$DW$CU, DW_AT_TI_version(0x01)
      34                            .dwattr $C$DW$CU, DW_AT_comp_dir("c:\nightlybuilds\vlib\ti\vlib\vlib\examples")
      35                    
      36                    $C$DW$1 .dwtag  DW_TAG_subprogram, DW_AT_name("_itoll")
      37                            .dwattr $C$DW$1, DW_AT_TI_symbol_name("_itoll")
      38                            .dwattr $C$DW$1, DW_AT_type(*$C$DW$T$14)
      39                            .dwattr $C$DW$1, DW_AT_declaration
      40                            .dwattr $C$DW$1, DW_AT_external
      41                            .dwattr $C$DW$1, DW_AT_decl_file("C:/VLIB_Tools/CCSV5_4_0/ccsv5/tools/compiler/C6000/include/c
      42                            .dwattr $C$DW$1, DW_AT_decl_line(0xdf)
      43                            .dwattr $C$DW$1, DW_AT_decl_column(0x0b)
      44                    $C$DW$2 .dwtag  DW_TAG_formal_parameter
      45                            .dwattr $C$DW$2, DW_AT_type(*$C$DW$T$11)
      46                    $C$DW$3 .dwtag  DW_TAG_formal_parameter
      47                            .dwattr $C$DW$3, DW_AT_type(*$C$DW$T$11)
      48                            .dwendtag $C$DW$1
      49                    
      50                    
      51                    $C$DW$4 .dwtag  DW_TAG_subprogram, DW_AT_name("printf")
      52                            .dwattr $C$DW$4, DW_AT_TI_symbol_name("printf")
      53                            .dwattr $C$DW$4, DW_AT_type(*$C$DW$T$10)
      54                            .dwattr $C$DW$4, DW_AT_declaration
      55                            .dwattr $C$DW$4, DW_AT_external
TMS320C6x Assembler PC v7.4.2 Thu Mar 19 12:43:01 2015

Tools Copyright (c) 1996-2012 Texas Instruments Incorporated
package/lib/Regression/regress_d_c/./../packages/ti/vlib/src/VLIB_kalmanFilter_4x6_Predict/VLIB_kalmanFilter_4x6_Predict_d.se66 PAGE    2

      56                            .dwattr $C$DW$4, DW_AT_decl_file("C:/VLIB_Tools/CCSV5_4_0/ccsv5/tools/compiler/C6000/include/s
      57                            .dwattr $C$DW$4, DW_AT_decl_line(0xb8)
      58                            .dwattr $C$DW$4, DW_AT_decl_column(0x19)
      59                    $C$DW$5 .dwtag  DW_TAG_formal_parameter
      60                            .dwattr $C$DW$5, DW_AT_type(*$C$DW$T$128)
      61                    $C$DW$6 .dwtag  DW_TAG_unspecified_parameters
      62                            .dwendtag $C$DW$4
      63                    
      64                    
      65                    $C$DW$7 .dwtag  DW_TAG_subprogram, DW_AT_name("sprintf")
      66                            .dwattr $C$DW$7, DW_AT_TI_symbol_name("sprintf")
      67                            .dwattr $C$DW$7, DW_AT_type(*$C$DW$T$10)
      68                            .dwattr $C$DW$7, DW_AT_declaration
      69                            .dwattr $C$DW$7, DW_AT_external
      70                            .dwattr $C$DW$7, DW_AT_decl_file("C:/VLIB_Tools/CCSV5_4_0/ccsv5/tools/compiler/C6000/include/s
      71                            .dwattr $C$DW$7, DW_AT_decl_line(0xbc)
      72                            .dwattr $C$DW$7, DW_AT_decl_column(0x19)
      73                    $C$DW$8 .dwtag  DW_TAG_formal_parameter
      74                            .dwattr $C$DW$8, DW_AT_type(*$C$DW$T$82)
      75                    $C$DW$9 .dwtag  DW_TAG_formal_parameter
      76                            .dwattr $C$DW$9, DW_AT_type(*$C$DW$T$128)
      77                    $C$DW$10        .dwtag  DW_TAG_unspecified_parameters
      78                            .dwendtag $C$DW$7
      79                    
      80                    
      81                    $C$DW$11        .dwtag  DW_TAG_subprogram, DW_AT_name("memset")
      82                            .dwattr $C$DW$11, DW_AT_TI_symbol_name("memset")
      83                            .dwattr $C$DW$11, DW_AT_type(*$C$DW$T$3)
      84                            .dwattr $C$DW$11, DW_AT_declaration
      85                            .dwattr $C$DW$11, DW_AT_external
      86                            .dwattr $C$DW$11, DW_AT_decl_file("C:/VLIB_Tools/CCSV5_4_0/ccsv5/tools/compiler/C6000/include/
      87                            .dwattr $C$DW$11, DW_AT_decl_line(0x5b)
      88                            .dwattr $C$DW$11, DW_AT_decl_column(0x16)
      89                    $C$DW$12        .dwtag  DW_TAG_formal_parameter
      90                            .dwattr $C$DW$12, DW_AT_type(*$C$DW$T$3)
      91                    $C$DW$13        .dwtag  DW_TAG_formal_parameter
      92                            .dwattr $C$DW$13, DW_AT_type(*$C$DW$T$10)
      93                    $C$DW$14        .dwtag  DW_TAG_formal_parameter
      94                            .dwattr $C$DW$14, DW_AT_type(*$C$DW$T$75)
      95                            .dwendtag $C$DW$11
      96                    
      97                    
      98                    $C$DW$15        .dwtag  DW_TAG_subprogram, DW_AT_name("free")
      99                            .dwattr $C$DW$15, DW_AT_TI_symbol_name("free")
     100                            .dwattr $C$DW$15, DW_AT_declaration
     101                            .dwattr $C$DW$15, DW_AT_external
     102                            .dwattr $C$DW$15, DW_AT_decl_file("C:/VLIB_Tools/CCSV5_4_0/ccsv5/tools/compiler/C6000/include/
     103                            .dwattr $C$DW$15, DW_AT_decl_line(0x86)
     104                            .dwattr $C$DW$15, DW_AT_decl_column(0x19)
     105                    $C$DW$16        .dwtag  DW_TAG_formal_parameter
     106                            .dwattr $C$DW$16, DW_AT_type(*$C$DW$T$3)
     107                            .dwendtag $C$DW$15
     108                    
     109                    
     110                    $C$DW$17        .dwtag  DW_TAG_subprogram, DW_AT_name("memalign")
TMS320C6x Assembler PC v7.4.2 Thu Mar 19 12:43:01 2015

Tools Copyright (c) 1996-2012 Texas Instruments Incorporated
package/lib/Regression/regress_d_c/./../packages/ti/vlib/src/VLIB_kalmanFilter_4x6_Predict/VLIB_kalmanFilter_4x6_Predict_d.se66 PAGE    3

     111                            .dwattr $C$DW$17, DW_AT_TI_symbol_name("memalign")
     112                            .dwattr $C$DW$17, DW_AT_type(*$C$DW$T$3)
     113                            .dwattr $C$DW$17, DW_AT_declaration
     114                            .dwattr $C$DW$17, DW_AT_external
     115                            .dwattr $C$DW$17, DW_AT_decl_file("C:/VLIB_Tools/CCSV5_4_0/ccsv5/tools/compiler/C6000/include/
     116                            .dwattr $C$DW$17, DW_AT_decl_line(0x87)
     117                            .dwattr $C$DW$17, DW_AT_decl_column(0x19)
     118                    $C$DW$18        .dwtag  DW_TAG_formal_parameter
     119                            .dwattr $C$DW$18, DW_AT_type(*$C$DW$T$75)
     120                    $C$DW$19        .dwtag  DW_TAG_formal_parameter
     121                            .dwattr $C$DW$19, DW_AT_type(*$C$DW$T$75)
     122                            .dwendtag $C$DW$17
     123                    
     124                    
     125                    $C$DW$20        .dwtag  DW_TAG_subprogram, DW_AT_name("VLIB_cache_inval")
     126                            .dwattr $C$DW$20, DW_AT_TI_symbol_name("VLIB_cache_inval")
     127                            .dwattr $C$DW$20, DW_AT_type(*$C$DW$T$10)
     128                            .dwattr $C$DW$20, DW_AT_declaration
     129                            .dwattr $C$DW$20, DW_AT_external
     130                            .dwattr $C$DW$20, DW_AT_decl_file(".\..\packages\ti\vlib\src\VLIB_kalmanFilter_4x6_Predict\..\
     131                            .dwattr $C$DW$20, DW_AT_decl_line(0x58)
     132                            .dwattr $C$DW$20, DW_AT_decl_column(0x05)
     133                    
     134                    $C$DW$21        .dwtag  DW_TAG_subprogram, DW_AT_name("VLIB_profile_init")
     135                            .dwattr $C$DW$21, DW_AT_TI_symbol_name("VLIB_profile_init")
     136                            .dwattr $C$DW$21, DW_AT_declaration
     137                            .dwattr $C$DW$21, DW_AT_external
     138                            .dwattr $C$DW$21, DW_AT_decl_file(".\..\packages\ti\vlib\src\VLIB_kalmanFilter_4x6_Predict\..\
     139                            .dwattr $C$DW$21, DW_AT_decl_line(0x7b)
     140                            .dwattr $C$DW$21, DW_AT_decl_column(0x06)
     141                    $C$DW$22        .dwtag  DW_TAG_formal_parameter
     142                            .dwattr $C$DW$22, DW_AT_type(*$C$DW$T$10)
     143                    $C$DW$23        .dwtag  DW_TAG_formal_parameter
     144                            .dwattr $C$DW$23, DW_AT_type(*$C$DW$T$82)
     145                            .dwendtag $C$DW$21
     146                    
     147                    
     148                    $C$DW$24        .dwtag  DW_TAG_subprogram, DW_AT_name("VLIB_formula_add_test")
     149                            .dwattr $C$DW$24, DW_AT_TI_symbol_name("VLIB_formula_add_test")
     150                            .dwattr $C$DW$24, DW_AT_declaration
     151                            .dwattr $C$DW$24, DW_AT_external
     152                            .dwattr $C$DW$24, DW_AT_decl_file(".\..\packages\ti\vlib\src\VLIB_kalmanFilter_4x6_Predict\..\
     153                            .dwattr $C$DW$24, DW_AT_decl_line(0x7d)
     154                            .dwattr $C$DW$24, DW_AT_decl_column(0x06)
     155                    $C$DW$25        .dwtag  DW_TAG_formal_parameter
     156                            .dwattr $C$DW$25, DW_AT_type(*$C$DW$T$10)
     157                    $C$DW$26        .dwtag  DW_TAG_formal_parameter
     158                            .dwattr $C$DW$26, DW_AT_type(*$C$DW$T$10)
     159                    $C$DW$27        .dwtag  DW_TAG_formal_parameter
     160                            .dwattr $C$DW$27, DW_AT_type(*$C$DW$T$10)
     161                    $C$DW$28        .dwtag  DW_TAG_formal_parameter
     162                            .dwattr $C$DW$28, DW_AT_type(*$C$DW$T$10)
     163                    $C$DW$29        .dwtag  DW_TAG_formal_parameter
     164                            .dwattr $C$DW$29, DW_AT_type(*$C$DW$T$82)
     165                    $C$DW$30        .dwtag  DW_TAG_formal_parameter
TMS320C6x Assembler PC v7.4.2 Thu Mar 19 12:43:01 2015

Tools Copyright (c) 1996-2012 Texas Instruments Incorporated
package/lib/Regression/regress_d_c/./../packages/ti/vlib/src/VLIB_kalmanFilter_4x6_Predict/VLIB_kalmanFilter_4x6_Predict_d.se66 PAGE    4

     166                            .dwattr $C$DW$30, DW_AT_type(*$C$DW$T$10)
     167                            .dwendtag $C$DW$24
     168                    
     169                    
     170                    $C$DW$31        .dwtag  DW_TAG_subprogram, DW_AT_name("VLIB_skip_test")
     171                            .dwattr $C$DW$31, DW_AT_TI_symbol_name("VLIB_skip_test")
     172                            .dwattr $C$DW$31, DW_AT_declaration
     173                            .dwattr $C$DW$31, DW_AT_external
     174                            .dwattr $C$DW$31, DW_AT_decl_file(".\..\packages\ti\vlib\src\VLIB_kalmanFilter_4x6_Predict\..\
     175                            .dwattr $C$DW$31, DW_AT_decl_line(0x7e)
     176                            .dwattr $C$DW$31, DW_AT_decl_column(0x06)
     177                    $C$DW$32        .dwtag  DW_TAG_formal_parameter
     178                            .dwattr $C$DW$32, DW_AT_type(*$C$DW$T$82)
     179                            .dwendtag $C$DW$31
     180                    
     181                    
     182                    $C$DW$33        .dwtag  DW_TAG_subprogram, DW_AT_name("VLIB_profile_cycle_report")
     183                            .dwattr $C$DW$33, DW_AT_TI_symbol_name("VLIB_profile_cycle_report")
     184                            .dwattr $C$DW$33, DW_AT_declaration
     185                            .dwattr $C$DW$33, DW_AT_external
     186                            .dwattr $C$DW$33, DW_AT_decl_file(".\..\packages\ti\vlib\src\VLIB_kalmanFilter_4x6_Predict\..\
     187                            .dwattr $C$DW$33, DW_AT_decl_line(0x7f)
     188                            .dwattr $C$DW$33, DW_AT_decl_column(0x06)
     189                    $C$DW$34        .dwtag  DW_TAG_formal_parameter
     190                            .dwattr $C$DW$34, DW_AT_type(*$C$DW$T$10)
     191                    $C$DW$35        .dwtag  DW_TAG_formal_parameter
     192                            .dwattr $C$DW$35, DW_AT_type(*$C$DW$T$82)
     193                    $C$DW$36        .dwtag  DW_TAG_formal_parameter
     194                            .dwattr $C$DW$36, DW_AT_type(*$C$DW$T$82)
     195                            .dwendtag $C$DW$33
     196                    
     197                    
     198                    $C$DW$37        .dwtag  DW_TAG_subprogram, DW_AT_name("initStack")
     199                            .dwattr $C$DW$37, DW_AT_TI_symbol_name("initStack")
     200                            .dwattr $C$DW$37, DW_AT_declaration
     201                            .dwattr $C$DW$37, DW_AT_external
     202                            .dwattr $C$DW$37, DW_AT_decl_file(".\..\packages\ti\vlib\src\VLIB_kalmanFilter_4x6_Predict\..\
     203                            .dwattr $C$DW$37, DW_AT_decl_line(0x80)
     204                            .dwattr $C$DW$37, DW_AT_decl_column(0x06)
     205                    $C$DW$38        .dwtag  DW_TAG_formal_parameter
     206                            .dwattr $C$DW$38, DW_AT_type(*$C$DW$T$91)
     207                            .dwendtag $C$DW$37
     208                    
     209                    
     210                    $C$DW$39        .dwtag  DW_TAG_subprogram, DW_AT_name("setStackDepth")
     211                            .dwattr $C$DW$39, DW_AT_TI_symbol_name("setStackDepth")
     212                            .dwattr $C$DW$39, DW_AT_declaration
     213                            .dwattr $C$DW$39, DW_AT_external
     214                            .dwattr $C$DW$39, DW_AT_decl_file(".\..\packages\ti\vlib\src\VLIB_kalmanFilter_4x6_Predict\..\
     215                            .dwattr $C$DW$39, DW_AT_decl_line(0x81)
     216                            .dwattr $C$DW$39, DW_AT_decl_column(0x06)
     217                    
     218                    $C$DW$40        .dwtag  DW_TAG_subprogram, DW_AT_name("getSP")
     219                            .dwattr $C$DW$40, DW_AT_TI_symbol_name("getSP")
     220                            .dwattr $C$DW$40, DW_AT_type(*$C$DW$T$91)
TMS320C6x Assembler PC v7.4.2 Thu Mar 19 12:43:01 2015

Tools Copyright (c) 1996-2012 Texas Instruments Incorporated
package/lib/Regression/regress_d_c/./../packages/ti/vlib/src/VLIB_kalmanFilter_4x6_Predict/VLIB_kalmanFilter_4x6_Predict_d.se66 PAGE    5

     221                            .dwattr $C$DW$40, DW_AT_declaration
     222                            .dwattr $C$DW$40, DW_AT_external
     223                            .dwattr $C$DW$40, DW_AT_decl_file(".\..\packages\ti\vlib\src\VLIB_kalmanFilter_4x6_Predict\..\
     224                            .dwattr $C$DW$40, DW_AT_decl_line(0x82)
     225                            .dwattr $C$DW$40, DW_AT_decl_column(0x0a)
     226                    
     227                    $C$DW$41        .dwtag  DW_TAG_subprogram, DW_AT_name("VLIB_stack_memory")
     228                            .dwattr $C$DW$41, DW_AT_TI_symbol_name("VLIB_stack_memory")
     229                            .dwattr $C$DW$41, DW_AT_declaration
     230                            .dwattr $C$DW$41, DW_AT_external
     231                            .dwattr $C$DW$41, DW_AT_decl_file(".\..\packages\ti\vlib\src\VLIB_kalmanFilter_4x6_Predict\..\
     232                            .dwattr $C$DW$41, DW_AT_decl_line(0x83)
     233                            .dwattr $C$DW$41, DW_AT_decl_column(0x06)
     234                    
     235                    $C$DW$42        .dwtag  DW_TAG_subprogram, DW_AT_name("VLIB_compare_mem")
     236                            .dwattr $C$DW$42, DW_AT_TI_symbol_name("VLIB_compare_mem")
     237                            .dwattr $C$DW$42, DW_AT_type(*$C$DW$T$31)
     238                            .dwattr $C$DW$42, DW_AT_declaration
     239                            .dwattr $C$DW$42, DW_AT_external
     240                            .dwattr $C$DW$42, DW_AT_decl_file(".\..\packages\ti\vlib\src\VLIB_kalmanFilter_4x6_Predict\../
     241                            .dwattr $C$DW$42, DW_AT_decl_line(0x6f)
     242                            .dwattr $C$DW$42, DW_AT_decl_column(0x11)
     243                    $C$DW$43        .dwtag  DW_TAG_formal_parameter
     244                            .dwattr $C$DW$43, DW_AT_type(*$C$DW$T$74)
     245                    $C$DW$44        .dwtag  DW_TAG_formal_parameter
     246                            .dwattr $C$DW$44, DW_AT_type(*$C$DW$T$74)
     247                    $C$DW$45        .dwtag  DW_TAG_formal_parameter
     248                            .dwattr $C$DW$45, DW_AT_type(*$C$DW$T$31)
     249                            .dwendtag $C$DW$42
     250                    
     251                    
     252                    $C$DW$46        .dwtag  DW_TAG_subprogram, DW_AT_name("VLIB_fillBuffer")
     253                            .dwattr $C$DW$46, DW_AT_TI_symbol_name("VLIB_fillBuffer")
     254                            .dwattr $C$DW$46, DW_AT_declaration
     255                            .dwattr $C$DW$46, DW_AT_external
     256                            .dwattr $C$DW$46, DW_AT_decl_file(".\..\packages\ti\vlib\src\VLIB_kalmanFilter_4x6_Predict\../
     257                            .dwattr $C$DW$46, DW_AT_decl_line(0x77)
     258                            .dwattr $C$DW$46, DW_AT_decl_column(0x06)
     259                    $C$DW$47        .dwtag  DW_TAG_formal_parameter
     260                            .dwattr $C$DW$47, DW_AT_type(*$C$DW$T$19)
     261                    $C$DW$48        .dwtag  DW_TAG_formal_parameter
     262                            .dwattr $C$DW$48, DW_AT_type(*$C$DW$T$19)
     263                    $C$DW$49        .dwtag  DW_TAG_formal_parameter
     264                            .dwattr $C$DW$49, DW_AT_type(*$C$DW$T$3)
     265                    $C$DW$50        .dwtag  DW_TAG_formal_parameter
     266                            .dwattr $C$DW$50, DW_AT_type(*$C$DW$T$3)
     267                    $C$DW$51        .dwtag  DW_TAG_formal_parameter
     268                            .dwattr $C$DW$51, DW_AT_type(*$C$DW$T$24)
     269                    $C$DW$52        .dwtag  DW_TAG_formal_parameter
     270                            .dwattr $C$DW$52, DW_AT_type(*$C$DW$T$24)
     271                    $C$DW$53        .dwtag  DW_TAG_formal_parameter
     272                            .dwattr $C$DW$53, DW_AT_type(*$C$DW$T$24)
     273                    $C$DW$54        .dwtag  DW_TAG_formal_parameter
     274                            .dwattr $C$DW$54, DW_AT_type(*$C$DW$T$19)
     275                    $C$DW$55        .dwtag  DW_TAG_formal_parameter
TMS320C6x Assembler PC v7.4.2 Thu Mar 19 12:43:01 2015

Tools Copyright (c) 1996-2012 Texas Instruments Incorporated
package/lib/Regression/regress_d_c/./../packages/ti/vlib/src/VLIB_kalmanFilter_4x6_Predict/VLIB_kalmanFilter_4x6_Predict_d.se66 PAGE    6

     276                            .dwattr $C$DW$55, DW_AT_type(*$C$DW$T$82)
     277                            .dwendtag $C$DW$46
     278                    
     279                    
     280                    $C$DW$56        .dwtag  DW_TAG_subprogram, DW_AT_name("VLIB_memalign")
     281                            .dwattr $C$DW$56, DW_AT_TI_symbol_name("VLIB_memalign")
     282                            .dwattr $C$DW$56, DW_AT_type(*$C$DW$T$3)
     283                            .dwattr $C$DW$56, DW_AT_declaration
     284                            .dwattr $C$DW$56, DW_AT_external
     285                            .dwattr $C$DW$56, DW_AT_decl_file(".\..\packages\ti\vlib\src\VLIB_kalmanFilter_4x6_Predict\../
     286                            .dwattr $C$DW$56, DW_AT_decl_line(0xae)
     287                            .dwattr $C$DW$56, DW_AT_decl_column(0x07)
     288                    $C$DW$57        .dwtag  DW_TAG_formal_parameter
     289                            .dwattr $C$DW$57, DW_AT_type(*$C$DW$T$75)
     290                    $C$DW$58        .dwtag  DW_TAG_formal_parameter
     291                            .dwattr $C$DW$58, DW_AT_type(*$C$DW$T$75)
     292                            .dwendtag $C$DW$56
     293                    
     294                    
     295                    $C$DW$59        .dwtag  DW_TAG_subprogram, DW_AT_name("VLIB_align_free")
     296                            .dwattr $C$DW$59, DW_AT_TI_symbol_name("VLIB_align_free")
     297                            .dwattr $C$DW$59, DW_AT_declaration
     298                            .dwattr $C$DW$59, DW_AT_external
     299                            .dwattr $C$DW$59, DW_AT_decl_file(".\..\packages\ti\vlib\src\VLIB_kalmanFilter_4x6_Predict\../
     300                            .dwattr $C$DW$59, DW_AT_decl_line(0xb3)
     301                            .dwattr $C$DW$59, DW_AT_decl_column(0x07)
     302                    $C$DW$60        .dwtag  DW_TAG_formal_parameter
     303                            .dwattr $C$DW$60, DW_AT_type(*$C$DW$T$3)
     304                            .dwendtag $C$DW$59
     305                    
     306                    
     307                    $C$DW$61        .dwtag  DW_TAG_subprogram, DW_AT_name("VLIB_kalmanFilter_4x6_Correct_cn")
     308                            .dwattr $C$DW$61, DW_AT_TI_symbol_name("VLIB_kalmanFilter_4x6_Correct_cn")
     309                            .dwattr $C$DW$61, DW_AT_declaration
     310                            .dwattr $C$DW$61, DW_AT_external
     311                            .dwattr $C$DW$61, DW_AT_decl_file(".\..\packages\ti\vlib\src\VLIB_kalmanFilter_4x6_Predict\../
     312                            .dwattr $C$DW$61, DW_AT_decl_line(0x22)
     313                            .dwattr $C$DW$61, DW_AT_decl_column(0x06)
     314                    $C$DW$62        .dwtag  DW_TAG_formal_parameter
     315                            .dwattr $C$DW$62, DW_AT_type(*$C$DW$T$100)
     316                    $C$DW$63        .dwtag  DW_TAG_formal_parameter
     317                            .dwattr $C$DW$63, DW_AT_type(*$C$DW$T$101)
     318                    $C$DW$64        .dwtag  DW_TAG_formal_parameter
     319                            .dwattr $C$DW$64, DW_AT_type(*$C$DW$T$101)
     320                            .dwendtag $C$DW$61
     321                    
     322                    
     323                    $C$DW$65        .dwtag  DW_TAG_subprogram, DW_AT_name("VLIB_kalmanFilter_4x6_Predict")
     324                            .dwattr $C$DW$65, DW_AT_TI_symbol_name("VLIB_kalmanFilter_4x6_Predict")
     325                            .dwattr $C$DW$65, DW_AT_declaration
     326                            .dwattr $C$DW$65, DW_AT_external
     327                            .dwattr $C$DW$65, DW_AT_decl_file(".\..\packages\ti\vlib\src\VLIB_kalmanFilter_4x6_Predict\c66
     328                            .dwattr $C$DW$65, DW_AT_decl_line(0x7e)
     329                            .dwattr $C$DW$65, DW_AT_decl_column(0x06)
     330                    $C$DW$66        .dwtag  DW_TAG_formal_parameter
TMS320C6x Assembler PC v7.4.2 Thu Mar 19 12:43:01 2015

Tools Copyright (c) 1996-2012 Texas Instruments Incorporated
package/lib/Regression/regress_d_c/./../packages/ti/vlib/src/VLIB_kalmanFilter_4x6_Predict/VLIB_kalmanFilter_4x6_Predict_d.se66 PAGE    7

     331                            .dwattr $C$DW$66, DW_AT_type(*$C$DW$T$100)
     332                            .dwendtag $C$DW$65
     333                    
     334                    
     335                    $C$DW$67        .dwtag  DW_TAG_subprogram, DW_AT_name("VLIB_kalmanFilter_4x6_Predict_cn")
     336                            .dwattr $C$DW$67, DW_AT_TI_symbol_name("VLIB_kalmanFilter_4x6_Predict_cn")
     337                            .dwattr $C$DW$67, DW_AT_declaration
     338                            .dwattr $C$DW$67, DW_AT_external
     339                            .dwattr $C$DW$67, DW_AT_decl_file(".\..\packages\ti\vlib\src\VLIB_kalmanFilter_4x6_Predict\VLI
     340                            .dwattr $C$DW$67, DW_AT_decl_line(0x22)
     341                            .dwattr $C$DW$67, DW_AT_decl_column(0x06)
     342                    $C$DW$68        .dwtag  DW_TAG_formal_parameter
     343                            .dwattr $C$DW$68, DW_AT_type(*$C$DW$T$100)
     344                            .dwendtag $C$DW$67
     345                    
     346                    
     347                    $C$DW$69        .dwtag  DW_TAG_subprogram, DW_AT_name("kalmanFilter_4x6_Predict_getTestParams")
     348                            .dwattr $C$DW$69, DW_AT_TI_symbol_name("kalmanFilter_4x6_Predict_getTestParams")
     349                            .dwattr $C$DW$69, DW_AT_declaration
     350                            .dwattr $C$DW$69, DW_AT_external
     351                            .dwattr $C$DW$69, DW_AT_decl_file(".\..\packages\ti\vlib\src\VLIB_kalmanFilter_4x6_Predict\VLI
     352                            .dwattr $C$DW$69, DW_AT_decl_line(0x2a)
     353                            .dwattr $C$DW$69, DW_AT_decl_column(0x06)
     354                    $C$DW$70        .dwtag  DW_TAG_formal_parameter
     355                            .dwattr $C$DW$70, DW_AT_type(*$C$DW$T$67)
     356                    $C$DW$71        .dwtag  DW_TAG_formal_parameter
     357                            .dwattr $C$DW$71, DW_AT_type(*$C$DW$T$106)
     358                            .dwendtag $C$DW$69
     359                    
     360                    $C$DW$72        .dwtag  DW_TAG_variable, DW_AT_name("test_cases")
     361                            .dwattr $C$DW$72, DW_AT_TI_symbol_name("test_cases")
     362                            .dwattr $C$DW$72, DW_AT_type(*$C$DW$T$31)
     363                            .dwattr $C$DW$72, DW_AT_declaration
     364                            .dwattr $C$DW$72, DW_AT_external
     365                            .dwattr $C$DW$72, DW_AT_decl_file(".\..\packages\ti\vlib\src\VLIB_kalmanFilter_4x6_Predict\../
     366                            .dwattr $C$DW$72, DW_AT_decl_line(0x60)
     367                            .dwattr $C$DW$72, DW_AT_decl_column(0x13)
     368                    $C$DW$73        .dwtag  DW_TAG_variable, DW_AT_name("act_kernel")
     369                            .dwattr $C$DW$73, DW_AT_TI_symbol_name("act_kernel")
     370                            .dwattr $C$DW$73, DW_AT_type(*$C$DW$T$10)
     371                            .dwattr $C$DW$73, DW_AT_declaration
     372                            .dwattr $C$DW$73, DW_AT_external
     373                            .dwattr $C$DW$73, DW_AT_decl_file(".\..\packages\ti\vlib\src\VLIB_kalmanFilter_4x6_Predict\../
     374                            .dwattr $C$DW$73, DW_AT_decl_line(0x62)
     375                            .dwattr $C$DW$73, DW_AT_decl_column(0x13)
     376                    $C$DW$74        .dwtag  DW_TAG_variable, DW_AT_name("desc")
     377                            .dwattr $C$DW$74, DW_AT_TI_symbol_name("desc")
     378                            .dwattr $C$DW$74, DW_AT_type(*$C$DW$T$181)
     379                            .dwattr $C$DW$74, DW_AT_declaration
     380                            .dwattr $C$DW$74, DW_AT_external
     381                            .dwattr $C$DW$74, DW_AT_decl_file(".\..\packages\ti\vlib\src\VLIB_kalmanFilter_4x6_Predict\../
     382                            .dwattr $C$DW$74, DW_AT_decl_line(0x63)
     383                            .dwattr $C$DW$74, DW_AT_decl_column(0x13)
     384                    $C$DW$75        .dwtag  DW_TAG_variable, DW_AT_name("testPatternString")
     385                            .dwattr $C$DW$75, DW_AT_TI_symbol_name("testPatternString")
TMS320C6x Assembler PC v7.4.2 Thu Mar 19 12:43:01 2015

Tools Copyright (c) 1996-2012 Texas Instruments Incorporated
package/lib/Regression/regress_d_c/./../packages/ti/vlib/src/VLIB_kalmanFilter_4x6_Predict/VLIB_kalmanFilter_4x6_Predict_d.se66 PAGE    8

     386                            .dwattr $C$DW$75, DW_AT_type(*$C$DW$T$181)
     387                            .dwattr $C$DW$75, DW_AT_declaration
     388                            .dwattr $C$DW$75, DW_AT_external
     389                            .dwattr $C$DW$75, DW_AT_decl_file(".\..\packages\ti\vlib\src\VLIB_kalmanFilter_4x6_Predict\../
     390                            .dwattr $C$DW$75, DW_AT_decl_line(0x64)
     391                            .dwattr $C$DW$75, DW_AT_decl_column(0x13)
     392                    $C$DW$76        .dwtag  DW_TAG_variable, DW_AT_name("est_test")
     393                            .dwattr $C$DW$76, DW_AT_TI_symbol_name("est_test")
     394                            .dwattr $C$DW$76, DW_AT_type(*$C$DW$T$10)
     395                            .dwattr $C$DW$76, DW_AT_declaration
     396                            .dwattr $C$DW$76, DW_AT_external
     397                            .dwattr $C$DW$76, DW_AT_decl_file(".\..\packages\ti\vlib\src\VLIB_kalmanFilter_4x6_Predict\..\
     398                            .dwattr $C$DW$76, DW_AT_decl_line(0x75)
     399                            .dwattr $C$DW$76, DW_AT_decl_column(0x14)
     400                    $C$DW$77        .dwtag  DW_TAG_variable, DW_AT_name("beg_count")
     401                            .dwattr $C$DW$77, DW_AT_TI_symbol_name("beg_count")
     402                            .dwattr $C$DW$77, DW_AT_type(*$C$DW$T$171)
     403                            .dwattr $C$DW$77, DW_AT_declaration
     404                            .dwattr $C$DW$77, DW_AT_external
     405                            .dwattr $C$DW$77, DW_AT_decl_file(".\..\packages\ti\vlib\src\VLIB_kalmanFilter_4x6_Predict\..\
     406                            .dwattr $C$DW$77, DW_AT_decl_line(0x76)
     407                            .dwattr $C$DW$77, DW_AT_decl_column(0x14)
     408                    $C$DW$78        .dwtag  DW_TAG_variable, DW_AT_name("end_count")
     409                            .dwattr $C$DW$78, DW_AT_TI_symbol_name("end_count")
     410                            .dwattr $C$DW$78, DW_AT_type(*$C$DW$T$171)
     411                            .dwattr $C$DW$78, DW_AT_declaration
     412                            .dwattr $C$DW$78, DW_AT_external
     413                            .dwattr $C$DW$78, DW_AT_decl_file(".\..\packages\ti\vlib\src\VLIB_kalmanFilter_4x6_Predict\..\
     414                            .dwattr $C$DW$78, DW_AT_decl_line(0x77)
     415                            .dwattr $C$DW$78, DW_AT_decl_column(0x14)
     416                    $C$DW$79        .dwtag  DW_TAG_variable, DW_AT_name("overhead")
     417                            .dwattr $C$DW$79, DW_AT_TI_symbol_name("overhead")
     418                            .dwattr $C$DW$79, DW_AT_type(*$C$DW$T$171)
     419                            .dwattr $C$DW$79, DW_AT_declaration
     420                            .dwattr $C$DW$79, DW_AT_external
     421                            .dwattr $C$DW$79, DW_AT_decl_file(".\..\packages\ti\vlib\src\VLIB_kalmanFilter_4x6_Predict\..\
     422                            .dwattr $C$DW$79, DW_AT_decl_line(0x78)
     423                            .dwattr $C$DW$79, DW_AT_decl_column(0x14)
     424                    $C$DW$80        .dwtag  DW_TAG_variable, DW_AT_name("cycles")
     425                            .dwattr $C$DW$80, DW_AT_TI_symbol_name("cycles")
     426                            .dwattr $C$DW$80, DW_AT_type(*$C$DW$T$172)
     427                            .dwattr $C$DW$80, DW_AT_declaration
     428                            .dwattr $C$DW$80, DW_AT_external
     429                            .dwattr $C$DW$80, DW_AT_decl_file(".\..\packages\ti\vlib\src\VLIB_kalmanFilter_4x6_Predict\..\
     430                            .dwattr $C$DW$80, DW_AT_decl_line(0x79)
     431                            .dwattr $C$DW$80, DW_AT_decl_column(0x14)
     432                    ;       C:\VLIB_Tools\CCSV5_4_0\ccsv5\tools\compiler\C6000\bin\opt6x.exe C:\\Users\\gtbldadm\\AppData\
     433 00000000                   .sect   ".text"
     434                            .clink
     435                            .global VLIB_kalmanFilter_4x6_Predict_d
     436                    
     437                    $C$DW$81        .dwtag  DW_TAG_subprogram, DW_AT_name("VLIB_kalmanFilter_4x6_Predict_d")
     438                            .dwattr $C$DW$81, DW_AT_low_pc(VLIB_kalmanFilter_4x6_Predict_d)
     439                            .dwattr $C$DW$81, DW_AT_high_pc(0x00)
     440                            .dwattr $C$DW$81, DW_AT_TI_symbol_name("VLIB_kalmanFilter_4x6_Predict_d")
TMS320C6x Assembler PC v7.4.2 Thu Mar 19 12:43:01 2015

Tools Copyright (c) 1996-2012 Texas Instruments Incorporated
package/lib/Regression/regress_d_c/./../packages/ti/vlib/src/VLIB_kalmanFilter_4x6_Predict/VLIB_kalmanFilter_4x6_Predict_d.se66 PAGE    9

     441                            .dwattr $C$DW$81, DW_AT_external
     442                            .dwattr $C$DW$81, DW_AT_TI_begin_file("./../packages/ti/vlib/src/VLIB_kalmanFilter_4x6_Predict
     443                            .dwattr $C$DW$81, DW_AT_TI_begin_line(0x28)
     444                            .dwattr $C$DW$81, DW_AT_TI_begin_column(0x06)
     445                            .dwattr $C$DW$81, DW_AT_decl_file("./../packages/ti/vlib/src/VLIB_kalmanFilter_4x6_Predict/VLI
     446                            .dwattr $C$DW$81, DW_AT_decl_line(0x28)
     447                            .dwattr $C$DW$81, DW_AT_decl_column(0x06)
     448                            .dwattr $C$DW$81, DW_AT_TI_max_frame_size(0x68)
     449                            .dwpsn  file "./../packages/ti/vlib/src/VLIB_kalmanFilter_4x6_Predict/VLIB_kalmanFilter_4x6_Pr
     450                    
     451                            .dwfde $C$DW$CIE, VLIB_kalmanFilter_4x6_Predict_d
     452                    $C$DW$82        .dwtag  DW_TAG_formal_parameter, DW_AT_name("LevelOfFeedback")
     453                            .dwattr $C$DW$82, DW_AT_TI_symbol_name("LevelOfFeedback")
     454                            .dwattr $C$DW$82, DW_AT_type(*$C$DW$T$19)
     455                            .dwattr $C$DW$82, DW_AT_location[DW_OP_reg4]
     456                    ;----------------------------------------------------------------------
     457                    ;  40 | void VLIB_kalmanFilter_4x6_Predict_d (uint8_t LevelOfFeedback)         
     458                    ;----------------------------------------------------------------------
     459                    
     460                    ;******************************************************************************
     461                    ;* FUNCTION NAME: VLIB_kalmanFilter_4x6_Predict_d                             *
     462                    ;*                                                                            *
     463                    ;*   Regs Modified     : A0,A1,A2,A3,A4,A5,A6,A7,A8,A9,A10,A11,A12,A13,A14,   *
     464                    ;*                           A15,B0,B1,B2,B3,B4,B5,B6,B7,B8,B9,B10,B11,B12,   *
     465                    ;*                           B13,SP,A16,A17,A18,A19,A20,A21,A22,A23,A24,A25,  *
     466                    ;*                           A26,A27,A28,A29,A30,A31,B16,B17,B18,B19,B20,B21, *
     467                    ;*                           B22,B23,B24,B25,B26,B27,B28,B29,B30,B31          *
     468                    ;*   Regs Used         : A0,A1,A2,A3,A4,A5,A6,A7,A8,A9,A10,A11,A12,A13,A14,   *
     469                    ;*                           A15,B0,B1,B2,B3,B4,B5,B6,B7,B8,B9,B10,B11,B12,   *
     470                    ;*                           B13,DP,SP,A16,A17,A18,A19,A20,A21,A22,A23,A24,   *
     471                    ;*                           A25,A26,A27,A28,A29,A30,A31,B16,B17,B18,B19,B20, *
     472                    ;*                           B21,B22,B23,B24,B25,B26,B27,B28,B29,B30,B31      *
     473                    ;*   Local Frame Size  : 16 Args + 28 Auto + 56 Save = 100 byte               *
     474                    ;******************************************************************************
     475                    
     476                    ;******************************************************************************
     477                    ;*                                                                            *
     478                    ;* Using -g (debug) with optimization (-o3) may disable key optimizations!    *
     479                    ;*                                                                            *
     480                    ;******************************************************************************
     481 00000000           VLIB_kalmanFilter_4x6_Predict_d:
     482                    ;** --------------------------------------------------------------------------*
     483                    ;          EXCLUSIVE CPU CYCLES: 15
     484                    ;** 47  -----------------------    kalmanFilter_4x6_Predict_getTestParams(&prm, &test_cases);
     485                    ;** 50  -----------------------    VLIB_profile_init(2, "VLIB_kalmanFilter_4x6_Predict");
     486                    ;** 53  -----------------------    if ( test_cases <= 0 ) goto g17;
     487                            .dwcfi  cfa_offset, 0
     488                    ;----------------------------------------------------------------------
     489                    ;  42 | int32_t    tpi;  /* test parameter index */                            
     490                    ;  45 | kalmanFilter_4x6_Predict_testParams_t   *prm;                          
     491                    ;----------------------------------------------------------------------
     492 00000000     25f7             STW     .D2T1   A11,*SP--(8)      ; |41| 
     493                            .dwcfi  cfa_offset, 8
     494                            .dwcfi  save_reg_to_mem, 11, 0
     495 00000002     2577             STW     .D2T1   A10,*SP--(8)      ; |41| 
TMS320C6x Assembler PC v7.4.2 Thu Mar 19 12:43:01 2015

Tools Copyright (c) 1996-2012 Texas Instruments Incorporated
package/lib/Regression/regress_d_c/./../packages/ti/vlib/src/VLIB_kalmanFilter_4x6_Predict/VLIB_kalmanFilter_4x6_Predict_d.se66 PAGE   10

     496                            .dwcfi  cfa_offset, 16
     497                            .dwcfi  save_reg_to_mem, 10, -8
     498 00000004     9677             STDW    .D2T2   B13:B12,*SP--     ; |41| 
     499                            .dwcfi  cfa_offset, 24
     500                            .dwcfi  save_reg_to_mem, 29, -12
     501                            .dwcfi  save_reg_to_mem, 28, -16
     502 00000006     9577             STDW    .D2T2   B11:B10,*SP--     ; |41| 
     503                            .dwcfi  cfa_offset, 32
     504                            .dwcfi  save_reg_to_mem, 27, -20
     505                            .dwcfi  save_reg_to_mem, 26, -24
     506 00000008     8777             STDW    .D2T1   A15:A14,*SP--     ; |41| 
     507                            .dwcfi  cfa_offset, 40
     508                            .dwcfi  save_reg_to_mem, 15, -28
     509                            .dwcfi  save_reg_to_mem, 14, -32
     510 0000000a     8677             STDW    .D2T1   A13:A12,*SP--     ; |41| 
     511                            .dwcfi  cfa_offset, 48
     512                            .dwcfi  save_reg_to_mem, 13, -36
     513                            .dwcfi  save_reg_to_mem, 12, -40
     514 0000000c 01bdd4f6             STW     .D2T2   B3,*SP--(56)      ; |41| 
     515                            .dwcfi  cfa_offset, 104
     516                            .dwcfi  save_reg_to_mem, 19, 0
     517                    $C$DW$83        .dwtag  DW_TAG_variable, DW_AT_name("$O$C3")
     518                            .dwattr $C$DW$83, DW_AT_TI_symbol_name("$O$C3")
     519                            .dwattr $C$DW$83, DW_AT_type(*$C$DW$T$10)
     520                            .dwattr $C$DW$83, DW_AT_location[DW_OP_reg3]
     521                    $C$DW$84        .dwtag  DW_TAG_variable, DW_AT_name("$O$C4")
     522                            .dwattr $C$DW$84, DW_AT_TI_symbol_name("$O$C4")
     523                            .dwattr $C$DW$84, DW_AT_type(*$C$DW$T$10)
     524                            .dwattr $C$DW$84, DW_AT_location[DW_OP_reg3]
     525                    $C$DW$85        .dwtag  DW_TAG_variable, DW_AT_name("$O$C5")
     526                            .dwattr $C$DW$85, DW_AT_TI_symbol_name("$O$C5")
     527                            .dwattr $C$DW$85, DW_AT_type(*$C$DW$T$123)
     528                            .dwattr $C$DW$85, DW_AT_location[DW_OP_reg8]
     529                    $C$DW$86        .dwtag  DW_TAG_variable, DW_AT_name("$O$C6")
     530                            .dwattr $C$DW$86, DW_AT_TI_symbol_name("$O$C6")
     531                            .dwattr $C$DW$86, DW_AT_type(*$C$DW$T$123)
     532                            .dwattr $C$DW$86, DW_AT_location[DW_OP_reg3]
     533                    $C$DW$87        .dwtag  DW_TAG_variable, DW_AT_name("$O$C7")
     534                            .dwattr $C$DW$87, DW_AT_TI_symbol_name("$O$C7")
     535                            .dwattr $C$DW$87, DW_AT_type(*$C$DW$T$123)
     536                            .dwattr $C$DW$87, DW_AT_location[DW_OP_reg5]
     537                    $C$DW$88        .dwtag  DW_TAG_variable, DW_AT_name("$O$C8")
     538                            .dwattr $C$DW$88, DW_AT_TI_symbol_name("$O$C8")
     539                            .dwattr $C$DW$88, DW_AT_type(*$C$DW$T$123)
     540                            .dwattr $C$DW$88, DW_AT_location[DW_OP_reg21]
     541                    $C$DW$89        .dwtag  DW_TAG_variable, DW_AT_name("$O$C9")
     542                            .dwattr $C$DW$89, DW_AT_TI_symbol_name("$O$C9")
     543                            .dwattr $C$DW$89, DW_AT_type(*$C$DW$T$123)
     544                            .dwattr $C$DW$89, DW_AT_location[DW_OP_reg4]
     545                    $C$DW$90        .dwtag  DW_TAG_variable, DW_AT_name("$O$C10")
     546                            .dwattr $C$DW$90, DW_AT_TI_symbol_name("$O$C10")
     547                            .dwattr $C$DW$90, DW_AT_type(*$C$DW$T$123)
     548                            .dwattr $C$DW$90, DW_AT_location[DW_OP_reg6]
     549                    $C$DW$91        .dwtag  DW_TAG_variable, DW_AT_name("$O$C11")
     550                            .dwattr $C$DW$91, DW_AT_TI_symbol_name("$O$C11")
TMS320C6x Assembler PC v7.4.2 Thu Mar 19 12:43:01 2015

Tools Copyright (c) 1996-2012 Texas Instruments Incorporated
package/lib/Regression/regress_d_c/./../packages/ti/vlib/src/VLIB_kalmanFilter_4x6_Predict/VLIB_kalmanFilter_4x6_Predict_d.se66 PAGE   11

     551                            .dwattr $C$DW$91, DW_AT_type(*$C$DW$T$10)
     552                            .dwattr $C$DW$91, DW_AT_location[DW_OP_reg4]
     553                    $C$DW$92        .dwtag  DW_TAG_variable, DW_AT_name("$O$C12")
     554                            .dwattr $C$DW$92, DW_AT_TI_symbol_name("$O$C12")
     555                            .dwattr $C$DW$92, DW_AT_type(*$C$DW$T$10)
     556                            .dwattr $C$DW$92, DW_AT_location[DW_OP_reg5]
     557                    $C$DW$93        .dwtag  DW_TAG_variable, DW_AT_name("$O$C13")
     558                            .dwattr $C$DW$93, DW_AT_TI_symbol_name("$O$C13")
     559                            .dwattr $C$DW$93, DW_AT_type(*$C$DW$T$10)
     560                            .dwattr $C$DW$93, DW_AT_location[DW_OP_reg4]
     561                    $C$DW$94        .dwtag  DW_TAG_variable, DW_AT_name("$O$C14")
     562                            .dwattr $C$DW$94, DW_AT_TI_symbol_name("$O$C14")
     563                            .dwattr $C$DW$94, DW_AT_type(*$C$DW$T$9)
     564                            .dwattr $C$DW$94, DW_AT_location[DW_OP_reg3]
     565                    $C$DW$95        .dwtag  DW_TAG_variable, DW_AT_name("$O$U14")
     566                            .dwattr $C$DW$95, DW_AT_TI_symbol_name("$O$U14")
     567                            .dwattr $C$DW$95, DW_AT_type(*$C$DW$T$63)
     568                            .dwattr $C$DW$95, DW_AT_location[DW_OP_reg11]
     569                    $C$DW$96        .dwtag  DW_TAG_variable, DW_AT_name("$O$K22")
     570                            .dwattr $C$DW$96, DW_AT_TI_symbol_name("$O$K22")
     571                            .dwattr $C$DW$96, DW_AT_type(*$C$DW$T$11)
     572                            .dwattr $C$DW$96, DW_AT_location[DW_OP_reg28]
     573                    $C$DW$97        .dwtag  DW_TAG_variable, DW_AT_name("$O$K42")
     574                            .dwattr $C$DW$97, DW_AT_TI_symbol_name("$O$K42")
     575                            .dwattr $C$DW$97, DW_AT_type(*$C$DW$T$110)
     576                            .dwattr $C$DW$97, DW_AT_location[DW_OP_reg4]
     577                    $C$DW$98        .dwtag  DW_TAG_variable, DW_AT_name("$O$K44")
     578                            .dwattr $C$DW$98, DW_AT_TI_symbol_name("$O$K44")
     579                            .dwattr $C$DW$98, DW_AT_type(*$C$DW$T$110)
     580                            .dwattr $C$DW$98, DW_AT_location[DW_OP_reg12]
     581                    $C$DW$99        .dwtag  DW_TAG_variable, DW_AT_name("$O$K60")
     582                            .dwattr $C$DW$99, DW_AT_TI_symbol_name("$O$K60")
     583                            .dwattr $C$DW$99, DW_AT_type(*$C$DW$T$10)
     584                            .dwattr $C$DW$99, DW_AT_location[DW_OP_reg25]
     585                    $C$DW$100       .dwtag  DW_TAG_variable, DW_AT_name("$O$U62")
     586                            .dwattr $C$DW$100, DW_AT_TI_symbol_name("$O$U62")
     587                            .dwattr $C$DW$100, DW_AT_type(*$C$DW$T$123)
     588                            .dwattr $C$DW$100, DW_AT_location[DW_OP_reg24]
     589                    $C$DW$101       .dwtag  DW_TAG_variable, DW_AT_name("$O$U69")
     590                            .dwattr $C$DW$101, DW_AT_TI_symbol_name("$O$U69")
     591                            .dwattr $C$DW$101, DW_AT_type(*$C$DW$T$123)
     592                            .dwattr $C$DW$101, DW_AT_location[DW_OP_reg23]
     593                    $C$DW$102       .dwtag  DW_TAG_variable, DW_AT_name("$O$K73")
     594                            .dwattr $C$DW$102, DW_AT_TI_symbol_name("$O$K73")
     595                            .dwattr $C$DW$102, DW_AT_type(*$C$DW$T$10)
     596                            .dwattr $C$DW$102, DW_AT_location[DW_OP_reg22]
     597                    $C$DW$103       .dwtag  DW_TAG_variable, DW_AT_name("$O$K80")
     598                            .dwattr $C$DW$103, DW_AT_TI_symbol_name("$O$K80")
     599                            .dwattr $C$DW$103, DW_AT_type(*$C$DW$T$10)
     600                            .dwattr $C$DW$103, DW_AT_location[DW_OP_regx 0x25]
     601                    $C$DW$104       .dwtag  DW_TAG_variable, DW_AT_name("$O$K93")
     602                            .dwattr $C$DW$104, DW_AT_TI_symbol_name("$O$K93")
     603                            .dwattr $C$DW$104, DW_AT_type(*$C$DW$T$10)
     604                            .dwattr $C$DW$104, DW_AT_location[DW_OP_regx 0x35]
     605                    $C$DW$105       .dwtag  DW_TAG_variable, DW_AT_name("$O$K105")
TMS320C6x Assembler PC v7.4.2 Thu Mar 19 12:43:01 2015

Tools Copyright (c) 1996-2012 Texas Instruments Incorporated
package/lib/Regression/regress_d_c/./../packages/ti/vlib/src/VLIB_kalmanFilter_4x6_Predict/VLIB_kalmanFilter_4x6_Predict_d.se66 PAGE   12

     606                            .dwattr $C$DW$105, DW_AT_TI_symbol_name("$O$K105")
     607                            .dwattr $C$DW$105, DW_AT_type(*$C$DW$T$10)
     608                            .dwattr $C$DW$105, DW_AT_location[DW_OP_regx 0x28]
     609                    $C$DW$106       .dwtag  DW_TAG_variable, DW_AT_name("$O$K144")
     610                            .dwattr $C$DW$106, DW_AT_TI_symbol_name("$O$K144")
     611                            .dwattr $C$DW$106, DW_AT_type(*$C$DW$T$10)
     612                            .dwattr $C$DW$106, DW_AT_location[DW_OP_regx 0x27]
     613                    $C$DW$107       .dwtag  DW_TAG_variable, DW_AT_name("$O$K236")
     614                            .dwattr $C$DW$107, DW_AT_TI_symbol_name("$O$K236")
     615                            .dwattr $C$DW$107, DW_AT_type(*$C$DW$T$10)
     616                            .dwattr $C$DW$107, DW_AT_location[DW_OP_regx 0x29]
     617                    $C$DW$108       .dwtag  DW_TAG_variable, DW_AT_name("$O$K275")
     618                            .dwattr $C$DW$108, DW_AT_TI_symbol_name("$O$K275")
     619                            .dwattr $C$DW$108, DW_AT_type(*$C$DW$T$170)
     620                            .dwattr $C$DW$108, DW_AT_location[DW_OP_reg10]
     621                    $C$DW$109       .dwtag  DW_TAG_variable, DW_AT_name("$O$K285")
     622                            .dwattr $C$DW$109, DW_AT_TI_symbol_name("$O$K285")
     623                            .dwattr $C$DW$109, DW_AT_type(*$C$DW$T$16)
     624                            .dwattr $C$DW$109, DW_AT_location[DW_OP_reg4]
     625                    $C$DW$110       .dwtag  DW_TAG_variable, DW_AT_name("$O$U283")
     626                            .dwattr $C$DW$110, DW_AT_TI_symbol_name("$O$U283")
     627                            .dwattr $C$DW$110, DW_AT_type(*$C$DW$T$176)
     628                            .dwattr $C$DW$110, DW_AT_location[DW_OP_reg12]
     629                    $C$DW$111       .dwtag  DW_TAG_variable, DW_AT_name("$O$K297")
     630                            .dwattr $C$DW$111, DW_AT_TI_symbol_name("$O$K297")
     631                            .dwattr $C$DW$111, DW_AT_type(*$C$DW$T$16)
     632                            .dwattr $C$DW$111, DW_AT_location[DW_OP_regx 0x33]
     633                    $C$DW$112       .dwtag  DW_TAG_variable, DW_AT_name("$O$U238")
     634                            .dwattr $C$DW$112, DW_AT_TI_symbol_name("$O$U238")
     635                            .dwattr $C$DW$112, DW_AT_type(*$C$DW$T$3)
     636                            .dwattr $C$DW$112, DW_AT_location[DW_OP_reg26]
     637                    $C$DW$113       .dwtag  DW_TAG_variable, DW_AT_name("$O$U240")
     638                            .dwattr $C$DW$113, DW_AT_TI_symbol_name("$O$U240")
     639                            .dwattr $C$DW$113, DW_AT_type(*$C$DW$T$3)
     640                            .dwattr $C$DW$113, DW_AT_location[DW_OP_reg29]
     641                    $C$DW$114       .dwtag  DW_TAG_variable, DW_AT_name("$O$U313")
     642                            .dwattr $C$DW$114, DW_AT_TI_symbol_name("$O$U313")
     643                            .dwattr $C$DW$114, DW_AT_type(*$C$DW$T$123)
     644                            .dwattr $C$DW$114, DW_AT_location[DW_OP_reg0]
     645                    $C$DW$115       .dwtag  DW_TAG_variable, DW_AT_name("$O$U13")
     646                            .dwattr $C$DW$115, DW_AT_TI_symbol_name("$O$U13")
     647                            .dwattr $C$DW$115, DW_AT_type(*$C$DW$T$10)
     648                            .dwattr $C$DW$115, DW_AT_location[DW_OP_reg27]
     649                    $C$DW$116       .dwtag  DW_TAG_variable, DW_AT_name("KF_cn")
     650                            .dwattr $C$DW$116, DW_AT_TI_symbol_name("KF_cn")
     651                            .dwattr $C$DW$116, DW_AT_type(*$C$DW$T$100)
     652                            .dwattr $C$DW$116, DW_AT_location[DW_OP_breg31 24]
     653                    $C$DW$117       .dwtag  DW_TAG_variable, DW_AT_name("KF")
     654                            .dwattr $C$DW$117, DW_AT_TI_symbol_name("KF")
     655                            .dwattr $C$DW$117, DW_AT_type(*$C$DW$T$100)
     656                            .dwattr $C$DW$117, DW_AT_location[DW_OP_breg31 28]
     657                    $C$DW$118       .dwtag  DW_TAG_variable, DW_AT_name("Residual_cn")
     658                            .dwattr $C$DW$118, DW_AT_TI_symbol_name("Residual_cn")
     659                            .dwattr $C$DW$118, DW_AT_type(*$C$DW$T$23)
     660                            .dwattr $C$DW$118, DW_AT_location[DW_OP_breg31 32]
TMS320C6x Assembler PC v7.4.2 Thu Mar 19 12:43:01 2015

Tools Copyright (c) 1996-2012 Texas Instruments Incorporated
package/lib/Regression/regress_d_c/./../packages/ti/vlib/src/VLIB_kalmanFilter_4x6_Predict/VLIB_kalmanFilter_4x6_Predict_d.se66 PAGE   13

     661                    $C$DW$119       .dwtag  DW_TAG_variable, DW_AT_name("Residual")
     662                            .dwattr $C$DW$119, DW_AT_TI_symbol_name("Residual")
     663                            .dwattr $C$DW$119, DW_AT_type(*$C$DW$T$23)
     664                            .dwattr $C$DW$119, DW_AT_location[DW_OP_breg31 36]
     665                    $C$DW$120       .dwtag  DW_TAG_variable, DW_AT_name("Z_buffer")
     666                            .dwattr $C$DW$120, DW_AT_TI_symbol_name("Z_buffer")
     667                            .dwattr $C$DW$120, DW_AT_type(*$C$DW$T$21)
     668                            .dwattr $C$DW$120, DW_AT_location[DW_OP_breg31 40]
     669                    $C$DW$121       .dwtag  DW_TAG_variable, DW_AT_name("Z")
     670                            .dwattr $C$DW$121, DW_AT_TI_symbol_name("Z")
     671                            .dwattr $C$DW$121, DW_AT_type(*$C$DW$T$23)
     672                            .dwattr $C$DW$121, DW_AT_location[DW_OP_breg31 44]
     673                    $C$DW$122       .dwtag  DW_TAG_variable, DW_AT_name("status_nat_vs_ref")
     674                            .dwattr $C$DW$122, DW_AT_TI_symbol_name("status_nat_vs_ref")
     675                            .dwattr $C$DW$122, DW_AT_type(*$C$DW$T$31)
     676                            .dwattr $C$DW$122, DW_AT_location[DW_OP_reg14]
     677                    $C$DW$123       .dwtag  DW_TAG_variable, DW_AT_name("status_nat_vs_int")
     678                            .dwattr $C$DW$123, DW_AT_TI_symbol_name("status_nat_vs_int")
     679                            .dwattr $C$DW$123, DW_AT_type(*$C$DW$T$31)
     680                            .dwattr $C$DW$123, DW_AT_location[DW_OP_reg29]
     681                    $C$DW$124       .dwtag  DW_TAG_variable, DW_AT_name("prm")
     682                            .dwattr $C$DW$124, DW_AT_TI_symbol_name("prm")
     683                            .dwattr $C$DW$124, DW_AT_type(*$C$DW$T$66)
     684                            .dwattr $C$DW$124, DW_AT_location[DW_OP_breg31 20]
     685                    $C$DW$125       .dwtag  DW_TAG_variable, DW_AT_name("tpi")
     686                            .dwattr $C$DW$125, DW_AT_TI_symbol_name("tpi")
     687                            .dwattr $C$DW$125, DW_AT_type(*$C$DW$T$31)
     688                            .dwattr $C$DW$125, DW_AT_location[DW_OP_reg13]
     689                    $C$DW$126       .dwtag  DW_TAG_variable, DW_AT_name("$O$v1")
     690                            .dwattr $C$DW$126, DW_AT_TI_symbol_name("$O$v1")
     691                            .dwattr $C$DW$126, DW_AT_type(*$C$DW$T$66)
     692                            .dwattr $C$DW$126, DW_AT_location[DW_OP_reg20]
     693                    $C$DW$127       .dwtag  DW_TAG_variable, DW_AT_name("i")
     694                            .dwattr $C$DW$127, DW_AT_TI_symbol_name("i")
     695                            .dwattr $C$DW$127, DW_AT_type(*$C$DW$T$31)
     696                            .dwattr $C$DW$127, DW_AT_location[DW_OP_reg7]
     697                    $C$DW$128       .dwtag  DW_TAG_variable, DW_AT_name("i")
     698                            .dwattr $C$DW$128, DW_AT_TI_symbol_name("i")
     699                            .dwattr $C$DW$128, DW_AT_type(*$C$DW$T$31)
     700                            .dwattr $C$DW$128, DW_AT_location[DW_OP_reg15]
     701                    $C$DW$129       .dwtag  DW_TAG_variable, DW_AT_name("$O$v2")
     702                            .dwattr $C$DW$129, DW_AT_TI_symbol_name("$O$v2")
     703                            .dwattr $C$DW$129, DW_AT_type(*$C$DW$T$171)
     704                            .dwattr $C$DW$129, DW_AT_location[DW_OP_reg22]
     705                    $C$DW$130       .dwtag  DW_TAG_variable, DW_AT_name("$O$v2")
     706                            .dwattr $C$DW$130, DW_AT_TI_symbol_name("$O$v2")
     707                            .dwattr $C$DW$130, DW_AT_type(*$C$DW$T$171)
     708                            .dwattr $C$DW$130, DW_AT_location[DW_OP_reg24]
     709 00000010 0200002a!            MVKL    .S2     test_cases,B4
     710 00000014 0200006a!            MVKH    .S2     test_cases,B4
     711                    $C$DW$131       .dwtag  DW_TAG_TI_branch
     712                            .dwattr $C$DW$131, DW_AT_low_pc(0x00)
     713                            .dwattr $C$DW$131, DW_AT_name("kalmanFilter_4x6_Predict_getTestParams")
     714                            .dwattr $C$DW$131, DW_AT_TI_call
     715                    
TMS320C6x Assembler PC v7.4.2 Thu Mar 19 12:43:01 2015

Tools Copyright (c) 1996-2012 Texas Instruments Incorporated
package/lib/Regression/regress_d_c/./../packages/ti/vlib/src/VLIB_kalmanFilter_4x6_Predict/VLIB_kalmanFilter_4x6_Predict_d.se66 PAGE   14

     716 00000018 10000013!            CALLP   .S2     kalmanFilter_4x6_Predict_getTestParams,B3
     717 00000020 120005fc  ||         ADDAW   .D1X    SP,5,A4           ; |47| 
     718                    
     719                            .dwpsn  file "./../packages/ti/vlib/src/VLIB_kalmanFilter_4x6_Predict/VLIB_kalmanFilter_4x6_Pr
     720                    ;----------------------------------------------------------------------
     721                    ;  47 | kalmanFilter_4x6_Predict_getTestParams(&prm, &test_cases);             
     722                    ;----------------------------------------------------------------------
     723 00000024           $C$RL0:    ; CALL OCCURS {kalmanFilter_4x6_Predict_getTestParams} {0}  ; |47| 
     724                    ;** --------------------------------------------------------------------------*
     725                    ;          EXCLUSIVE CPU CYCLES: 8
     726 00000024 0200002a!            MVKL    .S2     $C$SL1+0,B4
     727 00000028 0200006a!            MVKH    .S2     $C$SL1+0,B4
     728                    $C$DW$132       .dwtag  DW_TAG_TI_branch
     729                            .dwattr $C$DW$132, DW_AT_low_pc(0x00)
     730                            .dwattr $C$DW$132, DW_AT_name("VLIB_profile_init")
     731                            .dwattr $C$DW$132, DW_AT_TI_call
     732                    
     733 0000002c 10000013!            CALLP   .S2     VLIB_profile_init,B3
     734 00000030 0208a358  ||         MVK     .L1     0x2,A4            ; |50| 
     735                    
     736                            .dwpsn  file "./../packages/ti/vlib/src/VLIB_kalmanFilter_4x6_Predict/VLIB_kalmanFilter_4x6_Pr
     737                    ;----------------------------------------------------------------------
     738                    ;  50 | VLIB_profile_init(2, "VLIB_kalmanFilter_4x6_Predict");                 
     739                    ;----------------------------------------------------------------------
     740 00000034           $C$RL1:    ; CALL OCCURS {VLIB_profile_init} {0}  ; |50| 
     741                    ;** --------------------------------------------------------------------------*
     742                    ;          EXCLUSIVE CPU CYCLES: 14
     743                    ;**     -----------------------    K$22 = 788u;
     744                    ;**     -----------------------    K$42 = &desc[0];
     745                    ;**     -----------------------    K$44 = &testPatternString[0];
     746                    ;**     -----------------------    U$14 = prm-16;
     747                    ;**     -----------------------    U$13 = 0;
     748                    ;** 53  -----------------------    tpi = 0;
     749                    ;**     -----------------------    #pragma LOOP_FLAGS(5120u)
     750 00000034 01800028!            MVKL    .S1     test_cases,A3
     751 00000038 01800068!            MVKH    .S1     test_cases,A3
     752                            .dwpsn  file "./../packages/ti/vlib/src/VLIB_kalmanFilter_4x6_Predict/VLIB_kalmanFilter_4x6_Pr
     753                    ;----------------------------------------------------------------------
     754                    ;  53 | for( tpi=0; tpi < test_cases; tpi++ ) {                                
     755                    ;----------------------------------------------------------------------
     756 0000003c 018c0264             LDW     .D1T1   *A3,A3            ; |53| 
     757 00000040 02bca2e4             LDW     .D2T1   *+SP(20),A5
     758                            .dwpsn  file "./../packages/ti/vlib/src/VLIB_kalmanFilter_4x6_Predict/VLIB_kalmanFilter_4x6_Pr
     759                    ;----------------------------------------------------------------------
     760                    ;  56 | int32_t    status_nat_vs_int = vlib_KERNEL_PASS; /* Test status : Natur
     761                    ;     | al c vs. Optimized */                                                  
     762                    ;  57 | int32_t    status_nat_vs_ref = vlib_KERNEL_PASS; /* Test status : Natur
     763                    ;     | al c vs. Static Reference */                                           
     764                    ;----------------------------------------------------------------------
     765 00000044 0680a358             ZERO    .L1     A13               ; |53| 
     766 00000048 0580a35a             ZERO    .L2     B11               ; |53| 
     767 0000004c 06018a2a             MVK     .S2     0x314,B12
     768                            .dwpsn  file "./../packages/ti/vlib/src/VLIB_kalmanFilter_4x6_Predict/VLIB_kalmanFilter_4x6_Pr
     769 00000050 000c0ad8             CMPGT   .L1     A3,0,A0           ; |53| 
     770 00000054 d1b08120     [!A0]   BNOP    .S1     $C$L10,4          ; |53| 
TMS320C6x Assembler PC v7.4.2 Thu Mar 19 12:43:01 2015

Tools Copyright (c) 1996-2012 Texas Instruments Incorporated
package/lib/Regression/regress_d_c/./../packages/ti/vlib/src/VLIB_kalmanFilter_4x6_Predict/VLIB_kalmanFilter_4x6_Predict_d.se66 PAGE   15

     771 00000058 059609c0             SUB     .D1     A5,16,A11
     772                               ; BRANCHCC OCCURS {$C$L10}        ; |53| 
     773                    ;** --------------------------------------------------------------------------*
     774                    ;**   BEGIN LOOP $C$L1
     775                    ;** --------------------------------------------------------------------------*
     776 0000005c           $C$L1:    
     777                            .dwpsn  file "./../packages/ti/vlib/src/VLIB_kalmanFilter_4x6_Predict/VLIB_kalmanFilter_4x6_Pr
     778 0000005c           $C$DW$L$VLIB_kalmanFilter_4x6_Predict_d$4$B:
     779                    ;          EXCLUSIVE CPU CYCLES: 6
     780                    ;**     -----------------------g3:
     781                    ;** 60  -----------------------    Z = VLIB_memalign(8u, 8u);
     782                    ;** 61  -----------------------    Z_buffer = memalign(8u, (unsigned)((int)(*(U$14 += 16)).numMeasurem
     783                    ;** 62  -----------------------    Residual = VLIB_memalign(8u, 8u);
     784                    ;** 63  -----------------------    Residual_cn = memalign(8u, 8u);
     785                    ;** 64  -----------------------    KF = (struct lib_kalmanFilter_4x6 *)VLIB_memalign(8u, K$22);
     786                    ;** 65  -----------------------    KF_cn = (struct lib_kalmanFilter_4x6 *)memalign(8u, K$22);
     787                    ;** 68  -----------------------    if ( !((Z == NULL)|(Z_buffer == NULL)|(Residual == NULL)|(Residual_
     788                            .dwpsn  file "./../packages/ti/vlib/src/VLIB_kalmanFilter_4x6_Predict/VLIB_kalmanFilter_4x6_Pr
     789                    ;----------------------------------------------------------------------
     790                    ;  60 | int16_t                 *Z           = (int16_t *) VLIB_memalign(8, 4 *
     791                    ;     |  sizeof(int16_t));                                                     
     792                    ;----------------------------------------------------------------------
     793                    $C$DW$133       .dwtag  DW_TAG_TI_branch
     794                            .dwattr $C$DW$133, DW_AT_low_pc(0x00)
     795                            .dwattr $C$DW$133, DW_AT_name("VLIB_memalign")
     796                            .dwattr $C$DW$133, DW_AT_TI_call
     797 0000005c 00000010!            CALL    .S1     VLIB_memalign     ; |60| 
     798 00000060 0220a358             MVK     .L1     0x8,A4            ; |60| 
     799 00000064 01834162             ADDKPC  .S2     $C$RL2,B3,2       ; |60| 
     800 00000068 02101fda             MV      .L2X    A4,B4             ; |60| 
     801 0000006c           $C$RL2:    ; CALL OCCURS {VLIB_memalign} {0}  ; |60| 
     802 0000006c           $C$DW$L$VLIB_kalmanFilter_4x6_Predict_d$4$E:
     803                    ;** --------------------------------------------------------------------------*
     804 0000006c           $C$DW$L$VLIB_kalmanFilter_4x6_Predict_d$5$B:
     805                    ;          EXCLUSIVE CPU CYCLES: 42
     806                            .dwpsn  file "./../packages/ti/vlib/src/VLIB_kalmanFilter_4x6_Predict/VLIB_kalmanFilter_4x6_Pr
     807                    ;----------------------------------------------------------------------
     808                    ;  61 | VLIB_F32                *Z_buffer    = (VLIB_F32 *) memalign(8, prm[tpi
     809                    ;     | ].numMeasurements * 4 * sizeof(VLIB_F32));                             
     810                    ;----------------------------------------------------------------------
     811 0000006c 05800850             ADDK    .S1     16,A11            ; |61| 
     812 00000070 01acc204             LDHU    .D1T1   *+A11(12),A3      ; |61| 
     813                            .dwpsn  file "./../packages/ti/vlib/src/VLIB_kalmanFilter_4x6_Predict/VLIB_kalmanFilter_4x6_Pr
     814 00000074     ed45             STW     .D2T1   A4,*+SP(44)       ; |60| 
     815                            .dwpsn  file "./../packages/ti/vlib/src/VLIB_kalmanFilter_4x6_Predict/VLIB_kalmanFilter_4x6_Pr
     816 00000076     0e26             MVK     .L1     0x8,A4            ; |61| 
     817 00000078     2c6e             NOP             2
     818 0000007a     8582             SHL     .S1     A3,4,A3           ; |61| 
     819 00000080 00000000             NOP             1
     820                    $C$DW$134       .dwtag  DW_TAG_TI_branch
     821                            .dwattr $C$DW$134, DW_AT_low_pc(0x00)
     822                            .dwattr $C$DW$134, DW_AT_name("memalign")
     823                            .dwattr $C$DW$134, DW_AT_TI_call
     824                    
     825 00000088 10000012!            CALLP   .S2     memalign,B3
TMS320C6x Assembler PC v7.4.2 Thu Mar 19 12:43:01 2015

Tools Copyright (c) 1996-2012 Texas Instruments Incorporated
package/lib/Regression/regress_d_c/./../packages/ti/vlib/src/VLIB_kalmanFilter_4x6_Predict/VLIB_kalmanFilter_4x6_Predict_d.se66 PAGE   16

     826 00000084 020c1fdb  ||         MV      .L2X    A3,B4             ; |61| 
     827                    
     828 0000008c           $C$RL3:    ; CALL OCCURS {memalign} {0}      ; |61| 
     829                    
     830 0000008c 023d42f5             STW     .D2T1   A4,*+SP(40)       ; |61| 
     831 00000090 0220a358  ||         MVK     .L1     0x8,A4            ; |62| 
     832                    
     833 00000094 00000000             NOP             1
     834                    $C$DW$135       .dwtag  DW_TAG_TI_branch
     835                            .dwattr $C$DW$135, DW_AT_low_pc(0x00)
     836                            .dwattr $C$DW$135, DW_AT_name("VLIB_memalign")
     837                            .dwattr $C$DW$135, DW_AT_TI_call
     838                    
     839 0000009c 10000012!            CALLP   .S2     VLIB_memalign,B3
     840 00000098 02101fdb  ||         MV      .L2X    A4,B4             ; |62| 
     841                    
     842                            .dwpsn  file "./../packages/ti/vlib/src/VLIB_kalmanFilter_4x6_Predict/VLIB_kalmanFilter_4x6_Pr
     843                    ;----------------------------------------------------------------------
     844                    ;  62 | int16_t                 *Residual    = (int16_t *) VLIB_memalign(8, 4 *
     845                    ;     |  sizeof(int16_t));                                                     
     846                    ;----------------------------------------------------------------------
     847 000000a0           $C$RL4:    ; CALL OCCURS {VLIB_memalign} {0}  ; |62| 
     848                    
     849 000000a0 023d22f5             STW     .D2T1   A4,*+SP(36)       ; |62| 
     850 000000a4 0220a358  ||         MVK     .L1     0x8,A4            ; |63| 
     851                    
     852 000000a8 00000000             NOP             1
     853                    $C$DW$136       .dwtag  DW_TAG_TI_branch
     854                            .dwattr $C$DW$136, DW_AT_low_pc(0x00)
     855                            .dwattr $C$DW$136, DW_AT_name("memalign")
     856                            .dwattr $C$DW$136, DW_AT_TI_call
     857                    
     858 000000b0 10000013!            CALLP   .S2     memalign,B3
     859 000000ac 02101fdb  ||         MV      .L2X    A4,B4             ; |63| 
     860                    
     861                            .dwpsn  file "./../packages/ti/vlib/src/VLIB_kalmanFilter_4x6_Predict/VLIB_kalmanFilter_4x6_Pr
     862                    ;----------------------------------------------------------------------
     863                    ;  63 | int16_t                 *Residual_cn = (int16_t *) memalign(8, 4 * size
     864                    ;     | of(int16_t));                                                          
     865                    ;----------------------------------------------------------------------
     866                    $C$RL5:    ; CALL OCCURS {memalign} {0}      ; |63| 
     867                    $C$DW$137       .dwtag  DW_TAG_TI_branch
     868                            .dwattr $C$DW$137, DW_AT_low_pc(0x00)
     869                            .dwattr $C$DW$137, DW_AT_name("VLIB_memalign")
     870                            .dwattr $C$DW$137, DW_AT_TI_call
     871                    
     872 000000c0 10000013!            CALLP   .S2     VLIB_memalign,B3
     873 000000c4 023d02f5  ||         STW     .D2T1   A4,*+SP(32)       ; |63| 
     874 000000c8 0220a359  ||         MVK     .L1     0x8,A4            ; |64| 
     875 000000cc 02300fda  ||         MV      .L2     B12,B4            ; |64| 
     876                    
     877                            .dwpsn  file "./../packages/ti/vlib/src/VLIB_kalmanFilter_4x6_Predict/VLIB_kalmanFilter_4x6_Pr
     878                    ;----------------------------------------------------------------------
     879                    ;  64 | VLIB_kalmanFilter_4x6   *KF          = (VLIB_kalmanFilter_4x6 *) VLIB_m
     880                    ;     | emalign(8, sizeof(VLIB_kalmanFilter_4x6));                             
TMS320C6x Assembler PC v7.4.2 Thu Mar 19 12:43:01 2015

Tools Copyright (c) 1996-2012 Texas Instruments Incorporated
package/lib/Regression/regress_d_c/./../packages/ti/vlib/src/VLIB_kalmanFilter_4x6_Predict/VLIB_kalmanFilter_4x6_Predict_d.se66 PAGE   17

     881                    ;----------------------------------------------------------------------
     882                    $C$RL6:    ; CALL OCCURS {VLIB_memalign} {0}  ; |64| 
     883                    $C$DW$138       .dwtag  DW_TAG_TI_branch
     884                            .dwattr $C$DW$138, DW_AT_low_pc(0x00)
     885                            .dwattr $C$DW$138, DW_AT_name("memalign")
     886                            .dwattr $C$DW$138, DW_AT_TI_call
     887                    
     888 000000d0 10000013!            CALLP   .S2     memalign,B3
     889 000000d4 023ce2f5  ||         STW     .D2T1   A4,*+SP(28)       ; |64| 
     890 000000d8 0220a359  ||         MVK     .L1     0x8,A4            ; |65| 
     891 000000dc 02300fda  ||         MV      .L2     B12,B4            ; |65| 
     892                    
     893                            .dwpsn  file "./../packages/ti/vlib/src/VLIB_kalmanFilter_4x6_Predict/VLIB_kalmanFilter_4x6_Pr
     894                    ;----------------------------------------------------------------------
     895                    ;  65 | VLIB_kalmanFilter_4x6   *KF_cn       = (VLIB_kalmanFilter_4x6 *) memali
     896                    ;     | gn(8, sizeof(VLIB_kalmanFilter_4x6));                                  
     897                    ;----------------------------------------------------------------------
     898 000000e0           $C$RL7:    ; CALL OCCURS {memalign} {0}      ; |65| 
     899 000000e0           $C$DW$L$VLIB_kalmanFilter_4x6_Predict_d$5$E:
     900                    ;** --------------------------------------------------------------------------*
     901 000000e0           $C$DW$L$VLIB_kalmanFilter_4x6_Predict_d$6$B:
     902                    ;          EXCLUSIVE CPU CYCLES: 21
     903                    
     904 000000e0     ed0d             LDW     .D2T1   *+SP(44),A0       ; |68| 
     905 000000e2     0627  ||         ZERO    .L2     B4                ; |68| 
     906 000000e4     0293  ||         ZERO    .S2     B5                ; |68| 
     907 000000e6     05a6  ||         ZERO    .L1     A3                ; |68| 
     908                    
     909                            .dwpsn  file "./../packages/ti/vlib/src/VLIB_kalmanFilter_4x6_Predict/VLIB_kalmanFilter_4x6_Pr
     910                    ;----------------------------------------------------------------------
     911                    ;  68 | if( Z && Z_buffer && Residual && Residual_cn && KF && KF_cn ) {        
     912                    ;----------------------------------------------------------------------
     913 000000e8     dd0d             LDW     .D2T2   *+SP(40),B0       ; |68| 
     914 000000ea     8d2d             LDW     .D2T1   *+SP(32),A2       ; |68| 
     915 000000ec     ad1d             LDW     .D2T1   *+SP(36),A1       ; |68| 
     916                            .dwpsn  file "./../packages/ti/vlib/src/VLIB_kalmanFilter_4x6_Predict/VLIB_kalmanFilter_4x6_Pr
     917 000000ee     ccc5             STW     .D2T1   A4,*+SP(24)       ; |65| 
     918                    
     919 000000f0     6ae7     [!A0]   MVK     .L2     0x1,B5            ; |68| 
     920 000000f2     ec8d  ||         LDW     .D2T1   *+SP(28),A0       ; |68| 
     921                    
     922                            .dwpsn  file "./../packages/ti/vlib/src/VLIB_kalmanFilter_4x6_Predict/VLIB_kalmanFilter_4x6_Pr
     923                    ;----------------------------------------------------------------------
     924                    ;  70 | int32_t    fail, i, index;                                             
     925                    ;  71 | int32_t    ONE_10p5 = 32, ONE_8p7 = 128;                               
     926                    ;----------------------------------------------------------------------
     927 000000f4     ea67     [!B0]   MVK     .L2     0x1,B4            ; |68| 
     928                    
     929 000000f8 02948ffa             OR      .L2     B4,B5,B5          ; |68| 
     930 000000f6     0213  ||         ZERO    .S2     B4                ; |68| 
     931                    
     932 00000100 b204a35b     [!A2]   MVK     .L2     0x1,B4            ; |68| 
     933 00000108     ccad  ||         LDW     .D2T1   *+SP(24),A2       ; |68| 
     934 00000104 9184a359  || [!A1]   MVK     .L1     0x1,A3            ; |68| 
     935                    
TMS320C6x Assembler PC v7.4.2 Thu Mar 19 12:43:01 2015

Tools Copyright (c) 1996-2012 Texas Instruments Incorporated
package/lib/Regression/regress_d_c/./../packages/ti/vlib/src/VLIB_kalmanFilter_4x6_Predict/VLIB_kalmanFilter_4x6_Predict_d.se66 PAGE   18

     936 0000010a     0626             ZERO    .L1     A4                ; |68| 
     937                    
     938 00000110 0180a358             ZERO    .L1     A3                ; |68| 
     939 0000010c 028cbffb  ||         OR      .L2X    A3,B5,B5          ; |68| 
     940                    
     941 00000114 02148ffa             OR      .L2     B4,B5,B4          ; |68| 
     942 00000118 d204a358     [!A0]   MVK     .L1     0x1,A4            ; |68| 
     943                    
     944 00000120 b184a359     [!A2]   MVK     .L1     0x1,A3            ; |68| 
     945 00000124 021096e0  ||         OR      .S1X    A4,B4,A4          ; |68| 
     946                    
     947 00000128 00106ff8             OR      .L1     A3,A4,A0          ; |68| 
     948                    
     949 0000012c d0000c93     [!A0]   B       .S2     $C$L2             ; |68| 
     950 00000130 d1acc205  || [!A0]   LDHU    .D1T1   *+A11(12),A3      ; |74| 
     951 00000134 d404a35b  || [!A0]   MVK     .L2     0x1,B8            ; |74| 
     952 00000138 c2000028! || [ A0]   MVKL    .S1     desc,A4
     953                    
     954 0000013c c1acc205     [ A0]   LDHU    .D1T1   *+A11(12),A3      ; |179| 
     955 00000140 c200002b! || [ A0]   MVKL    .S2     $C$SL2+0,B4
     956 00000144 d6000028! || [!A0]   MVKL    .S1     testPatternString,A12
     957                    
     958                    $C$DW$139       .dwtag  DW_TAG_TI_branch
     959                            .dwattr $C$DW$139, DW_AT_low_pc(0x00)
     960                            .dwattr $C$DW$139, DW_AT_name("sprintf")
     961                            .dwattr $C$DW$139, DW_AT_TI_call
     962                    
     963 00000148 c0000011!    [ A0]   CALL    .S1     sprintf           ; |179| 
     964 0000014c d22c0214  || [!A0]   LDBU    .D1T1   *A11,A4           ; |74| 
     965                    
     966                            .dwpsn  file "./../packages/ti/vlib/src/VLIB_kalmanFilter_4x6_Predict/VLIB_kalmanFilter_4x6_Pr
     967                    ;----------------------------------------------------------------------
     968                    ;  74 | VLIB_fillBuffer(prm[tpi].testPattern,                                  
     969                    ;  75 |                 (VLIB_F32)1,                                           
     970                    ;  76 |                 Z_buffer, prm[tpi].staticIn,                           
     971                    ;  77 |                 prm[tpi].numMeasurements * 4, 1, prm[tpi].numMeasuremen
     972                    ;     | ts * 4 * sizeof(VLIB_F32),                                             
     973                    ;  78 |                 sizeof(VLIB_F32), testPatternString);                  
     974                    ;  80 | memset(KF, 0, sizeof(VLIB_kalmanFilter_4x6));    // KF->tempBuffers doe
     975                    ;     | s not need to be cleared, but it doesn't hurt either                   
     976                    ;  81 | memset(KF_cn, 0, sizeof(VLIB_kalmanFilter_4x6)); // KF_cn->tempBuffers
     977                    ;     | does not need to be cleared, but it doesn't hurt either                
     978                    ;  83 | KF->scaleFactor = KF_cn->scaleFactor = 5;                              
     979                    ;  86 | for( i=0; i < sD_4x6; i++ ) {                                          
     980                    ;  87 |     index = i * sD_4x6 + i;                                            
     981                    ;  88 |     KF->errorCov[index]   = KF_cn->errorCov[index]   = 1000 * INT16_MAX
     982                    ;     |  / VLIB_MAX_13p2;                                                      
     983                    ;  89 |     KF->transition[index] = KF_cn->transition[index] = 1 * INT16_MAX /
     984                    ;     | VLIB_MAX_13p2;                                                         
     985                    ;  90 |     if( i < mD_4x6 ) {                                                 
     986                    ;  91 |         KF->measurement[index] = KF_cn->measurement[index] = 1;        
     987                    ;  95 | KF->measurementNoiseCov[0] = KF_cn->measurementNoiseCov[0] = 2500;     
     988                    ;  97 | KF->measurementNoiseCov[5] = KF_cn->measurementNoiseCov[5] = 2500;     
     989                    ;  99 | KF->measurementNoiseCov[10] = KF_cn->measurementNoiseCov[10] = 100;    
     990                    ; 100 | KF->measurementNoiseCov[15] = KF_cn->measurementNoiseCov[15] = 100;    
TMS320C6x Assembler PC v7.4.2 Thu Mar 19 12:43:01 2015

Tools Copyright (c) 1996-2012 Texas Instruments Incorporated
package/lib/Regression/regress_d_c/./../packages/ti/vlib/src/VLIB_kalmanFilter_4x6_Predict/VLIB_kalmanFilter_4x6_Predict_d.se66 PAGE   19

     991                    ; 102 | KF->transition[2]  = KF_cn->transition[2] = 1 * INT16_MAX / VLIB_MAX_13
     992                    ;     | p2;                                                                    
     993                    ; 103 | KF->transition[4]  = KF_cn->transition[4] = 0.5 * INT16_MAX / VLIB_MAX_
     994                    ;     | 13p2;                                                                  
     995                    ; 104 | KF->transition[9]  = KF_cn->transition[9] = 1 * INT16_MAX / VLIB_MAX_13
     996                    ;     | p2;                                                                    
     997                    ; 105 | KF->transition[11] = KF_cn->transition[11] = 0.5 * INT16_MAX / VLIB_MAX
     998                    ;     | _13p2;                                                                 
     999                    ; 106 | KF->transition[16] = KF_cn->transition[16] = 1 * INT16_MAX / VLIB_MAX_1
    1000                    ;     | 3p2;                                                                   
    1001                    ; 107 | KF->transition[23] = KF_cn->transition[23] = 1 * INT16_MAX / VLIB_MAX_1
    1002                    ;     | 3p2;                                                                   
    1003                    ; 109 | KF->processNoiseCov[0] = KF_cn->processNoiseCov[0] = 0.25 * INT16_MAX /
    1004                    ;     |  VLIB_MAX_13p2;                                                        
    1005                    ; 110 | KF->processNoiseCov[1] = KF_cn->processNoiseCov[1] = 0.25 * INT16_MAX /
    1006                    ;     |  VLIB_MAX_13p2;                                                        
    1007                    ; 111 | KF->processNoiseCov[2] = KF_cn->processNoiseCov[2] = 0.25 * INT16_MAX /
    1008                    ;     |  VLIB_MAX_13p2;                                                        
    1009                    ; 112 | KF->processNoiseCov[6] = KF_cn->processNoiseCov[6] = 0.25 * INT16_MAX /
    1010                    ;     |  VLIB_MAX_13p2;                                                        
    1011                    ; 113 | KF->processNoiseCov[7] = KF_cn->processNoiseCov[7] = 0.2500 * INT16_MAX
    1012                    ;     |  / VLIB_MAX_13p2;                                                      
    1013                    ; 114 | KF->processNoiseCov[8] = KF_cn->processNoiseCov[8] = 0.5000 * INT16_MAX
    1014                    ;     |  / VLIB_MAX_13p2;                                                      
    1015                    ; 115 | KF->processNoiseCov[12] = KF_cn->processNoiseCov[12] = 0.25 * INT16_MAX
    1016                    ;     |  / VLIB_MAX_13p2;                                                      
    1017                    ; 116 | KF->processNoiseCov[13] = KF_cn->processNoiseCov[13] = 0.5000 * INT16_M
    1018                    ;     | AX / VLIB_MAX_13p2;                                                    
    1019                    ; 117 | KF->processNoiseCov[14] = KF_cn->processNoiseCov[14] = 1.000 * INT16_MA
    1020                    ;     | X / VLIB_MAX_13p2;                                                     
    1021                    ; 119 | KF->processNoiseCov[21] = KF_cn->processNoiseCov[21] = 0.25 * INT16_MAX
    1022                    ;     |  / VLIB_MAX_13p2;                                                      
    1023                    ; 120 | KF->processNoiseCov[22] = KF_cn->processNoiseCov[22] = 0.25 * INT16_MAX
    1024                    ;     |  / VLIB_MAX_13p2;                                                      
    1025                    ; 121 | KF->processNoiseCov[23] = KF_cn->processNoiseCov[23] = 0.25 * INT16_MAX
    1026                    ;     |  / VLIB_MAX_13p2;                                                      
    1027                    ; 122 | KF->processNoiseCov[27] = KF_cn->processNoiseCov[27] = 0.25 * INT16_MAX
    1028                    ;     |  / VLIB_MAX_13p2;                                                      
    1029                    ; 123 | KF->processNoiseCov[28] = KF_cn->processNoiseCov[28] = 0.2500 * INT16_M
    1030                    ;     | AX / VLIB_MAX_13p2;                                                    
    1031                    ; 124 | KF->processNoiseCov[29] = KF_cn->processNoiseCov[29] = 0.5000 * INT16_M
    1032                    ;     | AX / VLIB_MAX_13p2;                                                    
    1033                    ; 125 | KF->processNoiseCov[33] = KF_cn->processNoiseCov[33] = 0.25 * INT16_MAX
    1034                    ;     |  / VLIB_MAX_13p2;                                                      
    1035                    ; 126 | KF->processNoiseCov[34] = KF_cn->processNoiseCov[34] = 0.5000 * INT16_M
    1036                    ;     | AX / VLIB_MAX_13p2;                                                    
    1037                    ; 127 | KF->processNoiseCov[35] = KF_cn->processNoiseCov[35] = 1.000 * INT16_MA
    1038                    ;     | X / VLIB_MAX_13p2;                                                     
    1039                    ; 130 | KF->state[0] = KF_cn->state[0] = 190 * ONE_10p5;                       
    1040                    ; 131 | KF->state[1] = KF_cn->state[1] = 190 * ONE_10p5;                       
    1041                    ; 132 | KF->state[2] = KF_cn->state[2] = 0 * ONE_8p7;                          
    1042                    ; 133 | KF->state[3] = KF_cn->state[3] = 0 * ONE_8p7;                          
    1043                    ; 134 | KF->state[4] = KF_cn->state[4] = 0 * ONE_8p7;                          
    1044                    ; 135 | KF->state[5] = KF_cn->state[5] = 0 * ONE_8p7;                          
    1045                    ; 137 | for( i=0; i < prm[tpi].numMeasurements; i++ ) {                        
TMS320C6x Assembler PC v7.4.2 Thu Mar 19 12:43:01 2015

Tools Copyright (c) 1996-2012 Texas Instruments Incorporated
package/lib/Regression/regress_d_c/./../packages/ti/vlib/src/VLIB_kalmanFilter_4x6_Predict/VLIB_kalmanFilter_4x6_Predict_d.se66 PAGE   20

    1046                    ; 140 |     VLIB_profile_start(vlib_KERNEL_OPT);                               
    1047                    ; 141 |     VLIB_kalmanFilter_4x6_Predict(KF);                                 
    1048                    ; 142 |     VLIB_profile_stop();                                               
    1049                    ; 145 |     VLIB_profile_start(vlib_KERNEL_CN);                                
    1050                    ; 146 |     VLIB_kalmanFilter_4x6_Predict_cn(KF_cn);                           
    1051                    ; 147 |     VLIB_profile_stop();                                               
    1052                    ; 150 |     Z[0] = Z_buffer[i * mD_4x6 + 0] * ONE_10p5;                        
    1053                    ; 151 |     Z[1] = Z_buffer[i * mD_4x6 + 1] * ONE_10p5;                        
    1054                    ; 152 |     Z[2] = Z_buffer[i * mD_4x6 + 2] * ONE_8p7;                         
    1055                    ; 153 |     Z[3] = Z_buffer[i * mD_4x6 + 3] * ONE_8p7;                         
    1056                    ; 155 |     VLIB_kalmanFilter_4x6_Correct_cn(KF, Z, Residual);   // The natC ve
    1057                    ;     | rsion is used so that the code size doesn't get counted                
    1058                    ; 156 |     VLIB_kalmanFilter_4x6_Correct_cn(KF_cn, Z, Residual_cn);           
    1059                    ; 160 | status_nat_vs_int = VLIB_compare_mem((void *) &KF->state[0], (void *) &
    1060                    ;     | KF_cn->state[0], 6 * sizeof(int16_t));                                 
    1061                    ; 163 | if( prm[tpi].staticOut != NULL ) {                                     
    1062                    ; 164 |     status_nat_vs_ref = VLIB_compare_mem((void *) prm[tpi].staticOut, (
    1063                    ;     | void *)&KF_cn->state[0], 6 * sizeof(int16_t));                         
    1064                    ; 168 | fail = ((status_nat_vs_int == vlib_KERNEL_FAIL) || (status_nat_vs_ref =
    1065                    ;     | = vlib_KERNEL_FAIL)) ? 1 : 0;                                          
    1066                    ; 170 | est_test=1;                                                            
    1067                    ; 173 | sprintf(desc, "%s generated input | Opt results compared to NatC result
    1068                    ;     | s | num_measurements=%d",                                              
    1069                    ; 174 |         testPatternString, prm[tpi].numMeasurements);                  
    1070                    ; 175 | VLIB_formula_add_test(prm[tpi].numMeasurements, NULL, NULL, fail, desc,
    1071                    ;     |  NULL);                                                                
    1072                    ; 177 | } else {                                                               
    1073                    ;----------------------------------------------------------------------
    1074                    $C$DW$140       .dwtag  DW_TAG_TI_branch
    1075                            .dwattr $C$DW$140, DW_AT_low_pc(0x00)
    1076                            .dwattr $C$DW$140, DW_AT_name("VLIB_fillBuffer")
    1077                            .dwattr $C$DW$140, DW_AT_TI_call
    1078 00000150 d0000010!    [!A0]   CALL    .S1     VLIB_fillBuffer   ; |74| 
    1079 00000154 d32c2266     [!A0]   LDW     .D1T2   *+A11(4),B6       ; |74| 
    1080 00000158 c200006a!    [ A0]   MVKH    .S2     $C$SL2+0,B4
    1081                            .dwpsn  file "./../packages/ti/vlib/src/VLIB_kalmanFilter_4x6_Predict/VLIB_kalmanFilter_4x6_Pr
    1082                               ; BRANCHCC OCCURS {$C$L2}         ; |68| 
    1083 0000015c           $C$DW$L$VLIB_kalmanFilter_4x6_Predict_d$6$E:
    1084                    ;** --------------------------------------------------------------------------*
    1085 0000015c           $C$DW$L$VLIB_kalmanFilter_4x6_Predict_d$7$B:
    1086                    ;          EXCLUSIVE CPU CYCLES: 2
    1087                    ;** 179 -----------------------    sprintf(K$42, (const char *)"num_measurements=%d", (int)(*U$14).num
    1088                    ;** 181 -----------------------    VLIB_skip_test(K$42);
    1089                    ;** 181 -----------------------    goto g16;
    1090                            .dwpsn  file "./../packages/ti/vlib/src/VLIB_kalmanFilter_4x6_Predict/VLIB_kalmanFilter_4x6_Pr
    1091                    ;----------------------------------------------------------------------
    1092                    ; 179 | sprintf(desc, "num_measurements=%d",                                   
    1093                    ; 180 |         prm[tpi].numMeasurements);                                     
    1094                    ;----------------------------------------------------------------------
    1095 0000015c 01bc42f4             STW     .D2T1   A3,*+SP(8)        ; |179| 
    1096                    
    1097 00000160 023c22f7             STW     .D2T2   B4,*+SP(4)        ; |179| 
    1098 00000164 01830163  ||         ADDKPC  .S2     $C$RL8,B3,0       ; |179| 
    1099 00000168 02000068! ||         MVKH    .S1     desc,A4
    1100                    
TMS320C6x Assembler PC v7.4.2 Thu Mar 19 12:43:01 2015

Tools Copyright (c) 1996-2012 Texas Instruments Incorporated
package/lib/Regression/regress_d_c/./../packages/ti/vlib/src/VLIB_kalmanFilter_4x6_Predict/VLIB_kalmanFilter_4x6_Predict_d.se66 PAGE   21

    1101 0000016c           $C$RL8:    ; CALL OCCURS {sprintf} {0}       ; |179| 
    1102 0000016c           $C$DW$L$VLIB_kalmanFilter_4x6_Predict_d$7$E:
    1103                    ;** --------------------------------------------------------------------------*
    1104 0000016c           $C$DW$L$VLIB_kalmanFilter_4x6_Predict_d$8$B:
    1105                    ;          EXCLUSIVE CPU CYCLES: 7
    1106 0000016c 02000028!            MVKL    .S1     desc,A4
    1107                    $C$DW$141       .dwtag  DW_TAG_TI_branch
    1108                            .dwattr $C$DW$141, DW_AT_low_pc(0x00)
    1109                            .dwattr $C$DW$141, DW_AT_name("VLIB_skip_test")
    1110                            .dwattr $C$DW$141, DW_AT_TI_call
    1111                    
    1112 00000170 10000013!            CALLP   .S2     VLIB_skip_test,B3
    1113 00000174 02000068! ||         MVKH    .S1     desc,A4
    1114                    
    1115                            .dwpsn  file "./../packages/ti/vlib/src/VLIB_kalmanFilter_4x6_Predict/VLIB_kalmanFilter_4x6_Pr
    1116                    ;----------------------------------------------------------------------
    1117                    ; 181 | VLIB_skip_test(desc);                                                  
    1118                    ;----------------------------------------------------------------------
    1119 00000178           $C$RL9:    ; CALL OCCURS {VLIB_skip_test} {0}  ; |181| 
    1120 00000178           $C$DW$L$VLIB_kalmanFilter_4x6_Predict_d$8$E:
    1121                    ;** --------------------------------------------------------------------------*
    1122 00000178           $C$DW$L$VLIB_kalmanFilter_4x6_Predict_d$9$B:
    1123                    ;          EXCLUSIVE CPU CYCLES: 6
    1124 00000178 0000aa10             B       .S1     $C$L9             ; |181| 
    1125                            .dwpsn  file "./../packages/ti/vlib/src/VLIB_kalmanFilter_4x6_Predict/VLIB_kalmanFilter_4x6_Pr
    1126                    ;----------------------------------------------------------------------
    1127                    ; 185 | align_free(KF_cn);                                                     
    1128                    ;----------------------------------------------------------------------
    1129                    $C$DW$142       .dwtag  DW_TAG_TI_branch
    1130                            .dwattr $C$DW$142, DW_AT_low_pc(0x00)
    1131                            .dwattr $C$DW$142, DW_AT_name("free")
    1132                            .dwattr $C$DW$142, DW_AT_TI_call
    1133 0000017c 00000010!            CALL    .S1     free              ; |185| 
    1134 00000180     cccd             LDW     .D2T1   *+SP(24),A4       ; |185| 
    1135 00000182     4c6e             NOP             3
    1136                            .dwpsn  file "./../packages/ti/vlib/src/VLIB_kalmanFilter_4x6_Predict/VLIB_kalmanFilter_4x6_Pr
    1137                               ; BRANCH OCCURS {$C$L9}           ; |181| 
    1138 00000184           $C$DW$L$VLIB_kalmanFilter_4x6_Predict_d$9$E:
    1139                    ;** --------------------------------------------------------------------------*
    1140 00000184           $C$L2:    
    1141                            .dwpsn  file "./../packages/ti/vlib/src/VLIB_kalmanFilter_4x6_Predict/VLIB_kalmanFilter_4x6_Pr
    1142 00000184           $C$DW$L$VLIB_kalmanFilter_4x6_Predict_d$10$B:
    1143                    ;          EXCLUSIVE CPU CYCLES: 3
    1144                    ;**     -----------------------g5:
    1145                    ;** 74  -----------------------    C$14 = (*U$14).numMeasurements;
    1146                    ;** 74  -----------------------    VLIB_fillBuffer((*U$14).testPattern, 1u, (void *)Z_buffer, (*U$14).
    1147                    ;** 80  -----------------------    memset((void *)KF, 0, K$22);
    1148                    ;** 81  -----------------------    memset((void *)KF_cn, 0, K$22);
    1149                    ;** 83  -----------------------    (*KF_cn).scaleFactor = C$13 = 5;
    1150                    ;** 83  -----------------------    (*KF).scaleFactor = C$13;
    1151                    ;**     -----------------------    K$80 = 1;
    1152                    ;**     -----------------------    K$60 = 3999;
    1153                    ;**     -----------------------    U$62 = (short *)KF_cn+72;
    1154                    ;**     -----------------------    U$69 = (short *)KF+72;
    1155                    ;**     -----------------------    K$73 = 3;
TMS320C6x Assembler PC v7.4.2 Thu Mar 19 12:43:01 2015

Tools Copyright (c) 1996-2012 Texas Instruments Incorporated
package/lib/Regression/regress_d_c/./../packages/ti/vlib/src/VLIB_kalmanFilter_4x6_Predict/VLIB_kalmanFilter_4x6_Predict_d.se66 PAGE   22

    1156                    ;**     -----------------------    K$93 = 2500;
    1157                    ;**     -----------------------    K$105 = 100;
    1158                    ;**     -----------------------    K$144 = 0;
    1159                    ;**     -----------------------    K$236 = 6080;
    1160                    ;** 86  -----------------------    L$1 = 6;
    1161                    ;** 86  -----------------------    i = 0;
    1162                    ;**     -----------------------    #pragma MUST_ITERATE(6, 6, 6)
    1163                    ;**     -----------------------    #pragma LOOP_FLAGS(4096u)
    1164                    ;**     -----------------------g6:
    1165                    ;** 88  -----------------------    C$12 = (short)i*7;
    1166                    ;** 88  -----------------------    U$62[C$12] = K$60;
    1167                    ;** 88  -----------------------    U$69[C$12] = K$60;
    1168                    ;** 89  -----------------------    *(C$12*2+(short *)KF_cn) = K$73;
    1169                    ;** 89  -----------------------    *(C$12*2+(short *)KF) = K$73;
    1170                    ;** 90  -----------------------    if ( i >= 4 ) goto g8;
    1171                    ;** 91  -----------------------    C$11 = (short)i*14;
    1172                    ;** 91  -----------------------    *(C$11+(short *)KF_cn+240) = K$80;
    1173                    ;** 91  -----------------------    *(C$11+(short *)KF+240) = K$80;
    1174                    ;**     -----------------------g8:
    1175                    ;** 86  -----------------------    ++i;
    1176                    ;** 86  -----------------------    if ( !__builtin_expect((long)!(L$1 = L$1-1), 0L) ) goto g6;
    1177                    ;** 95  -----------------------    C$8 = (short *)KF_cn+360;
    1178                            .dwpsn  file "./../packages/ti/vlib/src/VLIB_kalmanFilter_4x6_Predict/VLIB_kalmanFilter_4x6_Pr
    1179 00000184 050e9008             EXTU    .S1     A3,20,16,A10      ; |74| 
    1180 00000188 040e5008             EXTU    .S1     A3,18,16,A8       ; |74| 
    1181                    
    1182 0000018c 06000069!            MVKH    .S1     testPatternString,A12
    1183 00000190 0510a35b  ||         MVK     .L2     0x4,B10           ; |74| 
    1184 00000194     d046  ||         MV      .L1X    B0,A6             ; |74| 
    1185 00000196     8417  ||         MV      .D2     B8,B4             ; |74| 
    1186 00000198 01880162  ||         ADDKPC  .S2     $C$RL10,B3,0      ; |74| 
    1187                    
    1188                    $C$RL10:   ; CALL OCCURS {VLIB_fillBuffer} {0}  ; |74| 
    1189                    $C$DW$L$VLIB_kalmanFilter_4x6_Predict_d$10$E:
    1190                    ;** --------------------------------------------------------------------------*
    1191                    $C$DW$L$VLIB_kalmanFilter_4x6_Predict_d$11$B:
    1192                    ;          EXCLUSIVE CPU CYCLES: 12
    1193                    $C$DW$143       .dwtag  DW_TAG_TI_branch
    1194                            .dwattr $C$DW$143, DW_AT_low_pc(0x00)
    1195                            .dwattr $C$DW$143, DW_AT_name("memset")
    1196                            .dwattr $C$DW$143, DW_AT_TI_call
    1197                    
    1198 000001a0 10000013!            CALLP   .S2     memset,B3
    1199 000001a4     eccd  ||         LDW     .D2T1   *+SP(28),A4       ; |80| 
    1200 000001a6     0627  ||         ZERO    .L2     B4                ; |80| 
    1201 000001a8 03301fd8  ||         MV      .L1X    B12,A6            ; |80| 
    1202                    
    1203                            .dwpsn  file "./../packages/ti/vlib/src/VLIB_kalmanFilter_4x6_Predict/VLIB_kalmanFilter_4x6_Pr
    1204                    $C$RL11:   ; CALL OCCURS {memset} {0}        ; |80| 
    1205                    $C$DW$144       .dwtag  DW_TAG_TI_branch
    1206                            .dwattr $C$DW$144, DW_AT_low_pc(0x00)
    1207                            .dwattr $C$DW$144, DW_AT_name("memset")
    1208                            .dwattr $C$DW$144, DW_AT_TI_call
    1209                    
    1210 000001ac 10000013!            CALLP   .S2     memset,B3
TMS320C6x Assembler PC v7.4.2 Thu Mar 19 12:43:01 2015

Tools Copyright (c) 1996-2012 Texas Instruments Incorporated
package/lib/Regression/regress_d_c/./../packages/ti/vlib/src/VLIB_kalmanFilter_4x6_Predict/VLIB_kalmanFilter_4x6_Predict_d.se66 PAGE   23

    1211 000001b0     cccd  ||         LDW     .D2T1   *+SP(24),A4       ; |81| 
    1212 000001b2     0627  ||         ZERO    .L2     B4                ; |81| 
    1213 000001b4     d606  ||         MV      .L1X    B12,A6            ; |81| 
    1214                    
    1215                            .dwpsn  file "./../packages/ti/vlib/src/VLIB_kalmanFilter_4x6_Predict/VLIB_kalmanFilter_4x6_Pr
    1216 000001b6           $C$RL12:   ; CALL OCCURS {memset} {0}        ; |81| 
    1217 000001b6           $C$DW$L$VLIB_kalmanFilter_4x6_Predict_d$11$E:
    1218                    ;** --------------------------------------------------------------------------*
    1219 000001b6           $C$DW$L$VLIB_kalmanFilter_4x6_Predict_d$12$B:
    1220                    ;          EXCLUSIVE CPU CYCLES: 9
    1221 000001b6     dccd             LDW     .D2T2   *+SP(24),B4       ; |81| 
    1222                            .dwpsn  file "./../packages/ti/vlib/src/VLIB_kalmanFilter_4x6_Predict/VLIB_kalmanFilter_4x6_Pr
    1223 000001b8     fcdd             LDW     .D2T2   *+SP(28),B5       ; |83| 
    1224 000001ba     a626             MVK     .L1     0x5,A4            ; |83| 
    1225 000001c0     8752             MVK     .S1     196,A6            ; |83| 
    1226 000001c2     a346             MV      .L1     A6,A5             ; |83| 
    1227 000001c4     7246             MV      .L1X    B4,A3             ; |83| 
    1228                    
    1229 000001c8 020cca74             STW     .D1T1   A4,*+A3[A6]       ; |83| 
    1230 000001c6     fec6  ||         MV      .L1X    B5,A31
    1231                    
    1232 000001cc 027caa74             STW     .D1T1   A4,*+A31[A5]      ; |83| 
    1233                    
    1234 000001d0 04bcc2e5             LDW     .D2T1   *+SP(24),A9
    1235 000001d4 0f90a35b  ||         MVK     .L2     4,B31             ; |86| 
    1236                    
    1237 000001e0           $C$DW$L$VLIB_kalmanFilter_4x6_Predict_d$12$E:
    1238                    ;*----------------------------------------------------------------------------*
    1239                    ;*   SOFTWARE PIPELINE INFORMATION
    1240                    ;*
    1241                    ;*      Loop found in file               : ./../packages/ti/vlib/src/VLIB_kalmanFilter_4x6_Predict/VLI
    1242                    ;*      Loop source line                 : 86
    1243                    ;*      Loop opening brace source line   : 86
    1244                    ;*      Loop closing brace source line   : 93
    1245                    ;*      Known Minimum Trip Count         : 6                    
    1246                    ;*      Known Maximum Trip Count         : 6                    
    1247                    ;*      Known Max Trip Count Factor      : 6
    1248                    ;*      Loop Carried Dependency Bound(^) : 3
    1249                    ;*      Unpartitioned Resource Bound     : 3
    1250                    ;*      Partitioned Resource Bound(*)    : 3
    1251                    ;*      Resource Partition:
    1252                    ;*                                A-side   B-side
    1253                    ;*      .L units                     1        0     
    1254                    ;*      .S units                     0        0     
    1255                    ;*      .D units                     3*       3*    
    1256                    ;*      .M units                     2        0     
    1257                    ;*      .X cross paths               0        1     
    1258                    ;*      .T address paths             3*       3*    
    1259                    ;*      Long read paths              0        0     
    1260                    ;*      Long write paths             0        0     
    1261                    ;*      Logical  ops (.LS)           0        0     (.L or .S unit)
    1262                    ;*      Addition ops (.LSD)          4        1     (.L or .S or .D unit)
    1263                    ;*      Bound(.L .S .LS)             1        0     
    1264                    ;*      Bound(.L .S .D .LS .LSD)     3*       2     
    1265                    ;*
TMS320C6x Assembler PC v7.4.2 Thu Mar 19 12:43:01 2015

Tools Copyright (c) 1996-2012 Texas Instruments Incorporated
package/lib/Regression/regress_d_c/./../packages/ti/vlib/src/VLIB_kalmanFilter_4x6_Predict/VLIB_kalmanFilter_4x6_Predict_d.se66 PAGE   24

    1266                    ;*      Searching for software pipeline schedule at ...
    1267                    ;*         ii = 3  Schedule found with 3 iterations in parallel
    1268                    ;*
    1269                    ;*      Register Usage Table:
    1270                    ;*          +-----------------------------------------------------------------+
    1271                    ;*          |AAAAAAAAAAAAAAAAAAAAAAAAAAAAAAAA|BBBBBBBBBBBBBBBBBBBBBBBBBBBBBBBB|
    1272                    ;*          |00000000001111111111222222222233|00000000001111111111222222222233|
    1273                    ;*          |01234567890123456789012345678901|01234567890123456789012345678901|
    1274                    ;*          |--------------------------------+--------------------------------|
    1275                    ;*       0: |*  *******      **              |    ******                      |
    1276                    ;*       1: |*  *******      **              |    ******                      |
    1277                    ;*       2: |*  *******      **              |    ******                      |
    1278                    ;*          +-----------------------------------------------------------------+
    1279                    ;*
    1280                    ;*      Done
    1281                    ;*
    1282                    ;*      Loop will be splooped
    1283                    ;*      Collapsed epilog stages       : 0
    1284                    ;*      Collapsed prolog stages       : 0
    1285                    ;*      Minimum required memory pad   : 0 bytes
    1286                    ;*
    1287                    ;*      Minimum safe trip count       : 1
    1288                    ;*      Min. prof. trip count  (est.) : 2
    1289                    ;*
    1290                    ;*      Mem bank conflicts/iter(est.) : { min 0.000, est 0.375, max 3.000 }
    1291                    ;*      Mem bank perf. penalty (est.) : 11.1%
    1292                    ;*
    1293                    ;*      Effective ii                : { min 3.00, est 3.38, max 6.00 }
    1294                    ;*
    1295                    ;*
    1296                    ;*      Total cycles (est.)         : 6 + min_trip_cnt * 3 = 24        
    1297                    ;*----------------------------------------------------------------------------*
    1298                    ;*       SETUP CODE
    1299                    ;*
    1300                    ;*                  MV              A17,B6
    1301                    ;*                  MV              A9,B5
    1302                    ;*
    1303                    ;*        SINGLE SCHEDULED ITERATION
    1304                    ;*
    1305                    ;*        $C$C65:
    1306                    ;*   0              MPY     .M1     7,A7,A5           ; |88| 
    1307                    ;*   1              MPY     .M1     14,A7,A4          ; |91|  ^ 
    1308                    ;*   2              CMPLT   .L1     A7,4,A0           ; |90| 
    1309                    ;*     ||           ADD     .S1     1,A7,A7           ; |86|  ^ 
    1310                    ;*   3              MV      .L2X    A5,B4             ; |88| Define a twin register
    1311                    ;*     ||           ADD     .S1     A9,A4,A3          ; |91|  ^ 
    1312                    ;*     ||           ADD     .L1     A8,A4,A4          ; |91| 
    1313                    ;*   4              MV      .L1     A5,A3             ; |88| Split a long life(pre-sched)
    1314                    ;*     ||           STH     .D2T2   B9,*+B8[B4]       ; |88| 
    1315                    ;*     ||   [ A0]   STH     .D1T1   A16,*+A3[A6]      ; |91| 
    1316                    ;*   5              STH     .D2T2   B6,*+B5[B4]       ; |89| 
    1317                    ;*     ||   [ A0]   STH     .D1T1   A16,*+A4[A6]      ; |91| 
    1318                    ;*   6              STH     .D2T2   B9,*+B7[B4]       ; |88| 
    1319                    ;*     ||           STH     .D1T1   A17,*+A8[A3]      ; |89| 
    1320                    ;*     ||           SPBR            $C$C65
TMS320C6x Assembler PC v7.4.2 Thu Mar 19 12:43:01 2015

Tools Copyright (c) 1996-2012 Texas Instruments Incorporated
package/lib/Regression/regress_d_c/./../packages/ti/vlib/src/VLIB_kalmanFilter_4x6_Predict/VLIB_kalmanFilter_4x6_Predict_d.se66 PAGE   25

    1321                    ;*   7              NOP             2
    1322                    ;*   9              ; BRANCHCC OCCURS {$C$C65}        ; |86| 
    1323                    ;*----------------------------------------------------------------------------*
    1324 000001e0           $C$L3:    ; PIPED LOOP PROLOG
    1325                    ;          EXCLUSIVE CPU CYCLES: 7
    1326                    
    1327 000001e0     0d67             SPLOOPD 3       ;9                ; (P) 
    1328 000001e4 0a0be029  ||         MVK     .S1     0x17c0,A20
    1329 000001e2     07a6  ||         ZERO    .L1     A7
    1330 000001e8 06fc03a2  ||         MVC     .S2     B31,ILC
    1331                    
    1332                    ;** --------------------------------------------------------------------------*
    1333 000001ec           $C$L4:    ; PIPED LOOP KERNEL
    1334                            .dwpsn  file "./../packages/ti/vlib/src/VLIB_kalmanFilter_4x6_Predict/VLIB_kalmanFilter_4x6_Pr
    1335 000001ec           $C$DW$L$VLIB_kalmanFilter_4x6_Predict_d$14$B:
    1336                    ;          EXCLUSIVE CPU CYCLES: 3
    1337                    
    1338 000001ec 00130001             SPMASK          S1
    1339 000001f0 09803229  ||         MVK     .S1     0x64,A19
    1340 000001f4 029cec00  ||         MPY     .M1     7,A7,A5           ; |88| (P) <0,0> 
    1341                    
    1342 000001f8     2d67             SPMASK          L1,S1
    1343 00000200 0900a359  ||         ZERO    .L1     A18
    1344 000001fa     1b72  ||         MVK     .S1     120,A6            ; |91| 
    1345 00000204 021dcc00  ||         MPY     .M1     14,A7,A4          ; |91| (P) <0,1>  ^ 
    1346                    
    1347 00000208     ece6             SPMASK          D1,L2,D2
    1348 0000020a     6727  ||         MVK     .L2     0x3,B6
    1349 0000020c 03953ec3  ||         ADDAD   .D2     B5,9,B7
    1350 00000210     16d6  ||         MV      .D1X    B5,A8
    1351 00000212     27ae  ||         ADD     .S1     1,A7,A7           ; |86| (P) <0,2>  ^ 
    1352 00000214 001c88d8  ||         CMPLT   .L1     A7,4,A0           ; |90| (P) <0,2> 
    1353                    
    1354 00000218     ee66             SPMASK          D1,S2,D2
    1355 00000230 08002040  ||         MVK     .D1     0x1,A16
    1356 00000220 0487cfab  ||         MVK     .S2     0xf9f,B9
    1357 00000224 04113ec3  ||         ADDAD   .D2     B4,9,B8
    1358 00000228 02110079  ||         ADD     .L1     A8,A4,A4          ; |91| (P) <0,3> 
    1359 0000022c 019121e1  ||         ADD     .S1     A9,A4,A3          ; |91| (P) <0,3>  ^ 
    1360 0000021a     92c7  ||         MV      .L2X    A5,B4             ; |88| (P) <0,3> Define a twin register
    1361                    
    1362 00000234     2de6             SPMASK          S1,L2
    1363 00000236     3b4e  ||         MV      .S1X    B6,A17
    1364 00000238     b487  ||         MV      .L2X    A9,B5
    1365 0000023a     62c6  ||         MV      .L1     A5,A3             ; |88| (P) <0,4> Split a long life(pre-sched)
    1366 00000240 c80cca55  || [ A0]   STH     .D1T1   A16,*+A3[A6]      ; |91| (P) <0,4> 
    1367 00000244 04a08ad6  ||         STH     .D2T2   B9,*+B8[B4]       ; |88| (P) <0,4> 
    1368                    
    1369 00000248     2e66             SPMASK          S2
    1370 00000250 0804e22a  ||         MVK     .S2     0x9c4,B16
    1371 0000024c c810ca55  || [ A0]   STH     .D1T1   A16,*+A4[A6]      ; |91| (P) <0,5> 
    1372 0000024a     96e5  ||         STH     .D2T2   B6,*+B5[B4]       ; |89| (P) <0,5> 
    1373                    
    1374 00000254 00034001             SPKERNEL 0,0
    1375 00000258 049c8ad7  ||         STH     .D2T2   B9,*+B7[B4]       ; |88| <0,6> 
TMS320C6x Assembler PC v7.4.2 Thu Mar 19 12:43:01 2015

Tools Copyright (c) 1996-2012 Texas Instruments Incorporated
package/lib/Regression/regress_d_c/./../packages/ti/vlib/src/VLIB_kalmanFilter_4x6_Predict/VLIB_kalmanFilter_4x6_Predict_d.se66 PAGE   26

    1376 00000260 08a06a54  ||         STH     .D1T1   A17,*+A8[A3]      ; |89| <0,6> 
    1377                    
    1378 00000264           $C$DW$L$VLIB_kalmanFilter_4x6_Predict_d$14$E:
    1379                    ;** --------------------------------------------------------------------------*
    1380 00000264           $C$L5:    ; PIPED LOOP EPILOG
    1381                    ;          EXCLUSIVE CPU CYCLES: 4
    1382                    ;** 95  -----------------------    *C$8 = K$93;
    1383                    ;** 95  -----------------------    C$7 = (short *)KF+360;
    1384                    ;** 95  -----------------------    *C$7 = K$93;
    1385                    ;** 97  -----------------------    C$8[5] = K$93;
    1386                    ;** 97  -----------------------    C$7[5] = K$93;
    1387                    ;** 99  -----------------------    C$8[10] = K$105;
    1388                    ;** 99  -----------------------    C$7[10] = K$105;
    1389                    ;** 100 -----------------------    C$8[15] = K$105;
    1390                    ;** 100 -----------------------    C$7[15] = K$105;
    1391                    ;** 102 -----------------------    *((short *)KF_cn+4) = K$73;
    1392                    ;** 102 -----------------------    *((short *)KF+4) = K$73;
    1393                    ;** 103 -----------------------    *((short *)KF_cn+8) = K$80;
    1394                    ;** 103 -----------------------    *((short *)KF+8) = K$80;
    1395                    ;** 104 -----------------------    *((short *)KF_cn+18) = K$73;
    1396                    ;** 104 -----------------------    *((short *)KF+18) = K$73;
    1397                    ;** 105 -----------------------    *((short *)KF_cn+22) = K$80;
    1398                    ;** 105 -----------------------    *((short *)KF+22) = K$80;
    1399                    ;** 106 -----------------------    *((short *)KF_cn+32) = K$73;
    1400                    ;** 106 -----------------------    *((short *)KF+32) = K$73;
    1401                    ;** 107 -----------------------    *((short *)KF_cn+46) = K$73;
    1402                    ;** 107 -----------------------    *((short *)KF+46) = K$73;
    1403                    ;** 109 -----------------------    C$10 = (short *)KF_cn+288;
    1404                    ;** 109 -----------------------    *C$10 = K$144;
    1405                    ;** 109 -----------------------    C$9 = (short *)KF+288;
    1406                    ;** 109 -----------------------    *C$9 = K$144;
    1407                    ;** 110 -----------------------    C$10[1] = K$144;
    1408                    ;** 110 -----------------------    C$9[1] = K$144;
    1409                    ;** 111 -----------------------    C$10[2] = K$144;
    1410                    ;** 111 -----------------------    C$9[2] = K$144;
    1411                    ;** 112 -----------------------    C$10[6] = K$144;
    1412                    ;** 112 -----------------------    C$9[6] = K$144;
    1413                    ;** 113 -----------------------    C$10[7] = K$144;
    1414                    ;** 113 -----------------------    C$9[7] = K$144;
    1415                    ;** 114 -----------------------    C$10[8] = K$80;
    1416                    ;** 114 -----------------------    C$9[8] = K$80;
    1417                    ;** 115 -----------------------    C$10[12] = K$144;
    1418                    ;** 115 -----------------------    C$9[12] = K$144;
    1419                    ;** 116 -----------------------    C$10[13] = K$80;
    1420                    ;** 116 -----------------------    C$9[13] = K$80;
    1421                    ;** 117 -----------------------    C$10[14] = K$73;
    1422                    ;** 117 -----------------------    C$9[14] = K$73;
    1423                    ;** 119 -----------------------    C$10[21] = K$144;
    1424                    ;** 119 -----------------------    C$9[21] = K$144;
    1425                    ;** 120 -----------------------    C$10[22] = K$144;
    1426                    ;** 120 -----------------------    C$9[22] = K$144;
    1427                    ;** 121 -----------------------    C$10[23] = K$144;
    1428                    ;** 121 -----------------------    C$9[23] = K$144;
    1429                    ;** 122 -----------------------    C$10[27] = K$144;
    1430                    ;** 122 -----------------------    C$9[27] = K$144;
TMS320C6x Assembler PC v7.4.2 Thu Mar 19 12:43:01 2015

Tools Copyright (c) 1996-2012 Texas Instruments Incorporated
package/lib/Regression/regress_d_c/./../packages/ti/vlib/src/VLIB_kalmanFilter_4x6_Predict/VLIB_kalmanFilter_4x6_Predict_d.se66 PAGE   27

    1431                    ;** 123 -----------------------    C$10[28] = K$144;
    1432                    ;** 123 -----------------------    C$9[28] = K$144;
    1433                    ;** 124 -----------------------    C$10[29] = K$80;
    1434                    ;** 124 -----------------------    C$9[29] = K$80;
    1435                    ;** 125 -----------------------    C$8[-3] = K$144;
    1436                    ;** 125 -----------------------    C$7[-3] = K$144;
    1437                    ;** 126 -----------------------    C$8[-2] = K$80;
    1438                    ;** 126 -----------------------    C$7[-2] = K$80;
    1439                    ;** 127 -----------------------    C$8[-1] = K$73;
    1440                    ;** 127 -----------------------    C$7[-1] = K$73;
    1441                    ;** 130 -----------------------    U$238 = C$6 = (short *)KF_cn+216;
    1442                    ;** 130 -----------------------    *((short *)KF_cn+216) = K$236;
    1443                    ;** 130 -----------------------    U$240 = C$5 = (short *)KF+216;
    1444                    ;** 130 -----------------------    *((short *)KF+216) = K$236;
    1445                    ;** 131 -----------------------    C$6[1] = K$236;
    1446                    ;** 131 -----------------------    C$5[1] = K$236;
    1447                    ;** 132 -----------------------    C$6[2] = K$144;
    1448                    ;** 132 -----------------------    C$5[2] = K$144;
    1449                    ;** 133 -----------------------    C$6[3] = K$144;
    1450                    ;** 133 -----------------------    C$5[3] = K$144;
    1451                    ;** 134 -----------------------    C$6[4] = K$144;
    1452                    ;** 134 -----------------------    C$5[4] = K$144;
    1453                    ;** 135 -----------------------    C$6[5] = K$144;
    1454                    ;** 135 -----------------------    C$5[5] = K$144;
    1455                    ;** 137 -----------------------    if ( !(*U$14).numMeasurements ) goto g12;
    1456                            .dwpsn  file "./../packages/ti/vlib/src/VLIB_kalmanFilter_4x6_Predict/VLIB_kalmanFilter_4x6_Pr
    1457 00000264 0880902a             MVK     .S2     288,B17           ; |109| 
    1458                    
    1459 00000268 0f80b42b             MVK     .S2     360,B31           ; |95| 
    1460 0000026c 04441fdb  ||         MV      .L2X    A17,B8
    1461 00000270 02a406a0  ||         MV      .S1     A9,A5             ; |130| 
    1462                    
    1463 00000274 02a7f07b             ADD     .L2X    B31,A9,B5         ; |95| 
    1464 00000278 0fa00fd9  ||         MV      .L1     A8,A31            ; |130| 
    1465 0000027c 0344b1e0  ||         ADD     .S1X    B17,A5,A6         ; |109| 
    1466                    
    1467 00000280 03803629             MVK     .S1     108,A7            ; |130| 
    1468 00000284 0247f078  ||         ADD     .L1X    B17,A31,A4        ; |109| 
    1469                    
    1470                    ;** --------------------------------------------------------------------------*
    1471 00000288           $C$DW$L$VLIB_kalmanFilter_4x6_Predict_d$16$B:
    1472                    ;          EXCLUSIVE CPU CYCLES: 64
    1473                    
    1474 00000288     0324             STH     .D1T1   A18,*A6           ; |109| 
    1475 00000290 01803628  ||         MVK     .S1     108,A3            ; |130| 
    1476 0000028c 0f240fd9  ||         MV      .L1     A9,A30            ; |111| 
    1477 0000028a     1285  ||         STH     .D2T2   B16,*B5           ; |95| 
    1478                    
    1479 000002a0     0224             STH     .D1T1   A18,*A4           ; |109| 
    1480 00000298 0e80b429  ||         MVK     .S1     360,A29           ; |95| 
    1481 00000294 0da40fd9  ||         MV      .L1     A9,A27            ; |95| 
    1482                    
    1483 000002a2     2324             STH     .D1T1   A18,*+A6(2)       ; |110| 
    1484 000002a4 0ca40fd9  ||         MV      .L1     A9,A25            ; |121| 
    1485 000002a8     e48e  ||         MV      .S1     A9,A23            ; |124| 
TMS320C6x Assembler PC v7.4.2 Thu Mar 19 12:43:01 2015

Tools Copyright (c) 1996-2012 Texas Instruments Incorporated
package/lib/Regression/regress_d_c/./../packages/ti/vlib/src/VLIB_kalmanFilter_4x6_Predict/VLIB_kalmanFilter_4x6_Predict_d.se66 PAGE   28

    1486                    
    1487 000002aa     2224             STH     .D1T1   A18,*+A4(2)       ; |110| 
    1488 000002ac     a486  ||         MV      .L1     A9,A21            ; |135| 
    1489                    
    1490                            .dwpsn  file "./../packages/ti/vlib/src/VLIB_kalmanFilter_4x6_Predict/VLIB_kalmanFilter_4x6_Pr
    1491 000002ae     4324             STH     .D1T1   A18,*+A6(4)       ; |111| 
    1492 000002b0     4224             STH     .D1T1   A18,*+A4(4)       ; |111| 
    1493                            .dwpsn  file "./../packages/ti/vlib/src/VLIB_kalmanFilter_4x6_Predict/VLIB_kalmanFilter_4x6_Pr
    1494 000002b2     c324             STH     .D1T1   A18,*+A6(12)      ; |112| 
    1495 000002b4     c224             STH     .D1T1   A18,*+A4(12)      ; |112| 
    1496                            .dwpsn  file "./../packages/ti/vlib/src/VLIB_kalmanFilter_4x6_Predict/VLIB_kalmanFilter_4x6_Pr
    1497 000002b6     e324             STH     .D1T1   A18,*+A6(14)      ; |113| 
    1498 000002b8     e224             STH     .D1T1   A18,*+A4(14)      ; |113| 
    1499                            .dwpsn  file "./../packages/ti/vlib/src/VLIB_kalmanFilter_4x6_Predict/VLIB_kalmanFilter_4x6_Pr
    1500 000002ba     0b04             STH     .D1T1   A16,*+A6(16)      ; |114| 
    1501 000002c0     0a04             STH     .D1T1   A16,*+A4(16)      ; |114| 
    1502                            .dwpsn  file "./../packages/ti/vlib/src/VLIB_kalmanFilter_4x6_Predict/VLIB_kalmanFilter_4x6_Pr
    1503 000002c2     8b24             STH     .D1T1   A18,*+A6(24)      ; |115| 
    1504 000002c4     8a24             STH     .D1T1   A18,*+A4(24)      ; |115| 
    1505                            .dwpsn  file "./../packages/ti/vlib/src/VLIB_kalmanFilter_4x6_Predict/VLIB_kalmanFilter_4x6_Pr
    1506 000002c6     ab04             STH     .D1T1   A16,*+A6(26)      ; |116| 
    1507 000002c8 0811a254             STH     .D1T1   A16,*+A4(26)      ; |116| 
    1508                    
    1509 000002cc 0419c257             STH     .D1T2   B8,*+A6(28)       ; |117| 
    1510 000002d0 04bcc2f4  ||         STW     .D2T1   A9,*+SP(24)
    1511                    
    1512 000002d4 0411c257             STH     .D1T2   B8,*+A4(28)       ; |117| 
    1513 000002d8 043ce2f4  ||         STW     .D2T1   A8,*+SP(28)
    1514                    
    1515                            .dwpsn  file "./../packages/ti/vlib/src/VLIB_kalmanFilter_4x6_Predict/VLIB_kalmanFilter_4x6_Pr
    1516 000002e0 091aa254             STH     .D1T1   A18,*+A6(42)      ; |119| 
    1517 000002e4 0912a254             STH     .D1T1   A18,*+A4(42)      ; |119| 
    1518                            .dwpsn  file "./../packages/ti/vlib/src/VLIB_kalmanFilter_4x6_Predict/VLIB_kalmanFilter_4x6_Pr
    1519 000002e8 091ac254             STH     .D1T1   A18,*+A6(44)      ; |120| 
    1520                            .dwpsn  file "./../packages/ti/vlib/src/VLIB_kalmanFilter_4x6_Predict/VLIB_kalmanFilter_4x6_Pr
    1521 000002ec 0a14ea54             STH     .D1T1   A20,*+A5[A7]      ; |130| 
    1522                            .dwpsn  file "./../packages/ti/vlib/src/VLIB_kalmanFilter_4x6_Predict/VLIB_kalmanFilter_4x6_Pr
    1523 000002f0 0912c254             STH     .D1T1   A18,*+A4(44)      ; |120| 
    1524                            .dwpsn  file "./../packages/ti/vlib/src/VLIB_kalmanFilter_4x6_Predict/VLIB_kalmanFilter_4x6_Pr
    1525 000002f4 0a7c6a54             STH     .D1T1   A20,*+A31[A3]     ; |130| 
    1526                            .dwpsn  file "./../packages/ti/vlib/src/VLIB_kalmanFilter_4x6_Predict/VLIB_kalmanFilter_4x6_Pr
    1527 000002f8 091ae254             STH     .D1T1   A18,*+A6(46)      ; |121| 
    1528                    
    1529 000002fc 0e3ce2e5             LDW     .D2T1   *+SP(28),A28      ; |115| 
    1530 00000300 01977ec0  ||         ADDAD   .D1     A5,27,A3          ; |130| 
    1531                    
    1532 00000304 0912e254             STH     .D1T1   A18,*+A4(46)      ; |121| 
    1533                    
    1534 00000308     ecfd             LDW     .D2T1   *+SP(28),A7       ; |114| 
    1535 0000030c 047f7ec0  ||         ADDAD   .D1     A31,27,A8         ; |130| 
    1536 0000030a     55c7  ||         MV      .L2X    A3,B10            ; |130| 
    1537                    
    1538                            .dwpsn  file "./../packages/ti/vlib/src/VLIB_kalmanFilter_4x6_Predict/VLIB_kalmanFilter_4x6_Pr
    1539 00000310 091b6254             STH     .D1T1   A18,*+A6(54)      ; |122| 
    1540                    
TMS320C6x Assembler PC v7.4.2 Thu Mar 19 12:43:01 2015

Tools Copyright (c) 1996-2012 Texas Instruments Incorporated
package/lib/Regression/regress_d_c/./../packages/ti/vlib/src/VLIB_kalmanFilter_4x6_Predict/VLIB_kalmanFilter_4x6_Predict_d.se66 PAGE   29

    1541 00000314 0d3ce2e5             LDW     .D2T1   *+SP(28),A26      ; |119| 
    1542 00000318 04144257  ||         STH     .D1T2   B8,*+A5(4)        ; |102| 
    1543 00000320 06a01fda  ||         MV      .L2X    A8,B13            ; |130| 
    1544                    
    1545 00000324 002cc205             LDHU    .D1T1   *+A11(12),A0      ; |137| 
    1546 00000328 02f3a078  ||         ADD     .L1     A29,A28,A5        ; |95| 
    1547                    
    1548 0000032c 09136254             STH     .D1T1   A18,*+A4(54)      ; |122| 
    1549                            .dwpsn  file "./../packages/ti/vlib/src/VLIB_kalmanFilter_4x6_Predict/VLIB_kalmanFilter_4x6_Pr
    1550 00000330 0a0c2254             STH     .D1T1   A20,*+A3(2)       ; |131| 
    1551                            .dwpsn  file "./../packages/ti/vlib/src/VLIB_kalmanFilter_4x6_Predict/VLIB_kalmanFilter_4x6_Pr
    1552 00000334 091b8254             STH     .D1T1   A18,*+A6(56)      ; |123| 
    1553                            .dwpsn  file "./../packages/ti/vlib/src/VLIB_kalmanFilter_4x6_Predict/VLIB_kalmanFilter_4x6_Pr
    1554 00000338 0a202254             STH     .D1T1   A20,*+A8(2)       ; |131| 
    1555                    
    1556 0000033c 0c3ce2e5             LDW     .D2T1   *+SP(28),A24      ; |123| 
    1557 00000340 047c4257  ||         STH     .D1T2   B8,*+A31(4)       ; |102| 
    1558 00000344 c5000028! || [ A0]   MVKL    .S1     cycles,A10
    1559                    
    1560                            .dwpsn  file "./../packages/ti/vlib/src/VLIB_kalmanFilter_4x6_Predict/VLIB_kalmanFilter_4x6_Pr
    1561 00000348 09138254             STH     .D1T1   A18,*+A4(56)      ; |123| 
    1562                            .dwpsn  file "./../packages/ti/vlib/src/VLIB_kalmanFilter_4x6_Predict/VLIB_kalmanFilter_4x6_Pr
    1563 0000034c 090c4254             STH     .D1T1   A18,*+A3(4)       ; |132| 
    1564                    
    1565 00000350     eced             LDW     .D2T1   *+SP(28),A22      ; |137| 
    1566 00000352     1284  ||         STH     .D1T2   B16,*A5           ; |95| 
    1567                    
    1568 00000354 08788255             STH     .D1T1   A16,*+A30(8)      ; |103| 
    1569 00000358 0814a2d6  ||         STH     .D2T2   B16,*+B5(10)      ; |97| 
    1570                    
    1571                            .dwpsn  file "./../packages/ti/vlib/src/VLIB_kalmanFilter_4x6_Predict/VLIB_kalmanFilter_4x6_Pr
    1572 00000360 081ba254             STH     .D1T1   A16,*+A6(58)      ; |124| 
    1573                            .dwpsn  file "./../packages/ti/vlib/src/VLIB_kalmanFilter_4x6_Predict/VLIB_kalmanFilter_4x6_Pr
    1574 00000364 081c8254             STH     .D1T1   A16,*+A7(8)       ; |103| 
    1575                    
    1576 00000368 046d2257             STH     .D1T2   B8,*+A27(18)      ; |104| 
    1577 0000036c 013ce2e4  ||         LDW     .D2T1   *+SP(28),A2       ; |100| 
    1578                    
    1579                            .dwpsn  file "./../packages/ti/vlib/src/VLIB_kalmanFilter_4x6_Predict/VLIB_kalmanFilter_4x6_Pr
    1580 00000370 09204254             STH     .D1T1   A18,*+A8(4)       ; |132| 
    1581                            .dwpsn  file "./../packages/ti/vlib/src/VLIB_kalmanFilter_4x6_Predict/VLIB_kalmanFilter_4x6_Pr
    1582 00000374 0813a254             STH     .D1T1   A16,*+A4(58)      ; |124| 
    1583                    
    1584 00000378 04692257             STH     .D1T2   B8,*+A26(18)      ; |104| 
    1585 0000037c c23d42e4  || [ A0]   LDW     .D2T1   *+SP(40),A4
    1586                    
    1587                            .dwpsn  file "./../packages/ti/vlib/src/VLIB_kalmanFilter_4x6_Predict/VLIB_kalmanFilter_4x6_Pr
    1588 00000380 090c6254             STH     .D1T1   A18,*+A3(6)       ; |133| 
    1589                    
    1590 00000384 0814a257             STH     .D1T2   B16,*+A5(10)      ; |97| 
    1591 00000388 091460d4  ||         STH     .D2T1   A18,*-B5(6)       ; |125| 
    1592                    
    1593                            .dwpsn  file "./../packages/ti/vlib/src/VLIB_kalmanFilter_4x6_Predict/VLIB_kalmanFilter_4x6_Pr
    1594 0000038c 08656254             STH     .D1T1   A16,*+A25(22)     ; |105| 
    1595                            .dwpsn  file "./../packages/ti/vlib/src/VLIB_kalmanFilter_4x6_Predict/VLIB_kalmanFilter_4x6_Pr
TMS320C6x Assembler PC v7.4.2 Thu Mar 19 12:43:01 2015

Tools Copyright (c) 1996-2012 Texas Instruments Incorporated
package/lib/Regression/regress_d_c/./../packages/ti/vlib/src/VLIB_kalmanFilter_4x6_Predict/VLIB_kalmanFilter_4x6_Predict_d.se66 PAGE   30

    1596 00000390 09206254             STH     .D1T1   A18,*+A8(6)       ; |133| 
    1597                            .dwpsn  file "./../packages/ti/vlib/src/VLIB_kalmanFilter_4x6_Predict/VLIB_kalmanFilter_4x6_Pr
    1598 00000394 09146054             STH     .D1T1   A18,*-A5(6)       ; |125| 
    1599                            .dwpsn  file "./../packages/ti/vlib/src/VLIB_kalmanFilter_4x6_Predict/VLIB_kalmanFilter_4x6_Pr
    1600 00000398 090c8254             STH     .D1T1   A18,*+A3(8)       ; |134| 
    1601                            .dwpsn  file "./../packages/ti/vlib/src/VLIB_kalmanFilter_4x6_Predict/VLIB_kalmanFilter_4x6_Pr
    1602 0000039c 08616254             STH     .D1T1   A16,*+A24(22)     ; |105| 
    1603                    
    1604 000003a0 099542d5             STH     .D2T1   A19,*+B5(20)      ; |99| 
    1605 000003a4 045e0256  ||         STH     .D1T2   B8,*+A23(32)      ; |106| 
    1606                    
    1607 000003a8 081440d5             STH     .D2T1   A16,*-B5(4)       ; |126| 
    1608 000003ac 045a0256  ||         STH     .D1T2   B8,*+A22(32)      ; |106| 
    1609                    
    1610                            .dwpsn  file "./../packages/ti/vlib/src/VLIB_kalmanFilter_4x6_Predict/VLIB_kalmanFilter_4x6_Pr
    1611 000003b0 09954254             STH     .D1T1   A19,*+A5(20)      ; |99| 
    1612                            .dwpsn  file "./../packages/ti/vlib/src/VLIB_kalmanFilter_4x6_Predict/VLIB_kalmanFilter_4x6_Pr
    1613 000003b4 09208254             STH     .D1T1   A18,*+A8(8)       ; |134| 
    1614                    
    1615 000003b8 041420d7             STH     .D2T2   B8,*-B5(2)        ; |127| 
    1616 000003bc 08144054  ||         STH     .D1T1   A16,*-A5(4)       ; |126| 
    1617                    
    1618 000003c0 0995e2d5             STH     .D2T1   A19,*+B5(30)      ; |100| 
    1619 000003c4 0456e257  ||         STH     .D1T2   B8,*+A21(46)      ; |107| 
    1620 000003c8 d0004810  || [!A0]   B       .S1     $C$L7             ; |137| 
    1621                    
    1622                            .dwpsn  file "./../packages/ti/vlib/src/VLIB_kalmanFilter_4x6_Predict/VLIB_kalmanFilter_4x6_Pr
    1623 000003cc 090ca254             STH     .D1T1   A18,*+A3(10)      ; |135| 
    1624                            .dwpsn  file "./../packages/ti/vlib/src/VLIB_kalmanFilter_4x6_Predict/VLIB_kalmanFilter_4x6_Pr
    1625 000003d0 04142056             STH     .D1T2   B8,*-A5(2)        ; |127| 
    1626                            .dwpsn  file "./../packages/ti/vlib/src/VLIB_kalmanFilter_4x6_Predict/VLIB_kalmanFilter_4x6_Pr
    1627 000003d4 0995e254             STH     .D1T1   A19,*+A5(30)      ; |100| 
    1628                            .dwpsn  file "./../packages/ti/vlib/src/VLIB_kalmanFilter_4x6_Predict/VLIB_kalmanFilter_4x6_Pr
    1629 000003d8 040ae256             STH     .D1T2   B8,*+A2(46)       ; |107| 
    1630                            .dwpsn  file "./../packages/ti/vlib/src/VLIB_kalmanFilter_4x6_Predict/VLIB_kalmanFilter_4x6_Pr
    1631 000003dc 0920a254             STH     .D1T1   A18,*+A8(10)      ; |135| 
    1632                            .dwpsn  file "./../packages/ti/vlib/src/VLIB_kalmanFilter_4x6_Predict/VLIB_kalmanFilter_4x6_Pr
    1633                               ; BRANCHCC OCCURS {$C$L7}         ; |137| 
    1634 000003e0           $C$DW$L$VLIB_kalmanFilter_4x6_Predict_d$16$E:
    1635                    ;** --------------------------------------------------------------------------*
    1636 000003e0           $C$DW$L$VLIB_kalmanFilter_4x6_Predict_d$17$B:
    1637                    ;          EXCLUSIVE CPU CYCLES: 1
    1638                    ;**     -----------------------    U$283 = &Z_buffer[-4];
    1639                    ;**     -----------------------    K$297 = 128.0F;
    1640                    ;**     -----------------------    K$285 = 32.0F;
    1641                    ;**     -----------------------    K$275 = &cycles[0];
    1642                    ;** 137 -----------------------    i = 0;
    1643                    ;**     -----------------------    #pragma LOOP_FLAGS(5120u)
    1644                    
    1645 000003e0 0780a359             ZERO    .L1     A15               ; |137| 
    1646 000003e4 05000069! ||         MVKH    .S1     cycles,A10
    1647 000003e8 061209c0  ||         SUB     .D1     A4,16,A12
    1648                    
    1649 000003ec           $C$DW$L$VLIB_kalmanFilter_4x6_Predict_d$17$E:
    1650                    ;*----------------------------------------------------------------------------*
TMS320C6x Assembler PC v7.4.2 Thu Mar 19 12:43:01 2015

Tools Copyright (c) 1996-2012 Texas Instruments Incorporated
package/lib/Regression/regress_d_c/./../packages/ti/vlib/src/VLIB_kalmanFilter_4x6_Predict/VLIB_kalmanFilter_4x6_Predict_d.se66 PAGE   31

    1651                    ;*   SOFTWARE PIPELINE INFORMATION
    1652                    ;*      Disqualified loop: Loop contains a call
    1653                    ;*      Disqualified loop: Loop contains non-pipelinable instructions
    1654                    ;*      Disqualified loop: Loop contains a call
    1655                    ;*      Disqualified loop: Loop contains non-pipelinable instructions
    1656                    ;*      Disqualified loop: Loop contains a call
    1657                    ;*      Disqualified loop: Loop contains non-pipelinable instructions
    1658                    ;*      Disqualified loop: Loop contains non-pipelinable instructions
    1659                    ;*      Disqualified loop: Loop contains non-pipelinable instructions
    1660                    ;*      Disqualified loop: Loop contains a call
    1661                    ;*      Disqualified loop: Loop contains non-pipelinable instructions
    1662                    ;*      Disqualified loop: Loop contains non-pipelinable instructions
    1663                    ;*      Disqualified loop: Loop contains non-pipelinable instructions
    1664                    ;*      Disqualified loop: Loop contains a call
    1665                    ;*      Disqualified loop: Loop contains non-pipelinable instructions
    1666                    ;*      Disqualified loop: Loop contains a call
    1667                    ;*      Disqualified loop: Loop contains non-pipelinable instructions
    1668                    ;*      Disqualified loop: Loop contains a call
    1669                    ;*      Disqualified loop: Loop contains non-pipelinable instructions
    1670                    ;*      Disqualified loop: Loop contains a call
    1671                    ;*      Disqualified loop: Loop contains non-pipelinable instructions
    1672                    ;*      Disqualified loop: Loop contains non-pipelinable instructions
    1673                    ;*      Disqualified loop: Loop contains non-pipelinable instructions
    1674                    ;*      Disqualified loop: Loop contains a call
    1675                    ;*      Disqualified loop: Loop contains non-pipelinable instructions
    1676                    ;*      Disqualified loop: Loop contains non-pipelinable instructions
    1677                    ;*      Disqualified loop: Loop contains non-pipelinable instructions
    1678                    ;*      Disqualified loop: Loop contains a call
    1679                    ;*      Disqualified loop: Loop contains non-pipelinable instructions
    1680                    ;*      Disqualified loop: Loop contains a call
    1681                    ;*      Disqualified loop: Loop contains non-pipelinable instructions
    1682                    ;*      Disqualified loop: Loop contains control code
    1683                    ;*      Disqualified loop: Bad loop structure
    1684                    ;*----------------------------------------------------------------------------*
    1685 000003ec           $C$L6:    
    1686                            .dwpsn  file "./../packages/ti/vlib/src/VLIB_kalmanFilter_4x6_Predict/VLIB_kalmanFilter_4x6_Pr
    1687 000003ec           $C$DW$L$VLIB_kalmanFilter_4x6_Predict_d$18$B:
    1688                    ;          EXCLUSIVE CPU CYCLES: 6
    1689                    ;**     -----------------------g11:
    1690                    ;** 137 -----------------------    act_kernel = 0;  // [15]
    1691                    ;** 140 -----------------------    VLIB_cache_inval();  // [15]
    1692                    ;** 143 -----------------------    initStack(getSP());  // [15]
    1693                    ;** 146 -----------------------    beg_count = _itoll(TSCH, TSCL);  // [15]
    1694                    ;** 141 -----------------------    VLIB_kalmanFilter_4x6_Predict(KF);
    1695                    ;** 153 -----------------------    v$2 = _itoll(TSCH, TSCL);  // [16]
    1696                    ;** 153 -----------------------    end_count = v$2;  // [16]
    1697                    ;** 156 -----------------------    C$4 = act_kernel;  // [16]
    1698                    ;** 156 -----------------------    *((C$4<<3)+K$275) = *((C$4<<3)+K$275)+(v$2-(beg_count+overhead));  
    1699                    ;** 159 -----------------------    setStackDepth();  // [16]
    1700                    ;** 137 -----------------------    act_kernel = 1;  // [15]
    1701                    ;** 140 -----------------------    VLIB_cache_inval();  // [15]
    1702                    ;** 143 -----------------------    initStack(getSP());  // [15]
    1703                    ;** 146 -----------------------    beg_count = _itoll(TSCH, TSCL);  // [15]
    1704                    ;** 146 -----------------------    VLIB_kalmanFilter_4x6_Predict_cn(KF_cn);
    1705                    ;** 153 -----------------------    v$2 = _itoll(TSCH, TSCL);  // [16]
TMS320C6x Assembler PC v7.4.2 Thu Mar 19 12:43:01 2015

Tools Copyright (c) 1996-2012 Texas Instruments Incorporated
package/lib/Regression/regress_d_c/./../packages/ti/vlib/src/VLIB_kalmanFilter_4x6_Predict/VLIB_kalmanFilter_4x6_Predict_d.se66 PAGE   32

    1706                    ;** 153 -----------------------    end_count = v$2;  // [16]
    1707                    ;** 156 -----------------------    C$3 = act_kernel;  // [16]
    1708                    ;** 156 -----------------------    *((C$3<<3)+K$275) = *((C$3<<3)+K$275)+(v$2-(beg_count+overhead));  
    1709                    ;** 159 -----------------------    setStackDepth();  // [16]
    1710                    ;** 150 -----------------------    *Z = (short)(*(U$283 += 4)*K$285);
    1711                    ;** 151 -----------------------    Z[1] = (short)(U$283[1]*K$285);
    1712                    ;** 152 -----------------------    Z[2] = (short)(U$283[2]*K$297);
    1713                    ;** 153 -----------------------    Z[3] = (short)(U$283[3]*K$297);
    1714                    ;** 155 -----------------------    VLIB_kalmanFilter_4x6_Correct_cn(KF, Z, Residual);
    1715                            .dwpsn  file ".\..\packages\ti\vlib\src\VLIB_kalmanFilter_4x6_Predict\..\common\VLIB_profile.h
    1716                    $C$DW$145       .dwtag  DW_TAG_TI_branch
    1717                            .dwattr $C$DW$145, DW_AT_low_pc(0x00)
    1718                            .dwattr $C$DW$145, DW_AT_name("VLIB_cache_inval")
    1719                            .dwattr $C$DW$145, DW_AT_TI_call
    1720 000003ec 00000010!            CALL    .S1     VLIB_cache_inval  ; |140| 
    1721 000003f0 0280002a!            MVKL    .S2     act_kernel,B5
    1722 000003f4 0280006a!            MVKH    .S2     act_kernel,B5
    1723                            .dwpsn  file ".\..\packages\ti\vlib\src\VLIB_kalmanFilter_4x6_Predict\..\common\VLIB_profile.h
    1724 000003f8     0627             ZERO    .L2     B4                ; |137| 
    1725 000003fa     10c5             STW     .D2T2   B4,*B5            ; |137| 
    1726                            .dwpsn  file ".\..\packages\ti\vlib\src\VLIB_kalmanFilter_4x6_Predict\..\common\VLIB_profile.h
    1727 00000400 01810162             ADDKPC  .S2     $C$RL13,B3,0      ; |140| 
    1728                    $C$RL13:   ; CALL OCCURS {VLIB_cache_inval} {0}  ; |140| 
    1729                    $C$DW$L$VLIB_kalmanFilter_4x6_Predict_d$18$E:
    1730                    ;** --------------------------------------------------------------------------*
    1731                    $C$DW$L$VLIB_kalmanFilter_4x6_Predict_d$19$B:
    1732                    ;          EXCLUSIVE CPU CYCLES: 162
    1733                    $C$DW$146       .dwtag  DW_TAG_TI_branch
    1734                            .dwattr $C$DW$146, DW_AT_low_pc(0x00)
    1735                            .dwattr $C$DW$146, DW_AT_name("getSP")
    1736                            .dwattr $C$DW$146, DW_AT_TI_call
    1737 00000404 10000012!            CALLP   .S2     getSP,B3
    1738                            .dwpsn  file ".\..\packages\ti\vlib\src\VLIB_kalmanFilter_4x6_Predict\..\common\VLIB_profile.h
    1739                    $C$RL14:   ; CALL OCCURS {getSP} {0}         ; |143| 
    1740                    $C$DW$147       .dwtag  DW_TAG_TI_branch
    1741                            .dwattr $C$DW$147, DW_AT_low_pc(0x00)
    1742                            .dwattr $C$DW$147, DW_AT_name("initStack")
    1743                            .dwattr $C$DW$147, DW_AT_TI_call
    1744 00000408 10000012!            CALLP   .S2     initStack,B3
    1745 0000040c           $C$RL15:   ; CALL OCCURS {initStack} {0}     ; |143| 
    1746                            .dwpsn  file ".\..\packages\ti\vlib\src\VLIB_kalmanFilter_4x6_Predict\..\common\VLIB_profile.h
    1747 0000040c 032803e2             MVC     .S2     TSCL,B6           ; |146| 
    1748 00000410 022c03e2             MVC     .S2     TSCH,B4           ; |146| 
    1749 00000414 0280002a!            MVKL    .S2     beg_count,B5
    1750                    
    1751 00000418     eccd             LDW     .D2T1   *+SP(28),A4       ; |141| 
    1752 00000420 0280006a! ||         MVKH    .S2     beg_count,B5
    1753 0000041a     e247  ||         MV      .L2     B4,B7             ; |146| 
    1754                    
    1755                    $C$DW$148       .dwtag  DW_TAG_TI_branch
    1756                            .dwattr $C$DW$148, DW_AT_low_pc(0x00)
    1757                            .dwattr $C$DW$148, DW_AT_name("VLIB_kalmanFilter_4x6_Predict")
    1758                            .dwattr $C$DW$148, DW_AT_TI_call
    1759                    
    1760 00000424 10000013!            CALLP   .S2     VLIB_kalmanFilter_4x6_Predict,B3
TMS320C6x Assembler PC v7.4.2 Thu Mar 19 12:43:01 2015

Tools Copyright (c) 1996-2012 Texas Instruments Incorporated
package/lib/Regression/regress_d_c/./../packages/ti/vlib/src/VLIB_kalmanFilter_4x6_Predict/VLIB_kalmanFilter_4x6_Predict_d.se66 PAGE   33

    1761 00000428 031403c6  ||         STDW    .D2T2   B7:B6,*B5         ; |146| 
    1762                    
    1763                            .dwpsn  file "./../packages/ti/vlib/src/VLIB_kalmanFilter_4x6_Predict/VLIB_kalmanFilter_4x6_Pr
    1764 0000042c           $C$RL16:   ; CALL OCCURS {VLIB_kalmanFilter_4x6_Predict} {0}  ; |141| 
    1765                            .dwpsn  file ".\..\packages\ti\vlib\src\VLIB_kalmanFilter_4x6_Predict\..\common\VLIB_profile.h
    1766 0000042c 032803e2             MVC     .S2     TSCL,B6           ; |153| 
    1767 00000430 022c03e2             MVC     .S2     TSCH,B4           ; |153| 
    1768 00000434 02000028!            MVKL    .S1     beg_count,A4
    1769 00000438 01800028!            MVKL    .S1     act_kernel,A3
    1770                    
    1771 0000043c 01800069!            MVKH    .S1     act_kernel,A3
    1772 00000440 0280002a! ||         MVKL    .S2     overhead,B5
    1773                    
    1774 00000444 018c0265             LDW     .D1T1   *A3,A3            ; |156| 
    1775 00000448 0280006b! ||         MVKH    .S2     overhead,B5
    1776 0000044c 02000068! ||         MVKH    .S1     beg_count,A4
    1777                    
    1778 00000454     004c             LDDW    .D1T1   *A4,A5:A4         ; |156| 
    1779 00000450 041403e7  ||         LDDW    .D2T2   *B5,B9:B8         ; |156| 
    1780                    
    1781 00000456     e247             MV      .L2     B4,B7             ; |153| 
    1782 00000458 04000028!            MVKL    .S1     end_count,A8
    1783 00000460 04000068!            MVKH    .S1     end_count,A8
    1784                            .dwpsn  file ".\..\packages\ti\vlib\src\VLIB_kalmanFilter_4x6_Predict\..\common\VLIB_profile.h
    1785 00000464 03286b64             LDDW    .D1T1   *+A10[A3],A7:A6   ; |156| 
    1786 00000468 0211157a             ADDU    .L2X    B8,A4,B5:B4       ; |156| 
    1787                    
    1788 0000046c 0224a1e3             ADD     .S2     B5,B9,B4          ; |156| 
    1789 00000470 0410c5fa  ||         SUBU    .L2     B6,B4,B9:B8       ; |156| 
    1790                    
    1791 00000474     92c1             ADD     .L2X    B4,A5,B4          ; |156| 
    1792                    
    1793 00000476     9406             MV      .L1X    B8,A4             ; |156| 
    1794 00000480     ea41  ||         SUB     .L2     B7,B4,B4          ; |156| 
    1795 00000478 02a7184b  ||         EXT     .S2     B9,24,24,B5       ; |156| 
    1796                    
    1797 00000484 0210c578             ADDU    .L1     A6,A4,A5:A4       ; |156| 
    1798 00000482     82c1  ||         ADD     .L2     B4,B5,B4          ; |156| 
    1799                    
    1800 00000488     a3d0             ADD     .L1     A5,A7,A5          ; |156| 
    1801                    
    1802 0000048a     b250             ADD     .L1X    A5,B4,A5          ; |156| 
    1803 0000048c 03200346  ||         STDW    .D1T2   B7:B6,*A8         ; |153| 
    1804                    
    1805                    $C$DW$149       .dwtag  DW_TAG_TI_branch
    1806                            .dwattr $C$DW$149, DW_AT_low_pc(0x00)
    1807                            .dwattr $C$DW$149, DW_AT_name("setStackDepth")
    1808                            .dwattr $C$DW$149, DW_AT_TI_call
    1809                    
    1810 00000490 10000013!            CALLP   .S2     setStackDepth,B3
    1811 00000494 02286b44  ||         STDW    .D1T1   A5:A4,*+A10[A3]   ; |156| 
    1812                    
    1813                            .dwpsn  file ".\..\packages\ti\vlib\src\VLIB_kalmanFilter_4x6_Predict\..\common\VLIB_profile.h
    1814 00000498           $C$RL17:   ; CALL OCCURS {setStackDepth} {0}  ; |159| 
    1815 00000498 0280002a!            MVKL    .S2     act_kernel,B5
TMS320C6x Assembler PC v7.4.2 Thu Mar 19 12:43:01 2015

Tools Copyright (c) 1996-2012 Texas Instruments Incorporated
package/lib/Regression/regress_d_c/./../packages/ti/vlib/src/VLIB_kalmanFilter_4x6_Predict/VLIB_kalmanFilter_4x6_Predict_d.se66 PAGE   34

    1816                    
    1817 000004a0 0280006b!            MVKH    .S2     act_kernel,B5
    1818 000004a4     2627  ||         MVK     .L2     1,B4              ; |137| 
    1819                    
    1820                    $C$DW$150       .dwtag  DW_TAG_TI_branch
    1821                            .dwattr $C$DW$150, DW_AT_low_pc(0x00)
    1822                            .dwattr $C$DW$150, DW_AT_name("VLIB_cache_inval")
    1823                            .dwattr $C$DW$150, DW_AT_TI_call
    1824                    
    1825 000004a8 10000012!            CALLP   .S2     VLIB_cache_inval,B3
    1826 000004a6     10c5  ||         STW     .D2T2   B4,*B5            ; |137| 
    1827                    
    1828                            .dwpsn  file ".\..\packages\ti\vlib\src\VLIB_kalmanFilter_4x6_Predict\..\common\VLIB_profile.h
    1829                    $C$RL18:   ; CALL OCCURS {VLIB_cache_inval} {0}  ; |140| 
    1830                    $C$DW$151       .dwtag  DW_TAG_TI_branch
    1831                            .dwattr $C$DW$151, DW_AT_low_pc(0x00)
    1832                            .dwattr $C$DW$151, DW_AT_name("getSP")
    1833                            .dwattr $C$DW$151, DW_AT_TI_call
    1834 000004ac 10000012!            CALLP   .S2     getSP,B3
    1835                            .dwpsn  file ".\..\packages\ti\vlib\src\VLIB_kalmanFilter_4x6_Predict\..\common\VLIB_profile.h
    1836                    $C$RL19:   ; CALL OCCURS {getSP} {0}         ; |143| 
    1837                    $C$DW$152       .dwtag  DW_TAG_TI_branch
    1838                            .dwattr $C$DW$152, DW_AT_low_pc(0x00)
    1839                            .dwattr $C$DW$152, DW_AT_name("initStack")
    1840                            .dwattr $C$DW$152, DW_AT_TI_call
    1841 000004b0 10000012!            CALLP   .S2     initStack,B3
    1842 000004b4           $C$RL20:   ; CALL OCCURS {initStack} {0}     ; |143| 
    1843                            .dwpsn  file ".\..\packages\ti\vlib\src\VLIB_kalmanFilter_4x6_Predict\..\common\VLIB_profile.h
    1844 000004b4 032803e2             MVC     .S2     TSCL,B6           ; |146| 
    1845 000004b8 022c03e2             MVC     .S2     TSCH,B4           ; |146| 
    1846 000004c0 0280002a!            MVKL    .S2     beg_count,B5
    1847                    
    1848 000004c4     cccd             LDW     .D2T1   *+SP(24),A4       ; |146| 
    1849 000004c8 0280006a! ||         MVKH    .S2     beg_count,B5
    1850 000004c6     e247  ||         MV      .L2     B4,B7             ; |146| 
    1851                    
    1852                    $C$DW$153       .dwtag  DW_TAG_TI_branch
    1853                            .dwattr $C$DW$153, DW_AT_low_pc(0x00)
    1854                            .dwattr $C$DW$153, DW_AT_name("VLIB_kalmanFilter_4x6_Predict_cn")
    1855                            .dwattr $C$DW$153, DW_AT_TI_call
    1856                    
    1857 000004cc 10000013!            CALLP   .S2     VLIB_kalmanFilter_4x6_Predict_cn,B3
    1858 000004d0 031403c6  ||         STDW    .D2T2   B7:B6,*B5         ; |146| 
    1859                    
    1860                            .dwpsn  file "./../packages/ti/vlib/src/VLIB_kalmanFilter_4x6_Predict/VLIB_kalmanFilter_4x6_Pr
    1861 000004d4           $C$RL21:   ; CALL OCCURS {VLIB_kalmanFilter_4x6_Predict_cn} {0}  ; |146| 
    1862                            .dwpsn  file ".\..\packages\ti\vlib\src\VLIB_kalmanFilter_4x6_Predict\..\common\VLIB_profile.h
    1863 000004d4 042803e2             MVC     .S2     TSCL,B8           ; |153| 
    1864 000004d8 04ac03e2             MVC     .S2     TSCH,B9           ; |153| 
    1865 000004e0 0280002a!            MVKL    .S2     beg_count,B5
    1866                    
    1867 000004e4 01800029!            MVKL    .S1     act_kernel,A3
    1868 000004e8 0200002a! ||         MVKL    .S2     overhead,B4
    1869                    
    1870 000004ec 01800069!            MVKH    .S1     act_kernel,A3
TMS320C6x Assembler PC v7.4.2 Thu Mar 19 12:43:01 2015

Tools Copyright (c) 1996-2012 Texas Instruments Incorporated
package/lib/Regression/regress_d_c/./../packages/ti/vlib/src/VLIB_kalmanFilter_4x6_Predict/VLIB_kalmanFilter_4x6_Predict_d.se66 PAGE   35

    1871 000004f0 0280006a! ||         MVKH    .S2     beg_count,B5
    1872                    
    1873 000004f4 018c0265             LDW     .D1T1   *A3,A3            ; |156| 
    1874 000004f8 0200006b! ||         MVKH    .S2     overhead,B4
    1875 000004fc 031403e6  ||         LDDW    .D2T2   *B5,B7:B6         ; |156| 
    1876                    
    1877                            .dwpsn  file ".\..\packages\ti\vlib\src\VLIB_kalmanFilter_4x6_Predict\..\common\VLIB_profile.h
    1878 00000500     100d             LDDW    .D2T2   *B4,B17:B16       ; |156| 
    1879 00000502     4c6e             NOP             3
    1880 00000504 03286b64             LDDW    .D1T1   *+A10[A3],A7:A6   ; |156| 
    1881 00000508 021a057a             ADDU    .L2     B16,B6,B5:B4      ; |156| 
    1882                    
    1883 0000050c 0244a1e3             ADD     .S2     B5,B17,B4         ; |156| 
    1884 00000510 081105fa  ||         SUBU    .L2     B8,B4,B17:B16     ; |156| 
    1885                    
    1886 00000514 021c807a             ADD     .L2     B4,B7,B4          ; |156| 
    1887                    
    1888 00000518 021120fb             SUB     .L2     B9,B4,B4          ; |156| 
    1889 00000520 0347184a  ||         EXT     .S2     B17,24,24,B6      ; |156| 
    1890                    
    1891 00000524 0240d579             ADDU    .L1X    A6,B16,A5:A4      ; |156| 
    1892 00000528     8341  ||         ADD     .L2     B4,B6,B4          ; |156| 
    1893                    
    1894 0000052a     a3d0             ADD     .L1     A5,A7,A5          ; |156| 
    1895 0000052c 0280002a! ||         MVKL    .S2     end_count,B5
    1896                    
    1897 00000534 0290b078             ADD     .L1X    A5,B4,A5          ; |156| 
    1898 00000530 0280006b! ||         MVKH    .S2     end_count,B5
    1899                    
    1900                    $C$DW$154       .dwtag  DW_TAG_TI_branch
    1901                            .dwattr $C$DW$154, DW_AT_low_pc(0x00)
    1902                            .dwattr $C$DW$154, DW_AT_name("setStackDepth")
    1903                            .dwattr $C$DW$154, DW_AT_TI_call
    1904                    
    1905 00000538 10000013!            CALLP   .S2     setStackDepth,B3
    1906 00000540 02286b45  ||         STDW    .D1T1   A5:A4,*+A10[A3]   ; |156| 
    1907 00000544 041403c6  ||         STDW    .D2T2   B9:B8,*B5         ; |153| 
    1908                    
    1909                            .dwpsn  file ".\..\packages\ti\vlib\src\VLIB_kalmanFilter_4x6_Predict\..\common\VLIB_profile.h
    1910 00000548           $C$RL22:   ; CALL OCCURS {setStackDepth} {0}  ; |159| 
    1911                            .dwpsn  file "./../packages/ti/vlib/src/VLIB_kalmanFilter_4x6_Predict/VLIB_kalmanFilter_4x6_Pr
    1912 00000548 01b09264             LDW     .D1T1   *++A12(16),A3     ; |150| 
    1913 0000054c 0200a358             ZERO    .L1     A4
    1914 00000550 02210068             MVKH    .S1     0x42000000,A4
    1915 00000554 023d62e6             LDW     .D2T2   *+SP(44),B4
    1916 00000558 0f80a358             ZERO    .L1     A31
    1917 0000055c 018c8e00             MPYSP   .M1     A4,A3,A3          ; |150| 
    1918 00000560 0fa10068             MVKH    .S1     0x42000000,A31
    1919 00000564 0f00a358             ZERO    .L1     A30
    1920 00000568 0f218068             MVKH    .S1     0x43000000,A30
    1921 0000056c 018c0178             SPTRUNC .L1     A3,A3             ; |150| 
    1922 00000570 0e80a358             ZERO    .L1     A29
    1923 00000574 0ea18068             MVKH    .S1     0x43000000,A29
    1924                            .dwpsn  file "./../packages/ti/vlib/src/VLIB_kalmanFilter_4x6_Predict/VLIB_kalmanFilter_4x6_Pr
    1925 00000578     ad6d             LDW     .D2T1   *+SP(36),A6       ; |155| 
TMS320C6x Assembler PC v7.4.2 Thu Mar 19 12:43:01 2015

Tools Copyright (c) 1996-2012 Texas Instruments Incorporated
package/lib/Regression/regress_d_c/./../packages/ti/vlib/src/VLIB_kalmanFilter_4x6_Predict/VLIB_kalmanFilter_4x6_Predict_d.se66 PAGE   36

    1926                            .dwpsn  file "./../packages/ti/vlib/src/VLIB_kalmanFilter_4x6_Predict/VLIB_kalmanFilter_4x6_Pr
    1927 0000057a     0235             STH     .D2T1   A3,*B4            ; |150| 
    1928                            .dwpsn  file "./../packages/ti/vlib/src/VLIB_kalmanFilter_4x6_Predict/VLIB_kalmanFilter_4x6_Pr
    1929 00000580 02302264             LDW     .D1T1   *+A12(4),A4       ; |151| 
    1930 00000584 00006000             NOP             4
    1931 00000588 0193ee00             MPYSP   .M1     A31,A4,A3         ; |151| 
    1932                            .dwpsn  file "./../packages/ti/vlib/src/VLIB_kalmanFilter_4x6_Predict/VLIB_kalmanFilter_4x6_Pr
    1933 0000058c     eccd             LDW     .D2T1   *+SP(28),A4       ; |155| 
    1934 0000058e     4c6e             NOP             3
    1935                            .dwpsn  file "./../packages/ti/vlib/src/VLIB_kalmanFilter_4x6_Predict/VLIB_kalmanFilter_4x6_Pr
    1936 00000590 028c117a             SPTRUNC .L2X    A3,B5             ; |151| 
    1937 00000594     4c6e             NOP             3
    1938 00000596     3255             STH     .D2T2   B5,*+B4(2)        ; |151| 
    1939                            .dwpsn  file "./../packages/ti/vlib/src/VLIB_kalmanFilter_4x6_Predict/VLIB_kalmanFilter_4x6_Pr
    1940 00000598 02304266             LDW     .D1T2   *+A12(8),B4       ; |152| 
    1941 000005a0 00006000             NOP             4
    1942 000005a4 0193de00             MPYSP   .M1X    A30,B4,A3         ; |152| 
    1943 000005a8     fd4d             LDW     .D2T2   *+SP(44),B4
    1944 000005aa     2c6e             NOP             2
    1945 000005ac 018c0178             SPTRUNC .L1     A3,A3             ; |152| 
    1946 000005b0     4c6e             NOP             3
    1947 000005b2     4235             STH     .D2T1   A3,*+B4(4)        ; |152| 
    1948                            .dwpsn  file "./../packages/ti/vlib/src/VLIB_kalmanFilter_4x6_Predict/VLIB_kalmanFilter_4x6_Pr
    1949 000005b4 01b06264             LDW     .D1T1   *+A12(12),A3      ; |153| 
    1950 000005b8 00006000             NOP             4
    1951 000005c0 018fae00             MPYSP   .M1     A29,A3,A3         ; |153| 
    1952 000005c4 00004000             NOP             3
    1953 000005c8 018c0178             SPTRUNC .L1     A3,A3             ; |153| 
    1954 000005cc     4c6e             NOP             3
    1955                    $C$DW$155       .dwtag  DW_TAG_TI_branch
    1956                            .dwattr $C$DW$155, DW_AT_low_pc(0x00)
    1957                            .dwattr $C$DW$155, DW_AT_name("VLIB_kalmanFilter_4x6_Correct_cn")
    1958                            .dwattr $C$DW$155, DW_AT_TI_call
    1959                    
    1960 000005d0 10000012!            CALLP   .S2     VLIB_kalmanFilter_4x6_Correct_cn,B3
    1961 000005ce     6235  ||         STH     .D2T1   A3,*+B4(6)        ; |153| 
    1962                    
    1963                            .dwpsn  file "./../packages/ti/vlib/src/VLIB_kalmanFilter_4x6_Predict/VLIB_kalmanFilter_4x6_Pr
    1964 000005d4           $C$RL23:   ; CALL OCCURS {VLIB_kalmanFilter_4x6_Correct_cn} {0}  ; |155| 
    1965 000005d4           $C$DW$L$VLIB_kalmanFilter_4x6_Predict_d$19$E:
    1966                    ;** --------------------------------------------------------------------------*
    1967 000005d4           $C$DW$L$VLIB_kalmanFilter_4x6_Predict_d$20$B:
    1968                    ;          EXCLUSIVE CPU CYCLES: 8
    1969                    ;** 156 -----------------------    VLIB_kalmanFilter_4x6_Correct_cn(KF_cn, Z, Residual_cn);
    1970                    ;** 137 -----------------------    if ( (*U$14).numMeasurements > (++i) ) goto g11;
    1971                            .dwpsn  file "./../packages/ti/vlib/src/VLIB_kalmanFilter_4x6_Predict/VLIB_kalmanFilter_4x6_Pr
    1972 000005d4     fd4d             LDW     .D2T2   *+SP(44),B4       ; |156| 
    1973 000005d6     cccd             LDW     .D2T1   *+SP(24),A4       ; |156| 
    1974                    $C$DW$156       .dwtag  DW_TAG_TI_branch
    1975                            .dwattr $C$DW$156, DW_AT_low_pc(0x00)
    1976                            .dwattr $C$DW$156, DW_AT_name("VLIB_kalmanFilter_4x6_Correct_cn")
    1977                            .dwattr $C$DW$156, DW_AT_TI_call
    1978                    
    1979 000005d8 10000013!            CALLP   .S2     VLIB_kalmanFilter_4x6_Correct_cn,B3
    1980 000005e0 033d02e4  ||         LDW     .D2T1   *+SP(32),A6       ; |156| 
TMS320C6x Assembler PC v7.4.2 Thu Mar 19 12:43:01 2015

Tools Copyright (c) 1996-2012 Texas Instruments Incorporated
package/lib/Regression/regress_d_c/./../packages/ti/vlib/src/VLIB_kalmanFilter_4x6_Predict/VLIB_kalmanFilter_4x6_Predict_d.se66 PAGE   37

    1981                    
    1982 000005e4           $C$RL24:   ; CALL OCCURS {VLIB_kalmanFilter_4x6_Correct_cn} {0}  ; |156| 
    1983 000005e4           $C$DW$L$VLIB_kalmanFilter_4x6_Predict_d$20$E:
    1984                    ;** --------------------------------------------------------------------------*
    1985 000005e4           $C$DW$L$VLIB_kalmanFilter_4x6_Predict_d$21$B:
    1986                    ;          EXCLUSIVE CPU CYCLES: 12
    1987                            .dwpsn  file "./../packages/ti/vlib/src/VLIB_kalmanFilter_4x6_Predict/VLIB_kalmanFilter_4x6_Pr
    1988 000005e4 01acc204             LDHU    .D1T1   *+A11(12),A3      ; |137| 
    1989 000005e8 07bc2058             ADD     .L1     1,A15,A15         ; |137| 
    1990 000005ec 00004000             NOP             3
    1991 000005f0 003c68f8             CMPGT   .L1     A3,A15,A0         ; |137| 
    1992 000005f4 cf83a121     [ A0]   BNOP    .S1     $C$L6,5           ; |137| 
    1993                               ; BRANCHCC OCCURS {$C$L6}         ; |137| 
    1994                    $C$DW$L$VLIB_kalmanFilter_4x6_Predict_d$21$E:
    1995                    ;** --------------------------------------------------------------------------*
    1996                    $C$L7:    
    1997                    $C$DW$L$VLIB_kalmanFilter_4x6_Predict_d$22$B:
    1998                    ;          EXCLUSIVE CPU CYCLES: 6
    1999                    ;**     -----------------------g12:
    2000                    ;** 160 -----------------------    status_nat_vs_int = VLIB_compare_mem(U$240, U$238, 12);
    2001                    ;** 163 -----------------------    v$1 = prm;
    2002                    ;** 163 -----------------------    U$313 = (*U$14).staticOut;
    2003                    ;** 163 -----------------------    if ( U$313 ) goto g14;
    2004                    ;** 57  -----------------------    status_nat_vs_ref = 1;
    2005                    ;**     -----------------------    goto g15;
    2006                    $C$DW$157       .dwtag  DW_TAG_TI_branch
    2007                            .dwattr $C$DW$157, DW_AT_low_pc(0x00)
    2008                            .dwattr $C$DW$157, DW_AT_name("VLIB_compare_mem")
    2009                            .dwattr $C$DW$157, DW_AT_TI_call
    2010                    
    2011 00000600 10000013!            CALLP   .S2     VLIB_compare_mem,B3
    2012 00000604     9686  ||         MV      .L1X    B13,A4            ; |160| 
    2013 00000606     8507  ||         MV      .L2     B10,B4            ; |160| 
    2014 00000608 03000628  ||         MVK     .S1     0xc,A6            ; |160| 
    2015                    
    2016                            .dwpsn  file "./../packages/ti/vlib/src/VLIB_kalmanFilter_4x6_Predict/VLIB_kalmanFilter_4x6_Pr
    2017 0000060c           $C$RL25:   ; CALL OCCURS {VLIB_compare_mem} {0}  ; |160| 
    2018 0000060c           $C$DW$L$VLIB_kalmanFilter_4x6_Predict_d$22$E:
    2019                    ;** --------------------------------------------------------------------------*
    2020 0000060c           $C$DW$L$VLIB_kalmanFilter_4x6_Predict_d$23$B:
    2021                    ;          EXCLUSIVE CPU CYCLES: 11
    2022                            .dwpsn  file "./../packages/ti/vlib/src/VLIB_kalmanFilter_4x6_Predict/VLIB_kalmanFilter_4x6_Pr
    2023 0000060c 002c4264             LDW     .D1T1   *+A11(8),A0       ; |163| 
    2024 00000610     bccd             LDW     .D2T2   *+SP(20),B4       ; |163| 
    2025                            .dwpsn  file "./../packages/ti/vlib/src/VLIB_kalmanFilter_4x6_Predict/VLIB_kalmanFilter_4x6_Pr
    2026 00000612     b647             MV      .L2X    A4,B13            ; |160| 
    2027 00000614     2c6e             NOP             2
    2028 00000616     073a     [!A0]   B       .S1     $C$L8
    2029                            .dwpsn  file "./../packages/ti/vlib/src/VLIB_kalmanFilter_4x6_Predict/VLIB_kalmanFilter_4x6_Pr
    2030                    $C$DW$158       .dwtag  DW_TAG_TI_branch
    2031                            .dwattr $C$DW$158, DW_AT_low_pc(0x00)
    2032                            .dwattr $C$DW$158, DW_AT_name("VLIB_compare_mem")
    2033                            .dwattr $C$DW$158, DW_AT_TI_call
    2034 00000618 c0000010!    [ A0]   CALL    .S1     VLIB_compare_mem  ; |164| 
    2035                            .dwpsn  file "./../packages/ti/vlib/src/VLIB_kalmanFilter_4x6_Predict/VLIB_kalmanFilter_4x6_Pr
TMS320C6x Assembler PC v7.4.2 Thu Mar 19 12:43:01 2015

Tools Copyright (c) 1996-2012 Texas Instruments Incorporated
package/lib/Regression/regress_d_c/./../packages/ti/vlib/src/VLIB_kalmanFilter_4x6_Predict/VLIB_kalmanFilter_4x6_Predict_d.se66 PAGE   38

    2036 00000620 d704a358     [!A0]   MVK     .L1     0x1,A14           ; |57| 
    2037 00000624     4c6e             NOP             3
    2038                               ; BRANCHCC OCCURS {$C$L8}  
    2039 00000626           $C$DW$L$VLIB_kalmanFilter_4x6_Predict_d$23$E:
    2040                    ;** --------------------------------------------------------------------------*
    2041                            .dwpsn  file "./../packages/ti/vlib/src/VLIB_kalmanFilter_4x6_Predict/VLIB_kalmanFilter_4x6_Pr
    2042 00000626           $C$DW$L$VLIB_kalmanFilter_4x6_Predict_d$24$B:
    2043                    ;          EXCLUSIVE CPU CYCLES: 1
    2044                    ;**     -----------------------g14:
    2045                    ;** 164 -----------------------    status_nat_vs_ref = VLIB_compare_mem((void *)U$313, U$238, 12);
    2046                    ;** 164 -----------------------    v$1 = prm;
    2047                    
    2048 00000626     8f26             MVK     .L1     0xc,A6            ; |164| 
    2049 00000628     8507  ||         MV      .L2     B10,B4            ; |164| 
    2050 0000062a     804e  ||         MV      .S1     A0,A4             ; |164| 
    2051 0000062c 01840162  ||         ADDKPC  .S2     $C$RL26,B3,0      ; |164| 
    2052                    
    2053                            .dwpsn  file "./../packages/ti/vlib/src/VLIB_kalmanFilter_4x6_Predict/VLIB_kalmanFilter_4x6_Pr
    2054 00000630           $C$RL26:   ; CALL OCCURS {VLIB_compare_mem} {0}  ; |164| 
    2055 00000630           $C$DW$L$VLIB_kalmanFilter_4x6_Predict_d$24$E:
    2056                    ;** --------------------------------------------------------------------------*
    2057 00000630           $C$DW$L$VLIB_kalmanFilter_4x6_Predict_d$25$B:
    2058                    ;          EXCLUSIVE CPU CYCLES: 5
    2059 00000630     bccd             LDW     .D2T2   *+SP(20),B4       ; |164| 
    2060 00000632     c646             MV      .L1     A4,A14            ; |164| 
    2061 00000634 00004000             NOP             3
    2062 00000638           $C$DW$L$VLIB_kalmanFilter_4x6_Predict_d$25$E:
    2063                    ;** --------------------------------------------------------------------------*
    2064 00000638           $C$L8:    
    2065 00000638           $C$DW$L$VLIB_kalmanFilter_4x6_Predict_d$26$B:
    2066                    ;          EXCLUSIVE CPU CYCLES: 13
    2067                    ;**     -----------------------g15:
    2068                    ;** 170 -----------------------    est_test = 1;
    2069                    ;** 173 -----------------------    sprintf(K$42, (const char *)"%s generated input | Opt results compa
    2070                    ;** 175 -----------------------    VLIB_formula_add_test((int)(*U$14).numMeasurements, 0, 0, (status_n
    2071                            .dwpsn  file "./../packages/ti/vlib/src/VLIB_kalmanFilter_4x6_Predict/VLIB_kalmanFilter_4x6_Pr
    2072 00000638 022c807a             ADD     .L2     B4,B11,B4         ; |173| 
    2073 00000640 0290c286             LDHU    .D2T2   *+B4(12),B5       ; |173| 
    2074 00000644 0300002a!            MVKL    .S2     $C$SL3+0,B6
    2075 00000648 02000028!            MVKL    .S1     est_test,A4
    2076 0000064c 0300006a!            MVKH    .S2     $C$SL3+0,B6
    2077                    
    2078 00000650 0200002b!            MVKL    .S2     testPatternString,B4
    2079 00000654 02000069! ||         MVKH    .S1     est_test,A4
    2080 00000658     25a6  ||         MVK     .L1     1,A3              ; |170| 
    2081 0000065a     bc65  ||         STW     .D2T2   B6,*+SP(4)        ; |173| 
    2082                    
    2083 00000660 0200006b!            MVKH    .S2     testPatternString,B4
    2084 00000664     0034  ||         STW     .D1T1   A3,*A4            ; |170| 
    2085 00000668 02000028! ||         MVKL    .S1     desc,A4
    2086 00000666     fc55  ||         STW     .D2T2   B5,*+SP(12)       ; |173| 
    2087                    
    2088                    $C$DW$159       .dwtag  DW_TAG_TI_branch
    2089                            .dwattr $C$DW$159, DW_AT_low_pc(0x00)
    2090                            .dwattr $C$DW$159, DW_AT_name("sprintf")
TMS320C6x Assembler PC v7.4.2 Thu Mar 19 12:43:01 2015

Tools Copyright (c) 1996-2012 Texas Instruments Incorporated
package/lib/Regression/regress_d_c/./../packages/ti/vlib/src/VLIB_kalmanFilter_4x6_Predict/VLIB_kalmanFilter_4x6_Predict_d.se66 PAGE   39

    2091                            .dwattr $C$DW$159, DW_AT_TI_call
    2092                    
    2093 0000066c 10000013!            CALLP   .S2     sprintf,B3
    2094 00000674 023c42f6  ||         STW     .D2T2   B4,*+SP(8)        ; |173| 
    2095 00000670 02000069! ||         MVKH    .S1     desc,A4
    2096                    
    2097 00000678           $C$RL27:   ; CALL OCCURS {sprintf} {0}       ; |173| 
    2098 00000678           $C$DW$L$VLIB_kalmanFilter_4x6_Predict_d$26$E:
    2099                    ;** --------------------------------------------------------------------------*
    2100 00000678           $C$DW$L$VLIB_kalmanFilter_4x6_Predict_d$27$B:
    2101                    ;          EXCLUSIVE CPU CYCLES: 13
    2102                            .dwpsn  file "./../packages/ti/vlib/src/VLIB_kalmanFilter_4x6_Predict/VLIB_kalmanFilter_4x6_Pr
    2103 00000678 01b80a58             CMPEQ   .L1     A14,0,A3          ; |175| 
    2104                    
    2105 00000680 02340a5b             CMPEQ   .L2     B13,0,B4          ; |175| 
    2106 00000684 04000029! ||         MVKL    .S1     desc,A8
    2107 00000688 0400002b  ||         ZERO    .S2     B8                ; |175| 
    2108                    
    2109                    $C$DW$160       .dwtag  DW_TAG_TI_branch
    2110                            .dwattr $C$DW$160, DW_AT_low_pc(0x00)
    2111                            .dwattr $C$DW$160, DW_AT_name("VLIB_formula_add_test")
    2112                            .dwattr $C$DW$160, DW_AT_TI_call
    2113                    
    2114 00000690 10000013!            CALLP   .S2     VLIB_formula_add_test,B3
    2115 00000694 022cc205  ||         LDHU    .D1T1   *+A11(12),A4      ; |175| 
    2116 00000698 030c9ffb  ||         OR      .L2X    A3,B4,B6          ; |175| 
    2117 0000069c 02000043  ||         ZERO    .D2     B4                ; |175| 
    2118 000006a0 04000069! ||         MVKH    .S1     desc,A8
    2119 000006a4 0300a358  ||         ZERO    .L1     A6                ; |175| 
    2120                    
    2121 000006a8           $C$RL28:   ; CALL OCCURS {VLIB_formula_add_test} {0}  ; |175| 
    2122                            .dwpsn  file "./../packages/ti/vlib/src/VLIB_kalmanFilter_4x6_Predict/VLIB_kalmanFilter_4x6_Pr
    2123                    $C$DW$161       .dwtag  DW_TAG_TI_branch
    2124                            .dwattr $C$DW$161, DW_AT_low_pc(0x00)
    2125                            .dwattr $C$DW$161, DW_AT_name("free")
    2126                            .dwattr $C$DW$161, DW_AT_TI_call
    2127 000006a8 00000010!            CALL    .S1     free              ; |185| 
    2128 000006ac     cccd             LDW     .D2T1   *+SP(24),A4       ; |185| 
    2129 000006ae     4c6e             NOP             3
    2130 000006b0           $C$DW$L$VLIB_kalmanFilter_4x6_Predict_d$27$E:
    2131                    ;** --------------------------------------------------------------------------*
    2132 000006b0           $C$L9:    
    2133                            .dwpsn  file "./../packages/ti/vlib/src/VLIB_kalmanFilter_4x6_Predict/VLIB_kalmanFilter_4x6_Pr
    2134 000006b0           $C$DW$L$VLIB_kalmanFilter_4x6_Predict_d$28$B:
    2135                    ;          EXCLUSIVE CPU CYCLES: 1
    2136                    ;**     -----------------------g16:
    2137                    ;** 185 -----------------------    free((void *)KF_cn);
    2138                    ;** 186 -----------------------    VLIB_align_free((void *)KF);
    2139                    ;** 187 -----------------------    free((void *)Residual_cn);
    2140                    ;** 188 -----------------------    VLIB_align_free((void *)Residual);
    2141                    ;** 189 -----------------------    free((void *)Z_buffer);
    2142                    ;** 190 -----------------------    VLIB_align_free((void *)Z);
    2143                    ;** 53  -----------------------    U$13 += 16;
    2144                    ;** 53  -----------------------    if ( test_cases > (++tpi) ) goto g3;
    2145                            .dwpsn  file "./../packages/ti/vlib/src/VLIB_kalmanFilter_4x6_Predict/VLIB_kalmanFilter_4x6_Pr
TMS320C6x Assembler PC v7.4.2 Thu Mar 19 12:43:01 2015

Tools Copyright (c) 1996-2012 Texas Instruments Incorporated
package/lib/Regression/regress_d_c/./../packages/ti/vlib/src/VLIB_kalmanFilter_4x6_Predict/VLIB_kalmanFilter_4x6_Predict_d.se66 PAGE   40

    2146 000006b0 01850162             ADDKPC  .S2     $C$RL29,B3,0      ; |185| 
    2147                    $C$RL29:   ; CALL OCCURS {free} {0}          ; |185| 
    2148                    $C$DW$L$VLIB_kalmanFilter_4x6_Predict_d$28$E:
    2149                    ;** --------------------------------------------------------------------------*
    2150                    $C$DW$L$VLIB_kalmanFilter_4x6_Predict_d$29$B:
    2151                    ;          EXCLUSIVE CPU CYCLES: 30
    2152                    $C$DW$162       .dwtag  DW_TAG_TI_branch
    2153                            .dwattr $C$DW$162, DW_AT_low_pc(0x00)
    2154                            .dwattr $C$DW$162, DW_AT_name("VLIB_align_free")
    2155                            .dwattr $C$DW$162, DW_AT_TI_call
    2156                    
    2157 000006b4 10000013!            CALLP   .S2     VLIB_align_free,B3
    2158 000006b8 023ce2e4  ||         LDW     .D2T1   *+SP(28),A4       ; |186| 
    2159                    
    2160                            .dwpsn  file "./../packages/ti/vlib/src/VLIB_kalmanFilter_4x6_Predict/VLIB_kalmanFilter_4x6_Pr
    2161                    ;----------------------------------------------------------------------
    2162                    ; 186 | VLIB_align_free(KF);                                                   
    2163                    ;----------------------------------------------------------------------
    2164                    $C$RL30:   ; CALL OCCURS {VLIB_align_free} {0}  ; |186| 
    2165                    $C$DW$163       .dwtag  DW_TAG_TI_branch
    2166                            .dwattr $C$DW$163, DW_AT_low_pc(0x00)
    2167                            .dwattr $C$DW$163, DW_AT_name("free")
    2168                            .dwattr $C$DW$163, DW_AT_TI_call
    2169                    
    2170 000006c0 10000013!            CALLP   .S2     free,B3
    2171 000006c4 023d02e4  ||         LDW     .D2T1   *+SP(32),A4       ; |187| 
    2172                    
    2173                            .dwpsn  file "./../packages/ti/vlib/src/VLIB_kalmanFilter_4x6_Predict/VLIB_kalmanFilter_4x6_Pr
    2174                    ;----------------------------------------------------------------------
    2175                    ; 187 | align_free(Residual_cn);                                               
    2176                    ;----------------------------------------------------------------------
    2177                    $C$RL31:   ; CALL OCCURS {free} {0}          ; |187| 
    2178                    $C$DW$164       .dwtag  DW_TAG_TI_branch
    2179                            .dwattr $C$DW$164, DW_AT_low_pc(0x00)
    2180                            .dwattr $C$DW$164, DW_AT_name("VLIB_align_free")
    2181                            .dwattr $C$DW$164, DW_AT_TI_call
    2182                    
    2183 000006c8 10000013!            CALLP   .S2     VLIB_align_free,B3
    2184 000006cc 023d22e4  ||         LDW     .D2T1   *+SP(36),A4       ; |188| 
    2185                    
    2186                            .dwpsn  file "./../packages/ti/vlib/src/VLIB_kalmanFilter_4x6_Predict/VLIB_kalmanFilter_4x6_Pr
    2187                    ;----------------------------------------------------------------------
    2188                    ; 188 | VLIB_align_free(Residual);                                             
    2189                    ;----------------------------------------------------------------------
    2190                    $C$RL32:   ; CALL OCCURS {VLIB_align_free} {0}  ; |188| 
    2191                    $C$DW$165       .dwtag  DW_TAG_TI_branch
    2192                            .dwattr $C$DW$165, DW_AT_low_pc(0x00)
    2193                            .dwattr $C$DW$165, DW_AT_name("free")
    2194                            .dwattr $C$DW$165, DW_AT_TI_call
    2195                    
    2196 000006d0 10000013!            CALLP   .S2     free,B3
    2197 000006d4 023d42e4  ||         LDW     .D2T1   *+SP(40),A4       ; |189| 
    2198                    
    2199                            .dwpsn  file "./../packages/ti/vlib/src/VLIB_kalmanFilter_4x6_Predict/VLIB_kalmanFilter_4x6_Pr
    2200                    ;----------------------------------------------------------------------
TMS320C6x Assembler PC v7.4.2 Thu Mar 19 12:43:01 2015

Tools Copyright (c) 1996-2012 Texas Instruments Incorporated
package/lib/Regression/regress_d_c/./../packages/ti/vlib/src/VLIB_kalmanFilter_4x6_Predict/VLIB_kalmanFilter_4x6_Predict_d.se66 PAGE   41

    2201                    ; 189 | align_free(Z_buffer);                                                  
    2202                    ;----------------------------------------------------------------------
    2203                    $C$RL33:   ; CALL OCCURS {free} {0}          ; |189| 
    2204                    $C$DW$166       .dwtag  DW_TAG_TI_branch
    2205                            .dwattr $C$DW$166, DW_AT_low_pc(0x00)
    2206                            .dwattr $C$DW$166, DW_AT_name("VLIB_align_free")
    2207                            .dwattr $C$DW$166, DW_AT_TI_call
    2208                    
    2209 000006d8 10000013!            CALLP   .S2     VLIB_align_free,B3
    2210 000006dc 023d62e4  ||         LDW     .D2T1   *+SP(44),A4       ; |190| 
    2211                    
    2212                            .dwpsn  file "./../packages/ti/vlib/src/VLIB_kalmanFilter_4x6_Predict/VLIB_kalmanFilter_4x6_Pr
    2213                    ;----------------------------------------------------------------------
    2214                    ; 190 | VLIB_align_free(Z);                                                    
    2215                    ;----------------------------------------------------------------------
    2216 000006e0           $C$RL34:   ; CALL OCCURS {VLIB_align_free} {0}  ; |190| 
    2217 000006e0           $C$DW$L$VLIB_kalmanFilter_4x6_Predict_d$29$E:
    2218                    ;** --------------------------------------------------------------------------*
    2219 000006e0           $C$DW$L$VLIB_kalmanFilter_4x6_Predict_d$30$B:
    2220                    ;          EXCLUSIVE CPU CYCLES: 14
    2221 000006e0 01800028!            MVKL    .S1     test_cases,A3
    2222 000006e4 01800068!            MVKH    .S1     test_cases,A3
    2223                            .dwpsn  file "./../packages/ti/vlib/src/VLIB_kalmanFilter_4x6_Predict/VLIB_kalmanFilter_4x6_Pr
    2224 000006e8 018c0264             LDW     .D1T1   *A3,A3            ; |53| 
    2225 000006ec 05800852             ADDK    .S2     16,B11            ; |53| 
    2226 000006f0 06b42058             ADD     .L1     1,A13,A13         ; |53| 
    2227 000006f4 00002000             NOP             2
    2228 000006f8 003468f8             CMPGT   .L1     A3,A13,A0         ; |53| 
    2229 000006fc ce5fa120     [ A0]   BNOP    .S1     $C$L1,5           ; |53| 
    2230                               ; BRANCHCC OCCURS {$C$L1}         ; |53| 
    2231 00000700           $C$DW$L$VLIB_kalmanFilter_4x6_Predict_d$30$E:
    2232                    ;** --------------------------------------------------------------------------*
    2233 00000700           $C$L10:    
    2234                    ;          EXCLUSIVE CPU CYCLES: 8
    2235                    ;**     -----------------------g17:
    2236                    ;** 194 -----------------------    VLIB_profile_cycle_report(2, "N = number of measurements", "number 
    2237                    ;** 158 -----------------------    printf((const char *)"---------------------------------------------
    2238                    ;** 165 -----------------------    VLIB_stack_memory();  // [19]
    2239                    ;**     -----------------------    return;
    2240 00000700 0200002a!            MVKL    .S2     $C$SL5+0,B4
    2241                    
    2242 00000704 03000029!            MVKL    .S1     $C$SL4+0,A6
    2243 00000708 0200006a! ||         MVKH    .S2     $C$SL5+0,B4
    2244                    
    2245                    $C$DW$167       .dwtag  DW_TAG_TI_branch
    2246                            .dwattr $C$DW$167, DW_AT_low_pc(0x00)
    2247                            .dwattr $C$DW$167, DW_AT_name("VLIB_profile_cycle_report")
    2248                            .dwattr $C$DW$167, DW_AT_TI_call
    2249                    
    2250 0000070c 10000013!            CALLP   .S2     VLIB_profile_cycle_report,B3
    2251 00000710 03000069! ||         MVKH    .S1     $C$SL4+0,A6
    2252 00000714 0208a358  ||         MVK     .L1     0x2,A4            ; |194| 
    2253                    
    2254                            .dwpsn  file "./../packages/ti/vlib/src/VLIB_kalmanFilter_4x6_Predict/VLIB_kalmanFilter_4x6_Pr
    2255                    ;----------------------------------------------------------------------
TMS320C6x Assembler PC v7.4.2 Thu Mar 19 12:43:01 2015

Tools Copyright (c) 1996-2012 Texas Instruments Incorporated
package/lib/Regression/regress_d_c/./../packages/ti/vlib/src/VLIB_kalmanFilter_4x6_Predict/VLIB_kalmanFilter_4x6_Predict_d.se66 PAGE   42

    2256                    ; 194 | VLIB_profile_cycle_report(vlib_PROFILE_FORMULA_RANGE,                  
    2257                    ; 195 |                           "N = number of measurements",                
    2258                    ; 196 |                           "number of measurements");                   
    2259                    ; 199 | VLIB_kernel_memory();                                                  
    2260                    ;----------------------------------------------------------------------
    2261 00000718           $C$RL35:   ; CALL OCCURS {VLIB_profile_cycle_report} {0}  ; |194| 
    2262                    ;** --------------------------------------------------------------------------*
    2263                    ;          EXCLUSIVE CPU CYCLES: 14
    2264 00000718 0200002a!            MVKL    .S2     $C$SL6+0,B4
    2265 0000071c 0200006a!            MVKH    .S2     $C$SL6+0,B4
    2266                    $C$DW$168       .dwtag  DW_TAG_TI_branch
    2267                            .dwattr $C$DW$168, DW_AT_low_pc(0x00)
    2268                            .dwattr $C$DW$168, DW_AT_name("printf")
    2269                            .dwattr $C$DW$168, DW_AT_TI_call
    2270                    
    2271 00000720 10000013!            CALLP   .S2     printf,B3
    2272 00000724 023c22f6  ||         STW     .D2T2   B4,*+SP(4)        ; |158| 
    2273                    
    2274                            .dwpsn  file ".\..\packages\ti\vlib\src\VLIB_kalmanFilter_4x6_Predict\../common/VLIB_memory.h"
    2275                    $C$RL36:   ; CALL OCCURS {printf} {0}        ; |158| 
    2276                    $C$DW$169       .dwtag  DW_TAG_TI_branch
    2277                            .dwattr $C$DW$169, DW_AT_low_pc(0x00)
    2278                            .dwattr $C$DW$169, DW_AT_name("VLIB_stack_memory")
    2279                            .dwattr $C$DW$169, DW_AT_TI_call
    2280 00000728 10000012!            CALLP   .S2     VLIB_stack_memory,B3
    2281                            .dwpsn  file ".\..\packages\ti\vlib\src\VLIB_kalmanFilter_4x6_Predict\../common/VLIB_memory.h"
    2282 0000072c           $C$RL37:   ; CALL OCCURS {VLIB_stack_memory} {0}  ; |165| 
    2283                    ;** --------------------------------------------------------------------------*
    2284                    ;          EXCLUSIVE CPU CYCLES: 13
    2285                            .dwpsn  file "./../packages/ti/vlib/src/VLIB_kalmanFilter_4x6_Predict/VLIB_kalmanFilter_4x6_Pr
    2286 0000072c 01bdd2e6             LDW     .D2T2   *++SP(56),B3      ; |200| 
    2287                            .dwcfi  cfa_offset, 48
    2288                            .dwcfi  restore_reg, 19
    2289 00000730     c677             LDDW    .D2T1   *++SP,A13:A12
    2290                            .dwcfi  cfa_offset, 40
    2291                            .dwcfi  restore_reg, 13
    2292                            .dwcfi  restore_reg, 12
    2293 00000732     c777             LDDW    .D2T1   *++SP,A15:A14
    2294                            .dwcfi  cfa_offset, 32
    2295                            .dwcfi  restore_reg, 15
    2296                            .dwcfi  restore_reg, 14
    2297 00000734     d577             LDDW    .D2T2   *++SP,B11:B10
    2298                            .dwcfi  cfa_offset, 24
    2299                            .dwcfi  restore_reg, 27
    2300                            .dwcfi  restore_reg, 26
    2301 00000736     d677             LDDW    .D2T2   *++SP,B13:B12
    2302                            .dwcfi  cfa_offset, 16
    2303                            .dwcfi  restore_reg, 29
    2304                            .dwcfi  restore_reg, 28
    2305 00000738     6577             LDW     .D2T1   *++SP(8),A10
    2306                            .dwcfi  cfa_offset, 8
    2307                            .dwcfi  restore_reg, 10
    2308 0000073a     65f7             LDW     .D2T1   *++SP(8),A11      ; |200| 
    2309                            .dwcfi  cfa_offset, 0
    2310                            .dwcfi  restore_reg, 11
TMS320C6x Assembler PC v7.4.2 Thu Mar 19 12:43:01 2015

Tools Copyright (c) 1996-2012 Texas Instruments Incorporated
package/lib/Regression/regress_d_c/./../packages/ti/vlib/src/VLIB_kalmanFilter_4x6_Predict/VLIB_kalmanFilter_4x6_Predict_d.se66 PAGE   43

    2311                            .dwcfi  cfa_offset, 0
    2312                    $C$DW$170       .dwtag  DW_TAG_TI_branch
    2313                            .dwattr $C$DW$170, DW_AT_low_pc(0x00)
    2314                            .dwattr $C$DW$170, DW_AT_TI_return
    2315 00000740 008ca362             RETNOP  .S2     B3,5
    2316                               ; BRANCH OCCURS {B3}  
    2317                    
    2318                    $C$DW$171       .dwtag  DW_TAG_TI_loop
    2319                            .dwattr $C$DW$171, DW_AT_name("c:\nightlybuilds\vlib\ti\vlib\vlib\examples\package/lib/Regress
    2320                            .dwattr $C$DW$171, DW_AT_TI_begin_file("./../packages/ti/vlib/src/VLIB_kalmanFilter_4x6_Predic
    2321                            .dwattr $C$DW$171, DW_AT_TI_begin_line(0x35)
    2322                            .dwattr $C$DW$171, DW_AT_TI_end_line(0xbf)
    2323                    $C$DW$172       .dwtag  DW_TAG_TI_loop_range
    2324                            .dwattr $C$DW$172, DW_AT_low_pc($C$DW$L$VLIB_kalmanFilter_4x6_Predict_d$4$B)
    2325                            .dwattr $C$DW$172, DW_AT_high_pc($C$DW$L$VLIB_kalmanFilter_4x6_Predict_d$4$E)
    2326                    $C$DW$173       .dwtag  DW_TAG_TI_loop_range
    2327                            .dwattr $C$DW$173, DW_AT_low_pc($C$DW$L$VLIB_kalmanFilter_4x6_Predict_d$24$B)
    2328                            .dwattr $C$DW$173, DW_AT_high_pc($C$DW$L$VLIB_kalmanFilter_4x6_Predict_d$24$E)
    2329                    $C$DW$174       .dwtag  DW_TAG_TI_loop_range
    2330                            .dwattr $C$DW$174, DW_AT_low_pc($C$DW$L$VLIB_kalmanFilter_4x6_Predict_d$17$B)
    2331                            .dwattr $C$DW$174, DW_AT_high_pc($C$DW$L$VLIB_kalmanFilter_4x6_Predict_d$17$E)
    2332                    $C$DW$175       .dwtag  DW_TAG_TI_loop_range
    2333                            .dwattr $C$DW$175, DW_AT_low_pc($C$DW$L$VLIB_kalmanFilter_4x6_Predict_d$10$B)
    2334                            .dwattr $C$DW$175, DW_AT_high_pc($C$DW$L$VLIB_kalmanFilter_4x6_Predict_d$10$E)
    2335                    $C$DW$176       .dwtag  DW_TAG_TI_loop_range
    2336                            .dwattr $C$DW$176, DW_AT_low_pc($C$DW$L$VLIB_kalmanFilter_4x6_Predict_d$11$B)
    2337                            .dwattr $C$DW$176, DW_AT_high_pc($C$DW$L$VLIB_kalmanFilter_4x6_Predict_d$11$E)
    2338                    $C$DW$177       .dwtag  DW_TAG_TI_loop_range
    2339                            .dwattr $C$DW$177, DW_AT_low_pc($C$DW$L$VLIB_kalmanFilter_4x6_Predict_d$12$B)
    2340                            .dwattr $C$DW$177, DW_AT_high_pc($C$DW$L$VLIB_kalmanFilter_4x6_Predict_d$12$E)
    2341                    $C$DW$178       .dwtag  DW_TAG_TI_loop_range
    2342                            .dwattr $C$DW$178, DW_AT_low_pc($C$DW$L$VLIB_kalmanFilter_4x6_Predict_d$16$B)
    2343                            .dwattr $C$DW$178, DW_AT_high_pc($C$DW$L$VLIB_kalmanFilter_4x6_Predict_d$16$E)
    2344                    $C$DW$179       .dwtag  DW_TAG_TI_loop_range
    2345                            .dwattr $C$DW$179, DW_AT_low_pc($C$DW$L$VLIB_kalmanFilter_4x6_Predict_d$22$B)
    2346                            .dwattr $C$DW$179, DW_AT_high_pc($C$DW$L$VLIB_kalmanFilter_4x6_Predict_d$22$E)
    2347                    $C$DW$180       .dwtag  DW_TAG_TI_loop_range
    2348                            .dwattr $C$DW$180, DW_AT_low_pc($C$DW$L$VLIB_kalmanFilter_4x6_Predict_d$23$B)
    2349                            .dwattr $C$DW$180, DW_AT_high_pc($C$DW$L$VLIB_kalmanFilter_4x6_Predict_d$23$E)
    2350                    $C$DW$181       .dwtag  DW_TAG_TI_loop_range
    2351                            .dwattr $C$DW$181, DW_AT_low_pc($C$DW$L$VLIB_kalmanFilter_4x6_Predict_d$25$B)
    2352                            .dwattr $C$DW$181, DW_AT_high_pc($C$DW$L$VLIB_kalmanFilter_4x6_Predict_d$25$E)
    2353                    $C$DW$182       .dwtag  DW_TAG_TI_loop_range
    2354                            .dwattr $C$DW$182, DW_AT_low_pc($C$DW$L$VLIB_kalmanFilter_4x6_Predict_d$26$B)
    2355                            .dwattr $C$DW$182, DW_AT_high_pc($C$DW$L$VLIB_kalmanFilter_4x6_Predict_d$26$E)
    2356                    $C$DW$183       .dwtag  DW_TAG_TI_loop_range
    2357                            .dwattr $C$DW$183, DW_AT_low_pc($C$DW$L$VLIB_kalmanFilter_4x6_Predict_d$5$B)
    2358                            .dwattr $C$DW$183, DW_AT_high_pc($C$DW$L$VLIB_kalmanFilter_4x6_Predict_d$5$E)
    2359                    $C$DW$184       .dwtag  DW_TAG_TI_loop_range
    2360                            .dwattr $C$DW$184, DW_AT_low_pc($C$DW$L$VLIB_kalmanFilter_4x6_Predict_d$6$B)
    2361                            .dwattr $C$DW$184, DW_AT_high_pc($C$DW$L$VLIB_kalmanFilter_4x6_Predict_d$6$E)
    2362                    $C$DW$185       .dwtag  DW_TAG_TI_loop_range
    2363                            .dwattr $C$DW$185, DW_AT_low_pc($C$DW$L$VLIB_kalmanFilter_4x6_Predict_d$7$B)
    2364                            .dwattr $C$DW$185, DW_AT_high_pc($C$DW$L$VLIB_kalmanFilter_4x6_Predict_d$7$E)
    2365                    $C$DW$186       .dwtag  DW_TAG_TI_loop_range
TMS320C6x Assembler PC v7.4.2 Thu Mar 19 12:43:01 2015

Tools Copyright (c) 1996-2012 Texas Instruments Incorporated
package/lib/Regression/regress_d_c/./../packages/ti/vlib/src/VLIB_kalmanFilter_4x6_Predict/VLIB_kalmanFilter_4x6_Predict_d.se66 PAGE   44

    2366                            .dwattr $C$DW$186, DW_AT_low_pc($C$DW$L$VLIB_kalmanFilter_4x6_Predict_d$8$B)
    2367                            .dwattr $C$DW$186, DW_AT_high_pc($C$DW$L$VLIB_kalmanFilter_4x6_Predict_d$8$E)
    2368                    $C$DW$187       .dwtag  DW_TAG_TI_loop_range
    2369                            .dwattr $C$DW$187, DW_AT_low_pc($C$DW$L$VLIB_kalmanFilter_4x6_Predict_d$9$B)
    2370                            .dwattr $C$DW$187, DW_AT_high_pc($C$DW$L$VLIB_kalmanFilter_4x6_Predict_d$9$E)
    2371                    $C$DW$188       .dwtag  DW_TAG_TI_loop_range
    2372                            .dwattr $C$DW$188, DW_AT_low_pc($C$DW$L$VLIB_kalmanFilter_4x6_Predict_d$27$B)
    2373                            .dwattr $C$DW$188, DW_AT_high_pc($C$DW$L$VLIB_kalmanFilter_4x6_Predict_d$27$E)
    2374                    $C$DW$189       .dwtag  DW_TAG_TI_loop_range
    2375                            .dwattr $C$DW$189, DW_AT_low_pc($C$DW$L$VLIB_kalmanFilter_4x6_Predict_d$28$B)
    2376                            .dwattr $C$DW$189, DW_AT_high_pc($C$DW$L$VLIB_kalmanFilter_4x6_Predict_d$28$E)
    2377                    $C$DW$190       .dwtag  DW_TAG_TI_loop_range
    2378                            .dwattr $C$DW$190, DW_AT_low_pc($C$DW$L$VLIB_kalmanFilter_4x6_Predict_d$29$B)
    2379                            .dwattr $C$DW$190, DW_AT_high_pc($C$DW$L$VLIB_kalmanFilter_4x6_Predict_d$29$E)
    2380                    $C$DW$191       .dwtag  DW_TAG_TI_loop_range
    2381                            .dwattr $C$DW$191, DW_AT_low_pc($C$DW$L$VLIB_kalmanFilter_4x6_Predict_d$30$B)
    2382                            .dwattr $C$DW$191, DW_AT_high_pc($C$DW$L$VLIB_kalmanFilter_4x6_Predict_d$30$E)
    2383                    
    2384                    $C$DW$192       .dwtag  DW_TAG_TI_loop
    2385                            .dwattr $C$DW$192, DW_AT_name("c:\nightlybuilds\vlib\ti\vlib\vlib\examples\package/lib/Regress
    2386                            .dwattr $C$DW$192, DW_AT_TI_begin_file("./../packages/ti/vlib/src/VLIB_kalmanFilter_4x6_Predic
    2387                            .dwattr $C$DW$192, DW_AT_TI_begin_line(0x56)
    2388                            .dwattr $C$DW$192, DW_AT_TI_end_line(0x5d)
    2389                    $C$DW$193       .dwtag  DW_TAG_TI_loop_range
    2390                            .dwattr $C$DW$193, DW_AT_low_pc($C$DW$L$VLIB_kalmanFilter_4x6_Predict_d$14$B)
    2391                            .dwattr $C$DW$193, DW_AT_high_pc($C$DW$L$VLIB_kalmanFilter_4x6_Predict_d$14$E)
    2392                            .dwendtag $C$DW$192
    2393                    
    2394                    
    2395                    $C$DW$194       .dwtag  DW_TAG_TI_loop
    2396                            .dwattr $C$DW$194, DW_AT_name("c:\nightlybuilds\vlib\ti\vlib\vlib\examples\package/lib/Regress
    2397                            .dwattr $C$DW$194, DW_AT_TI_begin_file("./../packages/ti/vlib/src/VLIB_kalmanFilter_4x6_Predic
    2398                            .dwattr $C$DW$194, DW_AT_TI_begin_line(0x89)
    2399                            .dwattr $C$DW$194, DW_AT_TI_end_line(0x9d)
    2400                    $C$DW$195       .dwtag  DW_TAG_TI_loop_range
    2401                            .dwattr $C$DW$195, DW_AT_low_pc($C$DW$L$VLIB_kalmanFilter_4x6_Predict_d$18$B)
    2402                            .dwattr $C$DW$195, DW_AT_high_pc($C$DW$L$VLIB_kalmanFilter_4x6_Predict_d$18$E)
    2403                    $C$DW$196       .dwtag  DW_TAG_TI_loop_range
    2404                            .dwattr $C$DW$196, DW_AT_low_pc($C$DW$L$VLIB_kalmanFilter_4x6_Predict_d$19$B)
    2405                            .dwattr $C$DW$196, DW_AT_high_pc($C$DW$L$VLIB_kalmanFilter_4x6_Predict_d$19$E)
    2406                    $C$DW$197       .dwtag  DW_TAG_TI_loop_range
    2407                            .dwattr $C$DW$197, DW_AT_low_pc($C$DW$L$VLIB_kalmanFilter_4x6_Predict_d$20$B)
    2408                            .dwattr $C$DW$197, DW_AT_high_pc($C$DW$L$VLIB_kalmanFilter_4x6_Predict_d$20$E)
    2409                    $C$DW$198       .dwtag  DW_TAG_TI_loop_range
    2410                            .dwattr $C$DW$198, DW_AT_low_pc($C$DW$L$VLIB_kalmanFilter_4x6_Predict_d$21$B)
    2411                            .dwattr $C$DW$198, DW_AT_high_pc($C$DW$L$VLIB_kalmanFilter_4x6_Predict_d$21$E)
    2412                            .dwendtag $C$DW$194
    2413                    
    2414                            .dwendtag $C$DW$171
    2415                    
    2416                            .dwattr $C$DW$81, DW_AT_TI_end_file("./../packages/ti/vlib/src/VLIB_kalmanFilter_4x6_Predict/V
    2417                            .dwattr $C$DW$81, DW_AT_TI_end_line(0xc8)
    2418                            .dwattr $C$DW$81, DW_AT_TI_end_column(0x01)
    2419                            .dwendentry
    2420                            .dwendtag $C$DW$81
TMS320C6x Assembler PC v7.4.2 Thu Mar 19 12:43:01 2015

Tools Copyright (c) 1996-2012 Texas Instruments Incorporated
package/lib/Regression/regress_d_c/./../packages/ti/vlib/src/VLIB_kalmanFilter_4x6_Predict/VLIB_kalmanFilter_4x6_Predict_d.se66 PAGE   45

    2421                    
    2422                    ;; Inlined function references:
    2423                    ;; [ 15] VLIB_profile_start
    2424                    ;; [ 16] VLIB_profile_stop
    2425                    ;; [ 19] VLIB_kernel_memory
    2426                    ;******************************************************************************
    2427                    ;* STRINGS                                                                    *
    2428                    ;******************************************************************************
    2429 00000000                   .sect   ".const:.string"
    2430 00000000 00000056  $C$SL1: .string "VLIB_kalmanFilter_4x6_Predict",0
         00000001 0000004C 
         00000002 00000049 
         00000003 00000042 
         00000004 0000005F 
         00000005 0000006B 
         00000006 00000061 
         00000007 0000006C 
         00000008 0000006D 
         00000009 00000061 
         0000000a 0000006E 
         0000000b 00000046 
         0000000c 00000069 
         0000000d 0000006C 
         0000000e 00000074 
         0000000f 00000065 
         00000010 00000072 
         00000011 0000005F 
         00000012 00000034 
         00000013 00000078 
         00000014 00000036 
         00000015 0000005F 
         00000016 00000050 
         00000017 00000072 
         00000018 00000065 
         00000019 00000064 
         0000001a 00000069 
         0000001b 00000063 
         0000001c 00000074 
         0000001d 00000000 
    2431 0000001e 0000006E  $C$SL2: .string "num_measurements=%d",0
         0000001f 00000075 
         00000020 0000006D 
         00000021 0000005F 
         00000022 0000006D 
         00000023 00000065 
         00000024 00000061 
         00000025 00000073 
         00000026 00000075 
         00000027 00000072 
         00000028 00000065 
         00000029 0000006D 
         0000002a 00000065 
         0000002b 0000006E 
         0000002c 00000074 
         0000002d 00000073 
TMS320C6x Assembler PC v7.4.2 Thu Mar 19 12:43:01 2015

Tools Copyright (c) 1996-2012 Texas Instruments Incorporated
package/lib/Regression/regress_d_c/./../packages/ti/vlib/src/VLIB_kalmanFilter_4x6_Predict/VLIB_kalmanFilter_4x6_Predict_d.se66 PAGE   46

         0000002e 0000003D 
         0000002f 00000025 
         00000030 00000064 
         00000031 00000000 
    2432 00000032 00000025  $C$SL3: .string "%s generated input | Opt results compared to NatC results |"
         00000033 00000073 
         00000034 00000020 
         00000035 00000067 
         00000036 00000065 
         00000037 0000006E 
         00000038 00000065 
         00000039 00000072 
         0000003a 00000061 
         0000003b 00000074 
         0000003c 00000065 
         0000003d 00000064 
         0000003e 00000020 
         0000003f 00000069 
         00000040 0000006E 
         00000041 00000070 
         00000042 00000075 
         00000043 00000074 
         00000044 00000020 
         00000045 0000007C 
         00000046 00000020 
         00000047 0000004F 
         00000048 00000070 
         00000049 00000074 
         0000004a 00000020 
         0000004b 00000072 
         0000004c 00000065 
         0000004d 00000073 
         0000004e 00000075 
         0000004f 0000006C 
         00000050 00000074 
         00000051 00000073 
         00000052 00000020 
         00000053 00000063 
         00000054 0000006F 
         00000055 0000006D 
         00000056 00000070 
         00000057 00000061 
         00000058 00000072 
         00000059 00000065 
         0000005a 00000064 
         0000005b 00000020 
         0000005c 00000074 
         0000005d 0000006F 
         0000005e 00000020 
         0000005f 0000004E 
         00000060 00000061 
         00000061 00000074 
         00000062 00000043 
         00000063 00000020 
         00000064 00000072 
TMS320C6x Assembler PC v7.4.2 Thu Mar 19 12:43:01 2015

Tools Copyright (c) 1996-2012 Texas Instruments Incorporated
package/lib/Regression/regress_d_c/./../packages/ti/vlib/src/VLIB_kalmanFilter_4x6_Predict/VLIB_kalmanFilter_4x6_Predict_d.se66 PAGE   47

         00000065 00000065 
         00000066 00000073 
         00000067 00000075 
         00000068 0000006C 
         00000069 00000074 
         0000006a 00000073 
         0000006b 00000020 
         0000006c 0000007C 
    2433 0000006d 00000020          .string " num_measurements=%d",0
         0000006e 0000006E 
         0000006f 00000075 
         00000070 0000006D 
         00000071 0000005F 
         00000072 0000006D 
         00000073 00000065 
         00000074 00000061 
         00000075 00000073 
         00000076 00000075 
         00000077 00000072 
         00000078 00000065 
         00000079 0000006D 
         0000007a 00000065 
         0000007b 0000006E 
         0000007c 00000074 
         0000007d 00000073 
         0000007e 0000003D 
         0000007f 00000025 
         00000080 00000064 
         00000081 00000000 
    2434 00000082 0000006E  $C$SL4: .string "number of measurements",0
         00000083 00000075 
         00000084 0000006D 
         00000085 00000062 
         00000086 00000065 
         00000087 00000072 
         00000088 00000020 
         00000089 0000006F 
         0000008a 00000066 
         0000008b 00000020 
         0000008c 0000006D 
         0000008d 00000065 
         0000008e 00000061 
         0000008f 00000073 
         00000090 00000075 
         00000091 00000072 
         00000092 00000065 
         00000093 0000006D 
         00000094 00000065 
         00000095 0000006E 
         00000096 00000074 
         00000097 00000073 
         00000098 00000000 
    2435 00000099 0000004E  $C$SL5: .string "N = number of measurements",0
         0000009a 00000020 
         0000009b 0000003D 
TMS320C6x Assembler PC v7.4.2 Thu Mar 19 12:43:01 2015

Tools Copyright (c) 1996-2012 Texas Instruments Incorporated
package/lib/Regression/regress_d_c/./../packages/ti/vlib/src/VLIB_kalmanFilter_4x6_Predict/VLIB_kalmanFilter_4x6_Predict_d.se66 PAGE   48

         0000009c 00000020 
         0000009d 0000006E 
         0000009e 00000075 
         0000009f 0000006D 
         000000a0 00000062 
         000000a1 00000065 
         000000a2 00000072 
         000000a3 00000020 
         000000a4 0000006F 
         000000a5 00000066 
         000000a6 00000020 
         000000a7 0000006D 
         000000a8 00000065 
         000000a9 00000061 
         000000aa 00000073 
         000000ab 00000075 
         000000ac 00000072 
         000000ad 00000065 
         000000ae 0000006D 
         000000af 00000065 
         000000b0 0000006E 
         000000b1 00000074 
         000000b2 00000073 
         000000b3 00000000 
    2436 000000b4 0000002D  $C$SL6: .string "-----------------------------------------------------------"
         000000b5 0000002D 
         000000b6 0000002D 
         000000b7 0000002D 
         000000b8 0000002D 
         000000b9 0000002D 
         000000ba 0000002D 
         000000bb 0000002D 
         000000bc 0000002D 
         000000bd 0000002D 
         000000be 0000002D 
         000000bf 0000002D 
         000000c0 0000002D 
         000000c1 0000002D 
         000000c2 0000002D 
         000000c3 0000002D 
         000000c4 0000002D 
         000000c5 0000002D 
         000000c6 0000002D 
         000000c7 0000002D 
         000000c8 0000002D 
         000000c9 0000002D 
         000000ca 0000002D 
         000000cb 0000002D 
         000000cc 0000002D 
         000000cd 0000002D 
         000000ce 0000002D 
         000000cf 0000002D 
         000000d0 0000002D 
         000000d1 0000002D 
         000000d2 0000002D 
TMS320C6x Assembler PC v7.4.2 Thu Mar 19 12:43:01 2015

Tools Copyright (c) 1996-2012 Texas Instruments Incorporated
package/lib/Regression/regress_d_c/./../packages/ti/vlib/src/VLIB_kalmanFilter_4x6_Predict/VLIB_kalmanFilter_4x6_Predict_d.se66 PAGE   49

         000000d3 0000002D 
         000000d4 0000002D 
         000000d5 0000002D 
         000000d6 0000002D 
         000000d7 0000002D 
         000000d8 0000002D 
         000000d9 0000002D 
         000000da 0000002D 
         000000db 0000002D 
         000000dc 0000002D 
         000000dd 0000002D 
         000000de 0000002D 
         000000df 0000002D 
         000000e0 0000002D 
         000000e1 0000002D 
         000000e2 0000002D 
         000000e3 0000002D 
         000000e4 0000002D 
         000000e5 0000002D 
         000000e6 0000002D 
         000000e7 0000002D 
         000000e8 0000002D 
         000000e9 0000002D 
         000000ea 0000002D 
         000000eb 0000002D 
         000000ec 0000002D 
         000000ed 0000002D 
         000000ee 0000002D 
    2437 000000ef 0000002D          .string "-----------------------------------------------------------"
         000000f0 0000002D 
         000000f1 0000002D 
         000000f2 0000002D 
         000000f3 0000002D 
         000000f4 0000002D 
         000000f5 0000002D 
         000000f6 0000002D 
         000000f7 0000002D 
         000000f8 0000002D 
         000000f9 0000002D 
         000000fa 0000002D 
         000000fb 0000002D 
         000000fc 0000002D 
         000000fd 0000002D 
         000000fe 0000002D 
         000000ff 0000002D 
         00000100 0000002D 
         00000101 0000002D 
         00000102 0000002D 
         00000103 0000002D 
         00000104 0000002D 
         00000105 0000002D 
         00000106 0000002D 
         00000107 0000002D 
         00000108 0000002D 
         00000109 0000002D 
TMS320C6x Assembler PC v7.4.2 Thu Mar 19 12:43:01 2015

Tools Copyright (c) 1996-2012 Texas Instruments Incorporated
package/lib/Regression/regress_d_c/./../packages/ti/vlib/src/VLIB_kalmanFilter_4x6_Predict/VLIB_kalmanFilter_4x6_Predict_d.se66 PAGE   50

         0000010a 0000002D 
         0000010b 0000002D 
         0000010c 0000002D 
         0000010d 0000002D 
         0000010e 0000002D 
         0000010f 0000002D 
         00000110 0000002D 
         00000111 0000002D 
         00000112 0000002D 
         00000113 0000002D 
         00000114 0000002D 
         00000115 0000002D 
         00000116 0000002D 
         00000117 0000002D 
         00000118 0000002D 
         00000119 0000002D 
         0000011a 0000002D 
         0000011b 0000002D 
         0000011c 0000002D 
         0000011d 0000002D 
         0000011e 0000002D 
         0000011f 0000002D 
         00000120 0000002D 
         00000121 0000002D 
         00000122 0000002D 
         00000123 0000002D 
         00000124 0000002D 
         00000125 0000002D 
         00000126 0000002D 
         00000127 0000002D 
         00000128 0000002D 
         00000129 0000002D 
    2438 0000012a 0000002D          .string "-----------------------",10,0
         0000012b 0000002D 
         0000012c 0000002D 
         0000012d 0000002D 
         0000012e 0000002D 
         0000012f 0000002D 
         00000130 0000002D 
         00000131 0000002D 
         00000132 0000002D 
         00000133 0000002D 
         00000134 0000002D 
         00000135 0000002D 
         00000136 0000002D 
         00000137 0000002D 
         00000138 0000002D 
         00000139 0000002D 
         0000013a 0000002D 
         0000013b 0000002D 
         0000013c 0000002D 
         0000013d 0000002D 
         0000013e 0000002D 
         0000013f 0000002D 
         00000140 0000002D 
TMS320C6x Assembler PC v7.4.2 Thu Mar 19 12:43:01 2015

Tools Copyright (c) 1996-2012 Texas Instruments Incorporated
package/lib/Regression/regress_d_c/./../packages/ti/vlib/src/VLIB_kalmanFilter_4x6_Predict/VLIB_kalmanFilter_4x6_Predict_d.se66 PAGE   51

         00000141 0000000A 
         00000142 00000000 
    2439                    ;*****************************************************************************
    2440                    ;* UNDEFINED EXTERNAL REFERENCES                                             *
    2441                    ;*****************************************************************************
    2442                            .global printf
    2443                            .global sprintf
    2444                            .global memset
    2445                            .global free
    2446                            .global memalign
    2447                            .global VLIB_cache_inval
    2448                            .global VLIB_profile_init
    2449                            .global VLIB_formula_add_test
    2450                            .global VLIB_skip_test
    2451                            .global VLIB_profile_cycle_report
    2452                            .global initStack
    2453                            .global setStackDepth
    2454                            .global getSP
    2455                            .global VLIB_stack_memory
    2456                            .global VLIB_compare_mem
    2457                            .global VLIB_fillBuffer
    2458                            .global VLIB_memalign
    2459                            .global VLIB_align_free
    2460                            .global VLIB_kalmanFilter_4x6_Correct_cn
    2461                            .global VLIB_kalmanFilter_4x6_Predict
    2462                            .global VLIB_kalmanFilter_4x6_Predict_cn
    2463                            .global kalmanFilter_4x6_Predict_getTestParams
    2464                            .global test_cases
    2465                            .global act_kernel
    2466                            .global desc
    2467                            .global testPatternString
    2468                            .global est_test
    2469                            .global beg_count
    2470                            .global end_count
    2471                            .global overhead
    2472                            .global cycles
    2473                    
    2474                    ;******************************************************************************
    2475                    ;* BUILD ATTRIBUTES                                                           *
    2476                    ;******************************************************************************
    2477                            .battr "TI", Tag_File, 1, Tag_Long_Precision_Bits(2)
    2478                            .battr "TI", Tag_File, 1, Tag_Bitfield_layout(2)
    2479                            .battr "TI", Tag_File, 1, Tag_ABI_enum_size(2)
    2480                            .battr "c6xabi", Tag_File, 1, Tag_ABI_wchar_t(1)
    2481                            .battr "c6xabi", Tag_File, 1, Tag_ABI_array_object_alignment(0)
    2482                            .battr "c6xabi", Tag_File, 1, Tag_ABI_array_object_align_expected(0)
    2483                            .battr "c6xabi", Tag_File, 1, Tag_ABI_PIC(0)
    2484                            .battr "c6xabi", Tag_File, 1, Tag_ABI_PID(0)
    2485                            .battr "c6xabi", Tag_File, 1, Tag_ABI_DSBT(0)
    2486                            .battr "c6xabi", Tag_File, 1, Tag_ABI_stack_align_needed(0)
    2487                            .battr "c6xabi", Tag_File, 1, Tag_ABI_stack_align_preserved(0)
    2488                            .battr "TI", Tag_File, 1, Tag_Tramps_Use_SOC(1)
    2489                    
    2490                    ;******************************************************************************
    2491                    ;* TYPE INFORMATION                                                           *
TMS320C6x Assembler PC v7.4.2 Thu Mar 19 12:43:01 2015

Tools Copyright (c) 1996-2012 Texas Instruments Incorporated
package/lib/Regression/regress_d_c/./../packages/ti/vlib/src/VLIB_kalmanFilter_4x6_Predict/VLIB_kalmanFilter_4x6_Predict_d.se66 PAGE   52

    2492                    ;******************************************************************************
    2493                    
    2494                    $C$DW$T$59      .dwtag  DW_TAG_enumeration_type
    2495                            .dwattr $C$DW$T$59, DW_AT_byte_size(0x04)
    2496                    $C$DW$199       .dwtag  DW_TAG_enumerator, DW_AT_name("VLIB_NO_ERROR"), DW_AT_const_value(0x00)
    2497                            .dwattr $C$DW$199, DW_AT_decl_file(".\..\packages\ti\vlib\src\VLIB_kalmanFilter_4x6_Predict\..
    2498                            .dwattr $C$DW$199, DW_AT_decl_line(0x7a)
    2499                            .dwattr $C$DW$199, DW_AT_decl_column(0x05)
    2500                    $C$DW$200       .dwtag  DW_TAG_enumerator, DW_AT_name("VLIB_ERR_INPUT_INVALID"), DW_AT_const_value(0x0
    2501                            .dwattr $C$DW$200, DW_AT_decl_file(".\..\packages\ti\vlib\src\VLIB_kalmanFilter_4x6_Predict\..
    2502                            .dwattr $C$DW$200, DW_AT_decl_line(0x7b)
    2503                            .dwattr $C$DW$200, DW_AT_decl_column(0x05)
    2504                    $C$DW$201       .dwtag  DW_TAG_enumerator, DW_AT_name("VLIB_ERR_INPUT_NEGATIVE"), DW_AT_const_value(0x
    2505                            .dwattr $C$DW$201, DW_AT_decl_file(".\..\packages\ti\vlib\src\VLIB_kalmanFilter_4x6_Predict\..
    2506                            .dwattr $C$DW$201, DW_AT_decl_line(0x7c)
    2507                            .dwattr $C$DW$201, DW_AT_decl_column(0x05)
    2508                    $C$DW$202       .dwtag  DW_TAG_enumerator, DW_AT_name("VLIB_ERR_INPUT_EXCEEDED_RANGE"), DW_AT_const_va
    2509                            .dwattr $C$DW$202, DW_AT_decl_file(".\..\packages\ti\vlib\src\VLIB_kalmanFilter_4x6_Predict\..
    2510                            .dwattr $C$DW$202, DW_AT_decl_line(0x7d)
    2511                            .dwattr $C$DW$202, DW_AT_decl_column(0x05)
    2512                    $C$DW$203       .dwtag  DW_TAG_enumerator, DW_AT_name("VLIB_ERR_MEMORY_EXCEEDED_BOUNDARY"), DW_AT_cons
    2513                            .dwattr $C$DW$203, DW_AT_decl_file(".\..\packages\ti\vlib\src\VLIB_kalmanFilter_4x6_Predict\..
    2514                            .dwattr $C$DW$203, DW_AT_decl_line(0x7e)
    2515                            .dwattr $C$DW$203, DW_AT_decl_column(0x05)
    2516                    $C$DW$204       .dwtag  DW_TAG_enumerator, DW_AT_name("VLIB_ERR_MEMORY_ALLOCATION_FAILURE"), DW_AT_con
    2517                            .dwattr $C$DW$204, DW_AT_decl_file(".\..\packages\ti\vlib\src\VLIB_kalmanFilter_4x6_Predict\..
    2518                            .dwattr $C$DW$204, DW_AT_decl_line(0x7f)
    2519                            .dwattr $C$DW$204, DW_AT_decl_column(0x05)
    2520                    $C$DW$205       .dwtag  DW_TAG_enumerator, DW_AT_name("VLIB_ERR_MEMORY_POINTER_NULL"), DW_AT_const_val
    2521                            .dwattr $C$DW$205, DW_AT_decl_file(".\..\packages\ti\vlib\src\VLIB_kalmanFilter_4x6_Predict\..
    2522                            .dwattr $C$DW$205, DW_AT_decl_line(0x80)
    2523                            .dwattr $C$DW$205, DW_AT_decl_column(0x05)
    2524                    $C$DW$206       .dwtag  DW_TAG_enumerator, DW_AT_name("VLIB_ERR_DMA_FAILURE"), DW_AT_const_value(0x07)
    2525                            .dwattr $C$DW$206, DW_AT_decl_file(".\..\packages\ti\vlib\src\VLIB_kalmanFilter_4x6_Predict\..
    2526                            .dwattr $C$DW$206, DW_AT_decl_line(0x81)
    2527                            .dwattr $C$DW$206, DW_AT_decl_column(0x05)
    2528                    $C$DW$207       .dwtag  DW_TAG_enumerator, DW_AT_name("VLIB_ERR_FILE_OPEN_FAILURE"), DW_AT_const_value
    2529                            .dwattr $C$DW$207, DW_AT_decl_file(".\..\packages\ti\vlib\src\VLIB_kalmanFilter_4x6_Predict\..
    2530                            .dwattr $C$DW$207, DW_AT_decl_line(0x82)
    2531                            .dwattr $C$DW$207, DW_AT_decl_column(0x05)
    2532                    $C$DW$208       .dwtag  DW_TAG_enumerator, DW_AT_name("VLIB_ERR_FILE_READ_FAILURE"), DW_AT_const_value
    2533                            .dwattr $C$DW$208, DW_AT_decl_file(".\..\packages\ti\vlib\src\VLIB_kalmanFilter_4x6_Predict\..
    2534                            .dwattr $C$DW$208, DW_AT_decl_line(0x83)
    2535                            .dwattr $C$DW$208, DW_AT_decl_column(0x05)
    2536                    $C$DW$209       .dwtag  DW_TAG_enumerator, DW_AT_name("VLIB_ERR_FILE_WRITE_FAILURE"), DW_AT_const_valu
    2537                            .dwattr $C$DW$209, DW_AT_decl_file(".\..\packages\ti\vlib\src\VLIB_kalmanFilter_4x6_Predict\..
    2538                            .dwattr $C$DW$209, DW_AT_decl_line(0x84)
    2539                            .dwattr $C$DW$209, DW_AT_decl_column(0x05)
    2540                    $C$DW$210       .dwtag  DW_TAG_enumerator, DW_AT_name("VLIB_ERR_FILE_CLOSE_FAILURE"), DW_AT_const_valu
    2541                            .dwattr $C$DW$210, DW_AT_decl_file(".\..\packages\ti\vlib\src\VLIB_kalmanFilter_4x6_Predict\..
    2542                            .dwattr $C$DW$210, DW_AT_decl_line(0x85)
    2543                            .dwattr $C$DW$210, DW_AT_decl_column(0x05)
    2544                    $C$DW$211       .dwtag  DW_TAG_enumerator, DW_AT_name("VLIB_ERR_FILE_FORMAT_FAILURE"), DW_AT_const_val
    2545                            .dwattr $C$DW$211, DW_AT_decl_file(".\..\packages\ti\vlib\src\VLIB_kalmanFilter_4x6_Predict\..
    2546                            .dwattr $C$DW$211, DW_AT_decl_line(0x86)
TMS320C6x Assembler PC v7.4.2 Thu Mar 19 12:43:01 2015

Tools Copyright (c) 1996-2012 Texas Instruments Incorporated
package/lib/Regression/regress_d_c/./../packages/ti/vlib/src/VLIB_kalmanFilter_4x6_Predict/VLIB_kalmanFilter_4x6_Predict_d.se66 PAGE   53

    2547                            .dwattr $C$DW$211, DW_AT_decl_column(0x05)
    2548                    $C$DW$212       .dwtag  DW_TAG_enumerator, DW_AT_name("VLIB_WARNING_LOW_MEMORY"), DW_AT_const_value(0x
    2549                            .dwattr $C$DW$212, DW_AT_decl_file(".\..\packages\ti\vlib\src\VLIB_kalmanFilter_4x6_Predict\..
    2550                            .dwattr $C$DW$212, DW_AT_decl_line(0x87)
    2551                            .dwattr $C$DW$212, DW_AT_decl_column(0x05)
    2552                    $C$DW$213       .dwtag  DW_TAG_enumerator, DW_AT_name("VLIB_ERR_NOT_IMPLEMENTED"), DW_AT_const_value(0
    2553                            .dwattr $C$DW$213, DW_AT_decl_file(".\..\packages\ti\vlib\src\VLIB_kalmanFilter_4x6_Predict\..
    2554                            .dwattr $C$DW$213, DW_AT_decl_line(0x88)
    2555                            .dwattr $C$DW$213, DW_AT_decl_column(0x05)
    2556                    $C$DW$214       .dwtag  DW_TAG_enumerator, DW_AT_name("VLIB_ERROR_MAX"), DW_AT_const_value(0x0f)
    2557                            .dwattr $C$DW$214, DW_AT_decl_file(".\..\packages\ti\vlib\src\VLIB_kalmanFilter_4x6_Predict\..
    2558                            .dwattr $C$DW$214, DW_AT_decl_line(0x89)
    2559                            .dwattr $C$DW$214, DW_AT_decl_column(0x05)
    2560                            .dwendtag $C$DW$T$59
    2561                    
    2562                            .dwattr $C$DW$T$59, DW_AT_decl_file(".\..\packages\ti\vlib\src\VLIB_kalmanFilter_4x6_Predict\.
    2563                            .dwattr $C$DW$T$59, DW_AT_decl_line(0x79)
    2564                            .dwattr $C$DW$T$59, DW_AT_decl_column(0x0e)
    2565                    $C$DW$T$60      .dwtag  DW_TAG_typedef, DW_AT_name("VLIB_STATUS")
    2566                            .dwattr $C$DW$T$60, DW_AT_type(*$C$DW$T$59)
    2567                            .dwattr $C$DW$T$60, DW_AT_language(DW_LANG_C)
    2568                            .dwattr $C$DW$T$60, DW_AT_decl_file(".\..\packages\ti\vlib\src\VLIB_kalmanFilter_4x6_Predict\.
    2569                            .dwattr $C$DW$T$60, DW_AT_decl_line(0x8a)
    2570                            .dwattr $C$DW$T$60, DW_AT_decl_column(0x03)
    2571                    
    2572                    $C$DW$T$61      .dwtag  DW_TAG_enumeration_type
    2573                            .dwattr $C$DW$T$61, DW_AT_byte_size(0x04)
    2574                    $C$DW$215       .dwtag  DW_TAG_enumerator, DW_AT_name("vlib_KERNEL_OPT"), DW_AT_const_value(0x00)
    2575                            .dwattr $C$DW$215, DW_AT_decl_file(".\..\packages\ti\vlib\src\VLIB_kalmanFilter_4x6_Predict\..
    2576                            .dwattr $C$DW$215, DW_AT_decl_line(0x6a)
    2577                            .dwattr $C$DW$215, DW_AT_decl_column(0x05)
    2578                    $C$DW$216       .dwtag  DW_TAG_enumerator, DW_AT_name("vlib_KERNEL_CN"), DW_AT_const_value(0x01)
    2579                            .dwattr $C$DW$216, DW_AT_decl_file(".\..\packages\ti\vlib\src\VLIB_kalmanFilter_4x6_Predict\..
    2580                            .dwattr $C$DW$216, DW_AT_decl_line(0x6b)
    2581                            .dwattr $C$DW$216, DW_AT_decl_column(0x05)
    2582                    $C$DW$217       .dwtag  DW_TAG_enumerator, DW_AT_name("vlib_KERNEL_CNT"), DW_AT_const_value(0x02)
    2583                            .dwattr $C$DW$217, DW_AT_decl_file(".\..\packages\ti\vlib\src\VLIB_kalmanFilter_4x6_Predict\..
    2584                            .dwattr $C$DW$217, DW_AT_decl_line(0x6c)
    2585                            .dwattr $C$DW$217, DW_AT_decl_column(0x05)
    2586                            .dwendtag $C$DW$T$61
    2587                    
    2588                            .dwattr $C$DW$T$61, DW_AT_decl_file(".\..\packages\ti\vlib\src\VLIB_kalmanFilter_4x6_Predict\.
    2589                            .dwattr $C$DW$T$61, DW_AT_decl_line(0x69)
    2590                            .dwattr $C$DW$T$61, DW_AT_decl_column(0x06)
    2591                    
    2592                    $C$DW$T$62      .dwtag  DW_TAG_enumeration_type
    2593                            .dwattr $C$DW$T$62, DW_AT_byte_size(0x04)
    2594                    $C$DW$218       .dwtag  DW_TAG_enumerator, DW_AT_name("vlib_KERNEL_FAIL"), DW_AT_const_value(0x00)
    2595                            .dwattr $C$DW$218, DW_AT_decl_file(".\..\packages\ti\vlib\src\VLIB_kalmanFilter_4x6_Predict\..
    2596                            .dwattr $C$DW$218, DW_AT_decl_line(0x72)
    2597                            .dwattr $C$DW$218, DW_AT_decl_column(0x05)
    2598                    $C$DW$219       .dwtag  DW_TAG_enumerator, DW_AT_name("vlib_KERNEL_PASS"), DW_AT_const_value(0x01)
    2599                            .dwattr $C$DW$219, DW_AT_decl_file(".\..\packages\ti\vlib\src\VLIB_kalmanFilter_4x6_Predict\..
    2600                            .dwattr $C$DW$219, DW_AT_decl_line(0x73)
    2601                            .dwattr $C$DW$219, DW_AT_decl_column(0x05)
TMS320C6x Assembler PC v7.4.2 Thu Mar 19 12:43:01 2015

Tools Copyright (c) 1996-2012 Texas Instruments Incorporated
package/lib/Regression/regress_d_c/./../packages/ti/vlib/src/VLIB_kalmanFilter_4x6_Predict/VLIB_kalmanFilter_4x6_Predict_d.se66 PAGE   54

    2602                            .dwendtag $C$DW$T$62
    2603                    
    2604                            .dwattr $C$DW$T$62, DW_AT_decl_file(".\..\packages\ti\vlib\src\VLIB_kalmanFilter_4x6_Predict\.
    2605                            .dwattr $C$DW$T$62, DW_AT_decl_line(0x71)
    2606                            .dwattr $C$DW$T$62, DW_AT_decl_column(0x06)
    2607                    
    2608                    $C$DW$T$25      .dwtag  DW_TAG_structure_type
    2609                            .dwattr $C$DW$T$25, DW_AT_byte_size(0x10)
    2610                    $C$DW$220       .dwtag  DW_TAG_member
    2611                            .dwattr $C$DW$220, DW_AT_type(*$C$DW$T$19)
    2612                            .dwattr $C$DW$220, DW_AT_name("testPattern")
    2613                            .dwattr $C$DW$220, DW_AT_TI_symbol_name("testPattern")
    2614                            .dwattr $C$DW$220, DW_AT_data_member_location[DW_OP_plus_uconst 0x0]
    2615                            .dwattr $C$DW$220, DW_AT_accessibility(DW_ACCESS_public)
    2616                            .dwattr $C$DW$220, DW_AT_decl_file(".\..\packages\ti\vlib\src\VLIB_kalmanFilter_4x6_Predict\VL
    2617                            .dwattr $C$DW$220, DW_AT_decl_line(0x24)
    2618                            .dwattr $C$DW$220, DW_AT_decl_column(0x0f)
    2619                    $C$DW$221       .dwtag  DW_TAG_member
    2620                            .dwattr $C$DW$221, DW_AT_type(*$C$DW$T$21)
    2621                            .dwattr $C$DW$221, DW_AT_name("staticIn")
    2622                            .dwattr $C$DW$221, DW_AT_TI_symbol_name("staticIn")
    2623                            .dwattr $C$DW$221, DW_AT_data_member_location[DW_OP_plus_uconst 0x4]
    2624                            .dwattr $C$DW$221, DW_AT_accessibility(DW_ACCESS_public)
    2625                            .dwattr $C$DW$221, DW_AT_decl_file(".\..\packages\ti\vlib\src\VLIB_kalmanFilter_4x6_Predict\VL
    2626                            .dwattr $C$DW$221, DW_AT_decl_line(0x25)
    2627                            .dwattr $C$DW$221, DW_AT_decl_column(0x0f)
    2628                    $C$DW$222       .dwtag  DW_TAG_member
    2629                            .dwattr $C$DW$222, DW_AT_type(*$C$DW$T$23)
    2630                            .dwattr $C$DW$222, DW_AT_name("staticOut")
    2631                            .dwattr $C$DW$222, DW_AT_TI_symbol_name("staticOut")
    2632                            .dwattr $C$DW$222, DW_AT_data_member_location[DW_OP_plus_uconst 0x8]
    2633                            .dwattr $C$DW$222, DW_AT_accessibility(DW_ACCESS_public)
    2634                            .dwattr $C$DW$222, DW_AT_decl_file(".\..\packages\ti\vlib\src\VLIB_kalmanFilter_4x6_Predict\VL
    2635                            .dwattr $C$DW$222, DW_AT_decl_line(0x26)
    2636                            .dwattr $C$DW$222, DW_AT_decl_column(0x0f)
    2637                    $C$DW$223       .dwtag  DW_TAG_member
    2638                            .dwattr $C$DW$223, DW_AT_type(*$C$DW$T$24)
    2639                            .dwattr $C$DW$223, DW_AT_name("numMeasurements")
    2640                            .dwattr $C$DW$223, DW_AT_TI_symbol_name("numMeasurements")
    2641                            .dwattr $C$DW$223, DW_AT_data_member_location[DW_OP_plus_uconst 0xc]
    2642                            .dwattr $C$DW$223, DW_AT_accessibility(DW_ACCESS_public)
    2643                            .dwattr $C$DW$223, DW_AT_decl_file(".\..\packages\ti\vlib\src\VLIB_kalmanFilter_4x6_Predict\VL
    2644                            .dwattr $C$DW$223, DW_AT_decl_line(0x27)
    2645                            .dwattr $C$DW$223, DW_AT_decl_column(0x0f)
    2646                            .dwendtag $C$DW$T$25
    2647                    
    2648                            .dwattr $C$DW$T$25, DW_AT_decl_file(".\..\packages\ti\vlib\src\VLIB_kalmanFilter_4x6_Predict\V
    2649                            .dwattr $C$DW$T$25, DW_AT_decl_line(0x23)
    2650                            .dwattr $C$DW$T$25, DW_AT_decl_column(0x10)
    2651                    $C$DW$T$63      .dwtag  DW_TAG_pointer_type
    2652                            .dwattr $C$DW$T$63, DW_AT_type(*$C$DW$T$25)
    2653                            .dwattr $C$DW$T$63, DW_AT_address_class(0x20)
    2654                    $C$DW$T$65      .dwtag  DW_TAG_typedef, DW_AT_name("kalmanFilter_4x6_Predict_testParams_t")
    2655                            .dwattr $C$DW$T$65, DW_AT_type(*$C$DW$T$25)
    2656                            .dwattr $C$DW$T$65, DW_AT_language(DW_LANG_C)
TMS320C6x Assembler PC v7.4.2 Thu Mar 19 12:43:01 2015

Tools Copyright (c) 1996-2012 Texas Instruments Incorporated
package/lib/Regression/regress_d_c/./../packages/ti/vlib/src/VLIB_kalmanFilter_4x6_Predict/VLIB_kalmanFilter_4x6_Predict_d.se66 PAGE   55

    2657                            .dwattr $C$DW$T$65, DW_AT_decl_file(".\..\packages\ti\vlib\src\VLIB_kalmanFilter_4x6_Predict\V
    2658                            .dwattr $C$DW$T$65, DW_AT_decl_line(0x28)
    2659                            .dwattr $C$DW$T$65, DW_AT_decl_column(0x03)
    2660                    $C$DW$T$66      .dwtag  DW_TAG_pointer_type
    2661                            .dwattr $C$DW$T$66, DW_AT_type(*$C$DW$T$65)
    2662                            .dwattr $C$DW$T$66, DW_AT_address_class(0x20)
    2663                    $C$DW$T$67      .dwtag  DW_TAG_pointer_type
    2664                            .dwattr $C$DW$T$67, DW_AT_type(*$C$DW$T$66)
    2665                            .dwattr $C$DW$T$67, DW_AT_address_class(0x20)
    2666                    
    2667                    $C$DW$T$27      .dwtag  DW_TAG_structure_type
    2668                            .dwattr $C$DW$T$27, DW_AT_byte_size(0x18)
    2669                    $C$DW$224       .dwtag  DW_TAG_member
    2670                            .dwattr $C$DW$224, DW_AT_type(*$C$DW$T$10)
    2671                            .dwattr $C$DW$224, DW_AT_name("fd")
    2672                            .dwattr $C$DW$224, DW_AT_TI_symbol_name("fd")
    2673                            .dwattr $C$DW$224, DW_AT_data_member_location[DW_OP_plus_uconst 0x0]
    2674                            .dwattr $C$DW$224, DW_AT_accessibility(DW_ACCESS_public)
    2675                            .dwattr $C$DW$224, DW_AT_decl_file("C:/VLIB_Tools/CCSV5_4_0/ccsv5/tools/compiler/C6000/include
    2676                            .dwattr $C$DW$224, DW_AT_decl_line(0x49)
    2677                            .dwattr $C$DW$224, DW_AT_decl_column(0x0b)
    2678                    $C$DW$225       .dwtag  DW_TAG_member
    2679                            .dwattr $C$DW$225, DW_AT_type(*$C$DW$T$26)
    2680                            .dwattr $C$DW$225, DW_AT_name("buf")
    2681                            .dwattr $C$DW$225, DW_AT_TI_symbol_name("buf")
    2682                            .dwattr $C$DW$225, DW_AT_data_member_location[DW_OP_plus_uconst 0x4]
    2683                            .dwattr $C$DW$225, DW_AT_accessibility(DW_ACCESS_public)
    2684                            .dwattr $C$DW$225, DW_AT_decl_file("C:/VLIB_Tools/CCSV5_4_0/ccsv5/tools/compiler/C6000/include
    2685                            .dwattr $C$DW$225, DW_AT_decl_line(0x4a)
    2686                            .dwattr $C$DW$225, DW_AT_decl_column(0x16)
    2687                    $C$DW$226       .dwtag  DW_TAG_member
    2688                            .dwattr $C$DW$226, DW_AT_type(*$C$DW$T$26)
    2689                            .dwattr $C$DW$226, DW_AT_name("pos")
    2690                            .dwattr $C$DW$226, DW_AT_TI_symbol_name("pos")
    2691                            .dwattr $C$DW$226, DW_AT_data_member_location[DW_OP_plus_uconst 0x8]
    2692                            .dwattr $C$DW$226, DW_AT_accessibility(DW_ACCESS_public)
    2693                            .dwattr $C$DW$226, DW_AT_decl_file("C:/VLIB_Tools/CCSV5_4_0/ccsv5/tools/compiler/C6000/include
    2694                            .dwattr $C$DW$226, DW_AT_decl_line(0x4b)
    2695                            .dwattr $C$DW$226, DW_AT_decl_column(0x16)
    2696                    $C$DW$227       .dwtag  DW_TAG_member
    2697                            .dwattr $C$DW$227, DW_AT_type(*$C$DW$T$26)
    2698                            .dwattr $C$DW$227, DW_AT_name("bufend")
    2699                            .dwattr $C$DW$227, DW_AT_TI_symbol_name("bufend")
    2700                            .dwattr $C$DW$227, DW_AT_data_member_location[DW_OP_plus_uconst 0xc]
    2701                            .dwattr $C$DW$227, DW_AT_accessibility(DW_ACCESS_public)
    2702                            .dwattr $C$DW$227, DW_AT_decl_file("C:/VLIB_Tools/CCSV5_4_0/ccsv5/tools/compiler/C6000/include
    2703                            .dwattr $C$DW$227, DW_AT_decl_line(0x4c)
    2704                            .dwattr $C$DW$227, DW_AT_decl_column(0x16)
    2705                    $C$DW$228       .dwtag  DW_TAG_member
    2706                            .dwattr $C$DW$228, DW_AT_type(*$C$DW$T$26)
    2707                            .dwattr $C$DW$228, DW_AT_name("buff_stop")
    2708                            .dwattr $C$DW$228, DW_AT_TI_symbol_name("buff_stop")
    2709                            .dwattr $C$DW$228, DW_AT_data_member_location[DW_OP_plus_uconst 0x10]
    2710                            .dwattr $C$DW$228, DW_AT_accessibility(DW_ACCESS_public)
    2711                            .dwattr $C$DW$228, DW_AT_decl_file("C:/VLIB_Tools/CCSV5_4_0/ccsv5/tools/compiler/C6000/include
TMS320C6x Assembler PC v7.4.2 Thu Mar 19 12:43:01 2015

Tools Copyright (c) 1996-2012 Texas Instruments Incorporated
package/lib/Regression/regress_d_c/./../packages/ti/vlib/src/VLIB_kalmanFilter_4x6_Predict/VLIB_kalmanFilter_4x6_Predict_d.se66 PAGE   56

    2712                            .dwattr $C$DW$228, DW_AT_decl_line(0x4d)
    2713                            .dwattr $C$DW$228, DW_AT_decl_column(0x16)
    2714                    $C$DW$229       .dwtag  DW_TAG_member
    2715                            .dwattr $C$DW$229, DW_AT_type(*$C$DW$T$11)
    2716                            .dwattr $C$DW$229, DW_AT_name("flags")
    2717                            .dwattr $C$DW$229, DW_AT_TI_symbol_name("flags")
    2718                            .dwattr $C$DW$229, DW_AT_data_member_location[DW_OP_plus_uconst 0x14]
    2719                            .dwattr $C$DW$229, DW_AT_accessibility(DW_ACCESS_public)
    2720                            .dwattr $C$DW$229, DW_AT_decl_file("C:/VLIB_Tools/CCSV5_4_0/ccsv5/tools/compiler/C6000/include
    2721                            .dwattr $C$DW$229, DW_AT_decl_line(0x4e)
    2722                            .dwattr $C$DW$229, DW_AT_decl_column(0x16)
    2723                            .dwendtag $C$DW$T$27
    2724                    
    2725                            .dwattr $C$DW$T$27, DW_AT_decl_file("C:/VLIB_Tools/CCSV5_4_0/ccsv5/tools/compiler/C6000/includ
    2726                            .dwattr $C$DW$T$27, DW_AT_decl_line(0x48)
    2727                            .dwattr $C$DW$T$27, DW_AT_decl_column(0x10)
    2728                    $C$DW$T$68      .dwtag  DW_TAG_typedef, DW_AT_name("FILE")
    2729                            .dwattr $C$DW$T$68, DW_AT_type(*$C$DW$T$27)
    2730                            .dwattr $C$DW$T$68, DW_AT_language(DW_LANG_C)
