TMS320C6x Assembler PC v7.4.2 Thu Mar 19 12:41:55 2015

Tools Copyright (c) 1996-2012 Texas Instruments Incorporated
package/lib/Regression/regress_d_c/./../packages/ti/vlib/src/VLIB_homographyDecomposition/VLIB_homographyDecomposition_d.se66 PAGE    1

       1                    ;******************************************************************************
       2                    ;* TMS320C6x C/C++ Codegen                                          PC v7.4.2 *
       3                    ;* Date/Time created: Thu Mar 19 12:41:54 2015                                *
       4                    ;******************************************************************************
       5                            .compiler_opts --abi=eabi --c64p_l1d_workaround=off --endian=little --hll_source=on --long_pre
       6                    
       7                    ;******************************************************************************
       8                    ;* GLOBAL FILE PARAMETERS                                                     *
       9                    ;*                                                                            *
      10                    ;*   Architecture      : TMS320C66xx                                          *
      11                    ;*   Optimization      : Enabled at level 3                                   *
      12                    ;*   Optimizing for    : Speed                                                *
      13                    ;*                       Based on options: -o3, no -ms                        *
      14                    ;*   Endian            : Little                                               *
      15                    ;*   Interrupt Thrshld : 10000                                                *
      16                    ;*   Data Access Model : Far                                                  *
      17                    ;*   Pipelining        : Enabled                                              *
      18                    ;*   Speculate Loads   : Enabled with threshold = 0                           *
      19                    ;*   Memory Aliases    : Presume are aliases (pessimistic)                    *
      20                    ;*   Debug Info        : DWARF Debug w/Optimization                           *
      21                    ;*                                                                            *
      22                    ;******************************************************************************
      23                    
      24                            .asg    A15, FP
      25                            .asg    B14, DP
      26                            .asg    B15, SP
      27                            .global $bss
      28                    
      29                    
      30                    $C$DW$CU        .dwtag  DW_TAG_compile_unit
      31                            .dwattr $C$DW$CU, DW_AT_name("./../packages/ti/vlib/src/VLIB_homographyDecomposition/VLIB_homo
      32                            .dwattr $C$DW$CU, DW_AT_producer("TI TMS320C6x C/C++ Codegen PC v7.4.2 Copyright (c) 1996-2012
      33                            .dwattr $C$DW$CU, DW_AT_TI_version(0x01)
      34                            .dwattr $C$DW$CU, DW_AT_comp_dir("c:\nightlybuilds\vlib\ti\vlib\vlib\examples")
      35                    
      36                    $C$DW$1 .dwtag  DW_TAG_subprogram, DW_AT_name("fabs")
      37                            .dwattr $C$DW$1, DW_AT_TI_symbol_name("fabs")
      38                            .dwattr $C$DW$1, DW_AT_type(*$C$DW$T$17)
      39                            .dwattr $C$DW$1, DW_AT_declaration
      40                            .dwattr $C$DW$1, DW_AT_external
      41                            .dwattr $C$DW$1, DW_AT_decl_file("C:/VLIB_Tools/CCSV5_4_0/ccsv5/tools/compiler/C6000/include/m
      42                            .dwattr $C$DW$1, DW_AT_decl_line(0x5f)
      43                            .dwattr $C$DW$1, DW_AT_decl_column(0x11)
      44                    $C$DW$2 .dwtag  DW_TAG_formal_parameter
      45                            .dwattr $C$DW$2, DW_AT_type(*$C$DW$T$17)
      46                            .dwendtag $C$DW$1
      47                    
      48                    
      49                    $C$DW$3 .dwtag  DW_TAG_subprogram, DW_AT_name("_itoll")
      50                            .dwattr $C$DW$3, DW_AT_TI_symbol_name("_itoll")
      51                            .dwattr $C$DW$3, DW_AT_type(*$C$DW$T$14)
      52                            .dwattr $C$DW$3, DW_AT_declaration
      53                            .dwattr $C$DW$3, DW_AT_external
      54                            .dwattr $C$DW$3, DW_AT_decl_file("C:/VLIB_Tools/CCSV5_4_0/ccsv5/tools/compiler/C6000/include/c
      55                            .dwattr $C$DW$3, DW_AT_decl_line(0xdf)
TMS320C6x Assembler PC v7.4.2 Thu Mar 19 12:41:55 2015

Tools Copyright (c) 1996-2012 Texas Instruments Incorporated
package/lib/Regression/regress_d_c/./../packages/ti/vlib/src/VLIB_homographyDecomposition/VLIB_homographyDecomposition_d.se66 PAGE    2

      56                            .dwattr $C$DW$3, DW_AT_decl_column(0x0b)
      57                    $C$DW$4 .dwtag  DW_TAG_formal_parameter
      58                            .dwattr $C$DW$4, DW_AT_type(*$C$DW$T$11)
      59                    $C$DW$5 .dwtag  DW_TAG_formal_parameter
      60                            .dwattr $C$DW$5, DW_AT_type(*$C$DW$T$11)
      61                            .dwendtag $C$DW$3
      62                    
      63                    
      64                    $C$DW$6 .dwtag  DW_TAG_subprogram, DW_AT_name("printf")
      65                            .dwattr $C$DW$6, DW_AT_TI_symbol_name("printf")
      66                            .dwattr $C$DW$6, DW_AT_type(*$C$DW$T$10)
      67                            .dwattr $C$DW$6, DW_AT_declaration
      68                            .dwattr $C$DW$6, DW_AT_external
      69                            .dwattr $C$DW$6, DW_AT_decl_file("C:/VLIB_Tools/CCSV5_4_0/ccsv5/tools/compiler/C6000/include/s
      70                            .dwattr $C$DW$6, DW_AT_decl_line(0xb8)
      71                            .dwattr $C$DW$6, DW_AT_decl_column(0x19)
      72                    $C$DW$7 .dwtag  DW_TAG_formal_parameter
      73                            .dwattr $C$DW$7, DW_AT_type(*$C$DW$T$117)
      74                    $C$DW$8 .dwtag  DW_TAG_unspecified_parameters
      75                            .dwendtag $C$DW$6
      76                    
      77                    
      78                    $C$DW$9 .dwtag  DW_TAG_subprogram, DW_AT_name("sprintf")
      79                            .dwattr $C$DW$9, DW_AT_TI_symbol_name("sprintf")
      80                            .dwattr $C$DW$9, DW_AT_type(*$C$DW$T$10)
      81                            .dwattr $C$DW$9, DW_AT_declaration
      82                            .dwattr $C$DW$9, DW_AT_external
      83                            .dwattr $C$DW$9, DW_AT_decl_file("C:/VLIB_Tools/CCSV5_4_0/ccsv5/tools/compiler/C6000/include/s
      84                            .dwattr $C$DW$9, DW_AT_decl_line(0xbc)
      85                            .dwattr $C$DW$9, DW_AT_decl_column(0x19)
      86                    $C$DW$10        .dwtag  DW_TAG_formal_parameter
      87                            .dwattr $C$DW$10, DW_AT_type(*$C$DW$T$64)
      88                    $C$DW$11        .dwtag  DW_TAG_formal_parameter
      89                            .dwattr $C$DW$11, DW_AT_type(*$C$DW$T$117)
      90                    $C$DW$12        .dwtag  DW_TAG_unspecified_parameters
      91                            .dwendtag $C$DW$9
      92                    
      93                    
      94                    $C$DW$13        .dwtag  DW_TAG_subprogram, DW_AT_name("free")
      95                            .dwattr $C$DW$13, DW_AT_TI_symbol_name("free")
      96                            .dwattr $C$DW$13, DW_AT_declaration
      97                            .dwattr $C$DW$13, DW_AT_external
      98                            .dwattr $C$DW$13, DW_AT_decl_file("C:/VLIB_Tools/CCSV5_4_0/ccsv5/tools/compiler/C6000/include/
      99                            .dwattr $C$DW$13, DW_AT_decl_line(0x86)
     100                            .dwattr $C$DW$13, DW_AT_decl_column(0x19)
     101                    $C$DW$14        .dwtag  DW_TAG_formal_parameter
     102                            .dwattr $C$DW$14, DW_AT_type(*$C$DW$T$3)
     103                            .dwendtag $C$DW$13
     104                    
     105                    
     106                    $C$DW$15        .dwtag  DW_TAG_subprogram, DW_AT_name("memalign")
     107                            .dwattr $C$DW$15, DW_AT_TI_symbol_name("memalign")
     108                            .dwattr $C$DW$15, DW_AT_type(*$C$DW$T$3)
     109                            .dwattr $C$DW$15, DW_AT_declaration
     110                            .dwattr $C$DW$15, DW_AT_external
TMS320C6x Assembler PC v7.4.2 Thu Mar 19 12:41:55 2015

Tools Copyright (c) 1996-2012 Texas Instruments Incorporated
package/lib/Regression/regress_d_c/./../packages/ti/vlib/src/VLIB_homographyDecomposition/VLIB_homographyDecomposition_d.se66 PAGE    3

     111                            .dwattr $C$DW$15, DW_AT_decl_file("C:/VLIB_Tools/CCSV5_4_0/ccsv5/tools/compiler/C6000/include/
     112                            .dwattr $C$DW$15, DW_AT_decl_line(0x87)
     113                            .dwattr $C$DW$15, DW_AT_decl_column(0x19)
     114                    $C$DW$16        .dwtag  DW_TAG_formal_parameter
     115                            .dwattr $C$DW$16, DW_AT_type(*$C$DW$T$59)
     116                    $C$DW$17        .dwtag  DW_TAG_formal_parameter
     117                            .dwattr $C$DW$17, DW_AT_type(*$C$DW$T$59)
     118                            .dwendtag $C$DW$15
     119                    
     120                    
     121                    $C$DW$18        .dwtag  DW_TAG_subprogram, DW_AT_name("VLIB_cache_inval")
     122                            .dwattr $C$DW$18, DW_AT_TI_symbol_name("VLIB_cache_inval")
     123                            .dwattr $C$DW$18, DW_AT_type(*$C$DW$T$10)
     124                            .dwattr $C$DW$18, DW_AT_declaration
     125                            .dwattr $C$DW$18, DW_AT_external
     126                            .dwattr $C$DW$18, DW_AT_decl_file(".\..\packages\ti\vlib\src\VLIB_homographyDecomposition\..\c
     127                            .dwattr $C$DW$18, DW_AT_decl_line(0x58)
     128                            .dwattr $C$DW$18, DW_AT_decl_column(0x05)
     129                    
     130                    $C$DW$19        .dwtag  DW_TAG_subprogram, DW_AT_name("VLIB_profile_init")
     131                            .dwattr $C$DW$19, DW_AT_TI_symbol_name("VLIB_profile_init")
     132                            .dwattr $C$DW$19, DW_AT_declaration
     133                            .dwattr $C$DW$19, DW_AT_external
     134                            .dwattr $C$DW$19, DW_AT_decl_file(".\..\packages\ti\vlib\src\VLIB_homographyDecomposition\..\c
     135                            .dwattr $C$DW$19, DW_AT_decl_line(0x7b)
     136                            .dwattr $C$DW$19, DW_AT_decl_column(0x06)
     137                    $C$DW$20        .dwtag  DW_TAG_formal_parameter
     138                            .dwattr $C$DW$20, DW_AT_type(*$C$DW$T$10)
     139                    $C$DW$21        .dwtag  DW_TAG_formal_parameter
     140                            .dwattr $C$DW$21, DW_AT_type(*$C$DW$T$64)
     141                            .dwendtag $C$DW$19
     142                    
     143                    
     144                    $C$DW$22        .dwtag  DW_TAG_subprogram, DW_AT_name("VLIB_formula_add_test")
     145                            .dwattr $C$DW$22, DW_AT_TI_symbol_name("VLIB_formula_add_test")
     146                            .dwattr $C$DW$22, DW_AT_declaration
     147                            .dwattr $C$DW$22, DW_AT_external
     148                            .dwattr $C$DW$22, DW_AT_decl_file(".\..\packages\ti\vlib\src\VLIB_homographyDecomposition\..\c
     149                            .dwattr $C$DW$22, DW_AT_decl_line(0x7d)
     150                            .dwattr $C$DW$22, DW_AT_decl_column(0x06)
     151                    $C$DW$23        .dwtag  DW_TAG_formal_parameter
     152                            .dwattr $C$DW$23, DW_AT_type(*$C$DW$T$10)
     153                    $C$DW$24        .dwtag  DW_TAG_formal_parameter
     154                            .dwattr $C$DW$24, DW_AT_type(*$C$DW$T$10)
     155                    $C$DW$25        .dwtag  DW_TAG_formal_parameter
     156                            .dwattr $C$DW$25, DW_AT_type(*$C$DW$T$10)
     157                    $C$DW$26        .dwtag  DW_TAG_formal_parameter
     158                            .dwattr $C$DW$26, DW_AT_type(*$C$DW$T$10)
     159                    $C$DW$27        .dwtag  DW_TAG_formal_parameter
     160                            .dwattr $C$DW$27, DW_AT_type(*$C$DW$T$64)
     161                    $C$DW$28        .dwtag  DW_TAG_formal_parameter
     162                            .dwattr $C$DW$28, DW_AT_type(*$C$DW$T$10)
     163                            .dwendtag $C$DW$22
     164                    
     165                    
TMS320C6x Assembler PC v7.4.2 Thu Mar 19 12:41:55 2015

Tools Copyright (c) 1996-2012 Texas Instruments Incorporated
package/lib/Regression/regress_d_c/./../packages/ti/vlib/src/VLIB_homographyDecomposition/VLIB_homographyDecomposition_d.se66 PAGE    4

     166                    $C$DW$29        .dwtag  DW_TAG_subprogram, DW_AT_name("VLIB_skip_test")
     167                            .dwattr $C$DW$29, DW_AT_TI_symbol_name("VLIB_skip_test")
     168                            .dwattr $C$DW$29, DW_AT_declaration
     169                            .dwattr $C$DW$29, DW_AT_external
     170                            .dwattr $C$DW$29, DW_AT_decl_file(".\..\packages\ti\vlib\src\VLIB_homographyDecomposition\..\c
     171                            .dwattr $C$DW$29, DW_AT_decl_line(0x7e)
     172                            .dwattr $C$DW$29, DW_AT_decl_column(0x06)
     173                    $C$DW$30        .dwtag  DW_TAG_formal_parameter
     174                            .dwattr $C$DW$30, DW_AT_type(*$C$DW$T$64)
     175                            .dwendtag $C$DW$29
     176                    
     177                    
     178                    $C$DW$31        .dwtag  DW_TAG_subprogram, DW_AT_name("VLIB_profile_cycle_report")
     179                            .dwattr $C$DW$31, DW_AT_TI_symbol_name("VLIB_profile_cycle_report")
     180                            .dwattr $C$DW$31, DW_AT_declaration
     181                            .dwattr $C$DW$31, DW_AT_external
     182                            .dwattr $C$DW$31, DW_AT_decl_file(".\..\packages\ti\vlib\src\VLIB_homographyDecomposition\..\c
     183                            .dwattr $C$DW$31, DW_AT_decl_line(0x7f)
     184                            .dwattr $C$DW$31, DW_AT_decl_column(0x06)
     185                    $C$DW$32        .dwtag  DW_TAG_formal_parameter
     186                            .dwattr $C$DW$32, DW_AT_type(*$C$DW$T$10)
     187                    $C$DW$33        .dwtag  DW_TAG_formal_parameter
     188                            .dwattr $C$DW$33, DW_AT_type(*$C$DW$T$64)
     189                    $C$DW$34        .dwtag  DW_TAG_formal_parameter
     190                            .dwattr $C$DW$34, DW_AT_type(*$C$DW$T$64)
     191                            .dwendtag $C$DW$31
     192                    
     193                    
     194                    $C$DW$35        .dwtag  DW_TAG_subprogram, DW_AT_name("initStack")
     195                            .dwattr $C$DW$35, DW_AT_TI_symbol_name("initStack")
     196                            .dwattr $C$DW$35, DW_AT_declaration
     197                            .dwattr $C$DW$35, DW_AT_external
     198                            .dwattr $C$DW$35, DW_AT_decl_file(".\..\packages\ti\vlib\src\VLIB_homographyDecomposition\..\c
     199                            .dwattr $C$DW$35, DW_AT_decl_line(0x80)
     200                            .dwattr $C$DW$35, DW_AT_decl_column(0x06)
     201                    $C$DW$36        .dwtag  DW_TAG_formal_parameter
     202                            .dwattr $C$DW$36, DW_AT_type(*$C$DW$T$73)
     203                            .dwendtag $C$DW$35
     204                    
     205                    
     206                    $C$DW$37        .dwtag  DW_TAG_subprogram, DW_AT_name("setStackDepth")
     207                            .dwattr $C$DW$37, DW_AT_TI_symbol_name("setStackDepth")
     208                            .dwattr $C$DW$37, DW_AT_declaration
     209                            .dwattr $C$DW$37, DW_AT_external
     210                            .dwattr $C$DW$37, DW_AT_decl_file(".\..\packages\ti\vlib\src\VLIB_homographyDecomposition\..\c
     211                            .dwattr $C$DW$37, DW_AT_decl_line(0x81)
     212                            .dwattr $C$DW$37, DW_AT_decl_column(0x06)
     213                    
     214                    $C$DW$38        .dwtag  DW_TAG_subprogram, DW_AT_name("getSP")
     215                            .dwattr $C$DW$38, DW_AT_TI_symbol_name("getSP")
     216                            .dwattr $C$DW$38, DW_AT_type(*$C$DW$T$73)
     217                            .dwattr $C$DW$38, DW_AT_declaration
     218                            .dwattr $C$DW$38, DW_AT_external
     219                            .dwattr $C$DW$38, DW_AT_decl_file(".\..\packages\ti\vlib\src\VLIB_homographyDecomposition\..\c
     220                            .dwattr $C$DW$38, DW_AT_decl_line(0x82)
TMS320C6x Assembler PC v7.4.2 Thu Mar 19 12:41:55 2015

Tools Copyright (c) 1996-2012 Texas Instruments Incorporated
package/lib/Regression/regress_d_c/./../packages/ti/vlib/src/VLIB_homographyDecomposition/VLIB_homographyDecomposition_d.se66 PAGE    5

     221                            .dwattr $C$DW$38, DW_AT_decl_column(0x0a)
     222                    
     223                    $C$DW$39        .dwtag  DW_TAG_subprogram, DW_AT_name("VLIB_stack_memory")
     224                            .dwattr $C$DW$39, DW_AT_TI_symbol_name("VLIB_stack_memory")
     225                            .dwattr $C$DW$39, DW_AT_declaration
     226                            .dwattr $C$DW$39, DW_AT_external
     227                            .dwattr $C$DW$39, DW_AT_decl_file(".\..\packages\ti\vlib\src\VLIB_homographyDecomposition\..\c
     228                            .dwattr $C$DW$39, DW_AT_decl_line(0x83)
     229                            .dwattr $C$DW$39, DW_AT_decl_column(0x06)
     230                    
     231                    $C$DW$40        .dwtag  DW_TAG_subprogram, DW_AT_name("VLIB_fillBuffer")
     232                            .dwattr $C$DW$40, DW_AT_TI_symbol_name("VLIB_fillBuffer")
     233                            .dwattr $C$DW$40, DW_AT_declaration
     234                            .dwattr $C$DW$40, DW_AT_external
     235                            .dwattr $C$DW$40, DW_AT_decl_file(".\..\packages\ti\vlib\src\VLIB_homographyDecomposition\../c
     236                            .dwattr $C$DW$40, DW_AT_decl_line(0x77)
     237                            .dwattr $C$DW$40, DW_AT_decl_column(0x06)
     238                    $C$DW$41        .dwtag  DW_TAG_formal_parameter
     239                            .dwattr $C$DW$41, DW_AT_type(*$C$DW$T$19)
     240                    $C$DW$42        .dwtag  DW_TAG_formal_parameter
     241                            .dwattr $C$DW$42, DW_AT_type(*$C$DW$T$19)
     242                    $C$DW$43        .dwtag  DW_TAG_formal_parameter
     243                            .dwattr $C$DW$43, DW_AT_type(*$C$DW$T$3)
     244                    $C$DW$44        .dwtag  DW_TAG_formal_parameter
     245                            .dwattr $C$DW$44, DW_AT_type(*$C$DW$T$3)
     246                    $C$DW$45        .dwtag  DW_TAG_formal_parameter
     247                            .dwattr $C$DW$45, DW_AT_type(*$C$DW$T$22)
     248                    $C$DW$46        .dwtag  DW_TAG_formal_parameter
     249                            .dwattr $C$DW$46, DW_AT_type(*$C$DW$T$22)
     250                    $C$DW$47        .dwtag  DW_TAG_formal_parameter
     251                            .dwattr $C$DW$47, DW_AT_type(*$C$DW$T$22)
     252                    $C$DW$48        .dwtag  DW_TAG_formal_parameter
     253                            .dwattr $C$DW$48, DW_AT_type(*$C$DW$T$19)
     254                    $C$DW$49        .dwtag  DW_TAG_formal_parameter
     255                            .dwattr $C$DW$49, DW_AT_type(*$C$DW$T$64)
     256                            .dwendtag $C$DW$40
     257                    
     258                    
     259                    $C$DW$50        .dwtag  DW_TAG_subprogram, DW_AT_name("VLIB_memalign")
     260                            .dwattr $C$DW$50, DW_AT_TI_symbol_name("VLIB_memalign")
     261                            .dwattr $C$DW$50, DW_AT_type(*$C$DW$T$3)
     262                            .dwattr $C$DW$50, DW_AT_declaration
     263                            .dwattr $C$DW$50, DW_AT_external
     264                            .dwattr $C$DW$50, DW_AT_decl_file(".\..\packages\ti\vlib\src\VLIB_homographyDecomposition\../c
     265                            .dwattr $C$DW$50, DW_AT_decl_line(0xae)
     266                            .dwattr $C$DW$50, DW_AT_decl_column(0x07)
     267                    $C$DW$51        .dwtag  DW_TAG_formal_parameter
     268                            .dwattr $C$DW$51, DW_AT_type(*$C$DW$T$59)
     269                    $C$DW$52        .dwtag  DW_TAG_formal_parameter
     270                            .dwattr $C$DW$52, DW_AT_type(*$C$DW$T$59)
     271                            .dwendtag $C$DW$50
     272                    
     273                    
     274                    $C$DW$53        .dwtag  DW_TAG_subprogram, DW_AT_name("VLIB_align_free")
     275                            .dwattr $C$DW$53, DW_AT_TI_symbol_name("VLIB_align_free")
TMS320C6x Assembler PC v7.4.2 Thu Mar 19 12:41:55 2015

Tools Copyright (c) 1996-2012 Texas Instruments Incorporated
package/lib/Regression/regress_d_c/./../packages/ti/vlib/src/VLIB_homographyDecomposition/VLIB_homographyDecomposition_d.se66 PAGE    6

     276                            .dwattr $C$DW$53, DW_AT_declaration
     277                            .dwattr $C$DW$53, DW_AT_external
     278                            .dwattr $C$DW$53, DW_AT_decl_file(".\..\packages\ti\vlib\src\VLIB_homographyDecomposition\../c
     279                            .dwattr $C$DW$53, DW_AT_decl_line(0xb3)
     280                            .dwattr $C$DW$53, DW_AT_decl_column(0x07)
     281                    $C$DW$54        .dwtag  DW_TAG_formal_parameter
     282                            .dwattr $C$DW$54, DW_AT_type(*$C$DW$T$3)
     283                            .dwendtag $C$DW$53
     284                    
     285                    
     286                    $C$DW$55        .dwtag  DW_TAG_subprogram, DW_AT_name("VLIB_homographyDecomposition")
     287                            .dwattr $C$DW$55, DW_AT_TI_symbol_name("VLIB_homographyDecomposition")
     288                            .dwattr $C$DW$55, DW_AT_type(*$C$DW$T$32)
     289                            .dwattr $C$DW$55, DW_AT_declaration
     290                            .dwattr $C$DW$55, DW_AT_external
     291                            .dwattr $C$DW$55, DW_AT_decl_file(".\..\packages\ti\vlib\src\VLIB_homographyDecomposition\c66/
     292                            .dwattr $C$DW$55, DW_AT_decl_line(0x6b)
     293                            .dwattr $C$DW$55, DW_AT_decl_column(0x0c)
     294                    $C$DW$56        .dwtag  DW_TAG_formal_parameter
     295                            .dwattr $C$DW$56, DW_AT_type(*$C$DW$T$124)
     296                    $C$DW$57        .dwtag  DW_TAG_formal_parameter
     297                            .dwattr $C$DW$57, DW_AT_type(*$C$DW$T$124)
     298                    $C$DW$58        .dwtag  DW_TAG_formal_parameter
     299                            .dwattr $C$DW$58, DW_AT_type(*$C$DW$T$21)
     300                    $C$DW$59        .dwtag  DW_TAG_formal_parameter
     301                            .dwattr $C$DW$59, DW_AT_type(*$C$DW$T$21)
     302                            .dwendtag $C$DW$55
     303                    
     304                    
     305                    $C$DW$60        .dwtag  DW_TAG_subprogram, DW_AT_name("VLIB_homographyDecomposition_cn")
     306                            .dwattr $C$DW$60, DW_AT_TI_symbol_name("VLIB_homographyDecomposition_cn")
     307                            .dwattr $C$DW$60, DW_AT_type(*$C$DW$T$32)
     308                            .dwattr $C$DW$60, DW_AT_declaration
     309                            .dwattr $C$DW$60, DW_AT_external
     310                            .dwattr $C$DW$60, DW_AT_decl_file(".\..\packages\ti\vlib\src\VLIB_homographyDecomposition\VLIB
     311                            .dwattr $C$DW$60, DW_AT_decl_line(0x22)
     312                            .dwattr $C$DW$60, DW_AT_decl_column(0x0c)
     313                    $C$DW$61        .dwtag  DW_TAG_formal_parameter
     314                            .dwattr $C$DW$61, DW_AT_type(*$C$DW$T$124)
     315                    $C$DW$62        .dwtag  DW_TAG_formal_parameter
     316                            .dwattr $C$DW$62, DW_AT_type(*$C$DW$T$124)
     317                    $C$DW$63        .dwtag  DW_TAG_formal_parameter
     318                            .dwattr $C$DW$63, DW_AT_type(*$C$DW$T$21)
     319                    $C$DW$64        .dwtag  DW_TAG_formal_parameter
     320                            .dwattr $C$DW$64, DW_AT_type(*$C$DW$T$21)
     321                            .dwendtag $C$DW$60
     322                    
     323                    
     324                    $C$DW$65        .dwtag  DW_TAG_subprogram, DW_AT_name("homographyDecomposition_getTestParams")
     325                            .dwattr $C$DW$65, DW_AT_TI_symbol_name("homographyDecomposition_getTestParams")
     326                            .dwattr $C$DW$65, DW_AT_declaration
     327                            .dwattr $C$DW$65, DW_AT_external
     328                            .dwattr $C$DW$65, DW_AT_decl_file(".\..\packages\ti\vlib\src\VLIB_homographyDecomposition\VLIB
     329                            .dwattr $C$DW$65, DW_AT_decl_line(0x32)
     330                            .dwattr $C$DW$65, DW_AT_decl_column(0x06)
TMS320C6x Assembler PC v7.4.2 Thu Mar 19 12:41:55 2015

Tools Copyright (c) 1996-2012 Texas Instruments Incorporated
package/lib/Regression/regress_d_c/./../packages/ti/vlib/src/VLIB_homographyDecomposition/VLIB_homographyDecomposition_d.se66 PAGE    7

     331                    $C$DW$66        .dwtag  DW_TAG_formal_parameter
     332                            .dwattr $C$DW$66, DW_AT_type(*$C$DW$T$48)
     333                    $C$DW$67        .dwtag  DW_TAG_formal_parameter
     334                            .dwattr $C$DW$67, DW_AT_type(*$C$DW$T$81)
     335                            .dwendtag $C$DW$65
     336                    
     337                    $C$DW$68        .dwtag  DW_TAG_variable, DW_AT_name("test_cases")
     338                            .dwattr $C$DW$68, DW_AT_TI_symbol_name("test_cases")
     339                            .dwattr $C$DW$68, DW_AT_type(*$C$DW$T$32)
     340                            .dwattr $C$DW$68, DW_AT_declaration
     341                            .dwattr $C$DW$68, DW_AT_external
     342                            .dwattr $C$DW$68, DW_AT_decl_file(".\..\packages\ti\vlib\src\VLIB_homographyDecomposition\../c
     343                            .dwattr $C$DW$68, DW_AT_decl_line(0x60)
     344                            .dwattr $C$DW$68, DW_AT_decl_column(0x13)
     345                    $C$DW$69        .dwtag  DW_TAG_variable, DW_AT_name("act_kernel")
     346                            .dwattr $C$DW$69, DW_AT_TI_symbol_name("act_kernel")
     347                            .dwattr $C$DW$69, DW_AT_type(*$C$DW$T$10)
     348                            .dwattr $C$DW$69, DW_AT_declaration
     349                            .dwattr $C$DW$69, DW_AT_external
     350                            .dwattr $C$DW$69, DW_AT_decl_file(".\..\packages\ti\vlib\src\VLIB_homographyDecomposition\../c
     351                            .dwattr $C$DW$69, DW_AT_decl_line(0x62)
     352                            .dwattr $C$DW$69, DW_AT_decl_column(0x13)
     353                    $C$DW$70        .dwtag  DW_TAG_variable, DW_AT_name("desc")
     354                            .dwattr $C$DW$70, DW_AT_TI_symbol_name("desc")
     355                            .dwattr $C$DW$70, DW_AT_type(*$C$DW$T$174)
     356                            .dwattr $C$DW$70, DW_AT_declaration
     357                            .dwattr $C$DW$70, DW_AT_external
     358                            .dwattr $C$DW$70, DW_AT_decl_file(".\..\packages\ti\vlib\src\VLIB_homographyDecomposition\../c
     359                            .dwattr $C$DW$70, DW_AT_decl_line(0x63)
     360                            .dwattr $C$DW$70, DW_AT_decl_column(0x13)
     361                    $C$DW$71        .dwtag  DW_TAG_variable, DW_AT_name("testPatternString")
     362                            .dwattr $C$DW$71, DW_AT_TI_symbol_name("testPatternString")
     363                            .dwattr $C$DW$71, DW_AT_type(*$C$DW$T$174)
     364                            .dwattr $C$DW$71, DW_AT_declaration
     365                            .dwattr $C$DW$71, DW_AT_external
     366                            .dwattr $C$DW$71, DW_AT_decl_file(".\..\packages\ti\vlib\src\VLIB_homographyDecomposition\../c
     367                            .dwattr $C$DW$71, DW_AT_decl_line(0x64)
     368                            .dwattr $C$DW$71, DW_AT_decl_column(0x13)
     369                    $C$DW$72        .dwtag  DW_TAG_variable, DW_AT_name("est_test")
     370                            .dwattr $C$DW$72, DW_AT_TI_symbol_name("est_test")
     371                            .dwattr $C$DW$72, DW_AT_type(*$C$DW$T$10)
     372                            .dwattr $C$DW$72, DW_AT_declaration
     373                            .dwattr $C$DW$72, DW_AT_external
     374                            .dwattr $C$DW$72, DW_AT_decl_file(".\..\packages\ti\vlib\src\VLIB_homographyDecomposition\..\c
     375                            .dwattr $C$DW$72, DW_AT_decl_line(0x75)
     376                            .dwattr $C$DW$72, DW_AT_decl_column(0x14)
     377                    $C$DW$73        .dwtag  DW_TAG_variable, DW_AT_name("beg_count")
     378                            .dwattr $C$DW$73, DW_AT_TI_symbol_name("beg_count")
     379                            .dwattr $C$DW$73, DW_AT_type(*$C$DW$T$161)
     380                            .dwattr $C$DW$73, DW_AT_declaration
     381                            .dwattr $C$DW$73, DW_AT_external
     382                            .dwattr $C$DW$73, DW_AT_decl_file(".\..\packages\ti\vlib\src\VLIB_homographyDecomposition\..\c
     383                            .dwattr $C$DW$73, DW_AT_decl_line(0x76)
     384                            .dwattr $C$DW$73, DW_AT_decl_column(0x14)
     385                    $C$DW$74        .dwtag  DW_TAG_variable, DW_AT_name("end_count")
TMS320C6x Assembler PC v7.4.2 Thu Mar 19 12:41:55 2015

Tools Copyright (c) 1996-2012 Texas Instruments Incorporated
package/lib/Regression/regress_d_c/./../packages/ti/vlib/src/VLIB_homographyDecomposition/VLIB_homographyDecomposition_d.se66 PAGE    8

     386                            .dwattr $C$DW$74, DW_AT_TI_symbol_name("end_count")
     387                            .dwattr $C$DW$74, DW_AT_type(*$C$DW$T$161)
     388                            .dwattr $C$DW$74, DW_AT_declaration
     389                            .dwattr $C$DW$74, DW_AT_external
     390                            .dwattr $C$DW$74, DW_AT_decl_file(".\..\packages\ti\vlib\src\VLIB_homographyDecomposition\..\c
     391                            .dwattr $C$DW$74, DW_AT_decl_line(0x77)
     392                            .dwattr $C$DW$74, DW_AT_decl_column(0x14)
     393                    $C$DW$75        .dwtag  DW_TAG_variable, DW_AT_name("overhead")
     394                            .dwattr $C$DW$75, DW_AT_TI_symbol_name("overhead")
     395                            .dwattr $C$DW$75, DW_AT_type(*$C$DW$T$161)
     396                            .dwattr $C$DW$75, DW_AT_declaration
     397                            .dwattr $C$DW$75, DW_AT_external
     398                            .dwattr $C$DW$75, DW_AT_decl_file(".\..\packages\ti\vlib\src\VLIB_homographyDecomposition\..\c
     399                            .dwattr $C$DW$75, DW_AT_decl_line(0x78)
     400                            .dwattr $C$DW$75, DW_AT_decl_column(0x14)
     401                    $C$DW$76        .dwtag  DW_TAG_variable, DW_AT_name("cycles")
     402                            .dwattr $C$DW$76, DW_AT_TI_symbol_name("cycles")
     403                            .dwattr $C$DW$76, DW_AT_type(*$C$DW$T$162)
     404                            .dwattr $C$DW$76, DW_AT_declaration
     405                            .dwattr $C$DW$76, DW_AT_external
     406                            .dwattr $C$DW$76, DW_AT_decl_file(".\..\packages\ti\vlib\src\VLIB_homographyDecomposition\..\c
     407                            .dwattr $C$DW$76, DW_AT_decl_line(0x79)
     408                            .dwattr $C$DW$76, DW_AT_decl_column(0x14)
     409                    ;       C:\VLIB_Tools\CCSV5_4_0\ccsv5\tools\compiler\C6000\bin\opt6x.exe C:\\Users\\gtbldadm\\AppData\
     410 00000000                   .sect   ".text"
     411                            .clink
     412                            .global VLIB_homographyDecomposition_d
     413                    
     414                    $C$DW$77        .dwtag  DW_TAG_subprogram, DW_AT_name("VLIB_homographyDecomposition_d")
     415                            .dwattr $C$DW$77, DW_AT_low_pc(VLIB_homographyDecomposition_d)
     416                            .dwattr $C$DW$77, DW_AT_high_pc(0x00)
     417                            .dwattr $C$DW$77, DW_AT_TI_symbol_name("VLIB_homographyDecomposition_d")
     418                            .dwattr $C$DW$77, DW_AT_external
     419                            .dwattr $C$DW$77, DW_AT_TI_begin_file("./../packages/ti/vlib/src/VLIB_homographyDecomposition/
     420                            .dwattr $C$DW$77, DW_AT_TI_begin_line(0x2b)
     421                            .dwattr $C$DW$77, DW_AT_TI_begin_column(0x06)
     422                            .dwattr $C$DW$77, DW_AT_decl_file("./../packages/ti/vlib/src/VLIB_homographyDecomposition/VLIB
     423                            .dwattr $C$DW$77, DW_AT_decl_line(0x2b)
     424                            .dwattr $C$DW$77, DW_AT_decl_column(0x06)
     425                            .dwattr $C$DW$77, DW_AT_TI_max_frame_size(0xb8)
     426                            .dwpsn  file "./../packages/ti/vlib/src/VLIB_homographyDecomposition/VLIB_homographyDecomposit
     427                    
     428                            .dwfde $C$DW$CIE, VLIB_homographyDecomposition_d
     429                    $C$DW$78        .dwtag  DW_TAG_formal_parameter, DW_AT_name("LevelOfFeedback")
     430                            .dwattr $C$DW$78, DW_AT_TI_symbol_name("LevelOfFeedback")
     431                            .dwattr $C$DW$78, DW_AT_type(*$C$DW$T$19)
     432                            .dwattr $C$DW$78, DW_AT_location[DW_OP_reg4]
     433                    ;----------------------------------------------------------------------
     434                    ;  43 | void VLIB_homographyDecomposition_d(uint8_t LevelOfFeedback)           
     435                    ;----------------------------------------------------------------------
     436                    
     437                    ;******************************************************************************
     438                    ;* FUNCTION NAME: VLIB_homographyDecomposition_d                              *
     439                    ;*                                                                            *
     440                    ;*   Regs Modified     : A0,A1,A2,A3,A4,A5,A6,A7,A8,A9,A10,A11,A12,A13,A14,   *
TMS320C6x Assembler PC v7.4.2 Thu Mar 19 12:41:55 2015

Tools Copyright (c) 1996-2012 Texas Instruments Incorporated
package/lib/Regression/regress_d_c/./../packages/ti/vlib/src/VLIB_homographyDecomposition/VLIB_homographyDecomposition_d.se66 PAGE    9

     441                    ;*                           A15,B0,B1,B2,B3,B4,B5,B6,B7,B8,B9,B10,B11,B12,   *
     442                    ;*                           B13,SP,A16,A17,A18,A19,A20,A21,A22,A23,A24,A25,  *
     443                    ;*                           A26,A27,A28,A29,A30,A31,B16,B17,B18,B19,B20,B21, *
     444                    ;*                           B22,B23,B24,B25,B26,B27,B28,B29,B30,B31          *
     445                    ;*   Regs Used         : A0,A1,A2,A3,A4,A5,A6,A7,A8,A9,A10,A11,A12,A13,A14,   *
     446                    ;*                           A15,B0,B1,B2,B3,B4,B5,B6,B7,B8,B9,B10,B11,B12,   *
     447                    ;*                           B13,DP,SP,A16,A17,A18,A19,A20,A21,A22,A23,A24,   *
     448                    ;*                           A25,A26,A27,A28,A29,A30,A31,B16,B17,B18,B19,B20, *
     449                    ;*                           B21,B22,B23,B24,B25,B26,B27,B28,B29,B30,B31      *
     450                    ;*   Local Frame Size  : 24 Args + 104 Auto + 56 Save = 184 byte              *
     451                    ;******************************************************************************
     452                    
     453                    ;******************************************************************************
     454                    ;*                                                                            *
     455                    ;* Using -g (debug) with optimization (-o3) may disable key optimizations!    *
     456                    ;*                                                                            *
     457                    ;******************************************************************************
     458 00000000           VLIB_homographyDecomposition_d:
     459                    ;** --------------------------------------------------------------------------*
     460                    ;          EXCLUSIVE CPU CYCLES: 16
     461                    ;** 50  -----------------------    homographyDecomposition_getTestParams(&prm, &test_cases);
     462                    ;** 53  -----------------------    VLIB_profile_init(2, "VLIB_homographyDecomposition");
     463                    ;** 56  -----------------------    if ( test_cases <= 0 ) goto g47;
     464                            .dwcfi  cfa_offset, 0
     465                    ;----------------------------------------------------------------------
     466                    ;  45 | int32_t    tpi;  /* test parameter index */                            
     467                    ;  48 | homographyDecomposition_testParams_t   *prm;                           
     468                    ;----------------------------------------------------------------------
     469 00000000     25f7             STW     .D2T1   A11,*SP--(8)      ; |44| 
     470                            .dwcfi  cfa_offset, 8
     471                            .dwcfi  save_reg_to_mem, 11, 0
     472 00000002     2577             STW     .D2T1   A10,*SP--(8)      ; |44| 
     473                            .dwcfi  cfa_offset, 16
     474                            .dwcfi  save_reg_to_mem, 10, -8
     475 00000004     9677             STDW    .D2T2   B13:B12,*SP--     ; |44| 
     476                            .dwcfi  cfa_offset, 24
     477                            .dwcfi  save_reg_to_mem, 29, -12
     478                            .dwcfi  save_reg_to_mem, 28, -16
     479 00000006     9577             STDW    .D2T2   B11:B10,*SP--     ; |44| 
     480                            .dwcfi  cfa_offset, 32
     481                            .dwcfi  save_reg_to_mem, 27, -20
     482                            .dwcfi  save_reg_to_mem, 26, -24
     483 00000008     8777             STDW    .D2T1   A15:A14,*SP--     ; |44| 
     484                            .dwcfi  cfa_offset, 40
     485                            .dwcfi  save_reg_to_mem, 15, -28
     486                            .dwcfi  save_reg_to_mem, 14, -32
     487 0000000a     8677             STDW    .D2T1   A13:A12,*SP--     ; |44| 
     488                            .dwcfi  cfa_offset, 48
     489                            .dwcfi  save_reg_to_mem, 13, -36
     490                            .dwcfi  save_reg_to_mem, 12, -40
     491 0000000c 01bc54f6             STW     .D2T2   B3,*SP--(8)       ; |44| 
     492                            .dwcfi  cfa_offset, 56
     493                            .dwcfi  save_reg_to_mem, 19, -48
     494 00000010 07ffc052             ADDK    .S2     -128,SP           ; |44| 
     495                            .dwcfi  cfa_offset, 184
TMS320C6x Assembler PC v7.4.2 Thu Mar 19 12:41:55 2015

Tools Copyright (c) 1996-2012 Texas Instruments Incorporated
package/lib/Regression/regress_d_c/./../packages/ti/vlib/src/VLIB_homographyDecomposition/VLIB_homographyDecomposition_d.se66 PAGE   10

     496                    $C$DW$79        .dwtag  DW_TAG_variable, DW_AT_name("$O$C1")
     497                            .dwattr $C$DW$79, DW_AT_TI_symbol_name("$O$C1")
     498                            .dwattr $C$DW$79, DW_AT_type(*$C$DW$T$168)
     499                            .dwattr $C$DW$79, DW_AT_location[DW_OP_reg17]
     500                    $C$DW$80        .dwtag  DW_TAG_variable, DW_AT_name("$O$C2")
     501                            .dwattr $C$DW$80, DW_AT_TI_symbol_name("$O$C2")
     502                            .dwattr $C$DW$80, DW_AT_type(*$C$DW$T$10)
     503                            .dwattr $C$DW$80, DW_AT_location[DW_OP_reg3]
     504                    $C$DW$81        .dwtag  DW_TAG_variable, DW_AT_name("$O$C3")
     505                            .dwattr $C$DW$81, DW_AT_TI_symbol_name("$O$C3")
     506                            .dwattr $C$DW$81, DW_AT_type(*$C$DW$T$10)
     507                            .dwattr $C$DW$81, DW_AT_location[DW_OP_reg3]
     508                    $C$DW$82        .dwtag  DW_TAG_variable, DW_AT_name("$O$C4")
     509                            .dwattr $C$DW$82, DW_AT_TI_symbol_name("$O$C4")
     510                            .dwattr $C$DW$82, DW_AT_type(*$C$DW$T$10)
     511                            .dwattr $C$DW$82, DW_AT_location[DW_OP_reg22]
     512                    $C$DW$83        .dwtag  DW_TAG_variable, DW_AT_name("$O$K11")
     513                            .dwattr $C$DW$83, DW_AT_TI_symbol_name("$O$K11")
     514                            .dwattr $C$DW$83, DW_AT_type(*$C$DW$T$11)
     515                            .dwattr $C$DW$83, DW_AT_location[DW_OP_reg20]
     516                    $C$DW$84        .dwtag  DW_TAG_variable, DW_AT_name("$O$U50")
     517                            .dwattr $C$DW$84, DW_AT_TI_symbol_name("$O$U50")
     518                            .dwattr $C$DW$84, DW_AT_type(*$C$DW$T$10)
     519                            .dwattr $C$DW$84, DW_AT_location[DW_OP_breg31 32]
     520                    $C$DW$85        .dwtag  DW_TAG_variable, DW_AT_name("$O$K106")
     521                            .dwattr $C$DW$85, DW_AT_TI_symbol_name("$O$K106")
     522                            .dwattr $C$DW$85, DW_AT_type(*$C$DW$T$85)
     523                            .dwattr $C$DW$85, DW_AT_location[DW_OP_reg12]
     524                    $C$DW$86        .dwtag  DW_TAG_variable, DW_AT_name("$O$U57")
     525                            .dwattr $C$DW$86, DW_AT_TI_symbol_name("$O$U57")
     526                            .dwattr $C$DW$86, DW_AT_type(*$C$DW$T$44)
     527                            .dwattr $C$DW$86, DW_AT_location[DW_OP_breg31 36]
     528                    $C$DW$87        .dwtag  DW_TAG_variable, DW_AT_name("$O$U59")
     529                            .dwattr $C$DW$87, DW_AT_TI_symbol_name("$O$U59")
     530                            .dwattr $C$DW$87, DW_AT_type(*$C$DW$T$6)
     531                            .dwattr $C$DW$87, DW_AT_location[DW_OP_reg4]
     532                    $C$DW$88        .dwtag  DW_TAG_variable, DW_AT_name("$O$K113")
     533                            .dwattr $C$DW$88, DW_AT_TI_symbol_name("$O$K113")
     534                            .dwattr $C$DW$88, DW_AT_type(*$C$DW$T$160)
     535                            .dwattr $C$DW$88, DW_AT_location[DW_OP_reg4]
     536                    $C$DW$89        .dwtag  DW_TAG_variable, DW_AT_name("$O$U131")
     537                            .dwattr $C$DW$89, DW_AT_TI_symbol_name("$O$U131")
     538                            .dwattr $C$DW$89, DW_AT_type(*$C$DW$T$17)
     539                            .dwattr $C$DW$89, DW_AT_location[DW_OP_reg26]
     540                    $C$DW$90        .dwtag  DW_TAG_variable, DW_AT_name("$O$U125")
     541                            .dwattr $C$DW$90, DW_AT_TI_symbol_name("$O$U125")
     542                            .dwattr $C$DW$90, DW_AT_type(*$C$DW$T$168)
     543                            .dwattr $C$DW$90, DW_AT_location[DW_OP_breg31 40]
     544                    $C$DW$91        .dwtag  DW_TAG_variable, DW_AT_name("$O$U126")
     545                            .dwattr $C$DW$91, DW_AT_TI_symbol_name("$O$U126")
     546                            .dwattr $C$DW$91, DW_AT_type(*$C$DW$T$17)
     547                            .dwattr $C$DW$91, DW_AT_location[DW_OP_reg28]
     548                    $C$DW$92        .dwtag  DW_TAG_variable, DW_AT_name("$O$U146")
     549                            .dwattr $C$DW$92, DW_AT_TI_symbol_name("$O$U146")
     550                            .dwattr $C$DW$92, DW_AT_type(*$C$DW$T$168)
TMS320C6x Assembler PC v7.4.2 Thu Mar 19 12:41:55 2015

Tools Copyright (c) 1996-2012 Texas Instruments Incorporated
package/lib/Regression/regress_d_c/./../packages/ti/vlib/src/VLIB_homographyDecomposition/VLIB_homographyDecomposition_d.se66 PAGE   11

     551                            .dwattr $C$DW$92, DW_AT_location[DW_OP_breg31 40]
     552                    $C$DW$93        .dwtag  DW_TAG_variable, DW_AT_name("$O$U147")
     553                            .dwattr $C$DW$93, DW_AT_TI_symbol_name("$O$U147")
     554                            .dwattr $C$DW$93, DW_AT_type(*$C$DW$T$17)
     555                            .dwattr $C$DW$93, DW_AT_location[DW_OP_reg28]
     556                    $C$DW$94        .dwtag  DW_TAG_variable, DW_AT_name("$O$U156")
     557                            .dwattr $C$DW$94, DW_AT_TI_symbol_name("$O$U156")
     558                            .dwattr $C$DW$94, DW_AT_type(*$C$DW$T$168)
     559                            .dwattr $C$DW$94, DW_AT_location[DW_OP_breg31 40]
     560                    $C$DW$95        .dwtag  DW_TAG_variable, DW_AT_name("$O$U157")
     561                            .dwattr $C$DW$95, DW_AT_TI_symbol_name("$O$U157")
     562                            .dwattr $C$DW$95, DW_AT_type(*$C$DW$T$17)
     563                            .dwattr $C$DW$95, DW_AT_location[DW_OP_reg28]
     564                    $C$DW$96        .dwtag  DW_TAG_variable, DW_AT_name("$O$U185")
     565                            .dwattr $C$DW$96, DW_AT_TI_symbol_name("$O$U185")
     566                            .dwattr $C$DW$96, DW_AT_type(*$C$DW$T$168)
     567                            .dwattr $C$DW$96, DW_AT_location[DW_OP_reg12]
     568                    $C$DW$97        .dwtag  DW_TAG_variable, DW_AT_name("$O$U186")
     569                            .dwattr $C$DW$97, DW_AT_TI_symbol_name("$O$U186")
     570                            .dwattr $C$DW$97, DW_AT_type(*$C$DW$T$17)
     571                            .dwattr $C$DW$97, DW_AT_location[DW_OP_reg10]
     572                    $C$DW$98        .dwtag  DW_TAG_variable, DW_AT_name("$O$U196")
     573                            .dwattr $C$DW$98, DW_AT_TI_symbol_name("$O$U196")
     574                            .dwattr $C$DW$98, DW_AT_type(*$C$DW$T$168)
     575                            .dwattr $C$DW$98, DW_AT_location[DW_OP_reg12]
     576                    $C$DW$99        .dwtag  DW_TAG_variable, DW_AT_name("$O$U197")
     577                            .dwattr $C$DW$99, DW_AT_TI_symbol_name("$O$U197")
     578                            .dwattr $C$DW$99, DW_AT_type(*$C$DW$T$17)
     579                            .dwattr $C$DW$99, DW_AT_location[DW_OP_reg10]
     580                    $C$DW$100       .dwtag  DW_TAG_variable, DW_AT_name("$O$U204")
     581                            .dwattr $C$DW$100, DW_AT_TI_symbol_name("$O$U204")
     582                            .dwattr $C$DW$100, DW_AT_type(*$C$DW$T$168)
     583                            .dwattr $C$DW$100, DW_AT_location[DW_OP_reg12]
     584                    $C$DW$101       .dwtag  DW_TAG_variable, DW_AT_name("$O$U205")
     585                            .dwattr $C$DW$101, DW_AT_TI_symbol_name("$O$U205")
     586                            .dwattr $C$DW$101, DW_AT_type(*$C$DW$T$17)
     587                            .dwattr $C$DW$101, DW_AT_location[DW_OP_reg10]
     588                    $C$DW$102       .dwtag  DW_TAG_variable, DW_AT_name("$O$K231")
     589                            .dwattr $C$DW$102, DW_AT_TI_symbol_name("$O$K231")
     590                            .dwattr $C$DW$102, DW_AT_type(*$C$DW$T$85)
     591                            .dwattr $C$DW$102, DW_AT_location[DW_OP_reg8]
     592                    $C$DW$103       .dwtag  DW_TAG_variable, DW_AT_name("$O$U51")
     593                            .dwattr $C$DW$103, DW_AT_TI_symbol_name("$O$U51")
     594                            .dwattr $C$DW$103, DW_AT_type(*$C$DW$T$44)
     595                            .dwattr $C$DW$103, DW_AT_location[DW_OP_breg31 44]
     596                    $C$DW$104       .dwtag  DW_TAG_variable, DW_AT_name("$O$U173")
     597                            .dwattr $C$DW$104, DW_AT_TI_symbol_name("$O$U173")
     598                            .dwattr $C$DW$104, DW_AT_type(*$C$DW$T$168)
     599                            .dwattr $C$DW$104, DW_AT_location[DW_OP_breg31 40]
     600                    $C$DW$105       .dwtag  DW_TAG_variable, DW_AT_name("$O$U194")
     601                            .dwattr $C$DW$105, DW_AT_TI_symbol_name("$O$U194")
     602                            .dwattr $C$DW$105, DW_AT_type(*$C$DW$T$10)
     603                            .dwattr $C$DW$105, DW_AT_location[DW_OP_breg31 48]
     604                    $C$DW$106       .dwtag  DW_TAG_variable, DW_AT_name("$O$U176")
     605                            .dwattr $C$DW$106, DW_AT_TI_symbol_name("$O$U176")
TMS320C6x Assembler PC v7.4.2 Thu Mar 19 12:41:55 2015

Tools Copyright (c) 1996-2012 Texas Instruments Incorporated
package/lib/Regression/regress_d_c/./../packages/ti/vlib/src/VLIB_homographyDecomposition/VLIB_homographyDecomposition_d.se66 PAGE   12

     606                            .dwattr $C$DW$106, DW_AT_type(*$C$DW$T$168)
     607                            .dwattr $C$DW$106, DW_AT_location[DW_OP_breg31 52]
     608                    $C$DW$107       .dwtag  DW_TAG_variable, DW_AT_name("$O$L1")
     609                            .dwattr $C$DW$107, DW_AT_TI_symbol_name("$O$L1")
     610                            .dwattr $C$DW$107, DW_AT_type(*$C$DW$T$10)
     611                            .dwattr $C$DW$107, DW_AT_location[DW_OP_breg31 48]
     612                    $C$DW$108       .dwtag  DW_TAG_variable, DW_AT_name("$O$L2")
     613                            .dwattr $C$DW$108, DW_AT_TI_symbol_name("$O$L2")
     614                            .dwattr $C$DW$108, DW_AT_type(*$C$DW$T$10)
     615                            .dwattr $C$DW$108, DW_AT_location[DW_OP_breg31 52]
     616                    $C$DW$109       .dwtag  DW_TAG_variable, DW_AT_name("$O$L3")
     617                            .dwattr $C$DW$109, DW_AT_TI_symbol_name("$O$L3")
     618                            .dwattr $C$DW$109, DW_AT_type(*$C$DW$T$10)
     619                            .dwattr $C$DW$109, DW_AT_location[DW_OP_breg31 48]
     620                    $C$DW$110       .dwtag  DW_TAG_variable, DW_AT_name("$O$L4")
     621                            .dwattr $C$DW$110, DW_AT_TI_symbol_name("$O$L4")
     622                            .dwattr $C$DW$110, DW_AT_type(*$C$DW$T$10)
     623                            .dwattr $C$DW$110, DW_AT_location[DW_OP_breg31 48]
     624                    $C$DW$111       .dwtag  DW_TAG_variable, DW_AT_name("$O$L5")
     625                            .dwattr $C$DW$111, DW_AT_TI_symbol_name("$O$L5")
     626                            .dwattr $C$DW$111, DW_AT_type(*$C$DW$T$10)
     627                            .dwattr $C$DW$111, DW_AT_location[DW_OP_breg31 56]
     628                    $C$DW$112       .dwtag  DW_TAG_variable, DW_AT_name("$O$L6")
     629                            .dwattr $C$DW$112, DW_AT_TI_symbol_name("$O$L6")
     630                            .dwattr $C$DW$112, DW_AT_type(*$C$DW$T$10)
     631                            .dwattr $C$DW$112, DW_AT_location[DW_OP_breg31 60]
     632                    $C$DW$113       .dwtag  DW_TAG_variable, DW_AT_name("$O$L7")
     633                            .dwattr $C$DW$113, DW_AT_TI_symbol_name("$O$L7")
     634                            .dwattr $C$DW$113, DW_AT_type(*$C$DW$T$10)
     635                            .dwattr $C$DW$113, DW_AT_location[DW_OP_breg31 40]
     636                    $C$DW$114       .dwtag  DW_TAG_variable, DW_AT_name("$O$L8")
     637                            .dwattr $C$DW$114, DW_AT_TI_symbol_name("$O$L8")
     638                            .dwattr $C$DW$114, DW_AT_type(*$C$DW$T$10)
     639                            .dwattr $C$DW$114, DW_AT_location[DW_OP_breg31 40]
     640                    $C$DW$115       .dwtag  DW_TAG_variable, DW_AT_name("err_flag")
     641                            .dwattr $C$DW$115, DW_AT_TI_symbol_name("err_flag")
     642                            .dwattr $C$DW$115, DW_AT_type(*$C$DW$T$32)
     643                            .dwattr $C$DW$115, DW_AT_location[DW_OP_reg1]
     644                    $C$DW$116       .dwtag  DW_TAG_variable, DW_AT_name("rot_cn")
     645                            .dwattr $C$DW$116, DW_AT_TI_symbol_name("rot_cn")
     646                            .dwattr $C$DW$116, DW_AT_type(*$C$DW$T$50)
     647                            .dwattr $C$DW$116, DW_AT_location[DW_OP_breg31 64]
     648                    $C$DW$117       .dwtag  DW_TAG_variable, DW_AT_name("rot")
     649                            .dwattr $C$DW$117, DW_AT_TI_symbol_name("rot")
     650                            .dwattr $C$DW$117, DW_AT_type(*$C$DW$T$50)
     651                            .dwattr $C$DW$117, DW_AT_location[DW_OP_breg31 68]
     652                    $C$DW$118       .dwtag  DW_TAG_variable, DW_AT_name("a")
     653                            .dwattr $C$DW$118, DW_AT_TI_symbol_name("a")
     654                            .dwattr $C$DW$118, DW_AT_type(*$C$DW$T$50)
     655                            .dwattr $C$DW$118, DW_AT_location[DW_OP_reg13]
     656                    $C$DW$119       .dwtag  DW_TAG_variable, DW_AT_name("err_cnt_cn")
     657                            .dwattr $C$DW$119, DW_AT_TI_symbol_name("err_cnt_cn")
     658                            .dwattr $C$DW$119, DW_AT_type(*$C$DW$T$32)
     659                            .dwattr $C$DW$119, DW_AT_location[DW_OP_breg31 72]
     660                    $C$DW$120       .dwtag  DW_TAG_variable, DW_AT_name("err_cnt_c6x")
TMS320C6x Assembler PC v7.4.2 Thu Mar 19 12:41:55 2015

Tools Copyright (c) 1996-2012 Texas Instruments Incorporated
package/lib/Regression/regress_d_c/./../packages/ti/vlib/src/VLIB_homographyDecomposition/VLIB_homographyDecomposition_d.se66 PAGE   13

     661                            .dwattr $C$DW$120, DW_AT_TI_symbol_name("err_cnt_c6x")
     662                            .dwattr $C$DW$120, DW_AT_type(*$C$DW$T$32)
     663                            .dwattr $C$DW$120, DW_AT_location[DW_OP_breg31 76]
     664                    $C$DW$121       .dwtag  DW_TAG_variable, DW_AT_name("n")
     665                            .dwattr $C$DW$121, DW_AT_TI_symbol_name("n")
     666                            .dwattr $C$DW$121, DW_AT_type(*$C$DW$T$32)
     667                            .dwattr $C$DW$121, DW_AT_location[DW_OP_breg31 80]
     668                    $C$DW$122       .dwtag  DW_TAG_variable, DW_AT_name("proj_cn")
     669                            .dwattr $C$DW$122, DW_AT_TI_symbol_name("proj_cn")
     670                            .dwattr $C$DW$122, DW_AT_type(*$C$DW$T$21)
     671                            .dwattr $C$DW$122, DW_AT_location[DW_OP_breg31 84]
     672                    $C$DW$123       .dwtag  DW_TAG_variable, DW_AT_name("trans_cn")
     673                            .dwattr $C$DW$123, DW_AT_TI_symbol_name("trans_cn")
     674                            .dwattr $C$DW$123, DW_AT_type(*$C$DW$T$21)
     675                            .dwattr $C$DW$123, DW_AT_location[DW_OP_breg31 88]
     676                    $C$DW$124       .dwtag  DW_TAG_variable, DW_AT_name("pRot_cn")
     677                            .dwattr $C$DW$124, DW_AT_TI_symbol_name("pRot_cn")
     678                            .dwattr $C$DW$124, DW_AT_type(*$C$DW$T$21)
     679                            .dwattr $C$DW$124, DW_AT_location[DW_OP_breg31 92]
     680                    $C$DW$125       .dwtag  DW_TAG_variable, DW_AT_name("proj")
     681                            .dwattr $C$DW$125, DW_AT_TI_symbol_name("proj")
     682                            .dwattr $C$DW$125, DW_AT_type(*$C$DW$T$21)
     683                            .dwattr $C$DW$125, DW_AT_location[DW_OP_breg31 96]
     684                    $C$DW$126       .dwtag  DW_TAG_variable, DW_AT_name("trans")
     685                            .dwattr $C$DW$126, DW_AT_TI_symbol_name("trans")
     686                            .dwattr $C$DW$126, DW_AT_type(*$C$DW$T$21)
     687                            .dwattr $C$DW$126, DW_AT_location[DW_OP_breg31 100]
     688                    $C$DW$127       .dwtag  DW_TAG_variable, DW_AT_name("pRot")
     689                            .dwattr $C$DW$127, DW_AT_TI_symbol_name("pRot")
     690                            .dwattr $C$DW$127, DW_AT_type(*$C$DW$T$21)
     691                            .dwattr $C$DW$127, DW_AT_location[DW_OP_breg31 104]
     692                    $C$DW$128       .dwtag  DW_TAG_variable, DW_AT_name("pA")
     693                            .dwattr $C$DW$128, DW_AT_TI_symbol_name("pA")
     694                            .dwattr $C$DW$128, DW_AT_type(*$C$DW$T$21)
     695                            .dwattr $C$DW$128, DW_AT_location[DW_OP_breg31 108]
     696                    $C$DW$129       .dwtag  DW_TAG_variable, DW_AT_name("status_nat_vs_ref")
     697                            .dwattr $C$DW$129, DW_AT_TI_symbol_name("status_nat_vs_ref")
     698                            .dwattr $C$DW$129, DW_AT_type(*$C$DW$T$32)
     699                            .dwattr $C$DW$129, DW_AT_location[DW_OP_reg15]
     700                    $C$DW$130       .dwtag  DW_TAG_variable, DW_AT_name("status_nat_vs_int")
     701                            .dwattr $C$DW$130, DW_AT_TI_symbol_name("status_nat_vs_int")
     702                            .dwattr $C$DW$130, DW_AT_type(*$C$DW$T$32)
     703                            .dwattr $C$DW$130, DW_AT_location[DW_OP_reg14]
     704                    $C$DW$131       .dwtag  DW_TAG_variable, DW_AT_name("prm")
     705                            .dwattr $C$DW$131, DW_AT_TI_symbol_name("prm")
     706                            .dwattr $C$DW$131, DW_AT_type(*$C$DW$T$47)
     707                            .dwattr $C$DW$131, DW_AT_location[DW_OP_breg31 28]
     708                    $C$DW$132       .dwtag  DW_TAG_variable, DW_AT_name("tpi")
     709                            .dwattr $C$DW$132, DW_AT_TI_symbol_name("tpi")
     710                            .dwattr $C$DW$132, DW_AT_type(*$C$DW$T$32)
     711                            .dwattr $C$DW$132, DW_AT_location[DW_OP_breg31 112]
     712                    $C$DW$133       .dwtag  DW_TAG_variable, DW_AT_name("LevelOfFeedback")
     713                            .dwattr $C$DW$133, DW_AT_TI_symbol_name("LevelOfFeedback")
     714                            .dwattr $C$DW$133, DW_AT_type(*$C$DW$T$110)
     715                            .dwattr $C$DW$133, DW_AT_location[DW_OP_breg31 116]
TMS320C6x Assembler PC v7.4.2 Thu Mar 19 12:41:55 2015

Tools Copyright (c) 1996-2012 Texas Instruments Incorporated
package/lib/Regression/regress_d_c/./../packages/ti/vlib/src/VLIB_homographyDecomposition/VLIB_homographyDecomposition_d.se66 PAGE   14

     716                    $C$DW$134       .dwtag  DW_TAG_variable, DW_AT_name("$O$v1")
     717                            .dwattr $C$DW$134, DW_AT_TI_symbol_name("$O$v1")
     718                            .dwattr $C$DW$134, DW_AT_type(*$C$DW$T$47)
     719                            .dwattr $C$DW$134, DW_AT_location[DW_OP_breg31 120]
     720                    $C$DW$135       .dwtag  DW_TAG_variable, DW_AT_name("$O$U127")
     721                            .dwattr $C$DW$135, DW_AT_TI_symbol_name("$O$U127")
     722                            .dwattr $C$DW$135, DW_AT_type(*$C$DW$T$168)
     723                            .dwattr $C$DW$135, DW_AT_location[DW_OP_reg12]
     724                    $C$DW$136       .dwtag  DW_TAG_variable, DW_AT_name("$O$U127")
     725                            .dwattr $C$DW$136, DW_AT_TI_symbol_name("$O$U127")
     726                            .dwattr $C$DW$136, DW_AT_type(*$C$DW$T$168)
     727                            .dwattr $C$DW$136, DW_AT_location[DW_OP_breg31 124]
     728                    $C$DW$137       .dwtag  DW_TAG_variable, DW_AT_name("$O$U128")
     729                            .dwattr $C$DW$137, DW_AT_TI_symbol_name("$O$U128")
     730                            .dwattr $C$DW$137, DW_AT_type(*$C$DW$T$17)
     731                            .dwattr $C$DW$137, DW_AT_location[DW_OP_reg10]
     732                    $C$DW$138       .dwtag  DW_TAG_variable, DW_AT_name("$O$U128")
     733                            .dwattr $C$DW$138, DW_AT_TI_symbol_name("$O$U128")
     734                            .dwattr $C$DW$138, DW_AT_type(*$C$DW$T$17)
     735                            .dwattr $C$DW$138, DW_AT_location[DW_OP_reg28]
     736                    $C$DW$139       .dwtag  DW_TAG_variable, DW_AT_name("$O$U148")
     737                            .dwattr $C$DW$139, DW_AT_TI_symbol_name("$O$U148")
     738                            .dwattr $C$DW$139, DW_AT_type(*$C$DW$T$168)
     739                            .dwattr $C$DW$139, DW_AT_location[DW_OP_reg12]
     740                    $C$DW$140       .dwtag  DW_TAG_variable, DW_AT_name("$O$U148")
     741                            .dwattr $C$DW$140, DW_AT_TI_symbol_name("$O$U148")
     742                            .dwattr $C$DW$140, DW_AT_type(*$C$DW$T$168)
     743                            .dwattr $C$DW$140, DW_AT_location[DW_OP_breg31 56]
     744                    $C$DW$141       .dwtag  DW_TAG_variable, DW_AT_name("$O$U149")
     745                            .dwattr $C$DW$141, DW_AT_TI_symbol_name("$O$U149")
     746                            .dwattr $C$DW$141, DW_AT_type(*$C$DW$T$17)
     747                            .dwattr $C$DW$141, DW_AT_location[DW_OP_reg10]
     748                    $C$DW$142       .dwtag  DW_TAG_variable, DW_AT_name("$O$U149")
     749                            .dwattr $C$DW$142, DW_AT_TI_symbol_name("$O$U149")
     750                            .dwattr $C$DW$142, DW_AT_type(*$C$DW$T$17)
     751                            .dwattr $C$DW$142, DW_AT_location[DW_OP_reg28]
     752                    $C$DW$143       .dwtag  DW_TAG_variable, DW_AT_name("$O$U158")
     753                            .dwattr $C$DW$143, DW_AT_TI_symbol_name("$O$U158")
     754                            .dwattr $C$DW$143, DW_AT_type(*$C$DW$T$168)
     755                            .dwattr $C$DW$143, DW_AT_location[DW_OP_reg12]
     756                    $C$DW$144       .dwtag  DW_TAG_variable, DW_AT_name("$O$U158")
     757                            .dwattr $C$DW$144, DW_AT_TI_symbol_name("$O$U158")
     758                            .dwattr $C$DW$144, DW_AT_type(*$C$DW$T$168)
     759                            .dwattr $C$DW$144, DW_AT_location[DW_OP_breg31 48]
     760                    $C$DW$145       .dwtag  DW_TAG_variable, DW_AT_name("$O$U159")
     761                            .dwattr $C$DW$145, DW_AT_TI_symbol_name("$O$U159")
     762                            .dwattr $C$DW$145, DW_AT_type(*$C$DW$T$17)
     763                            .dwattr $C$DW$145, DW_AT_location[DW_OP_reg10]
     764                    $C$DW$146       .dwtag  DW_TAG_variable, DW_AT_name("$O$U159")
     765                            .dwattr $C$DW$146, DW_AT_TI_symbol_name("$O$U159")
     766                            .dwattr $C$DW$146, DW_AT_type(*$C$DW$T$17)
     767                            .dwattr $C$DW$146, DW_AT_location[DW_OP_reg28]
     768                    $C$DW$147       .dwtag  DW_TAG_variable, DW_AT_name("$O$U122")
     769                            .dwattr $C$DW$147, DW_AT_TI_symbol_name("$O$U122")
     770                            .dwattr $C$DW$147, DW_AT_type(*$C$DW$T$10)
TMS320C6x Assembler PC v7.4.2 Thu Mar 19 12:41:55 2015

Tools Copyright (c) 1996-2012 Texas Instruments Incorporated
package/lib/Regression/regress_d_c/./../packages/ti/vlib/src/VLIB_homographyDecomposition/VLIB_homographyDecomposition_d.se66 PAGE   15

     771                            .dwattr $C$DW$147, DW_AT_location[DW_OP_breg31 56]
     772                    $C$DW$148       .dwtag  DW_TAG_variable, DW_AT_name("$O$U122")
     773                            .dwattr $C$DW$148, DW_AT_TI_symbol_name("$O$U122")
     774                            .dwattr $C$DW$148, DW_AT_type(*$C$DW$T$10)
     775                            .dwattr $C$DW$148, DW_AT_location[DW_OP_breg31 128]
     776                    $C$DW$149       .dwtag  DW_TAG_variable, DW_AT_name("$O$v2")
     777                            .dwattr $C$DW$149, DW_AT_TI_symbol_name("$O$v2")
     778                            .dwattr $C$DW$149, DW_AT_type(*$C$DW$T$161)
     779                            .dwattr $C$DW$149, DW_AT_location[DW_OP_reg22]
     780                    $C$DW$150       .dwtag  DW_TAG_variable, DW_AT_name("$O$v2")
     781                            .dwattr $C$DW$150, DW_AT_TI_symbol_name("$O$v2")
     782                            .dwattr $C$DW$150, DW_AT_type(*$C$DW$T$161)
     783                            .dwattr $C$DW$150, DW_AT_location[DW_OP_reg22]
     784 00000014 0200002a!            MVKL    .S2     test_cases,B4
     785 00000018 0200006a!            MVKH    .S2     test_cases,B4
     786                    $C$DW$151       .dwtag  DW_TAG_TI_branch
     787                            .dwattr $C$DW$151, DW_AT_low_pc(0x00)
     788                            .dwattr $C$DW$151, DW_AT_name("homographyDecomposition_getTestParams")
     789                            .dwattr $C$DW$151, DW_AT_TI_call
     790                    
     791 00000020 10000013!            CALLP   .S2     homographyDecomposition_getTestParams,B3
     792 00000024     afc5  ||         STW     .D2T1   A4,*+SP(116)      ; |44| 
     793 00000026     e636  ||         ADDAW   .D1X    SP,7,A4           ; |50| 
     794                    
     795                            .dwpsn  file "./../packages/ti/vlib/src/VLIB_homographyDecomposition/VLIB_homographyDecomposit
     796                    ;----------------------------------------------------------------------
     797                    ;  50 | homographyDecomposition_getTestParams(&prm, &test_cases);              
     798                    ;----------------------------------------------------------------------
     799 00000028           $C$RL0:    ; CALL OCCURS {homographyDecomposition_getTestParams} {0}  ; |50| 
     800                    ;** --------------------------------------------------------------------------*
     801                    ;          EXCLUSIVE CPU CYCLES: 8
     802 00000028 0200002a!            MVKL    .S2     $C$SL1+0,B4
     803 0000002c 0200006a!            MVKH    .S2     $C$SL1+0,B4
     804                    $C$DW$152       .dwtag  DW_TAG_TI_branch
     805                            .dwattr $C$DW$152, DW_AT_low_pc(0x00)
     806                            .dwattr $C$DW$152, DW_AT_name("VLIB_profile_init")
     807                            .dwattr $C$DW$152, DW_AT_TI_call
     808                    
     809 00000030 10000013!            CALLP   .S2     VLIB_profile_init,B3
     810 00000034 0208a358  ||         MVK     .L1     0x2,A4            ; |53| 
     811                    
     812                            .dwpsn  file "./../packages/ti/vlib/src/VLIB_homographyDecomposition/VLIB_homographyDecomposit
     813                    ;----------------------------------------------------------------------
     814                    ;  53 | VLIB_profile_init(2, "VLIB_homographyDecomposition");                  
     815                    ;----------------------------------------------------------------------
     816 00000038           $C$RL1:    ; CALL OCCURS {VLIB_profile_init} {0}  ; |53| 
     817                    ;** --------------------------------------------------------------------------*
     818                    ;          EXCLUSIVE CPU CYCLES: 14
     819 00000038 01800028!            MVKL    .S1     test_cases,A3
     820 00000040 01800068!            MVKH    .S1     test_cases,A3
     821                            .dwpsn  file "./../packages/ti/vlib/src/VLIB_homographyDecomposition/VLIB_homographyDecomposit
     822                    ;----------------------------------------------------------------------
     823                    ;  56 | for( tpi=0; tpi < test_cases; tpi++ ) {                                
     824                    ;----------------------------------------------------------------------
     825 00000044 018c0264             LDW     .D1T1   *A3,A3            ; |56| 
TMS320C6x Assembler PC v7.4.2 Thu Mar 19 12:41:55 2015

Tools Copyright (c) 1996-2012 Texas Instruments Incorporated
package/lib/Regression/regress_d_c/./../packages/ti/vlib/src/VLIB_homographyDecomposition/VLIB_homographyDecomposition_d.se66 PAGE   16

     826                            .dwpsn  file "./../packages/ti/vlib/src/VLIB_homographyDecomposition/VLIB_homographyDecomposit
     827                    ;----------------------------------------------------------------------
     828                    ;  59 | int32_t    status_nat_vs_int = vlib_KERNEL_PASS; /* Test status : Natur
     829                    ;     | al c vs. Optimized */                                                  
     830                    ;  60 | int32_t    status_nat_vs_ref = vlib_KERNEL_PASS; /* Test status : Natur
     831                    ;     | al c vs. Static Reference */                                           
     832                    ;----------------------------------------------------------------------
     833 00000048     06a7             ZERO    .L2     B5                ; |56| 
     834 0000004a     0727             ZERO    .L2     B6                ; |56| 
     835 0000004c     9fd5             STW     .D2T2   B5,*+SP(112)
     836 0000004e     9d65             STW     .D2T2   B6,*+SP(32)
     837                            .dwpsn  file "./../packages/ti/vlib/src/VLIB_homographyDecomposition/VLIB_homographyDecomposit
     838 00000050 000c0ad8             CMPGT   .L1     A3,0,A0           ; |56| 
     839 00000054 d542a120     [!A0]   BNOP    .S1     $C$L25,5          ; |56| 
     840                               ; BRANCHCC OCCURS {$C$L25}        ; |56| 
     841                    ;** --------------------------------------------------------------------------*
     842                    ;**     -----------------------    K$231 = &desc[0];
     843                    ;**     -----------------------    K$11 = 72u;
     844                    ;**     -----------------------    U$50 = 0;
     845                    ;** 56  -----------------------    tpi = 0;
     846                    ;**     -----------------------    #pragma LOOP_FLAGS(5120u)
     847                    ;** --------------------------------------------------------------------------*
     848                    ;**   BEGIN LOOP $C$L1
     849                    ;** --------------------------------------------------------------------------*
     850 00000058           $C$L1:    
     851                            .dwpsn  file "./../packages/ti/vlib/src/VLIB_homographyDecomposition/VLIB_homographyDecomposit
     852 00000058           $C$DW$L$VLIB_homographyDecomposition_d$5$B:
     853                    ;          EXCLUSIVE CPU CYCLES: 6
     854                    ;**     -----------------------g3:
     855                    ;** 63  -----------------------    pA = VLIB_memalign(8u, K$11);
     856                    ;** 64  -----------------------    pRot = VLIB_memalign(8u, K$11);
     857                    ;** 65  -----------------------    trans = VLIB_memalign(8u, 24u);
     858                    ;** 66  -----------------------    proj = VLIB_memalign(8u, 24u);
     859                    ;** 67  -----------------------    pRot_cn = memalign(8u, K$11);
     860                    ;** 68  -----------------------    trans_cn = memalign(8u, 24u);
     861                    ;** 69  -----------------------    proj_cn = memalign(8u, 24u);
     862                    ;** 72  -----------------------    v$1 = prm;
     863                    ;** 72  -----------------------    if ( !((pA != NULL)&(pRot != NULL)&(trans != NULL)&(proj != NULL)&(
     864                            .dwpsn  file "./../packages/ti/vlib/src/VLIB_homographyDecomposition/VLIB_homographyDecomposit
     865                    ;----------------------------------------------------------------------
     866                    ;  63 | VLIB_D64   *pA       =  (VLIB_D64 *) VLIB_memalign(8, 3 * 3 * sizeof(VL
     867                    ;     | IB_D64));                                                              
     868                    ;----------------------------------------------------------------------
     869                    $C$DW$153       .dwtag  DW_TAG_TI_branch
     870                            .dwattr $C$DW$153, DW_AT_low_pc(0x00)
     871                            .dwattr $C$DW$153, DW_AT_name("VLIB_memalign")
     872                            .dwattr $C$DW$153, DW_AT_TI_call
     873 00000058 00000010!            CALL    .S1     VLIB_memalign     ; |63| 
     874 00000060 0200242a             MVK     .S2     0x48,B4
     875 00000064 01834162             ADDKPC  .S2     $C$RL2,B3,2       ; |63| 
     876 00000068 0220a358             MVK     .L1     0x8,A4            ; |63| 
     877 0000006c           $C$RL2:    ; CALL OCCURS {VLIB_memalign} {0}  ; |63| 
     878 0000006c           $C$DW$L$VLIB_homographyDecomposition_d$5$E:
     879                    ;** --------------------------------------------------------------------------*
     880 0000006c           $C$DW$L$VLIB_homographyDecomposition_d$6$B:
TMS320C6x Assembler PC v7.4.2 Thu Mar 19 12:41:55 2015

Tools Copyright (c) 1996-2012 Texas Instruments Incorporated
package/lib/Regression/regress_d_c/./../packages/ti/vlib/src/VLIB_homographyDecomposition/VLIB_homographyDecomposition_d.se66 PAGE   17

     881                    ;          EXCLUSIVE CPU CYCLES: 42
     882                    
     883 0000006c     4646             MV      .L1     A4,A10            ; |63| 
     884 0000006e     0a53  ||         MVK     .S2     0x48,B4
     885                    
     886                    $C$DW$154       .dwtag  DW_TAG_TI_branch
     887                            .dwattr $C$DW$154, DW_AT_low_pc(0x00)
     888                            .dwattr $C$DW$154, DW_AT_name("VLIB_memalign")
     889                            .dwattr $C$DW$154, DW_AT_TI_call
     890                    
     891 00000070 10000013!            CALLP   .S2     VLIB_memalign,B3
     892 00000074 053f62f5  ||         STW     .D2T1   A10,*+SP(108)     ; |63| 
     893 00000078     0e26  ||         MVK     .L1     0x8,A4            ; |64| 
     894                    
     895                            .dwpsn  file "./../packages/ti/vlib/src/VLIB_homographyDecomposition/VLIB_homographyDecomposit
     896                    ;----------------------------------------------------------------------
     897                    ;  64 | VLIB_D64   *pRot     =  (VLIB_D64 *) VLIB_memalign(8, 3 * 3 * sizeof(VL
     898                    ;     | IB_D64));                                                              
     899                    ;----------------------------------------------------------------------
     900 00000080           $C$RL3:    ; CALL OCCURS {VLIB_memalign} {0}  ; |64| 
     901                    
     902 00000080     6646             MV      .L1     A4,A11            ; |64| 
     903 00000082     1a13  ||         MVK     .S2     0x18,B4           ; |65| 
     904                    
     905                    $C$DW$155       .dwtag  DW_TAG_TI_branch
     906                            .dwattr $C$DW$155, DW_AT_low_pc(0x00)
     907                            .dwattr $C$DW$155, DW_AT_name("VLIB_memalign")
     908                            .dwattr $C$DW$155, DW_AT_TI_call
     909                    
     910 00000084 10000013!            CALLP   .S2     VLIB_memalign,B3
     911 00000088 05bf42f5  ||         STW     .D2T1   A11,*+SP(104)     ; |64| 
     912 0000008c     0e26  ||         MVK     .L1     0x8,A4            ; |65| 
     913                    
     914                            .dwpsn  file "./../packages/ti/vlib/src/VLIB_homographyDecomposition/VLIB_homographyDecomposit
     915                    ;----------------------------------------------------------------------
     916                    ;  65 | VLIB_D64   *trans    =  (VLIB_D64 *) VLIB_memalign(8, 3 * sizeof(VLIB_D
     917                    ;     | 64));                                                                  
     918                    ;----------------------------------------------------------------------
     919 0000008e           $C$RL4:    ; CALL OCCURS {VLIB_memalign} {0}  ; |65| 
     920                    
     921 0000008e     8646             MV      .L1     A4,A12            ; |65| 
     922 00000090     1a13  ||         MVK     .S2     0x18,B4           ; |66| 
     923                    
     924                    $C$DW$156       .dwtag  DW_TAG_TI_branch
     925                            .dwattr $C$DW$156, DW_AT_low_pc(0x00)
     926                            .dwattr $C$DW$156, DW_AT_name("VLIB_memalign")
     927                            .dwattr $C$DW$156, DW_AT_TI_call
     928                    
     929 00000098 10000012!            CALLP   .S2     VLIB_memalign,B3
     930 00000094 063f22f5  ||         STW     .D2T1   A12,*+SP(100)     ; |65| 
     931 00000092     0e26  ||         MVK     .L1     0x8,A4            ; |66| 
     932                    
     933                            .dwpsn  file "./../packages/ti/vlib/src/VLIB_homographyDecomposition/VLIB_homographyDecomposit
     934                    ;----------------------------------------------------------------------
     935                    ;  66 | VLIB_D64   *proj     =  (VLIB_D64 *) VLIB_memalign(8, 3 * sizeof(VLIB_D
TMS320C6x Assembler PC v7.4.2 Thu Mar 19 12:41:55 2015

Tools Copyright (c) 1996-2012 Texas Instruments Incorporated
package/lib/Regression/regress_d_c/./../packages/ti/vlib/src/VLIB_homographyDecomposition/VLIB_homographyDecomposition_d.se66 PAGE   18

     936                    ;     | 64));                                                                  
     937                    ;----------------------------------------------------------------------
     938 000000a0           $C$RL5:    ; CALL OCCURS {VLIB_memalign} {0}  ; |66| 
     939                    
     940 000000a0     a646             MV      .L1     A4,A13            ; |66| 
     941 000000a2     0a53  ||         MVK     .S2     0x48,B4
     942                    
     943                    $C$DW$157       .dwtag  DW_TAG_TI_branch
     944                            .dwattr $C$DW$157, DW_AT_low_pc(0x00)
     945                            .dwattr $C$DW$157, DW_AT_name("memalign")
     946                            .dwattr $C$DW$157, DW_AT_TI_call
     947                    
     948 000000a4 10000013!            CALLP   .S2     memalign,B3
     949 000000a8 06bf02f5  ||         STW     .D2T1   A13,*+SP(96)      ; |66| 
     950 000000ac     0e26  ||         MVK     .L1     0x8,A4            ; |67| 
     951                    
     952                            .dwpsn  file "./../packages/ti/vlib/src/VLIB_homographyDecomposition/VLIB_homographyDecomposit
     953                    ;----------------------------------------------------------------------
     954                    ;  67 | VLIB_D64   *pRot_cn  =  (VLIB_D64 *) memalign(8, 3 * 3 * sizeof(VLIB_D6
     955                    ;     | 4));                                                                   
     956                    ;----------------------------------------------------------------------
     957 000000ae           $C$RL6:    ; CALL OCCURS {memalign} {0}      ; |67| 
     958                    
     959 000000ae     c646             MV      .L1     A4,A14            ; |67| 
     960 000000b0     1a13  ||         MVK     .S2     0x18,B4           ; |68| 
     961                    
     962                    $C$DW$158       .dwtag  DW_TAG_TI_branch
     963                            .dwattr $C$DW$158, DW_AT_low_pc(0x00)
     964                            .dwattr $C$DW$158, DW_AT_name("memalign")
     965                            .dwattr $C$DW$158, DW_AT_TI_call
     966                    
     967 000000b8 10000012!            CALLP   .S2     memalign,B3
     968 000000b4 073ee2f5  ||         STW     .D2T1   A14,*+SP(92)      ; |67| 
     969 000000b2     0e26  ||         MVK     .L1     0x8,A4            ; |68| 
     970                    
     971                            .dwpsn  file "./../packages/ti/vlib/src/VLIB_homographyDecomposition/VLIB_homographyDecomposit
     972                    ;----------------------------------------------------------------------
     973                    ;  68 | VLIB_D64   *trans_cn =  (VLIB_D64 *) memalign(8, 3 * sizeof(VLIB_D64));
     974                    ;----------------------------------------------------------------------
     975 000000c0           $C$RL7:    ; CALL OCCURS {memalign} {0}      ; |68| 
     976                    
     977 000000c0     e646             MV      .L1     A4,A15            ; |68| 
     978 000000c2     1a13  ||         MVK     .S2     0x18,B4           ; |69| 
     979                    
     980                    $C$DW$159       .dwtag  DW_TAG_TI_branch
     981                            .dwattr $C$DW$159, DW_AT_low_pc(0x00)
     982                            .dwattr $C$DW$159, DW_AT_name("memalign")
     983                            .dwattr $C$DW$159, DW_AT_TI_call
     984                    
     985 000000c4 10000013!            CALLP   .S2     memalign,B3
     986 000000c8 07bec2f5  ||         STW     .D2T1   A15,*+SP(88)      ; |68| 
     987 000000cc     0e26  ||         MVK     .L1     0x8,A4            ; |69| 
     988                    
     989                            .dwpsn  file "./../packages/ti/vlib/src/VLIB_homographyDecomposition/VLIB_homographyDecomposit
     990                    ;----------------------------------------------------------------------
TMS320C6x Assembler PC v7.4.2 Thu Mar 19 12:41:55 2015

Tools Copyright (c) 1996-2012 Texas Instruments Incorporated
package/lib/Regression/regress_d_c/./../packages/ti/vlib/src/VLIB_homographyDecomposition/VLIB_homographyDecomposition_d.se66 PAGE   19

     991                    ;  69 | VLIB_D64   *proj_cn  =  (VLIB_D64 *) memalign(8, 3 * sizeof(VLIB_D64));
     992                    ;----------------------------------------------------------------------
     993 000000ce           $C$RL8:    ; CALL OCCURS {memalign} {0}      ; |69| 
     994 000000ce           $C$DW$L$VLIB_homographyDecomposition_d$6$E:
     995                    ;** --------------------------------------------------------------------------*
     996 000000ce           $C$DW$L$VLIB_homographyDecomposition_d$7$B:
     997                    ;          EXCLUSIVE CPU CYCLES: 16
     998                    
     999 000000ce     05a6             ZERO    .L1     A3                ; |72| 
    1000 000000d0     0292  ||         ZERO    .S1     A5                ; |72| 
    1001 000000d2     0516  ||         MV      .D1     A10,A0            ; |72| 
    1002 000000d4     1587  ||         MV      .L2X    A11,B0            ; |72| 
    1003 000000d6     0213  ||         ZERO    .S2     B4                ; |72| 
    1004 000000d8     1af7  ||         ZERO    .D2     B5                ; |72| 
    1005                    
    1006 000000da     2ae6     [ A0]   MVK     .L1     0x1,A5            ; |72| 
    1007 000000e0     a9ee  || [ B0]   MVK     .S1     0x1,A3            ; |72| 
    1008 000000e2     4616  ||         MV      .D1     A12,A2            ; |72| 
    1009 000000e4     aec5  ||         STW     .D2T1   A4,*+SP(84)       ; |69| 
    1010                    
    1011 000000ec 01946f79             AND     .L1     A3,A5,A3          ; |72| 
    1012 000000e8 a204a35b  || [ A2]   MVK     .L2     0x1,B4            ; |72| 
    1013 000000e6     268e  ||         MV      .S1     A13,A1            ; |72| 
    1014 000000f0     4716  ||         MV      .D1     A14,A2            ; |72| 
    1015                    
    1016 000000f4 8284a35b     [ A1]   MVK     .L2     0x1,B5            ; |72| 
    1017 000000f2     2786  ||         MV      .L1     A15,A1            ; |72| 
    1018 000000f8     0292  ||         ZERO    .S1     A5                ; |72| 
    1019                    
    1020 00000100 030c9f7b             AND     .L2X    B4,A3,B6          ; |72| 
    1021 000000fa     0213  ||         ZERO    .S2     B4                ; |72| 
    1022 00000104     05a6  ||         ZERO    .L1     A3                ; |72| 
    1023                    
    1024 0000010c 0298af7b             AND     .L2     B5,B6,B5          ; |72| 
    1025 00000108 a20000ab  || [ A2]   MVK     .S2     0x1,B4            ; |72| 
    1026 00000106     4246  ||         MV      .L1     A4,A2             ; |72| 
    1027 00000110 818000a8  || [ A1]   MVK     .S1     0x1,A3            ; |72| 
    1028                    
    1029                            .dwpsn  file "./../packages/ti/vlib/src/VLIB_homographyDecomposition/VLIB_homographyDecomposit
    1030                    ;----------------------------------------------------------------------
    1031                    ;  72 | if( pA && pRot && trans && proj && pRot_cn && trans_cn && proj_cn ) {  
    1032                    ;  74 |     int32_t    fail;                                                   
    1033                    ;  75 |     int32_t    n;                                                      
    1034                    ;  76 |     int32_t    err_cnt_c6x = 0;                                        
    1035                    ;  77 |     int32_t    err_cnt_cn  = 0;                                        
    1036                    ;  78 |     H3x3_t    *a = (H3x3_t *)pA;                                       
    1037                    ;  79 |     H3x3_t    *rot = (H3x3_t *)pRot;                                   
    1038                    ;  80 |     H3x3_t    *rot_cn = (H3x3_t *)pRot_cn;                             
    1039                    ;  82 |     #if defined (_TMS320C6600_CLK_MEASURE)                             
    1040                    ;  83 |     uint32_t    start_time, end_time;                                  
    1041                    ;  84 |     VLIB_D64    time_ave = 0.0;                                        
    1042                    ;  85 |     VLIB_D64    cycle_ave_c66 = 0.0;                                   
    1043                    ;  86 |     #endif                                                             
    1044                    ;  88 |     for( n=0; n < prm[tpi].testIterations; n++ ) {                     
    1045                    ;  90 |         int32_t    i, j;                                               
TMS320C6x Assembler PC v7.4.2 Thu Mar 19 12:41:55 2015

Tools Copyright (c) 1996-2012 Texas Instruments Incorporated
package/lib/Regression/regress_d_c/./../packages/ti/vlib/src/VLIB_homographyDecomposition/VLIB_homographyDecomposition_d.se66 PAGE   20

    1046                    ;  91 |         int32_t    err_flag = 0;                                       
    1047                    ;  94 |         if( prm[tpi].testPattern == STATIC ) {                         
    1048                    ;  95 |             a->H[0][0] = prm[tpi].staticInH[n * 9];                    
    1049                    ;  96 |             a->H[0][1] = prm[tpi].staticInH[n * 9 + 1];                
    1050                    ;  97 |             a->H[0][2] = prm[tpi].staticInH[n * 9 + 2];                
    1051                    ;  98 |             a->H[1][0] = prm[tpi].staticInH[n * 9 + 3];                
    1052                    ;  99 |             a->H[1][1] = prm[tpi].staticInH[n * 9 + 4];                
    1053                    ; 100 |             a->H[1][2] = prm[tpi].staticInH[n * 9 + 5];                
    1054                    ; 101 |             a->H[2][0] = prm[tpi].staticInH[n * 9 + 6];                
    1055                    ; 102 |             a->H[2][1] = prm[tpi].staticInH[n * 9 + 7];                
    1056                    ; 103 |             a->H[2][2] = prm[tpi].staticInH[n * 9 + 8];                
    1057                    ; 104 |             //printf_matrix(a, 3, 3);                                  
    1058                    ; 108 |         VLIB_fillBuffer(prm[tpi].testPattern, 0, NULL, NULL,           
    1059                    ; 109 |                         0, 0, 0, sizeof(uint8_t), testPatternString);  
    1060                    ; 112 |         VLIB_profile_start(vlib_KERNEL_OPT);                           
    1061                    ; 113 |         #if defined (_TMS320C6600_CLK_MEASURE)                         
    1062                    ; 114 |         TSCL = 0;                                                      
    1063                    ; 115 |         start_time = TSCL;                                             
    1064                    ; 116 |         #endif                                                         
    1065                    ; 117 |         VLIB_homographyDecomposition(a->H, rot->H, trans, proj);       
    1066                    ; 118 |         #if defined (_TMS320C6600_CLK_MEASURE)                         
    1067                    ; 119 |         end_time = TSCL;                                               
    1068                    ; 120 |         #endif                                                         
    1069                    ; 121 |         VLIB_profile_stop();                                           
    1070                    ; 123 |         #if defined (_TMS320C6600_CLK_MEASURE)                         
    1071                    ; 124 |         printf("[%d][Faugeras] Number of cycles : %d cycles\n", n, end_
    1072                    ;     | time - start_time);                                                    
    1073                    ; 125 |         printf("[%d][Faugeras] Time(ms) : %f ms\n", n, (VLIB_D64)(end_t
    1074                    ;     | ime - start_time) / (VLIB_D64)(700000));                               
    1075                    ; 126 |         time_ave += (VLIB_D64)(end_time - start_time) / (VLIB_D64)(7000
    1076                    ;     | 00);                                                                   
    1077                    ; 127 |         cycle_ave_c66 += end_time - start_time;                        
    1078                    ; 128 |         #endif                                                         
    1079                    ; 131 |         VLIB_profile_start(vlib_KERNEL_CN);                            
    1080                    ; 132 |         VLIB_homographyDecomposition_cn(a->H, rot_cn->H, trans_cn, proj
    1081                    ;     | _cn);                                                                  
    1082                    ; 133 |         VLIB_profile_stop();                                           
    1083                    ; 136 |         for( i=0; i < 3; i++ ) {                                       
    1084                    ; 137 |             for( j=0; j < 3; j++ ) {                                   
    1085                    ; 138 |                 if( fabs(rot->H[i][j] - rot_cn->H[i][j]) > prm[tpi].tes
    1086                    ;     | tErrorThreshold ) {                                                    
    1087                    ; 139 |                     printf("#######[C66-CN][%d]Rotation Matrix FAILED\n
    1088                    ;     | ", n);                                                                 
    1089                    ; 140 |                     printf("#######%.15g, %.15g\n", rot->H[i][j], rot_c
    1090                    ;     | n->H[i][j]);                                                           
    1091                    ; 141 |                     status_nat_vs_int = vlib_KERNEL_FAIL;              
    1092                    ; 142 |                     err_flag = 1;                                      
    1093                    ; 147 |         for( i=0; i < 3; i++ ) {                                       
    1094                    ; 148 |             if( fabs(trans[i] - trans_cn[i]) > prm[tpi].testErrorThresh
    1095                    ;     | old ) {                                                                
    1096                    ; 149 |                 printf("#######[C66-CN][%d]Translation Matrix FAILED\n"
    1097                    ;     | , n);                                                                  
    1098                    ; 150 |                 printf("#######%.15g, %.15g\n", trans[i], trans_cn[i]);
    1099                    ; 151 |                 status_nat_vs_int = vlib_KERNEL_FAIL;                  
    1100                    ; 152 |                 err_flag = 1;                                          
TMS320C6x Assembler PC v7.4.2 Thu Mar 19 12:41:55 2015

Tools Copyright (c) 1996-2012 Texas Instruments Incorporated
package/lib/Regression/regress_d_c/./../packages/ti/vlib/src/VLIB_homographyDecomposition/VLIB_homographyDecomposition_d.se66 PAGE   21

    1101                    ; 156 |         for( i=0; i < 3; i++ ) {                                       
    1102                    ; 157 |             if( fabs(proj[i] - proj_cn[i]) > prm[tpi].testErrorThreshol
    1103                    ;     | d ) {                                                                  
    1104                    ; 158 |                 printf("#######[C66-CN][%d]Projection Matrix FAILED\n",
    1105                    ;     |  n);                                                                   
    1106                    ; 159 |                 printf("#######%.15g, %.15g\n", proj[i], proj_cn[i]);  
    1107                    ; 160 |                 status_nat_vs_int = vlib_KERNEL_FAIL;                  
    1108                    ; 161 |                 err_flag = 1;                                          
    1109                    ; 165 |         if( status_nat_vs_int == vlib_KERNEL_PASS ) {                  
    1110                    ; 166 |             #ifdef DEBUG_SVD_MESSAGE                                   
    1111                    ; 167 |             printf("[C66-CN][%d]Faugeras Decomposition Passed\n", n);  
    1112                    ; 168 |             #endif                                                     
    1113                    ; 169 |         } else {                                                       
    1114                    ; 170 |             err_cnt_c6x++;                                             
    1115                    ; 171 |             printf("[C66-CN][%d]Faugeras Decomposition Failed : [err:%d
    1116                    ;     | ]\n", n, err_cnt_c6x);                                                 
    1117                    ; 175 |         if((prm[tpi].staticOutRot != NULL) && (prm[tpi].staticOutTr !=
    1118                    ;     | NULL) && (prm[tpi].staticOutPr != NULL)) {                             
    1119                    ; 177 |             int32_t    cnt = 0;                                        
    1120                    ; 179 |             err_flag = 0;                                              
    1121                    ; 181 |             for( i=0; i < 3; i++ ) {                                   
    1122                    ; 182 |                 for( j=0; j < 3; j++ ) {                               
    1123                    ; 183 |                     if( fabs(rot_cn->H[i][j] - prm[tpi].staticOutRot[n
    1124                    ;     | * 9 + cnt]) > prm[tpi].testErrorThreshold ) {                          
    1125                    ; 184 |                         printf("#######[CN-REF][%d]Rotation Matrix FAIL
    1126                    ;     | ED\n", n);                                                             
    1127                    ; 185 |                         printf("#######%.15g, %.15g\n", rot_cn->H[i][j]
    1128                    ;     | , prm[tpi].staticOutRot[n * 9 + cnt]);                                 
    1129                    ; 186 |                         status_nat_vs_ref = vlib_KERNEL_FAIL;          
    1130                    ; 187 |                         err_flag = 1;                                  
    1131                    ; 189 |                     cnt++;                                             
    1132                    ; 193 |             for( i=0; i < 3; i++ ) {                                   
    1133                    ; 194 |                 if( fabs(trans_cn[i] - prm[tpi].staticOutTr[n * 3 + i])
    1134                    ;     |  > prm[tpi].testErrorThreshold ) {                                     
    1135                    ; 195 |                     printf("#######[CN-REF][%d]Translation Matrix FAILE
    1136                    ;     | D\n", n);                                                              
    1137                    ; 196 |                     printf("#######%.15g, %.15g\n", trans_cn[i], prm[tp
    1138                    ;     | i].staticOutTr[n * 3 + i]);                                            
    1139                    ; 197 |                     status_nat_vs_ref = vlib_KERNEL_FAIL;              
    1140                    ; 198 |                     err_flag = 1;                                      
    1141                    ; 202 |             for( i=0; i < 3; i++ ) {                                   
    1142                    ; 203 |                 if( fabs(proj_cn[i] - prm[tpi].staticOutPr[n * 3 + i])
    1143                    ;     | > prm[tpi].testErrorThreshold ) {                                      
    1144                    ; 204 |                     printf("#######[CN-REF][%d]Projection Matrix FAILED
    1145                    ;     | \n", n);                                                               
    1146                    ; 205 |                     printf("#######%.15g, %.15g\n", proj_cn[i], prm[tpi
    1147                    ;     | ].staticOutPr[n * 3 + i]);                                             
    1148                    ; 206 |                     status_nat_vs_ref = vlib_KERNEL_FAIL;              
    1149                    ; 207 |                     err_flag = 1;                                      
    1150                    ; 211 |             if( err_flag == 0 ) {                                      
    1151                    ; 212 |                 #ifdef DEBUG_SVD_MESSAGE                               
    1152                    ; 213 |                 printf("[CN-REF][%d]Faugeras Decomposition Passed\n", n
    1153                    ;     | );                                                                     
    1154                    ; 214 |                 #endif                                                 
    1155                    ; 215 |             } else {                                                   
TMS320C6x Assembler PC v7.4.2 Thu Mar 19 12:41:55 2015

Tools Copyright (c) 1996-2012 Texas Instruments Incorporated
package/lib/Regression/regress_d_c/./../packages/ti/vlib/src/VLIB_homographyDecomposition/VLIB_homographyDecomposition_d.se66 PAGE   22

    1156                    ; 216 |                 err_cnt_cn++;                                          
    1157                    ; 217 |                 printf("[CN-REF][%d]Faugeras Decomposition Failed : [er
    1158                    ;     | r:%d]\n", n, err_cnt_cn);                                              
    1159                    ; 222 |     #if defined (_TMS320C6600_CLK_MEASURE)                             
    1160                    ; 223 |     printf("###########################\n");                           
    1161                    ; 224 |     printf("[Faugeras] Average Time(ms) : %f ms\n", time_ave / prm[tpi]
    1162                    ;     | .testIterations);                                                      
    1163                    ; 225 |     printf("[Faugeras] Average Cycles) : %f ms\n", cycle_ave_c66 / prm[
    1164                    ;     | tpi].testIterations);                                                  
    1165                    ; 226 |     printf("###########################\n");                           
    1166                    ; 227 |     #endif                                                             
    1167                    ; 228 |     if( LevelOfFeedback > 0 ) {                                        
    1168                    ; 229 |         printf("[Faugeras] [C66-CN] error # : %d\n", err_cnt_c6x);     
    1169                    ; 230 |         printf("[Faugeras] [CN-REF] error # : %d\n", err_cnt_cn);      
    1170                    ; 234 |     fail = ((status_nat_vs_int == vlib_KERNEL_FAIL) || (status_nat_vs_r
    1171                    ;     | ef == vlib_KERNEL_FAIL)) ? 1 : 0;                                      
    1172                    ; 236 |     est_test=1;                                                        
    1173                    ; 239 |     sprintf(desc, "%s generated input | Opt and NatC results compared t
    1174                    ;     | o ref | \"Num pt\" value is actually the number of times the \         
    1175                    ; 240 | test was called, so that the value shown is the average cycle count per
    1176                    ;     |  call", testPatternString);                                            
    1177                    ; 241 |     VLIB_formula_add_test(prm[tpi].testIterations, NULL, NULL, fail, de
    1178                    ;     | sc, NULL);                                                             
    1179                    ; 243 | } else {                                                               
    1180                    ;----------------------------------------------------------------------
    1181 00000114 02148f7a             AND     .L2     B4,B5,B4          ; |72| 
    1182 00000118 a284a358     [ A2]   MVK     .L1     0x1,A5            ; |72| 
    1183                    
    1184 00000120 01907f79             AND     .L1X    A3,B4,A3          ; |72| 
    1185 00000124     fccd  ||         LDW     .D2T2   *+SP(28),B4       ; |72| 
    1186                    
    1187 00000126     a588             AND     .L1     A5,A3,A0          ; |72| 
    1188                    
    1189 00000128 d4824121     [!A0]   BNOP    .S1     $C$L23,2          ; |72| 
    1190 0000012c d2bd02e6  || [!A0]   LDW     .D2T2   *+SP(32),B5
    1191                    
    1192 00000130 c2900fdb     [ A0]   MV      .L2     B4,B5
    1193 00000134 023fc2f6  ||         STW     .D2T2   B4,*+SP(120)      ; |72| 
    1194                    
    1195 00000138 c23d02e6     [ A0]   LDW     .D2T2   *+SP(32),B4
    1196                            .dwpsn  file "./../packages/ti/vlib/src/VLIB_homographyDecomposition/VLIB_homographyDecomposit
    1197                    ;----------------------------------------------------------------------
    1198                    ; 245 | sprintf(desc, "Test iterations= %d", prm[tpi].testIterations);         
    1199                    ; 246 | VLIB_skip_test(desc);                                                  
    1200                    ;----------------------------------------------------------------------
    1201 00000140 d214807a     [!A0]   ADD     .L2     B4,B5,B4          ; |245| 
    1202                            .dwpsn  file "./../packages/ti/vlib/src/VLIB_homographyDecomposition/VLIB_homographyDecomposit
    1203                               ; BRANCHCC OCCURS {$C$L23}        ; |72| 
    1204 00000144           $C$DW$L$VLIB_homographyDecomposition_d$7$E:
    1205                    ;** --------------------------------------------------------------------------*
    1206 00000144           $C$DW$L$VLIB_homographyDecomposition_d$8$B:
    1207                    ;          EXCLUSIVE CPU CYCLES: 15
    1208                    ;** 78  -----------------------    a = (struct $fake1 *)pA;
    1209                    ;** 79  -----------------------    rot = (struct $fake1 *)pRot;
    1210                    ;** 80  -----------------------    rot_cn = (struct $fake1 *)pRot_cn;
TMS320C6x Assembler PC v7.4.2 Thu Mar 19 12:41:55 2015

Tools Copyright (c) 1996-2012 Texas Instruments Incorporated
package/lib/Regression/regress_d_c/./../packages/ti/vlib/src/VLIB_homographyDecomposition/VLIB_homographyDecomposition_d.se66 PAGE   23

    1211                    ;** 88  -----------------------    U$51 = U$50+v$1;
    1212                    ;**     -----------------------    K$106 = &testPatternString[0];
    1213                    ;** 59  -----------------------    status_nat_vs_int = 1;
    1214                    ;** 60  -----------------------    status_nat_vs_ref = 1;
    1215                    ;** 76  -----------------------    err_cnt_c6x = 0;
    1216                    ;** 77  -----------------------    err_cnt_cn = 0;
    1217                    ;** 88  -----------------------    if ( !(*U$51).testIterations ) goto g42;
    1218                    
    1219 00000144     eecd             LDW     .D2T1   *+SP(92),A4       ; |59| 
    1220 00000146     0727  ||         ZERO    .L2     B6                ; |77| 
    1221 00000148 0fac0fd9  ||         MV      .L1     A11,A31           ; |80| 
    1222 0000014c 070000a9  ||         MVK     .S1     0x1,A14           ; |59| 
    1223 00000150 06a808f0  ||         MV      .D1     A10,A13           ; |79| 
    1224                    
    1225 00000158 033e62f6             STW     .D2T2   B6,*+SP(76)       ; |59| 
    1226 00000154 07b80fd9  ||         MV      .L1     A14,A15           ; |77| 
    1227                    
    1228                            .dwpsn  file "./../packages/ti/vlib/src/VLIB_homographyDecomposition/VLIB_homographyDecomposit
    1229 00000160 0fbe22f4             STW     .D2T1   A31,*+SP(68)      ; |79| 
    1230                            .dwpsn  file "./../packages/ti/vlib/src/VLIB_homographyDecomposition/VLIB_homographyDecomposit
    1231 00000164     a241             ADD     .L2     B5,B4,B4          ; |88| 
    1232 00000166     5a0d             LDHU    .D2T2   *+B4(20),B0       ; |88| 
    1233                            .dwpsn  file "./../packages/ti/vlib/src/VLIB_homographyDecomposition/VLIB_homographyDecomposit
    1234 00000168     8e45             STW     .D2T1   A4,*+SP(64)       ; |80| 
    1235                            .dwpsn  file "./../packages/ti/vlib/src/VLIB_homographyDecomposition/VLIB_homographyDecomposit
    1236 0000016a     fd45             STW     .D2T2   B4,*+SP(44)       ; |88| 
    1237                            .dwpsn  file "./../packages/ti/vlib/src/VLIB_homographyDecomposition/VLIB_homographyDecomposit
    1238 0000016c     ed4d             LDW     .D2T1   *+SP(44),A4       ; |88| 
    1239                            .dwpsn  file "./../packages/ti/vlib/src/VLIB_homographyDecomposition/VLIB_homographyDecomposit
    1240 0000016e     06a7             ZERO    .L2     B5                ; |77| 
    1241                    
    1242 00000170 33f62121     [!B0]   BNOP    .S1     $C$L21,1          ; |88| 
    1243 00000174 22180fda  || [ B0]   MV      .L2     B6,B4
    1244                    
    1245                            .dwpsn  file "./../packages/ti/vlib/src/VLIB_homographyDecomposition/VLIB_homographyDecomposit
    1246 00000178 223e82f6     [ B0]   STW     .D2T2   B4,*+SP(80)       ; |88| 
    1247 00000180 223d22f4     [ B0]   STW     .D2T1   A4,*+SP(36)
    1248 00000184     bd4d             LDW     .D2T2   *+SP(36),B4
    1249                            .dwpsn  file "./../packages/ti/vlib/src/VLIB_homographyDecomposition/VLIB_homographyDecomposit
    1250 00000186     de55             STW     .D2T2   B5,*+SP(72)       ; |59| 
    1251                            .dwpsn  file "./../packages/ti/vlib/src/VLIB_homographyDecomposition/VLIB_homographyDecomposit
    1252                               ; BRANCHCC OCCURS {$C$L21}        ; |88| 
    1253 00000188           $C$DW$L$VLIB_homographyDecomposition_d$8$E:
    1254                    ;** --------------------------------------------------------------------------*
    1255 00000188           $C$DW$L$VLIB_homographyDecomposition_d$9$B:
    1256                    ;          EXCLUSIVE CPU CYCLES: 5
    1257                    ;**     -----------------------    K$113 = &cycles[0];
    1258                    ;**     -----------------------    U$57 = U$51;
    1259                    ;** 88  -----------------------    n = 0;
    1260                    ;**     -----------------------    #pragma LOOP_FLAGS(5120u)
    1261 00000188     4c6e             NOP             3
    1262                            .dwpsn  file "./../packages/ti/vlib/src/VLIB_homographyDecomposition/VLIB_homographyDecomposit
    1263 0000018a     024d             LDBU    .D2T1   *B4,A4            ; |94| 
    1264 0000018c     e247             MV      .L2     B4,B7
    1265 0000018e           $C$DW$L$VLIB_homographyDecomposition_d$9$E:
TMS320C6x Assembler PC v7.4.2 Thu Mar 19 12:41:55 2015

Tools Copyright (c) 1996-2012 Texas Instruments Incorporated
package/lib/Regression/regress_d_c/./../packages/ti/vlib/src/VLIB_homographyDecomposition/VLIB_homographyDecomposition_d.se66 PAGE   24

    1266                    ;** --------------------------------------------------------------------------*
    1267                    ;**   BEGIN LOOP $C$L2
    1268                    ;** --------------------------------------------------------------------------*
    1269 0000018e           $C$L2:    
    1270                            .dwpsn  file "./../packages/ti/vlib/src/VLIB_homographyDecomposition/VLIB_homographyDecomposit
    1271 0000018e           $C$DW$L$VLIB_homographyDecomposition_d$10$B:
    1272                    ;          EXCLUSIVE CPU CYCLES: 10
    1273                    ;**     -----------------------g6:
    1274                    ;** 94  -----------------------    if ( (U$59 = (*U$57).testPattern) != 4 ) goto g8;
    1275 0000018e     4c6e             NOP             3
    1276                            .dwpsn  file "./../packages/ti/vlib/src/VLIB_homographyDecomposition/VLIB_homographyDecomposit
    1277 00000190 00108a58             CMPEQ   .L1     A4,4,A0           ; |94| 
    1278                    
    1279 00000194 c4100fdb     [ A0]   MV      .L2     B4,B8
    1280 00000198 c21c22e7  || [ A0]   LDW     .D2T2   *+B7(4),B4        ; |95| 
    1281 000001a0 d0001e93  || [!A0]   B       .S2     $C$L3             ; |94| 
    1282 000001a4 c2941fd9  || [ A0]   MV      .L1X    B5,A5             ; |95| 
    1283 000001a8 d6000028! || [!A0]   MVKL    .S1     testPatternString,A12
    1284                    
    1285 000001ac c2141fd9     [ A0]   MV      .L1X    B5,A4             ; |95| 
    1286 000001b0 cfa022e5  || [ A0]   LDW     .D2T1   *+B8(4),A31       ; |96| 
    1287 000001b4 cf940fda  || [ A0]   MV      .L2     B5,B31            ; |95| 
    1288                    
    1289                            .dwpsn  file "./../packages/ti/vlib/src/VLIB_homographyDecomposition/VLIB_homographyDecomposit
    1290                    $C$DW$160       .dwtag  DW_TAG_TI_branch
    1291                            .dwattr $C$DW$160, DW_AT_low_pc(0x00)
    1292                            .dwattr $C$DW$160, DW_AT_name("VLIB_fillBuffer")
    1293                            .dwattr $C$DW$160, DW_AT_TI_call
    1294 000001b8 d0000010!    [!A0]   CALL    .S1     VLIB_fillBuffer   ; |108| 
    1295                            .dwpsn  file "./../packages/ti/vlib/src/VLIB_homographyDecomposition/VLIB_homographyDecomposit
    1296 000001bc c194cca0     [ A0]   SHL     .S1     A5,6,A3           ; |95| 
    1297 000001c0 c18c9e40     [ A0]   ADDAD   .D1     A3,A4,A3          ; |95| 
    1298 000001c4 01907078             ADD     .L1X    B4,A3,A3          ; |95| 
    1299                            .dwpsn  file "./../packages/ti/vlib/src/VLIB_homographyDecomposition/VLIB_homographyDecomposit
    1300                               ; BRANCHCC OCCURS {$C$L3}         ; |94| 
    1301 000001c8           $C$DW$L$VLIB_homographyDecomposition_d$10$E:
    1302                    ;** --------------------------------------------------------------------------*
    1303 000001c8           $C$DW$L$VLIB_homographyDecomposition_d$11$B:
    1304                    ;          EXCLUSIVE CPU CYCLES: 66
    1305                    ;** 95  -----------------------    *(double *)a = *(n*72+(*U$57).staticInH);
    1306                    ;** 96  -----------------------    C$4 = n*72;
    1307                    ;** 96  -----------------------    *((double *)a+8) = *((*U$57).staticInH+C$4+8);
    1308                    ;** 97  -----------------------    *((double *)a+16) = *((*U$57).staticInH+C$4+16);
    1309                    ;** 98  -----------------------    *((double *)a+24) = *((*U$57).staticInH+C$4+24);
    1310                    ;** 99  -----------------------    *((double *)a+32) = *((*U$57).staticInH+C$4+32);
    1311                    ;** 100 -----------------------    *((double *)a+40) = *((*U$57).staticInH+C$4+40);
    1312                    ;** 101 -----------------------    *((double *)a+48) = *((*U$57).staticInH+C$4+48);
    1313                    ;** 102 -----------------------    *((double *)a+56) = *((*U$57).staticInH+C$4+56);
    1314                    ;** 103 -----------------------    *((double *)a+64) = *((*U$57).staticInH+C$4+64);
    1315                    ;**     -----------------------    U$50 = tpi<<5;
    1316                    ;**     -----------------------    U$59 = (*(U$50+v$1)).testPattern;
    1317                    ;** 95  -----------------------    K$11 = 72u;
    1318                    
    1319 000001c8 0f200fdb             MV      .L2     B8,B30
    1320 000001cc 020c0366  ||         LDDW    .D1T2   *A3,B5:B4         ; |95| 
TMS320C6x Assembler PC v7.4.2 Thu Mar 19 12:41:55 2015

Tools Copyright (c) 1996-2012 Texas Instruments Incorporated
package/lib/Regression/regress_d_c/./../packages/ti/vlib/src/VLIB_homographyDecomposition/VLIB_homographyDecomposition_d.se66 PAGE   25

    1321                    
    1322                            .dwpsn  file "./../packages/ti/vlib/src/VLIB_homographyDecomposition/VLIB_homographyDecomposit
    1323 000001d0 037ccca2             SHL     .S2     B31,6,B6          ; |96| 
    1324 000001d4 031bfe42             ADDAD   .D2     B6,B31,B6         ; |96| 
    1325                            .dwpsn  file "./../packages/ti/vlib/src/VLIB_homographyDecomposition/VLIB_homographyDecomposit
    1326 000001d8 037822e4             LDW     .D2T1   *+B30(4),A6       ; |97| 
    1327                            .dwpsn  file "./../packages/ti/vlib/src/VLIB_homographyDecomposition/VLIB_homographyDecomposit
    1328 000001dc 019bf078             ADD     .L1X    B6,A31,A3         ; |96| 
    1329                            .dwpsn  file "./../packages/ti/vlib/src/VLIB_homographyDecomposition/VLIB_homographyDecomposit
    1330 000001e0 02340346             STDW    .D1T2   B5:B4,*A13        ; |95| 
    1331                            .dwpsn  file "./../packages/ti/vlib/src/VLIB_homographyDecomposition/VLIB_homographyDecomposit
    1332 000001e4 020c2364             LDDW    .D1T1   *+A3(8),A5:A4     ; |96| 
    1333                            .dwpsn  file "./../packages/ti/vlib/src/VLIB_homographyDecomposition/VLIB_homographyDecomposit
    1334 000001e8 0f7822e4             LDW     .D2T1   *+B30(4),A30      ; |98| 
    1335                            .dwpsn  file "./../packages/ti/vlib/src/VLIB_homographyDecomposition/VLIB_homographyDecomposit
    1336 000001ec 0e98d078             ADD     .L1X    B6,A6,A29         ; |97| 
    1337 000001f0 0ebf82e6             LDW     .D2T2   *+SP(112),B29
    1338 000001f4 0e3fc2e6             LDW     .D2T2   *+SP(120),B28
    1339                            .dwpsn  file "./../packages/ti/vlib/src/VLIB_homographyDecomposition/VLIB_homographyDecomposit
    1340 000001f8 02342344             STDW    .D1T1   A5:A4,*+A13(8)    ; |96| 
    1341                            .dwpsn  file "./../packages/ti/vlib/src/VLIB_homographyDecomposition/VLIB_homographyDecomposit
    1342 000001fc 02744364             LDDW    .D1T1   *+A29(16),A5:A4   ; |97| 
    1343                            .dwpsn  file "./../packages/ti/vlib/src/VLIB_homographyDecomposition/VLIB_homographyDecomposit
    1344 00000200 019bd078             ADD     .L1X    B6,A30,A3         ; |98| 
    1345 00000204 06000028!            MVKL    .S1     testPatternString,A12
    1346 00000208 00002000             NOP             2
    1347                            .dwpsn  file "./../packages/ti/vlib/src/VLIB_homographyDecomposition/VLIB_homographyDecomposit
    1348 0000020c 02344344             STDW    .D1T1   A5:A4,*+A13(16)   ; |97| 
    1349                            .dwpsn  file "./../packages/ti/vlib/src/VLIB_homographyDecomposition/VLIB_homographyDecomposit
    1350 00000210 020c6364             LDDW    .D1T1   *+A3(24),A5:A4    ; |98| 
    1351 00000214 00006000             NOP             4
    1352 00000218 02346344             STDW    .D1T1   A5:A4,*+A13(24)   ; |98| 
    1353                            .dwpsn  file "./../packages/ti/vlib/src/VLIB_homographyDecomposition/VLIB_homographyDecomposit
    1354 0000021c 01f822e4             LDW     .D2T1   *+B30(4),A3       ; |99| 
    1355                            .dwpsn  file "./../packages/ti/vlib/src/VLIB_homographyDecomposition/VLIB_homographyDecomposit
    1356 00000220 037822e4             LDW     .D2T1   *+B30(4),A6       ; |100| 
    1357                            .dwpsn  file "./../packages/ti/vlib/src/VLIB_homographyDecomposition/VLIB_homographyDecomposit
    1358 00000224 0e7822e4             LDW     .D2T1   *+B30(4),A28      ; |101| 
    1359 00000228     2c6e             NOP             2
    1360                            .dwpsn  file "./../packages/ti/vlib/src/VLIB_homographyDecomposition/VLIB_homographyDecomposit
    1361 0000022a     7330             ADD     .L1X    B6,A3,A3          ; |99| 
    1362 0000022c 020c8364             LDDW    .D1T1   *+A3(32),A5:A4    ; |99| 
    1363                            .dwpsn  file "./../packages/ti/vlib/src/VLIB_homographyDecomposition/VLIB_homographyDecomposit
    1364 00000230 0d98d078             ADD     .L1X    B6,A6,A27         ; |100| 
    1365                            .dwpsn  file "./../packages/ti/vlib/src/VLIB_homographyDecomposition/VLIB_homographyDecomposit
    1366 00000234 019b9078             ADD     .L1X    B6,A28,A3         ; |101| 
    1367 00000238 00002000             NOP             2
    1368                            .dwpsn  file "./../packages/ti/vlib/src/VLIB_homographyDecomposition/VLIB_homographyDecomposit
    1369 00000240 02348344             STDW    .D1T1   A5:A4,*+A13(32)   ; |99| 
    1370                            .dwpsn  file "./../packages/ti/vlib/src/VLIB_homographyDecomposition/VLIB_homographyDecomposit
    1371 00000244 026ca364             LDDW    .D1T1   *+A27(40),A5:A4   ; |100| 
    1372 00000248 00006000             NOP             4
    1373 0000024c 0234a344             STDW    .D1T1   A5:A4,*+A13(40)   ; |100| 
    1374                            .dwpsn  file "./../packages/ti/vlib/src/VLIB_homographyDecomposition/VLIB_homographyDecomposit
    1375 00000250 020cc364             LDDW    .D1T1   *+A3(48),A5:A4    ; |101| 
TMS320C6x Assembler PC v7.4.2 Thu Mar 19 12:41:55 2015

Tools Copyright (c) 1996-2012 Texas Instruments Incorporated
package/lib/Regression/regress_d_c/./../packages/ti/vlib/src/VLIB_homographyDecomposition/VLIB_homographyDecomposition_d.se66 PAGE   26

    1376 00000254 00006000             NOP             4
    1377 00000258 0234c344             STDW    .D1T1   A5:A4,*+A13(48)   ; |101| 
    1378                            .dwpsn  file "./../packages/ti/vlib/src/VLIB_homographyDecomposition/VLIB_homographyDecomposit
    1379 0000025c 01f822e4             LDW     .D2T1   *+B30(4),A3       ; |102| 
    1380                            .dwpsn  file "./../packages/ti/vlib/src/VLIB_homographyDecomposition/VLIB_homographyDecomposit
    1381 00000260 027822e6             LDW     .D2T2   *+B30(4),B4       ; |103| 
    1382 00000264     4c6e             NOP             3
    1383                            .dwpsn  file "./../packages/ti/vlib/src/VLIB_homographyDecomposition/VLIB_homographyDecomposit
    1384 00000266     7330             ADD     .L1X    B6,A3,A3          ; |102| 
    1385 00000268 020ce364             LDDW    .D1T1   *+A3(56),A5:A4    ; |102| 
    1386                            .dwpsn  file "./../packages/ti/vlib/src/VLIB_homographyDecomposition/VLIB_homographyDecomposit
    1387 0000026c 0210c07a             ADD     .L2     B6,B4,B4          ; |103| 
    1388 00000270 0374aca2             SHL     .S2     B29,5,B6
    1389 00000274     9d65             STW     .D2T2   B6,*+SP(32)
    1390 00000276     0c6e             NOP             1
    1391                            .dwpsn  file "./../packages/ti/vlib/src/VLIB_homographyDecomposition/VLIB_homographyDecomposit
    1392 00000278 0234e344             STDW    .D1T1   A5:A4,*+A13(56)   ; |102| 
    1393                            .dwpsn  file "./../packages/ti/vlib/src/VLIB_homographyDecomposition/VLIB_homographyDecomposit
    1394 00000280 021103e6             LDDW    .D2T2   *+B4(64),B5:B4    ; |103| 
    1395 00000284 021b8a94             LDBU    .D2T1   *+B6[B28],A4
    1396                            .dwpsn  file "./../packages/ti/vlib/src/VLIB_homographyDecomposition/VLIB_homographyDecomposit
    1397                    $C$DW$161       .dwtag  DW_TAG_TI_branch
    1398                            .dwattr $C$DW$161, DW_AT_low_pc(0x00)
    1399                            .dwattr $C$DW$161, DW_AT_name("VLIB_fillBuffer")
    1400                            .dwattr $C$DW$161, DW_AT_TI_call
    1401 00000288 00000010!            CALL    .S1     VLIB_fillBuffer   ; |108| 
    1402 0000028c 00002000             NOP             2
    1403                            .dwpsn  file "./../packages/ti/vlib/src/VLIB_homographyDecomposition/VLIB_homographyDecomposit
    1404 00000290 02350346             STDW    .D1T2   B5:B4,*+A13(64)   ; |103| 
    1405 00000294           $C$DW$L$VLIB_homographyDecomposition_d$11$E:
    1406                    ;** --------------------------------------------------------------------------*
    1407 00000294           $C$L3:    
    1408                            .dwpsn  file "./../packages/ti/vlib/src/VLIB_homographyDecomposition/VLIB_homographyDecomposit
    1409 00000294           $C$DW$L$VLIB_homographyDecomposition_d$12$B:
    1410                    ;          EXCLUSIVE CPU CYCLES: 2
    1411                    ;**     -----------------------g8:
    1412                    ;** 108 -----------------------    VLIB_fillBuffer(U$59, 0u, NULL, NULL, 0u, 0u, 0u, 1u, K$106);
    1413                    ;** 137 -----------------------    act_kernel = 0;  // [15]
    1414                    ;** 140 -----------------------    VLIB_cache_inval();  // [15]
    1415                    ;** 143 -----------------------    initStack(getSP());  // [15]
    1416                    ;** 146 -----------------------    beg_count = _itoll(TSCH, TSCL);  // [15]
    1417                    ;** 117 -----------------------    VLIB_homographyDecomposition((double (*)[3])a, (double (*)[3])rot, 
    1418                    ;** 153 -----------------------    v$2 = _itoll(TSCH, TSCL);  // [16]
    1419                    ;** 153 -----------------------    end_count = v$2;  // [16]
    1420                    ;** 156 -----------------------    C$3 = act_kernel;  // [16]
    1421                    ;** 156 -----------------------    *((C$3<<3)+K$113) = *((C$3<<3)+K$113)+(v$2-(beg_count+overhead));  
    1422                    ;** 159 -----------------------    setStackDepth();  // [16]
    1423                    ;** 137 -----------------------    act_kernel = 1;  // [15]
    1424                    ;** 140 -----------------------    VLIB_cache_inval();  // [15]
    1425                    ;** 143 -----------------------    initStack(getSP());  // [15]
    1426                    ;** 146 -----------------------    beg_count = _itoll(TSCH, TSCL);  // [15]
    1427                    ;** 132 -----------------------    VLIB_homographyDecomposition_cn((double (*)[3])a, (double (*)[3])ro
    1428                    ;** 153 -----------------------    v$2 = _itoll(TSCH, TSCL);  // [16]
    1429                    ;** 153 -----------------------    end_count = v$2;  // [16]
    1430                    ;** 156 -----------------------    C$2 = act_kernel;  // [16]
TMS320C6x Assembler PC v7.4.2 Thu Mar 19 12:41:55 2015

Tools Copyright (c) 1996-2012 Texas Instruments Incorporated
package/lib/Regression/regress_d_c/./../packages/ti/vlib/src/VLIB_homographyDecomposition/VLIB_homographyDecomposition_d.se66 PAGE   27

    1431                    ;** 156 -----------------------    *((C$2<<3)+K$113) = *((C$2<<3)+K$113)+(v$2-(beg_count+overhead));  
    1432                    ;** 159 -----------------------    setStackDepth();  // [16]
    1433                    
    1434 00000294 0400a35b             ZERO    .L2     B8                ; |108| 
    1435 00000298 050000ab  ||         MVK     .S2     0x1,B10           ; |108| 
    1436 0000029c 0400a358  ||         ZERO    .L1     A8                ; |108| 
    1437                    
    1438 000002a0 01850163             ADDKPC  .S2     $C$RL9,B3,0       ; |108| 
    1439 000002a4     0627  ||         ZERO    .L2     B4                ; |108| 
    1440 000002a6     1b77  ||         ZERO    .D2     B6                ; |108| 
    1441 000002a8 06000069! ||         MVKH    .S1     testPatternString,A12
    1442 000002b0 0300a358  ||         ZERO    .L1     A6                ; |108| 
    1443 000002ac 05000041  ||         ZERO    .D1     A10               ; |108| 
    1444                    
    1445                            .dwpsn  file "./../packages/ti/vlib/src/VLIB_homographyDecomposition/VLIB_homographyDecomposit
    1446 000002b4           $C$RL9:    ; CALL OCCURS {VLIB_fillBuffer} {0}  ; |108| 
    1447 000002b4           $C$DW$L$VLIB_homographyDecomposition_d$12$E:
    1448                    ;** --------------------------------------------------------------------------*
    1449 000002b4           $C$DW$L$VLIB_homographyDecomposition_d$13$B:
    1450                    ;          EXCLUSIVE CPU CYCLES: 105
    1451 000002b4 05000028!            MVKL    .S1     act_kernel,A10
    1452                    
    1453 000002b8 05000069!            MVKH    .S1     act_kernel,A10
    1454 000002c0 0180a358  ||         ZERO    .L1     A3                ; |137| 
    1455                    
    1456                    $C$DW$162       .dwtag  DW_TAG_TI_branch
    1457                            .dwattr $C$DW$162, DW_AT_low_pc(0x00)
    1458                            .dwattr $C$DW$162, DW_AT_name("VLIB_cache_inval")
    1459                            .dwattr $C$DW$162, DW_AT_TI_call
    1460                    
    1461 000002c4 10000013!            CALLP   .S2     VLIB_cache_inval,B3
    1462 000002c8 01a80274  ||         STW     .D1T1   A3,*A10           ; |137| 
    1463                    
    1464                            .dwpsn  file ".\..\packages\ti\vlib\src\VLIB_homographyDecomposition\..\common\VLIB_profile.h"
    1465                    $C$RL10:   ; CALL OCCURS {VLIB_cache_inval} {0}  ; |140| 
    1466                    $C$DW$163       .dwtag  DW_TAG_TI_branch
    1467                            .dwattr $C$DW$163, DW_AT_low_pc(0x00)
    1468                            .dwattr $C$DW$163, DW_AT_name("getSP")
    1469                            .dwattr $C$DW$163, DW_AT_TI_call
    1470 000002cc 10000012!            CALLP   .S2     getSP,B3
    1471                            .dwpsn  file ".\..\packages\ti\vlib\src\VLIB_homographyDecomposition\..\common\VLIB_profile.h"
    1472                    $C$RL11:   ; CALL OCCURS {getSP} {0}         ; |143| 
    1473                    $C$DW$164       .dwtag  DW_TAG_TI_branch
    1474                            .dwattr $C$DW$164, DW_AT_low_pc(0x00)
    1475                            .dwattr $C$DW$164, DW_AT_name("initStack")
    1476                            .dwattr $C$DW$164, DW_AT_TI_call
    1477 000002d0 10000012!            CALLP   .S2     initStack,B3
    1478 000002d4           $C$RL12:   ; CALL OCCURS {initStack} {0}     ; |143| 
    1479                            .dwpsn  file ".\..\packages\ti\vlib\src\VLIB_homographyDecomposition\..\common\VLIB_profile.h"
    1480 000002d4 022803e2             MVC     .S2     TSCL,B4           ; |146| 
    1481 000002d8 02ac03e2             MVC     .S2     TSCH,B5           ; |146| 
    1482 000002dc 05800028!            MVKL    .S1     beg_count,A11
    1483                    
    1484 000002e0 05800069!            MVKH    .S1     beg_count,A11
    1485 000002e4     9f6d  ||         LDW     .D2T2   *+SP(96),B6       ; |117| 
TMS320C6x Assembler PC v7.4.2 Thu Mar 19 12:41:55 2015

Tools Copyright (c) 1996-2012 Texas Instruments Incorporated
package/lib/Regression/regress_d_c/./../packages/ti/vlib/src/VLIB_homographyDecomposition/VLIB_homographyDecomposition_d.se66 PAGE   28

    1486                    
    1487 000002e8 022c0346             STDW    .D1T2   B5:B4,*A11        ; |146| 
    1488 000002e6     af6d  ||         LDW     .D2T1   *+SP(100),A6      ; |117| 
    1489                    
    1490                    $C$DW$165       .dwtag  DW_TAG_TI_branch
    1491                            .dwattr $C$DW$165, DW_AT_low_pc(0x00)
    1492                            .dwattr $C$DW$165, DW_AT_name("VLIB_homographyDecomposition")
    1493                            .dwattr $C$DW$165, DW_AT_TI_call
    1494                    
    1495 000002ec 10000013!            CALLP   .S2     VLIB_homographyDecomposition,B3
    1496 000002f0     be4d  ||         LDW     .D2T2   *+SP(68),B4       ; |117| 
    1497 000002f2     8686  ||         MV      .L1     A13,A4            ; |117| 
    1498                    
    1499                            .dwpsn  file "./../packages/ti/vlib/src/VLIB_homographyDecomposition/VLIB_homographyDecomposit
    1500 000002f4           $C$RL13:   ; CALL OCCURS {VLIB_homographyDecomposition} {0}  ; |117| 
    1501                            .dwpsn  file ".\..\packages\ti\vlib\src\VLIB_homographyDecomposition\..\common\VLIB_profile.h"
    1502 000002f4 032803e2             MVC     .S2     TSCL,B6           ; |153| 
    1503 000002f8 03ac03e2             MVC     .S2     TSCH,B7           ; |153| 
    1504 00000300 0500002a!            MVKL    .S2     overhead,B10
    1505                    
    1506 00000304 0500006b!            MVKH    .S2     overhead,B10
    1507 00000308 01a80264  ||         LDW     .D1T1   *A10,A3           ; |156| 
    1508                    
    1509 0000030c 022803e7             LDDW    .D2T2   *B10,B5:B4        ; |156| 
    1510 00000310 032c0364  ||         LDDW    .D1T1   *A11,A7:A6        ; |156| 
    1511                    
    1512 00000314 02000028!            MVKL    .S1     cycles,A4
    1513 00000318 02000068!            MVKH    .S1     cycles,A4
    1514 0000031c 06000028!            MVKL    .S1     end_count,A12
    1515                            .dwpsn  file ".\..\packages\ti\vlib\src\VLIB_homographyDecomposition\..\common\VLIB_profile.h"
    1516 00000320 04106b64             LDDW    .D1T1   *+A4[A3],A9:A8    ; |156| 
    1517 00000324 0210d578             ADDU    .L1X    B4,A6,A5:A4       ; |156| 
    1518 00000328     b2d0             ADD     .L1X    A5,B5,A5          ; |156| 
    1519 0000032a     a3e0             ADD     .L1     A5,A7,A6          ; |156| 
    1520 0000032c 0210d7f8             SUBU    .L1X    B6,A4,A5:A4       ; |156| 
    1521 00000330 0218f0fa             SUB     .L2X    B7,A6,B4          ; |156| 
    1522                    
    1523 00000334 0f971849             EXT     .S1     A5,24,24,A31      ; |156| 
    1524 00000338 02110578  ||         ADDU    .L1     A8,A4,A5:A4       ; |156| 
    1525                    
    1526 00000340 0313f079             ADD     .L1X    B4,A31,A6         ; |156| 
    1527 00000344 02952841  ||         ADD     .D1     A5,A9,A5          ; |156| 
    1528 00000348 06000068! ||         MVKH    .S1     end_count,A12
    1529                    
    1530 0000034c 0298a079             ADD     .L1     A5,A6,A5          ; |156| 
    1531 00000350 03000028! ||         MVKL    .S1     cycles,A6
    1532                    
    1533 00000354 03000069!            MVKH    .S1     cycles,A6
    1534 00000358 03300346  ||         STDW    .D1T2   B7:B6,*A12        ; |153| 
    1535                    
    1536                    $C$DW$166       .dwtag  DW_TAG_TI_branch
    1537                            .dwattr $C$DW$166, DW_AT_low_pc(0x00)
    1538                            .dwattr $C$DW$166, DW_AT_name("setStackDepth")
    1539                            .dwattr $C$DW$166, DW_AT_TI_call
    1540                    
TMS320C6x Assembler PC v7.4.2 Thu Mar 19 12:41:55 2015

Tools Copyright (c) 1996-2012 Texas Instruments Incorporated
package/lib/Regression/regress_d_c/./../packages/ti/vlib/src/VLIB_homographyDecomposition/VLIB_homographyDecomposition_d.se66 PAGE   29

    1541 0000035c 10000013!            CALLP   .S2     setStackDepth,B3
    1542 00000360     6544  ||         STDW    .D1T1   A5:A4,*+A6[A3]    ; |156| 
    1543                    
    1544                            .dwpsn  file ".\..\packages\ti\vlib\src\VLIB_homographyDecomposition\..\common\VLIB_profile.h"
    1545 00000362           $C$RL14:   ; CALL OCCURS {setStackDepth} {0}  ; |159| 
    1546                            .dwpsn  file ".\..\packages\ti\vlib\src\VLIB_homographyDecomposition\..\common\VLIB_profile.h"
    1547 00000362     25a6             MVK     .L1     1,A3              ; |137| 
    1548                    $C$DW$167       .dwtag  DW_TAG_TI_branch
    1549                            .dwattr $C$DW$167, DW_AT_low_pc(0x00)
    1550                            .dwattr $C$DW$167, DW_AT_name("VLIB_cache_inval")
    1551                            .dwattr $C$DW$167, DW_AT_TI_call
    1552                    
    1553 00000364 10000013!            CALLP   .S2     VLIB_cache_inval,B3
    1554 00000368 01a80274  ||         STW     .D1T1   A3,*A10           ; |137| 
    1555                    
    1556                            .dwpsn  file ".\..\packages\ti\vlib\src\VLIB_homographyDecomposition\..\common\VLIB_profile.h"
    1557                    $C$RL15:   ; CALL OCCURS {VLIB_cache_inval} {0}  ; |140| 
    1558                    $C$DW$168       .dwtag  DW_TAG_TI_branch
    1559                            .dwattr $C$DW$168, DW_AT_low_pc(0x00)
    1560                            .dwattr $C$DW$168, DW_AT_name("getSP")
    1561                            .dwattr $C$DW$168, DW_AT_TI_call
    1562 0000036c 10000012!            CALLP   .S2     getSP,B3
    1563                            .dwpsn  file ".\..\packages\ti\vlib\src\VLIB_homographyDecomposition\..\common\VLIB_profile.h"
    1564                    $C$RL16:   ; CALL OCCURS {getSP} {0}         ; |143| 
    1565                    $C$DW$169       .dwtag  DW_TAG_TI_branch
    1566                            .dwattr $C$DW$169, DW_AT_low_pc(0x00)
    1567                            .dwattr $C$DW$169, DW_AT_name("initStack")
    1568                            .dwattr $C$DW$169, DW_AT_TI_call
    1569 00000370 10000012!            CALLP   .S2     initStack,B3
    1570 00000374           $C$RL17:   ; CALL OCCURS {initStack} {0}     ; |143| 
    1571                            .dwpsn  file ".\..\packages\ti\vlib\src\VLIB_homographyDecomposition\..\common\VLIB_profile.h"
    1572 00000374 022803e2             MVC     .S2     TSCL,B4           ; |146| 
    1573 00000378 02ac03e2             MVC     .S2     TSCH,B5           ; |146| 
    1574                    
    1575 00000380 022c0347             STDW    .D1T2   B5:B4,*A11        ; |146| 
    1576 00000384     ceed  ||         LDW     .D2T1   *+SP(88),A6       ; |132| 
    1577                    
    1578                            .dwpsn  file "./../packages/ti/vlib/src/VLIB_homographyDecomposition/VLIB_homographyDecomposit
    1579 00000386     beed             LDW     .D2T2   *+SP(84),B6       ; |132| 
    1580                    $C$DW$170       .dwtag  DW_TAG_TI_branch
    1581                            .dwattr $C$DW$170, DW_AT_low_pc(0x00)
    1582                            .dwattr $C$DW$170, DW_AT_name("VLIB_homographyDecomposition_cn")
    1583                            .dwattr $C$DW$170, DW_AT_TI_call
    1584                    
    1585 00000388 10000013!            CALLP   .S2     VLIB_homographyDecomposition_cn,B3
    1586 0000038c     9e4d  ||         LDW     .D2T2   *+SP(64),B4       ; |132| 
    1587 0000038e     8686  ||         MV      .L1     A13,A4            ; |132| 
    1588                    
    1589 00000390           $C$RL18:   ; CALL OCCURS {VLIB_homographyDecomposition_cn} {0}  ; |132| 
    1590                            .dwpsn  file ".\..\packages\ti\vlib\src\VLIB_homographyDecomposition\..\common\VLIB_profile.h"
    1591 00000390 032803e2             MVC     .S2     TSCL,B6           ; |153| 
    1592 00000394 03ac03e2             MVC     .S2     TSCH,B7           ; |153| 
    1593                            .dwpsn  file ".\..\packages\ti\vlib\src\VLIB_homographyDecomposition\..\common\VLIB_profile.h"
    1594 00000398 01a80264             LDW     .D1T1   *A10,A3           ; |156| 
    1595 000003a0 042803e6             LDDW    .D2T2   *B10,B9:B8        ; |156| 
TMS320C6x Assembler PC v7.4.2 Thu Mar 19 12:41:55 2015

Tools Copyright (c) 1996-2012 Texas Instruments Incorporated
package/lib/Regression/regress_d_c/./../packages/ti/vlib/src/VLIB_homographyDecomposition/VLIB_homographyDecomposition_d.se66 PAGE   30

    1596 000003a4 022c0364             LDDW    .D1T1   *A11,A5:A4        ; |156| 
    1597 000003a8 03000028!            MVKL    .S1     cycles,A6
    1598 000003ac 03000068!            MVKH    .S1     cycles,A6
    1599 000003b0 03186b64             LDDW    .D1T1   *+A6[A3],A7:A6    ; |156| 
    1600 000003b4 08301fda             MV      .L2X    A12,B16
    1601 000003b8 0211157a             ADDU    .L2X    B8,A4,B5:B4       ; |156| 
    1602 000003bc 0424a07a             ADD     .L2     B5,B9,B8          ; |156| 
    1603                    
    1604 000003c0 041511e3             ADD     .S2X    B8,A5,B8          ; |156| 
    1605 000003c4 0210c5fa  ||         SUBU    .L2     B6,B4,B5:B4       ; |156| 
    1606                    
    1607 000003c8 0497184b             EXT     .S2     B5,24,24,B9       ; |156| 
    1608 000003cc 0218957b  ||         ADDU    .L2X    A6,B4,B5:B4       ; |156| 
    1609 000003d0 041d08c2  ||         SUB     .D2     B7,B8,B8          ; |156| 
    1610                    
    1611 000003d4 029cb07b             ADD     .L2X    B5,A7,B5          ; |156| 
    1612 000003d8 042501e3  ||         ADD     .S2     B8,B9,B8          ; |156| 
    1613 000003dc 02000028! ||         MVKL    .S1     cycles,A4
    1614                    
    1615 000003e0 02a0a07b             ADD     .L2     B5,B8,B5          ; |156| 
    1616 000003e4 02000069! ||         MVKH    .S1     cycles,A4
    1617 000003e8 034003c6  ||         STDW    .D2T2   B7:B6,*B16        ; |153| 
    1618                    
    1619                    $C$DW$171       .dwtag  DW_TAG_TI_branch
    1620                            .dwattr $C$DW$171, DW_AT_low_pc(0x00)
    1621                            .dwattr $C$DW$171, DW_AT_name("setStackDepth")
    1622                            .dwattr $C$DW$171, DW_AT_TI_call
    1623                    
    1624 000003ec 10000013!            CALLP   .S2     setStackDepth,B3
    1625 000003f0     7444  ||         STDW    .D1T2   B5:B4,*+A4[A3]    ; |156| 
    1626                    
    1627                            .dwpsn  file ".\..\packages\ti\vlib\src\VLIB_homographyDecomposition\..\common\VLIB_profile.h"
    1628 000003f2           $C$RL19:   ; CALL OCCURS {setStackDepth} {0}  ; |159| 
    1629 000003f2           $C$DW$L$VLIB_homographyDecomposition_d$13$E:
    1630                    ;** --------------------------------------------------------------------------*
    1631 000003f2           $C$DW$L$VLIB_homographyDecomposition_d$14$B:
    1632                    ;          EXCLUSIVE CPU CYCLES: 14
    1633                    ;** 136 -----------------------    v$1 = prm;
    1634                    ;**     -----------------------    U$57 = U$50+v$1;
    1635                    ;**     -----------------------    U$50 = tpi<<5;
    1636                    ;**     -----------------------    U$131 = (*(U$50+v$1)).testErrorThreshold;
    1637                    ;** 136 -----------------------    L$1 = 3;
    1638                    ;**     -----------------------    U$122 = 0;
    1639                    ;**     -----------------------    #pragma MUST_ITERATE(3, 3, 3)
    1640                    ;**     -----------------------    #pragma LOOP_FLAGS(5120u)
    1641                            .dwpsn  file "./../packages/ti/vlib/src/VLIB_homographyDecomposition/VLIB_homographyDecomposit
    1642 000003f2     fccd             LDW     .D2T2   *+SP(28),B4       ; |136| 
    1643 000003f4     9fed             LDW     .D2T2   *+SP(112),B6
    1644 000003f6     9d5d             LDW     .D2T2   *+SP(32),B5
    1645 000003f8 0f8ca35a             MVK     .L2     0x3,B31           ; |136| 
    1646 00000400 0fbd82f6             STW     .D2T2   B31,*+SP(48)
    1647 00000404     8e3d             LDW     .D2T1   *+SP(64),A3
    1648 00000406     dfc5             STW     .D2T2   B4,*+SP(120)      ; |136| 
    1649                    
    1650 00000408     a75b             SHL     .S2     B6,5,B5
TMS320C6x Assembler PC v7.4.2 Thu Mar 19 12:41:55 2015

Tools Copyright (c) 1996-2012 Texas Instruments Incorporated
package/lib/Regression/regress_d_c/./../packages/ti/vlib/src/VLIB_homographyDecomposition/VLIB_homographyDecomposition_d.se66 PAGE   31

    1651 0000040a     82e1  ||         ADD     .L2     B4,B5,B6
    1652                    
    1653 0000040c     9d55             STW     .D2T2   B5,*+SP(32)
    1654                    
    1655 0000040e     82c1             ADD     .L2     B4,B5,B4
    1656 00000414 02be22e6  ||         LDW     .D2T2   *+SP(68),B5
    1657 00000410 0f8001ab  ||         MVK     .S2     0x3,B31           ; |137| 
    1658                    
    1659 00000418 0fbda2f6             STW     .D2T2   B31,*+SP(52)
    1660                    
    1661 00000420 051063e7             LDDW    .D2T2   *+B4(24),B11:B10
    1662 00000424     0627  ||         ZERO    .L2     B4
    1663                    
    1664 00000426     bd65             STW     .D2T2   B6,*+SP(36)
    1665                    
    1666 00000428 06107079             ADD     .L1X    B4,A3,A12
    1667 0000042c 023dc2f6  ||         STW     .D2T2   B4,*+SP(56)
    1668                    
    1669 00000430           $C$DW$L$VLIB_homographyDecomposition_d$14$E:
    1670                    ;** --------------------------------------------------------------------------*
    1671                    ;**   BEGIN LOOP $C$L4
    1672                    ;** --------------------------------------------------------------------------*
    1673 00000430           $C$L4:    
    1674 00000430           $C$DW$L$VLIB_homographyDecomposition_d$15$B:
    1675                    ;          EXCLUSIVE CPU CYCLES: 6
    1676                    ;**     -----------------------g9:
    1677                    ;**     -----------------------    U$125 = (double *)rot+U$122;
    1678                    ;**     -----------------------    U$127 = (double *)rot_cn+U$122;
    1679                    ;** 137 -----------------------    L$2 = 3;
    1680                    ;**     -----------------------    #pragma MUST_ITERATE(3, 3, 3)
    1681                    ;**     -----------------------    #pragma LOOP_FLAGS(5120u)
    1682 00000430     82c1             ADD     .L2     B4,B5,B4
    1683 00000432     dd45             STW     .D2T2   B4,*+SP(40)
    1684 00000434 023d42e6             LDW     .D2T2   *+SP(40),B4
    1685                            .dwpsn  file "./../packages/ti/vlib/src/VLIB_homographyDecomposition/VLIB_homographyDecomposit
    1686 00000438 05303764             LDDW    .D1T1   *A12++,A11:A10    ; |138| 
    1687 00000440 00002000             NOP             2
    1688 00000444           $C$DW$L$VLIB_homographyDecomposition_d$15$E:
    1689                    ;*----------------------------------------------------------------------------*
    1690                    ;*   SOFTWARE PIPELINE INFORMATION
    1691                    ;*      Disqualified loop: Loop contains control code
    1692                    ;*----------------------------------------------------------------------------*
    1693 00000444           $C$L5:    
    1694                            .dwpsn  file "./../packages/ti/vlib/src/VLIB_homographyDecomposition/VLIB_homographyDecomposit
    1695 00000444           $C$DW$L$VLIB_homographyDecomposition_d$16$B:
    1696                    ;          EXCLUSIVE CPU CYCLES: 19
    1697                    ;**     -----------------------g10:
    1698                    ;** 138 -----------------------    U$128 = *U$127++;
    1699                    ;** 138 -----------------------    U$126 = *U$125++;
    1700                    ;** 138 -----------------------    if ( ABS(U$126-U$128) <= U$131 ) goto g12;
    1701 00000444 00000000             NOP             1
    1702                            .dwpsn  file "./../packages/ti/vlib/src/VLIB_homographyDecomposition/VLIB_homographyDecomposit
    1703 00000448 061037e6             LDDW    .D2T2   *B4++,B13:B12     ; |138| 
    1704 0000044c     dd45             STW     .D2T2   B4,*+SP(40)       ; |138| 
    1705 0000044e     4c6e             NOP             3
TMS320C6x Assembler PC v7.4.2 Thu Mar 19 12:41:55 2015

Tools Copyright (c) 1996-2012 Texas Instruments Incorporated
package/lib/Regression/regress_d_c/./../packages/ti/vlib/src/VLIB_homographyDecomposition/VLIB_homographyDecomposition_d.se66 PAGE   32

    1706 00000450 02299b3a             FSUBDP  .L2X    B13:B12,A11:A10,B5:B4 ; |138| 
    1707 00000454 00002000             NOP             2
    1708 00000458 02148b22             ABSDP   .S2     B5:B4,B5:B4       ; |138| 
    1709 00000460 00000000             NOP             1
    1710 00000464 00288a62             CMPGTDP .S2     B5:B4,B11:B10,B0  ; |138| 
    1711                            .dwpsn  file "./../packages/ti/vlib/src/VLIB_homographyDecomposition/VLIB_homographyDecomposit
    1712 00000468 023e82e6             LDW     .D2T2   *+SP(80),B4       ; |139| 
    1713                    
    1714 0000046c 30142121     [!B0]   BNOP    .S1     $C$L6,1           ; |138| 
    1715 00000470 323da2e6  || [!B0]   LDW     .D2T2   *+SP(52),B4
    1716                    
    1717                    $C$DW$172       .dwtag  DW_TAG_TI_branch
    1718                            .dwattr $C$DW$172, DW_AT_low_pc(0x00)
    1719                            .dwattr $C$DW$172, DW_AT_name("printf")
    1720                            .dwattr $C$DW$172, DW_AT_TI_call
    1721 00000474 20000010!    [ B0]   CALL    .S1     printf            ; |139| 
    1722 00000478 21800028!    [ B0]   MVKL    .S1     $C$SL2+0,A3
    1723 0000047c 21800068!    [ B0]   MVKH    .S1     $C$SL2+0,A3
    1724                            .dwpsn  file "./../packages/ti/vlib/src/VLIB_homographyDecomposition/VLIB_homographyDecomposit
    1725 00000480 3013f058     [!B0]   SUB     .L1X    B4,1,A0           ; |137| 
    1726                            .dwpsn  file "./../packages/ti/vlib/src/VLIB_homographyDecomposition/VLIB_homographyDecomposit
    1727                               ; BRANCHCC OCCURS {$C$L6}         ; |138| 
    1728 00000484           $C$DW$L$VLIB_homographyDecomposition_d$16$E:
    1729                    ;** --------------------------------------------------------------------------*
    1730 00000484           $C$DW$L$VLIB_homographyDecomposition_d$17$B:
    1731                    ;          EXCLUSIVE CPU CYCLES: 2
    1732                    ;** 139 -----------------------    printf((const char *)"#######[C66-CN][%d]Rotation Matrix FAILED\n",
    1733                    ;** 140 -----------------------    printf((const char *)"#######%.15g, %.15g\n", U$126, U$128);
    1734                    ;** 141 -----------------------    status_nat_vs_int = 0;
    1735                            .dwpsn  file "./../packages/ti/vlib/src/VLIB_homographyDecomposition/VLIB_homographyDecomposit
    1736 00000484     dc45             STW     .D2T2   B4,*+SP(8)        ; |139| 
    1737                    
    1738 00000486     ac35             STW     .D2T1   A3,*+SP(4)        ; |139| 
    1739 00000488 01830162  ||         ADDKPC  .S2     $C$RL20,B3,0      ; |139| 
    1740                    
    1741 0000048c           $C$RL20:   ; CALL OCCURS {printf} {0}        ; |139| 
    1742 0000048c           $C$DW$L$VLIB_homographyDecomposition_d$17$E:
    1743                    ;** --------------------------------------------------------------------------*
    1744 0000048c           $C$DW$L$VLIB_homographyDecomposition_d$18$B:
    1745                    ;          EXCLUSIVE CPU CYCLES: 8
    1746                    
    1747 0000048c 0200002b!            MVKL    .S2     $C$SL3+0,B4
    1748 00000490 063c23c6  ||         STDW    .D2T2   B13:B12,*+SP(8)   ; |140| 
    1749                    
    1750 00000494 0200006b!            MVKH    .S2     $C$SL3+0,B4
    1751 00000498 053c43c4  ||         STDW    .D2T1   A11:A10,*+SP(16)  ; |140| 
    1752                    
    1753                    $C$DW$173       .dwtag  DW_TAG_TI_branch
    1754                            .dwattr $C$DW$173, DW_AT_low_pc(0x00)
    1755                            .dwattr $C$DW$173, DW_AT_name("printf")
    1756                            .dwattr $C$DW$173, DW_AT_TI_call
    1757                    
    1758 000004a0 10000013!            CALLP   .S2     printf,B3
    1759 000004a4     bc45  ||         STW     .D2T2   B4,*+SP(4)        ; |140| 
    1760                    
TMS320C6x Assembler PC v7.4.2 Thu Mar 19 12:41:55 2015

Tools Copyright (c) 1996-2012 Texas Instruments Incorporated
package/lib/Regression/regress_d_c/./../packages/ti/vlib/src/VLIB_homographyDecomposition/VLIB_homographyDecomposition_d.se66 PAGE   33

    1761                            .dwpsn  file "./../packages/ti/vlib/src/VLIB_homographyDecomposition/VLIB_homographyDecomposit
    1762 000004a6           $C$RL21:   ; CALL OCCURS {printf} {0}        ; |140| 
    1763 000004a6           $C$DW$L$VLIB_homographyDecomposition_d$18$E:
    1764                    ;** --------------------------------------------------------------------------*
    1765 000004a6           $C$DW$L$VLIB_homographyDecomposition_d$19$B:
    1766                    ;          EXCLUSIVE CPU CYCLES: 6
    1767 000004a6     bdcd             LDW     .D2T2   *+SP(52),B4
    1768                            .dwpsn  file "./../packages/ti/vlib/src/VLIB_homographyDecomposition/VLIB_homographyDecomposit
    1769 000004a8 0700a358             ZERO    .L1     A14               ; |141| 
    1770 000004ac     4c6e             NOP             3
    1771                            .dwpsn  file "./../packages/ti/vlib/src/VLIB_homographyDecomposition/VLIB_homographyDecomposit
    1772 000004ae     fe00             SUB     .L1X    B4,1,A0           ; |137| 
    1773 000004b0           $C$DW$L$VLIB_homographyDecomposition_d$19$E:
    1774                    ;** --------------------------------------------------------------------------*
    1775 000004b0           $C$L6:    
    1776                            .dwpsn  file "./../packages/ti/vlib/src/VLIB_homographyDecomposition/VLIB_homographyDecomposit
    1777 000004b0           $C$DW$L$VLIB_homographyDecomposition_d$20$B:
    1778                    ;          EXCLUSIVE CPU CYCLES: 6
    1779                    ;**     -----------------------g12:
    1780                    ;** 137 -----------------------    if ( L$2 = L$2-1 ) goto g10;
    1781                    
    1782 000004b0 cffff491     [ A0]   B       .S1     $C$L5             ; |137| 
    1783 000004b4     ee41  ||         SUB     .L2     B4,1,B4           ; |137| 
    1784                    
    1785                            .dwpsn  file "./../packages/ti/vlib/src/VLIB_homographyDecomposition/VLIB_homographyDecomposit
    1786 000004b6     bdc5             STW     .D2T2   B4,*+SP(52)       ; |137| 
    1787 000004b8 c23d42e6     [ A0]   LDW     .D2T2   *+SP(40),B4
    1788                            .dwpsn  file "./../packages/ti/vlib/src/VLIB_homographyDecomposition/VLIB_homographyDecomposit
    1789 000004c0 c5303764     [ A0]   LDDW    .D1T1   *A12++,A11:A10    ; |138| 
    1790 000004c4     2c6e             NOP             2
    1791                            .dwpsn  file "./../packages/ti/vlib/src/VLIB_homographyDecomposition/VLIB_homographyDecomposit
    1792                               ; BRANCHCC OCCURS {$C$L5}         ; |137| 
    1793 000004c6           $C$DW$L$VLIB_homographyDecomposition_d$20$E:
    1794                    ;** --------------------------------------------------------------------------*
    1795 000004c6           $C$DW$L$VLIB_homographyDecomposition_d$21$B:
    1796                    ;** 136 -----------------------    U$122 += 24;
    1797 000004c6           $C$DW$L$VLIB_homographyDecomposition_d$21$E:
    1798                    ;** --------------------------------------------------------------------------*
    1799                            .dwpsn  file "./../packages/ti/vlib/src/VLIB_homographyDecomposition/VLIB_homographyDecomposit
    1800 000004c6           $C$DW$L$VLIB_homographyDecomposition_d$22$B:
    1801                    ;          EXCLUSIVE CPU CYCLES: 12
    1802                    ;** 136 -----------------------    if ( L$1 = L$1-1 ) goto g9;
    1803 000004c6     9ddd             LDW     .D2T2   *+SP(48),B5
    1804 000004c8     ddcd             LDW     .D2T2   *+SP(56),B4
    1805 000004ca     8e3d             LDW     .D2T1   *+SP(64),A3
    1806 000004cc     2c6e             NOP             2
    1807                    
    1808 000004ce     fe80             SUB     .L1X    B5,1,A0           ; |136| 
    1809 000004d0     eed1  ||         SUB     .L2     B5,1,B5           ; |136| 
    1810                    
    1811 000004d8 cf8ca35a     [ A0]   MVK     .L2     0x3,B31           ; |137| 
    1812 000004d4 cfffee11  || [ A0]   B       .S1     $C$L4             ; |136| 
    1813 000004d2     9dd5  ||         STW     .D2T2   B5,*+SP(48)       ; |136| 
    1814                    
    1815 000004e0     be5d             LDW     .D2T2   *+SP(68),B5
TMS320C6x Assembler PC v7.4.2 Thu Mar 19 12:41:55 2015

Tools Copyright (c) 1996-2012 Texas Instruments Incorporated
package/lib/Regression/regress_d_c/./../packages/ti/vlib/src/VLIB_homographyDecomposition/VLIB_homographyDecomposition_d.se66 PAGE   34

    1816 000004e2     1e2f             ADDK    .S2     24,B4             ; |136| 
    1817 000004e4 023dc2f6             STW     .D2T2   B4,*+SP(56)       ; |136| 
    1818 000004e8 06107078             ADD     .L1X    B4,A3,A12
    1819 000004ec cfbda2f6     [ A0]   STW     .D2T2   B31,*+SP(52)
    1820                               ; BRANCHCC OCCURS {$C$L4}         ; |136| 
    1821 000004f0           $C$DW$L$VLIB_homographyDecomposition_d$22$E:
    1822                    ;** --------------------------------------------------------------------------*
    1823 000004f0           $C$DW$L$VLIB_homographyDecomposition_d$23$B:
    1824                    ;**     -----------------------    U$146 = trans;
    1825 000004f0           $C$DW$L$VLIB_homographyDecomposition_d$23$E:
    1826                    ;** --------------------------------------------------------------------------*
    1827 000004f0           $C$DW$L$VLIB_homographyDecomposition_d$24$B:
    1828                    ;          EXCLUSIVE CPU CYCLES: 10
    1829                    ;**     -----------------------    U$148 = trans_cn;
    1830                    ;** 147 -----------------------    L$3 = 3;
    1831                    ;**     -----------------------    #pragma MUST_ITERATE(3, 3, 3)
    1832                    ;**     -----------------------    #pragma LOOP_FLAGS(5120u)
    1833 000004f0     af3d             LDW     .D2T1   *+SP(100),A3
    1834                            .dwpsn  file "./../packages/ti/vlib/src/VLIB_homographyDecomposition/VLIB_homographyDecomposit
    1835 000004f2     6627             MVK     .L2     0x3,B4            ; |147| 
    1836 000004f4 023d82f6             STW     .D2T2   B4,*+SP(48)       ; |147| 
    1837 000004f8 063ec2e4             LDW     .D2T1   *+SP(88),A12      ; |147| 
    1838 00000500     0c6e             NOP             1
    1839 00000502     cd35             STW     .D2T1   A3,*+SP(40)
    1840 00000504     dd4d             LDW     .D2T2   *+SP(40),B4
    1841 00000506     2c6e             NOP             2
    1842                            .dwpsn  file "./../packages/ti/vlib/src/VLIB_homographyDecomposition/VLIB_homographyDecomposit
    1843 00000508 05303764             LDDW    .D1T1   *A12++,A11:A10    ; |148| 
    1844 0000050c           $C$DW$L$VLIB_homographyDecomposition_d$24$E:
    1845                    ;*----------------------------------------------------------------------------*
    1846                    ;*   SOFTWARE PIPELINE INFORMATION
    1847                    ;*      Disqualified loop: Loop contains control code
    1848                    ;*----------------------------------------------------------------------------*
    1849 0000050c           $C$L7:    
    1850                            .dwpsn  file "./../packages/ti/vlib/src/VLIB_homographyDecomposition/VLIB_homographyDecomposit
    1851 0000050c           $C$DW$L$VLIB_homographyDecomposition_d$25$B:
    1852                    ;          EXCLUSIVE CPU CYCLES: 19
    1853                    ;**     -----------------------g15:
    1854                    ;** 148 -----------------------    U$149 = *U$148++;
    1855                    ;** 148 -----------------------    U$147 = *U$146++;
    1856                    ;** 148 -----------------------    if ( ABS(U$147-U$149) <= U$131 ) goto g17;
    1857 0000050c 00000000             NOP             1
    1858                            .dwpsn  file "./../packages/ti/vlib/src/VLIB_homographyDecomposition/VLIB_homographyDecomposit
    1859 00000510 061037e6             LDDW    .D2T2   *B4++,B13:B12     ; |148| 
    1860 00000514     dd45             STW     .D2T2   B4,*+SP(40)       ; |148| 
    1861 00000516     4c6e             NOP             3
    1862 00000518 02299b3a             FSUBDP  .L2X    B13:B12,A11:A10,B5:B4 ; |148| 
    1863 00000520 00002000             NOP             2
    1864 00000524 02148b22             ABSDP   .S2     B5:B4,B5:B4       ; |148| 
    1865 00000528 00000000             NOP             1
    1866 0000052c 00288a62             CMPGTDP .S2     B5:B4,B11:B10,B0  ; |148| 
    1867                            .dwpsn  file "./../packages/ti/vlib/src/VLIB_homographyDecomposition/VLIB_homographyDecomposit
    1868 00000530 023e82e6             LDW     .D2T2   *+SP(80),B4       ; |149| 
    1869                    
    1870 00000534 30162121     [!B0]   BNOP    .S1     $C$L8,1           ; |148| 
TMS320C6x Assembler PC v7.4.2 Thu Mar 19 12:41:55 2015

Tools Copyright (c) 1996-2012 Texas Instruments Incorporated
package/lib/Regression/regress_d_c/./../packages/ti/vlib/src/VLIB_homographyDecomposition/VLIB_homographyDecomposition_d.se66 PAGE   35

    1871 00000538 323d82e6  || [!B0]   LDW     .D2T2   *+SP(48),B4
    1872                    
    1873                    $C$DW$174       .dwtag  DW_TAG_TI_branch
    1874                            .dwattr $C$DW$174, DW_AT_low_pc(0x00)
    1875                            .dwattr $C$DW$174, DW_AT_name("printf")
    1876                            .dwattr $C$DW$174, DW_AT_TI_call
    1877 0000053c 20000010!    [ B0]   CALL    .S1     printf            ; |149| 
    1878 00000540 21800028!    [ B0]   MVKL    .S1     $C$SL4+0,A3
    1879 00000544 21800068!    [ B0]   MVKH    .S1     $C$SL4+0,A3
    1880                            .dwpsn  file "./../packages/ti/vlib/src/VLIB_homographyDecomposition/VLIB_homographyDecomposit
    1881 00000548 3013f058     [!B0]   SUB     .L1X    B4,1,A0           ; |147| 
    1882                            .dwpsn  file "./../packages/ti/vlib/src/VLIB_homographyDecomposition/VLIB_homographyDecomposit
    1883                               ; BRANCHCC OCCURS {$C$L8}         ; |148| 
    1884 0000054c           $C$DW$L$VLIB_homographyDecomposition_d$25$E:
    1885                    ;** --------------------------------------------------------------------------*
    1886 0000054c           $C$DW$L$VLIB_homographyDecomposition_d$26$B:
    1887                    ;          EXCLUSIVE CPU CYCLES: 2
    1888                    ;** 149 -----------------------    printf((const char *)"#######[C66-CN][%d]Translation Matrix FAILED\
    1889                    ;** 150 -----------------------    printf((const char *)"#######%.15g, %.15g\n", U$147, U$149);
    1890                    ;** 151 -----------------------    status_nat_vs_int = 0;
    1891                            .dwpsn  file "./../packages/ti/vlib/src/VLIB_homographyDecomposition/VLIB_homographyDecomposit
    1892 0000054c     dc45             STW     .D2T2   B4,*+SP(8)        ; |149| 
    1893                    
    1894 0000054e     ac35             STW     .D2T1   A3,*+SP(4)        ; |149| 
    1895 00000550 01850162  ||         ADDKPC  .S2     $C$RL22,B3,0      ; |149| 
    1896                    
    1897 00000554           $C$RL22:   ; CALL OCCURS {printf} {0}        ; |149| 
    1898 00000554           $C$DW$L$VLIB_homographyDecomposition_d$26$E:
    1899                    ;** --------------------------------------------------------------------------*
    1900 00000554           $C$DW$L$VLIB_homographyDecomposition_d$27$B:
    1901                    ;          EXCLUSIVE CPU CYCLES: 8
    1902                    
    1903 00000554 0200002b!            MVKL    .S2     $C$SL3+0,B4
    1904 00000558 063c23c6  ||         STDW    .D2T2   B13:B12,*+SP(8)   ; |150| 
    1905                    
    1906 00000560 0200006b!            MVKH    .S2     $C$SL3+0,B4
    1907 00000564 053c43c4  ||         STDW    .D2T1   A11:A10,*+SP(16)  ; |150| 
    1908                    
    1909                    $C$DW$175       .dwtag  DW_TAG_TI_branch
    1910                            .dwattr $C$DW$175, DW_AT_low_pc(0x00)
    1911                            .dwattr $C$DW$175, DW_AT_name("printf")
    1912                            .dwattr $C$DW$175, DW_AT_TI_call
    1913                    
    1914 00000568 10000013!            CALLP   .S2     printf,B3
    1915 0000056c     bc45  ||         STW     .D2T2   B4,*+SP(4)        ; |150| 
    1916                    
    1917                            .dwpsn  file "./../packages/ti/vlib/src/VLIB_homographyDecomposition/VLIB_homographyDecomposit
    1918 0000056e           $C$RL23:   ; CALL OCCURS {printf} {0}        ; |150| 
    1919 0000056e           $C$DW$L$VLIB_homographyDecomposition_d$27$E:
    1920                    ;** --------------------------------------------------------------------------*
    1921 0000056e           $C$DW$L$VLIB_homographyDecomposition_d$28$B:
    1922                    ;          EXCLUSIVE CPU CYCLES: 6
    1923 0000056e     9dcd             LDW     .D2T2   *+SP(48),B4
    1924                            .dwpsn  file "./../packages/ti/vlib/src/VLIB_homographyDecomposition/VLIB_homographyDecomposit
    1925 00000570 0700a358             ZERO    .L1     A14               ; |151| 
TMS320C6x Assembler PC v7.4.2 Thu Mar 19 12:41:55 2015

Tools Copyright (c) 1996-2012 Texas Instruments Incorporated
package/lib/Regression/regress_d_c/./../packages/ti/vlib/src/VLIB_homographyDecomposition/VLIB_homographyDecomposition_d.se66 PAGE   36

    1926 00000574     4c6e             NOP             3
    1927                            .dwpsn  file "./../packages/ti/vlib/src/VLIB_homographyDecomposition/VLIB_homographyDecomposit
    1928 00000576     fe00             SUB     .L1X    B4,1,A0           ; |147| 
    1929 00000578           $C$DW$L$VLIB_homographyDecomposition_d$28$E:
    1930                    ;** --------------------------------------------------------------------------*
    1931 00000578           $C$L8:    
    1932                            .dwpsn  file "./../packages/ti/vlib/src/VLIB_homographyDecomposition/VLIB_homographyDecomposit
    1933 00000578           $C$DW$L$VLIB_homographyDecomposition_d$29$B:
    1934                    ;          EXCLUSIVE CPU CYCLES: 6
    1935                    ;**     -----------------------g17:
    1936                    ;** 147 -----------------------    if ( L$3 = L$3-1 ) goto g15;
    1937                    
    1938 00000578     15aa     [ A0]   B       .S1     $C$L7             ; |147| 
    1939 0000057a     ee41  ||         SUB     .L2     B4,1,B4           ; |147| 
    1940                    
    1941                            .dwpsn  file "./../packages/ti/vlib/src/VLIB_homographyDecomposition/VLIB_homographyDecomposit
    1942 00000580 023d82f6             STW     .D2T2   B4,*+SP(48)       ; |147| 
    1943 00000584 c23d42e6     [ A0]   LDW     .D2T2   *+SP(40),B4
    1944                            .dwpsn  file "./../packages/ti/vlib/src/VLIB_homographyDecomposition/VLIB_homographyDecomposit
    1945 00000588 c5303764     [ A0]   LDDW    .D1T1   *A12++,A11:A10    ; |148| 
    1946 0000058c     2c6e             NOP             2
    1947                            .dwpsn  file "./../packages/ti/vlib/src/VLIB_homographyDecomposition/VLIB_homographyDecomposit
    1948                               ; BRANCHCC OCCURS {$C$L7}         ; |147| 
    1949 0000058e           $C$DW$L$VLIB_homographyDecomposition_d$29$E:
    1950                    ;** --------------------------------------------------------------------------*
    1951 0000058e           $C$DW$L$VLIB_homographyDecomposition_d$30$B:
    1952                    ;**     -----------------------    U$156 = proj;
    1953 0000058e           $C$DW$L$VLIB_homographyDecomposition_d$30$E:
    1954                    ;** --------------------------------------------------------------------------*
    1955 0000058e           $C$DW$L$VLIB_homographyDecomposition_d$31$B:
    1956                    ;          EXCLUSIVE CPU CYCLES: 10
    1957                    ;**     -----------------------    U$158 = proj_cn;
    1958                    ;** 156 -----------------------    L$4 = 3;
    1959                    ;**     -----------------------    #pragma MUST_ITERATE(3, 3, 3)
    1960                    ;**     -----------------------    #pragma LOOP_FLAGS(5120u)
    1961 0000058e     8f3d             LDW     .D2T1   *+SP(96),A3
    1962                            .dwpsn  file "./../packages/ti/vlib/src/VLIB_homographyDecomposition/VLIB_homographyDecomposit
    1963 00000590     6627             MVK     .L2     0x3,B4            ; |156| 
    1964 00000592     9dc5             STW     .D2T2   B4,*+SP(48)       ; |156| 
    1965 00000594 063ea2e4             LDW     .D2T1   *+SP(84),A12      ; |156| 
    1966 00000598     0c6e             NOP             1
    1967 0000059a     cd35             STW     .D2T1   A3,*+SP(40)
    1968 000005a0     dd4d             LDW     .D2T2   *+SP(40),B4
    1969 000005a2     2c6e             NOP             2
    1970                            .dwpsn  file "./../packages/ti/vlib/src/VLIB_homographyDecomposition/VLIB_homographyDecomposit
    1971 000005a4 05303764             LDDW    .D1T1   *A12++,A11:A10    ; |157| 
    1972 000005a8           $C$DW$L$VLIB_homographyDecomposition_d$31$E:
    1973                    ;*----------------------------------------------------------------------------*
    1974                    ;*   SOFTWARE PIPELINE INFORMATION
    1975                    ;*      Disqualified loop: Loop contains control code
    1976                    ;*----------------------------------------------------------------------------*
    1977 000005a8           $C$L9:    
    1978                            .dwpsn  file "./../packages/ti/vlib/src/VLIB_homographyDecomposition/VLIB_homographyDecomposit
    1979 000005a8           $C$DW$L$VLIB_homographyDecomposition_d$32$B:
    1980                    ;          EXCLUSIVE CPU CYCLES: 19
TMS320C6x Assembler PC v7.4.2 Thu Mar 19 12:41:55 2015

Tools Copyright (c) 1996-2012 Texas Instruments Incorporated
package/lib/Regression/regress_d_c/./../packages/ti/vlib/src/VLIB_homographyDecomposition/VLIB_homographyDecomposition_d.se66 PAGE   37

    1981                    ;**     -----------------------g19:
    1982                    ;** 157 -----------------------    U$159 = *U$158++;
    1983                    ;** 157 -----------------------    U$157 = *U$156++;
    1984                    ;** 157 -----------------------    if ( ABS(U$157-U$159) <= U$131 ) goto g21;
    1985 000005a8 00000000             NOP             1
    1986                            .dwpsn  file "./../packages/ti/vlib/src/VLIB_homographyDecomposition/VLIB_homographyDecomposit
    1987 000005ac 061037e6             LDDW    .D2T2   *B4++,B13:B12     ; |157| 
    1988 000005b0     dd45             STW     .D2T2   B4,*+SP(40)       ; |157| 
    1989 000005b2     4c6e             NOP             3
    1990 000005b4 02299b3a             FSUBDP  .L2X    B13:B12,A11:A10,B5:B4 ; |157| 
    1991 000005b8 00002000             NOP             2
    1992 000005c0 02148b22             ABSDP   .S2     B5:B4,B5:B4       ; |157| 
    1993 000005c4 00000000             NOP             1
    1994 000005c8 00288a62             CMPGTDP .S2     B5:B4,B11:B10,B0  ; |157| 
    1995                            .dwpsn  file "./../packages/ti/vlib/src/VLIB_homographyDecomposition/VLIB_homographyDecomposit
    1996 000005cc 023e82e6             LDW     .D2T2   *+SP(80),B4       ; |158| 
    1997                    
    1998 000005d0 30152121     [!B0]   BNOP    .S1     $C$L10,1          ; |157| 
    1999 000005d4 323d82e6  || [!B0]   LDW     .D2T2   *+SP(48),B4
    2000                    
    2001                    $C$DW$176       .dwtag  DW_TAG_TI_branch
    2002                            .dwattr $C$DW$176, DW_AT_low_pc(0x00)
    2003                            .dwattr $C$DW$176, DW_AT_name("printf")
    2004                            .dwattr $C$DW$176, DW_AT_TI_call
    2005 000005d8 20000010!    [ B0]   CALL    .S1     printf            ; |158| 
    2006 000005dc 21800028!    [ B0]   MVKL    .S1     $C$SL5+0,A3
    2007 000005e0 21800068!    [ B0]   MVKH    .S1     $C$SL5+0,A3
    2008                            .dwpsn  file "./../packages/ti/vlib/src/VLIB_homographyDecomposition/VLIB_homographyDecomposit
    2009 000005e4 3013f058     [!B0]   SUB     .L1X    B4,1,A0           ; |156| 
    2010                            .dwpsn  file "./../packages/ti/vlib/src/VLIB_homographyDecomposition/VLIB_homographyDecomposit
    2011                               ; BRANCHCC OCCURS {$C$L10}        ; |157| 
    2012 000005e8           $C$DW$L$VLIB_homographyDecomposition_d$32$E:
    2013                    ;** --------------------------------------------------------------------------*
    2014 000005e8           $C$DW$L$VLIB_homographyDecomposition_d$33$B:
    2015                    ;          EXCLUSIVE CPU CYCLES: 2
    2016                    ;** 158 -----------------------    printf((const char *)"#######[C66-CN][%d]Projection Matrix FAILED\n
    2017                    ;** 159 -----------------------    printf((const char *)"#######%.15g, %.15g\n", U$157, U$159);
    2018                    ;** 160 -----------------------    status_nat_vs_int = 0;
    2019                            .dwpsn  file "./../packages/ti/vlib/src/VLIB_homographyDecomposition/VLIB_homographyDecomposit
    2020 000005e8     dc45             STW     .D2T2   B4,*+SP(8)        ; |158| 
    2021                    
    2022 000005ea     ac35             STW     .D2T1   A3,*+SP(4)        ; |158| 
    2023 000005ec 01840162  ||         ADDKPC  .S2     $C$RL24,B3,0      ; |158| 
    2024                    
    2025 000005f0           $C$RL24:   ; CALL OCCURS {printf} {0}        ; |158| 
    2026 000005f0           $C$DW$L$VLIB_homographyDecomposition_d$33$E:
    2027                    ;** --------------------------------------------------------------------------*
    2028 000005f0           $C$DW$L$VLIB_homographyDecomposition_d$34$B:
    2029                    ;          EXCLUSIVE CPU CYCLES: 8
    2030                    
    2031 000005f0 0200002b!            MVKL    .S2     $C$SL3+0,B4
    2032 000005f4 063c23c6  ||         STDW    .D2T2   B13:B12,*+SP(8)   ; |159| 
    2033                    
    2034 000005f8 0200006b!            MVKH    .S2     $C$SL3+0,B4
    2035 00000600 053c43c4  ||         STDW    .D2T1   A11:A10,*+SP(16)  ; |159| 
TMS320C6x Assembler PC v7.4.2 Thu Mar 19 12:41:55 2015

Tools Copyright (c) 1996-2012 Texas Instruments Incorporated
package/lib/Regression/regress_d_c/./../packages/ti/vlib/src/VLIB_homographyDecomposition/VLIB_homographyDecomposition_d.se66 PAGE   38

    2036                    
    2037                    $C$DW$177       .dwtag  DW_TAG_TI_branch
    2038                            .dwattr $C$DW$177, DW_AT_low_pc(0x00)
    2039                            .dwattr $C$DW$177, DW_AT_name("printf")
    2040                            .dwattr $C$DW$177, DW_AT_TI_call
    2041                    
    2042 00000604 10000013!            CALLP   .S2     printf,B3
    2043 00000608     bc45  ||         STW     .D2T2   B4,*+SP(4)        ; |159| 
    2044                    
    2045                            .dwpsn  file "./../packages/ti/vlib/src/VLIB_homographyDecomposition/VLIB_homographyDecomposit
    2046 0000060a           $C$RL25:   ; CALL OCCURS {printf} {0}        ; |159| 
    2047 0000060a           $C$DW$L$VLIB_homographyDecomposition_d$34$E:
    2048                    ;** --------------------------------------------------------------------------*
    2049 0000060a           $C$DW$L$VLIB_homographyDecomposition_d$35$B:
    2050                    ;          EXCLUSIVE CPU CYCLES: 6
    2051 0000060a     9dcd             LDW     .D2T2   *+SP(48),B4
    2052                            .dwpsn  file "./../packages/ti/vlib/src/VLIB_homographyDecomposition/VLIB_homographyDecomposit
    2053 0000060c 0700a358             ZERO    .L1     A14               ; |160| 
    2054 00000610     4c6e             NOP             3
    2055                            .dwpsn  file "./../packages/ti/vlib/src/VLIB_homographyDecomposition/VLIB_homographyDecomposit
    2056 00000612     fe00             SUB     .L1X    B4,1,A0           ; |156| 
    2057 00000614           $C$DW$L$VLIB_homographyDecomposition_d$35$E:
    2058                    ;** --------------------------------------------------------------------------*
    2059 00000614           $C$L10:    
    2060                            .dwpsn  file "./../packages/ti/vlib/src/VLIB_homographyDecomposition/VLIB_homographyDecomposit
    2061 00000614           $C$DW$L$VLIB_homographyDecomposition_d$36$B:
    2062                    ;          EXCLUSIVE CPU CYCLES: 6
    2063                    ;**     -----------------------g21:
    2064                    ;** 156 -----------------------    if ( L$4 = L$4-1 ) goto g19;
    2065                    
    2066 00000614 cffff511     [ A0]   B       .S1     $C$L9             ; |156| 
    2067 00000618     ee41  ||         SUB     .L2     B4,1,B4           ; |156| 
    2068                    
    2069                            .dwpsn  file "./../packages/ti/vlib/src/VLIB_homographyDecomposition/VLIB_homographyDecomposit
    2070 0000061a     9dc5             STW     .D2T2   B4,*+SP(48)       ; |156| 
    2071 00000620 c23d42e6     [ A0]   LDW     .D2T2   *+SP(40),B4
    2072                            .dwpsn  file "./../packages/ti/vlib/src/VLIB_homographyDecomposition/VLIB_homographyDecomposit
    2073 00000624 c5303764     [ A0]   LDDW    .D1T1   *A12++,A11:A10    ; |157| 
    2074 00000628 00002000             NOP             2
    2075                            .dwpsn  file "./../packages/ti/vlib/src/VLIB_homographyDecomposition/VLIB_homographyDecomposit
    2076                               ; BRANCHCC OCCURS {$C$L9}         ; |156| 
    2077 0000062c           $C$DW$L$VLIB_homographyDecomposition_d$36$E:
    2078                    ;** --------------------------------------------------------------------------*
    2079 0000062c           $C$DW$L$VLIB_homographyDecomposition_d$37$B:
    2080                    ;** 169 -----------------------    if ( status_nat_vs_int == 1 ) goto g24;
    2081 0000062c           $C$DW$L$VLIB_homographyDecomposition_d$37$E:
    2082                    ;** --------------------------------------------------------------------------*
    2083                            .dwpsn  file "./../packages/ti/vlib/src/VLIB_homographyDecomposition/VLIB_homographyDecomposit
    2084 0000062c           $C$DW$L$VLIB_homographyDecomposition_d$38$B:
    2085                    ;          EXCLUSIVE CPU CYCLES: 7
    2086                    
    2087 0000062c 00382a59             CMPEQ   .L1     A14,1,A0          ; |169| 
    2088 00000630     fe5d  ||         LDW     .D2T2   *+SP(76),B5       ; |171| 
    2089                    
    2090 00000632     096a     [ A0]   B       .S1     $C$L11            ; |169| 
TMS320C6x Assembler PC v7.4.2 Thu Mar 19 12:41:55 2015

Tools Copyright (c) 1996-2012 Texas Instruments Incorporated
package/lib/Regression/regress_d_c/./../packages/ti/vlib/src/VLIB_homographyDecomposition/VLIB_homographyDecomposition_d.se66 PAGE   39

    2091 00000634 c23d22e6  || [ A0]   LDW     .D2T2   *+SP(36),B4
    2092                    
    2093                            .dwpsn  file "./../packages/ti/vlib/src/VLIB_homographyDecomposition/VLIB_homographyDecomposit
    2094 00000638 d33e82e6     [!A0]   LDW     .D2T2   *+SP(80),B6       ; |171| 
    2095 00000640 d200002a!    [!A0]   MVKL    .S2     $C$SL6+0,B4
    2096 00000644 d200006a!    [!A0]   MVKH    .S2     $C$SL6+0,B4
    2097                    $C$DW$178       .dwtag  DW_TAG_TI_branch
    2098                            .dwattr $C$DW$178, DW_AT_low_pc(0x00)
    2099                            .dwattr $C$DW$178, DW_AT_name("printf")
    2100                            .dwattr $C$DW$178, DW_AT_TI_call
    2101                    
    2102 00000648 d0000011!    [!A0]   CALL    .S1     printf            ; |171| 
    2103 0000064c 0294205a  ||         ADD     .L2     1,B5,B5           ; |171| 
    2104                    
    2105                            .dwpsn  file "./../packages/ti/vlib/src/VLIB_homographyDecomposition/VLIB_homographyDecomposit
    2106 00000650 c31062e6     [ A0]   LDW     .D2T2   *+B4(12),B6       ; |175| 
    2107                            .dwpsn  file "./../packages/ti/vlib/src/VLIB_homographyDecomposition/VLIB_homographyDecomposit
    2108                               ; BRANCHCC OCCURS {$C$L11}        ; |169| 
    2109 00000654           $C$DW$L$VLIB_homographyDecomposition_d$38$E:
    2110                    ;** --------------------------------------------------------------------------*
    2111 00000654           $C$DW$L$VLIB_homographyDecomposition_d$39$B:
    2112                    ;          EXCLUSIVE CPU CYCLES: 10
    2113                    ;** 171 -----------------------    printf((const char *)"[C66-CN][%d]Faugeras Decomposition Failed : [
    2114                            .dwpsn  file "./../packages/ti/vlib/src/VLIB_homographyDecomposition/VLIB_homographyDecomposit
    2115 00000654     dc65             STW     .D2T2   B6,*+SP(8)        ; |171| 
    2116 00000656     fc55             STW     .D2T2   B5,*+SP(12)       ; |171| 
    2117 00000658     fe55             STW     .D2T2   B5,*+SP(76)       ; |171| 
    2118                    
    2119 0000065a     bc45             STW     .D2T2   B4,*+SP(4)        ; |171| 
    2120 00000660 01810162  ||         ADDKPC  .S2     $C$RL26,B3,0      ; |171| 
    2121                    
    2122 00000664           $C$RL26:   ; CALL OCCURS {printf} {0}        ; |171| 
    2123 00000664     bd4d             LDW     .D2T2   *+SP(36),B4
    2124 00000666     6c6e             NOP             4
    2125                            .dwpsn  file "./../packages/ti/vlib/src/VLIB_homographyDecomposition/VLIB_homographyDecomposit
    2126 00000668     706d             LDW     .D2T2   *+B4(12),B6       ; |175| 
    2127 0000066a           $C$DW$L$VLIB_homographyDecomposition_d$39$E:
    2128                    ;** --------------------------------------------------------------------------*
    2129 0000066a           $C$L11:    
    2130                            .dwpsn  file "./../packages/ti/vlib/src/VLIB_homographyDecomposition/VLIB_homographyDecomposit
    2131 0000066a           $C$DW$L$VLIB_homographyDecomposition_d$40$B:
    2132                    ;          EXCLUSIVE CPU CYCLES: 15
    2133                    ;**     -----------------------g24:
    2134                    ;** 175 -----------------------    U$176 = (*U$57).staticOutPr;
    2135                    ;** 175 -----------------------    U$173 = (*U$57).staticOutTr;
    2136                    ;** 175 -----------------------    C$1 = (*U$57).staticOutRot;
    2137                    ;** 175 -----------------------    if ( !((C$1 != NULL)&(U$173 != NULL)&(U$176 != NULL)) ) goto g41;
    2138                    
    2139 0000066a     05a6             ZERO    .L1     A3                ; |175| 
    2140 0000066c     501d  ||         LDW     .D2T2   *+B4(8),B1        ; |175| 
    2141                    
    2142                            .dwpsn  file "./../packages/ti/vlib/src/VLIB_homographyDecomposition/VLIB_homographyDecomposit
    2143 0000066e     905d             LDW     .D2T2   *+B4(16),B5       ; |175| 
    2144 00000670     0626             ZERO    .L1     A4                ; |175| 
    2145 00000672     0627             ZERO    .L2     B4                ; |175| 
TMS320C6x Assembler PC v7.4.2 Thu Mar 19 12:41:55 2015

Tools Copyright (c) 1996-2012 Texas Instruments Incorporated
package/lib/Regression/regress_d_c/./../packages/ti/vlib/src/VLIB_homographyDecomposition/VLIB_homographyDecomposition_d.se66 PAGE   40

    2146                    
    2147 00000674     1346             MV      .L1X    B6,A0             ; |175| 
    2148 00000676     dd65  ||         STW     .D2T2   B6,*+SP(40)       ; |175| 
    2149                    
    2150 00000678 4204a359     [ B1]   MVK     .L1     0x1,A4            ; |175| 
    2151 00000680     29ee  || [ A0]   MVK     .S1     0x1,A3            ; |175| 
    2152                    
    2153 00000684 01906f79             AND     .L1     A3,A4,A3          ; |175| 
    2154 00000682     52ce  ||         MV      .S1X    B5,A2             ; |175| 
    2155 00000688     bdd5  ||         STW     .D2T2   B5,*+SP(52)       ; |175| 
    2156                    
    2157 0000068c a204a35a     [ A2]   MVK     .L2     0x1,B4            ; |175| 
    2158 0000068a     9edd  ||         LDW     .D2T2   *+SP(80),B5
    2159                    
    2160 00000690 000c9f7a             AND     .L2X    B4,A3,B0          ; |175| 
    2161                    
    2162 00000694 31522123     [!B0]   BNOP    .S2     $C$L19,1          ; |175| 
    2163 00000698 21802428  || [ B0]   MVK     .S1     72,A3
    2164                    
    2165 000006a0 22000c2a     [ B0]   MVK     .S2     24,B4
    2166                    
    2167 000006a4 02147571             MPYLI   .M1X    A3,B5,A5:A4
    2168 000006a8 02148572  ||         MPYLI   .M2     B4,B5,B5:B4
    2169                    
    2170                            .dwpsn  file "./../packages/ti/vlib/src/VLIB_homographyDecomposition/VLIB_homographyDecomposit
    2171 000006ac 2f80a35a     [ B0]   ZERO    .L2     B31               ; |179| 
    2172 000006b0 2f8020fe     [ B0]   STW     .D2T2   B31,*+SP(128)
    2173                            .dwpsn  file "./../packages/ti/vlib/src/VLIB_homographyDecomposition/VLIB_homographyDecomposit
    2174                               ; BRANCHCC OCCURS {$C$L19}        ; |175| 
    2175 000006b4           $C$DW$L$VLIB_homographyDecomposition_d$40$E:
    2176                    ;** --------------------------------------------------------------------------*
    2177 000006b4           $C$DW$L$VLIB_homographyDecomposition_d$41$B:
    2178                    ;          EXCLUSIVE CPU CYCLES: 7
    2179                    ;**     -----------------------    U$185 = _lo(_mpyli(72, n))+C$1;
    2180                    ;**     -----------------------    U$194 = _lo(_mpyli(24, n));
    2181                    ;** 181 -----------------------    L$5 = 3;
    2182                    ;**     -----------------------    U$122 = 0;
    2183                    ;** 179 -----------------------    err_flag = 0;
    2184                    ;**     -----------------------    #pragma MUST_ITERATE(3, 3, 3)
    2185                    ;**     -----------------------    #pragma LOOP_FLAGS(5120u)
    2186                    
    2187 000006b4     8e3d             LDW     .D2T1   *+SP(64),A3
    2188 000006b6     6727  ||         MVK     .L2     0x3,B6            ; |181| 
    2189 000006b8     04a6  ||         ZERO    .L1     A1                ; |179| 
    2190                    
    2191 000006ba     9dc5             STW     .D2T2   B4,*+SP(48)
    2192 000006c0 020020ee             LDW     .D2T2   *+SP(128),B4
    2193 000006c4 06049078             ADD     .L1X    B1,A4,A12
    2194                            .dwpsn  file "./../packages/ti/vlib/src/VLIB_homographyDecomposition/VLIB_homographyDecomposit
    2195 000006c8     66a7             MVK     .L2     0x3,B5            ; |182| 
    2196 000006ca     fdd5             STW     .D2T2   B5,*+SP(60)
    2197 000006cc 033dc2f6             STW     .D2T2   B6,*+SP(56)
    2198 000006d0           $C$DW$L$VLIB_homographyDecomposition_d$41$E:
    2199                    ;** --------------------------------------------------------------------------*
    2200                    ;**   BEGIN LOOP $C$L12
TMS320C6x Assembler PC v7.4.2 Thu Mar 19 12:41:55 2015

Tools Copyright (c) 1996-2012 Texas Instruments Incorporated
package/lib/Regression/regress_d_c/./../packages/ti/vlib/src/VLIB_homographyDecomposition/VLIB_homographyDecomposition_d.se66 PAGE   41

    2201                    ;** --------------------------------------------------------------------------*
    2202 000006d0           $C$L12:    
    2203                            .dwpsn  file "./../packages/ti/vlib/src/VLIB_homographyDecomposition/VLIB_homographyDecomposit
    2204 000006d0           $C$DW$L$VLIB_homographyDecomposition_d$42$B:
    2205                    ;          EXCLUSIVE CPU CYCLES: 6
    2206                    ;**     -----------------------g26:
    2207                    ;**     -----------------------    U$127 = (double *)rot_cn+U$122;
    2208                    ;** 182 -----------------------    L$6 = 3;
    2209                    ;**     -----------------------    #pragma MUST_ITERATE(3, 3, 3)
    2210                    ;**     -----------------------    #pragma LOOP_FLAGS(5120u)
    2211 000006d0     91c1             ADD     .L2X    B4,A3,B4
    2212 000006d2     ffc5             STW     .D2T2   B4,*+SP(124)
    2213 000006d4 023fe2e6             LDW     .D2T2   *+SP(124),B4
    2214                            .dwpsn  file "./../packages/ti/vlib/src/VLIB_homographyDecomposition/VLIB_homographyDecomposit
    2215 000006d8 05303764             LDDW    .D1T1   *A12++,A11:A10    ; |183| 
    2216 000006e0 00002000             NOP             2
    2217 000006e4           $C$DW$L$VLIB_homographyDecomposition_d$42$E:
    2218                    ;*----------------------------------------------------------------------------*
    2219                    ;*   SOFTWARE PIPELINE INFORMATION
    2220                    ;*      Disqualified loop: Loop contains control code
    2221                    ;*----------------------------------------------------------------------------*
    2222 000006e4           $C$L13:    
    2223                            .dwpsn  file "./../packages/ti/vlib/src/VLIB_homographyDecomposition/VLIB_homographyDecomposit
    2224 000006e4           $C$DW$L$VLIB_homographyDecomposition_d$43$B:
    2225                    ;          EXCLUSIVE CPU CYCLES: 19
    2226                    ;**     -----------------------g27:
    2227                    ;** 183 -----------------------    U$186 = *U$185++;
    2228                    ;** 183 -----------------------    U$128 = *U$127++;
    2229                    ;** 183 -----------------------    if ( ABS(U$128-U$186) <= U$131 ) goto g29;
    2230 000006e4 00000000             NOP             1
    2231                            .dwpsn  file "./../packages/ti/vlib/src/VLIB_homographyDecomposition/VLIB_homographyDecomposit
    2232 000006e8 061037e6             LDDW    .D2T2   *B4++,B13:B12     ; |183| 
    2233 000006ec     ffc5             STW     .D2T2   B4,*+SP(124)      ; |183| 
    2234 000006ee     4c6e             NOP             3
    2235 000006f0 02299b3a             FSUBDP  .L2X    B13:B12,A11:A10,B5:B4 ; |183| 
    2236 000006f4 00002000             NOP             2
    2237 000006f8 02148b22             ABSDP   .S2     B5:B4,B5:B4       ; |183| 
    2238 00000700 00000000             NOP             1
    2239 00000704 00288a62             CMPGTDP .S2     B5:B4,B11:B10,B0  ; |183| 
    2240                            .dwpsn  file "./../packages/ti/vlib/src/VLIB_homographyDecomposition/VLIB_homographyDecomposit
    2241 00000708 023e82e6             LDW     .D2T2   *+SP(80),B4       ; |184| 
    2242                    
    2243 0000070c 30152121     [!B0]   BNOP    .S1     $C$L14,1          ; |183| 
    2244 00000710 323de2e6  || [!B0]   LDW     .D2T2   *+SP(60),B4
    2245                    
    2246                    $C$DW$179       .dwtag  DW_TAG_TI_branch
    2247                            .dwattr $C$DW$179, DW_AT_low_pc(0x00)
    2248                            .dwattr $C$DW$179, DW_AT_name("printf")
    2249                            .dwattr $C$DW$179, DW_AT_TI_call
    2250 00000714 20000010!    [ B0]   CALL    .S1     printf            ; |184| 
    2251 00000718 21800028!    [ B0]   MVKL    .S1     $C$SL7+0,A3
    2252 0000071c 21800068!    [ B0]   MVKH    .S1     $C$SL7+0,A3
    2253                            .dwpsn  file "./../packages/ti/vlib/src/VLIB_homographyDecomposition/VLIB_homographyDecomposit
    2254 00000720 3013f058     [!B0]   SUB     .L1X    B4,1,A0           ; |182| 
    2255                            .dwpsn  file "./../packages/ti/vlib/src/VLIB_homographyDecomposition/VLIB_homographyDecomposit
TMS320C6x Assembler PC v7.4.2 Thu Mar 19 12:41:55 2015

Tools Copyright (c) 1996-2012 Texas Instruments Incorporated
package/lib/Regression/regress_d_c/./../packages/ti/vlib/src/VLIB_homographyDecomposition/VLIB_homographyDecomposition_d.se66 PAGE   42

    2256                               ; BRANCHCC OCCURS {$C$L14}        ; |183| 
    2257 00000724           $C$DW$L$VLIB_homographyDecomposition_d$43$E:
    2258                    ;** --------------------------------------------------------------------------*
    2259 00000724           $C$DW$L$VLIB_homographyDecomposition_d$44$B:
    2260                    ;          EXCLUSIVE CPU CYCLES: 2
    2261                    ;** 184 -----------------------    printf((const char *)"#######[CN-REF][%d]Rotation Matrix FAILED\n",
    2262                    ;** 185 -----------------------    printf((const char *)"#######%.15g, %.15g\n", U$128, U$186);
    2263                    ;** 186 -----------------------    status_nat_vs_ref = 0;
    2264                    ;** 187 -----------------------    err_flag = 1;
    2265                            .dwpsn  file "./../packages/ti/vlib/src/VLIB_homographyDecomposition/VLIB_homographyDecomposit
    2266 00000724     dc45             STW     .D2T2   B4,*+SP(8)        ; |184| 
    2267                    
    2268 00000726     ac35             STW     .D2T1   A3,*+SP(4)        ; |184| 
    2269 00000728 01830162  ||         ADDKPC  .S2     $C$RL27,B3,0      ; |184| 
    2270                    
    2271 0000072c           $C$RL27:   ; CALL OCCURS {printf} {0}        ; |184| 
    2272 0000072c           $C$DW$L$VLIB_homographyDecomposition_d$44$E:
    2273                    ;** --------------------------------------------------------------------------*
    2274 0000072c           $C$DW$L$VLIB_homographyDecomposition_d$45$B:
    2275                    ;          EXCLUSIVE CPU CYCLES: 8
    2276                    
    2277 0000072c 0200002b!            MVKL    .S2     $C$SL3+0,B4
    2278 00000730 063c23c6  ||         STDW    .D2T2   B13:B12,*+SP(8)   ; |185| 
    2279                    
    2280 00000734 0200006b!            MVKH    .S2     $C$SL3+0,B4
    2281 00000738 053c43c4  ||         STDW    .D2T1   A11:A10,*+SP(16)  ; |185| 
    2282                    
    2283                    $C$DW$180       .dwtag  DW_TAG_TI_branch
    2284                            .dwattr $C$DW$180, DW_AT_low_pc(0x00)
    2285                            .dwattr $C$DW$180, DW_AT_name("printf")
    2286                            .dwattr $C$DW$180, DW_AT_TI_call
    2287                    
    2288 00000740 10000013!            CALLP   .S2     printf,B3
    2289 00000744     bc45  ||         STW     .D2T2   B4,*+SP(4)        ; |185| 
    2290                    
    2291                            .dwpsn  file "./../packages/ti/vlib/src/VLIB_homographyDecomposition/VLIB_homographyDecomposit
    2292 00000746           $C$RL28:   ; CALL OCCURS {printf} {0}        ; |185| 
    2293 00000746           $C$DW$L$VLIB_homographyDecomposition_d$45$E:
    2294                    ;** --------------------------------------------------------------------------*
    2295 00000746           $C$DW$L$VLIB_homographyDecomposition_d$46$B:
    2296                    ;          EXCLUSIVE CPU CYCLES: 6
    2297 00000746     fdcd             LDW     .D2T2   *+SP(60),B4
    2298                            .dwpsn  file "./../packages/ti/vlib/src/VLIB_homographyDecomposition/VLIB_homographyDecomposit
    2299 00000748 0780a358             ZERO    .L1     A15               ; |186| 
    2300                            .dwpsn  file "./../packages/ti/vlib/src/VLIB_homographyDecomposition/VLIB_homographyDecomposit
    2301 0000074c     24a6             MVK     .L1     0x1,A1            ; |187| 
    2302 0000074e     2c6e             NOP             2
    2303                            .dwpsn  file "./../packages/ti/vlib/src/VLIB_homographyDecomposition/VLIB_homographyDecomposit
    2304 00000750 0013f058             SUB     .L1X    B4,1,A0           ; |182| 
    2305 00000754           $C$DW$L$VLIB_homographyDecomposition_d$46$E:
    2306                    ;** --------------------------------------------------------------------------*
    2307 00000754           $C$L14:    
    2308                            .dwpsn  file "./../packages/ti/vlib/src/VLIB_homographyDecomposition/VLIB_homographyDecomposit
    2309 00000754           $C$DW$L$VLIB_homographyDecomposition_d$47$B:
    2310                    ;          EXCLUSIVE CPU CYCLES: 6
TMS320C6x Assembler PC v7.4.2 Thu Mar 19 12:41:55 2015

Tools Copyright (c) 1996-2012 Texas Instruments Incorporated
package/lib/Regression/regress_d_c/./../packages/ti/vlib/src/VLIB_homographyDecomposition/VLIB_homographyDecomposition_d.se66 PAGE   43

    2311                    ;**     -----------------------g29:
    2312                    ;** 182 -----------------------    if ( L$6 = L$6-1 ) goto g27;
    2313                    
    2314 00000754 cffff491     [ A0]   B       .S1     $C$L13            ; |182| 
    2315 00000758     ee41  ||         SUB     .L2     B4,1,B4           ; |182| 
    2316                    
    2317                            .dwpsn  file "./../packages/ti/vlib/src/VLIB_homographyDecomposition/VLIB_homographyDecomposit
    2318 0000075a     fdc5             STW     .D2T2   B4,*+SP(60)       ; |182| 
    2319 00000760 c23fe2e6     [ A0]   LDW     .D2T2   *+SP(124),B4
    2320                            .dwpsn  file "./../packages/ti/vlib/src/VLIB_homographyDecomposition/VLIB_homographyDecomposit
    2321 00000764 c5303764     [ A0]   LDDW    .D1T1   *A12++,A11:A10    ; |183| 
    2322 00000768 00002000             NOP             2
    2323                            .dwpsn  file "./../packages/ti/vlib/src/VLIB_homographyDecomposition/VLIB_homographyDecomposit
    2324                               ; BRANCHCC OCCURS {$C$L13}        ; |182| 
    2325 0000076c           $C$DW$L$VLIB_homographyDecomposition_d$47$E:
    2326                    ;** --------------------------------------------------------------------------*
    2327 0000076c           $C$DW$L$VLIB_homographyDecomposition_d$48$B:
    2328                    ;** 181 -----------------------    U$122 += 24;
    2329 0000076c           $C$DW$L$VLIB_homographyDecomposition_d$48$E:
    2330                    ;** --------------------------------------------------------------------------*
    2331                            .dwpsn  file "./../packages/ti/vlib/src/VLIB_homographyDecomposition/VLIB_homographyDecomposit
    2332 0000076c           $C$DW$L$VLIB_homographyDecomposition_d$49$B:
    2333                    ;          EXCLUSIVE CPU CYCLES: 13
    2334                    ;** 181 -----------------------    if ( L$5 = L$5-1 ) goto g26;
    2335 0000076c 020020ee             LDW     .D2T2   *+SP(128),B4
    2336 00000770     dddd             LDW     .D2T2   *+SP(56),B5
    2337 00000772     4c6e             NOP             3
    2338 00000774     1e2f             ADDK    .S2     24,B4             ; |181| 
    2339                    
    2340 00000776     fe80             SUB     .L1X    B5,1,A0           ; |181| 
    2341 00000778 020020fe  ||         STW     .D2T2   B4,*+SP(128)      ; |181| 
    2342                    
    2343 00000780 cfffea11     [ A0]   B       .S1     $C$L12            ; |181| 
    2344 00000784 c20020ee  || [ A0]   LDW     .D2T2   *+SP(128),B4
    2345                    
    2346 00000788 c1be02e4     [ A0]   LDW     .D2T1   *+SP(64),A3
    2347 0000078c     eed1             SUB     .L2     B5,1,B5           ; |181| 
    2348 0000078e     ddd5             STW     .D2T2   B5,*+SP(56)       ; |181| 
    2349                            .dwpsn  file "./../packages/ti/vlib/src/VLIB_homographyDecomposition/VLIB_homographyDecomposit
    2350 00000790 c28ca35a     [ A0]   MVK     .L2     0x3,B5            ; |182| 
    2351 00000794 c2bde2f6     [ A0]   STW     .D2T2   B5,*+SP(60)
    2352                            .dwpsn  file "./../packages/ti/vlib/src/VLIB_homographyDecomposition/VLIB_homographyDecomposit
    2353                               ; BRANCHCC OCCURS {$C$L12}        ; |181| 
    2354 00000798           $C$DW$L$VLIB_homographyDecomposition_d$49$E:
    2355                    ;** --------------------------------------------------------------------------*
    2356 00000798           $C$DW$L$VLIB_homographyDecomposition_d$50$B:
    2357                    ;**     -----------------------    U$148 = trans_cn;
    2358 00000798           $C$DW$L$VLIB_homographyDecomposition_d$50$E:
    2359                    ;** --------------------------------------------------------------------------*
    2360 00000798           $C$DW$L$VLIB_homographyDecomposition_d$51$B:
    2361                    ;          EXCLUSIVE CPU CYCLES: 10
    2362                    ;**     -----------------------    U$196 = U$173+U$194;
    2363                    ;** 193 -----------------------    L$7 = 3;
    2364                    ;**     -----------------------    #pragma MUST_ITERATE(3, 3, 3)
    2365                    ;**     -----------------------    #pragma LOOP_FLAGS(5120u)
TMS320C6x Assembler PC v7.4.2 Thu Mar 19 12:41:55 2015

Tools Copyright (c) 1996-2012 Texas Instruments Incorporated
package/lib/Regression/regress_d_c/./../packages/ti/vlib/src/VLIB_homographyDecomposition/VLIB_homographyDecomposition_d.se66 PAGE   44

    2366 00000798 0fbec2e4             LDW     .D2T1   *+SP(88),A31
    2367 000007a0     cd4d             LDW     .D2T1   *+SP(40),A4
    2368 000007a2     8dbd             LDW     .D2T1   *+SP(48),A3
    2369                            .dwpsn  file "./../packages/ti/vlib/src/VLIB_homographyDecomposition/VLIB_homographyDecomposit
    2370 000007a4     6627             MVK     .L2     0x3,B4            ; |193| 
    2371 000007a6     dd45             STW     .D2T2   B4,*+SP(40)
    2372 000007a8 0fbdc2f4             STW     .D2T1   A31,*+SP(56)
    2373 000007ac 023dc2e6             LDW     .D2T2   *+SP(56),B4
    2374 000007b0 06106078             ADD     .L1     A3,A4,A12
    2375                            .dwpsn  file "./../packages/ti/vlib/src/VLIB_homographyDecomposition/VLIB_homographyDecomposit
    2376 000007b4 05303764             LDDW    .D1T1   *A12++,A11:A10    ; |194| 
    2377 000007b8 00000000             NOP             1
    2378 000007c0           $C$DW$L$VLIB_homographyDecomposition_d$51$E:
    2379                    ;*----------------------------------------------------------------------------*
    2380                    ;*   SOFTWARE PIPELINE INFORMATION
    2381                    ;*      Disqualified loop: Loop contains control code
    2382                    ;*----------------------------------------------------------------------------*
    2383 000007c0           $C$L15:    
    2384                            .dwpsn  file "./../packages/ti/vlib/src/VLIB_homographyDecomposition/VLIB_homographyDecomposit
    2385 000007c0           $C$DW$L$VLIB_homographyDecomposition_d$52$B:
    2386                    ;          EXCLUSIVE CPU CYCLES: 19
    2387                    ;**     -----------------------g32:
    2388                    ;** 194 -----------------------    U$197 = *U$196++;
    2389                    ;** 194 -----------------------    U$149 = *U$148++;
    2390                    ;** 194 -----------------------    if ( ABS(U$149-U$197) <= U$131 ) goto g34;
    2391 000007c0 00000000             NOP             1
    2392                            .dwpsn  file "./../packages/ti/vlib/src/VLIB_homographyDecomposition/VLIB_homographyDecomposit
    2393 000007c4 061037e6             LDDW    .D2T2   *B4++,B13:B12     ; |194| 
    2394 000007c8     ddc5             STW     .D2T2   B4,*+SP(56)       ; |194| 
    2395 000007ca     4c6e             NOP             3
    2396 000007cc 02299b3a             FSUBDP  .L2X    B13:B12,A11:A10,B5:B4 ; |194| 
    2397 000007d0 00002000             NOP             2
    2398 000007d4 02148b22             ABSDP   .S2     B5:B4,B5:B4       ; |194| 
    2399 000007d8 00000000             NOP             1
    2400 000007e0 00288a62             CMPGTDP .S2     B5:B4,B11:B10,B0  ; |194| 
    2401                            .dwpsn  file "./../packages/ti/vlib/src/VLIB_homographyDecomposition/VLIB_homographyDecomposit
    2402 000007e4 023e82e6             LDW     .D2T2   *+SP(80),B4       ; |195| 
    2403                    
    2404 000007e8 30142121     [!B0]   BNOP    .S1     $C$L16,1          ; |194| 
    2405 000007ec 323d42e6  || [!B0]   LDW     .D2T2   *+SP(40),B4
    2406                    
    2407                    $C$DW$181       .dwtag  DW_TAG_TI_branch
    2408                            .dwattr $C$DW$181, DW_AT_low_pc(0x00)
    2409                            .dwattr $C$DW$181, DW_AT_name("printf")
    2410                            .dwattr $C$DW$181, DW_AT_TI_call
    2411 000007f0 20000010!    [ B0]   CALL    .S1     printf            ; |195| 
    2412 000007f4 21800028!    [ B0]   MVKL    .S1     $C$SL8+0,A3
    2413 000007f8 21800068!    [ B0]   MVKH    .S1     $C$SL8+0,A3
    2414                            .dwpsn  file "./../packages/ti/vlib/src/VLIB_homographyDecomposition/VLIB_homographyDecomposit
    2415 000007fc 3013f058     [!B0]   SUB     .L1X    B4,1,A0           ; |193| 
    2416                            .dwpsn  file "./../packages/ti/vlib/src/VLIB_homographyDecomposition/VLIB_homographyDecomposit
    2417                               ; BRANCHCC OCCURS {$C$L16}        ; |194| 
    2418 00000800           $C$DW$L$VLIB_homographyDecomposition_d$52$E:
    2419                    ;** --------------------------------------------------------------------------*
    2420 00000800           $C$DW$L$VLIB_homographyDecomposition_d$53$B:
TMS320C6x Assembler PC v7.4.2 Thu Mar 19 12:41:55 2015

Tools Copyright (c) 1996-2012 Texas Instruments Incorporated
package/lib/Regression/regress_d_c/./../packages/ti/vlib/src/VLIB_homographyDecomposition/VLIB_homographyDecomposition_d.se66 PAGE   45

    2421                    ;          EXCLUSIVE CPU CYCLES: 2
    2422                    ;** 195 -----------------------    printf((const char *)"#######[CN-REF][%d]Translation Matrix FAILED\
    2423                    ;** 196 -----------------------    printf((const char *)"#######%.15g, %.15g\n", U$149, U$197);
    2424                    ;** 197 -----------------------    status_nat_vs_ref = 0;
    2425                    ;** 198 -----------------------    err_flag = 1;
    2426                            .dwpsn  file "./../packages/ti/vlib/src/VLIB_homographyDecomposition/VLIB_homographyDecomposit
    2427 00000800     dc45             STW     .D2T2   B4,*+SP(8)        ; |195| 
    2428                    
    2429 00000802     ac35             STW     .D2T1   A3,*+SP(4)        ; |195| 
    2430 00000804 01820162  ||         ADDKPC  .S2     $C$RL29,B3,0      ; |195| 
    2431                    
    2432 00000808           $C$RL29:   ; CALL OCCURS {printf} {0}        ; |195| 
    2433 00000808           $C$DW$L$VLIB_homographyDecomposition_d$53$E:
    2434                    ;** --------------------------------------------------------------------------*
    2435 00000808           $C$DW$L$VLIB_homographyDecomposition_d$54$B:
    2436                    ;          EXCLUSIVE CPU CYCLES: 8
    2437                    
    2438 00000808 0200002b!            MVKL    .S2     $C$SL3+0,B4
    2439 0000080c 063c23c6  ||         STDW    .D2T2   B13:B12,*+SP(8)   ; |196| 
    2440                    
    2441 00000810 0200006b!            MVKH    .S2     $C$SL3+0,B4
    2442 00000814 053c43c4  ||         STDW    .D2T1   A11:A10,*+SP(16)  ; |196| 
    2443                    
    2444                    $C$DW$182       .dwtag  DW_TAG_TI_branch
    2445                            .dwattr $C$DW$182, DW_AT_low_pc(0x00)
    2446                            .dwattr $C$DW$182, DW_AT_name("printf")
    2447                            .dwattr $C$DW$182, DW_AT_TI_call
    2448                    
    2449 00000818 10000013!            CALLP   .S2     printf,B3
    2450 00000820     bc45  ||         STW     .D2T2   B4,*+SP(4)        ; |196| 
    2451                    
    2452                            .dwpsn  file "./../packages/ti/vlib/src/VLIB_homographyDecomposition/VLIB_homographyDecomposit
    2453 00000822           $C$RL30:   ; CALL OCCURS {printf} {0}        ; |196| 
    2454 00000822           $C$DW$L$VLIB_homographyDecomposition_d$54$E:
    2455                    ;** --------------------------------------------------------------------------*
    2456 00000822           $C$DW$L$VLIB_homographyDecomposition_d$55$B:
    2457                    ;          EXCLUSIVE CPU CYCLES: 6
    2458 00000822     dd4d             LDW     .D2T2   *+SP(40),B4
    2459                            .dwpsn  file "./../packages/ti/vlib/src/VLIB_homographyDecomposition/VLIB_homographyDecomposit
    2460 00000824 0780a358             ZERO    .L1     A15               ; |197| 
    2461                            .dwpsn  file "./../packages/ti/vlib/src/VLIB_homographyDecomposition/VLIB_homographyDecomposit
    2462 00000828     24a6             MVK     .L1     0x1,A1            ; |198| 
    2463 0000082a     2c6e             NOP             2
    2464                            .dwpsn  file "./../packages/ti/vlib/src/VLIB_homographyDecomposition/VLIB_homographyDecomposit
    2465 0000082c 0013f058             SUB     .L1X    B4,1,A0           ; |193| 
    2466 00000830           $C$DW$L$VLIB_homographyDecomposition_d$55$E:
    2467                    ;** --------------------------------------------------------------------------*
    2468 00000830           $C$L16:    
    2469                            .dwpsn  file "./../packages/ti/vlib/src/VLIB_homographyDecomposition/VLIB_homographyDecomposit
    2470 00000830           $C$DW$L$VLIB_homographyDecomposition_d$56$B:
    2471                    ;          EXCLUSIVE CPU CYCLES: 6
    2472                    ;**     -----------------------g34:
    2473                    ;** 193 -----------------------    if ( L$7 = L$7-1 ) goto g32;
    2474                    
    2475 00000830 cffff411     [ A0]   B       .S1     $C$L15            ; |193| 
TMS320C6x Assembler PC v7.4.2 Thu Mar 19 12:41:55 2015

Tools Copyright (c) 1996-2012 Texas Instruments Incorporated
package/lib/Regression/regress_d_c/./../packages/ti/vlib/src/VLIB_homographyDecomposition/VLIB_homographyDecomposition_d.se66 PAGE   46

    2476 00000834     ee41  ||         SUB     .L2     B4,1,B4           ; |193| 
    2477                    
    2478                            .dwpsn  file "./../packages/ti/vlib/src/VLIB_homographyDecomposition/VLIB_homographyDecomposit
    2479 00000836     dd45             STW     .D2T2   B4,*+SP(40)       ; |193| 
    2480 00000838 c23dc2e6     [ A0]   LDW     .D2T2   *+SP(56),B4
    2481                            .dwpsn  file "./../packages/ti/vlib/src/VLIB_homographyDecomposition/VLIB_homographyDecomposit
    2482 00000840 c5303764     [ A0]   LDDW    .D1T1   *A12++,A11:A10    ; |194| 
    2483 00000844 00002000             NOP             2
    2484                            .dwpsn  file "./../packages/ti/vlib/src/VLIB_homographyDecomposition/VLIB_homographyDecomposit
    2485                               ; BRANCHCC OCCURS {$C$L15}        ; |193| 
    2486 00000848           $C$DW$L$VLIB_homographyDecomposition_d$56$E:
    2487                    ;** --------------------------------------------------------------------------*
    2488 00000848           $C$DW$L$VLIB_homographyDecomposition_d$57$B:
    2489                    ;**     -----------------------    U$158 = proj_cn;
    2490 00000848           $C$DW$L$VLIB_homographyDecomposition_d$57$E:
    2491                    ;** --------------------------------------------------------------------------*
    2492 00000848           $C$DW$L$VLIB_homographyDecomposition_d$58$B:
    2493                    ;          EXCLUSIVE CPU CYCLES: 10
    2494                    ;**     -----------------------    U$204 = U$176+U$194;
    2495                    ;** 202 -----------------------    L$8 = 3;
    2496                    ;**     -----------------------    #pragma MUST_ITERATE(3, 3, 3)
    2497                    ;**     -----------------------    #pragma LOOP_FLAGS(5120u)
    2498 00000848 0fbea2e4             LDW     .D2T1   *+SP(84),A31
    2499 0000084c     8dcd             LDW     .D2T1   *+SP(48),A4
    2500 0000084e     adbd             LDW     .D2T1   *+SP(52),A3
    2501                            .dwpsn  file "./../packages/ti/vlib/src/VLIB_homographyDecomposition/VLIB_homographyDecomposit
    2502 00000850     6627             MVK     .L2     0x3,B4            ; |202| 
    2503 00000852     dd45             STW     .D2T2   B4,*+SP(40)
    2504 00000854 0fbd82f4             STW     .D2T1   A31,*+SP(48)
    2505 00000858 023d82e6             LDW     .D2T2   *+SP(48),B4
    2506 00000860 060c8078             ADD     .L1     A4,A3,A12
    2507                            .dwpsn  file "./../packages/ti/vlib/src/VLIB_homographyDecomposition/VLIB_homographyDecomposit
    2508 00000864 05303764             LDDW    .D1T1   *A12++,A11:A10    ; |203| 
    2509 00000868     0c6e             NOP             1
    2510 0000086a           $C$DW$L$VLIB_homographyDecomposition_d$58$E:
    2511                    ;*----------------------------------------------------------------------------*
    2512                    ;*   SOFTWARE PIPELINE INFORMATION
    2513                    ;*      Disqualified loop: Loop contains control code
    2514                    ;*----------------------------------------------------------------------------*
    2515 0000086a           $C$L17:    
    2516                            .dwpsn  file "./../packages/ti/vlib/src/VLIB_homographyDecomposition/VLIB_homographyDecomposit
    2517 0000086a           $C$DW$L$VLIB_homographyDecomposition_d$59$B:
    2518                    ;          EXCLUSIVE CPU CYCLES: 19
    2519                    ;**     -----------------------g36:
    2520                    ;** 203 -----------------------    U$205 = *U$204++;
    2521                    ;** 203 -----------------------    U$159 = *U$158++;
    2522                    ;** 203 -----------------------    if ( ABS(U$159-U$205) <= U$131 ) goto g38;
    2523 0000086a     0c6e             NOP             1
    2524                            .dwpsn  file "./../packages/ti/vlib/src/VLIB_homographyDecomposition/VLIB_homographyDecomposit
    2525 0000086c 061037e6             LDDW    .D2T2   *B4++,B13:B12     ; |203| 
    2526 00000870     9dc5             STW     .D2T2   B4,*+SP(48)       ; |203| 
    2527 00000872     4c6e             NOP             3
    2528 00000874 02299b3a             FSUBDP  .L2X    B13:B12,A11:A10,B5:B4 ; |203| 
    2529 00000878 00002000             NOP             2
    2530 00000880 02148b22             ABSDP   .S2     B5:B4,B5:B4       ; |203| 
TMS320C6x Assembler PC v7.4.2 Thu Mar 19 12:41:55 2015

Tools Copyright (c) 1996-2012 Texas Instruments Incorporated
package/lib/Regression/regress_d_c/./../packages/ti/vlib/src/VLIB_homographyDecomposition/VLIB_homographyDecomposition_d.se66 PAGE   47

    2531 00000884 00000000             NOP             1
    2532 00000888 00288a62             CMPGTDP .S2     B5:B4,B11:B10,B0  ; |203| 
    2533                            .dwpsn  file "./../packages/ti/vlib/src/VLIB_homographyDecomposition/VLIB_homographyDecomposit
    2534 0000088c 023e82e6             LDW     .D2T2   *+SP(80),B4       ; |204| 
    2535                    
    2536 00000890 30162121     [!B0]   BNOP    .S1     $C$L18,1          ; |203| 
    2537 00000894 323d42e6  || [!B0]   LDW     .D2T2   *+SP(40),B4
    2538                    
    2539                    $C$DW$183       .dwtag  DW_TAG_TI_branch
    2540                            .dwattr $C$DW$183, DW_AT_low_pc(0x00)
    2541                            .dwattr $C$DW$183, DW_AT_name("printf")
    2542                            .dwattr $C$DW$183, DW_AT_TI_call
    2543 00000898 20000010!    [ B0]   CALL    .S1     printf            ; |204| 
    2544 0000089c 21800028!    [ B0]   MVKL    .S1     $C$SL9+0,A3
    2545 000008a0 21800068!    [ B0]   MVKH    .S1     $C$SL9+0,A3
    2546                            .dwpsn  file "./../packages/ti/vlib/src/VLIB_homographyDecomposition/VLIB_homographyDecomposit
    2547 000008a4 3013f058     [!B0]   SUB     .L1X    B4,1,A0           ; |202| 
    2548                            .dwpsn  file "./../packages/ti/vlib/src/VLIB_homographyDecomposition/VLIB_homographyDecomposit
    2549                               ; BRANCHCC OCCURS {$C$L18}        ; |203| 
    2550 000008a8           $C$DW$L$VLIB_homographyDecomposition_d$59$E:
    2551                    ;** --------------------------------------------------------------------------*
    2552 000008a8           $C$DW$L$VLIB_homographyDecomposition_d$60$B:
    2553                    ;          EXCLUSIVE CPU CYCLES: 2
    2554                    ;** 204 -----------------------    printf((const char *)"#######[CN-REF][%d]Projection Matrix FAILED\n
    2555                    ;** 205 -----------------------    printf((const char *)"#######%.15g, %.15g\n", U$159, U$205);
    2556                    ;** 206 -----------------------    status_nat_vs_ref = 0;
    2557                    ;** 207 -----------------------    err_flag = 1;
    2558                            .dwpsn  file "./../packages/ti/vlib/src/VLIB_homographyDecomposition/VLIB_homographyDecomposit
    2559 000008a8     dc45             STW     .D2T2   B4,*+SP(8)        ; |204| 
    2560                    
    2561 000008aa     ac35             STW     .D2T1   A3,*+SP(4)        ; |204| 
    2562 000008ac 01840162  ||         ADDKPC  .S2     $C$RL31,B3,0      ; |204| 
    2563                    
    2564 000008b0           $C$RL31:   ; CALL OCCURS {printf} {0}        ; |204| 
    2565 000008b0           $C$DW$L$VLIB_homographyDecomposition_d$60$E:
    2566                    ;** --------------------------------------------------------------------------*
    2567 000008b0           $C$DW$L$VLIB_homographyDecomposition_d$61$B:
    2568                    ;          EXCLUSIVE CPU CYCLES: 8
    2569                    
    2570 000008b0 0200002b!            MVKL    .S2     $C$SL3+0,B4
    2571 000008b4 063c23c6  ||         STDW    .D2T2   B13:B12,*+SP(8)   ; |205| 
    2572                    
    2573 000008b8 0200006b!            MVKH    .S2     $C$SL3+0,B4
    2574 000008c0 053c43c4  ||         STDW    .D2T1   A11:A10,*+SP(16)  ; |205| 
    2575                    
    2576                    $C$DW$184       .dwtag  DW_TAG_TI_branch
    2577                            .dwattr $C$DW$184, DW_AT_low_pc(0x00)
    2578                            .dwattr $C$DW$184, DW_AT_name("printf")
    2579                            .dwattr $C$DW$184, DW_AT_TI_call
    2580                    
    2581 000008c4 10000013!            CALLP   .S2     printf,B3
    2582 000008c8     bc45  ||         STW     .D2T2   B4,*+SP(4)        ; |205| 
    2583                    
    2584                            .dwpsn  file "./../packages/ti/vlib/src/VLIB_homographyDecomposition/VLIB_homographyDecomposit
    2585 000008ca           $C$RL32:   ; CALL OCCURS {printf} {0}        ; |205| 
TMS320C6x Assembler PC v7.4.2 Thu Mar 19 12:41:55 2015

Tools Copyright (c) 1996-2012 Texas Instruments Incorporated
package/lib/Regression/regress_d_c/./../packages/ti/vlib/src/VLIB_homographyDecomposition/VLIB_homographyDecomposition_d.se66 PAGE   48

    2586 000008ca           $C$DW$L$VLIB_homographyDecomposition_d$61$E:
    2587                    ;** --------------------------------------------------------------------------*
    2588 000008ca           $C$DW$L$VLIB_homographyDecomposition_d$62$B:
    2589                    ;          EXCLUSIVE CPU CYCLES: 6
    2590 000008ca     dd4d             LDW     .D2T2   *+SP(40),B4
    2591                            .dwpsn  file "./../packages/ti/vlib/src/VLIB_homographyDecomposition/VLIB_homographyDecomposit
    2592 000008cc 0780a358             ZERO    .L1     A15               ; |206| 
    2593                            .dwpsn  file "./../packages/ti/vlib/src/VLIB_homographyDecomposition/VLIB_homographyDecomposit
    2594 000008d0     24a6             MVK     .L1     0x1,A1            ; |207| 
    2595 000008d2     2c6e             NOP             2
    2596                            .dwpsn  file "./../packages/ti/vlib/src/VLIB_homographyDecomposition/VLIB_homographyDecomposit
    2597 000008d4 0013f058             SUB     .L1X    B4,1,A0           ; |202| 
    2598 000008d8           $C$DW$L$VLIB_homographyDecomposition_d$62$E:
    2599                    ;** --------------------------------------------------------------------------*
    2600 000008d8           $C$L18:    
    2601                            .dwpsn  file "./../packages/ti/vlib/src/VLIB_homographyDecomposition/VLIB_homographyDecomposit
    2602 000008d8           $C$DW$L$VLIB_homographyDecomposition_d$63$B:
    2603                    ;          EXCLUSIVE CPU CYCLES: 6
    2604                    ;**     -----------------------g38:
    2605                    ;** 202 -----------------------    if ( L$8 = L$8-1 ) goto g36;
    2606                    
    2607 000008d8     156a     [ A0]   B       .S1     $C$L17            ; |202| 
    2608 000008da     ee41  ||         SUB     .L2     B4,1,B4           ; |202| 
    2609                    
    2610                            .dwpsn  file "./../packages/ti/vlib/src/VLIB_homographyDecomposition/VLIB_homographyDecomposit
    2611 000008e0 023d42f6             STW     .D2T2   B4,*+SP(40)       ; |202| 
    2612 000008e4 c23d82e6     [ A0]   LDW     .D2T2   *+SP(48),B4
    2613                            .dwpsn  file "./../packages/ti/vlib/src/VLIB_homographyDecomposition/VLIB_homographyDecomposit
    2614 000008e8 c5303764     [ A0]   LDDW    .D1T1   *A12++,A11:A10    ; |203| 
    2615 000008ec 00002000             NOP             2
    2616                            .dwpsn  file "./../packages/ti/vlib/src/VLIB_homographyDecomposition/VLIB_homographyDecomposit
    2617                               ; BRANCHCC OCCURS {$C$L17}        ; |202| 
    2618 000008f0           $C$DW$L$VLIB_homographyDecomposition_d$63$E:
    2619                    ;** --------------------------------------------------------------------------*
    2620 000008f0           $C$DW$L$VLIB_homographyDecomposition_d$64$B:
    2621                    ;** 215 -----------------------    if ( !err_flag ) goto g41;
    2622 000008f0           $C$DW$L$VLIB_homographyDecomposition_d$64$E:
    2623                    ;** --------------------------------------------------------------------------*
    2624                            .dwpsn  file "./../packages/ti/vlib/src/VLIB_homographyDecomposition/VLIB_homographyDecomposit
    2625 000008f0           $C$DW$L$VLIB_homographyDecomposition_d$65$B:
    2626                    ;          EXCLUSIVE CPU CYCLES: 6
    2627                    
    2628 000008f0 90000991     [!A1]   B       .S1     $C$L20            ; |215| 
    2629 000008f4 823e82e6  || [ A1]   LDW     .D2T2   *+SP(80),B4       ; |217| 
    2630                    
    2631                            .dwpsn  file "./../packages/ti/vlib/src/VLIB_homographyDecomposition/VLIB_homographyDecomposit
    2632 000008f8 833e42e6     [ A1]   LDW     .D2T2   *+SP(72),B6       ; |217| 
    2633 000008fc 923d22e6     [!A1]   LDW     .D2T2   *+SP(36),B4
    2634 00000900 92be82e6     [!A1]   LDW     .D2T2   *+SP(80),B5
    2635                    $C$DW$185       .dwtag  DW_TAG_TI_branch
    2636                            .dwattr $C$DW$185, DW_AT_low_pc(0x00)
    2637                            .dwattr $C$DW$185, DW_AT_name("printf")
    2638                            .dwattr $C$DW$185, DW_AT_TI_call
    2639 00000904 80000010!    [ A1]   CALL    .S1     printf            ; |217| 
    2640 00000908 8280002a!    [ A1]   MVKL    .S2     $C$SL10+0,B5
TMS320C6x Assembler PC v7.4.2 Thu Mar 19 12:41:55 2015

Tools Copyright (c) 1996-2012 Texas Instruments Incorporated
package/lib/Regression/regress_d_c/./../packages/ti/vlib/src/VLIB_homographyDecomposition/VLIB_homographyDecomposition_d.se66 PAGE   49

    2641                            .dwpsn  file "./../packages/ti/vlib/src/VLIB_homographyDecomposition/VLIB_homographyDecomposit
    2642                               ; BRANCHCC OCCURS {$C$L20}        ; |215| 
    2643 0000090c           $C$DW$L$VLIB_homographyDecomposition_d$65$E:
    2644                    ;** --------------------------------------------------------------------------*
    2645 0000090c           $C$DW$L$VLIB_homographyDecomposition_d$66$B:
    2646                    ;          EXCLUSIVE CPU CYCLES: 4
    2647                    ;** 217 -----------------------    printf((const char *)"[CN-REF][%d]Faugeras Decomposition Failed : [
    2648                    
    2649 0000090c     dc45             STW     .D2T2   B4,*+SP(8)        ; |217| 
    2650 0000090e     2741  ||         ADD     .L2     1,B6,B4           ; |217| 
    2651 00000910 0280006a! ||         MVKH    .S2     $C$SL10+0,B5
    2652                    
    2653                            .dwpsn  file "./../packages/ti/vlib/src/VLIB_homographyDecomposition/VLIB_homographyDecomposit
    2654 00000914     fc45             STW     .D2T2   B4,*+SP(12)       ; |217| 
    2655 00000916     de45             STW     .D2T2   B4,*+SP(72)       ; |217| 
    2656                    
    2657 00000920 02bc22f6             STW     .D2T2   B5,*+SP(4)        ; |217| 
    2658 00000918 01890163  ||         ADDKPC  .S2     $C$RL33,B3,0      ; |217| 
    2659                    
    2660 00000924           $C$RL33:   ; CALL OCCURS {printf} {0}        ; |217| 
    2661 00000924           $C$DW$L$VLIB_homographyDecomposition_d$66$E:
    2662                    ;** --------------------------------------------------------------------------*
    2663 00000924           $C$L19:    
    2664 00000924           $C$DW$L$VLIB_homographyDecomposition_d$67$B:
    2665                    ;          EXCLUSIVE CPU CYCLES: 4
    2666 00000924     bd4d             LDW     .D2T2   *+SP(36),B4
    2667 00000926     9edd             LDW     .D2T2   *+SP(80),B5
    2668 00000928 00002000             NOP             2
    2669 0000092c           $C$DW$L$VLIB_homographyDecomposition_d$67$E:
    2670                    ;** --------------------------------------------------------------------------*
    2671 0000092c           $C$L20:    
    2672                            .dwpsn  file "./../packages/ti/vlib/src/VLIB_homographyDecomposition/VLIB_homographyDecomposit
    2673 0000092c           $C$DW$L$VLIB_homographyDecomposition_d$68$B:
    2674                    ;          EXCLUSIVE CPU CYCLES: 13
    2675                    ;**     -----------------------g41:
    2676                    ;** 88  -----------------------    if ( (*U$57).testIterations > (++n) ) goto g6;
    2677 0000092c     0c6e             NOP             1
    2678                            .dwpsn  file "./../packages/ti/vlib/src/VLIB_homographyDecomposition/VLIB_homographyDecomposit
    2679 0000092e     5a4d             LDHU    .D2T2   *+B4(20),B4       ; |88| 
    2680 00000930     26d1             ADD     .L2     1,B5,B5           ; |88| 
    2681 00000932     9ed5             STW     .D2T2   B5,*+SP(80)       ; |88| 
    2682 00000934     2c6e             NOP             2
    2683                    
    2684 00000936     8ea9             CMPGT   .L2     B4,B5,B0          ; |88| 
    2685 00000938 023d22e6  ||         LDW     .D2T2   *+SP(36),B4
    2686                    
    2687 00000940 2c276120     [ B0]   BNOP    .S1     $C$L2,3           ; |88| 
    2688                            .dwpsn  file "./../packages/ti/vlib/src/VLIB_homographyDecomposition/VLIB_homographyDecomposit
    2689 00000944 22100294     [ B0]   LDBU    .D2T1   *B4,A4            ; |94| 
    2690 00000948 23900fda     [ B0]   MV      .L2     B4,B7
    2691                            .dwpsn  file "./../packages/ti/vlib/src/VLIB_homographyDecomposition/VLIB_homographyDecomposit
    2692                               ; BRANCHCC OCCURS {$C$L2}         ; |88| 
    2693 0000094c           $C$DW$L$VLIB_homographyDecomposition_d$68$E:
    2694                    ;** --------------------------------------------------------------------------*
    2695 0000094c           $C$L21:    
TMS320C6x Assembler PC v7.4.2 Thu Mar 19 12:41:55 2015

Tools Copyright (c) 1996-2012 Texas Instruments Incorporated
package/lib/Regression/regress_d_c/./../packages/ti/vlib/src/VLIB_homographyDecomposition/VLIB_homographyDecomposition_d.se66 PAGE   50

    2696 0000094c           $C$DW$L$VLIB_homographyDecomposition_d$69$B:
    2697                    ;          EXCLUSIVE CPU CYCLES: 11
    2698                    ;**     -----------------------g42:
    2699                    ;** 228 -----------------------    if ( !LevelOfFeedback ) goto g44;
    2700 0000094c     af8d             LDW     .D2T1   *+SP(116),A0
    2701                            .dwpsn  file "./../packages/ti/vlib/src/VLIB_homographyDecomposition/VLIB_homographyDecomposit
    2702 0000094e     fe4d             LDW     .D2T2   *+SP(76),B4       ; |229| 
    2703 00000950 00004000             NOP             3
    2704                    
    2705 00000954 d0001293     [!A0]   B       .S2     $C$L22            ; |228| 
    2706 00000958 c1800028! || [ A0]   MVKL    .S1     $C$SL11+0,A3
    2707                    
    2708 00000960 d1800028!    [!A0]   MVKL    .S1     testPatternString,A3
    2709                    $C$DW$186       .dwtag  DW_TAG_TI_branch
    2710                            .dwattr $C$DW$186, DW_AT_low_pc(0x00)
    2711                            .dwattr $C$DW$186, DW_AT_name("printf")
    2712                            .dwattr $C$DW$186, DW_AT_TI_call
    2713                    
    2714 00000964 c0000013!    [ A0]   CALL    .S2     printf            ; |229| 
    2715 00000968 d1800068! || [!A0]   MVKH    .S1     testPatternString,A3
    2716                    
    2717 0000096c d2000029!    [!A0]   MVKL    .S1     est_test,A4
    2718 00000970 d1bc42f5  || [!A0]   STW     .D2T1   A3,*+SP(8)        ; |239| 
    2719 00000978 d184a358  || [!A0]   MVK     .L1     1,A3              ; |236| 
    2720 00000974 d200002b! || [!A0]   MVKL    .S2     $C$SL13+0,B4
    2721                    
    2722                    $C$DW$187       .dwtag  DW_TAG_TI_branch
    2723                            .dwattr $C$DW$187, DW_AT_low_pc(0x00)
    2724                            .dwattr $C$DW$187, DW_AT_name("sprintf")
    2725                            .dwattr $C$DW$187, DW_AT_TI_call
    2726                    
    2727 0000097c d0000013!    [!A0]   CALL    .S2     sprintf           ; |239| 
    2728 00000980 d2000068! || [!A0]   MVKH    .S1     est_test,A4
    2729                    
    2730 00000984 d1900275     [!A0]   STW     .D1T1   A3,*A4            ; |236| 
    2731 00000988 c1800068! || [ A0]   MVKH    .S1     $C$SL11+0,A3
    2732                    
    2733                            .dwpsn  file "./../packages/ti/vlib/src/VLIB_homographyDecomposition/VLIB_homographyDecomposit
    2734                               ; BRANCHCC OCCURS {$C$L22}        ; |228| 
    2735 0000098c           $C$DW$L$VLIB_homographyDecomposition_d$69$E:
    2736                    ;** --------------------------------------------------------------------------*
    2737 0000098c           $C$DW$L$VLIB_homographyDecomposition_d$70$B:
    2738                    ;          EXCLUSIVE CPU CYCLES: 2
    2739                    ;** 229 -----------------------    printf((const char *)"[Faugeras] [C66-CN] error # : %d\n", err_cnt_
    2740                    ;** 230 -----------------------    printf((const char *)"[Faugeras] [CN-REF] error # : %d\n", err_cnt_
    2741                            .dwpsn  file "./../packages/ti/vlib/src/VLIB_homographyDecomposition/VLIB_homographyDecomposit
    2742 0000098c     dc45             STW     .D2T2   B4,*+SP(8)        ; |229| 
    2743                    
    2744 0000098e     ac35             STW     .D2T1   A3,*+SP(4)        ; |229| 
    2745 00000990 01850162  ||         ADDKPC  .S2     $C$RL34,B3,0      ; |229| 
    2746                    
    2747 00000994           $C$RL34:   ; CALL OCCURS {printf} {0}        ; |229| 
    2748 00000994           $C$DW$L$VLIB_homographyDecomposition_d$70$E:
    2749                    ;** --------------------------------------------------------------------------*
    2750 00000994           $C$DW$L$VLIB_homographyDecomposition_d$71$B:
TMS320C6x Assembler PC v7.4.2 Thu Mar 19 12:41:55 2015

Tools Copyright (c) 1996-2012 Texas Instruments Incorporated
package/lib/Regression/regress_d_c/./../packages/ti/vlib/src/VLIB_homographyDecomposition/VLIB_homographyDecomposition_d.se66 PAGE   51

    2751                    ;          EXCLUSIVE CPU CYCLES: 16
    2752                            .dwpsn  file "./../packages/ti/vlib/src/VLIB_homographyDecomposition/VLIB_homographyDecomposit
    2753 00000994 02be42e6             LDW     .D2T2   *+SP(72),B5       ; |230| 
    2754 00000998 0200002a!            MVKL    .S2     $C$SL12+0,B4
    2755 000009a0 0200006a!            MVKH    .S2     $C$SL12+0,B4
    2756 000009a4     bc45             STW     .D2T2   B4,*+SP(4)        ; |230| 
    2757 000009a6     0c6e             NOP             1
    2758                    $C$DW$188       .dwtag  DW_TAG_TI_branch
    2759                            .dwattr $C$DW$188, DW_AT_low_pc(0x00)
    2760                            .dwattr $C$DW$188, DW_AT_name("printf")
    2761                            .dwattr $C$DW$188, DW_AT_TI_call
    2762                    
    2763 000009a8 10000013!            CALLP   .S2     printf,B3
    2764 000009ac 02bc42f6  ||         STW     .D2T2   B5,*+SP(8)        ; |230| 
    2765                    
    2766 000009b0           $C$RL35:   ; CALL OCCURS {printf} {0}        ; |230| 
    2767 000009b0 01800028!            MVKL    .S1     testPatternString,A3
    2768 000009b4 02000028!            MVKL    .S1     est_test,A4
    2769 000009b8 01800068!            MVKH    .S1     testPatternString,A3
    2770                    $C$DW$189       .dwtag  DW_TAG_TI_branch
    2771                            .dwattr $C$DW$189, DW_AT_low_pc(0x0c)
    2772                            .dwattr $C$DW$189, DW_AT_name("sprintf")
    2773                            .dwattr $C$DW$189, DW_AT_TI_call
    2774                    
    2775 000009c0     cc35             STW     .D2T1   A3,*+SP(8)        ; |239| 
    2776 000009c2     25a6  ||         MVK     .L1     1,A3              ; |236| 
    2777 000009c4 02000069! ||         MVKH    .S1     est_test,A4
    2778 000009c8 00000012! ||         CALL    .S2     sprintf           ; |239| 
    2779                    
    2780 000009d0 01900274             STW     .D1T1   A3,*A4            ; |236| 
    2781 000009cc 0200002b! ||         MVKL    .S2     $C$SL13+0,B4
    2782                    
    2783 000009d4           $C$DW$L$VLIB_homographyDecomposition_d$71$E:
    2784                    ;** --------------------------------------------------------------------------*
    2785 000009d4           $C$L22:    
    2786                            .dwpsn  file "./../packages/ti/vlib/src/VLIB_homographyDecomposition/VLIB_homographyDecomposit
    2787 000009d4           $C$DW$L$VLIB_homographyDecomposition_d$72$B:
    2788                    ;          EXCLUSIVE CPU CYCLES: 4
    2789                    ;**     -----------------------g44:
    2790                    ;** 236 -----------------------    est_test = 1;
    2791                    ;** 239 -----------------------    sprintf(K$231, (const char *)"%s generated input | Opt and NatC res
    2792                    ;** 241 -----------------------    VLIB_formula_add_test((int)(*U$51).testIterations, 0, 0, (status_na
    2793                    ;** 243 -----------------------    goto g46;
    2794 000009d4 02000028!            MVKL    .S1     desc,A4
    2795 000009d8 02000068!            MVKH    .S1     desc,A4
    2796 000009e0 0200006a!            MVKH    .S2     $C$SL13+0,B4
    2797                    
    2798 000009e4 023c22f7             STW     .D2T2   B4,*+SP(4)        ; |239| 
    2799 000009e8 01830162  ||         ADDKPC  .S2     $C$RL36,B3,0      ; |239| 
    2800                    
    2801                            .dwpsn  file "./../packages/ti/vlib/src/VLIB_homographyDecomposition/VLIB_homographyDecomposit
    2802 000009ec           $C$RL36:   ; CALL OCCURS {sprintf} {0}       ; |239| 
    2803 000009ec           $C$DW$L$VLIB_homographyDecomposition_d$72$E:
    2804                    ;** --------------------------------------------------------------------------*
    2805 000009ec           $C$DW$L$VLIB_homographyDecomposition_d$73$B:
TMS320C6x Assembler PC v7.4.2 Thu Mar 19 12:41:55 2015

Tools Copyright (c) 1996-2012 Texas Instruments Incorporated
package/lib/Regression/regress_d_c/./../packages/ti/vlib/src/VLIB_homographyDecomposition/VLIB_homographyDecomposition_d.se66 PAGE   52

    2806                    ;          EXCLUSIVE CPU CYCLES: 11
    2807                            .dwpsn  file "./../packages/ti/vlib/src/VLIB_homographyDecomposition/VLIB_homographyDecomposit
    2808 000009ec 01bd62e4             LDW     .D2T1   *+SP(44),A3       ; |241| 
    2809 000009f0 02b80a58             CMPEQ   .L1     A14,0,A5          ; |241| 
    2810 000009f4 023c1a5a             CMPEQ   .L2X    A15,0,B4          ; |241| 
    2811 000009f8 04000028!            MVKL    .S1     desc,A8
    2812 000009fc 0400a35a             ZERO    .L2     B8                ; |241| 
    2813                    $C$DW$190       .dwtag  DW_TAG_TI_branch
    2814                            .dwattr $C$DW$190, DW_AT_low_pc(0x00)
    2815                            .dwattr $C$DW$190, DW_AT_name("VLIB_formula_add_test")
    2816                            .dwattr $C$DW$190, DW_AT_TI_call
    2817                    
    2818 00000a00 10000013!            CALLP   .S2     VLIB_formula_add_test,B3
    2819 00000a04 020d4205  ||         LDHU    .D1T1   *+A3(20),A4       ; |241| 
    2820 00000a08 03149ffb  ||         OR      .L2X    B4,A5,B6          ; |241| 
    2821 00000a0c     1a77  ||         ZERO    .D2     B4                ; |241| 
    2822 00000a10 04000068! ||         MVKH    .S1     desc,A8
    2823 00000a0e     0726  ||         ZERO    .L1     A6                ; |241| 
    2824                    
    2825 00000a14           $C$RL37:   ; CALL OCCURS {VLIB_formula_add_test} {0}  ; |241| 
    2826 00000a14           $C$DW$L$VLIB_homographyDecomposition_d$73$E:
    2827                    ;** --------------------------------------------------------------------------*
    2828 00000a14           $C$DW$L$VLIB_homographyDecomposition_d$74$B:
    2829                    ;          EXCLUSIVE CPU CYCLES: 6
    2830                            .dwpsn  file "./../packages/ti/vlib/src/VLIB_homographyDecomposition/VLIB_homographyDecomposit
    2831 00000a14 00000c10             B       .S1     $C$L24            ; |243| 
    2832                            .dwpsn  file "./../packages/ti/vlib/src/VLIB_homographyDecomposition/VLIB_homographyDecomposit
    2833                    ;----------------------------------------------------------------------
    2834                    ; 250 | align_free(proj_cn);                                                   
    2835                    ;----------------------------------------------------------------------
    2836                    $C$DW$191       .dwtag  DW_TAG_TI_branch
    2837                            .dwattr $C$DW$191, DW_AT_low_pc(0x00)
    2838                            .dwattr $C$DW$191, DW_AT_name("free")
    2839                            .dwattr $C$DW$191, DW_AT_TI_call
    2840 00000a18 00000010!            CALL    .S1     free              ; |250| 
    2841 00000a20     aecd             LDW     .D2T1   *+SP(84),A4       ; |250| 
    2842 00000a22     4c6e             NOP             3
    2843                            .dwpsn  file "./../packages/ti/vlib/src/VLIB_homographyDecomposition/VLIB_homographyDecomposit
    2844                               ; BRANCH OCCURS {$C$L24}          ; |243| 
    2845 00000a24           $C$DW$L$VLIB_homographyDecomposition_d$74$E:
    2846                    ;** --------------------------------------------------------------------------*
    2847 00000a24           $C$L23:    
    2848                            .dwpsn  file "./../packages/ti/vlib/src/VLIB_homographyDecomposition/VLIB_homographyDecomposit
    2849                    $C$DW$L$VLIB_homographyDecomposition_d$75$B:
    2850                    ;          EXCLUSIVE CPU CYCLES: 6
    2851                    ;**     -----------------------g45:
    2852                    ;** 245 -----------------------    sprintf(K$231, (const char *)"Test iterations= %d", (int)(*(U$50+v$
    2853                    ;** 246 -----------------------    VLIB_skip_test(K$231);
    2854                    $C$DW$192       .dwtag  DW_TAG_TI_branch
    2855                            .dwattr $C$DW$192, DW_AT_low_pc(0x00)
    2856                            .dwattr $C$DW$192, DW_AT_name("sprintf")
    2857                            .dwattr $C$DW$192, DW_AT_TI_call
    2858                    
    2859 00000a24 00000011!            CALL    .S1     sprintf           ; |245| 
    2860 00000a28 02114287  ||         LDHU    .D2T2   *+B4(20),B4       ; |245| 
TMS320C6x Assembler PC v7.4.2 Thu Mar 19 12:41:55 2015

Tools Copyright (c) 1996-2012 Texas Instruments Incorporated
package/lib/Regression/regress_d_c/./../packages/ti/vlib/src/VLIB_homographyDecomposition/VLIB_homographyDecomposition_d.se66 PAGE   53

    2861 00000a2c 0280002a! ||         MVKL    .S2     $C$SL14+0,B5
    2862                    
    2863 00000a30 02000028!            MVKL    .S1     desc,A4
    2864 00000a34 0280006a!            MVKH    .S2     $C$SL14+0,B5
    2865 00000a38 02000068!            MVKH    .S1     desc,A4
    2866                            .dwpsn  file "./../packages/ti/vlib/src/VLIB_homographyDecomposition/VLIB_homographyDecomposit
    2867 00000a40     bc55             STW     .D2T2   B5,*+SP(4)        ; |245| 
    2868                    
    2869 00000a42     dc45             STW     .D2T2   B4,*+SP(8)        ; |245| 
    2870 00000a44 01820162  ||         ADDKPC  .S2     $C$RL38,B3,0      ; |245| 
    2871                    
    2872 00000a48           $C$RL38:   ; CALL OCCURS {sprintf} {0}       ; |245| 
    2873 00000a48           $C$DW$L$VLIB_homographyDecomposition_d$75$E:
    2874                    ;** --------------------------------------------------------------------------*
    2875 00000a48           $C$DW$L$VLIB_homographyDecomposition_d$76$B:
    2876                    ;          EXCLUSIVE CPU CYCLES: 12
    2877 00000a48 02000028!            MVKL    .S1     desc,A4
    2878                    $C$DW$193       .dwtag  DW_TAG_TI_branch
    2879                            .dwattr $C$DW$193, DW_AT_low_pc(0x00)
    2880                            .dwattr $C$DW$193, DW_AT_name("VLIB_skip_test")
    2881                            .dwattr $C$DW$193, DW_AT_TI_call
    2882                    
    2883 00000a4c 10000013!            CALLP   .S2     VLIB_skip_test,B3
    2884 00000a50 02000068! ||         MVKH    .S1     desc,A4
    2885                    
    2886                            .dwpsn  file "./../packages/ti/vlib/src/VLIB_homographyDecomposition/VLIB_homographyDecomposit
    2887 00000a54           $C$RL39:   ; CALL OCCURS {VLIB_skip_test} {0}  ; |246| 
    2888                            .dwpsn  file "./../packages/ti/vlib/src/VLIB_homographyDecomposition/VLIB_homographyDecomposit
    2889                    $C$DW$194       .dwtag  DW_TAG_TI_branch
    2890                            .dwattr $C$DW$194, DW_AT_low_pc(0x00)
    2891                            .dwattr $C$DW$194, DW_AT_name("free")
    2892                            .dwattr $C$DW$194, DW_AT_TI_call
    2893 00000a54 00000010!            CALL    .S1     free              ; |250| 
    2894 00000a58     aecd             LDW     .D2T1   *+SP(84),A4       ; |250| 
    2895 00000a5a     4c6e             NOP             3
    2896 00000a60           $C$DW$L$VLIB_homographyDecomposition_d$76$E:
    2897                    ;** --------------------------------------------------------------------------*
    2898 00000a60           $C$L24:    
    2899                            .dwpsn  file "./../packages/ti/vlib/src/VLIB_homographyDecomposition/VLIB_homographyDecomposit
    2900 00000a60           $C$DW$L$VLIB_homographyDecomposition_d$77$B:
    2901                    ;          EXCLUSIVE CPU CYCLES: 1
    2902                    ;**     -----------------------g46:
    2903                    ;** 250 -----------------------    free((void *)proj_cn);
    2904                    ;** 251 -----------------------    free((void *)trans_cn);
    2905                    ;** 252 -----------------------    free((void *)pRot_cn);
    2906                    ;** 253 -----------------------    VLIB_align_free((void *)proj);
    2907                    ;** 254 -----------------------    VLIB_align_free((void *)trans);
    2908                    ;** 255 -----------------------    VLIB_align_free((void *)pRot);
    2909                    ;** 256 -----------------------    VLIB_align_free((void *)pA);
    2910                    ;** 56  -----------------------    U$50 += 32;
    2911                    ;** 56  -----------------------    if ( test_cases > (++tpi) ) goto g3;
    2912                            .dwpsn  file "./../packages/ti/vlib/src/VLIB_homographyDecomposition/VLIB_homographyDecomposit
    2913 00000a60 01810162             ADDKPC  .S2     $C$RL40,B3,0      ; |250| 
    2914                    $C$RL40:   ; CALL OCCURS {free} {0}          ; |250| 
    2915                    $C$DW$L$VLIB_homographyDecomposition_d$77$E:
TMS320C6x Assembler PC v7.4.2 Thu Mar 19 12:41:55 2015

Tools Copyright (c) 1996-2012 Texas Instruments Incorporated
package/lib/Regression/regress_d_c/./../packages/ti/vlib/src/VLIB_homographyDecomposition/VLIB_homographyDecomposition_d.se66 PAGE   54

    2916                    ;** --------------------------------------------------------------------------*
    2917                    $C$DW$L$VLIB_homographyDecomposition_d$78$B:
    2918                    ;          EXCLUSIVE CPU CYCLES: 36
    2919                    $C$DW$195       .dwtag  DW_TAG_TI_branch
    2920                            .dwattr $C$DW$195, DW_AT_low_pc(0x00)
    2921                            .dwattr $C$DW$195, DW_AT_name("free")
    2922                            .dwattr $C$DW$195, DW_AT_TI_call
    2923                    
    2924 00000a64 10000013!            CALLP   .S2     free,B3
    2925 00000a68 023ec2e4  ||         LDW     .D2T1   *+SP(88),A4       ; |251| 
    2926                    
    2927                            .dwpsn  file "./../packages/ti/vlib/src/VLIB_homographyDecomposition/VLIB_homographyDecomposit
    2928                    ;----------------------------------------------------------------------
    2929                    ; 251 | align_free(trans_cn);                                                  
    2930                    ;----------------------------------------------------------------------
    2931                    $C$RL41:   ; CALL OCCURS {free} {0}          ; |251| 
    2932                    $C$DW$196       .dwtag  DW_TAG_TI_branch
    2933                            .dwattr $C$DW$196, DW_AT_low_pc(0x00)
    2934                            .dwattr $C$DW$196, DW_AT_name("free")
    2935                            .dwattr $C$DW$196, DW_AT_TI_call
    2936                    
    2937 00000a6c 10000013!            CALLP   .S2     free,B3
    2938 00000a70 023ee2e4  ||         LDW     .D2T1   *+SP(92),A4       ; |252| 
    2939                    
    2940                            .dwpsn  file "./../packages/ti/vlib/src/VLIB_homographyDecomposition/VLIB_homographyDecomposit
    2941                    ;----------------------------------------------------------------------
    2942                    ; 252 | align_free(pRot_cn);                                                   
    2943                    ;----------------------------------------------------------------------
    2944                    $C$RL42:   ; CALL OCCURS {free} {0}          ; |252| 
    2945                    $C$DW$197       .dwtag  DW_TAG_TI_branch
    2946                            .dwattr $C$DW$197, DW_AT_low_pc(0x00)
    2947                            .dwattr $C$DW$197, DW_AT_name("VLIB_align_free")
    2948                            .dwattr $C$DW$197, DW_AT_TI_call
    2949                    
    2950 00000a74 10000013!            CALLP   .S2     VLIB_align_free,B3
    2951 00000a78 023f02e5  ||         LDW     .D2T1   *+SP(96),A4       ; |253| 
    2952                    
    2953                            .dwpsn  file "./../packages/ti/vlib/src/VLIB_homographyDecomposition/VLIB_homographyDecomposit
    2954                    ;----------------------------------------------------------------------
    2955                    ; 253 | VLIB_align_free(proj);                                                 
    2956                    ;----------------------------------------------------------------------
    2957                    $C$RL43:   ; CALL OCCURS {VLIB_align_free} {0}  ; |253| 
    2958                    $C$DW$198       .dwtag  DW_TAG_TI_branch
    2959                            .dwattr $C$DW$198, DW_AT_low_pc(0x00)
    2960                            .dwattr $C$DW$198, DW_AT_name("VLIB_align_free")
    2961                            .dwattr $C$DW$198, DW_AT_TI_call
    2962                    
    2963 00000a80 10000013!            CALLP   .S2     VLIB_align_free,B3
    2964 00000a84 023f22e4  ||         LDW     .D2T1   *+SP(100),A4      ; |254| 
    2965                    
    2966                            .dwpsn  file "./../packages/ti/vlib/src/VLIB_homographyDecomposition/VLIB_homographyDecomposit
    2967                    ;----------------------------------------------------------------------
    2968                    ; 254 | VLIB_align_free(trans);                                                
    2969                    ;----------------------------------------------------------------------
    2970                    $C$RL44:   ; CALL OCCURS {VLIB_align_free} {0}  ; |254| 
TMS320C6x Assembler PC v7.4.2 Thu Mar 19 12:41:55 2015

Tools Copyright (c) 1996-2012 Texas Instruments Incorporated
package/lib/Regression/regress_d_c/./../packages/ti/vlib/src/VLIB_homographyDecomposition/VLIB_homographyDecomposition_d.se66 PAGE   55

    2971                    $C$DW$199       .dwtag  DW_TAG_TI_branch
    2972                            .dwattr $C$DW$199, DW_AT_low_pc(0x00)
    2973                            .dwattr $C$DW$199, DW_AT_name("VLIB_align_free")
    2974                            .dwattr $C$DW$199, DW_AT_TI_call
    2975                    
    2976 00000a88 10000013!            CALLP   .S2     VLIB_align_free,B3
    2977 00000a8c 023f42e4  ||         LDW     .D2T1   *+SP(104),A4      ; |255| 
    2978                    
    2979                            .dwpsn  file "./../packages/ti/vlib/src/VLIB_homographyDecomposition/VLIB_homographyDecomposit
    2980                    ;----------------------------------------------------------------------
    2981                    ; 255 | VLIB_align_free(pRot);                                                 
    2982                    ;----------------------------------------------------------------------
    2983                    $C$RL45:   ; CALL OCCURS {VLIB_align_free} {0}  ; |255| 
    2984                    $C$DW$200       .dwtag  DW_TAG_TI_branch
    2985                            .dwattr $C$DW$200, DW_AT_low_pc(0x00)
    2986                            .dwattr $C$DW$200, DW_AT_name("VLIB_align_free")
    2987                            .dwattr $C$DW$200, DW_AT_TI_call
    2988                    
    2989 00000a90 10000013!            CALLP   .S2     VLIB_align_free,B3
    2990 00000a94 023f62e4  ||         LDW     .D2T1   *+SP(108),A4      ; |256| 
    2991                    
    2992                            .dwpsn  file "./../packages/ti/vlib/src/VLIB_homographyDecomposition/VLIB_homographyDecomposit
    2993                    ;----------------------------------------------------------------------
    2994                    ; 256 | VLIB_align_free(pA);                                                   
    2995                    ;----------------------------------------------------------------------
    2996 00000a98           $C$RL46:   ; CALL OCCURS {VLIB_align_free} {0}  ; |256| 
    2997 00000a98           $C$DW$L$VLIB_homographyDecomposition_d$78$E:
    2998                    ;** --------------------------------------------------------------------------*
    2999 00000a98           $C$DW$L$VLIB_homographyDecomposition_d$79$B:
    3000                    ;          EXCLUSIVE CPU CYCLES: 14
    3001                    
    3002 00000a98 01800029!            MVKL    .S1     test_cases,A3
    3003 00000a9c 023f82e6  ||         LDW     .D2T2   *+SP(112),B4
    3004                    
    3005 00000aa0 01800069!            MVKH    .S1     test_cases,A3
    3006 00000aa4 02bd02e6  ||         LDW     .D2T2   *+SP(32),B5       ; |56| 
    3007                    
    3008                            .dwpsn  file "./../packages/ti/vlib/src/VLIB_homographyDecomposition/VLIB_homographyDecomposit
    3009 00000aa8 018c0264             LDW     .D1T1   *A3,A3            ; |56| 
    3010 00000aac     2c6e             NOP             2
    3011 00000aae     2641             ADD     .L2     1,B4,B4           ; |56| 
    3012                    
    3013 00000ab0 02801053             ADDK    .S2     32,B5             ; |56| 
    3014 00000ab4     9fc5  ||         STW     .D2T2   B4,*+SP(112)      ; |56| 
    3015                    
    3016 00000ab6     9d89             CMPGT   .L2X    A3,B4,B0          ; |56| 
    3017 00000ab8 02bd02f6  ||         STW     .D2T2   B5,*+SP(32)       ; |56| 
    3018                    
    3019 00000ac0 2acca120     [ B0]   BNOP    .S1     $C$L1,5           ; |56| 
    3020                               ; BRANCHCC OCCURS {$C$L1}         ; |56| 
    3021 00000ac4           $C$DW$L$VLIB_homographyDecomposition_d$79$E:
    3022                    ;** --------------------------------------------------------------------------*
    3023 00000ac4           $C$L25:    
    3024                    ;          EXCLUSIVE CPU CYCLES: 7
    3025                    ;**     -----------------------g47:
TMS320C6x Assembler PC v7.4.2 Thu Mar 19 12:41:55 2015

Tools Copyright (c) 1996-2012 Texas Instruments Incorporated
package/lib/Regression/regress_d_c/./../packages/ti/vlib/src/VLIB_homographyDecomposition/VLIB_homographyDecomposition_d.se66 PAGE   56

    3026                    ;** 260 -----------------------    VLIB_profile_cycle_report(1, NULL, "1 homography matrix");
    3027                    ;** 158 -----------------------    printf((const char *)"---------------------------------------------
    3028                    ;** 165 -----------------------    VLIB_stack_memory();  // [18]
    3029                    ;**     -----------------------    return;
    3030 00000ac4 03000028!            MVKL    .S1     $C$SL15+0,A6
    3031                    $C$DW$201       .dwtag  DW_TAG_TI_branch
    3032                            .dwattr $C$DW$201, DW_AT_low_pc(0x00)
    3033                            .dwattr $C$DW$201, DW_AT_name("VLIB_profile_cycle_report")
    3034                            .dwattr $C$DW$201, DW_AT_TI_call
    3035                    
    3036 00000ac8 10000013!            CALLP   .S2     VLIB_profile_cycle_report,B3
    3037 00000acc 03000069! ||         MVKH    .S1     $C$SL15+0,A6
    3038 00000ad0     2626  ||         MVK     .L1     0x1,A4            ; |260| 
    3039 00000ad2     0627  ||         ZERO    .L2     B4                ; |260| 
    3040                    
    3041                            .dwpsn  file "./../packages/ti/vlib/src/VLIB_homographyDecomposition/VLIB_homographyDecomposit
    3042                    ;----------------------------------------------------------------------
    3043                    ; 260 | VLIB_profile_cycle_report(vlib_PROFILE_RANGE,                          
    3044                    ; 261 |                           NULL,                                        
    3045                    ; 262 |                           "1 homography matrix");                      
    3046                    ; 265 | VLIB_kernel_memory();                                                  
    3047                    ;----------------------------------------------------------------------
    3048 00000ad4           $C$RL47:   ; CALL OCCURS {VLIB_profile_cycle_report} {0}  ; |260| 
    3049                    ;** --------------------------------------------------------------------------*
    3050                    ;          EXCLUSIVE CPU CYCLES: 14
    3051 00000ad4 0200002a!            MVKL    .S2     $C$SL16+0,B4
    3052 00000ad8 0200006a!            MVKH    .S2     $C$SL16+0,B4
    3053                    $C$DW$202       .dwtag  DW_TAG_TI_branch
    3054                            .dwattr $C$DW$202, DW_AT_low_pc(0x00)
    3055                            .dwattr $C$DW$202, DW_AT_name("printf")
    3056                            .dwattr $C$DW$202, DW_AT_TI_call
    3057                    
    3058 00000ae0 10000013!            CALLP   .S2     printf,B3
    3059 00000ae4 023c22f6  ||         STW     .D2T2   B4,*+SP(4)        ; |158| 
    3060                    
    3061                            .dwpsn  file ".\..\packages\ti\vlib\src\VLIB_homographyDecomposition\../common/VLIB_memory.h",
    3062                    $C$RL48:   ; CALL OCCURS {printf} {0}        ; |158| 
    3063                    $C$DW$203       .dwtag  DW_TAG_TI_branch
    3064                            .dwattr $C$DW$203, DW_AT_low_pc(0x00)
    3065                            .dwattr $C$DW$203, DW_AT_name("VLIB_stack_memory")
    3066                            .dwattr $C$DW$203, DW_AT_TI_call
    3067 00000ae8 10000012!            CALLP   .S2     VLIB_stack_memory,B3
    3068                            .dwpsn  file ".\..\packages\ti\vlib\src\VLIB_homographyDecomposition\../common/VLIB_memory.h",
    3069 00000aec           $C$RL49:   ; CALL OCCURS {VLIB_stack_memory} {0}  ; |165| 
    3070                    ;** --------------------------------------------------------------------------*
    3071                    ;          EXCLUSIVE CPU CYCLES: 14
    3072                            .dwpsn  file "./../packages/ti/vlib/src/VLIB_homographyDecomposition/VLIB_homographyDecomposit
    3073 00000aec 07804052             ADDK    .S2     128,SP            ; |266| 
    3074                            .dwcfi  cfa_offset, 56
    3075 00000af0     71f7             LDW     .D2T2   *++SP(8),B3
    3076                            .dwcfi  cfa_offset, 48
    3077                            .dwcfi  restore_reg, 19
    3078 00000af2     c677             LDDW    .D2T1   *++SP,A13:A12
    3079                            .dwcfi  cfa_offset, 40
    3080                            .dwcfi  restore_reg, 13
TMS320C6x Assembler PC v7.4.2 Thu Mar 19 12:41:55 2015

Tools Copyright (c) 1996-2012 Texas Instruments Incorporated
package/lib/Regression/regress_d_c/./../packages/ti/vlib/src/VLIB_homographyDecomposition/VLIB_homographyDecomposition_d.se66 PAGE   57

    3081                            .dwcfi  restore_reg, 12
    3082 00000af4     c777             LDDW    .D2T1   *++SP,A15:A14
    3083                            .dwcfi  cfa_offset, 32
    3084                            .dwcfi  restore_reg, 15
    3085                            .dwcfi  restore_reg, 14
    3086 00000af6     d577             LDDW    .D2T2   *++SP,B11:B10
    3087                            .dwcfi  cfa_offset, 24
    3088                            .dwcfi  restore_reg, 27
    3089                            .dwcfi  restore_reg, 26
    3090 00000af8     d677             LDDW    .D2T2   *++SP,B13:B12
    3091                            .dwcfi  cfa_offset, 16
    3092                            .dwcfi  restore_reg, 29
    3093                            .dwcfi  restore_reg, 28
    3094 00000afa     6577             LDW     .D2T1   *++SP(8),A10
    3095                            .dwcfi  cfa_offset, 8
    3096                            .dwcfi  restore_reg, 10
    3097 00000b00 05bc52e4             LDW     .D2T1   *++SP(8),A11      ; |266| 
    3098                            .dwcfi  cfa_offset, 0
    3099                            .dwcfi  restore_reg, 11
    3100                            .dwcfi  cfa_offset, 0
    3101                    $C$DW$204       .dwtag  DW_TAG_TI_branch
    3102                            .dwattr $C$DW$204, DW_AT_low_pc(0x00)
    3103                            .dwattr $C$DW$204, DW_AT_TI_return
    3104 00000b04 008ca362             RETNOP  .S2     B3,5
    3105                               ; BRANCH OCCURS {B3}  
    3106                    
    3107                    $C$DW$205       .dwtag  DW_TAG_TI_loop
    3108                            .dwattr $C$DW$205, DW_AT_name("c:\nightlybuilds\vlib\ti\vlib\vlib\examples\package/lib/Regress
    3109                            .dwattr $C$DW$205, DW_AT_TI_begin_file("./../packages/ti/vlib/src/VLIB_homographyDecomposition
    3110                            .dwattr $C$DW$205, DW_AT_TI_begin_line(0x38)
    3111                            .dwattr $C$DW$205, DW_AT_TI_end_line(0x101)
    3112                    $C$DW$206       .dwtag  DW_TAG_TI_loop_range
    3113                            .dwattr $C$DW$206, DW_AT_low_pc($C$DW$L$VLIB_homographyDecomposition_d$5$B)
    3114                            .dwattr $C$DW$206, DW_AT_high_pc($C$DW$L$VLIB_homographyDecomposition_d$5$E)
    3115                    $C$DW$207       .dwtag  DW_TAG_TI_loop_range
    3116                            .dwattr $C$DW$207, DW_AT_low_pc($C$DW$L$VLIB_homographyDecomposition_d$75$B)
    3117                            .dwattr $C$DW$207, DW_AT_high_pc($C$DW$L$VLIB_homographyDecomposition_d$75$E)
    3118                    $C$DW$208       .dwtag  DW_TAG_TI_loop_range
    3119                            .dwattr $C$DW$208, DW_AT_low_pc($C$DW$L$VLIB_homographyDecomposition_d$70$B)
    3120                            .dwattr $C$DW$208, DW_AT_high_pc($C$DW$L$VLIB_homographyDecomposition_d$70$E)
    3121                    $C$DW$209       .dwtag  DW_TAG_TI_loop_range
    3122                            .dwattr $C$DW$209, DW_AT_low_pc($C$DW$L$VLIB_homographyDecomposition_d$9$B)
    3123                            .dwattr $C$DW$209, DW_AT_high_pc($C$DW$L$VLIB_homographyDecomposition_d$9$E)
    3124                    $C$DW$210       .dwtag  DW_TAG_TI_loop_range
    3125                            .dwattr $C$DW$210, DW_AT_low_pc($C$DW$L$VLIB_homographyDecomposition_d$6$B)
    3126                            .dwattr $C$DW$210, DW_AT_high_pc($C$DW$L$VLIB_homographyDecomposition_d$6$E)
    3127                    $C$DW$211       .dwtag  DW_TAG_TI_loop_range
    3128                            .dwattr $C$DW$211, DW_AT_low_pc($C$DW$L$VLIB_homographyDecomposition_d$7$B)
    3129                            .dwattr $C$DW$211, DW_AT_high_pc($C$DW$L$VLIB_homographyDecomposition_d$7$E)
    3130                    $C$DW$212       .dwtag  DW_TAG_TI_loop_range
    3131                            .dwattr $C$DW$212, DW_AT_low_pc($C$DW$L$VLIB_homographyDecomposition_d$8$B)
    3132                            .dwattr $C$DW$212, DW_AT_high_pc($C$DW$L$VLIB_homographyDecomposition_d$8$E)
    3133                    $C$DW$213       .dwtag  DW_TAG_TI_loop_range
    3134                            .dwattr $C$DW$213, DW_AT_low_pc($C$DW$L$VLIB_homographyDecomposition_d$69$B)
    3135                            .dwattr $C$DW$213, DW_AT_high_pc($C$DW$L$VLIB_homographyDecomposition_d$69$E)
TMS320C6x Assembler PC v7.4.2 Thu Mar 19 12:41:55 2015

Tools Copyright (c) 1996-2012 Texas Instruments Incorporated
package/lib/Regression/regress_d_c/./../packages/ti/vlib/src/VLIB_homographyDecomposition/VLIB_homographyDecomposition_d.se66 PAGE   58

    3136                    $C$DW$214       .dwtag  DW_TAG_TI_loop_range
    3137                            .dwattr $C$DW$214, DW_AT_low_pc($C$DW$L$VLIB_homographyDecomposition_d$71$B)
    3138                            .dwattr $C$DW$214, DW_AT_high_pc($C$DW$L$VLIB_homographyDecomposition_d$71$E)
    3139                    $C$DW$215       .dwtag  DW_TAG_TI_loop_range
    3140                            .dwattr $C$DW$215, DW_AT_low_pc($C$DW$L$VLIB_homographyDecomposition_d$72$B)
    3141                            .dwattr $C$DW$215, DW_AT_high_pc($C$DW$L$VLIB_homographyDecomposition_d$72$E)
    3142                    $C$DW$216       .dwtag  DW_TAG_TI_loop_range
    3143                            .dwattr $C$DW$216, DW_AT_low_pc($C$DW$L$VLIB_homographyDecomposition_d$73$B)
    3144                            .dwattr $C$DW$216, DW_AT_high_pc($C$DW$L$VLIB_homographyDecomposition_d$73$E)
    3145                    $C$DW$217       .dwtag  DW_TAG_TI_loop_range
    3146                            .dwattr $C$DW$217, DW_AT_low_pc($C$DW$L$VLIB_homographyDecomposition_d$74$B)
    3147                            .dwattr $C$DW$217, DW_AT_high_pc($C$DW$L$VLIB_homographyDecomposition_d$74$E)
    3148                    $C$DW$218       .dwtag  DW_TAG_TI_loop_range
    3149                            .dwattr $C$DW$218, DW_AT_low_pc($C$DW$L$VLIB_homographyDecomposition_d$76$B)
    3150                            .dwattr $C$DW$218, DW_AT_high_pc($C$DW$L$VLIB_homographyDecomposition_d$76$E)
    3151                    $C$DW$219       .dwtag  DW_TAG_TI_loop_range
    3152                            .dwattr $C$DW$219, DW_AT_low_pc($C$DW$L$VLIB_homographyDecomposition_d$77$B)
    3153                            .dwattr $C$DW$219, DW_AT_high_pc($C$DW$L$VLIB_homographyDecomposition_d$77$E)
    3154                    $C$DW$220       .dwtag  DW_TAG_TI_loop_range
    3155                            .dwattr $C$DW$220, DW_AT_low_pc($C$DW$L$VLIB_homographyDecomposition_d$78$B)
    3156                            .dwattr $C$DW$220, DW_AT_high_pc($C$DW$L$VLIB_homographyDecomposition_d$78$E)
    3157                    $C$DW$221       .dwtag  DW_TAG_TI_loop_range
    3158                            .dwattr $C$DW$221, DW_AT_low_pc($C$DW$L$VLIB_homographyDecomposition_d$79$B)
    3159                            .dwattr $C$DW$221, DW_AT_high_pc($C$DW$L$VLIB_homographyDecomposition_d$79$E)
    3160                    
    3161                    $C$DW$222       .dwtag  DW_TAG_TI_loop
    3162                            .dwattr $C$DW$222, DW_AT_name("c:\nightlybuilds\vlib\ti\vlib\vlib\examples\package/lib/Regress
    3163                            .dwattr $C$DW$222, DW_AT_TI_begin_file("./../packages/ti/vlib/src/VLIB_homographyDecomposition
    3164                            .dwattr $C$DW$222, DW_AT_TI_begin_line(0x58)
    3165                            .dwattr $C$DW$222, DW_AT_TI_end_line(0xdc)
    3166                    $C$DW$223       .dwtag  DW_TAG_TI_loop_range
    3167                            .dwattr $C$DW$223, DW_AT_low_pc($C$DW$L$VLIB_homographyDecomposition_d$10$B)
    3168                            .dwattr $C$DW$223, DW_AT_high_pc($C$DW$L$VLIB_homographyDecomposition_d$10$E)
    3169                    $C$DW$224       .dwtag  DW_TAG_TI_loop_range
    3170                            .dwattr $C$DW$224, DW_AT_low_pc($C$DW$L$VLIB_homographyDecomposition_d$66$B)
    3171                            .dwattr $C$DW$224, DW_AT_high_pc($C$DW$L$VLIB_homographyDecomposition_d$66$E)
    3172                    $C$DW$225       .dwtag  DW_TAG_TI_loop_range
    3173                            .dwattr $C$DW$225, DW_AT_low_pc($C$DW$L$VLIB_homographyDecomposition_d$11$B)
    3174                            .dwattr $C$DW$225, DW_AT_high_pc($C$DW$L$VLIB_homographyDecomposition_d$11$E)
    3175                    $C$DW$226       .dwtag  DW_TAG_TI_loop_range
    3176                            .dwattr $C$DW$226, DW_AT_low_pc($C$DW$L$VLIB_homographyDecomposition_d$12$B)
    3177                            .dwattr $C$DW$226, DW_AT_high_pc($C$DW$L$VLIB_homographyDecomposition_d$12$E)
    3178                    $C$DW$227       .dwtag  DW_TAG_TI_loop_range
    3179                            .dwattr $C$DW$227, DW_AT_low_pc($C$DW$L$VLIB_homographyDecomposition_d$13$B)
    3180                            .dwattr $C$DW$227, DW_AT_high_pc($C$DW$L$VLIB_homographyDecomposition_d$13$E)
    3181                    $C$DW$228       .dwtag  DW_TAG_TI_loop_range
    3182                            .dwattr $C$DW$228, DW_AT_low_pc($C$DW$L$VLIB_homographyDecomposition_d$14$B)
    3183                            .dwattr $C$DW$228, DW_AT_high_pc($C$DW$L$VLIB_homographyDecomposition_d$14$E)
    3184                    $C$DW$229       .dwtag  DW_TAG_TI_loop_range
    3185                            .dwattr $C$DW$229, DW_AT_low_pc($C$DW$L$VLIB_homographyDecomposition_d$23$B)
    3186                            .dwattr $C$DW$229, DW_AT_high_pc($C$DW$L$VLIB_homographyDecomposition_d$23$E)
    3187                    $C$DW$230       .dwtag  DW_TAG_TI_loop_range
    3188                            .dwattr $C$DW$230, DW_AT_low_pc($C$DW$L$VLIB_homographyDecomposition_d$24$B)
    3189                            .dwattr $C$DW$230, DW_AT_high_pc($C$DW$L$VLIB_homographyDecomposition_d$24$E)
    3190                    $C$DW$231       .dwtag  DW_TAG_TI_loop_range
TMS320C6x Assembler PC v7.4.2 Thu Mar 19 12:41:55 2015

Tools Copyright (c) 1996-2012 Texas Instruments Incorporated
package/lib/Regression/regress_d_c/./../packages/ti/vlib/src/VLIB_homographyDecomposition/VLIB_homographyDecomposition_d.se66 PAGE   59

    3191                            .dwattr $C$DW$231, DW_AT_low_pc($C$DW$L$VLIB_homographyDecomposition_d$30$B)
    3192                            .dwattr $C$DW$231, DW_AT_high_pc($C$DW$L$VLIB_homographyDecomposition_d$30$E)
    3193                    $C$DW$232       .dwtag  DW_TAG_TI_loop_range
    3194                            .dwattr $C$DW$232, DW_AT_low_pc($C$DW$L$VLIB_homographyDecomposition_d$31$B)
    3195                            .dwattr $C$DW$232, DW_AT_high_pc($C$DW$L$VLIB_homographyDecomposition_d$31$E)
    3196                    $C$DW$233       .dwtag  DW_TAG_TI_loop_range
    3197                            .dwattr $C$DW$233, DW_AT_low_pc($C$DW$L$VLIB_homographyDecomposition_d$37$B)
    3198                            .dwattr $C$DW$233, DW_AT_high_pc($C$DW$L$VLIB_homographyDecomposition_d$37$E)
    3199                    $C$DW$234       .dwtag  DW_TAG_TI_loop_range
    3200                            .dwattr $C$DW$234, DW_AT_low_pc($C$DW$L$VLIB_homographyDecomposition_d$38$B)
    3201                            .dwattr $C$DW$234, DW_AT_high_pc($C$DW$L$VLIB_homographyDecomposition_d$38$E)
    3202                    $C$DW$235       .dwtag  DW_TAG_TI_loop_range
    3203                            .dwattr $C$DW$235, DW_AT_low_pc($C$DW$L$VLIB_homographyDecomposition_d$39$B)
    3204                            .dwattr $C$DW$235, DW_AT_high_pc($C$DW$L$VLIB_homographyDecomposition_d$39$E)
    3205                    $C$DW$236       .dwtag  DW_TAG_TI_loop_range
    3206                            .dwattr $C$DW$236, DW_AT_low_pc($C$DW$L$VLIB_homographyDecomposition_d$40$B)
    3207                            .dwattr $C$DW$236, DW_AT_high_pc($C$DW$L$VLIB_homographyDecomposition_d$40$E)
    3208                    $C$DW$237       .dwtag  DW_TAG_TI_loop_range
    3209                            .dwattr $C$DW$237, DW_AT_low_pc($C$DW$L$VLIB_homographyDecomposition_d$41$B)
    3210                            .dwattr $C$DW$237, DW_AT_high_pc($C$DW$L$VLIB_homographyDecomposition_d$41$E)
    3211                    $C$DW$238       .dwtag  DW_TAG_TI_loop_range
    3212                            .dwattr $C$DW$238, DW_AT_low_pc($C$DW$L$VLIB_homographyDecomposition_d$50$B)
    3213                            .dwattr $C$DW$238, DW_AT_high_pc($C$DW$L$VLIB_homographyDecomposition_d$50$E)
    3214                    $C$DW$239       .dwtag  DW_TAG_TI_loop_range
    3215                            .dwattr $C$DW$239, DW_AT_low_pc($C$DW$L$VLIB_homographyDecomposition_d$51$B)
    3216                            .dwattr $C$DW$239, DW_AT_high_pc($C$DW$L$VLIB_homographyDecomposition_d$51$E)
    3217                    $C$DW$240       .dwtag  DW_TAG_TI_loop_range
    3218                            .dwattr $C$DW$240, DW_AT_low_pc($C$DW$L$VLIB_homographyDecomposition_d$57$B)
    3219                            .dwattr $C$DW$240, DW_AT_high_pc($C$DW$L$VLIB_homographyDecomposition_d$57$E)
    3220                    $C$DW$241       .dwtag  DW_TAG_TI_loop_range
    3221                            .dwattr $C$DW$241, DW_AT_low_pc($C$DW$L$VLIB_homographyDecomposition_d$58$B)
    3222                            .dwattr $C$DW$241, DW_AT_high_pc($C$DW$L$VLIB_homographyDecomposition_d$58$E)
    3223                    $C$DW$242       .dwtag  DW_TAG_TI_loop_range
    3224                            .dwattr $C$DW$242, DW_AT_low_pc($C$DW$L$VLIB_homographyDecomposition_d$64$B)
    3225                            .dwattr $C$DW$242, DW_AT_high_pc($C$DW$L$VLIB_homographyDecomposition_d$64$E)
    3226                    $C$DW$243       .dwtag  DW_TAG_TI_loop_range
    3227                            .dwattr $C$DW$243, DW_AT_low_pc($C$DW$L$VLIB_homographyDecomposition_d$65$B)
    3228                            .dwattr $C$DW$243, DW_AT_high_pc($C$DW$L$VLIB_homographyDecomposition_d$65$E)
    3229                    $C$DW$244       .dwtag  DW_TAG_TI_loop_range
    3230                            .dwattr $C$DW$244, DW_AT_low_pc($C$DW$L$VLIB_homographyDecomposition_d$67$B)
    3231                            .dwattr $C$DW$244, DW_AT_high_pc($C$DW$L$VLIB_homographyDecomposition_d$67$E)
    3232                    $C$DW$245       .dwtag  DW_TAG_TI_loop_range
    3233                            .dwattr $C$DW$245, DW_AT_low_pc($C$DW$L$VLIB_homographyDecomposition_d$68$B)
    3234                            .dwattr $C$DW$245, DW_AT_high_pc($C$DW$L$VLIB_homographyDecomposition_d$68$E)
    3235                    
    3236                    $C$DW$246       .dwtag  DW_TAG_TI_loop
    3237                            .dwattr $C$DW$246, DW_AT_name("c:\nightlybuilds\vlib\ti\vlib\vlib\examples\package/lib/Regress
    3238                            .dwattr $C$DW$246, DW_AT_TI_begin_file("./../packages/ti/vlib/src/VLIB_homographyDecomposition
    3239                            .dwattr $C$DW$246, DW_AT_TI_begin_line(0x88)
    3240                            .dwattr $C$DW$246, DW_AT_TI_end_line(0x91)
    3241                    $C$DW$247       .dwtag  DW_TAG_TI_loop_range
    3242                            .dwattr $C$DW$247, DW_AT_low_pc($C$DW$L$VLIB_homographyDecomposition_d$15$B)
    3243                            .dwattr $C$DW$247, DW_AT_high_pc($C$DW$L$VLIB_homographyDecomposition_d$15$E)
    3244                    $C$DW$248       .dwtag  DW_TAG_TI_loop_range
    3245                            .dwattr $C$DW$248, DW_AT_low_pc($C$DW$L$VLIB_homographyDecomposition_d$21$B)
TMS320C6x Assembler PC v7.4.2 Thu Mar 19 12:41:55 2015

Tools Copyright (c) 1996-2012 Texas Instruments Incorporated
package/lib/Regression/regress_d_c/./../packages/ti/vlib/src/VLIB_homographyDecomposition/VLIB_homographyDecomposition_d.se66 PAGE   60

    3246                            .dwattr $C$DW$248, DW_AT_high_pc($C$DW$L$VLIB_homographyDecomposition_d$21$E)
    3247                    $C$DW$249       .dwtag  DW_TAG_TI_loop_range
    3248                            .dwattr $C$DW$249, DW_AT_low_pc($C$DW$L$VLIB_homographyDecomposition_d$22$B)
    3249                            .dwattr $C$DW$249, DW_AT_high_pc($C$DW$L$VLIB_homographyDecomposition_d$22$E)
    3250                    
    3251                    $C$DW$250       .dwtag  DW_TAG_TI_loop
    3252                            .dwattr $C$DW$250, DW_AT_name("c:\nightlybuilds\vlib\ti\vlib\vlib\examples\package/lib/Regress
    3253                            .dwattr $C$DW$250, DW_AT_TI_begin_file("./../packages/ti/vlib/src/VLIB_homographyDecomposition
    3254                            .dwattr $C$DW$250, DW_AT_TI_begin_line(0x89)
    3255                            .dwattr $C$DW$250, DW_AT_TI_end_line(0x90)
    3256                    $C$DW$251       .dwtag  DW_TAG_TI_loop_range
    3257                            .dwattr $C$DW$251, DW_AT_low_pc($C$DW$L$VLIB_homographyDecomposition_d$16$B)
    3258                            .dwattr $C$DW$251, DW_AT_high_pc($C$DW$L$VLIB_homographyDecomposition_d$16$E)
    3259                    $C$DW$252       .dwtag  DW_TAG_TI_loop_range
    3260                            .dwattr $C$DW$252, DW_AT_low_pc($C$DW$L$VLIB_homographyDecomposition_d$17$B)
    3261                            .dwattr $C$DW$252, DW_AT_high_pc($C$DW$L$VLIB_homographyDecomposition_d$17$E)
    3262                    $C$DW$253       .dwtag  DW_TAG_TI_loop_range
    3263                            .dwattr $C$DW$253, DW_AT_low_pc($C$DW$L$VLIB_homographyDecomposition_d$18$B)
    3264                            .dwattr $C$DW$253, DW_AT_high_pc($C$DW$L$VLIB_homographyDecomposition_d$18$E)
    3265                    $C$DW$254       .dwtag  DW_TAG_TI_loop_range
    3266                            .dwattr $C$DW$254, DW_AT_low_pc($C$DW$L$VLIB_homographyDecomposition_d$19$B)
    3267                            .dwattr $C$DW$254, DW_AT_high_pc($C$DW$L$VLIB_homographyDecomposition_d$19$E)
    3268                    $C$DW$255       .dwtag  DW_TAG_TI_loop_range
    3269                            .dwattr $C$DW$255, DW_AT_low_pc($C$DW$L$VLIB_homographyDecomposition_d$20$B)
    3270                            .dwattr $C$DW$255, DW_AT_high_pc($C$DW$L$VLIB_homographyDecomposition_d$20$E)
    3271                            .dwendtag $C$DW$250
    3272                    
    3273                            .dwendtag $C$DW$246
    3274                    
    3275                    
    3276                    $C$DW$256       .dwtag  DW_TAG_TI_loop
    3277                            .dwattr $C$DW$256, DW_AT_name("c:\nightlybuilds\vlib\ti\vlib\vlib\examples\package/lib/Regress
    3278                            .dwattr $C$DW$256, DW_AT_TI_begin_file("./../packages/ti/vlib/src/VLIB_homographyDecomposition
    3279                            .dwattr $C$DW$256, DW_AT_TI_begin_line(0x93)
    3280                            .dwattr $C$DW$256, DW_AT_TI_end_line(0x9a)
    3281                    $C$DW$257       .dwtag  DW_TAG_TI_loop_range
    3282                            .dwattr $C$DW$257, DW_AT_low_pc($C$DW$L$VLIB_homographyDecomposition_d$25$B)
    3283                            .dwattr $C$DW$257, DW_AT_high_pc($C$DW$L$VLIB_homographyDecomposition_d$25$E)
    3284                    $C$DW$258       .dwtag  DW_TAG_TI_loop_range
    3285                            .dwattr $C$DW$258, DW_AT_low_pc($C$DW$L$VLIB_homographyDecomposition_d$26$B)
    3286                            .dwattr $C$DW$258, DW_AT_high_pc($C$DW$L$VLIB_homographyDecomposition_d$26$E)
    3287                    $C$DW$259       .dwtag  DW_TAG_TI_loop_range
    3288                            .dwattr $C$DW$259, DW_AT_low_pc($C$DW$L$VLIB_homographyDecomposition_d$27$B)
    3289                            .dwattr $C$DW$259, DW_AT_high_pc($C$DW$L$VLIB_homographyDecomposition_d$27$E)
    3290                    $C$DW$260       .dwtag  DW_TAG_TI_loop_range
    3291                            .dwattr $C$DW$260, DW_AT_low_pc($C$DW$L$VLIB_homographyDecomposition_d$28$B)
    3292                            .dwattr $C$DW$260, DW_AT_high_pc($C$DW$L$VLIB_homographyDecomposition_d$28$E)
    3293                    $C$DW$261       .dwtag  DW_TAG_TI_loop_range
    3294                            .dwattr $C$DW$261, DW_AT_low_pc($C$DW$L$VLIB_homographyDecomposition_d$29$B)
    3295                            .dwattr $C$DW$261, DW_AT_high_pc($C$DW$L$VLIB_homographyDecomposition_d$29$E)
    3296                            .dwendtag $C$DW$256
    3297                    
    3298                    
    3299                    $C$DW$262       .dwtag  DW_TAG_TI_loop
    3300                            .dwattr $C$DW$262, DW_AT_name("c:\nightlybuilds\vlib\ti\vlib\vlib\examples\package/lib/Regress
TMS320C6x Assembler PC v7.4.2 Thu Mar 19 12:41:55 2015

Tools Copyright (c) 1996-2012 Texas Instruments Incorporated
package/lib/Regression/regress_d_c/./../packages/ti/vlib/src/VLIB_homographyDecomposition/VLIB_homographyDecomposition_d.se66 PAGE   61

    3301                            .dwattr $C$DW$262, DW_AT_TI_begin_file("./../packages/ti/vlib/src/VLIB_homographyDecomposition
    3302                            .dwattr $C$DW$262, DW_AT_TI_begin_line(0x9c)
    3303                            .dwattr $C$DW$262, DW_AT_TI_end_line(0xa3)
    3304                    $C$DW$263       .dwtag  DW_TAG_TI_loop_range
    3305                            .dwattr $C$DW$263, DW_AT_low_pc($C$DW$L$VLIB_homographyDecomposition_d$32$B)
    3306                            .dwattr $C$DW$263, DW_AT_high_pc($C$DW$L$VLIB_homographyDecomposition_d$32$E)
    3307                    $C$DW$264       .dwtag  DW_TAG_TI_loop_range
    3308                            .dwattr $C$DW$264, DW_AT_low_pc($C$DW$L$VLIB_homographyDecomposition_d$33$B)
    3309                            .dwattr $C$DW$264, DW_AT_high_pc($C$DW$L$VLIB_homographyDecomposition_d$33$E)
    3310                    $C$DW$265       .dwtag  DW_TAG_TI_loop_range
    3311                            .dwattr $C$DW$265, DW_AT_low_pc($C$DW$L$VLIB_homographyDecomposition_d$34$B)
    3312                            .dwattr $C$DW$265, DW_AT_high_pc($C$DW$L$VLIB_homographyDecomposition_d$34$E)
    3313                    $C$DW$266       .dwtag  DW_TAG_TI_loop_range
    3314                            .dwattr $C$DW$266, DW_AT_low_pc($C$DW$L$VLIB_homographyDecomposition_d$35$B)
    3315                            .dwattr $C$DW$266, DW_AT_high_pc($C$DW$L$VLIB_homographyDecomposition_d$35$E)
    3316                    $C$DW$267       .dwtag  DW_TAG_TI_loop_range
    3317                            .dwattr $C$DW$267, DW_AT_low_pc($C$DW$L$VLIB_homographyDecomposition_d$36$B)
    3318                            .dwattr $C$DW$267, DW_AT_high_pc($C$DW$L$VLIB_homographyDecomposition_d$36$E)
    3319                            .dwendtag $C$DW$262
    3320                    
    3321                    
    3322                    $C$DW$268       .dwtag  DW_TAG_TI_loop
    3323                            .dwattr $C$DW$268, DW_AT_name("c:\nightlybuilds\vlib\ti\vlib\vlib\examples\package/lib/Regress
    3324                            .dwattr $C$DW$268, DW_AT_TI_begin_file("./../packages/ti/vlib/src/VLIB_homographyDecomposition
    3325                            .dwattr $C$DW$268, DW_AT_TI_begin_line(0xb5)
    3326                            .dwattr $C$DW$268, DW_AT_TI_end_line(0xbf)
    3327                    $C$DW$269       .dwtag  DW_TAG_TI_loop_range
    3328                            .dwattr $C$DW$269, DW_AT_low_pc($C$DW$L$VLIB_homographyDecomposition_d$42$B)
    3329                            .dwattr $C$DW$269, DW_AT_high_pc($C$DW$L$VLIB_homographyDecomposition_d$42$E)
    3330                    $C$DW$270       .dwtag  DW_TAG_TI_loop_range
    3331                            .dwattr $C$DW$270, DW_AT_low_pc($C$DW$L$VLIB_homographyDecomposition_d$48$B)
    3332                            .dwattr $C$DW$270, DW_AT_high_pc($C$DW$L$VLIB_homographyDecomposition_d$48$E)
    3333                    $C$DW$271       .dwtag  DW_TAG_TI_loop_range
    3334                            .dwattr $C$DW$271, DW_AT_low_pc($C$DW$L$VLIB_homographyDecomposition_d$49$B)
    3335                            .dwattr $C$DW$271, DW_AT_high_pc($C$DW$L$VLIB_homographyDecomposition_d$49$E)
    3336                    
    3337                    $C$DW$272       .dwtag  DW_TAG_TI_loop
    3338                            .dwattr $C$DW$272, DW_AT_name("c:\nightlybuilds\vlib\ti\vlib\vlib\examples\package/lib/Regress
    3339                            .dwattr $C$DW$272, DW_AT_TI_begin_file("./../packages/ti/vlib/src/VLIB_homographyDecomposition
    3340                            .dwattr $C$DW$272, DW_AT_TI_begin_line(0xb6)
    3341                            .dwattr $C$DW$272, DW_AT_TI_end_line(0xbe)
    3342                    $C$DW$273       .dwtag  DW_TAG_TI_loop_range
    3343                            .dwattr $C$DW$273, DW_AT_low_pc($C$DW$L$VLIB_homographyDecomposition_d$43$B)
    3344                            .dwattr $C$DW$273, DW_AT_high_pc($C$DW$L$VLIB_homographyDecomposition_d$43$E)
    3345                    $C$DW$274       .dwtag  DW_TAG_TI_loop_range
    3346                            .dwattr $C$DW$274, DW_AT_low_pc($C$DW$L$VLIB_homographyDecomposition_d$44$B)
    3347                            .dwattr $C$DW$274, DW_AT_high_pc($C$DW$L$VLIB_homographyDecomposition_d$44$E)
    3348                    $C$DW$275       .dwtag  DW_TAG_TI_loop_range
    3349                            .dwattr $C$DW$275, DW_AT_low_pc($C$DW$L$VLIB_homographyDecomposition_d$45$B)
    3350                            .dwattr $C$DW$275, DW_AT_high_pc($C$DW$L$VLIB_homographyDecomposition_d$45$E)
    3351                    $C$DW$276       .dwtag  DW_TAG_TI_loop_range
    3352                            .dwattr $C$DW$276, DW_AT_low_pc($C$DW$L$VLIB_homographyDecomposition_d$46$B)
    3353                            .dwattr $C$DW$276, DW_AT_high_pc($C$DW$L$VLIB_homographyDecomposition_d$46$E)
    3354                    $C$DW$277       .dwtag  DW_TAG_TI_loop_range
    3355                            .dwattr $C$DW$277, DW_AT_low_pc($C$DW$L$VLIB_homographyDecomposition_d$47$B)
TMS320C6x Assembler PC v7.4.2 Thu Mar 19 12:41:55 2015

Tools Copyright (c) 1996-2012 Texas Instruments Incorporated
package/lib/Regression/regress_d_c/./../packages/ti/vlib/src/VLIB_homographyDecomposition/VLIB_homographyDecomposition_d.se66 PAGE   62

    3356                            .dwattr $C$DW$277, DW_AT_high_pc($C$DW$L$VLIB_homographyDecomposition_d$47$E)
    3357                            .dwendtag $C$DW$272
    3358                    
    3359                            .dwendtag $C$DW$268
    3360                    
    3361                    
    3362                    $C$DW$278       .dwtag  DW_TAG_TI_loop
    3363                            .dwattr $C$DW$278, DW_AT_name("c:\nightlybuilds\vlib\ti\vlib\vlib\examples\package/lib/Regress
    3364                            .dwattr $C$DW$278, DW_AT_TI_begin_file("./../packages/ti/vlib/src/VLIB_homographyDecomposition
    3365                            .dwattr $C$DW$278, DW_AT_TI_begin_line(0xc1)
    3366                            .dwattr $C$DW$278, DW_AT_TI_end_line(0xc8)
    3367                    $C$DW$279       .dwtag  DW_TAG_TI_loop_range
    3368                            .dwattr $C$DW$279, DW_AT_low_pc($C$DW$L$VLIB_homographyDecomposition_d$52$B)
    3369                            .dwattr $C$DW$279, DW_AT_high_pc($C$DW$L$VLIB_homographyDecomposition_d$52$E)
    3370                    $C$DW$280       .dwtag  DW_TAG_TI_loop_range
    3371                            .dwattr $C$DW$280, DW_AT_low_pc($C$DW$L$VLIB_homographyDecomposition_d$53$B)
    3372                            .dwattr $C$DW$280, DW_AT_high_pc($C$DW$L$VLIB_homographyDecomposition_d$53$E)
    3373                    $C$DW$281       .dwtag  DW_TAG_TI_loop_range
    3374                            .dwattr $C$DW$281, DW_AT_low_pc($C$DW$L$VLIB_homographyDecomposition_d$54$B)
    3375                            .dwattr $C$DW$281, DW_AT_high_pc($C$DW$L$VLIB_homographyDecomposition_d$54$E)
    3376                    $C$DW$282       .dwtag  DW_TAG_TI_loop_range
    3377                            .dwattr $C$DW$282, DW_AT_low_pc($C$DW$L$VLIB_homographyDecomposition_d$55$B)
    3378                            .dwattr $C$DW$282, DW_AT_high_pc($C$DW$L$VLIB_homographyDecomposition_d$55$E)
    3379                    $C$DW$283       .dwtag  DW_TAG_TI_loop_range
    3380                            .dwattr $C$DW$283, DW_AT_low_pc($C$DW$L$VLIB_homographyDecomposition_d$56$B)
    3381                            .dwattr $C$DW$283, DW_AT_high_pc($C$DW$L$VLIB_homographyDecomposition_d$56$E)
    3382                            .dwendtag $C$DW$278
    3383                    
    3384                    
    3385                    $C$DW$284       .dwtag  DW_TAG_TI_loop
    3386                            .dwattr $C$DW$284, DW_AT_name("c:\nightlybuilds\vlib\ti\vlib\vlib\examples\package/lib/Regress
    3387                            .dwattr $C$DW$284, DW_AT_TI_begin_file("./../packages/ti/vlib/src/VLIB_homographyDecomposition
    3388                            .dwattr $C$DW$284, DW_AT_TI_begin_line(0xca)
    3389                            .dwattr $C$DW$284, DW_AT_TI_end_line(0xd1)
    3390                    $C$DW$285       .dwtag  DW_TAG_TI_loop_range
    3391                            .dwattr $C$DW$285, DW_AT_low_pc($C$DW$L$VLIB_homographyDecomposition_d$59$B)
    3392                            .dwattr $C$DW$285, DW_AT_high_pc($C$DW$L$VLIB_homographyDecomposition_d$59$E)
    3393                    $C$DW$286       .dwtag  DW_TAG_TI_loop_range
    3394                            .dwattr $C$DW$286, DW_AT_low_pc($C$DW$L$VLIB_homographyDecomposition_d$60$B)
    3395                            .dwattr $C$DW$286, DW_AT_high_pc($C$DW$L$VLIB_homographyDecomposition_d$60$E)
    3396                    $C$DW$287       .dwtag  DW_TAG_TI_loop_range
    3397                            .dwattr $C$DW$287, DW_AT_low_pc($C$DW$L$VLIB_homographyDecomposition_d$61$B)
    3398                            .dwattr $C$DW$287, DW_AT_high_pc($C$DW$L$VLIB_homographyDecomposition_d$61$E)
    3399                    $C$DW$288       .dwtag  DW_TAG_TI_loop_range
    3400                            .dwattr $C$DW$288, DW_AT_low_pc($C$DW$L$VLIB_homographyDecomposition_d$62$B)
    3401                            .dwattr $C$DW$288, DW_AT_high_pc($C$DW$L$VLIB_homographyDecomposition_d$62$E)
    3402                    $C$DW$289       .dwtag  DW_TAG_TI_loop_range
    3403                            .dwattr $C$DW$289, DW_AT_low_pc($C$DW$L$VLIB_homographyDecomposition_d$63$B)
    3404                            .dwattr $C$DW$289, DW_AT_high_pc($C$DW$L$VLIB_homographyDecomposition_d$63$E)
    3405                            .dwendtag $C$DW$284
    3406                    
    3407                            .dwendtag $C$DW$222
    3408                    
    3409                            .dwendtag $C$DW$205
    3410                    
TMS320C6x Assembler PC v7.4.2 Thu Mar 19 12:41:55 2015

Tools Copyright (c) 1996-2012 Texas Instruments Incorporated
package/lib/Regression/regress_d_c/./../packages/ti/vlib/src/VLIB_homographyDecomposition/VLIB_homographyDecomposition_d.se66 PAGE   63

    3411                            .dwattr $C$DW$77, DW_AT_TI_end_file("./../packages/ti/vlib/src/VLIB_homographyDecomposition/VL
    3412                            .dwattr $C$DW$77, DW_AT_TI_end_line(0x10a)
    3413                            .dwattr $C$DW$77, DW_AT_TI_end_column(0x01)
    3414                            .dwendentry
    3415                            .dwendtag $C$DW$77
    3416                    
    3417                    ;; Inlined function references:
    3418                    ;; [ 15] VLIB_profile_start
    3419                    ;; [ 16] VLIB_profile_stop
    3420                    ;; [ 18] VLIB_kernel_memory
    3421                    ;******************************************************************************
    3422                    ;* STRINGS                                                                    *
    3423                    ;******************************************************************************
    3424 00000000                   .sect   ".const:.string"
    3425 00000000 00000056  $C$SL1: .string "VLIB_homographyDecomposition",0
         00000001 0000004C 
         00000002 00000049 
         00000003 00000042 
         00000004 0000005F 
         00000005 00000068 
         00000006 0000006F 
         00000007 0000006D 
         00000008 0000006F 
         00000009 00000067 
         0000000a 00000072 
         0000000b 00000061 
         0000000c 00000070 
         0000000d 00000068 
         0000000e 00000079 
         0000000f 00000044 
         00000010 00000065 
         00000011 00000063 
         00000012 0000006F 
         00000013 0000006D 
         00000014 00000070 
         00000015 0000006F 
         00000016 00000073 
         00000017 00000069 
         00000018 00000074 
         00000019 00000069 
         0000001a 0000006F 
         0000001b 0000006E 
         0000001c 00000000 
    3426 0000001d 00000023  $C$SL2: .string "#######[C66-CN][%d]Rotation Matrix FAILED",10,0
         0000001e 00000023 
         0000001f 00000023 
         00000020 00000023 
         00000021 00000023 
         00000022 00000023 
         00000023 00000023 
         00000024 0000005B 
         00000025 00000043 
         00000026 00000036 
         00000027 00000036 
         00000028 0000002D 
TMS320C6x Assembler PC v7.4.2 Thu Mar 19 12:41:55 2015

Tools Copyright (c) 1996-2012 Texas Instruments Incorporated
package/lib/Regression/regress_d_c/./../packages/ti/vlib/src/VLIB_homographyDecomposition/VLIB_homographyDecomposition_d.se66 PAGE   64

         00000029 00000043 
         0000002a 0000004E 
         0000002b 0000005D 
         0000002c 0000005B 
         0000002d 00000025 
         0000002e 00000064 
         0000002f 0000005D 
         00000030 00000052 
         00000031 0000006F 
         00000032 00000074 
         00000033 00000061 
         00000034 00000074 
         00000035 00000069 
         00000036 0000006F 
         00000037 0000006E 
         00000038 00000020 
         00000039 0000004D 
         0000003a 00000061 
         0000003b 00000074 
         0000003c 00000072 
         0000003d 00000069 
         0000003e 00000078 
         0000003f 00000020 
         00000040 00000046 
         00000041 00000041 
         00000042 00000049 
         00000043 0000004C 
         00000044 00000045 
         00000045 00000044 
         00000046 0000000A 
         00000047 00000000 
    3427 00000048 00000023  $C$SL3: .string "#######%.15g, %.15g",10,0
         00000049 00000023 
         0000004a 00000023 
         0000004b 00000023 
         0000004c 00000023 
         0000004d 00000023 
         0000004e 00000023 
         0000004f 00000025 
         00000050 0000002E 
         00000051 00000031 
         00000052 00000035 
         00000053 00000067 
         00000054 0000002C 
         00000055 00000020 
         00000056 00000025 
         00000057 0000002E 
         00000058 00000031 
         00000059 00000035 
         0000005a 00000067 
         0000005b 0000000A 
         0000005c 00000000 
    3428 0000005d 00000023  $C$SL4: .string "#######[C66-CN][%d]Translation Matrix FAILED",10,0
         0000005e 00000023 
         0000005f 00000023 
TMS320C6x Assembler PC v7.4.2 Thu Mar 19 12:41:55 2015

Tools Copyright (c) 1996-2012 Texas Instruments Incorporated
package/lib/Regression/regress_d_c/./../packages/ti/vlib/src/VLIB_homographyDecomposition/VLIB_homographyDecomposition_d.se66 PAGE   65

         00000060 00000023 
         00000061 00000023 
         00000062 00000023 
         00000063 00000023 
         00000064 0000005B 
         00000065 00000043 
         00000066 00000036 
         00000067 00000036 
         00000068 0000002D 
         00000069 00000043 
         0000006a 0000004E 
         0000006b 0000005D 
         0000006c 0000005B 
         0000006d 00000025 
         0000006e 00000064 
         0000006f 0000005D 
         00000070 00000054 
         00000071 00000072 
         00000072 00000061 
         00000073 0000006E 
         00000074 00000073 
         00000075 0000006C 
         00000076 00000061 
         00000077 00000074 
         00000078 00000069 
         00000079 0000006F 
         0000007a 0000006E 
         0000007b 00000020 
         0000007c 0000004D 
         0000007d 00000061 
         0000007e 00000074 
         0000007f 00000072 
         00000080 00000069 
         00000081 00000078 
         00000082 00000020 
         00000083 00000046 
         00000084 00000041 
         00000085 00000049 
         00000086 0000004C 
         00000087 00000045 
         00000088 00000044 
         00000089 0000000A 
         0000008a 00000000 
    3429 0000008b 00000023  $C$SL5: .string "#######[C66-CN][%d]Projection Matrix FAILED",10,0
         0000008c 00000023 
         0000008d 00000023 
         0000008e 00000023 
         0000008f 00000023 
         00000090 00000023 
         00000091 00000023 
         00000092 0000005B 
         00000093 00000043 
         00000094 00000036 
         00000095 00000036 
         00000096 0000002D 
TMS320C6x Assembler PC v7.4.2 Thu Mar 19 12:41:55 2015

Tools Copyright (c) 1996-2012 Texas Instruments Incorporated
package/lib/Regression/regress_d_c/./../packages/ti/vlib/src/VLIB_homographyDecomposition/VLIB_homographyDecomposition_d.se66 PAGE   66

         00000097 00000043 
         00000098 0000004E 
         00000099 0000005D 
         0000009a 0000005B 
         0000009b 00000025 
         0000009c 00000064 
         0000009d 0000005D 
         0000009e 00000050 
         0000009f 00000072 
         000000a0 0000006F 
         000000a1 0000006A 
         000000a2 00000065 
         000000a3 00000063 
         000000a4 00000074 
         000000a5 00000069 
         000000a6 0000006F 
         000000a7 0000006E 
         000000a8 00000020 
         000000a9 0000004D 
         000000aa 00000061 
         000000ab 00000074 
         000000ac 00000072 
         000000ad 00000069 
         000000ae 00000078 
         000000af 00000020 
         000000b0 00000046 
         000000b1 00000041 
         000000b2 00000049 
         000000b3 0000004C 
         000000b4 00000045 
         000000b5 00000044 
         000000b6 0000000A 
         000000b7 00000000 
    3430 000000b8 0000005B  $C$SL6: .string "[C66-CN][%d]Faugeras Decomposition Failed : [err:%d]",10,0
         000000b9 00000043 
         000000ba 00000036 
         000000bb 00000036 
         000000bc 0000002D 
         000000bd 00000043 
         000000be 0000004E 
         000000bf 0000005D 
         000000c0 0000005B 
         000000c1 00000025 
         000000c2 00000064 
         000000c3 0000005D 
         000000c4 00000046 
         000000c5 00000061 
         000000c6 00000075 
         000000c7 00000067 
         000000c8 00000065 
         000000c9 00000072 
         000000ca 00000061 
         000000cb 00000073 
         000000cc 00000020 
         000000cd 00000044 
TMS320C6x Assembler PC v7.4.2 Thu Mar 19 12:41:55 2015

Tools Copyright (c) 1996-2012 Texas Instruments Incorporated
package/lib/Regression/regress_d_c/./../packages/ti/vlib/src/VLIB_homographyDecomposition/VLIB_homographyDecomposition_d.se66 PAGE   67

         000000ce 00000065 
         000000cf 00000063 
         000000d0 0000006F 
         000000d1 0000006D 
         000000d2 00000070 
         000000d3 0000006F 
         000000d4 00000073 
         000000d5 00000069 
         000000d6 00000074 
         000000d7 00000069 
         000000d8 0000006F 
         000000d9 0000006E 
         000000da 00000020 
         000000db 00000046 
         000000dc 00000061 
         000000dd 00000069 
         000000de 0000006C 
         000000df 00000065 
         000000e0 00000064 
         000000e1 00000020 
         000000e2 0000003A 
         000000e3 00000020 
         000000e4 0000005B 
         000000e5 00000065 
         000000e6 00000072 
         000000e7 00000072 
         000000e8 0000003A 
         000000e9 00000025 
         000000ea 00000064 
         000000eb 0000005D 
         000000ec 0000000A 
         000000ed 00000000 
    3431 000000ee 00000023  $C$SL7: .string "#######[CN-REF][%d]Rotation Matrix FAILED",10,0
         000000ef 00000023 
         000000f0 00000023 
         000000f1 00000023 
         000000f2 00000023 
         000000f3 00000023 
         000000f4 00000023 
         000000f5 0000005B 
         000000f6 00000043 
         000000f7 0000004E 
         000000f8 0000002D 
         000000f9 00000052 
         000000fa 00000045 
         000000fb 00000046 
         000000fc 0000005D 
         000000fd 0000005B 
         000000fe 00000025 
         000000ff 00000064 
         00000100 0000005D 
         00000101 00000052 
         00000102 0000006F 
         00000103 00000074 
         00000104 00000061 
TMS320C6x Assembler PC v7.4.2 Thu Mar 19 12:41:55 2015

Tools Copyright (c) 1996-2012 Texas Instruments Incorporated
package/lib/Regression/regress_d_c/./../packages/ti/vlib/src/VLIB_homographyDecomposition/VLIB_homographyDecomposition_d.se66 PAGE   68

         00000105 00000074 
         00000106 00000069 
         00000107 0000006F 
         00000108 0000006E 
         00000109 00000020 
         0000010a 0000004D 
         0000010b 00000061 
         0000010c 00000074 
         0000010d 00000072 
         0000010e 00000069 
         0000010f 00000078 
         00000110 00000020 
         00000111 00000046 
         00000112 00000041 
         00000113 00000049 
         00000114 0000004C 
         00000115 00000045 
         00000116 00000044 
         00000117 0000000A 
         00000118 00000000 
    3432 00000119 00000023  $C$SL8: .string "#######[CN-REF][%d]Translation Matrix FAILED",10,0
         0000011a 00000023 
         0000011b 00000023 
         0000011c 00000023 
         0000011d 00000023 
         0000011e 00000023 
         0000011f 00000023 
         00000120 0000005B 
         00000121 00000043 
         00000122 0000004E 
         00000123 0000002D 
         00000124 00000052 
         00000125 00000045 
         00000126 00000046 
         00000127 0000005D 
         00000128 0000005B 
         00000129 00000025 
         0000012a 00000064 
         0000012b 0000005D 
         0000012c 00000054 
         0000012d 00000072 
         0000012e 00000061 
         0000012f 0000006E 
         00000130 00000073 
         00000131 0000006C 
         00000132 00000061 
         00000133 00000074 
         00000134 00000069 
         00000135 0000006F 
         00000136 0000006E 
         00000137 00000020 
         00000138 0000004D 
         00000139 00000061 
         0000013a 00000074 
         0000013b 00000072 
TMS320C6x Assembler PC v7.4.2 Thu Mar 19 12:41:55 2015

Tools Copyright (c) 1996-2012 Texas Instruments Incorporated
package/lib/Regression/regress_d_c/./../packages/ti/vlib/src/VLIB_homographyDecomposition/VLIB_homographyDecomposition_d.se66 PAGE   69

         0000013c 00000069 
         0000013d 00000078 
         0000013e 00000020 
         0000013f 00000046 
         00000140 00000041 
         00000141 00000049 
         00000142 0000004C 
         00000143 00000045 
         00000144 00000044 
         00000145 0000000A 
         00000146 00000000 
    3433 00000147 00000023  $C$SL9: .string "#######[CN-REF][%d]Projection Matrix FAILED",10,0
         00000148 00000023 
         00000149 00000023 
         0000014a 00000023 
         0000014b 00000023 
         0000014c 00000023 
         0000014d 00000023 
         0000014e 0000005B 
         0000014f 00000043 
         00000150 0000004E 
         00000151 0000002D 
         00000152 00000052 
         00000153 00000045 
         00000154 00000046 
         00000155 0000005D 
         00000156 0000005B 
         00000157 00000025 
         00000158 00000064 
         00000159 0000005D 
         0000015a 00000050 
         0000015b 00000072 
         0000015c 0000006F 
         0000015d 0000006A 
         0000015e 00000065 
         0000015f 00000063 
         00000160 00000074 
         00000161 00000069 
         00000162 0000006F 
         00000163 0000006E 
         00000164 00000020 
         00000165 0000004D 
         00000166 00000061 
         00000167 00000074 
         00000168 00000072 
         00000169 00000069 
         0000016a 00000078 
         0000016b 00000020 
         0000016c 00000046 
         0000016d 00000041 
         0000016e 00000049 
         0000016f 0000004C 
         00000170 00000045 
         00000171 00000044 
         00000172 0000000A 
TMS320C6x Assembler PC v7.4.2 Thu Mar 19 12:41:55 2015

Tools Copyright (c) 1996-2012 Texas Instruments Incorporated
package/lib/Regression/regress_d_c/./../packages/ti/vlib/src/VLIB_homographyDecomposition/VLIB_homographyDecomposition_d.se66 PAGE   70

         00000173 00000000 
    3434 00000174 0000005B  $C$SL10:        .string "[CN-REF][%d]Faugeras Decomposition Failed : [err:%d]",10,0
         00000175 00000043 
         00000176 0000004E 
         00000177 0000002D 
         00000178 00000052 
         00000179 00000045 
         0000017a 00000046 
         0000017b 0000005D 
         0000017c 0000005B 
         0000017d 00000025 
         0000017e 00000064 
         0000017f 0000005D 
         00000180 00000046 
         00000181 00000061 
         00000182 00000075 
         00000183 00000067 
         00000184 00000065 
         00000185 00000072 
         00000186 00000061 
         00000187 00000073 
         00000188 00000020 
         00000189 00000044 
         0000018a 00000065 
         0000018b 00000063 
         0000018c 0000006F 
         0000018d 0000006D 
         0000018e 00000070 
         0000018f 0000006F 
         00000190 00000073 
         00000191 00000069 
         00000192 00000074 
         00000193 00000069 
         00000194 0000006F 
         00000195 0000006E 
         00000196 00000020 
         00000197 00000046 
         00000198 00000061 
         00000199 00000069 
         0000019a 0000006C 
         0000019b 00000065 
         0000019c 00000064 
         0000019d 00000020 
         0000019e 0000003A 
         0000019f 00000020 
         000001a0 0000005B 
         000001a1 00000065 
         000001a2 00000072 
         000001a3 00000072 
         000001a4 0000003A 
         000001a5 00000025 
         000001a6 00000064 
         000001a7 0000005D 
         000001a8 0000000A 
         000001a9 00000000 
TMS320C6x Assembler PC v7.4.2 Thu Mar 19 12:41:55 2015

Tools Copyright (c) 1996-2012 Texas Instruments Incorporated
package/lib/Regression/regress_d_c/./../packages/ti/vlib/src/VLIB_homographyDecomposition/VLIB_homographyDecomposition_d.se66 PAGE   71

    3435 000001aa 0000005B  $C$SL11:        .string "[Faugeras] [C66-CN] error # : %d",10,0
         000001ab 00000046 
         000001ac 00000061 
         000001ad 00000075 
         000001ae 00000067 
         000001af 00000065 
         000001b0 00000072 
         000001b1 00000061 
         000001b2 00000073 
         000001b3 0000005D 
         000001b4 00000020 
         000001b5 0000005B 
         000001b6 00000043 
         000001b7 00000036 
         000001b8 00000036 
         000001b9 0000002D 
         000001ba 00000043 
         000001bb 0000004E 
         000001bc 0000005D 
         000001bd 00000020 
         000001be 00000065 
         000001bf 00000072 
         000001c0 00000072 
         000001c1 0000006F 
         000001c2 00000072 
         000001c3 00000020 
         000001c4 00000023 
         000001c5 00000020 
         000001c6 0000003A 
         000001c7 00000020 
         000001c8 00000025 
         000001c9 00000064 
         000001ca 0000000A 
         000001cb 00000000 
    3436 000001cc 0000005B  $C$SL12:        .string "[Faugeras] [CN-REF] error # : %d",10,0
         000001cd 00000046 
         000001ce 00000061 
         000001cf 00000075 
         000001d0 00000067 
         000001d1 00000065 
         000001d2 00000072 
         000001d3 00000061 
         000001d4 00000073 
         000001d5 0000005D 
         000001d6 00000020 
         000001d7 0000005B 
         000001d8 00000043 
         000001d9 0000004E 
         000001da 0000002D 
         000001db 00000052 
         000001dc 00000045 
         000001dd 00000046 
         000001de 0000005D 
         000001df 00000020 
         000001e0 00000065 
TMS320C6x Assembler PC v7.4.2 Thu Mar 19 12:41:55 2015

Tools Copyright (c) 1996-2012 Texas Instruments Incorporated
package/lib/Regression/regress_d_c/./../packages/ti/vlib/src/VLIB_homographyDecomposition/VLIB_homographyDecomposition_d.se66 PAGE   72

         000001e1 00000072 
         000001e2 00000072 
         000001e3 0000006F 
         000001e4 00000072 
         000001e5 00000020 
         000001e6 00000023 
         000001e7 00000020 
         000001e8 0000003A 
         000001e9 00000020 
         000001ea 00000025 
         000001eb 00000064 
         000001ec 0000000A 
         000001ed 00000000 
    3437 000001ee 00000025  $C$SL13:        .string "%s generated input | Opt and NatC results compared to ref |"
         000001ef 00000073 
         000001f0 00000020 
         000001f1 00000067 
         000001f2 00000065 
         000001f3 0000006E 
         000001f4 00000065 
         000001f5 00000072 
         000001f6 00000061 
         000001f7 00000074 
         000001f8 00000065 
         000001f9 00000064 
         000001fa 00000020 
         000001fb 00000069 
         000001fc 0000006E 
         000001fd 00000070 
         000001fe 00000075 
         000001ff 00000074 
         00000200 00000020 
         00000201 0000007C 
         00000202 00000020 
         00000203 0000004F 
         00000204 00000070 
         00000205 00000074 
         00000206 00000020 
         00000207 00000061 
         00000208 0000006E 
         00000209 00000064 
         0000020a 00000020 
         0000020b 0000004E 
         0000020c 00000061 
         0000020d 00000074 
         0000020e 00000043 
         0000020f 00000020 
         00000210 00000072 
         00000211 00000065 
         00000212 00000073 
         00000213 00000075 
         00000214 0000006C 
         00000215 00000074 
         00000216 00000073 
         00000217 00000020 
TMS320C6x Assembler PC v7.4.2 Thu Mar 19 12:41:55 2015

Tools Copyright (c) 1996-2012 Texas Instruments Incorporated
package/lib/Regression/regress_d_c/./../packages/ti/vlib/src/VLIB_homographyDecomposition/VLIB_homographyDecomposition_d.se66 PAGE   73

         00000218 00000063 
         00000219 0000006F 
         0000021a 0000006D 
         0000021b 00000070 
         0000021c 00000061 
         0000021d 00000072 
         0000021e 00000065 
         0000021f 00000064 
         00000220 00000020 
         00000221 00000074 
         00000222 0000006F 
         00000223 00000020 
         00000224 00000072 
         00000225 00000065 
         00000226 00000066 
         00000227 00000020 
         00000228 0000007C 
    3438 00000229 00000020          .string " ",34,"Num pt",34," value is actually the number of times t"
         0000022a 00000022 
         0000022b 0000004E 
         0000022c 00000075 
         0000022d 0000006D 
         0000022e 00000020 
         0000022f 00000070 
         00000230 00000074 
         00000231 00000022 
         00000232 00000020 
         00000233 00000076 
         00000234 00000061 
         00000235 0000006C 
         00000236 00000075 
         00000237 00000065 
         00000238 00000020 
         00000239 00000069 
         0000023a 00000073 
         0000023b 00000020 
         0000023c 00000061 
         0000023d 00000063 
         0000023e 00000074 
         0000023f 00000075 
         00000240 00000061 
         00000241 0000006C 
         00000242 0000006C 
         00000243 00000079 
         00000244 00000020 
         00000245 00000074 
         00000246 00000068 
         00000247 00000065 
         00000248 00000020 
         00000249 0000006E 
         0000024a 00000075 
         0000024b 0000006D 
         0000024c 00000062 
         0000024d 00000065 
         0000024e 00000072 
TMS320C6x Assembler PC v7.4.2 Thu Mar 19 12:41:55 2015

Tools Copyright (c) 1996-2012 Texas Instruments Incorporated
package/lib/Regression/regress_d_c/./../packages/ti/vlib/src/VLIB_homographyDecomposition/VLIB_homographyDecomposition_d.se66 PAGE   74

         0000024f 00000020 
         00000250 0000006F 
         00000251 00000066 
         00000252 00000020 
         00000253 00000074 
         00000254 00000069 
         00000255 0000006D 
         00000256 00000065 
         00000257 00000073 
         00000258 00000020 
         00000259 00000074 
    3439 0000025a 00000068          .string "he test was called, so that the value shown is the average "
         0000025b 00000065 
         0000025c 00000020 
         0000025d 00000074 
         0000025e 00000065 
         0000025f 00000073 
         00000260 00000074 
         00000261 00000020 
         00000262 00000077 
         00000263 00000061 
         00000264 00000073 
         00000265 00000020 
         00000266 00000063 
         00000267 00000061 
         00000268 0000006C 
         00000269 0000006C 
         0000026a 00000065 
         0000026b 00000064 
         0000026c 0000002C 
         0000026d 00000020 
         0000026e 00000073 
         0000026f 0000006F 
         00000270 00000020 
         00000271 00000074 
         00000272 00000068 
         00000273 00000061 
         00000274 00000074 
         00000275 00000020 
         00000276 00000074 
         00000277 00000068 
         00000278 00000065 
         00000279 00000020 
         0000027a 00000076 
         0000027b 00000061 
         0000027c 0000006C 
         0000027d 00000075 
         0000027e 00000065 
         0000027f 00000020 
         00000280 00000073 
         00000281 00000068 
         00000282 0000006F 
         00000283 00000077 
         00000284 0000006E 
         00000285 00000020 
TMS320C6x Assembler PC v7.4.2 Thu Mar 19 12:41:55 2015

Tools Copyright (c) 1996-2012 Texas Instruments Incorporated
package/lib/Regression/regress_d_c/./../packages/ti/vlib/src/VLIB_homographyDecomposition/VLIB_homographyDecomposition_d.se66 PAGE   75

         00000286 00000069 
         00000287 00000073 
         00000288 00000020 
         00000289 00000074 
         0000028a 00000068 
         0000028b 00000065 
         0000028c 00000020 
         0000028d 00000061 
         0000028e 00000076 
         0000028f 00000065 
         00000290 00000072 
         00000291 00000061 
         00000292 00000067 
         00000293 00000065 
         00000294 00000020 
    3440 00000295 00000063          .string "cycle count per call",0
         00000296 00000079 
         00000297 00000063 
         00000298 0000006C 
         00000299 00000065 
         0000029a 00000020 
         0000029b 00000063 
         0000029c 0000006F 
         0000029d 00000075 
         0000029e 0000006E 
         0000029f 00000074 
         000002a0 00000020 
         000002a1 00000070 
         000002a2 00000065 
         000002a3 00000072 
         000002a4 00000020 
         000002a5 00000063 
         000002a6 00000061 
         000002a7 0000006C 
         000002a8 0000006C 
         000002a9 00000000 
    3441 000002aa 00000054  $C$SL14:        .string "Test iterations= %d",0
         000002ab 00000065 
         000002ac 00000073 
         000002ad 00000074 
         000002ae 00000020 
         000002af 00000069 
         000002b0 00000074 
         000002b1 00000065 
         000002b2 00000072 
         000002b3 00000061 
         000002b4 00000074 
         000002b5 00000069 
         000002b6 0000006F 
         000002b7 0000006E 
         000002b8 00000073 
         000002b9 0000003D 
         000002ba 00000020 
         000002bb 00000025 
         000002bc 00000064 
TMS320C6x Assembler PC v7.4.2 Thu Mar 19 12:41:55 2015

Tools Copyright (c) 1996-2012 Texas Instruments Incorporated
package/lib/Regression/regress_d_c/./../packages/ti/vlib/src/VLIB_homographyDecomposition/VLIB_homographyDecomposition_d.se66 PAGE   76

         000002bd 00000000 
    3442 000002be 00000031  $C$SL15:        .string "1 homography matrix",0
         000002bf 00000020 
         000002c0 00000068 
         000002c1 0000006F 
         000002c2 0000006D 
         000002c3 0000006F 
         000002c4 00000067 
         000002c5 00000072 
         000002c6 00000061 
         000002c7 00000070 
         000002c8 00000068 
         000002c9 00000079 
         000002ca 00000020 
         000002cb 0000006D 
         000002cc 00000061 
         000002cd 00000074 
         000002ce 00000072 
         000002cf 00000069 
         000002d0 00000078 
         000002d1 00000000 
    3443 000002d2 0000002D  $C$SL16:        .string "-----------------------------------------------------------"
         000002d3 0000002D 
         000002d4 0000002D 
         000002d5 0000002D 
         000002d6 0000002D 
         000002d7 0000002D 
         000002d8 0000002D 
         000002d9 0000002D 
         000002da 0000002D 
         000002db 0000002D 
         000002dc 0000002D 
         000002dd 0000002D 
         000002de 0000002D 
         000002df 0000002D 
         000002e0 0000002D 
         000002e1 0000002D 
         000002e2 0000002D 
         000002e3 0000002D 
         000002e4 0000002D 
         000002e5 0000002D 
         000002e6 0000002D 
         000002e7 0000002D 
         000002e8 0000002D 
         000002e9 0000002D 
         000002ea 0000002D 
         000002eb 0000002D 
         000002ec 0000002D 
         000002ed 0000002D 
         000002ee 0000002D 
         000002ef 0000002D 
         000002f0 0000002D 
         000002f1 0000002D 
         000002f2 0000002D 
         000002f3 0000002D 
TMS320C6x Assembler PC v7.4.2 Thu Mar 19 12:41:55 2015

Tools Copyright (c) 1996-2012 Texas Instruments Incorporated
package/lib/Regression/regress_d_c/./../packages/ti/vlib/src/VLIB_homographyDecomposition/VLIB_homographyDecomposition_d.se66 PAGE   77

         000002f4 0000002D 
         000002f5 0000002D 
         000002f6 0000002D 
         000002f7 0000002D 
         000002f8 0000002D 
         000002f9 0000002D 
         000002fa 0000002D 
         000002fb 0000002D 
         000002fc 0000002D 
         000002fd 0000002D 
         000002fe 0000002D 
         000002ff 0000002D 
         00000300 0000002D 
         00000301 0000002D 
         00000302 0000002D 
         00000303 0000002D 
         00000304 0000002D 
         00000305 0000002D 
         00000306 0000002D 
         00000307 0000002D 
         00000308 0000002D 
         00000309 0000002D 
         0000030a 0000002D 
         0000030b 0000002D 
         0000030c 0000002D 
    3444 0000030d 0000002D          .string "-----------------------------------------------------------"
         0000030e 0000002D 
         0000030f 0000002D 
         00000310 0000002D 
         00000311 0000002D 
         00000312 0000002D 
         00000313 0000002D 
         00000314 0000002D 
         00000315 0000002D 
         00000316 0000002D 
         00000317 0000002D 
         00000318 0000002D 
         00000319 0000002D 
         0000031a 0000002D 
         0000031b 0000002D 
         0000031c 0000002D 
         0000031d 0000002D 
         0000031e 0000002D 
         0000031f 0000002D 
         00000320 0000002D 
         00000321 0000002D 
         00000322 0000002D 
         00000323 0000002D 
         00000324 0000002D 
         00000325 0000002D 
         00000326 0000002D 
         00000327 0000002D 
         00000328 0000002D 
         00000329 0000002D 
         0000032a 0000002D 
TMS320C6x Assembler PC v7.4.2 Thu Mar 19 12:41:55 2015

Tools Copyright (c) 1996-2012 Texas Instruments Incorporated
package/lib/Regression/regress_d_c/./../packages/ti/vlib/src/VLIB_homographyDecomposition/VLIB_homographyDecomposition_d.se66 PAGE   78

         0000032b 0000002D 
         0000032c 0000002D 
         0000032d 0000002D 
         0000032e 0000002D 
         0000032f 0000002D 
         00000330 0000002D 
         00000331 0000002D 
         00000332 0000002D 
         00000333 0000002D 
         00000334 0000002D 
         00000335 0000002D 
         00000336 0000002D 
         00000337 0000002D 
         00000338 0000002D 
         00000339 0000002D 
         0000033a 0000002D 
         0000033b 0000002D 
         0000033c 0000002D 
         0000033d 0000002D 
         0000033e 0000002D 
         0000033f 0000002D 
         00000340 0000002D 
         00000341 0000002D 
         00000342 0000002D 
         00000343 0000002D 
         00000344 0000002D 
         00000345 0000002D 
         00000346 0000002D 
         00000347 0000002D 
    3445 00000348 0000002D          .string "-----------------------",10,0
         00000349 0000002D 
         0000034a 0000002D 
         0000034b 0000002D 
         0000034c 0000002D 
         0000034d 0000002D 
         0000034e 0000002D 
         0000034f 0000002D 
         00000350 0000002D 
         00000351 0000002D 
         00000352 0000002D 
         00000353 0000002D 
         00000354 0000002D 
         00000355 0000002D 
         00000356 0000002D 
         00000357 0000002D 
         00000358 0000002D 
         00000359 0000002D 
         0000035a 0000002D 
         0000035b 0000002D 
         0000035c 0000002D 
         0000035d 0000002D 
         0000035e 0000002D 
         0000035f 0000000A 
         00000360 00000000 
    3446                    ;*****************************************************************************
TMS320C6x Assembler PC v7.4.2 Thu Mar 19 12:41:55 2015

Tools Copyright (c) 1996-2012 Texas Instruments Incorporated
package/lib/Regression/regress_d_c/./../packages/ti/vlib/src/VLIB_homographyDecomposition/VLIB_homographyDecomposition_d.se66 PAGE   79

    3447                    ;* UNDEFINED EXTERNAL REFERENCES                                             *
    3448                    ;*****************************************************************************
    3449                            .global printf
    3450                            .global sprintf
    3451                            .global free
    3452                            .global memalign
    3453                            .global VLIB_cache_inval
    3454                            .global VLIB_profile_init
    3455                            .global VLIB_formula_add_test
    3456                            .global VLIB_skip_test
    3457                            .global VLIB_profile_cycle_report
    3458                            .global initStack
    3459                            .global setStackDepth
    3460                            .global getSP
    3461                            .global VLIB_stack_memory
    3462                            .global VLIB_fillBuffer
    3463                            .global VLIB_memalign
    3464                            .global VLIB_align_free
    3465                            .global VLIB_homographyDecomposition
    3466                            .global VLIB_homographyDecomposition_cn
    3467                            .global homographyDecomposition_getTestParams
    3468                            .global test_cases
    3469                            .global act_kernel
    3470                            .global desc
    3471                            .global testPatternString
    3472                            .global est_test
    3473                            .global beg_count
    3474                            .global end_count
    3475                            .global overhead
    3476                            .global cycles
    3477                    
    3478                    ;******************************************************************************
    3479                    ;* BUILD ATTRIBUTES                                                           *
    3480                    ;******************************************************************************
    3481                            .battr "TI", Tag_File, 1, Tag_Long_Precision_Bits(2)
    3482                            .battr "TI", Tag_File, 1, Tag_Bitfield_layout(2)
    3483                            .battr "TI", Tag_File, 1, Tag_ABI_enum_size(2)
    3484                            .battr "c6xabi", Tag_File, 1, Tag_ABI_wchar_t(1)
    3485                            .battr "c6xabi", Tag_File, 1, Tag_ABI_array_object_alignment(0)
    3486                            .battr "c6xabi", Tag_File, 1, Tag_ABI_array_object_align_expected(0)
    3487                            .battr "c6xabi", Tag_File, 1, Tag_ABI_PIC(0)
    3488                            .battr "c6xabi", Tag_File, 1, Tag_ABI_PID(0)
    3489                            .battr "c6xabi", Tag_File, 1, Tag_ABI_DSBT(0)
    3490                            .battr "c6xabi", Tag_File, 1, Tag_ABI_stack_align_needed(0)
    3491                            .battr "c6xabi", Tag_File, 1, Tag_ABI_stack_align_preserved(0)
    3492                            .battr "TI", Tag_File, 1, Tag_Tramps_Use_SOC(1)
    3493                    
    3494                    ;******************************************************************************
    3495                    ;* TYPE INFORMATION                                                           *
    3496                    ;******************************************************************************
    3497                    
    3498                    $C$DW$T$40      .dwtag  DW_TAG_enumeration_type
    3499                            .dwattr $C$DW$T$40, DW_AT_byte_size(0x04)
    3500                    $C$DW$290       .dwtag  DW_TAG_enumerator, DW_AT_name("VLIB_NO_ERROR"), DW_AT_const_value(0x00)
    3501                            .dwattr $C$DW$290, DW_AT_decl_file(".\..\packages\ti\vlib\src\VLIB_homographyDecomposition\..\
TMS320C6x Assembler PC v7.4.2 Thu Mar 19 12:41:55 2015

Tools Copyright (c) 1996-2012 Texas Instruments Incorporated
package/lib/Regression/regress_d_c/./../packages/ti/vlib/src/VLIB_homographyDecomposition/VLIB_homographyDecomposition_d.se66 PAGE   80

    3502                            .dwattr $C$DW$290, DW_AT_decl_line(0x7a)
    3503                            .dwattr $C$DW$290, DW_AT_decl_column(0x05)
    3504                    $C$DW$291       .dwtag  DW_TAG_enumerator, DW_AT_name("VLIB_ERR_INPUT_INVALID"), DW_AT_const_value(0x0
    3505                            .dwattr $C$DW$291, DW_AT_decl_file(".\..\packages\ti\vlib\src\VLIB_homographyDecomposition\..\
    3506                            .dwattr $C$DW$291, DW_AT_decl_line(0x7b)
    3507                            .dwattr $C$DW$291, DW_AT_decl_column(0x05)
    3508                    $C$DW$292       .dwtag  DW_TAG_enumerator, DW_AT_name("VLIB_ERR_INPUT_NEGATIVE"), DW_AT_const_value(0x
    3509                            .dwattr $C$DW$292, DW_AT_decl_file(".\..\packages\ti\vlib\src\VLIB_homographyDecomposition\..\
    3510                            .dwattr $C$DW$292, DW_AT_decl_line(0x7c)
    3511                            .dwattr $C$DW$292, DW_AT_decl_column(0x05)
    3512                    $C$DW$293       .dwtag  DW_TAG_enumerator, DW_AT_name("VLIB_ERR_INPUT_EXCEEDED_RANGE"), DW_AT_const_va
    3513                            .dwattr $C$DW$293, DW_AT_decl_file(".\..\packages\ti\vlib\src\VLIB_homographyDecomposition\..\
    3514                            .dwattr $C$DW$293, DW_AT_decl_line(0x7d)
    3515                            .dwattr $C$DW$293, DW_AT_decl_column(0x05)
    3516                    $C$DW$294       .dwtag  DW_TAG_enumerator, DW_AT_name("VLIB_ERR_MEMORY_EXCEEDED_BOUNDARY"), DW_AT_cons
    3517                            .dwattr $C$DW$294, DW_AT_decl_file(".\..\packages\ti\vlib\src\VLIB_homographyDecomposition\..\
    3518                            .dwattr $C$DW$294, DW_AT_decl_line(0x7e)
    3519                            .dwattr $C$DW$294, DW_AT_decl_column(0x05)
    3520                    $C$DW$295       .dwtag  DW_TAG_enumerator, DW_AT_name("VLIB_ERR_MEMORY_ALLOCATION_FAILURE"), DW_AT_con
    3521                            .dwattr $C$DW$295, DW_AT_decl_file(".\..\packages\ti\vlib\src\VLIB_homographyDecomposition\..\
    3522                            .dwattr $C$DW$295, DW_AT_decl_line(0x7f)
    3523                            .dwattr $C$DW$295, DW_AT_decl_column(0x05)
    3524                    $C$DW$296       .dwtag  DW_TAG_enumerator, DW_AT_name("VLIB_ERR_MEMORY_POINTER_NULL"), DW_AT_const_val
    3525                            .dwattr $C$DW$296, DW_AT_decl_file(".\..\packages\ti\vlib\src\VLIB_homographyDecomposition\..\
    3526                            .dwattr $C$DW$296, DW_AT_decl_line(0x80)
    3527                            .dwattr $C$DW$296, DW_AT_decl_column(0x05)
    3528                    $C$DW$297       .dwtag  DW_TAG_enumerator, DW_AT_name("VLIB_ERR_DMA_FAILURE"), DW_AT_const_value(0x07)
    3529                            .dwattr $C$DW$297, DW_AT_decl_file(".\..\packages\ti\vlib\src\VLIB_homographyDecomposition\..\
    3530                            .dwattr $C$DW$297, DW_AT_decl_line(0x81)
    3531                            .dwattr $C$DW$297, DW_AT_decl_column(0x05)
    3532                    $C$DW$298       .dwtag  DW_TAG_enumerator, DW_AT_name("VLIB_ERR_FILE_OPEN_FAILURE"), DW_AT_const_value
    3533                            .dwattr $C$DW$298, DW_AT_decl_file(".\..\packages\ti\vlib\src\VLIB_homographyDecomposition\..\
    3534                            .dwattr $C$DW$298, DW_AT_decl_line(0x82)
    3535                            .dwattr $C$DW$298, DW_AT_decl_column(0x05)
    3536                    $C$DW$299       .dwtag  DW_TAG_enumerator, DW_AT_name("VLIB_ERR_FILE_READ_FAILURE"), DW_AT_const_value
    3537                            .dwattr $C$DW$299, DW_AT_decl_file(".\..\packages\ti\vlib\src\VLIB_homographyDecomposition\..\
    3538                            .dwattr $C$DW$299, DW_AT_decl_line(0x83)
    3539                            .dwattr $C$DW$299, DW_AT_decl_column(0x05)
    3540                    $C$DW$300       .dwtag  DW_TAG_enumerator, DW_AT_name("VLIB_ERR_FILE_WRITE_FAILURE"), DW_AT_const_valu
    3541                            .dwattr $C$DW$300, DW_AT_decl_file(".\..\packages\ti\vlib\src\VLIB_homographyDecomposition\..\
    3542                            .dwattr $C$DW$300, DW_AT_decl_line(0x84)
    3543                            .dwattr $C$DW$300, DW_AT_decl_column(0x05)
    3544                    $C$DW$301       .dwtag  DW_TAG_enumerator, DW_AT_name("VLIB_ERR_FILE_CLOSE_FAILURE"), DW_AT_const_valu
    3545                            .dwattr $C$DW$301, DW_AT_decl_file(".\..\packages\ti\vlib\src\VLIB_homographyDecomposition\..\
    3546                            .dwattr $C$DW$301, DW_AT_decl_line(0x85)
    3547                            .dwattr $C$DW$301, DW_AT_decl_column(0x05)
    3548                    $C$DW$302       .dwtag  DW_TAG_enumerator, DW_AT_name("VLIB_ERR_FILE_FORMAT_FAILURE"), DW_AT_const_val
    3549                            .dwattr $C$DW$302, DW_AT_decl_file(".\..\packages\ti\vlib\src\VLIB_homographyDecomposition\..\
    3550                            .dwattr $C$DW$302, DW_AT_decl_line(0x86)
    3551                            .dwattr $C$DW$302, DW_AT_decl_column(0x05)
    3552                    $C$DW$303       .dwtag  DW_TAG_enumerator, DW_AT_name("VLIB_WARNING_LOW_MEMORY"), DW_AT_const_value(0x
    3553                            .dwattr $C$DW$303, DW_AT_decl_file(".\..\packages\ti\vlib\src\VLIB_homographyDecomposition\..\
    3554                            .dwattr $C$DW$303, DW_AT_decl_line(0x87)
    3555                            .dwattr $C$DW$303, DW_AT_decl_column(0x05)
    3556                    $C$DW$304       .dwtag  DW_TAG_enumerator, DW_AT_name("VLIB_ERR_NOT_IMPLEMENTED"), DW_AT_const_value(0
TMS320C6x Assembler PC v7.4.2 Thu Mar 19 12:41:55 2015

Tools Copyright (c) 1996-2012 Texas Instruments Incorporated
package/lib/Regression/regress_d_c/./../packages/ti/vlib/src/VLIB_homographyDecomposition/VLIB_homographyDecomposition_d.se66 PAGE   81

    3557                            .dwattr $C$DW$304, DW_AT_decl_file(".\..\packages\ti\vlib\src\VLIB_homographyDecomposition\..\
    3558                            .dwattr $C$DW$304, DW_AT_decl_line(0x88)
    3559                            .dwattr $C$DW$304, DW_AT_decl_column(0x05)
    3560                    $C$DW$305       .dwtag  DW_TAG_enumerator, DW_AT_name("VLIB_ERROR_MAX"), DW_AT_const_value(0x0f)
    3561                            .dwattr $C$DW$305, DW_AT_decl_file(".\..\packages\ti\vlib\src\VLIB_homographyDecomposition\..\
    3562                            .dwattr $C$DW$305, DW_AT_decl_line(0x89)
    3563                            .dwattr $C$DW$305, DW_AT_decl_column(0x05)
    3564                            .dwendtag $C$DW$T$40
    3565                    
    3566                            .dwattr $C$DW$T$40, DW_AT_decl_file(".\..\packages\ti\vlib\src\VLIB_homographyDecomposition\..
    3567                            .dwattr $C$DW$T$40, DW_AT_decl_line(0x79)
    3568                            .dwattr $C$DW$T$40, DW_AT_decl_column(0x0e)
    3569                    $C$DW$T$41      .dwtag  DW_TAG_typedef, DW_AT_name("VLIB_STATUS")
    3570                            .dwattr $C$DW$T$41, DW_AT_type(*$C$DW$T$40)
    3571                            .dwattr $C$DW$T$41, DW_AT_language(DW_LANG_C)
    3572                            .dwattr $C$DW$T$41, DW_AT_decl_file(".\..\packages\ti\vlib\src\VLIB_homographyDecomposition\..
    3573                            .dwattr $C$DW$T$41, DW_AT_decl_line(0x8a)
    3574                            .dwattr $C$DW$T$41, DW_AT_decl_column(0x03)
    3575                    
    3576                    $C$DW$T$42      .dwtag  DW_TAG_enumeration_type
    3577                            .dwattr $C$DW$T$42, DW_AT_byte_size(0x04)
    3578                    $C$DW$306       .dwtag  DW_TAG_enumerator, DW_AT_name("vlib_KERNEL_OPT"), DW_AT_const_value(0x00)
    3579                            .dwattr $C$DW$306, DW_AT_decl_file(".\..\packages\ti\vlib\src\VLIB_homographyDecomposition\../
    3580                            .dwattr $C$DW$306, DW_AT_decl_line(0x6a)
    3581                            .dwattr $C$DW$306, DW_AT_decl_column(0x05)
    3582                    $C$DW$307       .dwtag  DW_TAG_enumerator, DW_AT_name("vlib_KERNEL_CN"), DW_AT_const_value(0x01)
    3583                            .dwattr $C$DW$307, DW_AT_decl_file(".\..\packages\ti\vlib\src\VLIB_homographyDecomposition\../
    3584                            .dwattr $C$DW$307, DW_AT_decl_line(0x6b)
    3585                            .dwattr $C$DW$307, DW_AT_decl_column(0x05)
    3586                    $C$DW$308       .dwtag  DW_TAG_enumerator, DW_AT_name("vlib_KERNEL_CNT"), DW_AT_const_value(0x02)
    3587                            .dwattr $C$DW$308, DW_AT_decl_file(".\..\packages\ti\vlib\src\VLIB_homographyDecomposition\../
    3588                            .dwattr $C$DW$308, DW_AT_decl_line(0x6c)
    3589                            .dwattr $C$DW$308, DW_AT_decl_column(0x05)
    3590                            .dwendtag $C$DW$T$42
    3591                    
    3592                            .dwattr $C$DW$T$42, DW_AT_decl_file(".\..\packages\ti\vlib\src\VLIB_homographyDecomposition\..
    3593                            .dwattr $C$DW$T$42, DW_AT_decl_line(0x69)
    3594                            .dwattr $C$DW$T$42, DW_AT_decl_column(0x06)
    3595                    
    3596                    $C$DW$T$43      .dwtag  DW_TAG_enumeration_type
    3597                            .dwattr $C$DW$T$43, DW_AT_byte_size(0x04)
    3598                    $C$DW$309       .dwtag  DW_TAG_enumerator, DW_AT_name("vlib_KERNEL_FAIL"), DW_AT_const_value(0x00)
    3599                            .dwattr $C$DW$309, DW_AT_decl_file(".\..\packages\ti\vlib\src\VLIB_homographyDecomposition\../
    3600                            .dwattr $C$DW$309, DW_AT_decl_line(0x72)
    3601                            .dwattr $C$DW$309, DW_AT_decl_column(0x05)
    3602                    $C$DW$310       .dwtag  DW_TAG_enumerator, DW_AT_name("vlib_KERNEL_PASS"), DW_AT_const_value(0x01)
    3603                            .dwattr $C$DW$310, DW_AT_decl_file(".\..\packages\ti\vlib\src\VLIB_homographyDecomposition\../
    3604                            .dwattr $C$DW$310, DW_AT_decl_line(0x73)
    3605                            .dwattr $C$DW$310, DW_AT_decl_column(0x05)
    3606                            .dwendtag $C$DW$T$43
    3607                    
    3608                            .dwattr $C$DW$T$43, DW_AT_decl_file(".\..\packages\ti\vlib\src\VLIB_homographyDecomposition\..
    3609                            .dwattr $C$DW$T$43, DW_AT_decl_line(0x71)
    3610                            .dwattr $C$DW$T$43, DW_AT_decl_column(0x06)
    3611                    
TMS320C6x Assembler PC v7.4.2 Thu Mar 19 12:41:55 2015

Tools Copyright (c) 1996-2012 Texas Instruments Incorporated
package/lib/Regression/regress_d_c/./../packages/ti/vlib/src/VLIB_homographyDecomposition/VLIB_homographyDecomposition_d.se66 PAGE   82

    3612                    $C$DW$T$23      .dwtag  DW_TAG_structure_type
    3613                            .dwattr $C$DW$T$23, DW_AT_byte_size(0x20)
    3614                    $C$DW$311       .dwtag  DW_TAG_member
    3615                            .dwattr $C$DW$311, DW_AT_type(*$C$DW$T$19)
    3616                            .dwattr $C$DW$311, DW_AT_name("testPattern")
    3617                            .dwattr $C$DW$311, DW_AT_TI_symbol_name("testPattern")
    3618                            .dwattr $C$DW$311, DW_AT_data_member_location[DW_OP_plus_uconst 0x0]
    3619                            .dwattr $C$DW$311, DW_AT_accessibility(DW_ACCESS_public)
    3620                            .dwattr $C$DW$311, DW_AT_decl_file(".\..\packages\ti\vlib\src\VLIB_homographyDecomposition\VLI
    3621                            .dwattr $C$DW$311, DW_AT_decl_line(0x29)
    3622                            .dwattr $C$DW$311, DW_AT_decl_column(0x0f)
    3623                    $C$DW$312       .dwtag  DW_TAG_member
    3624                            .dwattr $C$DW$312, DW_AT_type(*$C$DW$T$21)
    3625                            .dwattr $C$DW$312, DW_AT_name("staticInH")
    3626                            .dwattr $C$DW$312, DW_AT_TI_symbol_name("staticInH")
    3627                            .dwattr $C$DW$312, DW_AT_data_member_location[DW_OP_plus_uconst 0x4]
    3628                            .dwattr $C$DW$312, DW_AT_accessibility(DW_ACCESS_public)
    3629                            .dwattr $C$DW$312, DW_AT_decl_file(".\..\packages\ti\vlib\src\VLIB_homographyDecomposition\VLI
    3630                            .dwattr $C$DW$312, DW_AT_decl_line(0x2a)
    3631                            .dwattr $C$DW$312, DW_AT_decl_column(0x0f)
    3632                    $C$DW$313       .dwtag  DW_TAG_member
    3633                            .dwattr $C$DW$313, DW_AT_type(*$C$DW$T$21)
    3634                            .dwattr $C$DW$313, DW_AT_name("staticOutRot")
    3635                            .dwattr $C$DW$313, DW_AT_TI_symbol_name("staticOutRot")
    3636                            .dwattr $C$DW$313, DW_AT_data_member_location[DW_OP_plus_uconst 0x8]
    3637                            .dwattr $C$DW$313, DW_AT_accessibility(DW_ACCESS_public)
    3638                            .dwattr $C$DW$313, DW_AT_decl_file(".\..\packages\ti\vlib\src\VLIB_homographyDecomposition\VLI
    3639                            .dwattr $C$DW$313, DW_AT_decl_line(0x2b)
    3640                            .dwattr $C$DW$313, DW_AT_decl_column(0x0f)
    3641                    $C$DW$314       .dwtag  DW_TAG_member
    3642                            .dwattr $C$DW$314, DW_AT_type(*$C$DW$T$21)
    3643                            .dwattr $C$DW$314, DW_AT_name("staticOutTr")
    3644                            .dwattr $C$DW$314, DW_AT_TI_symbol_name("staticOutTr")
    3645                            .dwattr $C$DW$314, DW_AT_data_member_location[DW_OP_plus_uconst 0xc]
    3646                            .dwattr $C$DW$314, DW_AT_accessibility(DW_ACCESS_public)
    3647                            .dwattr $C$DW$314, DW_AT_decl_file(".\..\packages\ti\vlib\src\VLIB_homographyDecomposition\VLI
    3648                            .dwattr $C$DW$314, DW_AT_decl_line(0x2c)
    3649                            .dwattr $C$DW$314, DW_AT_decl_column(0x0f)
    3650                    $C$DW$315       .dwtag  DW_TAG_member
    3651                            .dwattr $C$DW$315, DW_AT_type(*$C$DW$T$21)
    3652                            .dwattr $C$DW$315, DW_AT_name("staticOutPr")
    3653                            .dwattr $C$DW$315, DW_AT_TI_symbol_name("staticOutPr")
    3654                            .dwattr $C$DW$315, DW_AT_data_member_location[DW_OP_plus_uconst 0x10]
    3655                            .dwattr $C$DW$315, DW_AT_accessibility(DW_ACCESS_public)
    3656                            .dwattr $C$DW$315, DW_AT_decl_file(".\..\packages\ti\vlib\src\VLIB_homographyDecomposition\VLI
    3657                            .dwattr $C$DW$315, DW_AT_decl_line(0x2d)
    3658                            .dwattr $C$DW$315, DW_AT_decl_column(0x0f)
    3659                    $C$DW$316       .dwtag  DW_TAG_member
    3660                            .dwattr $C$DW$316, DW_AT_type(*$C$DW$T$22)
    3661                            .dwattr $C$DW$316, DW_AT_name("testIterations")
    3662                            .dwattr $C$DW$316, DW_AT_TI_symbol_name("testIterations")
    3663                            .dwattr $C$DW$316, DW_AT_data_member_location[DW_OP_plus_uconst 0x14]
    3664                            .dwattr $C$DW$316, DW_AT_accessibility(DW_ACCESS_public)
    3665                            .dwattr $C$DW$316, DW_AT_decl_file(".\..\packages\ti\vlib\src\VLIB_homographyDecomposition\VLI
    3666                            .dwattr $C$DW$316, DW_AT_decl_line(0x2e)
TMS320C6x Assembler PC v7.4.2 Thu Mar 19 12:41:55 2015

Tools Copyright (c) 1996-2012 Texas Instruments Incorporated
package/lib/Regression/regress_d_c/./../packages/ti/vlib/src/VLIB_homographyDecomposition/VLIB_homographyDecomposition_d.se66 PAGE   83

    3667                            .dwattr $C$DW$316, DW_AT_decl_column(0x0f)
    3668                    $C$DW$317       .dwtag  DW_TAG_member
    3669                            .dwattr $C$DW$317, DW_AT_type(*$C$DW$T$20)
    3670                            .dwattr $C$DW$317, DW_AT_name("testErrorThreshold")
    3671                            .dwattr $C$DW$317, DW_AT_TI_symbol_name("testErrorThreshold")
    3672                            .dwattr $C$DW$317, DW_AT_data_member_location[DW_OP_plus_uconst 0x18]
    3673                            .dwattr $C$DW$317, DW_AT_accessibility(DW_ACCESS_public)
    3674                            .dwattr $C$DW$317, DW_AT_decl_file(".\..\packages\ti\vlib\src\VLIB_homographyDecomposition\VLI
    3675                            .dwattr $C$DW$317, DW_AT_decl_line(0x2f)
    3676                            .dwattr $C$DW$317, DW_AT_decl_column(0x0f)
    3677                            .dwendtag $C$DW$T$23
    3678                    
    3679                            .dwattr $C$DW$T$23, DW_AT_decl_file(".\..\packages\ti\vlib\src\VLIB_homographyDecomposition\VL
    3680                            .dwattr $C$DW$T$23, DW_AT_decl_line(0x28)
    3681                            .dwattr $C$DW$T$23, DW_AT_decl_column(0x10)
    3682                    $C$DW$T$44      .dwtag  DW_TAG_pointer_type
    3683                            .dwattr $C$DW$T$44, DW_AT_type(*$C$DW$T$23)
    3684                            .dwattr $C$DW$T$44, DW_AT_address_class(0x20)
    3685                    $C$DW$T$46      .dwtag  DW_TAG_typedef, DW_AT_name("homographyDecomposition_testParams_t")
    3686                            .dwattr $C$DW$T$46, DW_AT_type(*$C$DW$T$23)
    3687                            .dwattr $C$DW$T$46, DW_AT_language(DW_LANG_C)
    3688                            .dwattr $C$DW$T$46, DW_AT_decl_file(".\..\packages\ti\vlib\src\VLIB_homographyDecomposition\VL
    3689                            .dwattr $C$DW$T$46, DW_AT_decl_line(0x30)
    3690                            .dwattr $C$DW$T$46, DW_AT_decl_column(0x03)
    3691                    $C$DW$T$47      .dwtag  DW_TAG_pointer_type
    3692                            .dwattr $C$DW$T$47, DW_AT_type(*$C$DW$T$46)
    3693                            .dwattr $C$DW$T$47, DW_AT_address_class(0x20)
    3694                    $C$DW$T$48      .dwtag  DW_TAG_pointer_type
    3695                            .dwattr $C$DW$T$48, DW_AT_type(*$C$DW$T$47)
    3696                            .dwattr $C$DW$T$48, DW_AT_address_class(0x20)
    3697                    
    3698                    $C$DW$T$26      .dwtag  DW_TAG_structure_type
    3699                            .dwattr $C$DW$T$26, DW_AT_byte_size(0x48)
    3700                    $C$DW$318       .dwtag  DW_TAG_member
    3701                            .dwattr $C$DW$318, DW_AT_type(*$C$DW$T$25)
    3702                            .dwattr $C$DW$318, DW_AT_name("H")
    3703                            .dwattr $C$DW$318, DW_AT_TI_symbol_name("H")
    3704                            .dwattr $C$DW$318, DW_AT_data_member_location[DW_OP_plus_uconst 0x0]
    3705                            .dwattr $C$DW$318, DW_AT_accessibility(DW_ACCESS_public)
    3706                            .dwattr $C$DW$318, DW_AT_decl_file(".\..\packages\ti\vlib\src\VLIB_homographyDecomposition\VLI
    3707                            .dwattr $C$DW$318, DW_AT_decl_line(0x25)
    3708                            .dwattr $C$DW$318, DW_AT_decl_column(0x0e)
    3709                            .dwendtag $C$DW$T$26
    3710                    
    3711                            .dwattr $C$DW$T$26, DW_AT_decl_file(".\..\packages\ti\vlib\src\VLIB_homographyDecomposition\VL
    3712                            .dwattr $C$DW$T$26, DW_AT_decl_line(0x24)
    3713                            .dwattr $C$DW$T$26, DW_AT_decl_column(0x10)
    3714                    $C$DW$T$49      .dwtag  DW_TAG_typedef, DW_AT_name("H3x3_t")
    3715                            .dwattr $C$DW$T$49, DW_AT_type(*$C$DW$T$26)
    3716                            .dwattr $C$DW$T$49, DW_AT_language(DW_LANG_C)
    3717                            .dwattr $C$DW$T$49, DW_AT_decl_file(".\..\packages\ti\vlib\src\VLIB_homographyDecomposition\VL
    3718                            .dwattr $C$DW$T$49, DW_AT_decl_line(0x26)
    3719                            .dwattr $C$DW$T$49, DW_AT_decl_column(0x03)
    3720                    $C$DW$T$50      .dwtag  DW_TAG_pointer_type
    3721                            .dwattr $C$DW$T$50, DW_AT_type(*$C$DW$T$49)
TMS320C6x Assembler PC v7.4.2 Thu Mar 19 12:41:55 2015

Tools Copyright (c) 1996-2012 Texas Instruments Incorporated
package/lib/Regression/regress_d_c/./../packages/ti/vlib/src/VLIB_homographyDecomposition/VLIB_homographyDecomposition_d.se66 PAGE   84

    3722                            .dwattr $C$DW$T$50, DW_AT_address_class(0x20)
    3723                    
    3724                    $C$DW$T$28      .dwtag  DW_TAG_structure_type
    3725                            .dwattr $C$DW$T$28, DW_AT_byte_size(0x18)
    3726                    $C$DW$319       .dwtag  DW_TAG_member
    3727                            .dwattr $C$DW$319, DW_AT_type(*$C$DW$T$10)
    3728                            .dwattr $C$DW$319, DW_AT_name("fd")
    3729                            .dwattr $C$DW$319, DW_AT_TI_symbol_name("fd")
    3730                            .dwattr $C$DW$319, DW_AT_data_member_location[DW_OP_plus_uconst 0x0]
    3731                            .dwattr $C$DW$319, DW_AT_accessibility(DW_ACCESS_public)
    3732                            .dwattr $C$DW$319, DW_AT_decl_file("C:/VLIB_Tools/CCSV5_4_0/ccsv5/tools/compiler/C6000/include
    3733                            .dwattr $C$DW$319, DW_AT_decl_line(0x49)
    3734                            .dwattr $C$DW$319, DW_AT_decl_column(0x0b)
    3735                    $C$DW$320       .dwtag  DW_TAG_member
    3736                            .dwattr $C$DW$320, DW_AT_type(*$C$DW$T$27)
    3737                            .dwattr $C$DW$320, DW_AT_name("buf")
    3738                            .dwattr $C$DW$320, DW_AT_TI_symbol_name("buf")
    3739                            .dwattr $C$DW$320, DW_AT_data_member_location[DW_OP_plus_uconst 0x4]
    3740                            .dwattr $C$DW$320, DW_AT_accessibility(DW_ACCESS_public)
    3741                            .dwattr $C$DW$320, DW_AT_decl_file("C:/VLIB_Tools/CCSV5_4_0/ccsv5/tools/compiler/C6000/include
    3742                            .dwattr $C$DW$320, DW_AT_decl_line(0x4a)
    3743                            .dwattr $C$DW$320, DW_AT_decl_column(0x16)
    3744                    $C$DW$321       .dwtag  DW_TAG_member
    3745                            .dwattr $C$DW$321, DW_AT_type(*$C$DW$T$27)
    3746                            .dwattr $C$DW$321, DW_AT_name("pos")
    3747                            .dwattr $C$DW$321, DW_AT_TI_symbol_name("pos")
    3748                            .dwattr $C$DW$321, DW_AT_data_member_location[DW_OP_plus_uconst 0x8]
    3749                            .dwattr $C$DW$321, DW_AT_accessibility(DW_ACCESS_public)
    3750                            .dwattr $C$DW$321, DW_AT_decl_file("C:/VLIB_Tools/CCSV5_4_0/ccsv5/tools/compiler/C6000/include
    3751                            .dwattr $C$DW$321, DW_AT_decl_line(0x4b)
    3752                            .dwattr $C$DW$321, DW_AT_decl_column(0x16)
    3753                    $C$DW$322       .dwtag  DW_TAG_member
    3754                            .dwattr $C$DW$322, DW_AT_type(*$C$DW$T$27)
    3755                            .dwattr $C$DW$322, DW_AT_name("bufend")
    3756                            .dwattr $C$DW$322, DW_AT_TI_symbol_name("bufend")
    3757                            .dwattr $C$DW$322, DW_AT_data_member_location[DW_OP_plus_uconst 0xc]
    3758                            .dwattr $C$DW$322, DW_AT_accessibility(DW_ACCESS_public)
    3759                            .dwattr $C$DW$322, DW_AT_decl_file("C:/VLIB_Tools/CCSV5_4_0/ccsv5/tools/compiler/C6000/include
    3760                            .dwattr $C$DW$322, DW_AT_decl_line(0x4c)
    3761                            .dwattr $C$DW$322, DW_AT_decl_column(0x16)
    3762                    $C$DW$323       .dwtag  DW_TAG_member
    3763                            .dwattr $C$DW$323, DW_AT_type(*$C$DW$T$27)
    3764                            .dwattr $C$DW$323, DW_AT_name("buff_stop")
    3765                            .dwattr $C$DW$323, DW_AT_TI_symbol_name("buff_stop")
    3766                            .dwattr $C$DW$323, DW_AT_data_member_location[DW_OP_plus_uconst 0x10]
    3767                            .dwattr $C$DW$323, DW_AT_accessibility(DW_ACCESS_public)
    3768                            .dwattr $C$DW$323, DW_AT_decl_file("C:/VLIB_Tools/CCSV5_4_0/ccsv5/tools/compiler/C6000/include
    3769                            .dwattr $C$DW$323, DW_AT_decl_line(0x4d)
    3770                            .dwattr $C$DW$323, DW_AT_decl_column(0x16)
    3771                    $C$DW$324       .dwtag  DW_TAG_member
    3772                            .dwattr $C$DW$324, DW_AT_type(*$C$DW$T$11)
    3773                            .dwattr $C$DW$324, DW_AT_name("flags")
    3774                            .dwattr $C$DW$324, DW_AT_TI_symbol_name("flags")
    3775                            .dwattr $C$DW$324, DW_AT_data_member_location[DW_OP_plus_uconst 0x14]
    3776                            .dwattr $C$DW$324, DW_AT_accessibility(DW_ACCESS_public)
TMS320C6x Assembler PC v7.4.2 Thu Mar 19 12:41:55 2015

Tools Copyright (c) 1996-2012 Texas Instruments Incorporated
package/lib/Regression/regress_d_c/./../packages/ti/vlib/src/VLIB_homographyDecomposition/VLIB_homographyDecomposition_d.se66 PAGE   85

    3777                            .dwattr $C$DW$324, DW_AT_decl_file("C:/VLIB_Tools/CCSV5_4_0/ccsv5/tools/compiler/C6000/include
    3778                            .dwattr $C$DW$324, DW_AT_decl_line(0x4e)
    3779                            .dwattr $C$DW$324, DW_AT_decl_column(0x16)
    3780                            .dwendtag $C$DW$T$28
    3781                    
    3782                            .dwattr $C$DW$T$28, DW_AT_decl_file("C:/VLIB_Tools/CCSV5_4_0/ccsv5/tools/compiler/C6000/includ
    3783                            .dwattr $C$DW$T$28, DW_AT_decl_line(0x48)
    3784                            .dwattr $C$DW$T$28, DW_AT_decl_column(0x10)
    3785                    $C$DW$T$52      .dwtag  DW_TAG_typedef, DW_AT_name("FILE")
    3786                            .dwattr $C$DW$T$52, DW_AT_type(*$C$DW$T$28)
    3787                            .dwattr $C$DW$T$52, DW_AT_language(DW_LANG_C)
    3788                            .dwattr $C$DW$T$52, DW_AT_decl_file("C:/VLIB_Tools/CCSV5_4_0/ccsv5/tools/compiler/C6000/includ
    3789                            .dwattr $C$DW$T$52, DW_AT_decl_line(0x4f)
    3790                            .dwattr $C$DW$T$52, DW_AT_decl_column(0x03)
    3791                    
    3792                    $C$DW$T$29      .dwtag  DW_TAG_structure_type
    3793                            .dwattr $C$DW$T$29, DW_AT_byte_size(0x08)
    3794                    $C$DW$325       .dwtag  DW_TAG_member
    3795                            .dwattr $C$DW$325, DW_AT_type(*$C$DW$T$10)
    3796                            .dwattr $C$DW$325, DW_AT_name("quot")
    3797                            .dwattr $C$DW$325, DW_AT_TI_symbol_name("quot")
    3798                            .dwattr $C$DW$325, DW_AT_data_member_location[DW_OP_plus_uconst 0x0]
    3799                            .dwattr $C$DW$325, DW_AT_accessibility(DW_ACCESS_public)
    3800                            .dwattr $C$DW$325, DW_AT_decl_file("C:/VLIB_Tools/CCSV5_4_0/ccsv5/tools/compiler/C6000/include
    3801                            .dwattr $C$DW$325, DW_AT_decl_line(0x3e)
    3802                            .dwattr $C$DW$325, DW_AT_decl_column(0x16)
    3803                    $C$DW$326       .dwtag  DW_TAG_member
    3804                            .dwattr $C$DW$326, DW_AT_type(*$C$DW$T$10)
    3805                            .dwattr $C$DW$326, DW_AT_name("rem")
    3806                            .dwattr $C$DW$326, DW_AT_TI_symbol_name("rem")
    3807                            .dwattr $C$DW$326, DW_AT_data_member_location[DW_OP_plus_uconst 0x4]
    3808                            .dwattr $C$DW$326, DW_AT_accessibility(DW_ACCESS_public)
    3809                            .dwattr $C$DW$326, DW_AT_decl_file("C:/VLIB_Tools/CCSV5_4_0/ccsv5/tools/compiler/C6000/include
    3810                            .dwattr $C$DW$326, DW_AT_decl_line(0x3e)
    3811                            .dwattr $C$DW$326, DW_AT_decl_column(0x1c)
    3812                            .dwendtag $C$DW$T$29
    3813                    
    3814                            .dwattr $C$DW$T$29, DW_AT_decl_file("C:/VLIB_Tools/CCSV5_4_0/ccsv5/tools/compiler/C6000/includ
    3815                            .dwattr $C$DW$T$29, DW_AT_decl_line(0x3e)
    3816                            .dwattr $C$DW$T$29, DW_AT_decl_column(0x10)
    3817                    $C$DW$T$53      .dwtag  DW_TAG_typedef, DW_AT_name("div_t")
    3818                            .dwattr $C$DW$T$53, DW_AT_type(*$C$DW$T$29)
    3819                            .dwattr $C$DW$T$53, DW_AT_language(DW_LANG_C)
    3820                            .dwattr $C$DW$T$53, DW_AT_decl_file("C:/VLIB_Tools/CCSV5_4_0/ccsv5/tools/compiler/C6000/includ
    3821                            .dwattr $C$DW$T$53, DW_AT_decl_line(0x3e)
    3822                            .dwattr $C$DW$T$53, DW_AT_decl_column(0x23)
    3823                    
    3824                    $C$DW$T$30      .dwtag  DW_TAG_structure_type
    3825                            .dwattr $C$DW$T$30, DW_AT_byte_size(0x08)
    3826                    $C$DW$327       .dwtag  DW_TAG_member
    3827                            .dwattr $C$DW$327, DW_AT_type(*$C$DW$T$10)
    3828                            .dwattr $C$DW$327, DW_AT_name("quot")
    3829                            .dwattr $C$DW$327, DW_AT_TI_symbol_name("quot")
    3830                            .dwattr $C$DW$327, DW_AT_data_member_location[DW_OP_plus_uconst 0x0]
    3831                            .dwattr $C$DW$327, DW_AT_accessibility(DW_ACCESS_public)
TMS320C6x Assembler PC v7.4.2 Thu Mar 19 12:41:55 2015

Tools Copyright (c) 1996-2012 Texas Instruments Incorporated
package/lib/Regression/regress_d_c/./../packages/ti/vlib/src/VLIB_homographyDecomposition/VLIB_homographyDecomposition_d.se66 PAGE   86

    3832                            .dwattr $C$DW$327, DW_AT_decl_file("C:/VLIB_Tools/CCSV5_4_0/ccsv5/tools/compiler/C6000/include
    3833                            .dwattr $C$DW$327, DW_AT_decl_line(0x40)
    3834                            .dwattr $C$DW$327, DW_AT_decl_column(0x17)
    3835                    $C$DW$328       .dwtag  DW_TAG_member
    3836                            .dwattr $C$DW$328, DW_AT_type(*$C$DW$T$10)
    3837                            .dwattr $C$DW$328, DW_AT_name("rem")
    3838                            .dwattr $C$DW$328, DW_AT_TI_symbol_name("rem")
    3839                            .dwattr $C$DW$328, DW_AT_data_member_location[DW_OP_plus_uconst 0x4]
    3840                            .dwattr $C$DW$328, DW_AT_accessibility(DW_ACCESS_public)
    3841                            .dwattr $C$DW$328, DW_AT_decl_file("C:/VLIB_Tools/CCSV5_4_0/ccsv5/tools/compiler/C6000/include
    3842                            .dwattr $C$DW$328, DW_AT_decl_line(0x40)
    3843                            .dwattr $C$DW$328, DW_AT_decl_column(0x1d)
    3844                            .dwendtag $C$DW$T$30
    3845                    
    3846                            .dwattr $C$DW$T$30, DW_AT_decl_file("C:/VLIB_Tools/CCSV5_4_0/ccsv5/tools/compiler/C6000/includ
    3847                            .dwattr $C$DW$T$30, DW_AT_decl_line(0x40)
    3848                            .dwattr $C$DW$T$30, DW_AT_decl_column(0x10)
    3849                    $C$DW$T$54      .dwtag  DW_TAG_typedef, DW_AT_name("ldiv_t")
    3850                            .dwattr $C$DW$T$54, DW_AT_type(*$C$DW$T$30)
    3851                            .dwattr $C$DW$T$54, DW_AT_language(DW_LANG_C)
    3852                            .dwattr $C$DW$T$54, DW_AT_decl_file("C:/VLIB_Tools/CCSV5_4_0/ccsv5/tools/compiler/C6000/includ
    3853                            .dwattr $C$DW$T$54, DW_AT_decl_line(0x40)
    3854                            .dwattr $C$DW$T$54, DW_AT_decl_column(0x24)
    3855                    
    3856                    $C$DW$T$31      .dwtag  DW_TAG_structure_type
    3857                            .dwattr $C$DW$T$31, DW_AT_byte_size(0x10)
    3858                    $C$DW$329       .dwtag  DW_TAG_member
    3859                            .dwattr $C$DW$329, DW_AT_type(*$C$DW$T$14)
    3860                            .dwattr $C$DW$329, DW_AT_name("quot")
    3861                            .dwattr $C$DW$329, DW_AT_TI_symbol_name("quot")
    3862                            .dwattr $C$DW$329, DW_AT_data_member_location[DW_OP_plus_uconst 0x0]
    3863                            .dwattr $C$DW$329, DW_AT_accessibility(DW_ACCESS_public)
    3864                            .dwattr $C$DW$329, DW_AT_decl_file("C:/VLIB_Tools/CCSV5_4_0/ccsv5/tools/compiler/C6000/include
    3865                            .dwattr $C$DW$329, DW_AT_decl_line(0x43)
    3866                            .dwattr $C$DW$329, DW_AT_decl_column(0x1c)
    3867                    $C$DW$330       .dwtag  DW_TAG_member
    3868                            .dwattr $C$DW$330, DW_AT_type(*$C$DW$T$14)
    3869                            .dwattr $C$DW$330, DW_AT_name("rem")
    3870                            .dwattr $C$DW$330, DW_AT_TI_symbol_name("rem")
    3871                            .dwattr $C$DW$330, DW_AT_data_member_location[DW_OP_plus_uconst 0x8]
    3872                            .dwattr $C$DW$330, DW_AT_accessibility(DW_ACCESS_public)
    3873                            .dwattr $C$DW$330, DW_AT_decl_file("C:/VLIB_Tools/CCSV5_4_0/ccsv5/tools/compiler/C6000/include
    3874                            .dwattr $C$DW$330, DW_AT_decl_line(0x43)
    3875                            .dwattr $C$DW$330, DW_AT_decl_column(0x22)
    3876                            .dwendtag $C$DW$T$31
    3877                    
    3878                            .dwattr $C$DW$T$31, DW_AT_decl_file("C:/VLIB_Tools/CCSV5_4_0/ccsv5/tools/compiler/C6000/includ
    3879                            .dwattr $C$DW$T$31, DW_AT_decl_line(0x43)
    3880                            .dwattr $C$DW$T$31, DW_AT_decl_column(0x10)
    3881                    $C$DW$T$55      .dwtag  DW_TAG_typedef, DW_AT_name("lldiv_t")
    3882                            .dwattr $C$DW$T$55, DW_AT_type(*$C$DW$T$31)
    3883                            .dwattr $C$DW$T$55, DW_AT_language(DW_LANG_C)
    3884                            .dwattr $C$DW$T$55, DW_AT_decl_file("C:/VLIB_Tools/CCSV5_4_0/ccsv5/tools/compiler/C6000/includ
    3885                            .dwattr $C$DW$T$55, DW_AT_decl_line(0x43)
    3886                            .dwattr $C$DW$T$55, DW_AT_decl_column(0x29)
TMS320C6x Assembler PC v7.4.2 Thu Mar 19 12:41:55 2015

Tools Copyright (c) 1996-2012 Texas Instruments Incorporated
package/lib/Regression/regress_d_c/./../packages/ti/vlib/src/VLIB_homographyDecomposition/VLIB_homographyDecomposition_d.se66 PAGE   87

    3887                    
    3888                    $C$DW$T$33      .dwtag  DW_TAG_structure_type
    3889                            .dwattr $C$DW$T$33, DW_AT_byte_size(0x24)
    3890                    $C$DW$331       .dwtag  DW_TAG_member
    3891                            .dwattr $C$DW$331, DW_AT_type(*$C$DW$T$32)
    3892                            .dwattr $C$DW$331, DW_AT_name("area")
    3893                            .dwattr $C$DW$331, DW_AT_TI_symbol_name("area")
    3894                            .dwattr $C$DW$331, DW_AT_data_member_location[DW_OP_plus_uconst 0x0]
    3895                            .dwattr $C$DW$331, DW_AT_accessibility(DW_ACCESS_public)
    3896                            .dwattr $C$DW$331, DW_AT_decl_file(".\..\packages\ti\vlib\src\VLIB_homographyDecomposition\..\
    3897                            .dwattr $C$DW$331, DW_AT_decl_line(0x69)
    3898                            .dwattr $C$DW$331, DW_AT_decl_column(0x0d)
    3899                    $C$DW$332       .dwtag  DW_TAG_member
    3900                            .dwattr $C$DW$332, DW_AT_type(*$C$DW$T$32)
    3901                            .dwattr $C$DW$332, DW_AT_name("xsum")
    3902                            .dwattr $C$DW$332, DW_AT_TI_symbol_name("xsum")
    3903                            .dwattr $C$DW$332, DW_AT_data_member_location[DW_OP_plus_uconst 0x4]
    3904                            .dwattr $C$DW$332, DW_AT_accessibility(DW_ACCESS_public)
    3905                            .dwattr $C$DW$332, DW_AT_decl_file(".\..\packages\ti\vlib\src\VLIB_homographyDecomposition\..\
    3906                            .dwattr $C$DW$332, DW_AT_decl_line(0x6a)
    3907                            .dwattr $C$DW$332, DW_AT_decl_column(0x0d)
    3908                    $C$DW$333       .dwtag  DW_TAG_member
    3909                            .dwattr $C$DW$333, DW_AT_type(*$C$DW$T$32)
    3910                            .dwattr $C$DW$333, DW_AT_name("ysum")
    3911                            .dwattr $C$DW$333, DW_AT_TI_symbol_name("ysum")
    3912                            .dwattr $C$DW$333, DW_AT_data_member_location[DW_OP_plus_uconst 0x8]
    3913                            .dwattr $C$DW$333, DW_AT_accessibility(DW_ACCESS_public)
    3914                            .dwattr $C$DW$333, DW_AT_decl_file(".\..\packages\ti\vlib\src\VLIB_homographyDecomposition\..\
    3915                            .dwattr $C$DW$333, DW_AT_decl_line(0x6b)
    3916                            .dwattr $C$DW$333, DW_AT_decl_column(0x0d)
    3917                    $C$DW$334       .dwtag  DW_TAG_member
    3918                            .dwattr $C$DW$334, DW_AT_type(*$C$DW$T$32)
    3919                            .dwattr $C$DW$334, DW_AT_name("xmin")
    3920                            .dwattr $C$DW$334, DW_AT_TI_symbol_name("xmin")
    3921                            .dwattr $C$DW$334, DW_AT_data_member_location[DW_OP_plus_uconst 0xc]
    3922                            .dwattr $C$DW$334, DW_AT_accessibility(DW_ACCESS_public)
    3923                            .dwattr $C$DW$334, DW_AT_decl_file(".\..\packages\ti\vlib\src\VLIB_homographyDecomposition\..\
    3924                            .dwattr $C$DW$334, DW_AT_decl_line(0x6d)
    3925                            .dwattr $C$DW$334, DW_AT_decl_column(0x0d)
    3926                    $C$DW$335       .dwtag  DW_TAG_member
    3927                            .dwattr $C$DW$335, DW_AT_type(*$C$DW$T$32)
    3928                            .dwattr $C$DW$335, DW_AT_name("ymin")
    3929                            .dwattr $C$DW$335, DW_AT_TI_symbol_name("ymin")
    3930                            .dwattr $C$DW$335, DW_AT_data_member_location[DW_OP_plus_uconst 0x10]
    3931                            .dwattr $C$DW$335, DW_AT_accessibility(DW_ACCESS_public)
    3932                            .dwattr $C$DW$335, DW_AT_decl_file(".\..\packages\ti\vlib\src\VLIB_homographyDecomposition\..\
    3933                            .dwattr $C$DW$335, DW_AT_decl_line(0x6e)
    3934                            .dwattr $C$DW$335, DW_AT_decl_column(0x0d)
    3935                    $C$DW$336       .dwtag  DW_TAG_member
    3936                            .dwattr $C$DW$336, DW_AT_type(*$C$DW$T$32)
    3937                            .dwattr $C$DW$336, DW_AT_name("xmax")
    3938                            .dwattr $C$DW$336, DW_AT_TI_symbol_name("xmax")
    3939                            .dwattr $C$DW$336, DW_AT_data_member_location[DW_OP_plus_uconst 0x14]
    3940                            .dwattr $C$DW$336, DW_AT_accessibility(DW_ACCESS_public)
    3941                            .dwattr $C$DW$336, DW_AT_decl_file(".\..\packages\ti\vlib\src\VLIB_homographyDecomposition\..\
TMS320C6x Assembler PC v7.4.2 Thu Mar 19 12:41:55 2015

Tools Copyright (c) 1996-2012 Texas Instruments Incorporated
package/lib/Regression/regress_d_c/./../packages/ti/vlib/src/VLIB_homographyDecomposition/VLIB_homographyDecomposition_d.se66 PAGE   88

    3942                            .dwattr $C$DW$336, DW_AT_decl_line(0x6f)
    3943                            .dwattr $C$DW$336, DW_AT_decl_column(0x0d)
    3944                    $C$DW$337       .dwtag  DW_TAG_member
    3945                            .dwattr $C$DW$337, DW_AT_type(*$C$DW$T$32)
    3946                            .dwattr $C$DW$337, DW_AT_name("ymax")
    3947                            .dwattr $C$DW$337, DW_AT_TI_symbol_name("ymax")
    3948                            .dwattr $C$DW$337, DW_AT_data_member_location[DW_OP_plus_uconst 0x18]
    3949                            .dwattr $C$DW$337, DW_AT_accessibility(DW_ACCESS_public)
    3950                            .dwattr $C$DW$337, DW_AT_decl_file(".\..\packages\ti\vlib\src\VLIB_homographyDecomposition\..\
    3951                            .dwattr $C$DW$337, DW_AT_decl_line(0x70)
    3952                            .dwattr $C$DW$337, DW_AT_decl_column(0x0d)
    3953                    $C$DW$338       .dwtag  DW_TAG_member
    3954                            .dwattr $C$DW$338, DW_AT_type(*$C$DW$T$32)
    3955                            .dwattr $C$DW$338, DW_AT_name("seedx")
    3956                            .dwattr $C$DW$338, DW_AT_TI_symbol_name("seedx")
    3957                            .dwattr $C$DW$338, DW_AT_data_member_location[DW_OP_plus_uconst 0x1c]
    3958                            .dwattr $C$DW$338, DW_AT_accessibility(DW_ACCESS_public)
    3959                            .dwattr $C$DW$338, DW_AT_decl_file(".\..\packages\ti\vlib\src\VLIB_homographyDecomposition\..\
    3960                            .dwattr $C$DW$338, DW_AT_decl_line(0x72)
    3961                            .dwattr $C$DW$338, DW_AT_decl_column(0x0d)
    3962                    $C$DW$339       .dwtag  DW_TAG_member
    3963                            .dwattr $C$DW$339, DW_AT_type(*$C$DW$T$32)
    3964                            .dwattr $C$DW$339, DW_AT_name("seedy")
    3965                            .dwattr $C$DW$339, DW_AT_TI_symbol_name("seedy")
    3966                            .dwattr $C$DW$339, DW_AT_data_member_location[DW_OP_plus_uconst 0x20]
    3967                            .dwattr $C$DW$339, DW_AT_accessibility(DW_ACCESS_public)
    3968                            .dwattr $C$DW$339, DW_AT_decl_file(".\..\packages\ti\vlib\src\VLIB_homographyDecomposition\..\
    3969                            .dwattr $C$DW$339, DW_AT_decl_line(0x73)
    3970                            .dwattr $C$DW$339, DW_AT_decl_column(0x0d)
    3971                            .dwendtag $C$DW$T$33
    3972                    
    3973                            .dwattr $C$DW$T$33, DW_AT_decl_file(".\..\packages\ti\vlib\src\VLIB_homographyDecomposition\..
    3974                            .dwattr $C$DW$T$33, DW_AT_decl_line(0x68)
    3975                            .dwattr $C$DW$T$33, DW_AT_decl_column(0x10)
    3976                    $C$DW$T$56      .dwtag  DW_TAG_typedef, DW_AT_name("VLIB_CC")
    3977                            .dwattr $C$DW$T$56, DW_AT_type(*$C$DW$T$33)
    3978                            .dwattr $C$DW$T$56, DW_AT_language(DW_LANG_C)
    3979                            .dwattr $C$DW$T$56, DW_AT_decl_file(".\..\packages\ti\vlib\src\VLIB_homographyDecomposition\..
    3980                            .dwattr $C$DW$T$56, DW_AT_decl_line(0x75)
    3981                            .dwattr $C$DW$T$56, DW_AT_decl_column(0x03)
    3982                    
    3983                    $C$DW$T$36      .dwtag  DW_TAG_structure_type
    3984                            .dwattr $C$DW$T$36, DW_AT_byte_size(0x10)
    3985                    $C$DW$340       .dwtag  DW_TAG_member
    3986                            .dwattr $C$DW$340, DW_AT_type(*$C$DW$T$8)
    3987                            .dwattr $C$DW$340, DW_AT_name("daylight")
    3988                            .dwattr $C$DW$340, DW_AT_TI_symbol_name("daylight")
    3989                            .dwattr $C$DW$340, DW_AT_data_member_location[DW_OP_plus_uconst 0x0]
    3990                            .dwattr $C$DW$340, DW_AT_accessibility(DW_ACCESS_public)
    3991                            .dwattr $C$DW$340, DW_AT_decl_file("C:/VLIB_Tools/CCSV5_4_0/ccsv5/tools/compiler/C6000/include
    3992                            .dwattr $C$DW$340, DW_AT_decl_line(0x52)
    3993                            .dwattr $C$DW$340, DW_AT_decl_column(0x0b)
    3994                    $C$DW$341       .dwtag  DW_TAG_member
    3995                            .dwattr $C$DW$341, DW_AT_type(*$C$DW$T$10)
    3996                            .dwattr $C$DW$341, DW_AT_name("timezone")
TMS320C6x Assembler PC v7.4.2 Thu Mar 19 12:41:55 2015

Tools Copyright (c) 1996-2012 Texas Instruments Incorporated
package/lib/Regression/regress_d_c/./../packages/ti/vlib/src/VLIB_homographyDecomposition/VLIB_homographyDecomposition_d.se66 PAGE   89

    3997                            .dwattr $C$DW$341, DW_AT_TI_symbol_name("timezone")
    3998                            .dwattr $C$DW$341, DW_AT_data_member_location[DW_OP_plus_uconst 0x4]
    3999                            .dwattr $C$DW$341, DW_AT_accessibility(DW_ACCESS_public)
    4000                            .dwattr $C$DW$341, DW_AT_decl_file("C:/VLIB_Tools/CCSV5_4_0/ccsv5/tools/compiler/C6000/include
    4001                            .dwattr $C$DW$341, DW_AT_decl_line(0x53)
    4002                            .dwattr $C$DW$341, DW_AT_decl_column(0x0b)
    4003                    $C$DW$342       .dwtag  DW_TAG_member
    4004                            .dwattr $C$DW$342, DW_AT_type(*$C$DW$T$35)
    4005                            .dwattr $C$DW$342, DW_AT_name("tzname")
    4006                            .dwattr $C$DW$342, DW_AT_TI_symbol_name("tzname")
    4007                            .dwattr $C$DW$342, DW_AT_data_member_location[DW_OP_plus_uconst 0x8]
    4008                            .dwattr $C$DW$342, DW_AT_accessibility(DW_ACCESS_public)
    4009                            .dwattr $C$DW$342, DW_AT_decl_file("C:/VLIB_Tools/CCSV5_4_0/ccsv5/tools/compiler/C6000/include
    4010                            .dwattr $C$DW$342, DW_AT_decl_line(0x54)
    4011                            .dwattr $C$DW$342, DW_AT_decl_column(0x0b)
    4012                    $C$DW$343       .dwtag  DW_TAG_member
    4013                            .dwattr $C$DW$343, DW_AT_type(*$C$DW$T$35)
    4014                            .dwattr $C$DW$343, DW_AT_name("dstname")
    4015                            .dwattr $C$DW$343, DW_AT_TI_symbol_name("dstname")
    4016                            .dwattr $C$DW$343, DW_AT_data_member_location[DW_OP_plus_uconst 0xc]
    4017                            .dwattr $C$DW$343, DW_AT_accessibility(DW_ACCESS_public)
    4018                            .dwattr $C$DW$343, DW_AT_decl_file("C:/VLIB_Tools/CCSV5_4_0/ccsv5/tools/compiler/C6000/include
    4019                            .dwattr $C$DW$343, DW_AT_decl_line(0x55)
    4020                            .dwattr $C$DW$343, DW_AT_decl_column(0x0b)
    4021                            .dwendtag $C$DW$T$36
    4022                    
    4023                            .dwattr $C$DW$T$36, DW_AT_decl_file("C:/VLIB_Tools/CCSV5_4_0/ccsv5/tools/compiler/C6000/includ
    4024                            .dwattr $C$DW$T$36, DW_AT_decl_line(0x51)
    4025                            .dwattr $C$DW$T$36, DW_AT_decl_column(0x01)
    4026                    $C$DW$T$57      .dwtag  DW_TAG_typedef, DW_AT_name("TZ")
    4027                            .dwattr $C$DW$T$57, DW_AT_type(*$C$DW$T$36)
    4028                            .dwattr $C$DW$T$57, DW_AT_language(DW_LANG_C)
    4029                            .dwattr $C$DW$T$57, DW_AT_decl_file("C:/VLIB_Tools/CCSV5_4_0/ccsv5/tools/compiler/C6000/includ
    4030                            .dwattr $C$DW$T$57, DW_AT_decl_line(0x56)
    4031                            .dwattr $C$DW$T$57, DW_AT_decl_column(0x03)
    4032                    $C$DW$T$2       .dwtag  DW_TAG_unspecified_type
    4033                            .dwattr $C$DW$T$2, DW_AT_name("void")
    4034                    $C$DW$T$3       .dwtag  DW_TAG_pointer_type
    4035                            .dwattr $C$DW$T$3, DW_AT_type(*$C$DW$T$2)
    4036                            .dwattr $C$DW$T$3, DW_AT_address_class(0x20)
    4037                    $C$DW$T$58      .dwtag  DW_TAG_typedef, DW_AT_name("VLIB_PTR")
    4038                            .dwattr $C$DW$T$58, DW_AT_type(*$C$DW$T$3)
    4039                            .dwattr $C$DW$T$58, DW_AT_language(DW_LANG_C)
    4040                            .dwattr $C$DW$T$58, DW_AT_decl_file(".\..\packages\ti\vlib\src\VLIB_homographyDecomposition\..
    4041                            .dwattr $C$DW$T$58, DW_AT_decl_line(0x5c)
    4042                            .dwattr $C$DW$T$58, DW_AT_decl_column(0x19)
    4043                    $C$DW$T$4       .dwtag  DW_TAG_base_type
    4044                            .dwattr $C$DW$T$4, DW_AT_encoding(DW_ATE_boolean)
    4045                            .dwattr $C$DW$T$4, DW_AT_name("bool")
    4046                            .dwattr $C$DW$T$4, DW_AT_byte_size(0x01)
    4047                    $C$DW$T$5       .dwtag  DW_TAG_base_type
    4048                            .dwattr $C$DW$T$5, DW_AT_encoding(DW_ATE_signed_char)
    4049                            .dwattr $C$DW$T$5, DW_AT_name("signed char")
    4050                            .dwattr $C$DW$T$5, DW_AT_byte_size(0x01)
    4051                    $C$DW$T$85      .dwtag  DW_TAG_pointer_type
TMS320C6x Assembler PC v7.4.2 Thu Mar 19 12:41:55 2015

Tools Copyright (c) 1996-2012 Texas Instruments Incorporated
package/lib/Regression/regress_d_c/./../packages/ti/vlib/src/VLIB_homographyDecomposition/VLIB_homographyDecomposition_d.se66 PAGE   90

    4052                            .dwattr $C$DW$T$85, DW_AT_type(*$C$DW$T$5)
    4053                            .dwattr $C$DW$T$85, DW_AT_address_class(0x20)
    4054                    $C$DW$T$107     .dwtag  DW_TAG_typedef, DW_AT_name("int8_t")
    4055                            .dwattr $C$DW$T$107, DW_AT_type(*$C$DW$T$5)
    4056                            .dwattr $C$DW$T$107, DW_AT_language(DW_LANG_C)
    4057                            .dwattr $C$DW$T$107, DW_AT_decl_file("C:/VLIB_Tools/CCSV5_4_0/ccsv5/tools/compiler/C6000/inclu
    4058                            .dwattr $C$DW$T$107, DW_AT_decl_line(0x2a)
    4059                            .dwattr $C$DW$T$107, DW_AT_decl_column(0x1d)
    4060                    $C$DW$T$108     .dwtag  DW_TAG_typedef, DW_AT_name("int_least8_t")
    4061                            .dwattr $C$DW$T$108, DW_AT_type(*$C$DW$T$107)
    4062                            .dwattr $C$DW$T$108, DW_AT_language(DW_LANG_C)
    4063                            .dwattr $C$DW$T$108, DW_AT_decl_file("C:/VLIB_Tools/CCSV5_4_0/ccsv5/tools/compiler/C6000/inclu
    4064                            .dwattr $C$DW$T$108, DW_AT_decl_line(0x39)
    4065                            .dwattr $C$DW$T$108, DW_AT_decl_column(0x17)
    4066                    $C$DW$T$6       .dwtag  DW_TAG_base_type
    4067                            .dwattr $C$DW$T$6, DW_AT_encoding(DW_ATE_unsigned_char)
    4068                            .dwattr $C$DW$T$6, DW_AT_name("unsigned char")
    4069                            .dwattr $C$DW$T$6, DW_AT_byte_size(0x01)
    4070                    $C$DW$T$27      .dwtag  DW_TAG_pointer_type
    4071                            .dwattr $C$DW$T$27, DW_AT_type(*$C$DW$T$6)
    4072                            .dwattr $C$DW$T$27, DW_AT_address_class(0x20)
    4073                    $C$DW$T$19      .dwtag  DW_TAG_typedef, DW_AT_name("uint8_t")
    4074                            .dwattr $C$DW$T$19, DW_AT_type(*$C$DW$T$6)
    4075                            .dwattr $C$DW$T$19, DW_AT_language(DW_LANG_C)
    4076                            .dwattr $C$DW$T$19, DW_AT_decl_file("C:/VLIB_Tools/CCSV5_4_0/ccsv5/tools/compiler/C6000/includ
    4077                            .dwattr $C$DW$T$19, DW_AT_decl_line(0x2b)
    4078                            .dwattr $C$DW$T$19, DW_AT_decl_column(0x1c)
    4079                    $C$DW$T$110     .dwtag  DW_TAG_const_type
    4080                            .dwattr $C$DW$T$110, DW_AT_type(*$C$DW$T$19)
    4081                    $C$DW$T$111     .dwtag  DW_TAG_typedef, DW_AT_name("uint_least8_t")
    4082                            .dwattr $C$DW$T$111, DW_AT_type(*$C$DW$T$19)
    4083                            .dwattr $C$DW$T$111, DW_AT_language(DW_LANG_C)
    4084                            .dwattr $C$DW$T$111, DW_AT_decl_file("C:/VLIB_Tools/CCSV5_4_0/ccsv5/tools/compiler/C6000/inclu
    4085                            .dwattr $C$DW$T$111, DW_AT_decl_line(0x3a)
    4086                            .dwattr $C$DW$T$111, DW_AT_decl_column(0x16)
    4087                    $C$DW$T$7       .dwtag  DW_TAG_base_type
    4088                            .dwattr $C$DW$T$7, DW_AT_encoding(DW_ATE_signed_char)
    4089                            .dwattr $C$DW$T$7, DW_AT_name("wchar_t")
    4090                            .dwattr $C$DW$T$7, DW_AT_byte_size(0x02)
    4091                    $C$DW$T$8       .dwtag  DW_TAG_base_type
    4092                            .dwattr $C$DW$T$8, DW_AT_encoding(DW_ATE_signed)
    4093                            .dwattr $C$DW$T$8, DW_AT_name("short")
    4094                            .dwattr $C$DW$T$8, DW_AT_byte_size(0x02)
    4095                    $C$DW$T$112     .dwtag  DW_TAG_typedef, DW_AT_name("int16_t")
    4096                            .dwattr $C$DW$T$112, DW_AT_type(*$C$DW$T$8)
    4097                            .dwattr $C$DW$T$112, DW_AT_language(DW_LANG_C)
    4098                            .dwattr $C$DW$T$112, DW_AT_decl_file("C:/VLIB_Tools/CCSV5_4_0/ccsv5/tools/compiler/C6000/inclu
    4099                            .dwattr $C$DW$T$112, DW_AT_decl_line(0x2c)
    4100                            .dwattr $C$DW$T$112, DW_AT_decl_column(0x1d)
    4101                    $C$DW$T$113     .dwtag  DW_TAG_typedef, DW_AT_name("int_least16_t")
    4102                            .dwattr $C$DW$T$113, DW_AT_type(*$C$DW$T$112)
    4103                            .dwattr $C$DW$T$113, DW_AT_language(DW_LANG_C)
    4104                            .dwattr $C$DW$T$113, DW_AT_decl_file("C:/VLIB_Tools/CCSV5_4_0/ccsv5/tools/compiler/C6000/inclu
    4105                            .dwattr $C$DW$T$113, DW_AT_decl_line(0x3c)
    4106                            .dwattr $C$DW$T$113, DW_AT_decl_column(0x17)
TMS320C6x Assembler PC v7.4.2 Thu Mar 19 12:41:55 2015

Tools Copyright (c) 1996-2012 Texas Instruments Incorporated
package/lib/Regression/regress_d_c/./../packages/ti/vlib/src/VLIB_homographyDecomposition/VLIB_homographyDecomposition_d.se66 PAGE   91

    4107                    $C$DW$T$9       .dwtag  DW_TAG_base_type
    4108                            .dwattr $C$DW$T$9, DW_AT_encoding(DW_ATE_unsigned)
    4109                            .dwattr $C$DW$T$9, DW_AT_name("unsigned short")
    4110                            .dwattr $C$DW$T$9, DW_AT_byte_size(0x02)
    4111                    $C$DW$T$22      .dwtag  DW_TAG_typedef, DW_AT_name("uint16_t")
    4112                            .dwattr $C$DW$T$22, DW_AT_type(*$C$DW$T$9)
    4113                            .dwattr $C$DW$T$22, DW_AT_language(DW_LANG_C)
    4114                            .dwattr $C$DW$T$22, DW_AT_decl_file("C:/VLIB_Tools/CCSV5_4_0/ccsv5/tools/compiler/C6000/includ
    4115                            .dwattr $C$DW$T$22, DW_AT_decl_line(0x2d)
    4116                            .dwattr $C$DW$T$22, DW_AT_decl_column(0x1c)
    4117                    $C$DW$T$115     .dwtag  DW_TAG_typedef, DW_AT_name("uint_least16_t")
    4118                            .dwattr $C$DW$T$115, DW_AT_type(*$C$DW$T$22)
    4119                            .dwattr $C$DW$T$115, DW_AT_language(DW_LANG_C)
    4120                            .dwattr $C$DW$T$115, DW_AT_decl_file("C:/VLIB_Tools/CCSV5_4_0/ccsv5/tools/compiler/C6000/inclu
    4121                            .dwattr $C$DW$T$115, DW_AT_decl_line(0x3d)
    4122                            .dwattr $C$DW$T$115, DW_AT_decl_column(0x16)
    4123                    $C$DW$T$114     .dwtag  DW_TAG_typedef, DW_AT_name("wchar_t")
    4124                            .dwattr $C$DW$T$114, DW_AT_type(*$C$DW$T$9)
    4125                            .dwattr $C$DW$T$114, DW_AT_language(DW_LANG_C)
    4126                            .dwattr $C$DW$T$114, DW_AT_decl_file("C:/VLIB_Tools/CCSV5_4_0/ccsv5/tools/compiler/C6000/inclu
    4127                            .dwattr $C$DW$T$114, DW_AT_decl_line(0x53)
    4128                            .dwattr $C$DW$T$114, DW_AT_decl_column(0x1a)
    4129                    $C$DW$T$10      .dwtag  DW_TAG_base_type
    4130                            .dwattr $C$DW$T$10, DW_AT_encoding(DW_ATE_signed)
    4131                            .dwattr $C$DW$T$10, DW_AT_name("int")
    4132                            .dwattr $C$DW$T$10, DW_AT_byte_size(0x04)
    4133                    $C$DW$T$135     .dwtag  DW_TAG_typedef, DW_AT_name("fpos_t")
    4134                            .dwattr $C$DW$T$135, DW_AT_type(*$C$DW$T$10)
    4135                            .dwattr $C$DW$T$135, DW_AT_language(DW_LANG_C)
    4136                            .dwattr $C$DW$T$135, DW_AT_decl_file("C:/VLIB_Tools/CCSV5_4_0/ccsv5/tools/compiler/C6000/inclu
    4137                            .dwattr $C$DW$T$135, DW_AT_decl_line(0x53)
    4138                            .dwattr $C$DW$T$135, DW_AT_decl_column(0x0d)
    4139                    $C$DW$T$32      .dwtag  DW_TAG_typedef, DW_AT_name("int32_t")
    4140                            .dwattr $C$DW$T$32, DW_AT_type(*$C$DW$T$10)
    4141                            .dwattr $C$DW$T$32, DW_AT_language(DW_LANG_C)
    4142                            .dwattr $C$DW$T$32, DW_AT_decl_file("C:/VLIB_Tools/CCSV5_4_0/ccsv5/tools/compiler/C6000/includ
    4143                            .dwattr $C$DW$T$32, DW_AT_decl_line(0x2e)
    4144                            .dwattr $C$DW$T$32, DW_AT_decl_column(0x1d)
    4145                    $C$DW$T$128     .dwtag  DW_TAG_typedef, DW_AT_name("VLIB_CCHandle")
    4146                            .dwattr $C$DW$T$128, DW_AT_type(*$C$DW$T$32)
    4147                            .dwattr $C$DW$T$128, DW_AT_language(DW_LANG_C)
    4148                            .dwattr $C$DW$T$128, DW_AT_decl_file(".\..\packages\ti\vlib\src\VLIB_homographyDecomposition\.
    4149                            .dwattr $C$DW$T$128, DW_AT_decl_line(0x77)
    4150                            .dwattr $C$DW$T$128, DW_AT_decl_column(0x11)
    4151                    
    4152                    $C$DW$T$37      .dwtag  DW_TAG_array_type
    4153                            .dwattr $C$DW$T$37, DW_AT_type(*$C$DW$T$32)
    4154                            .dwattr $C$DW$T$37, DW_AT_language(DW_LANG_C)
    4155                            .dwattr $C$DW$T$37, DW_AT_byte_size(0x10)
    4156                    $C$DW$344       .dwtag  DW_TAG_subrange_type
    4157                            .dwattr $C$DW$344, DW_AT_upper_bound(0x03)
    4158                            .dwendtag $C$DW$T$37
    4159                    
    4160                    $C$DW$T$81      .dwtag  DW_TAG_pointer_type
    4161                            .dwattr $C$DW$T$81, DW_AT_type(*$C$DW$T$32)
TMS320C6x Assembler PC v7.4.2 Thu Mar 19 12:41:55 2015

Tools Copyright (c) 1996-2012 Texas Instruments Incorporated
package/lib/Regression/regress_d_c/./../packages/ti/vlib/src/VLIB_homographyDecomposition/VLIB_homographyDecomposition_d.se66 PAGE   92

    4162                            .dwattr $C$DW$T$81, DW_AT_address_class(0x20)
    4163                    $C$DW$T$130     .dwtag  DW_TAG_typedef, DW_AT_name("int_fast16_t")
    4164                            .dwattr $C$DW$T$130, DW_AT_type(*$C$DW$T$32)
    4165                            .dwattr $C$DW$T$130, DW_AT_language(DW_LANG_C)
    4166                            .dwattr $C$DW$T$130, DW_AT_decl_file("C:/VLIB_Tools/CCSV5_4_0/ccsv5/tools/compiler/C6000/inclu
    4167                            .dwattr $C$DW$T$130, DW_AT_decl_line(0x4b)
    4168                            .dwattr $C$DW$T$130, DW_AT_decl_column(0x17)
    4169                    $C$DW$T$131     .dwtag  DW_TAG_typedef, DW_AT_name("int_fast32_t")
    4170                            .dwattr $C$DW$T$131, DW_AT_type(*$C$DW$T$32)
    4171                            .dwattr $C$DW$T$131, DW_AT_language(DW_LANG_C)
    4172                            .dwattr $C$DW$T$131, DW_AT_decl_file("C:/VLIB_Tools/CCSV5_4_0/ccsv5/tools/compiler/C6000/inclu
    4173                            .dwattr $C$DW$T$131, DW_AT_decl_line(0x4e)
    4174                            .dwattr $C$DW$T$131, DW_AT_decl_column(0x17)
    4175                    $C$DW$T$132     .dwtag  DW_TAG_typedef, DW_AT_name("int_fast8_t")
    4176                            .dwattr $C$DW$T$132, DW_AT_type(*$C$DW$T$32)
    4177                            .dwattr $C$DW$T$132, DW_AT_language(DW_LANG_C)
    4178                            .dwattr $C$DW$T$132, DW_AT_decl_file("C:/VLIB_Tools/CCSV5_4_0/ccsv5/tools/compiler/C6000/inclu
    4179                            .dwattr $C$DW$T$132, DW_AT_decl_line(0x49)
    4180                            .dwattr $C$DW$T$132, DW_AT_decl_column(0x17)
    4181                    $C$DW$T$133     .dwtag  DW_TAG_typedef, DW_AT_name("int_least32_t")
    4182                            .dwattr $C$DW$T$133, DW_AT_type(*$C$DW$T$32)
    4183                            .dwattr $C$DW$T$133, DW_AT_language(DW_LANG_C)
    4184                            .dwattr $C$DW$T$133, DW_AT_decl_file("C:/VLIB_Tools/CCSV5_4_0/ccsv5/tools/compiler/C6000/inclu
    4185                            .dwattr $C$DW$T$133, DW_AT_decl_line(0x3e)
    4186                            .dwattr $C$DW$T$133, DW_AT_decl_column(0x17)
    4187                    $C$DW$T$134     .dwtag  DW_TAG_typedef, DW_AT_name("intptr_t")
    4188                            .dwattr $C$DW$T$134, DW_AT_type(*$C$DW$T$10)
    4189                            .dwattr $C$DW$T$134, DW_AT_language(DW_LANG_C)
    4190                            .dwattr $C$DW$T$134, DW_AT_decl_file("C:/VLIB_Tools/CCSV5_4_0/ccsv5/tools/compiler/C6000/inclu
    4191                            .dwattr $C$DW$T$134, DW_AT_decl_line(0x58)
    4192                            .dwattr $C$DW$T$134, DW_AT_decl_column(0x1a)
    4193                    $C$DW$T$11      .dwtag  DW_TAG_base_type
    4194                            .dwattr $C$DW$T$11, DW_AT_encoding(DW_ATE_unsigned)
    4195                            .dwattr $C$DW$T$11, DW_AT_name("unsigned int")
    4196                            .dwattr $C$DW$T$11, DW_AT_byte_size(0x04)
    4197                    $C$DW$T$136     .dwtag  DW_TAG_typedef, DW_AT_name("VLIB_VAL")
    4198                            .dwattr $C$DW$T$136, DW_AT_type(*$C$DW$T$11)
    4199                            .dwattr $C$DW$T$136, DW_AT_language(DW_LANG_C)
    4200                            .dwattr $C$DW$T$136, DW_AT_decl_file(".\..\packages\ti\vlib\src\VLIB_homographyDecomposition\.
    4201                            .dwattr $C$DW$T$136, DW_AT_decl_line(0x5d)
    4202                            .dwattr $C$DW$T$136, DW_AT_decl_column(0x17)
    4203                    $C$DW$T$147     .dwtag  DW_TAG_typedef, DW_AT_name("clock_t")
    4204                            .dwattr $C$DW$T$147, DW_AT_type(*$C$DW$T$11)
    4205                            .dwattr $C$DW$T$147, DW_AT_language(DW_LANG_C)
    4206                            .dwattr $C$DW$T$147, DW_AT_decl_file("C:/VLIB_Tools/CCSV5_4_0/ccsv5/tools/compiler/C6000/inclu
    4207                            .dwattr $C$DW$T$147, DW_AT_decl_line(0x37)
    4208                            .dwattr $C$DW$T$147, DW_AT_decl_column(0x16)
    4209                    $C$DW$T$59      .dwtag  DW_TAG_typedef, DW_AT_name("size_t")
    4210                            .dwattr $C$DW$T$59, DW_AT_type(*$C$DW$T$11)
    4211                            .dwattr $C$DW$T$59, DW_AT_language(DW_LANG_C)
    4212                            .dwattr $C$DW$T$59, DW_AT_decl_file("C:/VLIB_Tools/CCSV5_4_0/ccsv5/tools/compiler/C6000/includ
    4213                            .dwattr $C$DW$T$59, DW_AT_decl_line(0x45)
    4214                            .dwattr $C$DW$T$59, DW_AT_decl_column(0x19)
    4215                    $C$DW$T$140     .dwtag  DW_TAG_typedef, DW_AT_name("time_t")
    4216                            .dwattr $C$DW$T$140, DW_AT_type(*$C$DW$T$11)
TMS320C6x Assembler PC v7.4.2 Thu Mar 19 12:41:55 2015

Tools Copyright (c) 1996-2012 Texas Instruments Incorporated
package/lib/Regression/regress_d_c/./../packages/ti/vlib/src/VLIB_homographyDecomposition/VLIB_homographyDecomposition_d.se66 PAGE   93

    4217                            .dwattr $C$DW$T$140, DW_AT_language(DW_LANG_C)
    4218                            .dwattr $C$DW$T$140, DW_AT_decl_file("C:/VLIB_Tools/CCSV5_4_0/ccsv5/tools/compiler/C6000/inclu
    4219                            .dwattr $C$DW$T$140, DW_AT_decl_line(0x38)
    4220                            .dwattr $C$DW$T$140, DW_AT_decl_column(0x16)
    4221                    $C$DW$T$73      .dwtag  DW_TAG_typedef, DW_AT_name("uint32_t")
    4222                            .dwattr $C$DW$T$73, DW_AT_type(*$C$DW$T$11)
    4223                            .dwattr $C$DW$T$73, DW_AT_language(DW_LANG_C)
    4224                            .dwattr $C$DW$T$73, DW_AT_decl_file("C:/VLIB_Tools/CCSV5_4_0/ccsv5/tools/compiler/C6000/includ
    4225                            .dwattr $C$DW$T$73, DW_AT_decl_line(0x2f)
    4226                            .dwattr $C$DW$T$73, DW_AT_decl_column(0x1c)
    4227                    $C$DW$T$142     .dwtag  DW_TAG_typedef, DW_AT_name("uint_fast16_t")
    4228                            .dwattr $C$DW$T$142, DW_AT_type(*$C$DW$T$73)
    4229                            .dwattr $C$DW$T$142, DW_AT_language(DW_LANG_C)
    4230                            .dwattr $C$DW$T$142, DW_AT_decl_file("C:/VLIB_Tools/CCSV5_4_0/ccsv5/tools/compiler/C6000/inclu
    4231                            .dwattr $C$DW$T$142, DW_AT_decl_line(0x4c)
    4232                            .dwattr $C$DW$T$142, DW_AT_decl_column(0x16)
    4233                    $C$DW$T$143     .dwtag  DW_TAG_typedef, DW_AT_name("uint_fast32_t")
    4234                            .dwattr $C$DW$T$143, DW_AT_type(*$C$DW$T$73)
    4235                            .dwattr $C$DW$T$143, DW_AT_language(DW_LANG_C)
    4236                            .dwattr $C$DW$T$143, DW_AT_decl_file("C:/VLIB_Tools/CCSV5_4_0/ccsv5/tools/compiler/C6000/inclu
    4237                            .dwattr $C$DW$T$143, DW_AT_decl_line(0x4f)
    4238                            .dwattr $C$DW$T$143, DW_AT_decl_column(0x16)
    4239                    $C$DW$T$144     .dwtag  DW_TAG_typedef, DW_AT_name("uint_fast8_t")
    4240                            .dwattr $C$DW$T$144, DW_AT_type(*$C$DW$T$73)
    4241                            .dwattr $C$DW$T$144, DW_AT_language(DW_LANG_C)
    4242                            .dwattr $C$DW$T$144, DW_AT_decl_file("C:/VLIB_Tools/CCSV5_4_0/ccsv5/tools/compiler/C6000/inclu
    4243                            .dwattr $C$DW$T$144, DW_AT_decl_line(0x4a)
    4244                            .dwattr $C$DW$T$144, DW_AT_decl_column(0x16)
    4245                    $C$DW$T$145     .dwtag  DW_TAG_typedef, DW_AT_name("uint_least32_t")
    4246                            .dwattr $C$DW$T$145, DW_AT_type(*$C$DW$T$73)
    4247                            .dwattr $C$DW$T$145, DW_AT_language(DW_LANG_C)
    4248                            .dwattr $C$DW$T$145, DW_AT_decl_file("C:/VLIB_Tools/CCSV5_4_0/ccsv5/tools/compiler/C6000/inclu
    4249                            .dwattr $C$DW$T$145, DW_AT_decl_line(0x3f)
    4250                            .dwattr $C$DW$T$145, DW_AT_decl_column(0x16)
    4251                    $C$DW$T$146     .dwtag  DW_TAG_typedef, DW_AT_name("uintptr_t")
    4252                            .dwattr $C$DW$T$146, DW_AT_type(*$C$DW$T$11)
    4253                            .dwattr $C$DW$T$146, DW_AT_language(DW_LANG_C)
    4254                            .dwattr $C$DW$T$146, DW_AT_decl_file("C:/VLIB_Tools/CCSV5_4_0/ccsv5/tools/compiler/C6000/inclu
    4255                            .dwattr $C$DW$T$146, DW_AT_decl_line(0x59)
    4256                            .dwattr $C$DW$T$146, DW_AT_decl_column(0x1a)
    4257                    $C$DW$T$12      .dwtag  DW_TAG_base_type
    4258                            .dwattr $C$DW$T$12, DW_AT_encoding(DW_ATE_signed)
    4259                            .dwattr $C$DW$T$12, DW_AT_name("__int40_t")
    4260                            .dwattr $C$DW$T$12, DW_AT_byte_size(0x08)
    4261                            .dwattr $C$DW$T$12, DW_AT_bit_size(0x28)
    4262                            .dwattr $C$DW$T$12, DW_AT_bit_offset(0x18)
    4263                    $C$DW$T$148     .dwtag  DW_TAG_typedef, DW_AT_name("int40_t")
    4264                            .dwattr $C$DW$T$148, DW_AT_type(*$C$DW$T$12)
    4265                            .dwattr $C$DW$T$148, DW_AT_language(DW_LANG_C)
    4266                            .dwattr $C$DW$T$148, DW_AT_decl_file("C:/VLIB_Tools/CCSV5_4_0/ccsv5/tools/compiler/C6000/inclu
    4267                            .dwattr $C$DW$T$148, DW_AT_decl_line(0x31)
    4268                            .dwattr $C$DW$T$148, DW_AT_decl_column(0x21)
    4269                    $C$DW$T$149     .dwtag  DW_TAG_typedef, DW_AT_name("int_fast40_t")
    4270                            .dwattr $C$DW$T$149, DW_AT_type(*$C$DW$T$148)
    4271                            .dwattr $C$DW$T$149, DW_AT_language(DW_LANG_C)
TMS320C6x Assembler PC v7.4.2 Thu Mar 19 12:41:55 2015

Tools Copyright (c) 1996-2012 Texas Instruments Incorporated
package/lib/Regression/regress_d_c/./../packages/ti/vlib/src/VLIB_homographyDecomposition/VLIB_homographyDecomposition_d.se66 PAGE   94

    4272                            .dwattr $C$DW$T$149, DW_AT_decl_file("C:/VLIB_Tools/CCSV5_4_0/ccsv5/tools/compiler/C6000/inclu
    4273                            .dwattr $C$DW$T$149, DW_AT_decl_line(0x51)
    4274                            .dwattr $C$DW$T$149, DW_AT_decl_column(0x17)
    4275                    $C$DW$T$150     .dwtag  DW_TAG_typedef, DW_AT_name("int_least40_t")
    4276                            .dwattr $C$DW$T$150, DW_AT_type(*$C$DW$T$148)
    4277                            .dwattr $C$DW$T$150, DW_AT_language(DW_LANG_C)
    4278                            .dwattr $C$DW$T$150, DW_AT_decl_file("C:/VLIB_Tools/CCSV5_4_0/ccsv5/tools/compiler/C6000/inclu
    4279                            .dwattr $C$DW$T$150, DW_AT_decl_line(0x41)
    4280                            .dwattr $C$DW$T$150, DW_AT_decl_column(0x17)
    4281                    $C$DW$T$13      .dwtag  DW_TAG_base_type
    4282                            .dwattr $C$DW$T$13, DW_AT_encoding(DW_ATE_unsigned)
    4283                            .dwattr $C$DW$T$13, DW_AT_name("unsigned __int40_t")
    4284                            .dwattr $C$DW$T$13, DW_AT_byte_size(0x08)
    4285                            .dwattr $C$DW$T$13, DW_AT_bit_size(0x28)
    4286                            .dwattr $C$DW$T$13, DW_AT_bit_offset(0x18)
    4287                    $C$DW$T$151     .dwtag  DW_TAG_typedef, DW_AT_name("uint40_t")
    4288                            .dwattr $C$DW$T$151, DW_AT_type(*$C$DW$T$13)
    4289                            .dwattr $C$DW$T$151, DW_AT_language(DW_LANG_C)
    4290                            .dwattr $C$DW$T$151, DW_AT_decl_file("C:/VLIB_Tools/CCSV5_4_0/ccsv5/tools/compiler/C6000/inclu
    4291                            .dwattr $C$DW$T$151, DW_AT_decl_line(0x32)
    4292                            .dwattr $C$DW$T$151, DW_AT_decl_column(0x20)
    4293                    $C$DW$T$152     .dwtag  DW_TAG_typedef, DW_AT_name("uint_fast40_t")
    4294                            .dwattr $C$DW$T$152, DW_AT_type(*$C$DW$T$151)
    4295                            .dwattr $C$DW$T$152, DW_AT_language(DW_LANG_C)
    4296                            .dwattr $C$DW$T$152, DW_AT_decl_file("C:/VLIB_Tools/CCSV5_4_0/ccsv5/tools/compiler/C6000/inclu
    4297                            .dwattr $C$DW$T$152, DW_AT_decl_line(0x52)
    4298                            .dwattr $C$DW$T$152, DW_AT_decl_column(0x16)
    4299                    $C$DW$T$153     .dwtag  DW_TAG_typedef, DW_AT_name("uint_least40_t")
    4300                            .dwattr $C$DW$T$153, DW_AT_type(*$C$DW$T$151)
    4301                            .dwattr $C$DW$T$153, DW_AT_language(DW_LANG_C)
    4302                            .dwattr $C$DW$T$153, DW_AT_decl_file("C:/VLIB_Tools/CCSV5_4_0/ccsv5/tools/compiler/C6000/inclu
    4303                            .dwattr $C$DW$T$153, DW_AT_decl_line(0x42)
    4304                            .dwattr $C$DW$T$153, DW_AT_decl_column(0x16)
    4305                    $C$DW$T$14      .dwtag  DW_TAG_base_type
    4306                            .dwattr $C$DW$T$14, DW_AT_encoding(DW_ATE_signed)
    4307                            .dwattr $C$DW$T$14, DW_AT_name("long long")
    4308                            .dwattr $C$DW$T$14, DW_AT_byte_size(0x08)
    4309                    $C$DW$T$155     .dwtag  DW_TAG_typedef, DW_AT_name("int64_t")
    4310                            .dwattr $C$DW$T$155, DW_AT_type(*$C$DW$T$14)
    4311                            .dwattr $C$DW$T$155, DW_AT_language(DW_LANG_C)
    4312                            .dwattr $C$DW$T$155, DW_AT_decl_file("C:/VLIB_Tools/CCSV5_4_0/ccsv5/tools/compiler/C6000/inclu
    4313                            .dwattr $C$DW$T$155, DW_AT_decl_line(0x34)
    4314                            .dwattr $C$DW$T$155, DW_AT_decl_column(0x21)
    4315                    $C$DW$T$156     .dwtag  DW_TAG_typedef, DW_AT_name("int_fast64_t")
    4316                            .dwattr $C$DW$T$156, DW_AT_type(*$C$DW$T$155)
    4317                            .dwattr $C$DW$T$156, DW_AT_language(DW_LANG_C)
    4318                            .dwattr $C$DW$T$156, DW_AT_decl_file("C:/VLIB_Tools/CCSV5_4_0/ccsv5/tools/compiler/C6000/inclu
    4319                            .dwattr $C$DW$T$156, DW_AT_decl_line(0x54)
    4320                            .dwattr $C$DW$T$156, DW_AT_decl_column(0x17)
    4321                    $C$DW$T$157     .dwtag  DW_TAG_typedef, DW_AT_name("int_least64_t")
    4322                            .dwattr $C$DW$T$157, DW_AT_type(*$C$DW$T$155)
    4323                            .dwattr $C$DW$T$157, DW_AT_language(DW_LANG_C)
    4324                            .dwattr $C$DW$T$157, DW_AT_decl_file("C:/VLIB_Tools/CCSV5_4_0/ccsv5/tools/compiler/C6000/inclu
    4325                            .dwattr $C$DW$T$157, DW_AT_decl_line(0x44)
    4326                            .dwattr $C$DW$T$157, DW_AT_decl_column(0x17)
TMS320C6x Assembler PC v7.4.2 Thu Mar 19 12:41:55 2015

Tools Copyright (c) 1996-2012 Texas Instruments Incorporated
package/lib/Regression/regress_d_c/./../packages/ti/vlib/src/VLIB_homographyDecomposition/VLIB_homographyDecomposition_d.se66 PAGE   95

    4327                    $C$DW$T$158     .dwtag  DW_TAG_typedef, DW_AT_name("intmax_t")
    4328                            .dwattr $C$DW$T$158, DW_AT_type(*$C$DW$T$14)
    4329                            .dwattr $C$DW$T$158, DW_AT_language(DW_LANG_C)
    4330                            .dwattr $C$DW$T$158, DW_AT_decl_file("C:/VLIB_Tools/CCSV5_4_0/ccsv5/tools/compiler/C6000/inclu
    4331                            .dwattr $C$DW$T$158, DW_AT_decl_line(0x5c)
    4332                            .dwattr $C$DW$T$158, DW_AT_decl_column(0x20)
    4333                    $C$DW$T$15      .dwtag  DW_TAG_base_type
    4334                            .dwattr $C$DW$T$15, DW_AT_encoding(DW_ATE_unsigned)
    4335                            .dwattr $C$DW$T$15, DW_AT_name("unsigned long long")
    4336                            .dwattr $C$DW$T$15, DW_AT_byte_size(0x08)
    4337                    $C$DW$T$160     .dwtag  DW_TAG_pointer_type
    4338                            .dwattr $C$DW$T$160, DW_AT_type(*$C$DW$T$15)
    4339                            .dwattr $C$DW$T$160, DW_AT_address_class(0x20)
    4340                    $C$DW$T$161     .dwtag  DW_TAG_typedef, DW_AT_name("uint64_t")
    4341                            .dwattr $C$DW$T$161, DW_AT_type(*$C$DW$T$15)
    4342                            .dwattr $C$DW$T$161, DW_AT_language(DW_LANG_C)
    4343                            .dwattr $C$DW$T$161, DW_AT_decl_file("C:/VLIB_Tools/CCSV5_4_0/ccsv5/tools/compiler/C6000/inclu
    4344                            .dwattr $C$DW$T$161, DW_AT_decl_line(0x35)
    4345                            .dwattr $C$DW$T$161, DW_AT_decl_column(0x20)
    4346                    
    4347                    $C$DW$T$162     .dwtag  DW_TAG_array_type
    4348                            .dwattr $C$DW$T$162, DW_AT_type(*$C$DW$T$161)
    4349                            .dwattr $C$DW$T$162, DW_AT_language(DW_LANG_C)
    4350                            .dwattr $C$DW$T$162, DW_AT_byte_size(0x10)
    4351                    $C$DW$345       .dwtag  DW_TAG_subrange_type
    4352                            .dwattr $C$DW$345, DW_AT_upper_bound(0x01)
    4353                            .dwendtag $C$DW$T$162
    4354                    
    4355                    $C$DW$T$163     .dwtag  DW_TAG_typedef, DW_AT_name("uint_fast64_t")
    4356                            .dwattr $C$DW$T$163, DW_AT_type(*$C$DW$T$161)
    4357                            .dwattr $C$DW$T$163, DW_AT_language(DW_LANG_C)
    4358                            .dwattr $C$DW$T$163, DW_AT_decl_file("C:/VLIB_Tools/CCSV5_4_0/ccsv5/tools/compiler/C6000/inclu
    4359                            .dwattr $C$DW$T$163, DW_AT_decl_line(0x55)
    4360                            .dwattr $C$DW$T$163, DW_AT_decl_column(0x16)
    4361                    $C$DW$T$164     .dwtag  DW_TAG_typedef, DW_AT_name("uint_least64_t")
    4362                            .dwattr $C$DW$T$164, DW_AT_type(*$C$DW$T$161)
    4363                            .dwattr $C$DW$T$164, DW_AT_language(DW_LANG_C)
    4364                            .dwattr $C$DW$T$164, DW_AT_decl_file("C:/VLIB_Tools/CCSV5_4_0/ccsv5/tools/compiler/C6000/inclu
    4365                            .dwattr $C$DW$T$164, DW_AT_decl_line(0x45)
    4366                            .dwattr $C$DW$T$164, DW_AT_decl_column(0x16)
    4367                    $C$DW$T$165     .dwtag  DW_TAG_typedef, DW_AT_name("uintmax_t")
    4368                            .dwattr $C$DW$T$165, DW_AT_type(*$C$DW$T$15)
    4369                            .dwattr $C$DW$T$165, DW_AT_language(DW_LANG_C)
    4370                            .dwattr $C$DW$T$165, DW_AT_decl_file("C:/VLIB_Tools/CCSV5_4_0/ccsv5/tools/compiler/C6000/inclu
    4371                            .dwattr $C$DW$T$165, DW_AT_decl_line(0x5d)
    4372                            .dwattr $C$DW$T$165, DW_AT_decl_column(0x20)
    4373                    $C$DW$T$16      .dwtag  DW_TAG_base_type
    4374                            .dwattr $C$DW$T$16, DW_AT_encoding(DW_ATE_float)
    4375                            .dwattr $C$DW$T$16, DW_AT_name("float")
    4376                            .dwattr $C$DW$T$16, DW_AT_byte_size(0x04)
    4377                    $C$DW$T$166     .dwtag  DW_TAG_typedef, DW_AT_name("VLIB_F32")
    4378                            .dwattr $C$DW$T$166, DW_AT_type(*$C$DW$T$16)
    4379                            .dwattr $C$DW$T$166, DW_AT_language(DW_LANG_C)
    4380                            .dwattr $C$DW$T$166, DW_AT_decl_file(".\..\packages\ti\vlib\src\VLIB_homographyDecomposition\.
    4381                            .dwattr $C$DW$T$166, DW_AT_decl_line(0x5b)
TMS320C6x Assembler PC v7.4.2 Thu Mar 19 12:41:55 2015

Tools Copyright (c) 1996-2012 Texas Instruments Incorporated
package/lib/Regression/regress_d_c/./../packages/ti/vlib/src/VLIB_homographyDecomposition/VLIB_homographyDecomposition_d.se66 PAGE   96

    4382                            .dwattr $C$DW$T$166, DW_AT_decl_column(0x0f)
    4383                    $C$DW$T$167     .dwtag  DW_TAG_typedef, DW_AT_name("float32_t")
    4384                            .dwattr $C$DW$T$167, DW_AT_type(*$C$DW$T$16)
    4385                            .dwattr $C$DW$T$167, DW_AT_language(DW_LANG_C)
    4386                            .dwattr $C$DW$T$167, DW_AT_decl_file("C:\VLIB_Tools\CCSV5_4_0\ccsv5\tools\compiler\C6000\inclu
    4387                            .dwattr $C$DW$T$167, DW_AT_decl_line(0x30)
    4388                            .dwattr $C$DW$T$167, DW_AT_decl_column(0x0f)
    4389                    $C$DW$T$17      .dwtag  DW_TAG_base_type
    4390                            .dwattr $C$DW$T$17, DW_AT_encoding(DW_ATE_float)
    4391                            .dwattr $C$DW$T$17, DW_AT_name("double")
    4392                            .dwattr $C$DW$T$17, DW_AT_byte_size(0x08)
    4393                    $C$DW$T$20      .dwtag  DW_TAG_typedef, DW_AT_name("VLIB_D64")
    4394                            .dwattr $C$DW$T$20, DW_AT_type(*$C$DW$T$17)
    4395                            .dwattr $C$DW$T$20, DW_AT_language(DW_LANG_C)
    4396                            .dwattr $C$DW$T$20, DW_AT_decl_file(".\..\packages\ti\vlib\src\VLIB_homographyDecomposition\..
    4397                            .dwattr $C$DW$T$20, DW_AT_decl_line(0x5a)
    4398                            .dwattr $C$DW$T$20, DW_AT_decl_column(0x10)
    4399                    $C$DW$T$21      .dwtag  DW_TAG_pointer_type
    4400                            .dwattr $C$DW$T$21, DW_AT_type(*$C$DW$T$20)
    4401                            .dwattr $C$DW$T$21, DW_AT_address_class(0x20)
    4402                    
    4403                    $C$DW$T$24      .dwtag  DW_TAG_array_type
    4404                            .dwattr $C$DW$T$24, DW_AT_type(*$C$DW$T$20)
    4405                            .dwattr $C$DW$T$24, DW_AT_language(DW_LANG_C)
    4406                            .dwattr $C$DW$T$24, DW_AT_byte_size(0x18)
    4407                    $C$DW$346       .dwtag  DW_TAG_subrange_type
    4408                            .dwattr $C$DW$346, DW_AT_upper_bound(0x02)
    4409                            .dwendtag $C$DW$T$24
    4410                    
    4411                    
    4412                    $C$DW$T$25      .dwtag  DW_TAG_array_type
    4413                            .dwattr $C$DW$T$25, DW_AT_type(*$C$DW$T$20)
    4414                            .dwattr $C$DW$T$25, DW_AT_language(DW_LANG_C)
    4415                            .dwattr $C$DW$T$25, DW_AT_byte_size(0x48)
    4416                    $C$DW$347       .dwtag  DW_TAG_subrange_type
    4417                            .dwattr $C$DW$347, DW_AT_upper_bound(0x02)
    4418                    $C$DW$348       .dwtag  DW_TAG_subrange_type
    4419                            .dwattr $C$DW$348, DW_AT_upper_bound(0x02)
    4420                            .dwendtag $C$DW$T$25
    4421                    
    4422                    $C$DW$T$124     .dwtag  DW_TAG_pointer_type
    4423                            .dwattr $C$DW$T$124, DW_AT_type(*$C$DW$T$24)
    4424                            .dwattr $C$DW$T$124, DW_AT_address_class(0x20)
    4425                    $C$DW$T$168     .dwtag  DW_TAG_pointer_type
    4426                            .dwattr $C$DW$T$168, DW_AT_type(*$C$DW$T$17)
    4427                            .dwattr $C$DW$T$168, DW_AT_address_class(0x20)
    4428                    $C$DW$T$172     .dwtag  DW_TAG_typedef, DW_AT_name("__float2_t")
    4429                            .dwattr $C$DW$T$172, DW_AT_type(*$C$DW$T$17)
    4430                            .dwattr $C$DW$T$172, DW_AT_language(DW_LANG_C)
    4431                            .dwattr $C$DW$T$172, DW_AT_decl_file("C:/VLIB_Tools/CCSV5_4_0/ccsv5/tools/compiler/C6000/inclu
    4432                            .dwattr $C$DW$T$172, DW_AT_decl_line(0x5f)
    4433                            .dwattr $C$DW$T$172, DW_AT_decl_column(0x14)
    4434                    $C$DW$T$18      .dwtag  DW_TAG_base_type
    4435                            .dwattr $C$DW$T$18, DW_AT_encoding(DW_ATE_float)
    4436                            .dwattr $C$DW$T$18, DW_AT_name("long double")
TMS320C6x Assembler PC v7.4.2 Thu Mar 19 12:41:55 2015

Tools Copyright (c) 1996-2012 Texas Instruments Incorporated
package/lib/Regression/regress_d_c/./../packages/ti/vlib/src/VLIB_homographyDecomposition/VLIB_homographyDecomposition_d.se66 PAGE   97

    4437                            .dwattr $C$DW$T$18, DW_AT_byte_size(0x08)
    4438                    $C$DW$T$34      .dwtag  DW_TAG_base_type
    4439                            .dwattr $C$DW$T$34, DW_AT_encoding(DW_ATE_signed_char)
    4440                            .dwattr $C$DW$T$34, DW_AT_name("signed char")
    4441                            .dwattr $C$DW$T$34, DW_AT_byte_size(0x01)
    4442                    
    4443                    $C$DW$T$35      .dwtag  DW_TAG_array_type
    4444                            .dwattr $C$DW$T$35, DW_AT_type(*$C$DW$T$34)
    4445                            .dwattr $C$DW$T$35, DW_AT_language(DW_LANG_C)
    4446                            .dwattr $C$DW$T$35, DW_AT_byte_size(0x04)
    4447                    $C$DW$349       .dwtag  DW_TAG_subrange_type
    4448                            .dwattr $C$DW$349, DW_AT_upper_bound(0x03)
    4449                            .dwendtag $C$DW$T$35
    4450                    
    4451                    $C$DW$T$64      .dwtag  DW_TAG_pointer_type
    4452                            .dwattr $C$DW$T$64, DW_AT_type(*$C$DW$T$34)
    4453                            .dwattr $C$DW$T$64, DW_AT_address_class(0x20)
    4454                    $C$DW$T$173     .dwtag  DW_TAG_typedef, DW_AT_name("va_list")
    4455                            .dwattr $C$DW$T$173, DW_AT_type(*$C$DW$T$64)
    4456                            .dwattr $C$DW$T$173, DW_AT_language(DW_LANG_C)
    4457                            .dwattr $C$DW$T$173, DW_AT_decl_file("C:/VLIB_Tools/CCSV5_4_0/ccsv5/tools/compiler/C6000/inclu
    4458                            .dwattr $C$DW$T$173, DW_AT_decl_line(0x2f)
    4459                            .dwattr $C$DW$T$173, DW_AT_decl_column(0x12)
    4460                    $C$DW$T$116     .dwtag  DW_TAG_const_type
    4461                            .dwattr $C$DW$T$116, DW_AT_type(*$C$DW$T$34)
    4462                    $C$DW$T$117     .dwtag  DW_TAG_pointer_type
    4463                            .dwattr $C$DW$T$117, DW_AT_type(*$C$DW$T$116)
    4464                            .dwattr $C$DW$T$117, DW_AT_address_class(0x20)
    4465                    
    4466                    $C$DW$T$174     .dwtag  DW_TAG_array_type
    4467                            .dwattr $C$DW$T$174, DW_AT_type(*$C$DW$T$34)
    4468                            .dwattr $C$DW$T$174, DW_AT_language(DW_LANG_C)
    4469                    $C$DW$350       .dwtag  DW_TAG_subrange_type
    4470                            .dwendtag $C$DW$T$174
    4471                    
    4472                    
    4473                    $C$DW$T$38      .dwtag  DW_TAG_structure_type
    4474                            .dwattr $C$DW$T$38, DW_AT_name("__simd128_int32_t")
    4475                            .dwattr $C$DW$T$38, DW_AT_byte_size(0x10)
    4476                    $C$DW$351       .dwtag  DW_TAG_member
    4477                            .dwattr $C$DW$351, DW_AT_type(*$C$DW$T$37)
    4478                            .dwattr $C$DW$351, DW_AT_name("_v")
    4479                            .dwattr $C$DW$351, DW_AT_TI_symbol_name("_v")
    4480                            .dwattr $C$DW$351, DW_AT_data_member_location[DW_OP_plus_uconst 0x0]
    4481                            .dwattr $C$DW$351, DW_AT_accessibility(DW_ACCESS_public)
    4482                            .dwattr $C$DW$351, DW_AT_decl_file("C:\VLIB_Tools\CCSV5_4_0\ccsv5\tools\compiler\C6000\include
    4483                            .dwattr $C$DW$351, DW_AT_decl_line(0x44)
    4484                            .dwattr $C$DW$351, DW_AT_decl_column(0x01)
    4485                            .dwendtag $C$DW$T$38
    4486                    
    4487                            .dwattr $C$DW$T$38, DW_AT_decl_file("C:\VLIB_Tools\CCSV5_4_0\ccsv5\tools\compiler\C6000\includ
    4488                            .dwattr $C$DW$T$38, DW_AT_decl_line(0x44)
    4489                            .dwattr $C$DW$T$38, DW_AT_decl_column(0x01)
    4490                    $C$DW$T$175     .dwtag  DW_TAG_typedef, DW_AT_name("int32x4_t")
    4491                            .dwattr $C$DW$T$175, DW_AT_type(*$C$DW$T$38)
TMS320C6x Assembler PC v7.4.2 Thu Mar 19 12:41:55 2015

Tools Copyright (c) 1996-2012 Texas Instruments Incorporated
package/lib/Regression/regress_d_c/./../packages/ti/vlib/src/VLIB_homographyDecomposition/VLIB_homographyDecomposition_d.se66 PAGE   98

    4492                            .dwattr $C$DW$T$175, DW_AT_language(DW_LANG_C)
    4493                            .dwattr $C$DW$T$175, DW_AT_decl_file("C:\VLIB_Tools\CCSV5_4_0\ccsv5\tools\compiler\C6000\inclu
    4494                            .dwattr $C$DW$T$175, DW_AT_decl_line(0x44)
    4495                            .dwattr $C$DW$T$175, DW_AT_decl_column(0x01)
    4496                    $C$DW$T$176     .dwtag  DW_TAG_typedef, DW_AT_name("__x128_t")
    4497                            .dwattr $C$DW$T$176, DW_AT_type(*$C$DW$T$175)
    4498                            .dwattr $C$DW$T$176, DW_AT_language(DW_LANG_C)
    4499                            .dwattr $C$DW$T$176, DW_AT_decl_file("C:\VLIB_Tools\CCSV5_4_0\ccsv5\tools\compiler\C6000\inclu
    4500                            .dwattr $C$DW$T$176, DW_AT_decl_line(0x46)
    4501                            .dwattr $C$DW$T$176, DW_AT_decl_column(0x13)
    4502                    
    4503                    $C$DW$T$39      .dwtag  DW_TAG_structure_type
    4504                            .dwattr $C$DW$T$39, DW_AT_name("tm")
    4505                            .dwattr $C$DW$T$39, DW_AT_byte_size(0x24)
    4506                    $C$DW$352       .dwtag  DW_TAG_member
    4507                            .dwattr $C$DW$352, DW_AT_type(*$C$DW$T$10)
    4508                            .dwattr $C$DW$352, DW_AT_name("tm_sec")
    4509                            .dwattr $C$DW$352, DW_AT_TI_symbol_name("tm_sec")
    4510                            .dwattr $C$DW$352, DW_AT_data_member_location[DW_OP_plus_uconst 0x0]
    4511                            .dwattr $C$DW$352, DW_AT_accessibility(DW_ACCESS_public)
    4512                            .dwattr $C$DW$352, DW_AT_decl_file("C:/VLIB_Tools/CCSV5_4_0/ccsv5/tools/compiler/C6000/include
    4513                            .dwattr $C$DW$352, DW_AT_decl_line(0x41)
    4514                            .dwattr $C$DW$352, DW_AT_decl_column(0x09)
    4515                    $C$DW$353       .dwtag  DW_TAG_member
    4516                            .dwattr $C$DW$353, DW_AT_type(*$C$DW$T$10)
    4517                            .dwattr $C$DW$353, DW_AT_name("tm_min")
    4518                            .dwattr $C$DW$353, DW_AT_TI_symbol_name("tm_min")
    4519                            .dwattr $C$DW$353, DW_AT_data_member_location[DW_OP_plus_uconst 0x4]
    4520                            .dwattr $C$DW$353, DW_AT_accessibility(DW_ACCESS_public)
    4521                            .dwattr $C$DW$353, DW_AT_decl_file("C:/VLIB_Tools/CCSV5_4_0/ccsv5/tools/compiler/C6000/include
    4522                            .dwattr $C$DW$353, DW_AT_decl_line(0x42)
    4523                            .dwattr $C$DW$353, DW_AT_decl_column(0x09)
    4524                    $C$DW$354       .dwtag  DW_TAG_member
    4525                            .dwattr $C$DW$354, DW_AT_type(*$C$DW$T$10)
    4526                            .dwattr $C$DW$354, DW_AT_name("tm_hour")
    4527                            .dwattr $C$DW$354, DW_AT_TI_symbol_name("tm_hour")
    4528                            .dwattr $C$DW$354, DW_AT_data_member_location[DW_OP_plus_uconst 0x8]
    4529                            .dwattr $C$DW$354, DW_AT_accessibility(DW_ACCESS_public)
    4530                            .dwattr $C$DW$354, DW_AT_decl_file("C:/VLIB_Tools/CCSV5_4_0/ccsv5/tools/compiler/C6000/include
    4531                            .dwattr $C$DW$354, DW_AT_decl_line(0x43)
    4532                            .dwattr $C$DW$354, DW_AT_decl_column(0x09)
    4533                    $C$DW$355       .dwtag  DW_TAG_member
    4534                            .dwattr $C$DW$355, DW_AT_type(*$C$DW$T$10)
    4535                            .dwattr $C$DW$355, DW_AT_name("tm_mday")
    4536                            .dwattr $C$DW$355, DW_AT_TI_symbol_name("tm_mday")
    4537                            .dwattr $C$DW$355, DW_AT_data_member_location[DW_OP_plus_uconst 0xc]
    4538                            .dwattr $C$DW$355, DW_AT_accessibility(DW_ACCESS_public)
    4539                            .dwattr $C$DW$355, DW_AT_decl_file("C:/VLIB_Tools/CCSV5_4_0/ccsv5/tools/compiler/C6000/include
    4540                            .dwattr $C$DW$355, DW_AT_decl_line(0x44)
    4541                            .dwattr $C$DW$355, DW_AT_decl_column(0x09)
    4542                    $C$DW$356       .dwtag  DW_TAG_member
    4543                            .dwattr $C$DW$356, DW_AT_type(*$C$DW$T$10)
    4544                            .dwattr $C$DW$356, DW_AT_name("tm_mon")
    4545                            .dwattr $C$DW$356, DW_AT_TI_symbol_name("tm_mon")
    4546                            .dwattr $C$DW$356, DW_AT_data_member_location[DW_OP_plus_uconst 0x10]
TMS320C6x Assembler PC v7.4.2 Thu Mar 19 12:41:55 2015

Tools Copyright (c) 1996-2012 Texas Instruments Incorporated
package/lib/Regression/regress_d_c/./../packages/ti/vlib/src/VLIB_homographyDecomposition/VLIB_homographyDecomposition_d.se66 PAGE   99

    4547                            .dwattr $C$DW$356, DW_AT_accessibility(DW_ACCESS_public)
    4548                            .dwattr $C$DW$356, DW_AT_decl_file("C:/VLIB_Tools/CCSV5_4_0/ccsv5/tools/compiler/C6000/include
    4549                            .dwattr $C$DW$356, DW_AT_decl_line(0x45)
    4550                            .dwattr $C$DW$356, DW_AT_decl_column(0x09)
    4551                    $C$DW$357       .dwtag  DW_TAG_member
    4552                            .dwattr $C$DW$357, DW_AT_type(*$C$DW$T$10)
    4553                            .dwattr $C$DW$357, DW_AT_name("tm_year")
    4554                            .dwattr $C$DW$357, DW_AT_TI_symbol_name("tm_year")
    4555                            .dwattr $C$DW$357, DW_AT_data_member_location[DW_OP_plus_uconst 0x14]
    4556                            .dwattr $C$DW$357, DW_AT_accessibility(DW_ACCESS_public)
    4557                            .dwattr $C$DW$357, DW_AT_decl_file("C:/VLIB_Tools/CCSV5_4_0/ccsv5/tools/compiler/C6000/include
    4558                            .dwattr $C$DW$357, DW_AT_decl_line(0x46)
    4559                            .dwattr $C$DW$357, DW_AT_decl_column(0x09)
    4560                    $C$DW$358       .dwtag  DW_TAG_member
    4561                            .dwattr $C$DW$358, DW_AT_type(*$C$DW$T$10)
    4562                            .dwattr $C$DW$358, DW_AT_name("tm_wday")
    4563                            .dwattr $C$DW$358, DW_AT_TI_symbol_name("tm_wday")
    4564                            .dwattr $C$DW$358, DW_AT_data_member_location[DW_OP_plus_uconst 0x18]
    4565                            .dwattr $C$DW$358, DW_AT_accessibility(DW_ACCESS_public)
    4566                            .dwattr $C$DW$358, DW_AT_decl_file("C:/VLIB_Tools/CCSV5_4_0/ccsv5/tools/compiler/C6000/include
    4567                            .dwattr $C$DW$358, DW_AT_decl_line(0x47)
    4568                            .dwattr $C$DW$358, DW_AT_decl_column(0x09)
    4569                    $C$DW$359       .dwtag  DW_TAG_member
    4570                            .dwattr $C$DW$359, DW_AT_type(*$C$DW$T$10)
    4571                            .dwattr $C$DW$359, DW_AT_name("tm_yday")
    4572                            .dwattr $C$DW$359, DW_AT_TI_symbol_name("tm_yday")
    4573                            .dwattr $C$DW$359, DW_AT_data_member_location[DW_OP_plus_uconst 0x1c]
    4574                            .dwattr $C$DW$359, DW_AT_accessibility(DW_ACCESS_public)
    4575                            .dwattr $C$DW$359, DW_AT_decl_file("C:/VLIB_Tools/CCSV5_4_0/ccsv5/tools/compiler/C6000/include
    4576                            .dwattr $C$DW$359, DW_AT_decl_line(0x48)
    4577                            .dwattr $C$DW$359, DW_AT_decl_column(0x09)
    4578                    $C$DW$360       .dwtag  DW_TAG_member
    4579                            .dwattr $C$DW$360, DW_AT_type(*$C$DW$T$10)
    4580                            .dwattr $C$DW$360, DW_AT_name("tm_isdst")
    4581                            .dwattr $C$DW$360, DW_AT_TI_symbol_name("tm_isdst")
    4582                            .dwattr $C$DW$360, DW_AT_data_member_location[DW_OP_plus_uconst 0x20]
    4583                            .dwattr $C$DW$360, DW_AT_accessibility(DW_ACCESS_public)
    4584                            .dwattr $C$DW$360, DW_AT_decl_file("C:/VLIB_Tools/CCSV5_4_0/ccsv5/tools/compiler/C6000/include
    4585                            .dwattr $C$DW$360, DW_AT_decl_line(0x49)
    4586                            .dwattr $C$DW$360, DW_AT_decl_column(0x09)
    4587                            .dwendtag $C$DW$T$39
    4588                    
    4589                            .dwattr $C$DW$T$39, DW_AT_decl_file("C:/VLIB_Tools/CCSV5_4_0/ccsv5/tools/compiler/C6000/includ
    4590                            .dwattr $C$DW$T$39, DW_AT_decl_line(0x3f)
    4591                            .dwattr $C$DW$T$39, DW_AT_decl_column(0x08)
    4592                            .dwattr $C$DW$CU, DW_AT_language(DW_LANG_C)
    4593                    
    4594                    ;***************************************************************
    4595                    ;* DWARF CIE ENTRIES                                           *
    4596                    ;***************************************************************
    4597                    
    4598                    $C$DW$CIE       .dwcie 19
    4599                            .dwcfi  cfa_register, 31
    4600                            .dwcfi  cfa_offset, 0
    4601                            .dwcfi  undefined, 0
TMS320C6x Assembler PC v7.4.2 Thu Mar 19 12:41:55 2015

Tools Copyright (c) 1996-2012 Texas Instruments Incorporated
package/lib/Regression/regress_d_c/./../packages/ti/vlib/src/VLIB_homographyDecomposition/VLIB_homographyDecomposition_d.se66 PAGE  100

    4602                            .dwcfi  undefined, 1
    4603                            .dwcfi  undefined, 2
    4604                            .dwcfi  undefined, 3
    4605                            .dwcfi  undefined, 4
    4606                            .dwcfi  undefined, 5
    4607                            .dwcfi  undefined, 6
    4608                            .dwcfi  undefined, 7
    4609                            .dwcfi  undefined, 8
    4610                            .dwcfi  undefined, 9
    4611                            .dwcfi  same_value, 10
    4612                            .dwcfi  same_value, 11
    4613                            .dwcfi  same_value, 12
    4614                            .dwcfi  same_value, 13
    4615                            .dwcfi  same_value, 14
    4616                            .dwcfi  same_value, 15
    4617                            .dwcfi  undefined, 16
    4618                            .dwcfi  undefined, 17
    4619                            .dwcfi  undefined, 18
    4620                            .dwcfi  undefined, 19
    4621                            .dwcfi  undefined, 20
    4622                            .dwcfi  undefined, 21
    4623                            .dwcfi  undefined, 22
    4624                            .dwcfi  undefined, 23
    4625                            .dwcfi  undefined, 24
    4626                            .dwcfi  undefined, 25
    4627                            .dwcfi  same_value, 26
    4628                            .dwcfi  same_value, 27
    4629                            .dwcfi  same_value, 28
    4630                            .dwcfi  same_value, 29
    4631                            .dwcfi  same_value, 30
    4632                            .dwcfi  same_value, 31
    4633                            .dwcfi  same_value, 32
    4634                            .dwcfi  undefined, 33
    4635                            .dwcfi  undefined, 34
    4636                            .dwcfi  undefined, 35
    4637                            .dwcfi  undefined, 36
    4638                            .dwcfi  undefined, 37
    4639                            .dwcfi  undefined, 38
    4640                            .dwcfi  undefined, 39
    4641                            .dwcfi  undefined, 40
    4642                            .dwcfi  undefined, 41
    4643                            .dwcfi  undefined, 42
    4644                            .dwcfi  undefined, 43
    4645                            .dwcfi  undefined, 44
    4646                            .dwcfi  undefined, 45
    4647                            .dwcfi  undefined, 46
    4648                            .dwcfi  undefined, 47
    4649                            .dwcfi  undefined, 48
    4650                            .dwcfi  undefined, 49
    4651                            .dwcfi  undefined, 50
    4652                            .dwcfi  undefined, 51
    4653                            .dwcfi  undefined, 52
    4654                            .dwcfi  undefined, 53
    4655                            .dwcfi  undefined, 54
    4656                            .dwcfi  undefined, 55
TMS320C6x Assembler PC v7.4.2 Thu Mar 19 12:41:55 2015

Tools Copyright (c) 1996-2012 Texas Instruments Incorporated
package/lib/Regression/regress_d_c/./../packages/ti/vlib/src/VLIB_homographyDecomposition/VLIB_homographyDecomposition_d.se66 PAGE  101

    4657                            .dwcfi  undefined, 56
    4658                            .dwcfi  undefined, 57
    4659                            .dwcfi  undefined, 58
    4660                            .dwcfi  undefined, 59
    4661                            .dwcfi  undefined, 60
    4662                            .dwcfi  undefined, 61
    4663                            .dwcfi  undefined, 62
    4664                            .dwcfi  undefined, 63
    4665                            .dwcfi  undefined, 64
    4666                            .dwcfi  undefined, 65
    4667                            .dwcfi  undefined, 66
    4668                            .dwcfi  undefined, 67
    4669                            .dwcfi  undefined, 68
    4670                            .dwcfi  undefined, 69
    4671                            .dwcfi  undefined, 70
    4672                            .dwcfi  undefined, 71
    4673                            .dwcfi  undefined, 72
    4674                            .dwcfi  undefined, 73
    4675                            .dwcfi  undefined, 74
    4676                            .dwcfi  undefined, 75
    4677                            .dwcfi  undefined, 76
    4678                            .dwcfi  undefined, 77
    4679                            .dwcfi  undefined, 78
    4680                            .dwcfi  undefined, 79
    4681                            .dwcfi  undefined, 80
    4682                            .dwcfi  undefined, 81
    4683                            .dwcfi  undefined, 82
    4684                            .dwcfi  undefined, 83
    4685                            .dwcfi  undefined, 84
    4686                            .dwcfi  undefined, 85
    4687                            .dwcfi  undefined, 86
    4688                            .dwcfi  undefined, 87
    4689                            .dwcfi  undefined, 88
    4690                            .dwcfi  undefined, 89
    4691                            .dwcfi  undefined, 90
    4692                            .dwcfi  undefined, 91
    4693                            .dwcfi  undefined, 92
    4694                            .dwcfi  undefined, 93
    4695                            .dwcfi  undefined, 94
    4696                            .dwcfi  undefined, 95
    4697                            .dwcfi  undefined, 96
    4698                            .dwcfi  undefined, 97
    4699                            .dwcfi  undefined, 98
    4700                            .dwcfi  undefined, 99
    4701                            .dwcfi  undefined, 100
    4702                            .dwcfi  undefined, 101
    4703                            .dwcfi  undefined, 102
    4704                            .dwcfi  undefined, 103
    4705                            .dwcfi  undefined, 104
    4706                            .dwcfi  undefined, 105
    4707                            .dwcfi  undefined, 106
    4708                            .dwcfi  undefined, 107
    4709                            .dwcfi  undefined, 108
    4710                            .dwcfi  undefined, 109
    4711                            .dwcfi  undefined, 110
TMS320C6x Assembler PC v7.4.2 Thu Mar 19 12:41:55 2015

Tools Copyright (c) 1996-2012 Texas Instruments Incorporated
package/lib/Regression/regress_d_c/./../packages/ti/vlib/src/VLIB_homographyDecomposition/VLIB_homographyDecomposition_d.se66 PAGE  102

    4712                            .dwcfi  undefined, 111
    4713                            .dwcfi  undefined, 112
    4714                            .dwcfi  undefined, 113
    4715                            .dwcfi  undefined, 114
    4716                            .dwcfi  undefined, 115
    4717                            .dwcfi  undefined, 116
    4718                            .dwcfi  undefined, 117
    4719                            .dwcfi  undefined, 118
    4720                            .dwcfi  undefined, 119
    4721                            .dwcfi  undefined, 120
    4722                            .dwcfi  undefined, 121
    4723                            .dwcfi  undefined, 122
    4724                            .dwcfi  undefined, 123
    4725                            .dwcfi  undefined, 124
    4726                            .dwcfi  undefined, 125
    4727                            .dwcfi  undefined, 126
    4728                            .dwcfi  undefined, 127
    4729                            .dwendentry
    4730                            .dwendtag $C$DW$CU
    4731                    

No Assembly Errors, No Assembly Warnings
