TMS320C6x Assembler PC v7.4.2 Thu Mar 19 12:40:09 2015

Tools Copyright (c) 1996-2012 Texas Instruments Incorporated
package/lib/Regression/regress_d_c/./../packages/ti/vlib/src/VLIB_blockStatistics/VLIB_blockStatistics_d.se66 PAGE    1

       1                    ;******************************************************************************
       2                    ;* TMS320C6x C/C++ Codegen                                          PC v7.4.2 *
       3                    ;* Date/Time created: Thu Mar 19 12:40:05 2015                                *
       4                    ;******************************************************************************
       5                            .compiler_opts --abi=eabi --c64p_l1d_workaround=off --endian=little --hll_source=on --long_pre
       6                    
       7                    ;******************************************************************************
       8                    ;* GLOBAL FILE PARAMETERS                                                     *
       9                    ;*                                                                            *
      10                    ;*   Architecture      : TMS320C66xx                                          *
      11                    ;*   Optimization      : Enabled at level 3                                   *
      12                    ;*   Optimizing for    : Speed                                                *
      13                    ;*                       Based on options: -o3, no -ms                        *
      14                    ;*   Endian            : Little                                               *
      15                    ;*   Interrupt Thrshld : 10000                                                *
      16                    ;*   Data Access Model : Far                                                  *
      17                    ;*   Pipelining        : Enabled                                              *
      18                    ;*   Speculate Loads   : Enabled with threshold = 0                           *
      19                    ;*   Memory Aliases    : Presume are aliases (pessimistic)                    *
      20                    ;*   Debug Info        : DWARF Debug w/Optimization                           *
      21                    ;*                                                                            *
      22                    ;******************************************************************************
      23                    
      24                            .asg    A15, FP
      25                            .asg    B14, DP
      26                            .asg    B15, SP
      27                            .global $bss
      28                    
      29                    
      30                    $C$DW$CU        .dwtag  DW_TAG_compile_unit
      31                            .dwattr $C$DW$CU, DW_AT_name("./../packages/ti/vlib/src/VLIB_blockStatistics/VLIB_blockStatist
      32                            .dwattr $C$DW$CU, DW_AT_producer("TI TMS320C6x C/C++ Codegen PC v7.4.2 Copyright (c) 1996-2012
      33                            .dwattr $C$DW$CU, DW_AT_TI_version(0x01)
      34                            .dwattr $C$DW$CU, DW_AT_comp_dir("c:\nightlybuilds\vlib\ti\vlib\vlib\examples")
      35                    
      36                    $C$DW$1 .dwtag  DW_TAG_subprogram, DW_AT_name("_itoll")
      37                            .dwattr $C$DW$1, DW_AT_TI_symbol_name("_itoll")
      38                            .dwattr $C$DW$1, DW_AT_type(*$C$DW$T$14)
      39                            .dwattr $C$DW$1, DW_AT_declaration
      40                            .dwattr $C$DW$1, DW_AT_external
      41                            .dwattr $C$DW$1, DW_AT_decl_file("C:/VLIB_Tools/CCSV5_4_0/ccsv5/tools/compiler/C6000/include/c
      42                            .dwattr $C$DW$1, DW_AT_decl_line(0xdf)
      43                            .dwattr $C$DW$1, DW_AT_decl_column(0x0b)
      44                    $C$DW$2 .dwtag  DW_TAG_formal_parameter
      45                            .dwattr $C$DW$2, DW_AT_type(*$C$DW$T$11)
      46                    $C$DW$3 .dwtag  DW_TAG_formal_parameter
      47                            .dwattr $C$DW$3, DW_AT_type(*$C$DW$T$11)
      48                            .dwendtag $C$DW$1
      49                    
      50                    
      51                    $C$DW$4 .dwtag  DW_TAG_subprogram, DW_AT_name("printf")
      52                            .dwattr $C$DW$4, DW_AT_TI_symbol_name("printf")
      53                            .dwattr $C$DW$4, DW_AT_type(*$C$DW$T$10)
      54                            .dwattr $C$DW$4, DW_AT_declaration
      55                            .dwattr $C$DW$4, DW_AT_external
TMS320C6x Assembler PC v7.4.2 Thu Mar 19 12:40:09 2015

Tools Copyright (c) 1996-2012 Texas Instruments Incorporated
package/lib/Regression/regress_d_c/./../packages/ti/vlib/src/VLIB_blockStatistics/VLIB_blockStatistics_d.se66 PAGE    2

      56                            .dwattr $C$DW$4, DW_AT_decl_file("C:/VLIB_Tools/CCSV5_4_0/ccsv5/tools/compiler/C6000/include/s
      57                            .dwattr $C$DW$4, DW_AT_decl_line(0xb8)
      58                            .dwattr $C$DW$4, DW_AT_decl_column(0x19)
      59                    $C$DW$5 .dwtag  DW_TAG_formal_parameter
      60                            .dwattr $C$DW$5, DW_AT_type(*$C$DW$T$110)
      61                    $C$DW$6 .dwtag  DW_TAG_unspecified_parameters
      62                            .dwendtag $C$DW$4
      63                    
      64                    
      65                    $C$DW$7 .dwtag  DW_TAG_subprogram, DW_AT_name("sprintf")
      66                            .dwattr $C$DW$7, DW_AT_TI_symbol_name("sprintf")
      67                            .dwattr $C$DW$7, DW_AT_type(*$C$DW$T$10)
      68                            .dwattr $C$DW$7, DW_AT_declaration
      69                            .dwattr $C$DW$7, DW_AT_external
      70                            .dwattr $C$DW$7, DW_AT_decl_file("C:/VLIB_Tools/CCSV5_4_0/ccsv5/tools/compiler/C6000/include/s
      71                            .dwattr $C$DW$7, DW_AT_decl_line(0xbc)
      72                            .dwattr $C$DW$7, DW_AT_decl_column(0x19)
      73                    $C$DW$8 .dwtag  DW_TAG_formal_parameter
      74                            .dwattr $C$DW$8, DW_AT_type(*$C$DW$T$60)
      75                    $C$DW$9 .dwtag  DW_TAG_formal_parameter
      76                            .dwattr $C$DW$9, DW_AT_type(*$C$DW$T$110)
      77                    $C$DW$10        .dwtag  DW_TAG_unspecified_parameters
      78                            .dwendtag $C$DW$7
      79                    
      80                    
      81                    $C$DW$11        .dwtag  DW_TAG_subprogram, DW_AT_name("free")
      82                            .dwattr $C$DW$11, DW_AT_TI_symbol_name("free")
      83                            .dwattr $C$DW$11, DW_AT_declaration
      84                            .dwattr $C$DW$11, DW_AT_external
      85                            .dwattr $C$DW$11, DW_AT_decl_file("C:/VLIB_Tools/CCSV5_4_0/ccsv5/tools/compiler/C6000/include/
      86                            .dwattr $C$DW$11, DW_AT_decl_line(0x86)
      87                            .dwattr $C$DW$11, DW_AT_decl_column(0x19)
      88                    $C$DW$12        .dwtag  DW_TAG_formal_parameter
      89                            .dwattr $C$DW$12, DW_AT_type(*$C$DW$T$3)
      90                            .dwendtag $C$DW$11
      91                    
      92                    
      93                    $C$DW$13        .dwtag  DW_TAG_subprogram, DW_AT_name("memalign")
      94                            .dwattr $C$DW$13, DW_AT_TI_symbol_name("memalign")
      95                            .dwattr $C$DW$13, DW_AT_type(*$C$DW$T$3)
      96                            .dwattr $C$DW$13, DW_AT_declaration
      97                            .dwattr $C$DW$13, DW_AT_external
      98                            .dwattr $C$DW$13, DW_AT_decl_file("C:/VLIB_Tools/CCSV5_4_0/ccsv5/tools/compiler/C6000/include/
      99                            .dwattr $C$DW$13, DW_AT_decl_line(0x87)
     100                            .dwattr $C$DW$13, DW_AT_decl_column(0x19)
     101                    $C$DW$14        .dwtag  DW_TAG_formal_parameter
     102                            .dwattr $C$DW$14, DW_AT_type(*$C$DW$T$55)
     103                    $C$DW$15        .dwtag  DW_TAG_formal_parameter
     104                            .dwattr $C$DW$15, DW_AT_type(*$C$DW$T$55)
     105                            .dwendtag $C$DW$13
     106                    
     107                    
     108                    $C$DW$16        .dwtag  DW_TAG_subprogram, DW_AT_name("VLIB_cache_inval")
     109                            .dwattr $C$DW$16, DW_AT_TI_symbol_name("VLIB_cache_inval")
     110                            .dwattr $C$DW$16, DW_AT_type(*$C$DW$T$10)
TMS320C6x Assembler PC v7.4.2 Thu Mar 19 12:40:09 2015

Tools Copyright (c) 1996-2012 Texas Instruments Incorporated
package/lib/Regression/regress_d_c/./../packages/ti/vlib/src/VLIB_blockStatistics/VLIB_blockStatistics_d.se66 PAGE    3

     111                            .dwattr $C$DW$16, DW_AT_declaration
     112                            .dwattr $C$DW$16, DW_AT_external
     113                            .dwattr $C$DW$16, DW_AT_decl_file(".\..\packages\ti\vlib\src\VLIB_blockStatistics\..\common\c6
     114                            .dwattr $C$DW$16, DW_AT_decl_line(0x58)
     115                            .dwattr $C$DW$16, DW_AT_decl_column(0x05)
     116                    
     117                    $C$DW$17        .dwtag  DW_TAG_subprogram, DW_AT_name("VLIB_profile_init")
     118                            .dwattr $C$DW$17, DW_AT_TI_symbol_name("VLIB_profile_init")
     119                            .dwattr $C$DW$17, DW_AT_declaration
     120                            .dwattr $C$DW$17, DW_AT_external
     121                            .dwattr $C$DW$17, DW_AT_decl_file(".\..\packages\ti\vlib\src\VLIB_blockStatistics\..\common\VL
     122                            .dwattr $C$DW$17, DW_AT_decl_line(0x7b)
     123                            .dwattr $C$DW$17, DW_AT_decl_column(0x06)
     124                    $C$DW$18        .dwtag  DW_TAG_formal_parameter
     125                            .dwattr $C$DW$18, DW_AT_type(*$C$DW$T$10)
     126                    $C$DW$19        .dwtag  DW_TAG_formal_parameter
     127                            .dwattr $C$DW$19, DW_AT_type(*$C$DW$T$60)
     128                            .dwendtag $C$DW$17
     129                    
     130                    
     131                    $C$DW$20        .dwtag  DW_TAG_subprogram, DW_AT_name("VLIB_formula_add_test")
     132                            .dwattr $C$DW$20, DW_AT_TI_symbol_name("VLIB_formula_add_test")
     133                            .dwattr $C$DW$20, DW_AT_declaration
     134                            .dwattr $C$DW$20, DW_AT_external
     135                            .dwattr $C$DW$20, DW_AT_decl_file(".\..\packages\ti\vlib\src\VLIB_blockStatistics\..\common\VL
     136                            .dwattr $C$DW$20, DW_AT_decl_line(0x7d)
     137                            .dwattr $C$DW$20, DW_AT_decl_column(0x06)
     138                    $C$DW$21        .dwtag  DW_TAG_formal_parameter
     139                            .dwattr $C$DW$21, DW_AT_type(*$C$DW$T$10)
     140                    $C$DW$22        .dwtag  DW_TAG_formal_parameter
     141                            .dwattr $C$DW$22, DW_AT_type(*$C$DW$T$10)
     142                    $C$DW$23        .dwtag  DW_TAG_formal_parameter
     143                            .dwattr $C$DW$23, DW_AT_type(*$C$DW$T$10)
     144                    $C$DW$24        .dwtag  DW_TAG_formal_parameter
     145                            .dwattr $C$DW$24, DW_AT_type(*$C$DW$T$10)
     146                    $C$DW$25        .dwtag  DW_TAG_formal_parameter
     147                            .dwattr $C$DW$25, DW_AT_type(*$C$DW$T$60)
     148                    $C$DW$26        .dwtag  DW_TAG_formal_parameter
     149                            .dwattr $C$DW$26, DW_AT_type(*$C$DW$T$10)
     150                            .dwendtag $C$DW$20
     151                    
     152                    
     153                    $C$DW$27        .dwtag  DW_TAG_subprogram, DW_AT_name("VLIB_skip_test")
     154                            .dwattr $C$DW$27, DW_AT_TI_symbol_name("VLIB_skip_test")
     155                            .dwattr $C$DW$27, DW_AT_declaration
     156                            .dwattr $C$DW$27, DW_AT_external
     157                            .dwattr $C$DW$27, DW_AT_decl_file(".\..\packages\ti\vlib\src\VLIB_blockStatistics\..\common\VL
     158                            .dwattr $C$DW$27, DW_AT_decl_line(0x7e)
     159                            .dwattr $C$DW$27, DW_AT_decl_column(0x06)
     160                    $C$DW$28        .dwtag  DW_TAG_formal_parameter
     161                            .dwattr $C$DW$28, DW_AT_type(*$C$DW$T$60)
     162                            .dwendtag $C$DW$27
     163                    
     164                    
     165                    $C$DW$29        .dwtag  DW_TAG_subprogram, DW_AT_name("VLIB_profile_cycle_report")
TMS320C6x Assembler PC v7.4.2 Thu Mar 19 12:40:09 2015

Tools Copyright (c) 1996-2012 Texas Instruments Incorporated
package/lib/Regression/regress_d_c/./../packages/ti/vlib/src/VLIB_blockStatistics/VLIB_blockStatistics_d.se66 PAGE    4

     166                            .dwattr $C$DW$29, DW_AT_TI_symbol_name("VLIB_profile_cycle_report")
     167                            .dwattr $C$DW$29, DW_AT_declaration
     168                            .dwattr $C$DW$29, DW_AT_external
     169                            .dwattr $C$DW$29, DW_AT_decl_file(".\..\packages\ti\vlib\src\VLIB_blockStatistics\..\common\VL
     170                            .dwattr $C$DW$29, DW_AT_decl_line(0x7f)
     171                            .dwattr $C$DW$29, DW_AT_decl_column(0x06)
     172                    $C$DW$30        .dwtag  DW_TAG_formal_parameter
     173                            .dwattr $C$DW$30, DW_AT_type(*$C$DW$T$10)
     174                    $C$DW$31        .dwtag  DW_TAG_formal_parameter
     175                            .dwattr $C$DW$31, DW_AT_type(*$C$DW$T$60)
     176                    $C$DW$32        .dwtag  DW_TAG_formal_parameter
     177                            .dwattr $C$DW$32, DW_AT_type(*$C$DW$T$60)
     178                            .dwendtag $C$DW$29
     179                    
     180                    
     181                    $C$DW$33        .dwtag  DW_TAG_subprogram, DW_AT_name("initStack")
     182                            .dwattr $C$DW$33, DW_AT_TI_symbol_name("initStack")
     183                            .dwattr $C$DW$33, DW_AT_declaration
     184                            .dwattr $C$DW$33, DW_AT_external
     185                            .dwattr $C$DW$33, DW_AT_decl_file(".\..\packages\ti\vlib\src\VLIB_blockStatistics\..\common\VL
     186                            .dwattr $C$DW$33, DW_AT_decl_line(0x80)
     187                            .dwattr $C$DW$33, DW_AT_decl_column(0x06)
     188                    $C$DW$34        .dwtag  DW_TAG_formal_parameter
     189                            .dwattr $C$DW$34, DW_AT_type(*$C$DW$T$23)
     190                            .dwendtag $C$DW$33
     191                    
     192                    
     193                    $C$DW$35        .dwtag  DW_TAG_subprogram, DW_AT_name("setStackDepth")
     194                            .dwattr $C$DW$35, DW_AT_TI_symbol_name("setStackDepth")
     195                            .dwattr $C$DW$35, DW_AT_declaration
     196                            .dwattr $C$DW$35, DW_AT_external
     197                            .dwattr $C$DW$35, DW_AT_decl_file(".\..\packages\ti\vlib\src\VLIB_blockStatistics\..\common\VL
     198                            .dwattr $C$DW$35, DW_AT_decl_line(0x81)
     199                            .dwattr $C$DW$35, DW_AT_decl_column(0x06)
     200                    
     201                    $C$DW$36        .dwtag  DW_TAG_subprogram, DW_AT_name("getSP")
     202                            .dwattr $C$DW$36, DW_AT_TI_symbol_name("getSP")
     203                            .dwattr $C$DW$36, DW_AT_type(*$C$DW$T$23)
     204                            .dwattr $C$DW$36, DW_AT_declaration
     205                            .dwattr $C$DW$36, DW_AT_external
     206                            .dwattr $C$DW$36, DW_AT_decl_file(".\..\packages\ti\vlib\src\VLIB_blockStatistics\..\common\VL
     207                            .dwattr $C$DW$36, DW_AT_decl_line(0x82)
     208                            .dwattr $C$DW$36, DW_AT_decl_column(0x0a)
     209                    
     210                    $C$DW$37        .dwtag  DW_TAG_subprogram, DW_AT_name("VLIB_stack_memory")
     211                            .dwattr $C$DW$37, DW_AT_TI_symbol_name("VLIB_stack_memory")
     212                            .dwattr $C$DW$37, DW_AT_declaration
     213                            .dwattr $C$DW$37, DW_AT_external
     214                            .dwattr $C$DW$37, DW_AT_decl_file(".\..\packages\ti\vlib\src\VLIB_blockStatistics\..\common\VL
     215                            .dwattr $C$DW$37, DW_AT_decl_line(0x83)
     216                            .dwattr $C$DW$37, DW_AT_decl_column(0x06)
     217                    
     218                    $C$DW$38        .dwtag  DW_TAG_subprogram, DW_AT_name("VLIB_fillBuffer")
     219                            .dwattr $C$DW$38, DW_AT_TI_symbol_name("VLIB_fillBuffer")
     220                            .dwattr $C$DW$38, DW_AT_declaration
TMS320C6x Assembler PC v7.4.2 Thu Mar 19 12:40:09 2015

Tools Copyright (c) 1996-2012 Texas Instruments Incorporated
package/lib/Regression/regress_d_c/./../packages/ti/vlib/src/VLIB_blockStatistics/VLIB_blockStatistics_d.se66 PAGE    5

     221                            .dwattr $C$DW$38, DW_AT_external
     222                            .dwattr $C$DW$38, DW_AT_decl_file(".\..\packages\ti\vlib\src\VLIB_blockStatistics\../common/VL
     223                            .dwattr $C$DW$38, DW_AT_decl_line(0x77)
     224                            .dwattr $C$DW$38, DW_AT_decl_column(0x06)
     225                    $C$DW$39        .dwtag  DW_TAG_formal_parameter
     226                            .dwattr $C$DW$39, DW_AT_type(*$C$DW$T$19)
     227                    $C$DW$40        .dwtag  DW_TAG_formal_parameter
     228                            .dwattr $C$DW$40, DW_AT_type(*$C$DW$T$19)
     229                    $C$DW$41        .dwtag  DW_TAG_formal_parameter
     230                            .dwattr $C$DW$41, DW_AT_type(*$C$DW$T$3)
     231                    $C$DW$42        .dwtag  DW_TAG_formal_parameter
     232                            .dwattr $C$DW$42, DW_AT_type(*$C$DW$T$3)
     233                    $C$DW$43        .dwtag  DW_TAG_formal_parameter
     234                            .dwattr $C$DW$43, DW_AT_type(*$C$DW$T$21)
     235                    $C$DW$44        .dwtag  DW_TAG_formal_parameter
     236                            .dwattr $C$DW$44, DW_AT_type(*$C$DW$T$21)
     237                    $C$DW$45        .dwtag  DW_TAG_formal_parameter
     238                            .dwattr $C$DW$45, DW_AT_type(*$C$DW$T$21)
     239                    $C$DW$46        .dwtag  DW_TAG_formal_parameter
     240                            .dwattr $C$DW$46, DW_AT_type(*$C$DW$T$19)
     241                    $C$DW$47        .dwtag  DW_TAG_formal_parameter
     242                            .dwattr $C$DW$47, DW_AT_type(*$C$DW$T$60)
     243                            .dwendtag $C$DW$38
     244                    
     245                    
     246                    $C$DW$48        .dwtag  DW_TAG_subprogram, DW_AT_name("VLIB_memalign")
     247                            .dwattr $C$DW$48, DW_AT_TI_symbol_name("VLIB_memalign")
     248                            .dwattr $C$DW$48, DW_AT_type(*$C$DW$T$3)
     249                            .dwattr $C$DW$48, DW_AT_declaration
     250                            .dwattr $C$DW$48, DW_AT_external
     251                            .dwattr $C$DW$48, DW_AT_decl_file(".\..\packages\ti\vlib\src\VLIB_blockStatistics\../common/VL
     252                            .dwattr $C$DW$48, DW_AT_decl_line(0xae)
     253                            .dwattr $C$DW$48, DW_AT_decl_column(0x07)
     254                    $C$DW$49        .dwtag  DW_TAG_formal_parameter
     255                            .dwattr $C$DW$49, DW_AT_type(*$C$DW$T$55)
     256                    $C$DW$50        .dwtag  DW_TAG_formal_parameter
     257                            .dwattr $C$DW$50, DW_AT_type(*$C$DW$T$55)
     258                            .dwendtag $C$DW$48
     259                    
     260                    
     261                    $C$DW$51        .dwtag  DW_TAG_subprogram, DW_AT_name("VLIB_align_free")
     262                            .dwattr $C$DW$51, DW_AT_TI_symbol_name("VLIB_align_free")
     263                            .dwattr $C$DW$51, DW_AT_declaration
     264                            .dwattr $C$DW$51, DW_AT_external
     265                            .dwattr $C$DW$51, DW_AT_decl_file(".\..\packages\ti\vlib\src\VLIB_blockStatistics\../common/VL
     266                            .dwattr $C$DW$51, DW_AT_decl_line(0xb3)
     267                            .dwattr $C$DW$51, DW_AT_decl_column(0x07)
     268                    $C$DW$52        .dwtag  DW_TAG_formal_parameter
     269                            .dwattr $C$DW$52, DW_AT_type(*$C$DW$T$3)
     270                            .dwendtag $C$DW$51
     271                    
     272                    
     273                    $C$DW$53        .dwtag  DW_TAG_subprogram, DW_AT_name("VLIB_blockStatistics")
     274                            .dwattr $C$DW$53, DW_AT_TI_symbol_name("VLIB_blockStatistics")
     275                            .dwattr $C$DW$53, DW_AT_type(*$C$DW$T$23)
TMS320C6x Assembler PC v7.4.2 Thu Mar 19 12:40:09 2015

Tools Copyright (c) 1996-2012 Texas Instruments Incorporated
package/lib/Regression/regress_d_c/./../packages/ti/vlib/src/VLIB_blockStatistics/VLIB_blockStatistics_d.se66 PAGE    6

     276                            .dwattr $C$DW$53, DW_AT_declaration
     277                            .dwattr $C$DW$53, DW_AT_external
     278                            .dwattr $C$DW$53, DW_AT_decl_file(".\..\packages\ti\vlib\src\VLIB_blockStatistics\c66/VLIB_blo
     279                            .dwattr $C$DW$53, DW_AT_decl_line(0x97)
     280                            .dwattr $C$DW$53, DW_AT_decl_column(0x0d)
     281                    $C$DW$54        .dwtag  DW_TAG_formal_parameter
     282                            .dwattr $C$DW$54, DW_AT_type(*$C$DW$T$101)
     283                    $C$DW$55        .dwtag  DW_TAG_formal_parameter
     284                            .dwattr $C$DW$55, DW_AT_type(*$C$DW$T$21)
     285                    $C$DW$56        .dwtag  DW_TAG_formal_parameter
     286                            .dwattr $C$DW$56, DW_AT_type(*$C$DW$T$21)
     287                    $C$DW$57        .dwtag  DW_TAG_formal_parameter
     288                            .dwattr $C$DW$57, DW_AT_type(*$C$DW$T$21)
     289                    $C$DW$58        .dwtag  DW_TAG_formal_parameter
     290                            .dwattr $C$DW$58, DW_AT_type(*$C$DW$T$19)
     291                    $C$DW$59        .dwtag  DW_TAG_formal_parameter
     292                            .dwattr $C$DW$59, DW_AT_type(*$C$DW$T$19)
     293                    $C$DW$60        .dwtag  DW_TAG_formal_parameter
     294                            .dwattr $C$DW$60, DW_AT_type(*$C$DW$T$98)
     295                    $C$DW$61        .dwtag  DW_TAG_formal_parameter
     296                            .dwattr $C$DW$61, DW_AT_type(*$C$DW$T$98)
     297                    $C$DW$62        .dwtag  DW_TAG_formal_parameter
     298                            .dwattr $C$DW$62, DW_AT_type(*$C$DW$T$107)
     299                    $C$DW$63        .dwtag  DW_TAG_formal_parameter
     300                            .dwattr $C$DW$63, DW_AT_type(*$C$DW$T$130)
     301                    $C$DW$64        .dwtag  DW_TAG_formal_parameter
     302                            .dwattr $C$DW$64, DW_AT_type(*$C$DW$T$98)
     303                    $C$DW$65        .dwtag  DW_TAG_formal_parameter
     304                            .dwattr $C$DW$65, DW_AT_type(*$C$DW$T$19)
     305                            .dwendtag $C$DW$53
     306                    
     307                    
     308                    $C$DW$66        .dwtag  DW_TAG_subprogram, DW_AT_name("VLIB_blockStatistics_cn")
     309                            .dwattr $C$DW$66, DW_AT_TI_symbol_name("VLIB_blockStatistics_cn")
     310                            .dwattr $C$DW$66, DW_AT_declaration
     311                            .dwattr $C$DW$66, DW_AT_external
     312                            .dwattr $C$DW$66, DW_AT_decl_file(".\..\packages\ti\vlib\src\VLIB_blockStatistics\VLIB_blockSt
     313                            .dwattr $C$DW$66, DW_AT_decl_line(0x7a)
     314                            .dwattr $C$DW$66, DW_AT_decl_column(0x06)
     315                    $C$DW$67        .dwtag  DW_TAG_formal_parameter
     316                            .dwattr $C$DW$67, DW_AT_type(*$C$DW$T$20)
     317                    $C$DW$68        .dwtag  DW_TAG_formal_parameter
     318                            .dwattr $C$DW$68, DW_AT_type(*$C$DW$T$21)
     319                    $C$DW$69        .dwtag  DW_TAG_formal_parameter
     320                            .dwattr $C$DW$69, DW_AT_type(*$C$DW$T$21)
     321                    $C$DW$70        .dwtag  DW_TAG_formal_parameter
     322                            .dwattr $C$DW$70, DW_AT_type(*$C$DW$T$21)
     323                    $C$DW$71        .dwtag  DW_TAG_formal_parameter
     324                            .dwattr $C$DW$71, DW_AT_type(*$C$DW$T$21)
     325                    $C$DW$72        .dwtag  DW_TAG_formal_parameter
     326                            .dwattr $C$DW$72, DW_AT_type(*$C$DW$T$21)
     327                    $C$DW$73        .dwtag  DW_TAG_formal_parameter
     328                            .dwattr $C$DW$73, DW_AT_type(*$C$DW$T$20)
     329                    $C$DW$74        .dwtag  DW_TAG_formal_parameter
     330                            .dwattr $C$DW$74, DW_AT_type(*$C$DW$T$20)
TMS320C6x Assembler PC v7.4.2 Thu Mar 19 12:40:09 2015

Tools Copyright (c) 1996-2012 Texas Instruments Incorporated
package/lib/Regression/regress_d_c/./../packages/ti/vlib/src/VLIB_blockStatistics/VLIB_blockStatistics_d.se66 PAGE    7

     331                    $C$DW$75        .dwtag  DW_TAG_formal_parameter
     332                            .dwattr $C$DW$75, DW_AT_type(*$C$DW$T$22)
     333                    $C$DW$76        .dwtag  DW_TAG_formal_parameter
     334                            .dwattr $C$DW$76, DW_AT_type(*$C$DW$T$24)
     335                            .dwendtag $C$DW$66
     336                    
     337                    
     338                    $C$DW$77        .dwtag  DW_TAG_subprogram, DW_AT_name("blockStatistics_getTestParams")
     339                            .dwattr $C$DW$77, DW_AT_TI_symbol_name("blockStatistics_getTestParams")
     340                            .dwattr $C$DW$77, DW_AT_declaration
     341                            .dwattr $C$DW$77, DW_AT_external
     342                            .dwattr $C$DW$77, DW_AT_decl_file(".\..\packages\ti\vlib\src\VLIB_blockStatistics\VLIB_blockSt
     343                            .dwattr $C$DW$77, DW_AT_decl_line(0x32)
     344                            .dwattr $C$DW$77, DW_AT_decl_column(0x06)
     345                    $C$DW$78        .dwtag  DW_TAG_formal_parameter
     346                            .dwattr $C$DW$78, DW_AT_type(*$C$DW$T$47)
     347                    $C$DW$79        .dwtag  DW_TAG_formal_parameter
     348                            .dwattr $C$DW$79, DW_AT_type(*$C$DW$T$78)
     349                            .dwendtag $C$DW$77
     350                    
     351                    $C$DW$80        .dwtag  DW_TAG_variable, DW_AT_name("test_cases")
     352                            .dwattr $C$DW$80, DW_AT_TI_symbol_name("test_cases")
     353                            .dwattr $C$DW$80, DW_AT_type(*$C$DW$T$31)
     354                            .dwattr $C$DW$80, DW_AT_declaration
     355                            .dwattr $C$DW$80, DW_AT_external
     356                            .dwattr $C$DW$80, DW_AT_decl_file(".\..\packages\ti\vlib\src\VLIB_blockStatistics\../common/VL
     357                            .dwattr $C$DW$80, DW_AT_decl_line(0x60)
     358                            .dwattr $C$DW$80, DW_AT_decl_column(0x13)
     359                    $C$DW$81        .dwtag  DW_TAG_variable, DW_AT_name("act_kernel")
     360                            .dwattr $C$DW$81, DW_AT_TI_symbol_name("act_kernel")
     361                            .dwattr $C$DW$81, DW_AT_type(*$C$DW$T$10)
     362                            .dwattr $C$DW$81, DW_AT_declaration
     363                            .dwattr $C$DW$81, DW_AT_external
     364                            .dwattr $C$DW$81, DW_AT_decl_file(".\..\packages\ti\vlib\src\VLIB_blockStatistics\../common/VL
     365                            .dwattr $C$DW$81, DW_AT_decl_line(0x62)
     366                            .dwattr $C$DW$81, DW_AT_decl_column(0x13)
     367                    $C$DW$82        .dwtag  DW_TAG_variable, DW_AT_name("desc")
     368                            .dwattr $C$DW$82, DW_AT_TI_symbol_name("desc")
     369                            .dwattr $C$DW$82, DW_AT_type(*$C$DW$T$165)
     370                            .dwattr $C$DW$82, DW_AT_declaration
     371                            .dwattr $C$DW$82, DW_AT_external
     372                            .dwattr $C$DW$82, DW_AT_decl_file(".\..\packages\ti\vlib\src\VLIB_blockStatistics\../common/VL
     373                            .dwattr $C$DW$82, DW_AT_decl_line(0x63)
     374                            .dwattr $C$DW$82, DW_AT_decl_column(0x13)
     375                    $C$DW$83        .dwtag  DW_TAG_variable, DW_AT_name("testPatternString")
     376                            .dwattr $C$DW$83, DW_AT_TI_symbol_name("testPatternString")
     377                            .dwattr $C$DW$83, DW_AT_type(*$C$DW$T$165)
     378                            .dwattr $C$DW$83, DW_AT_declaration
     379                            .dwattr $C$DW$83, DW_AT_external
     380                            .dwattr $C$DW$83, DW_AT_decl_file(".\..\packages\ti\vlib\src\VLIB_blockStatistics\../common/VL
     381                            .dwattr $C$DW$83, DW_AT_decl_line(0x64)
     382                            .dwattr $C$DW$83, DW_AT_decl_column(0x13)
     383                    $C$DW$84        .dwtag  DW_TAG_variable, DW_AT_name("est_test")
     384                            .dwattr $C$DW$84, DW_AT_TI_symbol_name("est_test")
     385                            .dwattr $C$DW$84, DW_AT_type(*$C$DW$T$10)
TMS320C6x Assembler PC v7.4.2 Thu Mar 19 12:40:09 2015

Tools Copyright (c) 1996-2012 Texas Instruments Incorporated
package/lib/Regression/regress_d_c/./../packages/ti/vlib/src/VLIB_blockStatistics/VLIB_blockStatistics_d.se66 PAGE    8

     386                            .dwattr $C$DW$84, DW_AT_declaration
     387                            .dwattr $C$DW$84, DW_AT_external
     388                            .dwattr $C$DW$84, DW_AT_decl_file(".\..\packages\ti\vlib\src\VLIB_blockStatistics\..\common\VL
     389                            .dwattr $C$DW$84, DW_AT_decl_line(0x75)
     390                            .dwattr $C$DW$84, DW_AT_decl_column(0x14)
     391                    $C$DW$85        .dwtag  DW_TAG_variable, DW_AT_name("beg_count")
     392                            .dwattr $C$DW$85, DW_AT_TI_symbol_name("beg_count")
     393                            .dwattr $C$DW$85, DW_AT_type(*$C$DW$T$155)
     394                            .dwattr $C$DW$85, DW_AT_declaration
     395                            .dwattr $C$DW$85, DW_AT_external
     396                            .dwattr $C$DW$85, DW_AT_decl_file(".\..\packages\ti\vlib\src\VLIB_blockStatistics\..\common\VL
     397                            .dwattr $C$DW$85, DW_AT_decl_line(0x76)
     398                            .dwattr $C$DW$85, DW_AT_decl_column(0x14)
     399                    $C$DW$86        .dwtag  DW_TAG_variable, DW_AT_name("end_count")
     400                            .dwattr $C$DW$86, DW_AT_TI_symbol_name("end_count")
     401                            .dwattr $C$DW$86, DW_AT_type(*$C$DW$T$155)
     402                            .dwattr $C$DW$86, DW_AT_declaration
     403                            .dwattr $C$DW$86, DW_AT_external
     404                            .dwattr $C$DW$86, DW_AT_decl_file(".\..\packages\ti\vlib\src\VLIB_blockStatistics\..\common\VL
     405                            .dwattr $C$DW$86, DW_AT_decl_line(0x77)
     406                            .dwattr $C$DW$86, DW_AT_decl_column(0x14)
     407                    $C$DW$87        .dwtag  DW_TAG_variable, DW_AT_name("overhead")
     408                            .dwattr $C$DW$87, DW_AT_TI_symbol_name("overhead")
     409                            .dwattr $C$DW$87, DW_AT_type(*$C$DW$T$155)
     410                            .dwattr $C$DW$87, DW_AT_declaration
     411                            .dwattr $C$DW$87, DW_AT_external
     412                            .dwattr $C$DW$87, DW_AT_decl_file(".\..\packages\ti\vlib\src\VLIB_blockStatistics\..\common\VL
     413                            .dwattr $C$DW$87, DW_AT_decl_line(0x78)
     414                            .dwattr $C$DW$87, DW_AT_decl_column(0x14)
     415                    $C$DW$88        .dwtag  DW_TAG_variable, DW_AT_name("cycles")
     416                            .dwattr $C$DW$88, DW_AT_TI_symbol_name("cycles")
     417                            .dwattr $C$DW$88, DW_AT_type(*$C$DW$T$156)
     418                            .dwattr $C$DW$88, DW_AT_declaration
     419                            .dwattr $C$DW$88, DW_AT_external
     420                            .dwattr $C$DW$88, DW_AT_decl_file(".\..\packages\ti\vlib\src\VLIB_blockStatistics\..\common\VL
     421                            .dwattr $C$DW$88, DW_AT_decl_line(0x79)
     422                            .dwattr $C$DW$88, DW_AT_decl_column(0x14)
     423                    ;       C:\VLIB_Tools\CCSV5_4_0\ccsv5\tools\compiler\C6000\bin\opt6x.exe C:\\Users\\gtbldadm\\AppData\
     424 00000000                   .sect   ".text"
     425                            .clink
     426                            .global VLIB_blockStatistics_d
     427                    
     428                    $C$DW$89        .dwtag  DW_TAG_subprogram, DW_AT_name("VLIB_blockStatistics_d")
     429                            .dwattr $C$DW$89, DW_AT_low_pc(VLIB_blockStatistics_d)
     430                            .dwattr $C$DW$89, DW_AT_high_pc(0x00)
     431                            .dwattr $C$DW$89, DW_AT_TI_symbol_name("VLIB_blockStatistics_d")
     432                            .dwattr $C$DW$89, DW_AT_external
     433                            .dwattr $C$DW$89, DW_AT_TI_begin_file("./../packages/ti/vlib/src/VLIB_blockStatistics/VLIB_blo
     434                            .dwattr $C$DW$89, DW_AT_TI_begin_line(0x26)
     435                            .dwattr $C$DW$89, DW_AT_TI_begin_column(0x06)
     436                            .dwattr $C$DW$89, DW_AT_decl_file("./../packages/ti/vlib/src/VLIB_blockStatistics/VLIB_blockSt
     437                            .dwattr $C$DW$89, DW_AT_decl_line(0x26)
     438                            .dwattr $C$DW$89, DW_AT_decl_column(0x06)
     439                            .dwattr $C$DW$89, DW_AT_TI_max_frame_size(0xc0)
     440                            .dwpsn  file "./../packages/ti/vlib/src/VLIB_blockStatistics/VLIB_blockStatistics_d.c",line 39
TMS320C6x Assembler PC v7.4.2 Thu Mar 19 12:40:09 2015

Tools Copyright (c) 1996-2012 Texas Instruments Incorporated
package/lib/Regression/regress_d_c/./../packages/ti/vlib/src/VLIB_blockStatistics/VLIB_blockStatistics_d.se66 PAGE    9

     441                    
     442                            .dwfde $C$DW$CIE, VLIB_blockStatistics_d
     443                    $C$DW$90        .dwtag  DW_TAG_formal_parameter, DW_AT_name("LevelOfFeedback")
     444                            .dwattr $C$DW$90, DW_AT_TI_symbol_name("LevelOfFeedback")
     445                            .dwattr $C$DW$90, DW_AT_type(*$C$DW$T$19)
     446                            .dwattr $C$DW$90, DW_AT_location[DW_OP_reg4]
     447                    ;----------------------------------------------------------------------
     448                    ;  38 | void VLIB_blockStatistics_d(uint8_t LevelOfFeedback)                   
     449                    ;----------------------------------------------------------------------
     450                    
     451                    ;******************************************************************************
     452                    ;* FUNCTION NAME: VLIB_blockStatistics_d                                      *
     453                    ;*                                                                            *
     454                    ;*   Regs Modified     : A0,A1,A2,A3,A4,A5,A6,A7,A8,A9,A10,A11,A12,A13,A14,   *
     455                    ;*                           A15,B0,B1,B2,B3,B4,B5,B6,B7,B8,B9,B10,B11,B12,   *
     456                    ;*                           B13,SP,A16,A17,A18,A19,A20,A21,A22,A23,A24,A25,  *
     457                    ;*                           A26,A27,A28,A29,A30,A31,B16,B17,B18,B19,B20,B21, *
     458                    ;*                           B22,B23,B24,B25,B26,B27,B28,B29,B30,B31          *
     459                    ;*   Regs Used         : A0,A1,A2,A3,A4,A5,A6,A7,A8,A9,A10,A11,A12,A13,A14,   *
     460                    ;*                           A15,B0,B1,B2,B3,B4,B5,B6,B7,B8,B9,B10,B11,B12,   *
     461                    ;*                           B13,DP,SP,A16,A17,A18,A19,A20,A21,A22,A23,A24,   *
     462                    ;*                           A25,A26,A27,A28,A29,A30,A31,B16,B17,B18,B19,B20, *
     463                    ;*                           B21,B22,B23,B24,B25,B26,B27,B28,B29,B30,B31      *
     464                    ;*   Local Frame Size  : 32 Args + 100 Auto + 56 Save = 188 byte              *
     465                    ;******************************************************************************
     466                    
     467                    ;******************************************************************************
     468                    ;*                                                                            *
     469                    ;* Using -g (debug) with optimization (-o3) may disable key optimizations!    *
     470                    ;*                                                                            *
     471                    ;******************************************************************************
     472 00000000           VLIB_blockStatistics_d:
     473                    ;** --------------------------------------------------------------------------*
     474                    ;          EXCLUSIVE CPU CYCLES: 16
     475                    ;** 45  -----------------------    blockStatistics_getTestParams(&prm, &test_cases);
     476                    ;** 48  -----------------------    VLIB_profile_init(2, "VLIB_blockStatistics");
     477                    ;** 51  -----------------------    if ( test_cases <= 0 ) goto g36;
     478                            .dwcfi  cfa_offset, 0
     479                    ;----------------------------------------------------------------------
     480                    ;  40 | int32_t    tpi;                      /* test parameter index */        
     481                    ;  43 | blockStatistics_testParams_t   *prm;                                   
     482                    ;----------------------------------------------------------------------
     483 00000000     25f7             STW     .D2T1   A11,*SP--(8)      ; |39| 
     484                            .dwcfi  cfa_offset, 8
     485                            .dwcfi  save_reg_to_mem, 11, 0
     486 00000002     2577             STW     .D2T1   A10,*SP--(8)      ; |39| 
     487                            .dwcfi  cfa_offset, 16
     488                            .dwcfi  save_reg_to_mem, 10, -8
     489 00000004     9677             STDW    .D2T2   B13:B12,*SP--     ; |39| 
     490                            .dwcfi  cfa_offset, 24
     491                            .dwcfi  save_reg_to_mem, 29, -12
     492                            .dwcfi  save_reg_to_mem, 28, -16
     493 00000006     9577             STDW    .D2T2   B11:B10,*SP--     ; |39| 
     494                            .dwcfi  cfa_offset, 32
     495                            .dwcfi  save_reg_to_mem, 27, -20
TMS320C6x Assembler PC v7.4.2 Thu Mar 19 12:40:09 2015

Tools Copyright (c) 1996-2012 Texas Instruments Incorporated
package/lib/Regression/regress_d_c/./../packages/ti/vlib/src/VLIB_blockStatistics/VLIB_blockStatistics_d.se66 PAGE   10

     496                            .dwcfi  save_reg_to_mem, 26, -24
     497 00000008     8777             STDW    .D2T1   A15:A14,*SP--     ; |39| 
     498                            .dwcfi  cfa_offset, 40
     499                            .dwcfi  save_reg_to_mem, 15, -28
     500                            .dwcfi  save_reg_to_mem, 14, -32
     501 0000000a     8677             STDW    .D2T1   A13:A12,*SP--     ; |39| 
     502                            .dwcfi  cfa_offset, 48
     503                            .dwcfi  save_reg_to_mem, 13, -36
     504                            .dwcfi  save_reg_to_mem, 12, -40
     505 0000000c 01bc54f6             STW     .D2T2   B3,*SP--(8)       ; |39| 
     506                            .dwcfi  cfa_offset, 56
     507                            .dwcfi  save_reg_to_mem, 19, -48
     508 00000010 07ffbc52             ADDK    .S2     -136,SP           ; |39| 
     509                            .dwcfi  cfa_offset, 192
     510                    $C$DW$91        .dwtag  DW_TAG_variable, DW_AT_name("$O$A30")
     511                            .dwattr $C$DW$91, DW_AT_TI_symbol_name("$O$A30")
     512                            .dwattr $C$DW$91, DW_AT_type(*$C$DW$T$6)
     513                            .dwattr $C$DW$91, DW_AT_location[DW_OP_reg18]
     514                    $C$DW$92        .dwtag  DW_TAG_variable, DW_AT_name("$O$A31")
     515                            .dwattr $C$DW$92, DW_AT_TI_symbol_name("$O$A31")
     516                            .dwattr $C$DW$92, DW_AT_type(*$C$DW$T$6)
     517                            .dwattr $C$DW$92, DW_AT_location[DW_OP_regx 0x44]
     518                    $C$DW$93        .dwtag  DW_TAG_variable, DW_AT_name("$O$A32")
     519                            .dwattr $C$DW$93, DW_AT_TI_symbol_name("$O$A32")
     520                            .dwattr $C$DW$93, DW_AT_type(*$C$DW$T$9)
     521                            .dwattr $C$DW$93, DW_AT_location[DW_OP_regx 0x43]
     522                    $C$DW$94        .dwtag  DW_TAG_variable, DW_AT_name("$O$A33")
     523                            .dwattr $C$DW$94, DW_AT_TI_symbol_name("$O$A33")
     524                            .dwattr $C$DW$94, DW_AT_type(*$C$DW$T$9)
     525                            .dwattr $C$DW$94, DW_AT_location[DW_OP_regx 0x42]
     526                    $C$DW$95        .dwtag  DW_TAG_variable, DW_AT_name("$O$A34")
     527                            .dwattr $C$DW$95, DW_AT_TI_symbol_name("$O$A34")
     528                            .dwattr $C$DW$95, DW_AT_type(*$C$DW$T$11)
     529                            .dwattr $C$DW$95, DW_AT_location[DW_OP_regx 0x2f]
     530                    $C$DW$96        .dwtag  DW_TAG_variable, DW_AT_name("$O$A35")
     531                            .dwattr $C$DW$96, DW_AT_TI_symbol_name("$O$A35")
     532                            .dwattr $C$DW$96, DW_AT_type(*$C$DW$T$11)
     533                            .dwattr $C$DW$96, DW_AT_location[DW_OP_regx 0x41]
     534                    $C$DW$97        .dwtag  DW_TAG_variable, DW_AT_name("$O$A36")
     535                            .dwattr $C$DW$97, DW_AT_TI_symbol_name("$O$A36")
     536                            .dwattr $C$DW$97, DW_AT_type(*$C$DW$T$6)
     537                            .dwattr $C$DW$97, DW_AT_location[DW_OP_regx 0x44]
     538                    $C$DW$98        .dwtag  DW_TAG_variable, DW_AT_name("$O$A37")
     539                            .dwattr $C$DW$98, DW_AT_TI_symbol_name("$O$A37")
     540                            .dwattr $C$DW$98, DW_AT_type(*$C$DW$T$6)
     541                            .dwattr $C$DW$98, DW_AT_location[DW_OP_regx 0x43]
     542                    $C$DW$99        .dwtag  DW_TAG_variable, DW_AT_name("$O$A38")
     543                            .dwattr $C$DW$99, DW_AT_TI_symbol_name("$O$A38")
     544                            .dwattr $C$DW$99, DW_AT_type(*$C$DW$T$9)
     545                            .dwattr $C$DW$99, DW_AT_location[DW_OP_regx 0x42]
     546                    $C$DW$100       .dwtag  DW_TAG_variable, DW_AT_name("$O$A39")
     547                            .dwattr $C$DW$100, DW_AT_TI_symbol_name("$O$A39")
     548                            .dwattr $C$DW$100, DW_AT_type(*$C$DW$T$9)
     549                            .dwattr $C$DW$100, DW_AT_location[DW_OP_regx 0x41]
     550                    $C$DW$101       .dwtag  DW_TAG_variable, DW_AT_name("$O$A40")
TMS320C6x Assembler PC v7.4.2 Thu Mar 19 12:40:09 2015

Tools Copyright (c) 1996-2012 Texas Instruments Incorporated
package/lib/Regression/regress_d_c/./../packages/ti/vlib/src/VLIB_blockStatistics/VLIB_blockStatistics_d.se66 PAGE   11

     551                            .dwattr $C$DW$101, DW_AT_TI_symbol_name("$O$A40")
     552                            .dwattr $C$DW$101, DW_AT_type(*$C$DW$T$11)
     553                            .dwattr $C$DW$101, DW_AT_location[DW_OP_regx 0x30]
     554                    $C$DW$102       .dwtag  DW_TAG_variable, DW_AT_name("$O$A41")
     555                            .dwattr $C$DW$102, DW_AT_TI_symbol_name("$O$A41")
     556                            .dwattr $C$DW$102, DW_AT_type(*$C$DW$T$11)
     557                            .dwattr $C$DW$102, DW_AT_location[DW_OP_regx 0x2f]
     558                    $C$DW$103       .dwtag  DW_TAG_variable, DW_AT_name("$O$C11")
     559                            .dwattr $C$DW$103, DW_AT_TI_symbol_name("$O$C11")
     560                            .dwattr $C$DW$103, DW_AT_type(*$C$DW$T$43)
     561                            .dwattr $C$DW$103, DW_AT_location[DW_OP_reg6]
     562                    $C$DW$104       .dwtag  DW_TAG_variable, DW_AT_name("$O$C12")
     563                            .dwattr $C$DW$104, DW_AT_TI_symbol_name("$O$C12")
     564                            .dwattr $C$DW$104, DW_AT_type(*$C$DW$T$43)
     565                            .dwattr $C$DW$104, DW_AT_location[DW_OP_reg3]
     566                    $C$DW$105       .dwtag  DW_TAG_variable, DW_AT_name("$O$C13")
     567                            .dwattr $C$DW$105, DW_AT_TI_symbol_name("$O$C13")
     568                            .dwattr $C$DW$105, DW_AT_type(*$C$DW$T$11)
     569                            .dwattr $C$DW$105, DW_AT_location[DW_OP_reg6]
     570                    $C$DW$106       .dwtag  DW_TAG_variable, DW_AT_name("$O$C14")
     571                            .dwattr $C$DW$106, DW_AT_TI_symbol_name("$O$C14")
     572                            .dwattr $C$DW$106, DW_AT_type(*$C$DW$T$10)
     573                            .dwattr $C$DW$106, DW_AT_location[DW_OP_reg16]
     574                    $C$DW$107       .dwtag  DW_TAG_variable, DW_AT_name("$O$C15")
     575                            .dwattr $C$DW$107, DW_AT_TI_symbol_name("$O$C15")
     576                            .dwattr $C$DW$107, DW_AT_type(*$C$DW$T$10)
     577                            .dwattr $C$DW$107, DW_AT_location[DW_OP_reg5]
     578                    $C$DW$108       .dwtag  DW_TAG_variable, DW_AT_name("$O$C16")
     579                            .dwattr $C$DW$108, DW_AT_TI_symbol_name("$O$C16")
     580                            .dwattr $C$DW$108, DW_AT_type(*$C$DW$T$10)
     581                            .dwattr $C$DW$108, DW_AT_location[DW_OP_reg17]
     582                    $C$DW$109       .dwtag  DW_TAG_variable, DW_AT_name("$O$C17")
     583                            .dwattr $C$DW$109, DW_AT_TI_symbol_name("$O$C17")
     584                            .dwattr $C$DW$109, DW_AT_type(*$C$DW$T$10)
     585                            .dwattr $C$DW$109, DW_AT_location[DW_OP_regx 0x36]
     586                    $C$DW$110       .dwtag  DW_TAG_variable, DW_AT_name("$O$C18")
     587                            .dwattr $C$DW$110, DW_AT_TI_symbol_name("$O$C18")
     588                            .dwattr $C$DW$110, DW_AT_type(*$C$DW$T$11)
     589                            .dwattr $C$DW$110, DW_AT_location[DW_OP_reg4]
     590                    $C$DW$111       .dwtag  DW_TAG_variable, DW_AT_name("$O$C19")
     591                            .dwattr $C$DW$111, DW_AT_TI_symbol_name("$O$C19")
     592                            .dwattr $C$DW$111, DW_AT_type(*$C$DW$T$10)
     593                            .dwattr $C$DW$111, DW_AT_location[DW_OP_reg16]
     594                    $C$DW$112       .dwtag  DW_TAG_variable, DW_AT_name("$O$C20")
     595                            .dwattr $C$DW$112, DW_AT_TI_symbol_name("$O$C20")
     596                            .dwattr $C$DW$112, DW_AT_type(*$C$DW$T$10)
     597                            .dwattr $C$DW$112, DW_AT_location[DW_OP_reg3]
     598                    $C$DW$113       .dwtag  DW_TAG_variable, DW_AT_name("$O$C21")
     599                            .dwattr $C$DW$113, DW_AT_TI_symbol_name("$O$C21")
     600                            .dwattr $C$DW$113, DW_AT_type(*$C$DW$T$10)
     601                            .dwattr $C$DW$113, DW_AT_location[DW_OP_reg17]
     602                    $C$DW$114       .dwtag  DW_TAG_variable, DW_AT_name("$O$C22")
     603                            .dwattr $C$DW$114, DW_AT_TI_symbol_name("$O$C22")
     604                            .dwattr $C$DW$114, DW_AT_type(*$C$DW$T$10)
     605                            .dwattr $C$DW$114, DW_AT_location[DW_OP_reg20]
TMS320C6x Assembler PC v7.4.2 Thu Mar 19 12:40:09 2015

Tools Copyright (c) 1996-2012 Texas Instruments Incorporated
package/lib/Regression/regress_d_c/./../packages/ti/vlib/src/VLIB_blockStatistics/VLIB_blockStatistics_d.se66 PAGE   12

     606                    $C$DW$115       .dwtag  DW_TAG_variable, DW_AT_name("$O$C23")
     607                            .dwattr $C$DW$115, DW_AT_TI_symbol_name("$O$C23")
     608                            .dwattr $C$DW$115, DW_AT_type(*$C$DW$T$10)
     609                            .dwattr $C$DW$115, DW_AT_location[DW_OP_reg3]
     610                    $C$DW$116       .dwtag  DW_TAG_variable, DW_AT_name("$O$C24")
     611                            .dwattr $C$DW$116, DW_AT_TI_symbol_name("$O$C24")
     612                            .dwattr $C$DW$116, DW_AT_type(*$C$DW$T$154)
     613                            .dwattr $C$DW$116, DW_AT_location[DW_OP_reg22]
     614                    $C$DW$117       .dwtag  DW_TAG_variable, DW_AT_name("$O$C25")
     615                            .dwattr $C$DW$117, DW_AT_TI_symbol_name("$O$C25")
     616                            .dwattr $C$DW$117, DW_AT_type(*$C$DW$T$10)
     617                            .dwattr $C$DW$117, DW_AT_location[DW_OP_reg12]
     618                    $C$DW$118       .dwtag  DW_TAG_variable, DW_AT_name("$O$C26")
     619                            .dwattr $C$DW$118, DW_AT_TI_symbol_name("$O$C26")
     620                            .dwattr $C$DW$118, DW_AT_type(*$C$DW$T$10)
     621                            .dwattr $C$DW$118, DW_AT_location[DW_OP_reg15]
     622                    $C$DW$119       .dwtag  DW_TAG_variable, DW_AT_name("$O$C27")
     623                            .dwattr $C$DW$119, DW_AT_TI_symbol_name("$O$C27")
     624                            .dwattr $C$DW$119, DW_AT_type(*$C$DW$T$10)
     625                            .dwattr $C$DW$119, DW_AT_location[DW_OP_reg10]
     626                    $C$DW$120       .dwtag  DW_TAG_variable, DW_AT_name("$O$C28")
     627                            .dwattr $C$DW$120, DW_AT_TI_symbol_name("$O$C28")
     628                            .dwattr $C$DW$120, DW_AT_type(*$C$DW$T$11)
     629                            .dwattr $C$DW$120, DW_AT_location[DW_OP_reg12]
     630                    $C$DW$121       .dwtag  DW_TAG_variable, DW_AT_name("$O$C29")
     631                            .dwattr $C$DW$121, DW_AT_TI_symbol_name("$O$C29")
     632                            .dwattr $C$DW$121, DW_AT_type(*$C$DW$T$9)
     633                            .dwattr $C$DW$121, DW_AT_location[DW_OP_reg22]
     634                    $C$DW$122       .dwtag  DW_TAG_variable, DW_AT_name("$O$f3")
     635                            .dwattr $C$DW$122, DW_AT_TI_symbol_name("$O$f3")
     636                            .dwattr $C$DW$122, DW_AT_type(*$C$DW$T$10)
     637                            .dwattr $C$DW$122, DW_AT_location[DW_OP_reg17]
     638                    $C$DW$123       .dwtag  DW_TAG_variable, DW_AT_name("$O$f4")
     639                            .dwattr $C$DW$123, DW_AT_TI_symbol_name("$O$f4")
     640                            .dwattr $C$DW$123, DW_AT_type(*$C$DW$T$10)
     641                            .dwattr $C$DW$123, DW_AT_location[DW_OP_reg1]
     642                    $C$DW$124       .dwtag  DW_TAG_variable, DW_AT_name("$O$f5")
     643                            .dwattr $C$DW$124, DW_AT_TI_symbol_name("$O$f5")
     644                            .dwattr $C$DW$124, DW_AT_type(*$C$DW$T$10)
     645                            .dwattr $C$DW$124, DW_AT_location[DW_OP_reg16]
     646                    $C$DW$125       .dwtag  DW_TAG_variable, DW_AT_name("$O$f6")
     647                            .dwattr $C$DW$125, DW_AT_TI_symbol_name("$O$f6")
     648                            .dwattr $C$DW$125, DW_AT_type(*$C$DW$T$10)
     649                            .dwattr $C$DW$125, DW_AT_location[DW_OP_reg0]
     650                    $C$DW$126       .dwtag  DW_TAG_variable, DW_AT_name("$O$f7")
     651                            .dwattr $C$DW$126, DW_AT_TI_symbol_name("$O$f7")
     652                            .dwattr $C$DW$126, DW_AT_type(*$C$DW$T$10)
     653                            .dwattr $C$DW$126, DW_AT_location[DW_OP_reg17]
     654                    $C$DW$127       .dwtag  DW_TAG_variable, DW_AT_name("$O$f8")
     655                            .dwattr $C$DW$127, DW_AT_TI_symbol_name("$O$f8")
     656                            .dwattr $C$DW$127, DW_AT_type(*$C$DW$T$10)
     657                            .dwattr $C$DW$127, DW_AT_location[DW_OP_reg1]
     658                    $C$DW$128       .dwtag  DW_TAG_variable, DW_AT_name("$O$f9")
     659                            .dwattr $C$DW$128, DW_AT_TI_symbol_name("$O$f9")
     660                            .dwattr $C$DW$128, DW_AT_type(*$C$DW$T$10)
TMS320C6x Assembler PC v7.4.2 Thu Mar 19 12:40:09 2015

Tools Copyright (c) 1996-2012 Texas Instruments Incorporated
package/lib/Regression/regress_d_c/./../packages/ti/vlib/src/VLIB_blockStatistics/VLIB_blockStatistics_d.se66 PAGE   13

     661                            .dwattr $C$DW$128, DW_AT_location[DW_OP_reg16]
     662                    $C$DW$129       .dwtag  DW_TAG_variable, DW_AT_name("$O$f10")
     663                            .dwattr $C$DW$129, DW_AT_TI_symbol_name("$O$f10")
     664                            .dwattr $C$DW$129, DW_AT_type(*$C$DW$T$10)
     665                            .dwattr $C$DW$129, DW_AT_location[DW_OP_reg0]
     666                    $C$DW$130       .dwtag  DW_TAG_variable, DW_AT_name("$O$U12")
     667                            .dwattr $C$DW$130, DW_AT_TI_symbol_name("$O$U12")
     668                            .dwattr $C$DW$130, DW_AT_type(*$C$DW$T$43)
     669                            .dwattr $C$DW$130, DW_AT_location[DW_OP_reg27]
     670                    $C$DW$131       .dwtag  DW_TAG_variable, DW_AT_name("$O$K52")
     671                            .dwattr $C$DW$131, DW_AT_TI_symbol_name("$O$K52")
     672                            .dwattr $C$DW$131, DW_AT_type(*$C$DW$T$10)
     673                            .dwattr $C$DW$131, DW_AT_location[DW_OP_reg20]
     674                    $C$DW$132       .dwtag  DW_TAG_variable, DW_AT_name("$O$K98")
     675                            .dwattr $C$DW$132, DW_AT_TI_symbol_name("$O$K98")
     676                            .dwattr $C$DW$132, DW_AT_type(*$C$DW$T$154)
     677                            .dwattr $C$DW$132, DW_AT_location[DW_OP_reg8]
     678                    $C$DW$133       .dwtag  DW_TAG_variable, DW_AT_name("$O$U145")
     679                            .dwattr $C$DW$133, DW_AT_TI_symbol_name("$O$U145")
     680                            .dwattr $C$DW$133, DW_AT_type(*$C$DW$T$11)
     681                            .dwattr $C$DW$133, DW_AT_location[DW_OP_breg31 40]
     682                    $C$DW$134       .dwtag  DW_TAG_variable, DW_AT_name("$O$U136")
     683                            .dwattr $C$DW$134, DW_AT_TI_symbol_name("$O$U136")
     684                            .dwattr $C$DW$134, DW_AT_type(*$C$DW$T$9)
     685                            .dwattr $C$DW$134, DW_AT_location[DW_OP_breg31 44]
     686                    $C$DW$135       .dwtag  DW_TAG_variable, DW_AT_name("$O$U127")
     687                            .dwattr $C$DW$135, DW_AT_TI_symbol_name("$O$U127")
     688                            .dwattr $C$DW$135, DW_AT_type(*$C$DW$T$6)
     689                            .dwattr $C$DW$135, DW_AT_location[DW_OP_breg31 48]
     690                    $C$DW$136       .dwtag  DW_TAG_variable, DW_AT_name("$O$U121")
     691                            .dwattr $C$DW$136, DW_AT_TI_symbol_name("$O$U121")
     692                            .dwattr $C$DW$136, DW_AT_type(*$C$DW$T$6)
     693                            .dwattr $C$DW$136, DW_AT_location[DW_OP_regx 0x40]
     694                    $C$DW$137       .dwtag  DW_TAG_variable, DW_AT_name("$O$U184")
     695                            .dwattr $C$DW$137, DW_AT_TI_symbol_name("$O$U184")
     696                            .dwattr $C$DW$137, DW_AT_type(*$C$DW$T$26)
     697                            .dwattr $C$DW$137, DW_AT_location[DW_OP_regx 0x40]
     698                    $C$DW$138       .dwtag  DW_TAG_variable, DW_AT_name("$O$U182")
     699                            .dwattr $C$DW$138, DW_AT_TI_symbol_name("$O$U182")
     700                            .dwattr $C$DW$138, DW_AT_type(*$C$DW$T$43)
     701                            .dwattr $C$DW$138, DW_AT_location[DW_OP_regx 0x2e]
     702                    $C$DW$139       .dwtag  DW_TAG_variable, DW_AT_name("$O$U201")
     703                            .dwattr $C$DW$139, DW_AT_TI_symbol_name("$O$U201")
     704                            .dwattr $C$DW$139, DW_AT_type(*$C$DW$T$11)
     705                            .dwattr $C$DW$139, DW_AT_location[DW_OP_breg31 52]
     706                    $C$DW$140       .dwtag  DW_TAG_variable, DW_AT_name("$O$U196")
     707                            .dwattr $C$DW$140, DW_AT_TI_symbol_name("$O$U196")
     708                            .dwattr $C$DW$140, DW_AT_type(*$C$DW$T$9)
     709                            .dwattr $C$DW$140, DW_AT_location[DW_OP_breg31 56]
     710                    $C$DW$141       .dwtag  DW_TAG_variable, DW_AT_name("$O$U191")
     711                            .dwattr $C$DW$141, DW_AT_TI_symbol_name("$O$U191")
     712                            .dwattr $C$DW$141, DW_AT_type(*$C$DW$T$6)
     713                            .dwattr $C$DW$141, DW_AT_location[DW_OP_breg31 60]
     714                    $C$DW$142       .dwtag  DW_TAG_variable, DW_AT_name("$O$U186")
     715                            .dwattr $C$DW$142, DW_AT_TI_symbol_name("$O$U186")
TMS320C6x Assembler PC v7.4.2 Thu Mar 19 12:40:09 2015

Tools Copyright (c) 1996-2012 Texas Instruments Incorporated
package/lib/Regression/regress_d_c/./../packages/ti/vlib/src/VLIB_blockStatistics/VLIB_blockStatistics_d.se66 PAGE   14

     716                            .dwattr $C$DW$142, DW_AT_type(*$C$DW$T$6)
     717                            .dwattr $C$DW$142, DW_AT_location[DW_OP_regx 0x3f]
     718                    $C$DW$143       .dwtag  DW_TAG_variable, DW_AT_name("$O$U11")
     719                            .dwattr $C$DW$143, DW_AT_TI_symbol_name("$O$U11")
     720                            .dwattr $C$DW$143, DW_AT_type(*$C$DW$T$10)
     721                            .dwattr $C$DW$143, DW_AT_location[DW_OP_reg14]
     722                    $C$DW$144       .dwtag  DW_TAG_variable, DW_AT_name("$O$K83")
     723                            .dwattr $C$DW$144, DW_AT_TI_symbol_name("$O$K83")
     724                            .dwattr $C$DW$144, DW_AT_type(*$C$DW$T$82)
     725                            .dwattr $C$DW$144, DW_AT_location[DW_OP_reg28]
     726                    $C$DW$145       .dwtag  DW_TAG_variable, DW_AT_name("$O$K215")
     727                            .dwattr $C$DW$145, DW_AT_TI_symbol_name("$O$K215")
     728                            .dwattr $C$DW$145, DW_AT_type(*$C$DW$T$82)
     729                            .dwattr $C$DW$145, DW_AT_location[DW_OP_reg8]
     730                    $C$DW$146       .dwtag  DW_TAG_variable, DW_AT_name("$O$L1")
     731                            .dwattr $C$DW$146, DW_AT_TI_symbol_name("$O$L1")
     732                            .dwattr $C$DW$146, DW_AT_type(*$C$DW$T$10)
     733                            .dwattr $C$DW$146, DW_AT_location[DW_OP_reg12]
     734                    $C$DW$147       .dwtag  DW_TAG_variable, DW_AT_name("$O$L2")
     735                            .dwattr $C$DW$147, DW_AT_TI_symbol_name("$O$L2")
     736                            .dwattr $C$DW$147, DW_AT_type(*$C$DW$T$10)
     737                            .dwattr $C$DW$147, DW_AT_location[DW_OP_regx 0x3f]
     738                    $C$DW$148       .dwtag  DW_TAG_variable, DW_AT_name("$O$L3")
     739                            .dwattr $C$DW$148, DW_AT_TI_symbol_name("$O$L3")
     740                            .dwattr $C$DW$148, DW_AT_type(*$C$DW$T$10)
     741                            .dwattr $C$DW$148, DW_AT_location[DW_OP_reg0]
     742                    $C$DW$149       .dwtag  DW_TAG_variable, DW_AT_name("$O$L4")
     743                            .dwattr $C$DW$149, DW_AT_TI_symbol_name("$O$L4")
     744                            .dwattr $C$DW$149, DW_AT_type(*$C$DW$T$10)
     745                            .dwattr $C$DW$149, DW_AT_location[DW_OP_regx 0x3e]
     746                    $C$DW$150       .dwtag  DW_TAG_variable, DW_AT_name("tpi")
     747                            .dwattr $C$DW$150, DW_AT_TI_symbol_name("tpi")
     748                            .dwattr $C$DW$150, DW_AT_type(*$C$DW$T$31)
     749                            .dwattr $C$DW$150, DW_AT_location[DW_OP_reg13]
     750                    $C$DW$151       .dwtag  DW_TAG_variable, DW_AT_name("prm")
     751                            .dwattr $C$DW$151, DW_AT_TI_symbol_name("prm")
     752                            .dwattr $C$DW$151, DW_AT_type(*$C$DW$T$46)
     753                            .dwattr $C$DW$151, DW_AT_location[DW_OP_breg31 36]
     754                    $C$DW$152       .dwtag  DW_TAG_variable, DW_AT_name("status_nat_vs_int")
     755                            .dwattr $C$DW$152, DW_AT_TI_symbol_name("status_nat_vs_int")
     756                            .dwattr $C$DW$152, DW_AT_type(*$C$DW$T$31)
     757                            .dwattr $C$DW$152, DW_AT_location[DW_OP_reg11]
     758                    $C$DW$153       .dwtag  DW_TAG_variable, DW_AT_name("status_nat_vs_ref")
     759                            .dwattr $C$DW$153, DW_AT_TI_symbol_name("status_nat_vs_ref")
     760                            .dwattr $C$DW$153, DW_AT_type(*$C$DW$T$31)
     761                            .dwattr $C$DW$153, DW_AT_location[DW_OP_reg12]
     762                    $C$DW$154       .dwtag  DW_TAG_variable, DW_AT_name("outWidth")
     763                            .dwattr $C$DW$154, DW_AT_TI_symbol_name("outWidth")
     764                            .dwattr $C$DW$154, DW_AT_type(*$C$DW$T$21)
     765                            .dwattr $C$DW$154, DW_AT_location[DW_OP_breg31 64]
     766                    $C$DW$155       .dwtag  DW_TAG_variable, DW_AT_name("outHeight")
     767                            .dwattr $C$DW$155, DW_AT_TI_symbol_name("outHeight")
     768                            .dwattr $C$DW$155, DW_AT_type(*$C$DW$T$21)
     769                            .dwattr $C$DW$155, DW_AT_location[DW_OP_breg31 68]
     770                    $C$DW$156       .dwtag  DW_TAG_variable, DW_AT_name("mode")
TMS320C6x Assembler PC v7.4.2 Thu Mar 19 12:40:09 2015

Tools Copyright (c) 1996-2012 Texas Instruments Incorporated
package/lib/Regression/regress_d_c/./../packages/ti/vlib/src/VLIB_blockStatistics/VLIB_blockStatistics_d.se66 PAGE   15

     771                            .dwattr $C$DW$156, DW_AT_TI_symbol_name("mode")
     772                            .dwattr $C$DW$156, DW_AT_type(*$C$DW$T$19)
     773                            .dwattr $C$DW$156, DW_AT_location[DW_OP_breg31 72]
     774                    $C$DW$157       .dwtag  DW_TAG_variable, DW_AT_name("scratchBufSize")
     775                            .dwattr $C$DW$157, DW_AT_TI_symbol_name("scratchBufSize")
     776                            .dwattr $C$DW$157, DW_AT_type(*$C$DW$T$31)
     777                            .dwattr $C$DW$157, DW_AT_location[DW_OP_reg20]
     778                    $C$DW$158       .dwtag  DW_TAG_variable, DW_AT_name("retVal")
     779                            .dwattr $C$DW$158, DW_AT_TI_symbol_name("retVal")
     780                            .dwattr $C$DW$158, DW_AT_type(*$C$DW$T$23)
     781                            .dwattr $C$DW$158, DW_AT_location[DW_OP_reg10]
     782                    $C$DW$159       .dwtag  DW_TAG_variable, DW_AT_name("scratch")
     783                            .dwattr $C$DW$159, DW_AT_TI_symbol_name("scratch")
     784                            .dwattr $C$DW$159, DW_AT_type(*$C$DW$T$20)
     785                            .dwattr $C$DW$159, DW_AT_location[DW_OP_breg31 76]
     786                    $C$DW$160       .dwtag  DW_TAG_variable, DW_AT_name("input")
     787                            .dwattr $C$DW$160, DW_AT_TI_symbol_name("input")
     788                            .dwattr $C$DW$160, DW_AT_type(*$C$DW$T$20)
     789                            .dwattr $C$DW$160, DW_AT_location[DW_OP_breg31 80]
     790                    $C$DW$161       .dwtag  DW_TAG_variable, DW_AT_name("min_opt")
     791                            .dwattr $C$DW$161, DW_AT_TI_symbol_name("min_opt")
     792                            .dwattr $C$DW$161, DW_AT_type(*$C$DW$T$20)
     793                            .dwattr $C$DW$161, DW_AT_location[DW_OP_breg31 84]
     794                    $C$DW$162       .dwtag  DW_TAG_variable, DW_AT_name("max_opt")
     795                            .dwattr $C$DW$162, DW_AT_TI_symbol_name("max_opt")
     796                            .dwattr $C$DW$162, DW_AT_type(*$C$DW$T$20)
     797                            .dwattr $C$DW$162, DW_AT_location[DW_OP_breg31 88]
     798                    $C$DW$163       .dwtag  DW_TAG_variable, DW_AT_name("mean_opt")
     799                            .dwattr $C$DW$163, DW_AT_TI_symbol_name("mean_opt")
     800                            .dwattr $C$DW$163, DW_AT_type(*$C$DW$T$22)
     801                            .dwattr $C$DW$163, DW_AT_location[DW_OP_breg31 92]
     802                    $C$DW$164       .dwtag  DW_TAG_variable, DW_AT_name("var_opt")
     803                            .dwattr $C$DW$164, DW_AT_TI_symbol_name("var_opt")
     804                            .dwattr $C$DW$164, DW_AT_type(*$C$DW$T$24)
     805                            .dwattr $C$DW$164, DW_AT_location[DW_OP_breg31 96]
     806                    $C$DW$165       .dwtag  DW_TAG_variable, DW_AT_name("min_cn")
     807                            .dwattr $C$DW$165, DW_AT_TI_symbol_name("min_cn")
     808                            .dwattr $C$DW$165, DW_AT_type(*$C$DW$T$20)
     809                            .dwattr $C$DW$165, DW_AT_location[DW_OP_breg31 100]
     810                    $C$DW$166       .dwtag  DW_TAG_variable, DW_AT_name("max_cn")
     811                            .dwattr $C$DW$166, DW_AT_TI_symbol_name("max_cn")
     812                            .dwattr $C$DW$166, DW_AT_type(*$C$DW$T$20)
     813                            .dwattr $C$DW$166, DW_AT_location[DW_OP_breg31 104]
     814                    $C$DW$167       .dwtag  DW_TAG_variable, DW_AT_name("mean_cn")
     815                            .dwattr $C$DW$167, DW_AT_TI_symbol_name("mean_cn")
     816                            .dwattr $C$DW$167, DW_AT_type(*$C$DW$T$22)
     817                            .dwattr $C$DW$167, DW_AT_location[DW_OP_breg31 108]
     818                    $C$DW$168       .dwtag  DW_TAG_variable, DW_AT_name("var_cn")
     819                            .dwattr $C$DW$168, DW_AT_TI_symbol_name("var_cn")
     820                            .dwattr $C$DW$168, DW_AT_type(*$C$DW$T$24)
     821                            .dwattr $C$DW$168, DW_AT_location[DW_OP_breg31 112]
     822                    $C$DW$169       .dwtag  DW_TAG_variable, DW_AT_name("$O$U118")
     823                            .dwattr $C$DW$169, DW_AT_TI_symbol_name("$O$U118")
     824                            .dwattr $C$DW$169, DW_AT_type(*$C$DW$T$10)
     825                            .dwattr $C$DW$169, DW_AT_location[DW_OP_regx 0x3a]
TMS320C6x Assembler PC v7.4.2 Thu Mar 19 12:40:09 2015

Tools Copyright (c) 1996-2012 Texas Instruments Incorporated
package/lib/Regression/regress_d_c/./../packages/ti/vlib/src/VLIB_blockStatistics/VLIB_blockStatistics_d.se66 PAGE   16

     826                    $C$DW$170       .dwtag  DW_TAG_variable, DW_AT_name("$O$U118")
     827                            .dwattr $C$DW$170, DW_AT_TI_symbol_name("$O$U118")
     828                            .dwattr $C$DW$170, DW_AT_type(*$C$DW$T$10)
     829                            .dwattr $C$DW$170, DW_AT_location[DW_OP_regx 0x3b]
     830                    $C$DW$171       .dwtag  DW_TAG_variable, DW_AT_name("$O$U117")
     831                            .dwattr $C$DW$171, DW_AT_TI_symbol_name("$O$U117")
     832                            .dwattr $C$DW$171, DW_AT_type(*$C$DW$T$11)
     833                            .dwattr $C$DW$171, DW_AT_location[DW_OP_regx 0x2a]
     834                    $C$DW$172       .dwtag  DW_TAG_variable, DW_AT_name("$O$U117")
     835                            .dwattr $C$DW$172, DW_AT_TI_symbol_name("$O$U117")
     836                            .dwattr $C$DW$172, DW_AT_type(*$C$DW$T$11)
     837                            .dwattr $C$DW$172, DW_AT_location[DW_OP_regx 0x2b]
     838                    $C$DW$173       .dwtag  DW_TAG_variable, DW_AT_name("$O$U147")
     839                            .dwattr $C$DW$173, DW_AT_TI_symbol_name("$O$U147")
     840                            .dwattr $C$DW$173, DW_AT_type(*$C$DW$T$11)
     841                            .dwattr $C$DW$173, DW_AT_location[DW_OP_breg31 116]
     842                    $C$DW$174       .dwtag  DW_TAG_variable, DW_AT_name("$O$U147")
     843                            .dwattr $C$DW$174, DW_AT_TI_symbol_name("$O$U147")
     844                            .dwattr $C$DW$174, DW_AT_type(*$C$DW$T$11)
     845                            .dwattr $C$DW$174, DW_AT_location[DW_OP_reg29]
     846                    $C$DW$175       .dwtag  DW_TAG_variable, DW_AT_name("$O$U138")
     847                            .dwattr $C$DW$175, DW_AT_TI_symbol_name("$O$U138")
     848                            .dwattr $C$DW$175, DW_AT_type(*$C$DW$T$9)
     849                            .dwattr $C$DW$175, DW_AT_location[DW_OP_breg31 120]
     850                    $C$DW$176       .dwtag  DW_TAG_variable, DW_AT_name("$O$U138")
     851                            .dwattr $C$DW$176, DW_AT_TI_symbol_name("$O$U138")
     852                            .dwattr $C$DW$176, DW_AT_type(*$C$DW$T$9)
     853                            .dwattr $C$DW$176, DW_AT_location[DW_OP_breg31 124]
     854                    $C$DW$177       .dwtag  DW_TAG_variable, DW_AT_name("$O$U129")
     855                            .dwattr $C$DW$177, DW_AT_TI_symbol_name("$O$U129")
     856                            .dwattr $C$DW$177, DW_AT_type(*$C$DW$T$6)
     857                            .dwattr $C$DW$177, DW_AT_location[DW_OP_breg31 128]
     858                    $C$DW$178       .dwtag  DW_TAG_variable, DW_AT_name("$O$U129")
     859                            .dwattr $C$DW$178, DW_AT_TI_symbol_name("$O$U129")
     860                            .dwattr $C$DW$178, DW_AT_type(*$C$DW$T$6)
     861                            .dwattr $C$DW$178, DW_AT_location[DW_OP_breg31 132]
     862                    $C$DW$179       .dwtag  DW_TAG_variable, DW_AT_name("$O$U123")
     863                            .dwattr $C$DW$179, DW_AT_TI_symbol_name("$O$U123")
     864                            .dwattr $C$DW$179, DW_AT_type(*$C$DW$T$6)
     865                            .dwattr $C$DW$179, DW_AT_location[DW_OP_regx 0x39]
     866                    $C$DW$180       .dwtag  DW_TAG_variable, DW_AT_name("$O$U123")
     867                            .dwattr $C$DW$180, DW_AT_TI_symbol_name("$O$U123")
     868                            .dwattr $C$DW$180, DW_AT_type(*$C$DW$T$6)
     869                            .dwattr $C$DW$180, DW_AT_location[DW_OP_regx 0x3a]
     870                    $C$DW$181       .dwtag  DW_TAG_variable, DW_AT_name("i")
     871                            .dwattr $C$DW$181, DW_AT_TI_symbol_name("i")
     872                            .dwattr $C$DW$181, DW_AT_type(*$C$DW$T$23)
     873                            .dwattr $C$DW$181, DW_AT_location[DW_OP_reg10]
     874                    $C$DW$182       .dwtag  DW_TAG_variable, DW_AT_name("i")
     875                            .dwattr $C$DW$182, DW_AT_TI_symbol_name("i")
     876                            .dwattr $C$DW$182, DW_AT_type(*$C$DW$T$23)
     877                            .dwattr $C$DW$182, DW_AT_location[DW_OP_reg10]
     878                    $C$DW$183       .dwtag  DW_TAG_variable, DW_AT_name("j")
     879                            .dwattr $C$DW$183, DW_AT_TI_symbol_name("j")
     880                            .dwattr $C$DW$183, DW_AT_type(*$C$DW$T$23)
TMS320C6x Assembler PC v7.4.2 Thu Mar 19 12:40:09 2015

Tools Copyright (c) 1996-2012 Texas Instruments Incorporated
package/lib/Regression/regress_d_c/./../packages/ti/vlib/src/VLIB_blockStatistics/VLIB_blockStatistics_d.se66 PAGE   17

     881                            .dwattr $C$DW$183, DW_AT_location[DW_OP_reg5]
     882                    $C$DW$184       .dwtag  DW_TAG_variable, DW_AT_name("j")
     883                            .dwattr $C$DW$184, DW_AT_TI_symbol_name("j")
     884                            .dwattr $C$DW$184, DW_AT_type(*$C$DW$T$23)
     885                            .dwattr $C$DW$184, DW_AT_location[DW_OP_reg7]
     886                    $C$DW$185       .dwtag  DW_TAG_variable, DW_AT_name("$O$v1")
     887                            .dwattr $C$DW$185, DW_AT_TI_symbol_name("$O$v1")
     888                            .dwattr $C$DW$185, DW_AT_type(*$C$DW$T$46)
     889                            .dwattr $C$DW$185, DW_AT_location[DW_OP_reg20]
     890                    $C$DW$186       .dwtag  DW_TAG_variable, DW_AT_name("$O$v1")
     891                            .dwattr $C$DW$186, DW_AT_TI_symbol_name("$O$v1")
     892                            .dwattr $C$DW$186, DW_AT_type(*$C$DW$T$46)
     893                            .dwattr $C$DW$186, DW_AT_location[DW_OP_reg15]
     894                    $C$DW$187       .dwtag  DW_TAG_variable, DW_AT_name("$O$v2")
     895                            .dwattr $C$DW$187, DW_AT_TI_symbol_name("$O$v2")
     896                            .dwattr $C$DW$187, DW_AT_type(*$C$DW$T$155)
     897                            .dwattr $C$DW$187, DW_AT_location[DW_OP_reg24]
     898                    $C$DW$188       .dwtag  DW_TAG_variable, DW_AT_name("$O$v2")
     899                            .dwattr $C$DW$188, DW_AT_TI_symbol_name("$O$v2")
     900                            .dwattr $C$DW$188, DW_AT_type(*$C$DW$T$155)
     901                            .dwattr $C$DW$188, DW_AT_location[DW_OP_reg22]
     902 00000014 0200002a!            MVKL    .S2     test_cases,B4
     903 00000018 0200006a!            MVKH    .S2     test_cases,B4
     904                    $C$DW$189       .dwtag  DW_TAG_TI_branch
     905                            .dwattr $C$DW$189, DW_AT_low_pc(0x00)
     906                            .dwattr $C$DW$189, DW_AT_name("blockStatistics_getTestParams")
     907                            .dwattr $C$DW$189, DW_AT_TI_call
     908                    
     909 00000020 10000013!            CALLP   .S2     blockStatistics_getTestParams,B3
     910 00000024 120009fc  ||         ADDAW   .D1X    SP,9,A4           ; |45| 
     911                    
     912                            .dwpsn  file "./../packages/ti/vlib/src/VLIB_blockStatistics/VLIB_blockStatistics_d.c",line 45
     913                    ;----------------------------------------------------------------------
     914                    ;  45 | blockStatistics_getTestParams(&prm, &test_cases);                      
     915                    ;----------------------------------------------------------------------
     916 00000028           $C$RL0:    ; CALL OCCURS {blockStatistics_getTestParams} {0}  ; |45| 
     917                    ;** --------------------------------------------------------------------------*
     918                    ;          EXCLUSIVE CPU CYCLES: 8
     919 00000028 0200002a!            MVKL    .S2     $C$SL1+0,B4
     920 0000002c 0200006a!            MVKH    .S2     $C$SL1+0,B4
     921                    $C$DW$190       .dwtag  DW_TAG_TI_branch
     922                            .dwattr $C$DW$190, DW_AT_low_pc(0x00)
     923                            .dwattr $C$DW$190, DW_AT_name("VLIB_profile_init")
     924                            .dwattr $C$DW$190, DW_AT_TI_call
     925                    
     926 00000030 10000013!            CALLP   .S2     VLIB_profile_init,B3
     927 00000034 0208a358  ||         MVK     .L1     0x2,A4            ; |48| 
     928                    
     929                            .dwpsn  file "./../packages/ti/vlib/src/VLIB_blockStatistics/VLIB_blockStatistics_d.c",line 48
     930                    ;----------------------------------------------------------------------
     931                    ;  48 | VLIB_profile_init(2, "VLIB_blockStatistics");                          
     932                    ;----------------------------------------------------------------------
     933 00000038           $C$RL1:    ; CALL OCCURS {VLIB_profile_init} {0}  ; |48| 
     934                    ;** --------------------------------------------------------------------------*
     935                    ;          EXCLUSIVE CPU CYCLES: 14
TMS320C6x Assembler PC v7.4.2 Thu Mar 19 12:40:09 2015

Tools Copyright (c) 1996-2012 Texas Instruments Incorporated
package/lib/Regression/regress_d_c/./../packages/ti/vlib/src/VLIB_blockStatistics/VLIB_blockStatistics_d.se66 PAGE   18

     936                    ;**     -----------------------    K$52 = 64;
     937                    ;**     -----------------------    U$12 = prm;
     938                    ;**     -----------------------    K$215 = &desc[0];
     939                    ;**     -----------------------    U$11 = 0;
     940                    ;** 51  -----------------------    tpi = 0;
     941                    ;**     -----------------------    #pragma LOOP_FLAGS(5120u)
     942 00000038 01800028!            MVKL    .S1     test_cases,A3
     943 0000003c 01800068!            MVKH    .S1     test_cases,A3
     944                            .dwpsn  file "./../packages/ti/vlib/src/VLIB_blockStatistics/VLIB_blockStatistics_d.c",line 51
     945                    ;----------------------------------------------------------------------
     946                    ;  51 | for( tpi=0; tpi < test_cases; tpi++ ) {                                
     947                    ;----------------------------------------------------------------------
     948 00000040 020c0264             LDW     .D1T1   *A3,A4            ; |51| 
     949 00000044 05bd22e6             LDW     .D2T2   *+SP(36),B11
     950                            .dwpsn  file "./../packages/ti/vlib/src/VLIB_blockStatistics/VLIB_blockStatistics_d.c",line 51
     951                    ;----------------------------------------------------------------------
     952                    ;  54 | int32_t    status_nat_vs_int  = vlib_KERNEL_PASS; /* Test status : Natu
     953                    ;     | ral c vs. Optimized */                                                 
     954                    ;  55 | int32_t    status_nat_vs_ref  = vlib_KERNEL_PASS; /* Test status : Natu
     955                    ;     | ral c vs. Static Reference */                                          
     956                    ;----------------------------------------------------------------------
     957 00000048 0700a358             ZERO    .L1     A14               ; |51| 
     958 0000004c 0680a358             ZERO    .L1     A13               ; |51| 
     959 00000050     0c6e             NOP             1
     960                            .dwpsn  file "./../packages/ti/vlib/src/VLIB_blockStatistics/VLIB_blockStatistics_d.c",line 51
     961 00000052     1226             CMPGT   .L1     A4,0,A0           ; |51| 
     962 00000054 d5f2a121     [!A0]   BNOP    .S1     $C$L27,5          ; |51| 
     963                               ; BRANCHCC OCCURS {$C$L27}        ; |51| 
     964                    ;** --------------------------------------------------------------------------*
     965                    ;**   BEGIN LOOP $C$L1
     966                    ;** --------------------------------------------------------------------------*
     967 00000060           $C$L1:    
     968                            .dwpsn  file "./../packages/ti/vlib/src/VLIB_blockStatistics/VLIB_blockStatistics_d.c",line 51
     969                    $C$DW$L$VLIB_blockStatistics_d$4$B:
     970                    ;          EXCLUSIVE CPU CYCLES: 6
     971                    ;**     -----------------------g3:
     972                    ;** 58  -----------------------    outWidth = (*U$12).imageWidth/(*U$12).statBlockWidth;
     973                    ;** 59  -----------------------    C$29 = (*U$12).imageHeight;
     974                    ;** 59  -----------------------    outHeight = C$29/(*U$12).statBlockHeight;
     975                    ;** 60  -----------------------    mode = (*U$12).mode;
     976                    ;** 67  -----------------------    input = VLIB_memalign(8u, (unsigned)((*U$12).imagePitch*C$29));
     977                    ;** 69  -----------------------    C$27 = outWidth*outHeight;
     978                    ;** 69  -----------------------    C$28 = (unsigned)C$27+7u;
     979                    ;** 69  -----------------------    min_opt = VLIB_memalign(8u, C$28);
     980                    ;** 70  -----------------------    max_opt = VLIB_memalign(8u, C$28);
     981                    ;** 71  -----------------------    C$26 = C$27*2;
     982                    ;** 71  -----------------------    mean_opt = VLIB_memalign(8u, (unsigned)C$26+14u);
     983                    ;** 72  -----------------------    C$25 = C$27*4;
     984                    ;** 72  -----------------------    var_opt = VLIB_memalign(8u, (unsigned)C$25+28u);
     985                    ;** 74  -----------------------    min_cn = memalign(8u, (unsigned)C$27);
     986                    ;** 75  -----------------------    max_cn = memalign(8u, (unsigned)C$27);
     987                    ;** 76  -----------------------    mean_cn = memalign(8u, (unsigned)C$26);
     988                    ;** 77  -----------------------    var_cn = memalign(8u, (unsigned)C$25);
     989                    $C$DW$191       .dwtag  DW_TAG_TI_branch
     990                            .dwattr $C$DW$191, DW_AT_low_pc(0x00)
TMS320C6x Assembler PC v7.4.2 Thu Mar 19 12:40:09 2015

Tools Copyright (c) 1996-2012 Texas Instruments Incorporated
package/lib/Regression/regress_d_c/./../packages/ti/vlib/src/VLIB_blockStatistics/VLIB_blockStatistics_d.se66 PAGE   19

     991                            .dwattr $C$DW$191, DW_AT_name("__c6xabi_divi")
     992                            .dwattr $C$DW$191, DW_AT_TI_call
     993                    
     994 00000060 00000011!            CALL    .S1     __c6xabi_divi     ; |58| 
     995 00000064 022da284  ||         LDHU    .D2T1   *+B11(26),A4      ; |58| 
     996                    
     997                            .dwpsn  file "./../packages/ti/vlib/src/VLIB_blockStatistics/VLIB_blockStatistics_d.c",line 58
     998                    ;----------------------------------------------------------------------
     999                    ;  58 | uint16_t    outWidth           = prm[tpi].imageWidth  / prm[tpi].statBl
    1000                    ;     | ockWidth;                                                              
    1001                    ;----------------------------------------------------------------------
    1002 00000068 022e0286             LDHU    .D2T2   *+B11(32),B4      ; |58| 
    1003 0000006c 01846162             ADDKPC  .S2     $C$RL2,B3,3       ; |58| 
    1004 00000070           $C$RL2:    ; CALL OCCURS {__c6xabi_divi} {0}  ; |58| 
    1005 00000070           $C$DW$L$VLIB_blockStatistics_d$4$E:
    1006                    ;** --------------------------------------------------------------------------*
    1007 00000070           $C$DW$L$VLIB_blockStatistics_d$5$B:
    1008                    ;          EXCLUSIVE CPU CYCLES: 80
    1009                            .dwpsn  file "./../packages/ti/vlib/src/VLIB_blockStatistics/VLIB_blockStatistics_d.c",line 59
    1010                    ;----------------------------------------------------------------------
    1011                    ;  59 | uint16_t    outHeight          = prm[tpi].imageHeight / prm[tpi].statBl
    1012                    ;     | ockHeight;                                                             
    1013                    ;----------------------------------------------------------------------
    1014 00000070 032dc286             LDHU    .D2T2   *+B11(28),B6      ; |59| 
    1015 00000074 022e2286             LDHU    .D2T2   *+B11(34),B4      ; |59| 
    1016                            .dwpsn  file "./../packages/ti/vlib/src/VLIB_blockStatistics/VLIB_blockStatistics_d.c",line 58
    1017 00000078     5647             MV      .L2X    A4,B10            ; |58| 
    1018 0000007a     2c6e             NOP             2
    1019                    $C$DW$192       .dwtag  DW_TAG_TI_branch
    1020                            .dwattr $C$DW$192, DW_AT_low_pc(0x04)
    1021                            .dwattr $C$DW$192, DW_AT_name("__c6xabi_divi")
    1022                            .dwattr $C$DW$192, DW_AT_TI_call
    1023                    
    1024 00000084 02181fd8             MV      .L1X    B6,A4             ; |59| 
    1025 00000080 10000013! ||         CALLP   .S2     __c6xabi_divi,B3
    1026                    
    1027                            .dwpsn  file "./../packages/ti/vlib/src/VLIB_blockStatistics/VLIB_blockStatistics_d.c",line 59
    1028 00000088           $C$RL3:    ; CALL OCCURS {__c6xabi_divi} {0}  ; |59| 
    1029                            .dwpsn  file "./../packages/ti/vlib/src/VLIB_blockStatistics/VLIB_blockStatistics_d.c",line 60
    1030                    ;----------------------------------------------------------------------
    1031                    ;  60 | uint8_t     mode               = prm[tpi].mode;                        
    1032                    ;  61 | int32_t     scratchBufSize;                                            
    1033                    ;  62 | uint32_t    retVal;                                                    
    1034                    ;  64 | uint8_t   *scratch;                                                    
    1035                    ;----------------------------------------------------------------------
    1036 00000088 02af0296             LDBU    .D2T2   *+B11(24),B5      ; |60| 
    1037                            .dwpsn  file "./../packages/ti/vlib/src/VLIB_blockStatistics/VLIB_blockStatistics_d.c",line 67
    1038                    ;----------------------------------------------------------------------
    1039                    ;  67 | uint8_t   *input             = (uint8_t *) VLIB_memalign(8, prm[tpi].im
    1040                    ;     | agePitch * prm[tpi].imageHeight);                                      
    1041                    ;----------------------------------------------------------------------
    1042 0000008c 022de286             LDHU    .D2T2   *+B11(30),B4      ; |67| 
    1043                            .dwpsn  file "./../packages/ti/vlib/src/VLIB_blockStatistics/VLIB_blockStatistics_d.c",line 59
    1044 00000090     6646             MV      .L1     A4,A11            ; |59| 
    1045                            .dwpsn  file "./../packages/ti/vlib/src/VLIB_blockStatistics/VLIB_blockStatistics_d.c",line 67
TMS320C6x Assembler PC v7.4.2 Thu Mar 19 12:40:09 2015

Tools Copyright (c) 1996-2012 Texas Instruments Incorporated
package/lib/Regression/regress_d_c/./../packages/ti/vlib/src/VLIB_blockStatistics/VLIB_blockStatistics_d.se66 PAGE   20

    1046 00000092     0e26             MVK     .L1     0x8,A4            ; |67| 
    1047 00000094     2c6e             NOP             2
    1048                    $C$DW$193       .dwtag  DW_TAG_TI_branch
    1049                            .dwattr $C$DW$193, DW_AT_low_pc(0x00)
    1050                            .dwattr $C$DW$193, DW_AT_name("VLIB_memalign")
    1051                            .dwattr $C$DW$193, DW_AT_TI_call
    1052                    
    1053 000000a0 10000012!            CALLP   .S2     VLIB_memalign,B3
    1054 00000098 0210cf83  ||         MPYU    .M2     B6,B4,B4          ; |67| 
    1055 00000096     de55  ||         STW     .D2T2   B5,*+SP(72)       ; |67| 
    1056                    
    1057 000000a4           $C$RL4:    ; CALL OCCURS {VLIB_memalign} {0}  ; |67| 
    1058 000000a4 01a81fd8             MV      .L1X    B10,A3            ; |67| 
    1059                            .dwpsn  file "./../packages/ti/vlib/src/VLIB_blockStatistics/VLIB_blockStatistics_d.c",line 69
    1060                    ;----------------------------------------------------------------------
    1061                    ;  69 | uint8_t    *min_opt           = (uint8_t *)  VLIB_memalign(8, (outWidth
    1062                    ;     |  * outHeight  + 7) * sizeof(uint8_t));                                 
    1063                    ;----------------------------------------------------------------------
    1064 000000a8 050d6f80             MPYU    .M1     A11,A3,A10        ; |69| 
    1065                            .dwpsn  file "./../packages/ti/vlib/src/VLIB_blockStatistics/VLIB_blockStatistics_d.c",line 67
    1066 000000ac     8ec5             STW     .D2T1   A4,*+SP(80)       ; |67| 
    1067                            .dwpsn  file "./../packages/ti/vlib/src/VLIB_blockStatistics/VLIB_blockStatistics_d.c",line 69
    1068 000000ae     0e26             MVK     .L1     0x8,A4            ; |69| 
    1069                    $C$DW$194       .dwtag  DW_TAG_TI_branch
    1070                            .dwattr $C$DW$194, DW_AT_low_pc(0x00)
    1071                            .dwattr $C$DW$194, DW_AT_name("VLIB_memalign")
    1072                            .dwattr $C$DW$194, DW_AT_TI_call
    1073                    
    1074 000000b0 10000013!            CALLP   .S2     VLIB_memalign,B3
    1075 000000b4 0228f05b  ||         ADD     .L2X    7,A10,B4          ; |69| 
    1076 000000b8 0628e058  ||         ADD     .L1     7,A10,A12         ; |69| 
    1077                    
    1078                    $C$RL5:    ; CALL OCCURS {VLIB_memalign} {0}  ; |69| 
    1079                    $C$DW$195       .dwtag  DW_TAG_TI_branch
    1080                            .dwattr $C$DW$195, DW_AT_low_pc(0x00)
    1081                            .dwattr $C$DW$195, DW_AT_name("VLIB_memalign")
    1082                            .dwattr $C$DW$195, DW_AT_TI_call
    1083                    
    1084 000000c0 10000013!            CALLP   .S2     VLIB_memalign,B3
    1085 000000c4     9607  ||         MV      .L2X    A12,B4            ; |70| 
    1086 000000c6     aec5  ||         STW     .D2T1   A4,*+SP(84)       ; |69| 
    1087 000000c8 0220a358  ||         MVK     .L1     0x8,A4            ; |70| 
    1088                    
    1089                            .dwpsn  file "./../packages/ti/vlib/src/VLIB_blockStatistics/VLIB_blockStatistics_d.c",line 70
    1090                    ;----------------------------------------------------------------------
    1091                    ;  70 | uint8_t    *max_opt           = (uint8_t *)  VLIB_memalign(8, (outWidth
    1092                    ;     |  * outHeight  + 7) * sizeof(uint8_t));                                 
    1093                    ;----------------------------------------------------------------------
    1094 000000cc           $C$RL6:    ; CALL OCCURS {VLIB_memalign} {0}  ; |70| 
    1095                            .dwpsn  file "./../packages/ti/vlib/src/VLIB_blockStatistics/VLIB_blockStatistics_d.c",line 71
    1096                    ;----------------------------------------------------------------------
    1097                    ;  71 | uint16_t   *mean_opt          = (uint16_t *) VLIB_memalign(8, (outWidth
    1098                    ;     |  * outHeight  + 7) * sizeof(uint16_t));                                
    1099                    ;----------------------------------------------------------------------
    1100 000000cc 07a94078             ADD     .L1     A10,A10,A15       ; |71| 
TMS320C6x Assembler PC v7.4.2 Thu Mar 19 12:40:09 2015

Tools Copyright (c) 1996-2012 Texas Instruments Incorporated
package/lib/Regression/regress_d_c/./../packages/ti/vlib/src/VLIB_blockStatistics/VLIB_blockStatistics_d.se66 PAGE   21

    1101                            .dwpsn  file "./../packages/ti/vlib/src/VLIB_blockStatistics/VLIB_blockStatistics_d.c",line 70
    1102 000000d0     cec5             STW     .D2T1   A4,*+SP(88)       ; |70| 
    1103                    $C$DW$196       .dwtag  DW_TAG_TI_branch
    1104                            .dwattr $C$DW$196, DW_AT_low_pc(0x04)
    1105                            .dwattr $C$DW$196, DW_AT_name("VLIB_memalign")
    1106                            .dwattr $C$DW$196, DW_AT_TI_call
    1107                    
    1108 000000d2     0e26             MVK     .L1     0x8,A4            ; |71| 
    1109 000000d4 10000013! ||         CALLP   .S2     VLIB_memalign,B3
    1110 000000d8 023dd05a  ||         ADD     .L2X    14,A15,B4         ; |71| 
    1111                    
    1112                            .dwpsn  file "./../packages/ti/vlib/src/VLIB_blockStatistics/VLIB_blockStatistics_d.c",line 71
    1113 000000e0           $C$RL7:    ; CALL OCCURS {VLIB_memalign} {0}  ; |71| 
    1114                            .dwpsn  file "./../packages/ti/vlib/src/VLIB_blockStatistics/VLIB_blockStatistics_d.c",line 72
    1115                    ;----------------------------------------------------------------------
    1116                    ;  72 | uint32_t   *var_opt           = (uint32_t *) VLIB_memalign(8, (outWidth
    1117                    ;     |  * outHeight  + 7) * sizeof(uint32_t));                                
    1118                    ;----------------------------------------------------------------------
    1119 000000e0 06284ca0             SHL     .S1     A10,2,A12         ; |72| 
    1120 000000e4 01b38940             ADD     .D1     A12,28,A3         ; |72| 
    1121                            .dwpsn  file "./../packages/ti/vlib/src/VLIB_blockStatistics/VLIB_blockStatistics_d.c",line 71
    1122 000000e8     eec5             STW     .D2T1   A4,*+SP(92)       ; |71| 
    1123                    $C$DW$197       .dwtag  DW_TAG_TI_branch
    1124                            .dwattr $C$DW$197, DW_AT_low_pc(0x04)
    1125                            .dwattr $C$DW$197, DW_AT_name("VLIB_memalign")
    1126                            .dwattr $C$DW$197, DW_AT_TI_call
    1127                    
    1128 000000ea     0e26             MVK     .L1     0x8,A4            ; |72| 
    1129 000000ec 10000013! ||         CALLP   .S2     VLIB_memalign,B3
    1130 000000f0     91c7  ||         MV      .L2X    A3,B4             ; |72| 
    1131                    
    1132                            .dwpsn  file "./../packages/ti/vlib/src/VLIB_blockStatistics/VLIB_blockStatistics_d.c",line 72
    1133                    $C$RL8:    ; CALL OCCURS {VLIB_memalign} {0}  ; |72| 
    1134                    $C$DW$198       .dwtag  DW_TAG_TI_branch
    1135                            .dwattr $C$DW$198, DW_AT_low_pc(0x00)
    1136                            .dwattr $C$DW$198, DW_AT_name("memalign")
    1137                            .dwattr $C$DW$198, DW_AT_TI_call
    1138                    
    1139 00000100 10000013!            CALLP   .S2     memalign,B3
    1140 00000104 02281fdb  ||         MV      .L2X    A10,B4            ; |74| 
    1141 00000108 023f02f5  ||         STW     .D2T1   A4,*+SP(96)       ; |72| 
    1142 0000010c 0220a358  ||         MVK     .L1     0x8,A4            ; |74| 
    1143                    
    1144                            .dwpsn  file "./../packages/ti/vlib/src/VLIB_blockStatistics/VLIB_blockStatistics_d.c",line 74
    1145                    ;----------------------------------------------------------------------
    1146                    ;  74 | uint8_t    *min_cn            = (uint8_t *) memalign(8, outWidth * outH
    1147                    ;     | eight * sizeof(uint8_t));                                              
    1148                    ;----------------------------------------------------------------------
    1149                    $C$RL9:    ; CALL OCCURS {memalign} {0}      ; |74| 
    1150                    $C$DW$199       .dwtag  DW_TAG_TI_branch
    1151                            .dwattr $C$DW$199, DW_AT_low_pc(0x00)
    1152                            .dwattr $C$DW$199, DW_AT_name("memalign")
    1153                            .dwattr $C$DW$199, DW_AT_TI_call
    1154                    
    1155 00000110 10000013!            CALLP   .S2     memalign,B3
TMS320C6x Assembler PC v7.4.2 Thu Mar 19 12:40:09 2015

Tools Copyright (c) 1996-2012 Texas Instruments Incorporated
package/lib/Regression/regress_d_c/./../packages/ti/vlib/src/VLIB_blockStatistics/VLIB_blockStatistics_d.se66 PAGE   22

    1156 00000114 02281fdb  ||         MV      .L2X    A10,B4            ; |75| 
    1157 00000118 023f22f5  ||         STW     .D2T1   A4,*+SP(100)      ; |74| 
    1158 0000011c 0220a358  ||         MVK     .L1     0x8,A4            ; |75| 
    1159                    
    1160                            .dwpsn  file "./../packages/ti/vlib/src/VLIB_blockStatistics/VLIB_blockStatistics_d.c",line 75
    1161                    ;----------------------------------------------------------------------
    1162                    ;  75 | uint8_t    *max_cn            = (uint8_t *) memalign(8, outWidth * outH
    1163                    ;     | eight * sizeof(uint8_t));                                              
    1164                    ;----------------------------------------------------------------------
    1165                    $C$RL10:   ; CALL OCCURS {memalign} {0}      ; |75| 
    1166                    $C$DW$200       .dwtag  DW_TAG_TI_branch
    1167                            .dwattr $C$DW$200, DW_AT_low_pc(0x00)
    1168                            .dwattr $C$DW$200, DW_AT_name("memalign")
    1169                            .dwattr $C$DW$200, DW_AT_TI_call
    1170                    
    1171 00000120 10000013!            CALLP   .S2     memalign,B3
    1172 00000124 023c1fdb  ||         MV      .L2X    A15,B4            ; |76| 
    1173 00000128 023f42f5  ||         STW     .D2T1   A4,*+SP(104)      ; |75| 
    1174 0000012c 0220a358  ||         MVK     .L1     0x8,A4            ; |76| 
    1175                    
    1176                            .dwpsn  file "./../packages/ti/vlib/src/VLIB_blockStatistics/VLIB_blockStatistics_d.c",line 76
    1177                    ;----------------------------------------------------------------------
    1178                    ;  76 | uint16_t   *mean_cn           = (uint16_t *)memalign(8, outWidth * outH
    1179                    ;     | eight * sizeof(uint16_t));                                             
    1180                    ;----------------------------------------------------------------------
    1181                    $C$RL11:   ; CALL OCCURS {memalign} {0}      ; |76| 
    1182                    $C$DW$201       .dwtag  DW_TAG_TI_branch
    1183                            .dwattr $C$DW$201, DW_AT_low_pc(0x00)
    1184                            .dwattr $C$DW$201, DW_AT_name("memalign")
    1185                            .dwattr $C$DW$201, DW_AT_TI_call
    1186                    
    1187 00000130 10000013!            CALLP   .S2     memalign,B3
    1188 00000134 02301fdb  ||         MV      .L2X    A12,B4            ; |77| 
    1189 00000138 023f62f5  ||         STW     .D2T1   A4,*+SP(108)      ; |76| 
    1190 0000013c 0220a358  ||         MVK     .L1     0x8,A4            ; |77| 
    1191                    
    1192                            .dwpsn  file "./../packages/ti/vlib/src/VLIB_blockStatistics/VLIB_blockStatistics_d.c",line 77
    1193                    ;----------------------------------------------------------------------
    1194                    ;  77 | uint32_t   *var_cn            = (uint32_t *)memalign(8, outWidth * outH
    1195                    ;     | eight * sizeof(uint32_t));                                             
    1196                    ;----------------------------------------------------------------------
    1197 00000140           $C$RL12:   ; CALL OCCURS {memalign} {0}      ; |77| 
    1198 00000140           $C$DW$L$VLIB_blockStatistics_d$5$E:
    1199                    ;** --------------------------------------------------------------------------*
    1200 00000140           $C$DW$L$VLIB_blockStatistics_d$6$B:
    1201                    ;          EXCLUSIVE CPU CYCLES: 3
    1202                    
    1203 00000140 0fae1009             EXTU    .S1     A11,16,16,A31     ; |59| 
    1204 00000144     7506  ||         MV      .L1X    B10,A3            ; |77| 
    1205                    
    1206 00000148 0fbe22f4             STW     .D2T1   A31,*+SP(68)      ; |59| 
    1207 00000146     71e2  ||         EXTU    .S1     A3,16,16,A3       ; |58| 
    1208                    
    1209                            .dwpsn  file "./../packages/ti/vlib/src/VLIB_blockStatistics/VLIB_blockStatistics_d.c",line 58
    1210 0000014c     8e35             STW     .D2T1   A3,*+SP(64)       ; |58| 
TMS320C6x Assembler PC v7.4.2 Thu Mar 19 12:40:09 2015

Tools Copyright (c) 1996-2012 Texas Instruments Incorporated
package/lib/Regression/regress_d_c/./../packages/ti/vlib/src/VLIB_blockStatistics/VLIB_blockStatistics_d.se66 PAGE   23

    1211 0000014e           $C$DW$L$VLIB_blockStatistics_d$6$E:
    1212                    ;** --------------------------------------------------------------------------*
    1213                            .dwpsn  file "./../packages/ti/vlib/src/VLIB_blockStatistics/VLIB_blockStatistics_d.c",line 77
    1214                    ;----------------------------------------------------------------------
    1215                    ;  85 | if( mode == 0x0 ) {                                                    
    1216                    ;  86 |     scratchBufSize = 64;                                               
    1217                    ;  87 | } else {                                                               
    1218                    ;  88 |     scratchBufSize               = prm[tpi].imageWidth * prm[tpi].statB
    1219                    ;     | lockHeight + 64;                                                       
    1220                    ;----------------------------------------------------------------------
    1221 0000014e           $C$DW$L$VLIB_blockStatistics_d$7$B:
    1222                    ;          EXCLUSIVE CPU CYCLES: 19
    1223                    ;** 88  -----------------------    mode ? (scratchBufSize = (int)_mpyu((*U$12).imageWidth, (*U$12).sta
    1224                    ;** 90  -----------------------    scratch = VLIB_memalign(8u, (unsigned)scratchBufSize);
    1225                    ;** 93  -----------------------    v$1 = prm;
    1226                    ;** 93  -----------------------    if ( !((input != NULL)&(min_opt != NULL)&(max_opt != NULL)&(mean_op
    1227 0000014e     ce0d             LDW     .D2T1   *+SP(72),A0       ; |77| 
    1228 00000150     8fc5             STW     .D2T1   A4,*+SP(112)      ; |77| 
    1229                            .dwpsn  file "./../packages/ti/vlib/src/VLIB_blockStatistics/VLIB_blockStatistics_d.c",line 90
    1230                    ;----------------------------------------------------------------------
    1231                    ;  90 | scratch           = (uint8_t *) VLIB_memalign(8, scratchBufSize);      
    1232                    ;----------------------------------------------------------------------
    1233 00000152     0e26             MVK     .L1     0x8,A4            ; |90| 
    1234 00000154 00002000             NOP             2
    1235                            .dwpsn  file "./../packages/ti/vlib/src/VLIB_blockStatistics/VLIB_blockStatistics_d.c",line 88
    1236 00000158 c22e2286     [ A0]   LDHU    .D2T2   *+B11(34),B4      ; |88| 
    1237 00000160 c2ada286     [ A0]   LDHU    .D2T2   *+B11(26),B5      ; |88| 
    1238 00000164 00006000             NOP             4
    1239 00000168 c310af82     [ A0]   MPYU    .M2     B5,B4,B6          ; |88| 
    1240 0000016c     0253             MVK     .S2     0x40,B4
    1241                    $C$DW$202       .dwtag  DW_TAG_TI_branch
    1242                            .dwattr $C$DW$202, DW_AT_low_pc(0x00)
    1243                            .dwattr $C$DW$202, DW_AT_name("VLIB_memalign")
    1244                            .dwattr $C$DW$202, DW_AT_TI_call
    1245                    
    1246 0000016e     0c6e!            CALLP   .S2     VLIB_memalign,B3
    1247 00000174 c2191ec3  || [ A0]   ADDAD   .D2     B6,8,B4           ; |88| 
    1248                    
    1249                            .dwpsn  file "./../packages/ti/vlib/src/VLIB_blockStatistics/VLIB_blockStatistics_d.c",line 90
    1250 00000180           $C$RL13:   ; CALL OCCURS {VLIB_memalign} {0}  ; |90| 
    1251 00000180           $C$DW$L$VLIB_blockStatistics_d$7$E:
    1252                    ;** --------------------------------------------------------------------------*
    1253 00000180           $C$DW$L$VLIB_blockStatistics_d$8$B:
    1254                    ;          EXCLUSIVE CPU CYCLES: 30
    1255                    
    1256 00000180     8ead             LDW     .D2T1   *+SP(80),A2       ; |93| 
    1257 00000182     05a6  ||         ZERO    .L1     A3                ; |93| 
    1258 00000184     0627  ||         ZERO    .L2     B4                ; |93| 
    1259 00000186     0293  ||         ZERO    .S2     B5                ; |93| 
    1260                    
    1261                            .dwpsn  file "./../packages/ti/vlib/src/VLIB_blockStatistics/VLIB_blockStatistics_d.c",line 93
    1262                    ;----------------------------------------------------------------------
    1263                    ;  93 | if( input && min_opt && max_opt && mean_opt && var_opt && scratch && mi
    1264                    ;     | n_cn && max_cn && mean_cn && var_cn ) {                                
    1265                    ;  94 |     uint32_t    i, j, fail;                                            
TMS320C6x Assembler PC v7.4.2 Thu Mar 19 12:40:09 2015

Tools Copyright (c) 1996-2012 Texas Instruments Incorporated
package/lib/Regression/regress_d_c/./../packages/ti/vlib/src/VLIB_blockStatistics/VLIB_blockStatistics_d.se66 PAGE   24

    1266                    ;----------------------------------------------------------------------
    1267 00000188     ae8d             LDW     .D2T1   *+SP(84),A0       ; |93| 
    1268 0000018a     ce9d             LDW     .D2T1   *+SP(88),A1       ; |93| 
    1269                    
    1270 0000018c     ee45             STW     .D2T1   A4,*+SP(76)       ; |90| 
    1271 0000018e     0626  ||         ZERO    .L1     A4                ; |93| 
    1272                    
    1273 00000190     9f0d             LDW     .D2T2   *+SP(96),B0       ; |93| 
    1274                    
    1275 00000194 a184a358     [ A2]   MVK     .L1     0x1,A3            ; |93| 
    1276 00000192     eead  ||         LDW     .D2T1   *+SP(92),A2       ; |93| 
    1277                    
    1278 00000198     2a67     [ A0]   MVK     .L2     0x1,B4            ; |93| 
    1279                    
    1280 000001a0 8204a358     [ A1]   MVK     .L1     0x1,A4            ; |93| 
    1281 0000019a     ee1d  ||         LDW     .D2T1   *+SP(76),A1       ; |93| 
    1282                    
    1283 000001a4 02907f79             AND     .L1X    B4,A3,A5          ; |93| 
    1284 000001a8     0192  ||         ZERO    .S1     A3                ; |93| 
    1285 000001aa     0627  ||         ZERO    .L2     B4                ; |93| 
    1286                    
    1287 000001ac 02148f79             AND     .L1     A4,A5,A4          ; |93| 
    1288 000001b0     aa67  || [ B0]   MVK     .L2     0x1,B4            ; |93| 
    1289                    
    1290 000001b4 a184a358     [ A2]   MVK     .L1     0x1,A3            ; |93| 
    1291 000001b2     af2d  ||         LDW     .D2T1   *+SP(100),A2      ; |93| 
    1292                    
    1293 000001b8 02106f79             AND     .L1     A3,A4,A4          ; |93| 
    1294 000001c0     0192  ||         ZERO    .S1     A3                ; |93| 
    1295                    
    1296 000001c4 8184a359     [ A1]   MVK     .L1     0x1,A3            ; |93| 
    1297 000001c2     cf1d  ||         LDW     .D2T1   *+SP(104),A1      ; |93| 
    1298 000001c8 021097e0  ||         AND     .S1X    B4,A4,A4          ; |93| 
    1299                    
    1300 000001cc 0200a35a             ZERO    .L2     B4                ; |93| 
    1301 000001d0 01906f78             AND     .L1     A3,A4,A3          ; |93| 
    1302                    
    1303 000001d4 a204a35b     [ A2]   MVK     .L2     0x1,B4            ; |93| 
    1304 000001d8     ef2d  ||         LDW     .D2T1   *+SP(108),A2      ; |93| 
    1305                    
    1306 000001da     05a6             ZERO    .L1     A3                ; |93| 
    1307 000001e0 030c9f7a  ||         AND     .L2X    B4,A3,B6          ; |93| 
    1308                    
    1309 000001e4 8284a35b     [ A1]   MVK     .L2     0x1,B5            ; |93| 
    1310 000001e8     8f9d  ||         LDW     .D2T1   *+SP(112),A1      ; |93| 
    1311                    
    1312 000001ea     0627             ZERO    .L2     B4                ; |93| 
    1313 000001ec 0298af7a             AND     .L2     B5,B6,B5          ; |93| 
    1314 000001f0 a204a35a     [ A2]   MVK     .L2     0x1,B4            ; |93| 
    1315 000001f4 02148f7a             AND     .L2     B4,B5,B4          ; |93| 
    1316 000001f8 8184a358     [ A1]   MVK     .L1     0x1,A3            ; |93| 
    1317                    
    1318 00000200     7608             AND     .L1X    A3,B4,A0          ; |93| 
    1319 00000202     bd4d  ||         LDW     .D2T2   *+SP(36),B4       ; |93| 
    1320                    
TMS320C6x Assembler PC v7.4.2 Thu Mar 19 12:40:09 2015

Tools Copyright (c) 1996-2012 Texas Instruments Incorporated
package/lib/Regression/regress_d_c/./../packages/ti/vlib/src/VLIB_blockStatistics/VLIB_blockStatistics_d.se66 PAGE   25

    1321 00000204 d0012c13     [!A0]   B       .S2     $C$L25            ; |93| 
    1322 00000208 c6000029! || [ A0]   MVKL    .S1     testPatternString,A12
    1323 0000020c c22c0294  || [ A0]   LDBU    .D2T1   *B11,A4           ; |97| 
    1324                    
    1325                            .dwpsn  file "./../packages/ti/vlib/src/VLIB_blockStatistics/VLIB_blockStatistics_d.c",line 97
    1326                    ;----------------------------------------------------------------------
    1327                    ;  97 | VLIB_fillBuffer(prm[tpi].testPattern,                                  
    1328                    ;----------------------------------------------------------------------
    1329 00000210 c32c22e6     [ A0]   LDW     .D2T2   *+B11(4),B6       ; |97| 
    1330 00000214 c42dc286     [ A0]   LDHU    .D2T2   *+B11(28),B8      ; |97| 
    1331 00000218 c42da284     [ A0]   LDHU    .D2T1   *+B11(26),A8      ; |97| 
    1332                    $C$DW$203       .dwtag  DW_TAG_TI_branch
    1333                            .dwattr $C$DW$203, DW_AT_low_pc(0x00)
    1334                            .dwattr $C$DW$203, DW_AT_name("VLIB_fillBuffer")
    1335                            .dwattr $C$DW$203, DW_AT_TI_call
    1336                    
    1337 00000220 c0000011!    [ A0]   CALL    .S1     VLIB_fillBuffer   ; |97| 
    1338 00000224 d311d079  || [!A0]   ADD     .L1X    B4,A14,A6         ; |203| 
    1339 00000228 c52de284  || [ A0]   LDHU    .D2T1   *+B11(30),A10     ; |97| 
    1340                    
    1341 0000022c c33e82e4     [ A0]   LDW     .D2T1   *+SP(80),A6       ; |97| 
    1342                            .dwpsn  file "./../packages/ti/vlib/src/VLIB_blockStatistics/VLIB_blockStatistics_d.c",line 93
    1343                               ; BRANCHCC OCCURS {$C$L25}        ; |93| 
    1344 00000230           $C$DW$L$VLIB_blockStatistics_d$8$E:
    1345                    ;** --------------------------------------------------------------------------*
    1346 00000230           $C$DW$L$VLIB_blockStatistics_d$9$B:
    1347                    ;          EXCLUSIVE CPU CYCLES: 4
    1348                    ;** 97  -----------------------    VLIB_fillBuffer((*U$12).testPattern, 0xffu, (void *)input, (*U$12).
    1349                    ;** 137 -----------------------    act_kernel = 0;  // [14]
    1350                    ;** 140 -----------------------    VLIB_cache_inval();  // [14]
    1351                    ;** 143 -----------------------    initStack(getSP());  // [14]
    1352                    ;** 146 -----------------------    beg_count = _itoll(TSCH, TSCL);  // [14]
    1353                    ;** 105 -----------------------    retVal = VLIB_blockStatistics(input, (*U$12).imagePitch, (*U$12).im
    1354                    ;** 153 -----------------------    v$2 = _itoll(TSCH, TSCL);  // [15]
    1355                    ;** 153 -----------------------    end_count = v$2;  // [15]
    1356                    ;** 156 -----------------------    C$24 = (act_kernel<<3)+&cycles;  // [15]
    1357                    ;** 156 -----------------------    *C$24 = *C$24+(v$2-(beg_count+overhead));  // [15]
    1358                    ;** 159 -----------------------    setStackDepth();  // [15]
    1359                    ;** 54  -----------------------    status_nat_vs_int = retVal != 0u;
    1360                    ;** 137 -----------------------    act_kernel = 1;  // [14]
    1361                    ;** 140 -----------------------    VLIB_cache_inval();  // [14]
    1362                    ;** 143 -----------------------    initStack(getSP());  // [14]
    1363                    ;** 146 -----------------------    beg_count = _itoll(TSCH, TSCL);  // [14]
    1364                    ;** 125 -----------------------    VLIB_blockStatistics_cn(input, (*U$12).imagePitch, (*U$12).imageWid
    1365                    ;** 153 -----------------------    v$2 = _itoll(TSCH, TSCL);  // [15]
    1366                    ;** 153 -----------------------    end_count = v$2;  // [15]
    1367                    ;** 156 -----------------------    K$98 = &cycles[0];  // [15]
    1368                    ;** 156 -----------------------    C$23 = act_kernel;  // [15]
    1369                    ;** 156 -----------------------    *((C$23<<3)+K$98) = *((C$23<<3)+K$98)+(v$2-(beg_count+overhead));  
    1370                    ;** 159 -----------------------    setStackDepth();  // [15]
    1371                            .dwpsn  file "./../packages/ti/vlib/src/VLIB_blockStatistics/VLIB_blockStatistics_d.c",line 97
    1372                    ;----------------------------------------------------------------------
    1373                    ;  98 | (uint8_t)255,                                                          
    1374                    ;  99 | input, prm[tpi].staticIn,                                              
    1375                    ; 100 | prm[tpi].imageWidth, prm[tpi].imageHeight, prm[tpi].imagePitch,        
TMS320C6x Assembler PC v7.4.2 Thu Mar 19 12:40:09 2015

Tools Copyright (c) 1996-2012 Texas Instruments Incorporated
package/lib/Regression/regress_d_c/./../packages/ti/vlib/src/VLIB_blockStatistics/VLIB_blockStatistics_d.se66 PAGE   26

    1376                    ; 101 | sizeof(uint8_t), testPatternString);                                   
    1377                    ; 104 | VLIB_profile_start(vlib_KERNEL_OPT);                                   
    1378                    ; 105 | retVal =  VLIB_blockStatistics(input,                                  
    1379                    ; 106 |                prm[tpi].imagePitch,                                    
    1380                    ; 107 |                prm[tpi].imageWidth,                                    
    1381                    ; 108 |                prm[tpi].imageHeight,                                   
    1382                    ; 109 |                prm[tpi].statBlockWidth,                                
    1383                    ; 110 |                prm[tpi].statBlockHeight,                               
    1384                    ; 111 |                min_opt,                                                
    1385                    ; 112 |                max_opt,                                                
    1386                    ; 113 |                mean_opt,                                               
    1387                    ; 114 |                var_opt,                                                
    1388                    ; 115 |                scratch,                                                
    1389                    ; 116 |                mode);                                                  
    1390                    ; 117 | VLIB_profile_stop();                                                   
    1391                    ; 119 | if( retVal == 0x0 ) {                                                  
    1392                    ; 120 | status_nat_vs_int = vlib_KERNEL_FAIL;                                  
    1393                    ; 124 | VLIB_profile_start(vlib_KERNEL_CN);                                    
    1394                    ; 125 | VLIB_blockStatistics_cn(input,                                         
    1395                    ; 126 |         prm[tpi].imagePitch,                                           
    1396                    ; 127 |         prm[tpi].imageWidth,                                           
    1397                    ; 128 |         prm[tpi].imageHeight,                                          
    1398                    ; 129 |         prm[tpi].statBlockWidth,                                       
    1399                    ; 130 |         prm[tpi].statBlockHeight,                                      
    1400                    ; 131 |         min_cn,                                                        
    1401                    ; 132 |         max_cn,                                                        
    1402                    ; 133 |         mean_cn,                                                       
    1403                    ; 134 |         var_cn);                                                       
    1404                    ; 135 | VLIB_profile_stop();                                                   
    1405                    ; 138 | for( i=0; i < (outHeight); i++ ) {                                     
    1406                    ; 139 | for( j=0; j < (outWidth); j++ ) {                                      
    1407                    ;----------------------------------------------------------------------
    1408 00000230 02007faa             MVK     .S2     0xff,B4           ; |97| 
    1409 00000234 0504a35a             MVK     .L2     0x1,B10           ; |97| 
    1410 00000238 06000068!            MVKH    .S1     testPatternString,A12
    1411 0000023c 01880162             ADDKPC  .S2     $C$RL14,B3,0      ; |97| 
    1412 00000240           $C$RL14:   ; CALL OCCURS {VLIB_fillBuffer} {0}  ; |97| 
    1413 00000240           $C$DW$L$VLIB_blockStatistics_d$9$E:
    1414                    ;** --------------------------------------------------------------------------*
    1415 00000240           $C$DW$L$VLIB_blockStatistics_d$10$B:
    1416                    ;          EXCLUSIVE CPU CYCLES: 130
    1417 00000240 05800028!            MVKL    .S1     act_kernel,A11
    1418                    
    1419 00000244 05800069!            MVKH    .S1     act_kernel,A11
    1420 00000248 0200a35a  ||         ZERO    .L2     B4                ; |137| 
    1421                    
    1422                    $C$DW$204       .dwtag  DW_TAG_TI_branch
    1423                            .dwattr $C$DW$204, DW_AT_low_pc(0x00)
    1424                            .dwattr $C$DW$204, DW_AT_name("VLIB_cache_inval")
    1425                            .dwattr $C$DW$204, DW_AT_TI_call
    1426                    
    1427 0000024c 10000013!            CALLP   .S2     VLIB_cache_inval,B3
    1428 00000250 022c0276  ||         STW     .D1T2   B4,*A11           ; |137| 
    1429                    
    1430                            .dwpsn  file ".\..\packages\ti\vlib\src\VLIB_blockStatistics\..\common\VLIB_profile.h",line 14
TMS320C6x Assembler PC v7.4.2 Thu Mar 19 12:40:09 2015

Tools Copyright (c) 1996-2012 Texas Instruments Incorporated
package/lib/Regression/regress_d_c/./../packages/ti/vlib/src/VLIB_blockStatistics/VLIB_blockStatistics_d.se66 PAGE   27

    1431                    ;----------------------------------------------------------------------
    1432                    ; 140 | if((min_opt[i * outWidth + j] != min_cn[i * outWidth + j])) {          
    1433                    ; 141 |     status_nat_vs_int = vlib_KERNEL_FAIL;                              
    1434                    ; 142 |     printf("row:%d, col:%d, min_out:%u, min_EOut:%u \n", i, j, min_opt[
    1435                    ;     | i * outWidth + j], min_cn[i * outWidth + j]);                          
    1436                    ;----------------------------------------------------------------------
    1437                    $C$RL15:   ; CALL OCCURS {VLIB_cache_inval} {0}  ; |140| 
    1438                    $C$DW$205       .dwtag  DW_TAG_TI_branch
    1439                            .dwattr $C$DW$205, DW_AT_low_pc(0x00)
    1440                            .dwattr $C$DW$205, DW_AT_name("getSP")
    1441                            .dwattr $C$DW$205, DW_AT_TI_call
    1442 00000254 10000012!            CALLP   .S2     getSP,B3
    1443                            .dwpsn  file ".\..\packages\ti\vlib\src\VLIB_blockStatistics\..\common\VLIB_profile.h",line 14
    1444                    ;----------------------------------------------------------------------
    1445                    ; 143 | break;                                                                 
    1446                    ; 145 | if((max_opt[i * outWidth + j] != max_cn[i * outWidth + j])) {          
    1447                    ;----------------------------------------------------------------------
    1448                    $C$RL16:   ; CALL OCCURS {getSP} {0}         ; |143| 
    1449                    $C$DW$206       .dwtag  DW_TAG_TI_branch
    1450                            .dwattr $C$DW$206, DW_AT_low_pc(0x00)
    1451                            .dwattr $C$DW$206, DW_AT_name("initStack")
    1452                            .dwattr $C$DW$206, DW_AT_TI_call
    1453 00000258 10000012!            CALLP   .S2     initStack,B3
    1454 0000025c           $C$RL17:   ; CALL OCCURS {initStack} {0}     ; |143| 
    1455                            .dwpsn  file ".\..\packages\ti\vlib\src\VLIB_blockStatistics\..\common\VLIB_profile.h",line 14
    1456                    ;----------------------------------------------------------------------
    1457                    ; 146 | status_nat_vs_int = vlib_KERNEL_FAIL;                                  
    1458                    ; 147 | printf("row:%d, col:%d, max_out:%u, max_EOut:%u \n", i, j, max_opt[i *
    1459                    ;     | outWidth + j], max_cn[i * outWidth + j]);                              
    1460                    ; 148 | break;                                                                 
    1461                    ; 150 | if((mean_opt[i * outWidth + j] != mean_cn[i * outWidth + j])) {        
    1462                    ; 151 | status_nat_vs_int = vlib_KERNEL_FAIL;                                  
    1463                    ; 152 | printf("row:%d, col:%d, mean_out:%u, mean_EOut:%u \n", i, j, mean_opt[i
    1464                    ;     |  * outWidth + j], mean_cn[i * outWidth + j]);                          
    1465                    ;----------------------------------------------------------------------
    1466 0000025c 082803e2             MVC     .S2     TSCL,B16          ; |146| 
    1467 00000260 08ac03e2             MVC     .S2     TSCH,B17          ; |146| 
    1468 00000264     de4d             LDW     .D2T2   *+SP(72),B4       ; |146| 
    1469                            .dwpsn  file "./../packages/ti/vlib/src/VLIB_blockStatistics/VLIB_blockStatistics_d.c",line 10
    1470 00000266     ee3d             LDW     .D2T1   *+SP(76),A3       ; |105| 
    1471 00000268 023e82e4             LDW     .D2T1   *+SP(80),A4       ; |105| 
    1472 0000026c 063f02e6             LDW     .D2T2   *+SP(96),B12      ; |105| 
    1473 00000270 063ee2e4             LDW     .D2T1   *+SP(92),A12      ; |105| 
    1474 00000274 053ec2e6             LDW     .D2T2   *+SP(88),B10      ; |105| 
    1475 00000278 032dc286             LDHU    .D2T2   *+B11(28),B6      ; |105| 
    1476 00000280 032da284             LDHU    .D2T1   *+B11(26),A6      ; |105| 
    1477 00000284 053ea2e4             LDW     .D2T1   *+SP(84),A10      ; |105| 
    1478 00000288 023d02b6             STB     .D2T2   B4,*+SP(8)        ; |105| 
    1479 0000028c     ac35             STW     .D2T1   A3,*+SP(4)        ; |105| 
    1480                    
    1481 0000028e     42b3             MVK     .S2     34,B5             ; |105| 
    1482 00000290 022de287  ||         LDHU    .D2T2   *+B11(30),B4      ; |105| 
    1483 00000294 07800028! ||         MVKL    .S1     beg_count,A15
    1484                    
    1485 00000298 04156a97             LDBU    .D2T2   *+B5[B11],B8      ; |105| 
TMS320C6x Assembler PC v7.4.2 Thu Mar 19 12:40:09 2015

Tools Copyright (c) 1996-2012 Texas Instruments Incorporated
package/lib/Regression/regress_d_c/./../packages/ti/vlib/src/VLIB_blockStatistics/VLIB_blockStatistics_d.se66 PAGE   28

    1486 000002a0 0280102b  ||         MVK     .S2     32,B5             ; |105| 
    1487 000002a4 07800068! ||         MVKH    .S1     beg_count,A15
    1488                    
    1489                    $C$DW$207       .dwtag  DW_TAG_TI_branch
    1490                            .dwattr $C$DW$207, DW_AT_low_pc(0x00)
    1491                            .dwattr $C$DW$207, DW_AT_name("VLIB_blockStatistics")
    1492                            .dwattr $C$DW$207, DW_AT_TI_call
    1493                    
    1494 000002a8 10000013!            CALLP   .S2     VLIB_blockStatistics,B3
    1495 000002ac 04156a95  ||         LDBU    .D2T1   *+B5[B11],A8      ; |105| 
    1496 000002b0 083c0346  ||         STDW    .D1T2   B17:B16,*A15      ; |146| 
    1497                    
    1498 000002b4           $C$RL18:   ; CALL OCCURS {VLIB_blockStatistics} {0}  ; |105| 
    1499                    
    1500 000002b4 05100fd9             MV      .L1     A4,A10            ; |105| 
    1501 000002b8 042803e2  ||         MVC     .S2     TSCL,B8           ; |153| 
    1502                    
    1503                            .dwpsn  file ".\..\packages\ti\vlib\src\VLIB_blockStatistics\..\common\VLIB_profile.h",line 15
    1504                    ;----------------------------------------------------------------------
    1505                    ; 153 | break;                                                                 
    1506                    ; 155 | if((var_opt[i * outWidth + j] != var_cn[i * outWidth + j])) {          
    1507                    ;----------------------------------------------------------------------
    1508 000002bc 04ac03e2             MVC     .S2     TSCH,B9           ; |153| 
    1509 000002c0 0280002a!            MVKL    .S2     overhead,B5
    1510                    
    1511 000002c4 0280006b!            MVKH    .S2     overhead,B5
    1512 000002c8 022c0266  ||         LDW     .D1T2   *A11,B4           ; |156| 
    1513                    
    1514 000002cc 031403e7             LDDW    .D2T2   *B5,B7:B6         ; |156| 
    1515 000002d0 033c0364  ||         LDDW    .D1T1   *A15,A7:A6        ; |156| 
    1516                    
    1517 000002d4 0f80002a!            MVKL    .S2     cycles,B31
    1518 000002d8 0f80006a!            MVKH    .S2     cycles,B31
    1519 000002dc 00002000             NOP             2
    1520                    
    1521 000002e0 0218d579             ADDU    .L1X    B6,A6,A5:A4       ; |156| 
    1522 000002e4 037c9e42  ||         ADDAD   .D2     B31,B4,B6         ; |156| 
    1523                    
    1524                            .dwpsn  file ".\..\packages\ti\vlib\src\VLIB_blockStatistics\..\common\VLIB_profile.h",line 15
    1525                    ;----------------------------------------------------------------------
    1526                    ; 156 | status_nat_vs_int = vlib_KERNEL_FAIL;                                  
    1527                    ; 157 | printf("row:%d, col:%d, var_out:%u, var_EOut:%u \n", i, j, var_opt[i *
    1528                    ;     | outWidth + j], var_cn[i * outWidth + j]);                              
    1529                    ; 158 | break;                                                                 
    1530                    ;----------------------------------------------------------------------
    1531 000002e8 021803e6             LDDW    .D2T2   *B6,B5:B4         ; |156| 
    1532 000002ec     b3b0             ADD     .L1X    A5,B7,A3          ; |156| 
    1533 000002ee     63b0             ADD     .L1     A3,A7,A3          ; |156| 
    1534 000002f0 021117f8             SUBU    .L1X    B8,A4,A5:A4       ; |156| 
    1535 000002f4     0c6e             NOP             1
    1536                    
    1537 00000300 020d30fa             SUB     .L2X    B9,A3,B4          ; |156| 
    1538 000002f8 02109579  ||         ADDU    .L1X    B4,A4,A5:A4       ; |156| 
    1539 000002f6     6ae2  ||         EXT     .S1     A5,24,24,A3       ; |156| 
    1540                    
TMS320C6x Assembler PC v7.4.2 Thu Mar 19 12:40:09 2015

Tools Copyright (c) 1996-2012 Texas Instruments Incorporated
package/lib/Regression/regress_d_c/./../packages/ti/vlib/src/VLIB_blockStatistics/VLIB_blockStatistics_d.se66 PAGE   29

    1541 00000304     b2d0             ADD     .L1X    A5,B5,A5          ; |156| 
    1542 00000306     7230             ADD     .L1X    B4,A3,A3          ; |156| 
    1543 00000308 028ca078             ADD     .L1     A5,A3,A5          ; |156| 
    1544 0000030c 01800028!            MVKL    .S1     end_count,A3
    1545 00000310 01800068!            MVKH    .S1     end_count,A3
    1546                    $C$DW$208       .dwtag  DW_TAG_TI_branch
    1547                            .dwattr $C$DW$208, DW_AT_low_pc(0x00)
    1548                            .dwattr $C$DW$208, DW_AT_name("setStackDepth")
    1549                            .dwattr $C$DW$208, DW_AT_TI_call
    1550                    
    1551 00000314 10000013!            CALLP   .S2     setStackDepth,B3
    1552 00000318 040c0347  ||         STDW    .D1T2   B9:B8,*A3         ; |153| 
    1553 00000320 021803c4  ||         STDW    .D2T1   A5:A4,*B6         ; |156| 
    1554                    
    1555                            .dwpsn  file ".\..\packages\ti\vlib\src\VLIB_blockStatistics\..\common\VLIB_profile.h",line 15
    1556 00000324           $C$RL19:   ; CALL OCCURS {setStackDepth} {0}  ; |159| 
    1557                    
    1558 00000324     6586             MV      .L1     A11,A3            ; |137| 
    1559 00000326     2627  ||         MVK     .L2     1,B4              ; |137| 
    1560                    
    1561                    $C$DW$209       .dwtag  DW_TAG_TI_branch
    1562                            .dwattr $C$DW$209, DW_AT_low_pc(0x00)
    1563                            .dwattr $C$DW$209, DW_AT_name("VLIB_cache_inval")
    1564                            .dwattr $C$DW$209, DW_AT_TI_call
    1565                    
    1566 00000328 10000013!            CALLP   .S2     VLIB_cache_inval,B3
    1567 0000032c 020c0276  ||         STW     .D1T2   B4,*A3            ; |137| 
    1568                    
    1569                            .dwpsn  file ".\..\packages\ti\vlib\src\VLIB_blockStatistics\..\common\VLIB_profile.h",line 14
    1570                    $C$RL20:   ; CALL OCCURS {VLIB_cache_inval} {0}  ; |140| 
    1571                    $C$DW$210       .dwtag  DW_TAG_TI_branch
    1572                            .dwattr $C$DW$210, DW_AT_low_pc(0x00)
    1573                            .dwattr $C$DW$210, DW_AT_name("getSP")
    1574                            .dwattr $C$DW$210, DW_AT_TI_call
    1575 00000330 10000012!            CALLP   .S2     getSP,B3
    1576                            .dwpsn  file ".\..\packages\ti\vlib\src\VLIB_blockStatistics\..\common\VLIB_profile.h",line 14
    1577                    $C$RL21:   ; CALL OCCURS {getSP} {0}         ; |143| 
    1578                    $C$DW$211       .dwtag  DW_TAG_TI_branch
    1579                            .dwattr $C$DW$211, DW_AT_low_pc(0x00)
    1580                            .dwattr $C$DW$211, DW_AT_name("initStack")
    1581                            .dwattr $C$DW$211, DW_AT_TI_call
    1582 00000334 10000012!            CALLP   .S2     initStack,B3
    1583 00000338           $C$RL22:   ; CALL OCCURS {initStack} {0}     ; |143| 
    1584                            .dwpsn  file "./../packages/ti/vlib/src/VLIB_blockStatistics/VLIB_blockStatistics_d.c",line 54
    1585 00000338 01a80a58             CMPEQ   .L1     A10,0,A3          ; |54| 
    1586                    
    1587 00000340 058c2dd9             XOR     .L1     1,A3,A11          ; |54| 
    1588 00000344 082803e2  ||         MVC     .S2     TSCL,B16          ; |146| 
    1589                    
    1590                            .dwpsn  file ".\..\packages\ti\vlib\src\VLIB_blockStatistics\..\common\VLIB_profile.h",line 14
    1591 00000348 08ac03e2             MVC     .S2     TSCH,B17          ; |146| 
    1592                            .dwpsn  file "./../packages/ti/vlib/src/VLIB_blockStatistics/VLIB_blockStatistics_d.c",line 12
    1593 0000034c 023e82e4             LDW     .D2T1   *+SP(80),A4       ; |125| 
    1594 00000350 022de286             LDHU    .D2T2   *+B11(30),B4      ; |125| 
    1595 00000354 032da284             LDHU    .D2T1   *+B11(26),A6      ; |125| 
TMS320C6x Assembler PC v7.4.2 Thu Mar 19 12:40:09 2015

Tools Copyright (c) 1996-2012 Texas Instruments Incorporated
package/lib/Regression/regress_d_c/./../packages/ti/vlib/src/VLIB_blockStatistics/VLIB_blockStatistics_d.se66 PAGE   30

    1596 00000358 042e2286             LDHU    .D2T2   *+B11(34),B8      ; |125| 
    1597 0000035c 032dc286             LDHU    .D2T2   *+B11(28),B6      ; |125| 
    1598 00000360 053f22e4             LDW     .D2T1   *+SP(100),A10     ; |125| 
    1599 00000364 063f62e4             LDW     .D2T1   *+SP(108),A12     ; |125| 
    1600                    
    1601 00000368 042e0285             LDHU    .D2T1   *+B11(32),A8      ; |125| 
    1602 0000036c 083c0346  ||         STDW    .D1T2   B17:B16,*A15      ; |146| 
    1603                    
    1604 00000370 053f42e6             LDW     .D2T2   *+SP(104),B10     ; |125| 
    1605                    $C$DW$212       .dwtag  DW_TAG_TI_branch
    1606                            .dwattr $C$DW$212, DW_AT_low_pc(0x00)
    1607                            .dwattr $C$DW$212, DW_AT_name("VLIB_blockStatistics_cn")
    1608                            .dwattr $C$DW$212, DW_AT_TI_call
    1609                    
    1610 00000374 10000013!            CALLP   .S2     VLIB_blockStatistics_cn,B3
    1611 00000378 063f82e6  ||         LDW     .D2T2   *+SP(112),B12     ; |125| 
    1612                    
    1613 0000037c           $C$RL23:   ; CALL OCCURS {VLIB_blockStatistics_cn} {0}  ; |125| 
    1614                            .dwpsn  file ".\..\packages\ti\vlib\src\VLIB_blockStatistics\..\common\VLIB_profile.h",line 15
    1615 0000037c 032803e2             MVC     .S2     TSCL,B6           ; |153| 
    1616 00000380 03ac03e2             MVC     .S2     TSCH,B7           ; |153| 
    1617 00000384 01800028!            MVKL    .S1     act_kernel,A3
    1618 00000388 02000028!            MVKL    .S1     overhead,A4
    1619 0000038c 01800068!            MVKH    .S1     act_kernel,A3
    1620 00000390 02000068!            MVKH    .S1     overhead,A4
    1621                            .dwpsn  file ".\..\packages\ti\vlib\src\VLIB_blockStatistics\..\common\VLIB_profile.h",line 15
    1622 00000394 018c0264             LDW     .D1T1   *A3,A3            ; |156| 
    1623 00000398 02101fda             MV      .L2X    A4,B4             ; |156| 
    1624                    
    1625 0000039c 041003e7             LDDW    .D2T2   *B4,B9:B8         ; |156| 
    1626 000003a0 023c0364  ||         LDDW    .D1T1   *A15,A5:A4        ; |156| 
    1627                    
    1628 000003a4 04000028!            MVKL    .S1     cycles,A8
    1629 000003a8 04000068!            MVKH    .S1     cycles,A8
    1630 000003ac 03206b64             LDDW    .D1T1   *+A8[A3],A7:A6    ; |156| 
    1631 000003b0 00000000             NOP             1
    1632 000003b4 0211157a             ADDU    .L2X    B8,A4,B5:B4       ; |156| 
    1633 000003b8 0424a07a             ADD     .L2     B5,B9,B8          ; |156| 
    1634                    
    1635 000003bc 041511e3             ADD     .S2X    B8,A5,B8          ; |156| 
    1636 000003c0 0210c5fa  ||         SUBU    .L2     B6,B4,B5:B4       ; |156| 
    1637                    
    1638 000003c4 0497184b             EXT     .S2     B5,24,24,B9       ; |156| 
    1639 000003c8 0218957b  ||         ADDU    .L2X    A6,B4,B5:B4       ; |156| 
    1640 000003cc 041d08c3  ||         SUB     .D2     B7,B8,B8          ; |156| 
    1641 000003d0 02000028! ||         MVKL    .S1     end_count,A4
    1642                    
    1643 000003d4 0425007b             ADD     .L2     B8,B9,B8          ; |156| 
    1644 000003d8 029cb1e3  ||         ADD     .S2X    B5,A7,B5          ; |156| 
    1645 000003dc 02000068! ||         MVKH    .S1     end_count,A4
    1646                    
    1647 000003e0 02a0a07b             ADD     .L2     B5,B8,B5          ; |156| 
    1648 000003e4 03100346  ||         STDW    .D1T2   B7:B6,*A4         ; |153| 
    1649                    
    1650                    $C$DW$213       .dwtag  DW_TAG_TI_branch
TMS320C6x Assembler PC v7.4.2 Thu Mar 19 12:40:09 2015

Tools Copyright (c) 1996-2012 Texas Instruments Incorporated
package/lib/Regression/regress_d_c/./../packages/ti/vlib/src/VLIB_blockStatistics/VLIB_blockStatistics_d.se66 PAGE   31

    1651                            .dwattr $C$DW$213, DW_AT_low_pc(0x00)
    1652                            .dwattr $C$DW$213, DW_AT_name("setStackDepth")
    1653                            .dwattr $C$DW$213, DW_AT_TI_call
    1654                    
    1655 000003e8 10000013!            CALLP   .S2     setStackDepth,B3
    1656 000003ec 02206b46  ||         STDW    .D1T2   B5:B4,*+A8[A3]    ; |156| 
    1657                    
    1658                            .dwpsn  file ".\..\packages\ti\vlib\src\VLIB_blockStatistics\..\common\VLIB_profile.h",line 15
    1659 000003f0           $C$RL24:   ; CALL OCCURS {setStackDepth} {0}  ; |159| 
    1660 000003f0           $C$DW$L$VLIB_blockStatistics_d$10$E:
    1661                    ;** --------------------------------------------------------------------------*
    1662 000003f0           $C$DW$L$VLIB_blockStatistics_d$11$B:
    1663                    ;          EXCLUSIVE CPU CYCLES: 11
    1664                    ;** 138 -----------------------    if ( !outHeight ) goto g18;
    1665 000003f0     ae0d             LDW     .D2T1   *+SP(68),A0
    1666 000003f2     6c6e             NOP             4
    1667                    
    1668 000003f4 d194a121     [!A0]   BNOP    .S1     $C$L12,5          ; |138| 
    1669 000003f8 c6000fd9  || [ A0]   MV      .L1     A0,A12            ; |138| 
    1670 00000400 c5000040  || [ A0]   ZERO    .D1     A10               ; |138| 
    1671                    
    1672                            .dwpsn  file "./../packages/ti/vlib/src/VLIB_blockStatistics/VLIB_blockStatistics_d.c",line 13
    1673                               ; BRANCHCC OCCURS {$C$L12}        ; |138| 
    1674 00000404           $C$DW$L$VLIB_blockStatistics_d$11$E:
    1675                    ;** --------------------------------------------------------------------------*
    1676 00000404           $C$DW$L$VLIB_blockStatistics_d$12$B:
    1677                    ;** 139 -----------------------    L$1 = (unsigned)outHeight;
    1678                    ;** 138 -----------------------    i = 0u;
    1679                    ;**     -----------------------    #pragma MUST_ITERATE(1, 65535, 1)
    1680                    ;**     -----------------------    #pragma LOOP_FLAGS(5120u)
    1681 00000404           $C$DW$L$VLIB_blockStatistics_d$12$E:
    1682                    ;** --------------------------------------------------------------------------*
    1683 00000404           $C$DW$L$VLIB_blockStatistics_d$13$B:
    1684                    ;          EXCLUSIVE CPU CYCLES: 1
    1685 00000404 003e02e4             LDW     .D2T1   *+SP(64),A0
    1686 00000408           $C$DW$L$VLIB_blockStatistics_d$13$E:
    1687                    ;** --------------------------------------------------------------------------*
    1688                    ;**   BEGIN LOOP $C$L2
    1689                    ;** --------------------------------------------------------------------------*
    1690 00000408           $C$L2:    
    1691                            .dwpsn  file "./../packages/ti/vlib/src/VLIB_blockStatistics/VLIB_blockStatistics_d.c",line 13
    1692 00000408           $C$DW$L$VLIB_blockStatistics_d$14$B:
    1693                    ;          EXCLUSIVE CPU CYCLES: 10
    1694                    ;**     -----------------------g6:
    1695                    ;** 139 -----------------------    if ( !outWidth ) goto g17;
    1696 00000408     6c6e             NOP             4
    1697                    
    1698 00000414 d0005e90     [!A0]   B       .S1     $C$L9             ; |139| 
    1699 0000040a     6046  ||         MV      .L1     A0,A3
    1700 00000410 cbbf22e7  || [ A0]   LDW     .D2T2   *+SP(100),B23
    1701 0000040c c283e041  || [ A0]   MVK     .D1     0xffffffff,A5     ; |139| 
    1702                    
    1703 00000418 ca8d4800     [ A0]   MPY32   .M1     A10,A3,A21
    1704                            .dwpsn  file "./../packages/ti/vlib/src/VLIB_blockStatistics/VLIB_blockStatistics_d.c",line 14
    1705 00000420 c2142058     [ A0]   ADD     .L1     1,A5,A4           ; |140| 
TMS320C6x Assembler PC v7.4.2 Thu Mar 19 12:40:09 2015

Tools Copyright (c) 1996-2012 Texas Instruments Incorporated
package/lib/Regression/regress_d_c/./../packages/ti/vlib/src/VLIB_blockStatistics/VLIB_blockStatistics_d.se66 PAGE   32

    1706 00000424 ccbea2e6     [ A0]   LDW     .D2T2   *+SP(84),B25
    1707 00000428 cb3f42e6     [ A0]   LDW     .D2T2   *+SP(104),B22
    1708 0000042c cc3ec2e6     [ A0]   LDW     .D2T2   *+SP(88),B24
    1709                            .dwpsn  file "./../packages/ti/vlib/src/VLIB_blockStatistics/VLIB_blockStatistics_d.c",line 13
    1710                               ; BRANCHCC OCCURS {$C$L9}         ; |139| 
    1711 00000430           $C$DW$L$VLIB_blockStatistics_d$14$E:
    1712                    ;** --------------------------------------------------------------------------*
    1713                            .dwpsn  file "./../packages/ti/vlib/src/VLIB_blockStatistics/VLIB_blockStatistics_d.c",line 14
    1714 00000430           $C$DW$L$VLIB_blockStatistics_d$15$B:
    1715                    ;          EXCLUSIVE CPU CYCLES: 14
    1716                    ;**     -----------------------    U$117 = outWidth*i;
    1717                    ;**     -----------------------    U$118 = U$117;
    1718                    ;** 140 -----------------------    L$2 = (unsigned)outWidth;
    1719                    ;** 139 -----------------------    j = 0xffffffffu;
    1720                    ;**     -----------------------    #pragma MUST_ITERATE(1, 65535, 1)
    1721                    ;**     -----------------------    #pragma LOOP_FLAGS(4352u)
    1722                    ;**     -----------------------g8:
    1723                    ;** 140 -----------------------    C$18 = j+1u;
    1724                    ;** 140 -----------------------    C$22 = (int)C$18+U$118;
    1725                    ;** 140 -----------------------    U$123 = min_cn[C$22];
    1726                    ;** 140 -----------------------    U$121 = min_opt[C$22];
    1727                    ;** 140 -----------------------    f$6 = (U$121 != U$123)-1;
    1728                    ;** 145 -----------------------    U$129 = (unsigned char)(A$30 = max_cn[C$22] , f$6 ? A$30 : U$129);
    1729                    ;** 145 -----------------------    U$127 = (unsigned char)(A$31 = max_opt[C$22] , f$6 ? A$31 : U$127);
    1730                    ;** 145 -----------------------    f$5 = (U$127 != U$129)-1;
    1731                    ;** 150 -----------------------    C$20 = (int)U$117+C$18;
    1732                    ;** 150 -----------------------    C$21 = f$5&f$6;
    1733                    ;** 150 -----------------------    U$138 = (unsigned short)(A$32 = mean_cn[C$20] , C$21 ? A$32 : U$138
    1734                    ;** 150 -----------------------    U$136 = (unsigned short)(A$33 = mean_opt[C$20] , C$21 ? A$33 : U$13
    1735                    ;** 150 -----------------------    f$4 = (U$136 != U$138)-1;
    1736                    ;** 155 -----------------------    C$19 = f$4&f$5&f$6;
    1737                    ;** 155 -----------------------    U$147 = (A$34 = var_cn[C$20] , C$19 ? A$34 : U$147);
    1738                    ;** 155 -----------------------    U$145 = (A$35 = var_opt[C$20] , C$19 ? A$35 : U$145);
    1739                    ;** 155 -----------------------    f$3 = (U$145 != U$147)-1;
    1740                    ;** 139 -----------------------    j = C$18;
    1741                    ;** 139 -----------------------    L$2 = L$2-1;
    1742                    ;** 139 -----------------------    if ( L$2&f$3&f$4&f$5&f$6 ) goto g8;
    1743                    ;**     -----------------------    if ( !f$6 ) goto g16;
    1744                    
    1745 00000430 0ad41fdb             MV      .L2X    A21,B21
    1746 00000434 0084a359  ||         MVK     .L1     0x1,A1
    1747 00000438 028020ee  ||         LDW     .D2T2   *+SP(128),B5
    1748                    
    1749 0000043c 0212b07b             ADD     .L2X    B21,A4,B4         ; |140| (P) <0,2> 
    1750 00000440 0bbf62e4  ||         LDW     .D2T1   *+SP(108),A23
    1751                    
    1752 00000444 0a12ea97             LDBU    .D2T2   *+B4[B23],B20     ; |140| (P) <0,3>  ^ 
    1753 00000448     5c47  ||         MV      .L2X    A0,B26            ; |139| 
    1754 0000044a     00c6  ||         MV      .L1     A1,A0
    1755                    
    1756 0000044c 0d932a96             LDBU    .D2T2   *+B4[B25],B27     ; |140| (P) <0,4>  ^ 
    1757                            .dwpsn  file "./../packages/ti/vlib/src/VLIB_blockStatistics/VLIB_blockStatistics_d.c",line 14
    1758 00000450 8f930a96     [ A1]   LDBU    .D2T2   *+B4[B24],B31     ; |145| (P) <0,5> 
    1759 00000454 8112ca96     [ A1]   LDBU    .D2T2   *+B4[B22],B2      ; |145| (P) <0,6> 
    1760 00000458 03bd82e6             LDW     .D2T2   *+SP(48),B7
TMS320C6x Assembler PC v7.4.2 Thu Mar 19 12:40:09 2015

Tools Copyright (c) 1996-2012 Texas Instruments Incorporated
package/lib/Regression/regress_d_c/./../packages/ti/vlib/src/VLIB_blockStatistics/VLIB_blockStatistics_d.se66 PAGE   33

    1761 00000460 0cbee2e4             LDW     .D2T1   *+SP(92),A25
    1762 00000464 043d62e6             LDW     .D2T2   *+SP(44),B8
    1763 00000468 033fc2e6             LDW     .D2T2   *+SP(120),B6
    1764 0000046c 04bd42e6             LDW     .D2T2   *+SP(40),B9
    1765 00000470     bf8d             LDW     .D2T2   *+SP(116),B16
    1766 00000472     8fed             LDW     .D2T1   *+SP(112),A22
    1767 00000474 0c3f02e4             LDW     .D2T1   *+SP(96),A24
    1768 00000478           $C$DW$L$VLIB_blockStatistics_d$15$E:
    1769                    ;*----------------------------------------------------------------------------*
    1770                    ;*   SOFTWARE PIPELINE INFORMATION
    1771                    ;*
    1772                    ;*      Loop found in file               : ./../packages/ti/vlib/src/VLIB_blockStatistics/VLIB_blockSt
    1773                    ;*      Loop source line                 : 139
    1774                    ;*      Loop opening brace source line   : 139
    1775                    ;*      Loop closing brace source line   : 160
    1776                    ;*      Known Minimum Trip Count         : 1                    
    1777                    ;*      Known Maximum Trip Count         : 65535                    
    1778                    ;*      Known Max Trip Count Factor      : 1
    1779                    ;*      Loop Carried Dependency Bound(^) : 26
    1780                    ;*      Unpartitioned Resource Bound     : 12
    1781                    ;*      Partitioned Resource Bound(*)    : 16
    1782                    ;*      Resource Partition:
    1783                    ;*                                A-side   B-side
    1784                    ;*      .L units                     0        4     
    1785                    ;*      .S units                     1        8     
    1786                    ;*      .D units                     4        4     
    1787                    ;*      .M units                     0        0     
    1788                    ;*      .X cross paths               9        2     
    1789                    ;*      .T address paths             1        7     
    1790                    ;*      Long read paths              0        0     
    1791                    ;*      Long write paths             0        0     
    1792                    ;*      Logical  ops (.LS)           0        0     (.L or .S unit)
    1793                    ;*      Addition ops (.LSD)         16       30     (.L or .S or .D unit)
    1794                    ;*      Bound(.L .S .LS)             1        6     
    1795                    ;*      Bound(.L .S .D .LS .LSD)     7       16*    
    1796                    ;*
    1797                    ;*      Searching for software pipeline schedule at ...
    1798                    ;*         ii = 26 Did not find schedule
    1799                    ;*         ii = 27 Did not find schedule
    1800                    ;*         ii = 28 Did not find schedule
    1801                    ;*         ii = 29 Did not find schedule
    1802                    ;*         ii = 30 Schedule found with 2 iterations in parallel
    1803                    ;*
    1804                    ;*      Register Usage Table:
    1805                    ;*          +-----------------------------------------------------------------+
    1806                    ;*          |AAAAAAAAAAAAAAAAAAAAAAAAAAAAAAAA|BBBBBBBBBBBBBBBBBBBBBBBBBBBBBBBB|
    1807                    ;*          |00000000001111111111222222222233|00000000001111111111222222222233|
    1808                    ;*          |01234567890123456789012345678901|01234567890123456789012345678901|
    1809                    ;*          |--------------------------------+--------------------------------|
    1810                    ;*       0: |**  ******      ***********     |  *  *****      *  *************|
    1811                    ;*       1: |**  ******      ***********     |  * ******      *  *************|
    1812                    ;*       2: |** *******      ***********     |* *  *****      *  *************|
    1813                    ;*       3: |** *******      ***********     |* * ******      *  *************|
    1814                    ;*       4: |** *******      ***********     |* * ******      *  *************|
    1815                    ;*       5: |** *******      ***********     |* * ******      ** *************|
TMS320C6x Assembler PC v7.4.2 Thu Mar 19 12:40:09 2015

Tools Copyright (c) 1996-2012 Texas Instruments Incorporated
package/lib/Regression/regress_d_c/./../packages/ti/vlib/src/VLIB_blockStatistics/VLIB_blockStatistics_d.se66 PAGE   34

    1816                    ;*       6: |**  ******      ***********     |* * ******      ****************|
    1817                    ;*       7: |**  ******      ***********     |* ********      *  *************|
    1818                    ;*       8: |**  ******      ***********     |**********      *  *************|
    1819                    ;*       9: |**  ******      ***********     |**********      ** *************|
    1820                    ;*      10: |**  ******      ***********     |* ********      *  *************|
    1821                    ;*      11: |**  ******      ***********     |* ********      ** *************|
    1822                    ;*      12: |**  ******      ***********     |* ********      ****************|
    1823                    ;*      13: |**  ******      ***********     |* ********      * **************|
    1824                    ;*      14: |**  ******      ***********     |* ********      ****************|
    1825                    ;*      15: |**  ******      ***********     |* ********      * **************|
    1826                    ;*      16: |**  ******      ***********     |**********       ***************|
    1827                    ;*      17: |**  ******      ***********     | ********       ****************|
    1828                    ;*      18: |** *******      ***********     |  ********      ****************|
    1829                    ;*      19: |**  ******      ***********     |* ********      * **************|
    1830                    ;*      20: |**  ******      ***********     |* ********      ****************|
    1831                    ;*      21: | * * *****      ***********     |  ********      ** *************|
    1832                    ;*      22: | *  ******      ***********     |  * ******      ** *************|
    1833                    ;*      23: | *  ******      ***********     |* *  *****      *  *************|
    1834                    ;*      24: | *  ******      ***********     |  * ******      *  *************|
    1835                    ;*      25: | *  ******      ***********     |  * ******      *  *************|
    1836                    ;*      26: | *  ******      ***********     |  * ******      *  *************|
    1837                    ;*      27: | *  ******      ***********     |  * ******      *  *************|
    1838                    ;*      28: | *  ******      ***********     |  *  *****      *  *************|
    1839                    ;*      29: | *  ******      ***********     |  *  *****      *  *************|
    1840                    ;*          +-----------------------------------------------------------------+
    1841                    ;*
    1842                    ;*      Done
    1843                    ;*
    1844                    ;*      Loop is interruptible
    1845                    ;*      Collapsed epilog stages       : 1
    1846                    ;*      Prolog not removed
    1847                    ;*      Collapsed prolog stages       : 0
    1848                    ;*
    1849                    ;*      Minimum required memory pad   : 0 bytes
    1850                    ;*
    1851                    ;*      Minimum safe trip count       : 1
    1852                    ;*      Min. prof. trip count  (est.) : 2
    1853                    ;*
    1854                    ;*      Mem bank conflicts/iter(est.) : { min 0.000, est 0.000, max 0.000 }
    1855                    ;*      Mem bank perf. penalty (est.) : 0.0%
    1856                    ;*
    1857                    ;*
    1858                    ;*      Total cycles (est.)         : 9 + trip_cnt * 30        
    1859                    ;*----------------------------------------------------------------------------*
    1860                    ;*       SETUP CODE
    1861                    ;*
    1862                    ;*                  MVK             0x1,A1
    1863                    ;*                  MV              A3,B16
    1864                    ;*                  MV              B17,B9
    1865                    ;*                  MV              B17,B8
    1866                    ;*                  MV              B17,B7
    1867                    ;*                  MV              B8,B6
    1868                    ;*                  MV              B7,B5
    1869                    ;*                  MV              A1,A0
    1870                    ;*
TMS320C6x Assembler PC v7.4.2 Thu Mar 19 12:40:09 2015

Tools Copyright (c) 1996-2012 Texas Instruments Incorporated
package/lib/Regression/regress_d_c/./../packages/ti/vlib/src/VLIB_blockStatistics/VLIB_blockStatistics_d.se66 PAGE   35

    1871                    ;*        SINGLE SCHEDULED ITERATION
    1872                    ;*
    1873                    ;*        $C$C288:
    1874                    ;*   0              ADD     .S1     1,A3,A4           ; |140| 
    1875                    ;*   1              NOP             1
    1876                    ;*   2              ADD     .L2X    B21,A4,B4         ; |140| 
    1877                    ;*   3      [ A1]   LDBU    .D2T2   *+B4[B23],B20     ; |140|  ^ 
    1878                    ;*   4      [ A1]   LDBU    .D2T2   *+B4[B25],B27     ; |140|  ^ 
    1879                    ;*   5      [ A1]   LDBU    .D2T2   *+B4[B24],B31     ; |145| 
    1880                    ;*   6      [ A1]   LDBU    .D2T2   *+B4[B22],B2      ; |145| 
    1881                    ;*   7              NOP             2
    1882                    ;*   9              CMPEQ   .L2     B27,B20,B4        ; |140|  ^ 
    1883                    ;*  10              EXT     .S2     B4,31,31,B0       ; |140|  ^ 
    1884                    ;*     ||           ADD     .L1     A4,A21,A3         ; |150| 
    1885                    ;*  11      [ B0]   MV      .D2     B2,B4             ; |145|  ^ 
    1886                    ;*     ||   [!B0]   MV      .S2     B5,B4             ; |145|  ^ 
    1887                    ;*     ||   [ B0]   MV      .L2     B31,B5            ; |145|  ^ 
    1888                    ;*     ||   [ A1]   LDHU    .D1T2   *+A23[A3],B30     ; |150| 
    1889                    ;*  12              MV      .L2     B0,B4             ; |140| Split a long life(pre-sched)
    1890                    ;*     ||           EXTU    .S2     B4,24,24,B7       ; |145|  ^ 
    1891                    ;*     ||   [!B0]   MV      .D2     B7,B5             ; |145|  ^ 
    1892                    ;*     ||   [ A1]   LDHU    .D1T2   *+A25[A3],B29     ; |150| 
    1893                    ;*     ||   [ A1]   MV      .L1X    B0,A17            ; |139| 
    1894                    ;*  13              MV      .L2     B7,B5             ; |145| Split a long life(pre-sched)
    1895                    ;*     ||           EXTU    .S2     B5,24,24,B17      ; |145|  ^ 
    1896                    ;*     ||   [ A1]   LDW     .D1T2   *+A24[A3],B28     ; |155| 
    1897                    ;*  14              MV      .S2     B17,B7            ; |145| Split a long life(pre-sched)
    1898                    ;*     ||           CMPEQ   .L2     B17,B7,B18        ; |145|  ^ 
    1899                    ;*     ||   [ A1]   LDW     .D1T1   *+A22[A3],A26     ; |155| 
    1900                    ;*     ||   [ A1]   MV      .L1X    B7,A6             ; |139| 
    1901                    ;*  15              EXT     .S2     B18,31,31,B3      ; |145|  ^ 
    1902                    ;*     ||   [ A1]   MV      .L1X    B17,A9            ; |139| 
    1903                    ;*  16              AND     .L2     B0,B3,B1          ; |150|  ^ 
    1904                    ;*  17      [ B1]   MV      .D2     B30,B17           ; |150|  ^ 
    1905                    ;*     ||   [!B1]   MV      .S2     B6,B17            ; |150|  ^ 
    1906                    ;*     ||   [ B1]   MV      .L2     B29,B6            ; |150|  ^ 
    1907                    ;*     ||   [ A1]   MV      .L1X    B3,A18            ; |139| 
    1908                    ;*  18              EXTU    .S2     B17,16,16,B8      ; |150|  ^ 
    1909                    ;*     ||   [!B1]   MV      .L2     B8,B6             ; |150|  ^ 
    1910                    ;*  19              MV      .L2     B8,B6             ; |150| Split a long life(pre-sched)
    1911                    ;*     ||           EXTU    .S2     B6,16,16,B17      ; |150|  ^ 
    1912                    ;*  20              MV      .S2     B17,B8            ; |150| Split a long life(pre-sched)
    1913                    ;*     ||           CMPEQ   .L2     B17,B8,B18        ; |150|  ^ 
    1914                    ;*     ||   [ A1]   MV      .L1X    B8,A7             ; |139| 
    1915                    ;*  21              EXT     .S2     B18,31,31,B18     ; |150|  ^ 
    1916                    ;*     ||   [ A1]   MV      .L1X    B17,A16           ; |139| 
    1917                    ;*  22              AND     .L2     B3,B18,B17        ; |155|  ^ 
    1918                    ;*  23              AND     .L2     B0,B17,B0         ; |155|  ^ 
    1919                    ;*     ||   [ A0]   MV      .L1X    B18,A19           ; |139| 
    1920                    ;*  24      [ B0]   MV      .D2X    A26,B1            ; |155|  ^ 
    1921                    ;*     ||   [!B0]   MV      .S2     B16,B1            ; |155|  ^ 
    1922                    ;*     ||   [ B0]   MV      .L2     B28,B17           ; |155|  ^ 
    1923                    ;*  25      [!B0]   MV      .S2     B9,B17            ; |155|  ^ 
    1924                    ;*     ||           MV      .L2     B1,B16            ; |155| Define a twin register
    1925                    ;*  26              MV      .L1X    B1,A3             ; |155| 
TMS320C6x Assembler PC v7.4.2 Thu Mar 19 12:40:09 2015

Tools Copyright (c) 1996-2012 Texas Instruments Incorporated
package/lib/Regression/regress_d_c/./../packages/ti/vlib/src/VLIB_blockStatistics/VLIB_blockStatistics_d.se66 PAGE   36

    1926                    ;*     ||           CMPEQ   .L2     B17,B1,B9         ; |155|  ^ 
    1927                    ;*     ||           SUB     .S2     B26,1,B26         ; |139| 
    1928                    ;*  27              MV      .L2     B17,B9            ; |155| Split a long life(pre-sched)
    1929                    ;*     ||           EXT     .S2     B9,31,31,B0       ; |155|  ^ 
    1930                    ;*     ||   [ A0]   MV      .L1     A3,A8             ; |139| 
    1931                    ;*     ||   [ A0]   MV      .D2     B17,B19           ; |139| 
    1932                    ;*  28              AND     .L2     B0,B26,B17        ; |139|  ^ 
    1933                    ;*  29              MV      .L1     A4,A3             ; |139| 
    1934                    ;*     ||           AND     .L2     B18,B17,B17       ; |139|  ^ 
    1935                    ;*     ||   [ A0]   MV      .S1X    B0,A20            ; |139| 
    1936                    ;*  30              AND     .L2     B3,B17,B17        ; |139|  ^ 
    1937                    ;*     ||   [ A1]   MV      .L1     A3,A5             ; |139| 
    1938                    ;*  31              AND     .L2     B4,B17,B0         ; |139|  ^ 
    1939                    ;*  32      [!B0]   ZERO    .L1     A1                ; |139|  ^ 
    1940                    ;*  33      [ A1]   B       .S1     $C$C288           ; |139| 
    1941                    ;*  34              NOP             4
    1942                    ;*  38              MV      .L1     A1,A0             ; |139| Split a long life(pre-sched)
    1943                    ;*  39              ; BRANCHCC OCCURS {$C$C288}       ; |139| 
    1944                    ;*
    1945                    ;*       RESTORE CODE
    1946                    ;*
    1947                    ;*                  MV              A5,A3
    1948                    ;*                  MV              A6,B7
    1949                    ;*                  MV              A7,B8
    1950                    ;*                  MV              A8,A3
    1951                    ;*                  MV              A9,B17
    1952                    ;*                  MV              A16,B17
    1953                    ;*                  MV              B19,B17
    1954                    ;*----------------------------------------------------------------------------*
    1955 00000478           $C$L3:    ; PIPED LOOP PROLOG
    1956                    ;** --------------------------------------------------------------------------*
    1957 00000478           $C$L4:    ; PIPED LOOP KERNEL
    1958                            .dwpsn  file "./../packages/ti/vlib/src/VLIB_blockStatistics/VLIB_blockStatistics_d.c",line 13
    1959 00000478           $C$DW$L$VLIB_blockStatistics_d$17$B:
    1960                    ;          EXCLUSIVE CPU CYCLES: 30
    1961                            .dwpsn  file "./../packages/ti/vlib/src/VLIB_blockStatistics/VLIB_blockStatistics_d.c",line 14
    1962 00000478 02536a7a             CMPEQ   .L2     B27,B20,B4        ; |140| <0,9>  ^ 
    1963                    
    1964 00000480 01d48079             ADD     .L1     A4,A21,A3         ; |150| <0,10> 
    1965 00000484 0013ff4a  ||         EXT     .S2     B4,31,31,B0       ; |140| <0,10>  ^ 
    1966                    
    1967 00000488 8f5c6a07     [ A1]   LDHU    .D1T2   *+A23[A3],B30     ; |150| <0,11> 
    1968 0000048c 22fc0fdb  || [ B0]   MV      .L2     B31,B5            ; |145| <0,11>  ^ 
    1969 00000490 321406a3  || [!B0]   MV      .S2     B5,B4             ; |145| <0,11>  ^ 
    1970 00000494 220808f2  || [ B0]   MV      .D2     B2,B4             ; |145| <0,11>  ^ 
    1971                    
    1972 00000498 88801fd9     [ A1]   MV      .L1X    B0,A17            ; |139| <0,12> 
    1973 0000049c 02000fdb  ||         MV      .L2     B0,B4             ; |140| <0,12> Split a long life(pre-sched)
    1974 000004a0 8ee46a07  || [ A1]   LDHU    .D1T2   *+A25[A3],B29     ; |150| <0,12> 
    1975 000004a8     fa63  ||         EXTU    .S2     B4,24,24,B7       ; |145| <0,12>  ^ 
    1976 000004a4 329c08f3  || [!B0]   MV      .D2     B7,B5             ; |145| <0,12>  ^ 
    1977                    
    1978 000004aa     a3c7             MV      .L2     B7,B5             ; |145| <0,13> Split a long life(pre-sched)
    1979 000004ac 8e606a67  || [ A1]   LDW     .D1T2   *+A24[A3],B28     ; |155| <0,13> 
    1980 000004b0 0897180a  ||         EXTU    .S2     B5,24,24,B17      ; |145| <0,13>  ^ 
TMS320C6x Assembler PC v7.4.2 Thu Mar 19 12:40:09 2015

Tools Copyright (c) 1996-2012 Texas Instruments Incorporated
package/lib/Regression/regress_d_c/./../packages/ti/vlib/src/VLIB_blockStatistics/VLIB_blockStatistics_d.se66 PAGE   37

    1981                    
    1982 000004c4 03c406a2             MV      .S2     B17,B7            ; |145| <0,14> Split a long life(pre-sched)
    1983 000004b8 831c1fd9  || [ A1]   MV      .L1X    B7,A6             ; |139| <0,14> 
    1984 000004c0 8d586a65  || [ A1]   LDW     .D1T1   *+A22[A3],A26     ; |155| <0,14> 
    1985 000004b4 091e2a7b  ||         CMPEQ   .L2     B17,B7,B18        ; |145| <0,14>  ^ 
    1986                    
    1987 000004c8 84c41fd9     [ A1]   MV      .L1X    B17,A9            ; |139| <0,15> 
    1988 000004cc 01cbff4a  ||         EXT     .S2     B18,31,31,B3      ; |145| <0,15>  ^ 
    1989                    
    1990                            .dwpsn  file "./../packages/ti/vlib/src/VLIB_blockStatistics/VLIB_blockStatistics_d.c",line 15
    1991 000004d0 008c0f7a             AND     .L2     B0,B3,B1          ; |150| <0,16>  ^ 
    1992                    
    1993 000004d4 890c1fd9     [ A1]   MV      .L1X    B3,A18            ; |139| <0,17> 
    1994 000004d8 43740fdb  || [ B1]   MV      .L2     B29,B6            ; |150| <0,17>  ^ 
    1995 000004dc 589806a3  || [!B1]   MV      .S2     B6,B17            ; |150| <0,17>  ^ 
    1996 000004e0 48f808f2  || [ B1]   MV      .D2     B30,B17           ; |150| <0,17>  ^ 
    1997                    
    1998 000004e4 0446100b             EXTU    .S2     B17,16,16,B8      ; |150| <0,18>  ^ 
    1999 000004e8 53200fda  || [!B1]   MV      .L2     B8,B6             ; |150| <0,18>  ^ 
    2000                    
    2001 000004ec 03200fdb             MV      .L2     B8,B6             ; |150| <0,19> Split a long life(pre-sched)
    2002 000004f0 089a100a  ||         EXTU    .S2     B6,16,16,B17      ; |150| <0,19>  ^ 
    2003                    
    2004 000004f4 044406a3             MV      .S2     B17,B8            ; |150| <0,20> Split a long life(pre-sched)
    2005 000004f8 83a01fd9  || [ A1]   MV      .L1X    B8,A7             ; |139| <0,20> 
    2006 000004fc 09222a7a  ||         CMPEQ   .L2     B17,B8,B18        ; |150| <0,20>  ^ 
    2007                    
    2008 00000500 88441fd9     [ A1]   MV      .L1X    B17,A16           ; |139| <0,21> 
    2009 00000504 094bff4a  ||         EXT     .S2     B18,31,31,B18     ; |150| <0,21>  ^ 
    2010                    
    2011                            .dwpsn  file "./../packages/ti/vlib/src/VLIB_blockStatistics/VLIB_blockStatistics_d.c",line 15
    2012 00000508 08c86f7a             AND     .L2     B3,B18,B17        ; |155| <0,22>  ^ 
    2013                    
    2014 0000050c c9c81fd9     [ A0]   MV      .L1X    B18,A19           ; |139| <0,23> 
    2015 00000510 00440f7a  ||         AND     .L2     B0,B17,B0         ; |155| <0,23>  ^ 
    2016                    
    2017 00000514 28f00fdb     [ B0]   MV      .L2     B28,B17           ; |155| <0,24>  ^ 
    2018 00000518 30c006a3  || [!B0]   MV      .S2     B16,B1            ; |155| <0,24>  ^ 
    2019 0000051c 20e818f2  || [ B0]   MV      .D2X    A26,B1            ; |155| <0,24>  ^ 
    2020                    
    2021 00000524     08c7             MV      .L2     B1,B16            ; |155| <0,25> Define a twin register
    2022 00000520 38a406a3  || [!B0]   MV      .S2     B9,B17            ; |155| <0,25>  ^ 
    2023                    
    2024 00000528 0d6be1a3             SUB     .S2     B26,1,B26         ; |139| <0,26> 
    2025 00000526     70c6  ||         MV      .L1X    B1,A3             ; |155| <0,26> 
    2026 0000052c 04862a7a  ||         CMPEQ   .L2     B17,B1,B9         ; |155| <0,26>  ^ 
    2027                    
    2028 00000530 04c40fdb             MV      .L2     B17,B9            ; |155| <0,27> Split a long life(pre-sched)
    2029 00000534 c40c0fd9  || [ A0]   MV      .L1     A3,A8             ; |139| <0,27> 
    2030 00000538 c9c408f3  || [ A0]   MV      .D2     B17,B19           ; |139| <0,27> 
    2031 00000540 0027ff4a  ||         EXT     .S2     B9,31,31,B0       ; |155| <0,27>  ^ 
    2032                    
    2033                            .dwpsn  file "./../packages/ti/vlib/src/VLIB_blockStatistics/VLIB_blockStatistics_d.c",line 13
    2034 00000544 08e80f7a             AND     .L2     B0,B26,B17        ; |139| <0,28>  ^ 
    2035                    
TMS320C6x Assembler PC v7.4.2 Thu Mar 19 12:40:09 2015

Tools Copyright (c) 1996-2012 Texas Instruments Incorporated
package/lib/Regression/regress_d_c/./../packages/ti/vlib/src/VLIB_blockStatistics/VLIB_blockStatistics_d.se66 PAGE   38

    2036 00000548 01900fd9             MV      .L1     A4,A3             ; |139| <0,29> 
    2037 0000054c ca0016a1  || [ A0]   MV      .S1X    B0,A20            ; |139| <0,29> 
    2038 00000550 08c64f7a  ||         AND     .L2     B18,B17,B17       ; |139| <0,29>  ^ 
    2039                    
    2040 00000554 828c0fd9     [ A1]   MV      .L1     A3,A5             ; |139| <0,30> 
    2041 00000558 08c46f7b  ||         AND     .L2     B3,B17,B17        ; |139| <0,30>  ^ 
    2042 0000055c 020c21a0  ||         ADD     .S1     1,A3,A4           ; |140| <1,0> 
    2043                    
    2044 00000560 00448f7a             AND     .L2     B4,B17,B0         ; |139| <0,31>  ^ 
    2045                    
    2046 00000564 3080a359     [!B0]   ZERO    .L1     A1                ; |139| <0,32>  ^ 
    2047 00000568 0212b07a  ||         ADD     .L2X    B21,A4,B4         ; |140| <1,2> 
    2048                    
    2049 0000056c 8fffe311     [ A1]   B       .S1     $C$L4             ; |139| <0,33> 
    2050 00000570 8a12ea96  || [ A1]   LDBU    .D2T2   *+B4[B23],B20     ; |140| <1,3>  ^ 
    2051                    
    2052                            .dwpsn  file "./../packages/ti/vlib/src/VLIB_blockStatistics/VLIB_blockStatistics_d.c",line 14
    2053 00000574 8d932a96     [ A1]   LDBU    .D2T2   *+B4[B25],B27     ; |140| <1,4>  ^ 
    2054                            .dwpsn  file "./../packages/ti/vlib/src/VLIB_blockStatistics/VLIB_blockStatistics_d.c",line 14
    2055 00000578 8f930a96     [ A1]   LDBU    .D2T2   *+B4[B24],B31     ; |145| <1,5> 
    2056 0000057c 8112ca96     [ A1]   LDBU    .D2T2   *+B4[B22],B2      ; |145| <1,6> 
    2057 00000580 00000000             NOP             1
    2058                            .dwpsn  file "./../packages/ti/vlib/src/VLIB_blockStatistics/VLIB_blockStatistics_d.c",line 13
    2059 00000584 00040fd8             MV      .L1     A1,A0             ; |139| <0,38> Split a long life(pre-sched)
    2060 00000588           $C$DW$L$VLIB_blockStatistics_d$17$E:
    2061                    ;** --------------------------------------------------------------------------*
    2062 00000588           $C$L5:    ; PIPED LOOP EPILOG
    2063                    ;** --------------------------------------------------------------------------*
    2064 00000588           $C$DW$L$VLIB_blockStatistics_d$19$B:
    2065                    ;          EXCLUSIVE CPU CYCLES: 14
    2066                    
    2067 00000588 00440fd9             MV      .L1     A17,A0
    2068 0000058c 00cc06a1  ||         MV      .S1     A19,A1
    2069 00000594 00481fda  ||         MV      .L2X    A18,B0
    2070 00000590 030020fd  ||         STW     .D2T1   A6,*+SP(128)
    2071                    
    2072 00000598 d004a35b     [!A0]   MVK     .L2     0x1,B0            ; nullify predicate
    2073 000005a0 03bfc2f4  ||         STW     .D2T1   A7,*+SP(120)
    2074 0000059c d200002b! || [!A0]   MVKL    .S2     $C$SL5+0,B4
    2075                    
    2076 000005a4 043fa2f5             STW     .D2T1   A8,*+SP(116)
    2077 000005a8 d200006a! || [!A0]   MVKH    .S2     $C$SL5+0,B4
    2078                    
    2079 000005ac     8fe5             STW     .D2T1   A22,*+SP(112)
    2080 000005ae     ef75             STW     .D2T1   A23,*+SP(108)
    2081 000005b0     df65             STW     .D2T2   B22,*+SP(104)
    2082 000005b2     bf75             STW     .D2T2   B23,*+SP(100)
    2083 000005b4 04bd82f4             STW     .D2T1   A9,*+SP(48)
    2084                    
    2085 000005b8 0c3ec2f7             STW     .D2T2   B24,*+SP(88)
    2086 000005c0 d0002310  || [!A0]   B       .S1     $C$L8
    2087                    
    2088 000005c4 0cbea2f7             STW     .D2T2   B25,*+SP(84)
    2089 000005c8 30001a90  || [!B0]   B       .S1     $C$L7
    2090                    
TMS320C6x Assembler PC v7.4.2 Thu Mar 19 12:40:09 2015

Tools Copyright (c) 1996-2012 Texas Instruments Incorporated
package/lib/Regression/regress_d_c/./../packages/ti/vlib/src/VLIB_blockStatistics/VLIB_blockStatistics_d.se66 PAGE   39

    2091 000005cc 0cbee2f4             STW     .D2T1   A25,*+SP(92)
    2092 000005d0 0c3f02f4             STW     .D2T1   A24,*+SP(96)
    2093 000005d4     dd35             STW     .D2T2   B19,*+SP(40)
    2094                    $C$DW$214       .dwtag  DW_TAG_TI_branch
    2095                            .dwattr $C$DW$214, DW_AT_low_pc(0x08)
    2096                            .dwattr $C$DW$214, DW_AT_name("printf")
    2097                            .dwattr $C$DW$214, DW_AT_TI_call
    2098                    
    2099 000005d6     ed05             STW     .D2T1   A16,*+SP(44)
    2100 000005e0     3a07  ||         MV      .L2X    A20,B1
    2101 000005d8 d0000011! || [!A0]   CALL    .S1     printf            ; |142| 
    2102                    
    2103                               ; BRANCHCC OCCURS {$C$L8}  
    2104 000005e2           $C$DW$L$VLIB_blockStatistics_d$19$E:
    2105                    ;** --------------------------------------------------------------------------*
    2106 000005e2           $C$DW$L$VLIB_blockStatistics_d$20$B:
    2107                    ;          EXCLUSIVE CPU CYCLES: 1
    2108                    ;**     -----------------------    if ( !f$5 ) goto g15;
    2109 000005e2     0c6e             NOP             1
    2110                               ; BRANCHCC OCCURS {$C$L7}  
    2111 000005e4           $C$DW$L$VLIB_blockStatistics_d$20$E:
    2112                    ;** --------------------------------------------------------------------------*
    2113 000005e4           $C$DW$L$VLIB_blockStatistics_d$21$B:
    2114                    ;          EXCLUSIVE CPU CYCLES: 6
    2115                    ;**     -----------------------    if ( !f$4 ) goto g14;
    2116                    
    2117 000005e4 90000e91     [!A1]   B       .S1     $C$L6
    2118 000005e8 9080a35a  || [!A1]   ZERO    .L2     B1                ; nullify predicate
    2119                    
    2120 000005ec 40906120     [ B1]   BNOP    .S1     $C$L10,3
    2121                    $C$DW$215       .dwtag  DW_TAG_TI_branch
    2122                            .dwattr $C$DW$215, DW_AT_low_pc(0x00)
    2123                            .dwattr $C$DW$215, DW_AT_name("printf")
    2124                            .dwattr $C$DW$215, DW_AT_TI_call
    2125                    
    2126 000005f0 90000011!    [!A1]   CALL    .S1     printf            ; |152| 
    2127 000005f4 9200002b! || [!A1]   MVKL    .S2     $C$SL3+0,B4
    2128 000005f8 91c00fd8  || [!A1]   MV      .L1     A16,A3            ; |152| 
    2129                    
    2130                               ; BRANCHCC OCCURS {$C$L6}  
    2131 00000600           $C$DW$L$VLIB_blockStatistics_d$21$E:
    2132                    ;** --------------------------------------------------------------------------*
    2133 00000600           $C$DW$L$VLIB_blockStatistics_d$22$B:
    2134                    ;          EXCLUSIVE CPU CYCLES: 1
    2135                    ;**     -----------------------    if ( f$3 ) goto g17;
    2136                    
    2137 00000600 4033e059     [ B1]   SUB     .L1     A12,1,A0          ; |138| 
    2138 00000604 4633e1a1  || [ B1]   SUB     .S1     A12,1,A12         ; |138| 
    2139 00000608 45282940  || [ B1]   ADD     .D1     1,A10,A10         ; |138| 
    2140                    
    2141                               ; BRANCHCC OCCURS {$C$L10}  
    2142                    $C$DW$L$VLIB_blockStatistics_d$22$E:
    2143                    ;** --------------------------------------------------------------------------*
    2144                    $C$DW$L$VLIB_blockStatistics_d$23$B:
    2145                    ;          EXCLUSIVE CPU CYCLES: 6
TMS320C6x Assembler PC v7.4.2 Thu Mar 19 12:40:09 2015

Tools Copyright (c) 1996-2012 Texas Instruments Incorporated
package/lib/Regression/regress_d_c/./../packages/ti/vlib/src/VLIB_blockStatistics/VLIB_blockStatistics_d.se66 PAGE   40

    2146                    ;** 157 -----------------------    printf((const char *)"row:%d, col:%d, var_out:%u, var_EOut:%u \n", 
    2147                    ;** 156 -----------------------    status_nat_vs_int = 0;
    2148                    ;** 158 -----------------------    goto g17;
    2149                    $C$DW$216       .dwtag  DW_TAG_TI_branch
    2150                            .dwattr $C$DW$216, DW_AT_low_pc(0x00)
    2151                            .dwattr $C$DW$216, DW_AT_name("printf")
    2152                            .dwattr $C$DW$216, DW_AT_TI_call
    2153                    
    2154 0000060c 00000011!            CALL    .S1     printf            ; |157| 
    2155 00000614     8987  ||         MV      .L2     B19,B4            ; |157| 
    2156 00000610 0280002b! ||         MVKL    .S2     $C$SL2+0,B5
    2157                    
    2158 00000616     9cc5             STW     .D2T2   B4,*+SP(16)       ; |157| 
    2159 00000620     9407  ||         MV      .L2X    A8,B4             ; |157| 
    2160 00000618 0280006b! ||         MVKH    .S2     $C$SL2+0,B5
    2161                    
    2162                            .dwpsn  file "./../packages/ti/vlib/src/VLIB_blockStatistics/VLIB_blockStatistics_d.c",line 15
    2163 00000622     bcc5             STW     .D2T2   B4,*+SP(20)       ; |157| 
    2164 00000624 02bc22f6             STW     .D2T2   B5,*+SP(4)        ; |157| 
    2165 00000628 053c42f4             STW     .D2T1   A10,*+SP(8)       ; |157| 
    2166                    
    2167 0000062c 01880163             ADDKPC  .S2     $C$RL25,B3,0      ; |157| 
    2168 00000630     ec55  ||         STW     .D2T1   A5,*+SP(12)       ; |157| 
    2169                    
    2170 00000640           $C$RL25:   ; CALL OCCURS {printf} {0}        ; |157| 
    2171 00000640           $C$DW$L$VLIB_blockStatistics_d$23$E:
    2172                    ;** --------------------------------------------------------------------------*
    2173 00000640           $C$DW$L$VLIB_blockStatistics_d$24$B:
    2174                    ;          EXCLUSIVE CPU CYCLES: 6
    2175                    
    2176 00000640 00608123             BNOP    .S2     $C$L10,4          ; |158| 
    2177 00000644 0580a359  ||         ZERO    .L1     A11               ; |156| 
    2178 00000648 052821a1  ||         ADD     .S1     1,A10,A10         ; |138| 
    2179 0000064c 003029c0  ||         SUB     .D1     A12,1,A0          ; |138| 
    2180                    
    2181                            .dwpsn  file "./../packages/ti/vlib/src/VLIB_blockStatistics/VLIB_blockStatistics_d.c",line 13
    2182 00000650 0633e058             SUB     .L1     A12,1,A12         ; |138| 
    2183                            .dwpsn  file "./../packages/ti/vlib/src/VLIB_blockStatistics/VLIB_blockStatistics_d.c",line 15
    2184                               ; BRANCH OCCURS {$C$L10}          ; |158| 
    2185 00000654           $C$DW$L$VLIB_blockStatistics_d$24$E:
    2186                    ;** --------------------------------------------------------------------------*
    2187 00000654           $C$L6:    
    2188 00000654           $C$DW$L$VLIB_blockStatistics_d$25$B:
    2189                    ;          EXCLUSIVE CPU CYCLES: 5
    2190                    ;**     -----------------------g14:
    2191                    ;** 152 -----------------------    printf((const char *)"row:%d, col:%d, mean_out:%u, mean_EOut:%u \n"
    2192                    ;** 151 -----------------------    status_nat_vs_int = 0;
    2193                    ;** 153 -----------------------    goto g17;
    2194                    
    2195 00000654     8cb5             STW     .D2T1   A3,*+SP(16)       ; |152| 
    2196 00000656     63c6  ||         MV      .L1     A7,A3             ; |152| 
    2197 00000658 0200006a! ||         MVKH    .S2     $C$SL3+0,B4
    2198                    
    2199                            .dwpsn  file "./../packages/ti/vlib/src/VLIB_blockStatistics/VLIB_blockStatistics_d.c",line 15
    2200 00000660 01bca2f4             STW     .D2T1   A3,*+SP(20)       ; |152| 
TMS320C6x Assembler PC v7.4.2 Thu Mar 19 12:40:09 2015

Tools Copyright (c) 1996-2012 Texas Instruments Incorporated
package/lib/Regression/regress_d_c/./../packages/ti/vlib/src/VLIB_blockStatistics/VLIB_blockStatistics_d.se66 PAGE   41

    2201 00000664 023c22f6             STW     .D2T2   B4,*+SP(4)        ; |152| 
    2202 00000668 02bc62f4             STW     .D2T1   A5,*+SP(12)       ; |152| 
    2203                    
    2204 0000066c 053c42f5             STW     .D2T1   A10,*+SP(8)       ; |152| 
    2205 00000670 01880163  ||         ADDKPC  .S2     $C$RL26,B3,0      ; |152| 
    2206                    
    2207 00000680           $C$RL26:   ; CALL OCCURS {printf} {0}        ; |152| 
    2208 00000680           $C$DW$L$VLIB_blockStatistics_d$25$E:
    2209                    ;** --------------------------------------------------------------------------*
    2210 00000680           $C$DW$L$VLIB_blockStatistics_d$26$B:
    2211                    ;          EXCLUSIVE CPU CYCLES: 6
    2212                    
    2213 00000680 00208123             BNOP    .S2     $C$L10,4          ; |153| 
    2214 00000684 05282059  ||         ADD     .L1     1,A10,A10         ; |138| 
    2215 00000688 05800029  ||         ZERO    .S1     A11               ; |151| 
    2216 0000068c 003029c0  ||         SUB     .D1     A12,1,A0          ; |138| 
    2217                    
    2218                            .dwpsn  file "./../packages/ti/vlib/src/VLIB_blockStatistics/VLIB_blockStatistics_d.c",line 13
    2219 00000690 0633e058             SUB     .L1     A12,1,A12         ; |138| 
    2220                            .dwpsn  file "./../packages/ti/vlib/src/VLIB_blockStatistics/VLIB_blockStatistics_d.c",line 15
    2221                               ; BRANCH OCCURS {$C$L10}          ; |153| 
    2222                    $C$DW$L$VLIB_blockStatistics_d$26$E:
    2223                    ;** --------------------------------------------------------------------------*
    2224                    $C$L7:    
    2225                    $C$DW$L$VLIB_blockStatistics_d$27$B:
    2226                    ;          EXCLUSIVE CPU CYCLES: 6
    2227                    ;**     -----------------------g15:
    2228                    ;** 147 -----------------------    printf((const char *)"row:%d, col:%d, max_out:%u, max_EOut:%u \n", 
    2229                    ;** 146 -----------------------    status_nat_vs_int = 0;
    2230                    ;** 148 -----------------------    goto g17;
    2231                    $C$DW$217       .dwtag  DW_TAG_TI_branch
    2232                            .dwattr $C$DW$217, DW_AT_low_pc(0x00)
    2233                            .dwattr $C$DW$217, DW_AT_name("printf")
    2234                            .dwattr $C$DW$217, DW_AT_TI_call
    2235                    
    2236 00000694 00000011!            CALL    .S1     printf            ; |147| 
    2237 00000698 0200002b! ||         MVKL    .S2     $C$SL4+0,B4
    2238 0000069c 01a40fd8  ||         MV      .L1     A9,A3             ; |147| 
    2239                    
    2240 000006a0 0200006b!            MVKH    .S2     $C$SL4+0,B4
    2241 000006a4     8cb5  ||         STW     .D2T1   A3,*+SP(16)       ; |147| 
    2242 000006a6     6346  ||         MV      .L1     A6,A3             ; |147| 
    2243                    
    2244                            .dwpsn  file "./../packages/ti/vlib/src/VLIB_blockStatistics/VLIB_blockStatistics_d.c",line 14
    2245 000006a8     bc45             STW     .D2T2   B4,*+SP(4)        ; |147| 
    2246 000006aa     acb5             STW     .D2T1   A3,*+SP(20)       ; |147| 
    2247 000006ac 053c42f4             STW     .D2T1   A10,*+SP(8)       ; |147| 
    2248                    
    2249 000006b0 01880163             ADDKPC  .S2     $C$RL27,B3,0      ; |147| 
    2250 000006b4     ec55  ||         STW     .D2T1   A5,*+SP(12)       ; |147| 
    2251                    
    2252 000006c0           $C$RL27:   ; CALL OCCURS {printf} {0}        ; |147| 
    2253 000006c0           $C$DW$L$VLIB_blockStatistics_d$27$E:
    2254                    ;** --------------------------------------------------------------------------*
    2255 000006c0           $C$DW$L$VLIB_blockStatistics_d$28$B:
TMS320C6x Assembler PC v7.4.2 Thu Mar 19 12:40:09 2015

Tools Copyright (c) 1996-2012 Texas Instruments Incorporated
package/lib/Regression/regress_d_c/./../packages/ti/vlib/src/VLIB_blockStatistics/VLIB_blockStatistics_d.se66 PAGE   42

    2256                    ;          EXCLUSIVE CPU CYCLES: 6
    2257                    
    2258 000006c0 00000893             B       .S2     $C$L11            ; |148| 
    2259 000006c4 0033e059  ||         SUB     .L1     A12,1,A0          ; |138| 
    2260 000006c8 05800029  ||         ZERO    .S1     A11               ; |146| 
    2261 000006cc 05282940  ||         ADD     .D1     1,A10,A10         ; |138| 
    2262                    
    2263 000006d0 cf528121     [ A0]   BNOP    .S1     $C$L2,4           ; |138| 
    2264 000006d4 0633e058  ||         SUB     .L1     A12,1,A12         ; |138| 
    2265                    
    2266                            .dwpsn  file "./../packages/ti/vlib/src/VLIB_blockStatistics/VLIB_blockStatistics_d.c",line 14
    2267                               ; BRANCH OCCURS {$C$L11}          ; |148| 
    2268 000006d8           $C$DW$L$VLIB_blockStatistics_d$28$E:
    2269                    ;** --------------------------------------------------------------------------*
    2270 000006d8           $C$L8:    
    2271 000006d8           $C$DW$L$VLIB_blockStatistics_d$29$B:
    2272                    ;          EXCLUSIVE CPU CYCLES: 5
    2273                    ;**     -----------------------g16:
    2274                    ;** 142 -----------------------    printf((const char *)"row:%d, col:%d, min_out:%u, min_EOut:%u \n", 
    2275                    ;** 141 -----------------------    status_nat_vs_int = 0;
    2276                            .dwpsn  file "./../packages/ti/vlib/src/VLIB_blockStatistics/VLIB_blockStatistics_d.c",line 14
    2277 000006d8 023c22f6             STW     .D2T2   B4,*+SP(4)        ; |142| 
    2278 000006dc 0dbc82f6             STW     .D2T2   B27,*+SP(16)      ; |142| 
    2279 000006e0 0a3ca2f6             STW     .D2T2   B20,*+SP(20)      ; |142| 
    2280 000006e4 02bc62f4             STW     .D2T1   A5,*+SP(12)       ; |142| 
    2281                    
    2282 000006e8 053c42f5             STW     .D2T1   A10,*+SP(8)       ; |142| 
    2283 000006ec 01840162  ||         ADDKPC  .S2     $C$RL28,B3,0      ; |142| 
    2284                    
    2285 000006f0           $C$RL28:   ; CALL OCCURS {printf} {0}        ; |142| 
    2286 000006f0           $C$DW$L$VLIB_blockStatistics_d$29$E:
    2287                    ;** --------------------------------------------------------------------------*
    2288 000006f0           $C$DW$L$VLIB_blockStatistics_d$30$B:
    2289                    ;          EXCLUSIVE CPU CYCLES: 1
    2290                            .dwpsn  file "./../packages/ti/vlib/src/VLIB_blockStatistics/VLIB_blockStatistics_d.c",line 14
    2291 000006f0 0580a358             ZERO    .L1     A11               ; |141| 
    2292 000006f4           $C$DW$L$VLIB_blockStatistics_d$30$E:
    2293                    ;** --------------------------------------------------------------------------*
    2294 000006f4           $C$L9:    
    2295 000006f4           $C$DW$L$VLIB_blockStatistics_d$31$B:
    2296                    ;          EXCLUSIVE CPU CYCLES: 1
    2297                    
    2298 000006f4 0633e059             SUB     .L1     A12,1,A12         ; |138| 
    2299 000006f8 052821a1  ||         ADD     .S1     1,A10,A10         ; |138| 
    2300 000006fc 003029c0  ||         SUB     .D1     A12,1,A0          ; |138| 
    2301                    
    2302 00000700           $C$DW$L$VLIB_blockStatistics_d$31$E:
    2303                    ;** --------------------------------------------------------------------------*
    2304 00000700           $C$L10:    
    2305 00000700           $C$DW$L$VLIB_blockStatistics_d$32$B:
    2306                    ;          EXCLUSIVE CPU CYCLES: 5
    2307                            .dwpsn  file "./../packages/ti/vlib/src/VLIB_blockStatistics/VLIB_blockStatistics_d.c",line 13
    2308 00000700 ce848120     [ A0]   BNOP    .S1     $C$L2,4           ; |138| 
    2309 00000704           $C$DW$L$VLIB_blockStatistics_d$32$E:
    2310                    ;** --------------------------------------------------------------------------*
TMS320C6x Assembler PC v7.4.2 Thu Mar 19 12:40:09 2015

Tools Copyright (c) 1996-2012 Texas Instruments Incorporated
package/lib/Regression/regress_d_c/./../packages/ti/vlib/src/VLIB_blockStatistics/VLIB_blockStatistics_d.se66 PAGE   43

    2311 00000704           $C$L11:    
    2312                            .dwpsn  file "./../packages/ti/vlib/src/VLIB_blockStatistics/VLIB_blockStatistics_d.c",line 13
    2313 00000704           $C$DW$L$VLIB_blockStatistics_d$33$B:
    2314                    ;          EXCLUSIVE CPU CYCLES: 1
    2315                    ;**     -----------------------g17:
    2316                    ;** 138 -----------------------    ++i;
    2317                    ;** 138 -----------------------    if ( L$1 = L$1-1 ) goto g6;
    2318 00000704 003e02e4             LDW     .D2T1   *+SP(64),A0
    2319                            .dwpsn  file "./../packages/ti/vlib/src/VLIB_blockStatistics/VLIB_blockStatistics_d.c",line 13
    2320                               ; BRANCHCC OCCURS {$C$L2}         ; |138| 
    2321 00000708           $C$DW$L$VLIB_blockStatistics_d$33$E:
    2322                    ;** --------------------------------------------------------------------------*
    2323 00000708           $C$L12:    
    2324 00000708           $C$DW$L$VLIB_blockStatistics_d$34$B:
    2325                    ;          EXCLUSIVE CPU CYCLES: 17
    2326                    ;**     -----------------------g18:
    2327                    ;** 164 -----------------------    v$1 = prm;
    2328                    ;** 55  -----------------------    status_nat_vs_ref = 1;
    2329                    ;** 97  -----------------------    K$83 = &testPatternString[0];
    2330                    ;** 164 -----------------------    if ( !(((*U$12).staticOutMin != NULL)&((*U$12).staticOutMax != NULL
    2331                    
    2332 00000708 012c62e7             LDW     .D2T2   *+B11(12),B2      ; |164| 
    2333 0000070c     05a6  ||         ZERO    .L1     A3                ; |164| 
    2334 0000070e     0212  ||         ZERO    .S1     A4                ; |164| 
    2335 00000710     06a7  ||         ZERO    .L2     B5                ; |164| 
    2336 00000712     0213  ||         ZERO    .S2     B4                ; |164| 
    2337 00000714 06002040  ||         MVK     .D1     0x1,A12           ; |55| 
    2338                    
    2339 00000718 002c42e5             LDW     .D2T1   *+B11(8),A0       ; |164| 
    2340 00000720 0600002a! ||         MVKL    .S2     testPatternString,B12
    2341                    
    2342 00000724 00ac82e7             LDW     .D2T2   *+B11(16),B1      ; |164| 
    2343 00000728 0600006a! ||         MVKH    .S2     testPatternString,B12
    2344                    
    2345                            .dwpsn  file "./../packages/ti/vlib/src/VLIB_blockStatistics/VLIB_blockStatistics_d.c",line 16
    2346                    ;----------------------------------------------------------------------
    2347                    ; 164 | if((prm[tpi].staticOutMin != NULL) && (prm[tpi].staticOutMax != NULL) &
    2348                    ;     | & (prm[tpi].staticOutMean != NULL) && (prm[tpi].staticOutVar != NULL)) 
    2349                    ;     | {                                                                      
    2350                    ; 165 |     for( i=0; i < (outHeight); i++ ) {                                 
    2351                    ; 166 |         for( j=0; j < (outWidth); j++ ) {                              
    2352                    ; 167 |             if((prm[tpi].staticOutMin[i * outWidth + j] != min_cn[i * o
    2353                    ;     | utWidth + j])) {                                                       
    2354                    ; 168 |                 status_nat_vs_ref = vlib_KERNEL_FAIL;                  
    2355                    ; 169 |                 printf("row:%d, col:%d, min_out:%u, min_EOut:%u \n", i,
    2356                    ;     |  j, prm[tpi].staticOutMin[i * outWidth + j], min_cn[i * outWidth + j]);
    2357                    ; 170 |                 break;                                                 
    2358                    ; 172 |             if((prm[tpi].staticOutMax[i * outWidth + j] != max_cn[i * o
    2359                    ;     | utWidth + j])) {                                                       
    2360                    ; 173 |                 status_nat_vs_ref = vlib_KERNEL_FAIL;                  
    2361                    ; 174 |                 printf("row:%d, col:%d, max_out:%u, max_EOut:%u \n", i,
    2362                    ;     |  j, prm[tpi].staticOutMax[i * outWidth + j], max_cn[i * outWidth + j]);
    2363                    ; 175 |                 break;                                                 
    2364                    ; 177 |             if((prm[tpi].staticOutMean[i * outWidth + j] != mean_cn[i *
    2365                    ;     |  outWidth + j])) {                                                     
TMS320C6x Assembler PC v7.4.2 Thu Mar 19 12:40:09 2015

Tools Copyright (c) 1996-2012 Texas Instruments Incorporated
package/lib/Regression/regress_d_c/./../packages/ti/vlib/src/VLIB_blockStatistics/VLIB_blockStatistics_d.se66 PAGE   44

    2366                    ; 178 |                 status_nat_vs_ref = vlib_KERNEL_FAIL;                  
    2367                    ; 179 |                 printf("row:%d, col:%d, mean_out:%u, mean_EOut:%u \n",
    2368                    ;     | i, j, prm[tpi].staticOutMean[i * outWidth + j], mean_cn[i * outWidth + 
    2369                    ;     | j]);                                                                   
    2370                    ; 180 |                 break;                                                 
    2371                    ; 182 |             if((prm[tpi].staticOutVar[i * outWidth + j] != var_cn[i * o
    2372                    ;     | utWidth + j])) {                                                       
    2373                    ; 183 |                 status_nat_vs_ref = vlib_KERNEL_FAIL;                  
    2374                    ; 184 |                 printf("row:%d, col:%d, var_out:%u, var_EOut:%u \n", i,
    2375                    ;     |  j, prm[tpi].staticOutVar[i * outWidth + j], var_cn[i * outWidth + j]);
    2376                    ; 185 |                 break;                                                 
    2377                    ; 192 | fail = ((status_nat_vs_int == vlib_KERNEL_FAIL) || (status_nat_vs_ref =
    2378                    ;     | = vlib_KERNEL_FAIL)) ? 1 : 0;                                          
    2379                    ; 194 | est_test=1;                                                            
    2380                    ;----------------------------------------------------------------------
    2381 0000072c 002ca2e6             LDW     .D2T2   *+B11(20),B0      ; |164| 
    2382 00000730 07bd22e4             LDW     .D2T1   *+SP(36),A15      ; |164| 
    2383 00000734 6184a358     [ B2]   MVK     .L1     0x1,A3            ; |164| 
    2384                    
    2385 00000738     2a66     [ A0]   MVK     .L1     0x1,A4            ; |164| 
    2386 0000073a     ae0d  ||         LDW     .D2T1   *+SP(68),A0
    2387                    
    2388 00000740 01906f79             AND     .L1     A3,A4,A3          ; |164| 
    2389 00000744 4284a35a  || [ B1]   MVK     .L2     0x1,B5            ; |164| 
    2390                    
    2391 00000748 2204a35a     [ B0]   MVK     .L2     0x1,B4            ; |164| 
    2392                    
    2393 0000074c 028cbf7b             AND     .L2X    B5,A3,B5          ; |164| 
    2394 00000750 01b9e078  ||         ADD     .L1     A15,A14,A3        ; |197| 
    2395                    
    2396 00000754     8689             AND     .L2     B4,B5,B0          ; |164| 
    2397                    
    2398 00000758 320e0205     [!B0]   LDHU    .D1T1   *+A3(32),A4       ; |197| 
    2399 00000756     e866  || [!B0]   MVK     .L1     0x1,A0            ; nullify predicate
    2400 00000760 30007311  || [!B0]   B       .S1     $C$L24            ; |164| 
    2401 00000764 323e42e7  || [!B0]   LDW     .D2T2   *+SP(72),B4       ; |197| 
    2402 00000768 3280002a! || [!B0]   MVKL    .S2     $C$SL6+0,B5
    2403                    
    2404 0000076c d0006d11     [!A0]   B       .S1     $C$L23            ; |165| 
    2405 00000770 3300002b! || [!B0]   MVKL    .S2     est_test,B6
    2406 00000774 328e2205  || [!B0]   LDHU    .D1T1   *+A3(34),A5       ; |197| 
    2407 00000778 3384a358  || [!B0]   MVK     .L1     1,A7              ; |194| 
    2408                    
    2409 0000077c 3280006b!    [!B0]   MVKH    .S2     $C$SL6+0,B5
    2410 00000780 330dc204  || [!B0]   LDHU    .D1T1   *+A3(28),A6       ; |197| 
    2411                    
    2412                            .dwpsn  file "./../packages/ti/vlib/src/VLIB_blockStatistics/VLIB_blockStatistics_d.c",line 19
    2413                    ;----------------------------------------------------------------------
    2414                    ; 197 | sprintf(desc, "%s generated input | Opt and NatC results compared | ima
    2415                    ;     | geWidth= %d, imageHeight= %d, statBlockWidth= %d, statBlockHeight= %d, 
    2416                    ;     | mode = %d",                                                            
    2417                    ;----------------------------------------------------------------------
    2418 00000784 318da204     [!B0]   LDHU    .D1T1   *+A3(26),A3       ; |197| 
    2419 00000788 3300006a!    [!B0]   MVKH    .S2     est_test,B6
    2420                    
TMS320C6x Assembler PC v7.4.2 Thu Mar 19 12:40:09 2015

Tools Copyright (c) 1996-2012 Texas Instruments Incorporated
package/lib/Regression/regress_d_c/./../packages/ti/vlib/src/VLIB_blockStatistics/VLIB_blockStatistics_d.se66 PAGE   45

    2421 0000078c 323ca2f5     [!B0]   STW     .D2T1   A4,*+SP(20)       ; |197| 
    2422 00000790 02000028! ||         MVKL    .S1     desc,A4
    2423                    
    2424                            .dwpsn  file "./../packages/ti/vlib/src/VLIB_blockStatistics/VLIB_blockStatistics_d.c",line 16
    2425                               ; BRANCHCC OCCURS {$C$L24}        ; |164| 
    2426 00000794           $C$DW$L$VLIB_blockStatistics_d$34$E:
    2427                    ;** --------------------------------------------------------------------------*
    2428 00000794           $C$DW$L$VLIB_blockStatistics_d$35$B:
    2429                    ;          EXCLUSIVE CPU CYCLES: 1
    2430                    ;** 165 -----------------------    if ( !outHeight ) goto g33;
    2431                    
    2432 00000794 c500a359     [ A0]   ZERO    .L1     A10               ; |165| 
    2433 00000798 c5001fda  || [ A0]   MV      .L2X    A0,B10            ; |165| 
    2434                    
    2435                            .dwpsn  file "./../packages/ti/vlib/src/VLIB_blockStatistics/VLIB_blockStatistics_d.c",line 16
    2436                               ; BRANCHCC OCCURS {$C$L23}        ; |165| 
    2437 0000079c           $C$DW$L$VLIB_blockStatistics_d$35$E:
    2438                    ;** --------------------------------------------------------------------------*
    2439 0000079c           $C$DW$L$VLIB_blockStatistics_d$36$B:
    2440                    ;** 166 -----------------------    L$3 = (unsigned)outHeight;
    2441                    ;** 165 -----------------------    i = 0u;
    2442                    ;**     -----------------------    #pragma MUST_ITERATE(1, 65535, 1)
    2443                    ;**     -----------------------    #pragma LOOP_FLAGS(5120u)
    2444 0000079c           $C$DW$L$VLIB_blockStatistics_d$36$E:
    2445                    ;** --------------------------------------------------------------------------*
    2446 0000079c           $C$DW$L$VLIB_blockStatistics_d$37$B:
    2447                    ;          EXCLUSIVE CPU CYCLES: 1
    2448 0000079c 003e02e4             LDW     .D2T1   *+SP(64),A0
    2449 000007a0           $C$DW$L$VLIB_blockStatistics_d$37$E:
    2450                    ;** --------------------------------------------------------------------------*
    2451                    ;**   BEGIN LOOP $C$L13
    2452                    ;** --------------------------------------------------------------------------*
    2453 000007a0           $C$L13:    
    2454                            .dwpsn  file "./../packages/ti/vlib/src/VLIB_blockStatistics/VLIB_blockStatistics_d.c",line 16
    2455 000007a0           $C$DW$L$VLIB_blockStatistics_d$38$B:
    2456                    ;          EXCLUSIVE CPU CYCLES: 10
    2457                    ;**     -----------------------g21:
    2458                    ;** 166 -----------------------    if ( !outWidth ) goto g32;
    2459 000007a0 0fb4aca0             SHL     .S1     A13,5,A31
    2460 000007a4     4c6e             NOP             3
    2461                    
    2462 000007a6     6046             MV      .L1     A0,A3
    2463 000007a8 d0006293  || [!A0]   B       .S2     $C$L20            ; |166| 
    2464 000007ac c3ffffa9  || [ A0]   MVK     .S1     0xffffffff,A7     ; |166| 
    2465 000007b0 cc3f22e7  || [ A0]   LDW     .D2T2   *+SP(100),B24
    2466 000007b4 ccbdc840  || [ A0]   ADD     .D1     A15,A14,A25
    2467                    
    2468 000007b8 0b0d4801             MPY32   .M1     A10,A3,A22
    2469 000007c0 01fdbc40  ||         ADDAW   .D1     A31,A13,A3
    2470                    
    2471 000007c4 018de078             ADD     .L1     A15,A3,A3
    2472 000007c8 cd8c4266     [ A0]   LDW     .D1T2   *+A3(8),B27
    2473 000007cc cbbf42e6     [ A0]   LDW     .D2T2   *+SP(104),B23
    2474                            .dwpsn  file "./../packages/ti/vlib/src/VLIB_blockStatistics/VLIB_blockStatistics_d.c",line 16
    2475 000007d0 c31c2059     [ A0]   ADD     .L1     1,A7,A6           ; |167| 
TMS320C6x Assembler PC v7.4.2 Thu Mar 19 12:40:09 2015

Tools Copyright (c) 1996-2012 Texas Instruments Incorporated
package/lib/Regression/regress_d_c/./../packages/ti/vlib/src/VLIB_blockStatistics/VLIB_blockStatistics_d.se66 PAGE   46

    2476                            .dwpsn  file "./../packages/ti/vlib/src/VLIB_blockStatistics/VLIB_blockStatistics_d.c",line 16
    2477                               ; BRANCHCC OCCURS {$C$L20}        ; |166| 
    2478 000007e0           $C$DW$L$VLIB_blockStatistics_d$38$E:
    2479                    ;** --------------------------------------------------------------------------*
    2480 000007e0           $C$DW$L$VLIB_blockStatistics_d$39$B:
    2481                    ;          EXCLUSIVE CPU CYCLES: 11
    2482                    ;**     -----------------------    U$117 = outWidth*i;
    2483                    ;**     -----------------------    U$118 = U$117;
    2484                    ;**     -----------------------    U$182 = U$11+v$1;
    2485                    ;**     -----------------------    U$184 = (v$1[tpi]).staticOutMin;
    2486                    ;** 167 -----------------------    L$4 = (unsigned)outWidth;
    2487                    ;** 166 -----------------------    j = 0xffffffffu;
    2488                    ;**     -----------------------    #pragma MUST_ITERATE(1, 65535, 1)
    2489                    ;**     -----------------------    #pragma LOOP_FLAGS(4352u)
    2490                    ;**     -----------------------g23:
    2491                    ;** 167 -----------------------    C$13 = j+1u;
    2492                    ;** 167 -----------------------    C$17 = (int)C$13+U$118;
    2493                    ;** 167 -----------------------    U$123 = min_cn[C$17];
    2494                    ;** 167 -----------------------    U$186 = U$184[C$17];
    2495                    ;** 167 -----------------------    f$10 = (U$186 != U$123)-1;
    2496                    ;** 172 -----------------------    U$129 = (unsigned char)(A$36 = max_cn[C$17] , f$10 ? A$36 : U$129);
    2497                    ;** 172 -----------------------    U$191 = (unsigned char)(A$37 = *((*U$182).staticOutMax+C$17) , f$10
    2498                    ;** 172 -----------------------    f$9 = (U$191 != U$129)-1;
    2499                    ;** 177 -----------------------    C$15 = (int)U$117+C$13;
    2500                    ;** 177 -----------------------    C$16 = f$9&f$10;
    2501                    ;** 177 -----------------------    U$138 = (unsigned short)(A$38 = mean_cn[C$15] , C$16 ? A$38 : U$138
    2502                    ;** 177 -----------------------    U$196 = (unsigned short)(A$39 = *(C$15*2+(*U$182).staticOutMean) , 
    2503                    ;** 177 -----------------------    f$8 = (U$196 != U$138)-1;
    2504                    ;** 182 -----------------------    C$14 = f$8&f$9&f$10;
    2505                    ;** 182 -----------------------    U$147 = (A$40 = var_cn[C$15] , C$14 ? A$40 : U$147);
    2506                    ;** 182 -----------------------    U$201 = (A$41 = *(C$15*4+(*U$182).staticOutVar) , C$14 ? A$41 : U$2
    2507                    ;** 182 -----------------------    f$7 = (U$201 != U$147)-1;
    2508                    ;** 166 -----------------------    j = C$13;
    2509                    ;** 166 -----------------------    L$4 = L$4-1;
    2510                    ;** 166 -----------------------    if ( L$4&f$7&f$8&f$9&f$10 ) goto g23;
    2511                    ;**     -----------------------    if ( !f$10 ) goto g31;
    2512                    
    2513 000007e0 02646267             LDW     .D1T2   *+A25(12),B4      ; |172| (P) <0,2> 
    2514 000007e4     db47  ||         MV      .L2X    A22,B22
    2515 000007e6     8ffd  ||         LDW     .D2T1   *+SP(112),A23
    2516 000007e8 0084a359  ||         MVK     .L1     0x1,A1
    2517 000007ec 02d8c1e1  ||         ADD     .S1     A6,A22,A5         ; |177| (P) <0,3> 
    2518 000007f0 04b406a2  ||         MV      .S2     B13,B9
    2519                    
    2520 000007f4 089ad07b             ADD     .L2X    B22,A6,B17        ; |167| (P) <0,3> 
    2521 000007f8 0f64a265  ||         LDW     .D1T1   *+A25(20),A30     ; |182| (P) <0,0> 
    2522 00000800 028021ee  ||         LDW     .D2T2   *+SP(132),B5
    2523                    
    2524 00000804 02648265             LDW     .D1T1   *+A25(16),A4      ; |177| (P) <0,3> 
    2525 00000808 0d476a97  ||         LDBU    .D2T2   *+B17[B27],B26    ; |167| (P) <0,4>  ^ 
    2526 0000080c     3c47  ||         MV      .L2X    A0,B25
    2527 0000080e     00c6  ||         MV      .L1     A1,A0
    2528                    
    2529                            .dwpsn  file "./../packages/ti/vlib/src/VLIB_blockStatistics/VLIB_blockStatistics_d.c",line 16
    2530 00000810 0ac70a96             LDBU    .D2T2   *+B17[B24],B21    ; |167| (P) <0,5>  ^ 
TMS320C6x Assembler PC v7.4.2 Thu Mar 19 12:40:09 2015

Tools Copyright (c) 1996-2012 Texas Instruments Incorporated
package/lib/Regression/regress_d_c/./../packages/ti/vlib/src/VLIB_blockStatistics/VLIB_blockStatistics_d.se66 PAGE   47

    2531                            .dwpsn  file "./../packages/ti/vlib/src/VLIB_blockStatistics/VLIB_blockStatistics_d.c",line 17
    2532 00000814 8fc6ea96     [ A1]   LDBU    .D2T2   *+B17[B23],B31    ; |172| (P) <0,6> 
    2533                    
    2534 00000820 03bde2e6             LDW     .D2T2   *+SP(60),B7
    2535 00000818 0ddcaa65  ||         LDW     .D1T1   *+A23[A5],A27     ; |182| (P) <0,4> 
    2536                    
    2537 00000824 8f122a97     [ A1]   LDBU    .D2T2   *+B4[B17],B30     ; |172| (P) <0,7> 
    2538 00000828 0d78aa64  ||         LDW     .D1T1   *+A30[A5],A26     ; |182| (P) <0,5> 
    2539                    
    2540 0000082c 0c3f62e5             LDW     .D2T1   *+SP(108),A24
    2541 00000830 8e10aa06  || [ A1]   LDHU    .D1T2   *+A4[A5],B28      ; |177| (P) <0,8> 
    2542                    
    2543 00000834 083da2e6             LDW     .D2T2   *+SP(52),B16
    2544 00000838 033fe2e6             LDW     .D2T2   *+SP(124),B6
    2545 0000083c 043dc2e6             LDW     .D2T2   *+SP(56),B8
    2546 00000840           $C$DW$L$VLIB_blockStatistics_d$39$E:
    2547                    ;*----------------------------------------------------------------------------*
    2548                    ;*   SOFTWARE PIPELINE INFORMATION
    2549                    ;*
    2550                    ;*      Loop found in file               : ./../packages/ti/vlib/src/VLIB_blockStatistics/VLIB_blockSt
    2551                    ;*      Loop source line                 : 166
    2552                    ;*      Loop opening brace source line   : 166
    2553                    ;*      Loop closing brace source line   : 187
    2554                    ;*      Known Minimum Trip Count         : 1                    
    2555                    ;*      Known Maximum Trip Count         : 65535                    
    2556                    ;*      Known Max Trip Count Factor      : 1
    2557                    ;*      Loop Carried Dependency Bound(^) : 26
    2558                    ;*      Unpartitioned Resource Bound     : 12
    2559                    ;*      Partitioned Resource Bound(*)    : 16
    2560                    ;*      Resource Partition:
    2561                    ;*                                A-side   B-side
    2562                    ;*      .L units                     0        4     
    2563                    ;*      .S units                     1        8     
    2564                    ;*      .D units                     7        4     
    2565                    ;*      .M units                     0        0     
    2566                    ;*      .X cross paths               8        3     
    2567                    ;*      .T address paths             4        7     
    2568                    ;*      Long read paths              0        0     
    2569                    ;*      Long write paths             0        0     
    2570                    ;*      Logical  ops (.LS)           0        0     (.L or .S unit)
    2571                    ;*      Addition ops (.LSD)         16       30     (.L or .S or .D unit)
    2572                    ;*      Bound(.L .S .LS)             1        6     
    2573                    ;*      Bound(.L .S .D .LS .LSD)     8       16*    
    2574                    ;*
    2575                    ;*      Searching for software pipeline schedule at ...
    2576                    ;*         ii = 26 Did not find schedule
    2577                    ;*         ii = 27 Did not find schedule
    2578                    ;*         ii = 28 Did not find schedule
    2579                    ;*         ii = 29 Did not find schedule
    2580                    ;*         ii = 30 Schedule found with 2 iterations in parallel
    2581                    ;*
    2582                    ;*      Register Usage Table:
    2583                    ;*          +-----------------------------------------------------------------+
    2584                    ;*          |AAAAAAAAAAAAAAAAAAAAAAAAAAAAAAAA|BBBBBBBBBBBBBBBBBBBBBBBBBBBBBBBB|
    2585                    ;*          |00000000001111111111222222222233|00000000001111111111222222222233|
TMS320C6x Assembler PC v7.4.2 Thu Mar 19 12:40:09 2015

Tools Copyright (c) 1996-2012 Texas Instruments Incorporated
package/lib/Regression/regress_d_c/./../packages/ti/vlib/src/VLIB_blockStatistics/VLIB_blockStatistics_d.se66 PAGE   48

    2586                    ;*          |01234567890123456789012345678901|01234567890123456789012345678901|
    2587                    ;*          |--------------------------------+--------------------------------|
    2588                    ;*       0: |**   *****      ************    |     *****      *  *************|
    2589                    ;*       1: |**   *****      ************    |    ******      *  *************|
    2590                    ;*       2: |**   *****      ************    |*    *****      *  *************|
    2591                    ;*       3: |**   *****      ************    |*   *** **      *  *************|
    2592                    ;*       4: |**    ****      ************    |*   ******      *  *************|
    2593                    ;*       5: |**    ****      ************    |*   ******      ** *************|
    2594                    ;*       6: |**    ****      ************    |*   ******      ****************|
    2595                    ;*       7: |**    ****      ************    |* * ******      *  *************|
    2596                    ;*       8: |**    ****      ************    |*** ******      *  *************|
    2597                    ;*       9: |**    ****      ************    |*** ******      ** *************|
    2598                    ;*      10: |**    ****      ************    |* * ******      *  *************|
    2599                    ;*      11: |**    ****      ************    |* * ******      * **************|
    2600                    ;*      12: |**    ****      ************    |* * ******      ****************|
    2601                    ;*      13: |**    ****      ************    |*** ******      *  *************|
    2602                    ;*      14: |**    ****      ************    |*** ******      ** *************|
    2603                    ;*      15: |**    ****      ************    |*** ******      *  *************|
    2604                    ;*      16: |**    ****      ************    |*** *****       * **************|
    2605                    ;*      17: |**    ****      ************    | ** ******      * **************|
    2606                    ;*      18: |** *  ****      ************    | ** ******      ****************|
    2607                    ;*      19: |** *  ****      ************    | ** ******      * **************|
    2608                    ;*      20: |**    ****      ************    | ** ******      ****************|
    2609                    ;*      21: | * **  ***      ************    |  * ******      ** *************|
    2610                    ;*      22: | * *  ****      ************    |    ******      ** *************|
    2611                    ;*      23: | * *  ****      ************    |*   ******      *  *************|
    2612                    ;*      24: | * *******      ************    |    ******      ** *************|
    2613                    ;*      25: | * *******      ************    |    ******      ** *************|
    2614                    ;*      26: | *  ******      ************    |    ******      ** *************|
    2615                    ;*      27: | *  ******      ************    |    ******      ** *************|
    2616                    ;*      28: | *  ******      ************    |     *****      *  *************|
    2617                    ;*      29: | *   *****      ************    |     *****      *  *************|
    2618                    ;*          +-----------------------------------------------------------------+
    2619                    ;*
    2620                    ;*      Done
    2621                    ;*
    2622                    ;*      Loop is interruptible
    2623                    ;*      Collapsed epilog stages       : 1
    2624                    ;*      Prolog not removed
    2625                    ;*      Collapsed prolog stages       : 0
    2626                    ;*
    2627                    ;*      Minimum required memory pad   : 0 bytes
    2628                    ;*
    2629                    ;*      Minimum safe trip count       : 1
    2630                    ;*      Min. prof. trip count  (est.) : 2
    2631                    ;*
    2632                    ;*      Mem bank conflicts/iter(est.) : { min 0.000, est 0.250, max 2.000 }
    2633                    ;*      Mem bank perf. penalty (est.) : 0.8%
    2634                    ;*
    2635                    ;*      Effective ii                : { min 30.00, est 30.25, max 32.00 }
    2636                    ;*
    2637                    ;*
    2638                    ;*      Total cycles (est.)         : 10 + trip_cnt * 30        
    2639                    ;*----------------------------------------------------------------------------*
    2640                    ;*       SETUP CODE
TMS320C6x Assembler PC v7.4.2 Thu Mar 19 12:40:09 2015

Tools Copyright (c) 1996-2012 Texas Instruments Incorporated
package/lib/Regression/regress_d_c/./../packages/ti/vlib/src/VLIB_blockStatistics/VLIB_blockStatistics_d.se66 PAGE   49

    2641                    ;*
    2642                    ;*                  MVK             0x1,A1
    2643                    ;*                  MV              A3,B16
    2644                    ;*                  MV              A3,B9
    2645                    ;*                  MV              B18,B8
    2646                    ;*                  MV              B17,B7
    2647                    ;*                  MV              B8,B6
    2648                    ;*                  MV              B7,B5
    2649                    ;*                  MV              A1,A0
    2650                    ;*
    2651                    ;*        SINGLE SCHEDULED ITERATION
    2652                    ;*
    2653                    ;*        $C$C205:
    2654                    ;*   0              LDW     .D1T1   *+A25(20),A3      ; |182| 
    2655                    ;*   1              ADD     .S1     1,A4,A6           ; |167| 
    2656                    ;*   2              LDW     .D1T2   *+A25(12),B4      ; |172| 
    2657                    ;*   3              ADD     .L2X    B22,A6,B17        ; |167| 
    2658                    ;*     ||           ADD     .L1     A6,A22,A5         ; |177| 
    2659                    ;*     ||           LDW     .D1T1   *+A25(16),A4      ; |177| 
    2660                    ;*   4      [ A1]   LDBU    .D2T2   *+B17[B27],B26    ; |167|  ^ 
    2661                    ;*     ||   [ A1]   LDW     .D1T1   *+A23[A5],A27     ; |182| 
    2662                    ;*   5      [ A1]   LDBU    .D2T2   *+B17[B24],B21    ; |167|  ^ 
    2663                    ;*     ||   [ A1]   LDW     .D1T1   *+A3[A5],A26      ; |182| 
    2664                    ;*   6      [ A1]   LDBU    .D2T2   *+B17[B23],B31    ; |172| 
    2665                    ;*   7      [ A1]   LDBU    .D2T2   *+B4[B17],B30     ; |172| 
    2666                    ;*   8      [ A1]   LDHU    .D1T2   *+A4[A5],B28      ; |177| 
    2667                    ;*   9              NOP             1
    2668                    ;*  10              CMPEQ   .L2     B26,B21,B4        ; |167|  ^ 
    2669                    ;*  11              EXT     .S2     B4,31,31,B0       ; |167|  ^ 
    2670                    ;*  12      [ B0]   MV      .D2     B31,B4            ; |172|  ^ 
    2671                    ;*     ||   [!B0]   MV      .S2     B5,B4             ; |172|  ^ 
    2672                    ;*     ||   [!B0]   MV      .L2     B7,B5             ; |172|  ^ 
    2673                    ;*  13              MV      .L2     B0,B4             ; |167| Split a long life(pre-sched)
    2674                    ;*     ||           EXTU    .S2     B4,24,24,B7       ; |172|  ^ 
    2675                    ;*     ||   [ B0]   MV      .D2     B30,B5            ; |172|  ^ 
    2676                    ;*     ||   [ A1]   LDHU    .D1T2   *+A24[A5],B29     ; |177| 
    2677                    ;*     ||   [ A1]   MV      .L1X    B0,A20            ; |166| 
    2678                    ;*  14              MV      .L2     B7,B5             ; |172| Split a long life(pre-sched)
    2679                    ;*     ||           EXTU    .S2     B5,24,24,B17      ; |172|  ^ 
    2680                    ;*  15              MV      .S2     B17,B7            ; |172| Split a long life(pre-sched)
    2681                    ;*     ||           CMPEQ   .L2     B17,B7,B18        ; |172|  ^ 
    2682                    ;*     ||   [ A1]   MV      .L1X    B7,A8             ; |166| 
    2683                    ;*  16              EXT     .S2     B18,31,31,B2      ; |172|  ^ 
    2684                    ;*     ||   [ A1]   MV      .L1X    B17,A17           ; |166| 
    2685                    ;*  17              AND     .S2     B0,B2,B1          ; |177|  ^ 
    2686                    ;*     ||   [ A1]   MV      .L2     B2,B19            ; |166| 
    2687                    ;*  18      [ B1]   MV      .S2     B29,B17           ; |177|  ^ 
    2688                    ;*     ||   [!B1]   MV      .L2     B6,B17            ; |177|  ^ 
    2689                    ;*     ||   [ B1]   MV      .D2     B28,B6            ; |177|  ^ 
    2690                    ;*  19              EXTU    .S2     B17,16,16,B8      ; |177|  ^ 
    2691                    ;*     ||   [!B1]   MV      .L2     B8,B6             ; |177|  ^ 
    2692                    ;*  20              MV      .L2     B8,B6             ; |177| Split a long life(pre-sched)
    2693                    ;*     ||           EXTU    .S2     B6,16,16,B18      ; |177|  ^ 
    2694                    ;*  21              MV      .S2     B18,B8            ; |177| Split a long life(pre-sched)
    2695                    ;*     ||           CMPEQ   .L2     B18,B8,B17        ; |177|  ^ 
TMS320C6x Assembler PC v7.4.2 Thu Mar 19 12:40:09 2015

Tools Copyright (c) 1996-2012 Texas Instruments Incorporated
package/lib/Regression/regress_d_c/./../packages/ti/vlib/src/VLIB_blockStatistics/VLIB_blockStatistics_d.se66 PAGE   50

    2696                    ;*     ||   [ A1]   MV      .L1X    B8,A9             ; |166| 
    2697                    ;*  22              EXT     .S2     B17,31,31,B1      ; |177|  ^ 
    2698                    ;*     ||   [ A1]   MV      .L1X    B18,A18           ; |166| 
    2699                    ;*  23              AND     .S2     B2,B1,B17         ; |182|  ^ 
    2700                    ;*     ||   [ A0]   MV      .L2     B1,B20            ; |166| 
    2701                    ;*  24              AND     .L2     B0,B17,B0         ; |182|  ^ 
    2702                    ;*  25      [ B0]   MV      .D2X    A27,B16           ; |182|  ^ 
    2703                    ;*     ||   [!B0]   MV      .S2     B9,B16            ; |182|  ^ 
    2704                    ;*     ||   [!B0]   MV      .L2     B16,B18           ; |182|  ^ 
    2705                    ;*  26      [ B0]   MV      .S2X    A26,B18           ; |182|  ^ 
    2706                    ;*     ||           MV      .L2     B16,B9            ; |182| Define a twin register
    2707                    ;*  27              MV      .L1X    B16,A3            ; |182| 
    2708                    ;*     ||           CMPEQ   .L2     B18,B16,B17       ; |182|  ^ 
    2709                    ;*     ||           MV      .S2     B18,B16           ; |182| Define a twin register
    2710                    ;*  28              MV      .S1X    B18,A3            ; |182| 
    2711                    ;*     ||           EXT     .S2     B17,31,31,B18     ; |182|  ^ 
    2712                    ;*     ||           SUB     .L2     B25,1,B25         ; |166| 
    2713                    ;*     ||   [ A0]   MV      .L1     A3,A16            ; |166| 
    2714                    ;*  29              AND     .L2     B18,B25,B17       ; |166|  ^ 
    2715                    ;*     ||   [ A0]   MV      .L1     A3,A19            ; |166| 
    2716                    ;*  30              MV      .L1     A6,A4             ; |166| 
    2717                    ;*     ||           AND     .L2     B1,B17,B17        ; |166|  ^ 
    2718                    ;*     ||   [ A0]   MV      .S1X    B18,A21           ; |166| 
    2719                    ;*  31              AND     .L2     B2,B17,B17        ; |166|  ^ 
    2720                    ;*     ||   [ A1]   MV      .L1     A4,A7             ; |166| 
    2721                    ;*  32              AND     .L2     B4,B17,B0         ; |166|  ^ 
    2722                    ;*  33      [!B0]   ZERO    .S1     A1                ; |166|  ^ 
    2723                    ;*  34      [ A1]   B       .S1     $C$C205           ; |166| 
    2724                    ;*  35              NOP             4
    2725                    ;*  39              MV      .L1     A1,A0             ; |166| Split a long life(pre-sched)
    2726                    ;*  40              ; BRANCHCC OCCURS {$C$C205}       ; |166| 
    2727                    ;*
    2728                    ;*       RESTORE CODE
    2729                    ;*
    2730                    ;*                  MV              A7,A4
    2731                    ;*                  MV              A8,B7
    2732                    ;*                  MV              A9,B8
    2733                    ;*                  MV              A16,A3
    2734                    ;*                  MV              A17,B17
    2735                    ;*                  MV              A18,B18
    2736                    ;*                  MV              A19,A3
    2737                    ;*----------------------------------------------------------------------------*
    2738 00000840           $C$L14:    ; PIPED LOOP PROLOG
    2739                    ;** --------------------------------------------------------------------------*
    2740 00000840           $C$L15:    ; PIPED LOOP KERNEL
    2741                            .dwpsn  file "./../packages/ti/vlib/src/VLIB_blockStatistics/VLIB_blockStatistics_d.c",line 16
    2742 00000840           $C$DW$L$VLIB_blockStatistics_d$41$B:
    2743                    ;          EXCLUSIVE CPU CYCLES: 30
    2744                            .dwpsn  file "./../packages/ti/vlib/src/VLIB_blockStatistics/VLIB_blockStatistics_d.c",line 16
    2745 00000840 02574a7a             CMPEQ   .L2     B26,B21,B4        ; |167| <0,10>  ^ 
    2746 00000844 0013ff4a             EXT     .S2     B4,31,31,B0       ; |167| <0,11>  ^ 
    2747                    
    2748 00000848 329c0fdb     [!B0]   MV      .L2     B7,B5             ; |172| <0,12>  ^ 
    2749 0000084c 321406a3  || [!B0]   MV      .S2     B5,B4             ; |172| <0,12>  ^ 
    2750 00000850 227c08f2  || [ B0]   MV      .D2     B31,B4            ; |172| <0,12>  ^ 
TMS320C6x Assembler PC v7.4.2 Thu Mar 19 12:40:09 2015

Tools Copyright (c) 1996-2012 Texas Instruments Incorporated
package/lib/Regression/regress_d_c/./../packages/ti/vlib/src/VLIB_blockStatistics/VLIB_blockStatistics_d.se66 PAGE   51

    2751                    
    2752 00000854 8a001fd9     [ A1]   MV      .L1X    B0,A20            ; |166| <0,13> 
    2753 00000858     8047  ||         MV      .L2     B0,B4             ; |167| <0,13> Split a long life(pre-sched)
    2754 00000860 8ee0aa07  || [ A1]   LDHU    .D1T2   *+A24[A5],B29     ; |177| <0,13> 
    2755 0000085a     fa63  ||         EXTU    .S2     B4,24,24,B7       ; |172| <0,13>  ^ 
    2756 00000864 22f808f2  || [ B0]   MV      .D2     B30,B5            ; |172| <0,13>  ^ 
    2757                    
    2758 0000086c     a3c7             MV      .L2     B7,B5             ; |172| <0,14> Split a long life(pre-sched)
    2759 00000868 0897180b  ||         EXTU    .S2     B5,24,24,B17      ; |172| <0,14>  ^ 
    2760                    
    2761 0000086e     e88f             MV      .S2     B17,B7            ; |172| <0,15> Split a long life(pre-sched)
    2762 00000870 841c1fd9  || [ A1]   MV      .L1X    B7,A8             ; |166| <0,15> 
    2763 00000874 091e2a7a  ||         CMPEQ   .L2     B17,B7,B18        ; |172| <0,15>  ^ 
    2764                    
    2765 00000878 88c41fd9     [ A1]   MV      .L1X    B17,A17           ; |166| <0,16> 
    2766 00000880 014bff4a  ||         EXT     .S2     B18,31,31,B2      ; |172| <0,16>  ^ 
    2767                    
    2768 00000884 89880fdb     [ A1]   MV      .L2     B2,B19            ; |166| <0,17> 
    2769 00000888 008807e2  ||         AND     .S2     B0,B2,B1          ; |177| <0,17>  ^ 
    2770                    
    2771 0000088c 58980fdb     [!B1]   MV      .L2     B6,B17            ; |177| <0,18>  ^ 
    2772 00000890 48f406a3  || [ B1]   MV      .S2     B29,B17           ; |177| <0,18>  ^ 
    2773 00000894 437008f2  || [ B1]   MV      .D2     B28,B6            ; |177| <0,18>  ^ 
    2774                    
    2775 00000898 0446100b             EXTU    .S2     B17,16,16,B8      ; |177| <0,19>  ^ 
    2776 0000089c 53200fda  || [!B1]   MV      .L2     B8,B6             ; |177| <0,19>  ^ 
    2777                    
    2778 000008a0 03200fdb             MV      .L2     B8,B6             ; |177| <0,20> Split a long life(pre-sched)
    2779 000008a4 091a100a  ||         EXTU    .S2     B6,16,16,B18      ; |177| <0,20>  ^ 
    2780                    
    2781 000008a8 044806a3             MV      .S2     B18,B8            ; |177| <0,21> Split a long life(pre-sched)
    2782 000008ac 84a01fd9  || [ A1]   MV      .L1X    B8,A9             ; |166| <0,21> 
    2783 000008b0 08a24a7a  ||         CMPEQ   .L2     B18,B8,B17        ; |177| <0,21>  ^ 
    2784                    
    2785 000008b4 89481fd9     [ A1]   MV      .L1X    B18,A18           ; |166| <0,22> 
    2786 000008b8 00c7ff4a  ||         EXT     .S2     B17,31,31,B1      ; |177| <0,22>  ^ 
    2787                    
    2788 000008bc ca040fdb     [ A0]   MV      .L2     B1,B20            ; |166| <0,23> 
    2789 000008c0 088447e2  ||         AND     .S2     B2,B1,B17         ; |182| <0,23>  ^ 
    2790                    
    2791                            .dwpsn  file "./../packages/ti/vlib/src/VLIB_blockStatistics/VLIB_blockStatistics_d.c",line 18
    2792 000008c4 00440f7a             AND     .L2     B0,B17,B0         ; |182| <0,24>  ^ 
    2793                    
    2794 000008c8 39400fdb     [!B0]   MV      .L2     B16,B18           ; |182| <0,25>  ^ 
    2795 000008cc 382406a3  || [!B0]   MV      .S2     B9,B16            ; |182| <0,25>  ^ 
    2796 000008d0 286c18f2  || [ B0]   MV      .D2X    A27,B16           ; |182| <0,25>  ^ 
    2797                    
    2798 000008d8     2447             MV      .L2     B16,B9            ; |182| <0,26> Define a twin register
    2799 000008d4 296816a3  || [ B0]   MV      .S2X    A26,B18           ; |182| <0,26>  ^ 
    2800                    
    2801 000008da     094f             MV      .S2     B18,B16           ; |182| <0,27> Define a twin register
    2802 000008e4     7806  ||         MV      .L1X    B16,A3            ; |182| <0,27> 
    2803 000008e0 08c24a7b  ||         CMPEQ   .L2     B18,B16,B17       ; |182| <0,27>  ^ 
    2804                    
    2805 000008ec 0ce7e05b             SUB     .L2     B25,1,B25         ; |166| <0,28> 
TMS320C6x Assembler PC v7.4.2 Thu Mar 19 12:40:09 2015

Tools Copyright (c) 1996-2012 Texas Instruments Incorporated
package/lib/Regression/regress_d_c/./../packages/ti/vlib/src/VLIB_blockStatistics/VLIB_blockStatistics_d.se66 PAGE   52

    2806 000008e8 c80c0fd9  || [ A0]   MV      .L1     A3,A16            ; |166| <0,28> 
    2807 000008e6     790e  ||         MV      .S1X    B18,A3            ; |182| <0,28> 
    2808 000008f0 0947ff4a  ||         EXT     .S2     B17,31,31,B18     ; |182| <0,28>  ^ 
    2809                    
    2810 000008f4 c98c0fd9     [ A0]   MV      .L1     A3,A19            ; |166| <0,29> 
    2811 000008f8 08e64f7a  ||         AND     .L2     B18,B25,B17       ; |166| <0,29>  ^ 
    2812                    
    2813 00000900 02180fd9             MV      .L1     A6,A4             ; |166| <0,30> 
    2814 00000904 cac816a1  || [ A0]   MV      .S1X    B18,A21           ; |166| <0,30> 
    2815 00000908 08c42f7b  ||         AND     .L2     B1,B17,B17        ; |166| <0,30>  ^ 
    2816 0000090c 01e4a264  ||         LDW     .D1T1   *+A25(20),A3      ; |182| <1,0> 
    2817                    
    2818 00000910 83900fd9     [ A1]   MV      .L1     A4,A7             ; |166| <0,31> 
    2819 00000914 08c44f7b  ||         AND     .L2     B2,B17,B17        ; |166| <0,31>  ^ 
    2820 00000918 031021a0  ||         ADD     .S1     1,A4,A6           ; |167| <1,1> 
    2821                    
    2822 0000091c 00448f7b             AND     .L2     B4,B17,B0         ; |166| <0,32>  ^ 
    2823 00000920 02646266  ||         LDW     .D1T2   *+A25(12),B4      ; |172| <1,2> 
    2824                    
    2825 00000924 30800029     [!B0]   ZERO    .S1     A1                ; |166| <0,33>  ^ 
    2826 00000928 02648265  ||         LDW     .D1T1   *+A25(16),A4      ; |177| <1,3> 
    2827 0000092c 089ad07b  ||         ADD     .L2X    B22,A6,B17        ; |167| <1,3> 
    2828 00000930 02d8c078  ||         ADD     .L1     A6,A22,A5         ; |177| <1,3> 
    2829                    
    2830 00000934 8fffe411     [ A1]   B       .S1     $C$L15            ; |166| <0,34> 
    2831 00000938 8ddcaa65  || [ A1]   LDW     .D1T1   *+A23[A5],A27     ; |182| <1,4> 
    2832 0000093c 8d476a96  || [ A1]   LDBU    .D2T2   *+B17[B27],B26    ; |167| <1,4>  ^ 
    2833                    
    2834 00000940 8d0caa65     [ A1]   LDW     .D1T1   *+A3[A5],A26      ; |182| <1,5> 
    2835 00000944 8ac70a96  || [ A1]   LDBU    .D2T2   *+B17[B24],B21    ; |167| <1,5>  ^ 
    2836                    
    2837                            .dwpsn  file "./../packages/ti/vlib/src/VLIB_blockStatistics/VLIB_blockStatistics_d.c",line 17
    2838 00000948 8fc6ea96     [ A1]   LDBU    .D2T2   *+B17[B23],B31    ; |172| <1,6> 
    2839 0000094c 8f122a96     [ A1]   LDBU    .D2T2   *+B4[B17],B30     ; |172| <1,7> 
    2840                            .dwpsn  file "./../packages/ti/vlib/src/VLIB_blockStatistics/VLIB_blockStatistics_d.c",line 17
    2841 00000950 8e10aa06     [ A1]   LDHU    .D1T2   *+A4[A5],B28      ; |177| <1,8> 
    2842                            .dwpsn  file "./../packages/ti/vlib/src/VLIB_blockStatistics/VLIB_blockStatistics_d.c",line 16
    2843 00000954     00c6             MV      .L1     A1,A0             ; |166| <0,39> Split a long life(pre-sched)
    2844 00000960           $C$DW$L$VLIB_blockStatistics_d$41$E:
    2845                    ;** --------------------------------------------------------------------------*
    2846 00000960           $C$L16:    ; PIPED LOOP EPILOG
    2847                    ;** --------------------------------------------------------------------------*
    2848 00000960           $C$DW$L$VLIB_blockStatistics_d$43$B:
    2849                    ;          EXCLUSIVE CPU CYCLES: 9
    2850                    
    2851 00000960     0a06             MV      .L1     A20,A0
    2852 00000962     3a0e  ||         MV      .S1X    B20,A1
    2853 00000964     0987  ||         MV      .L2     B19,B0
    2854 00000968 040021fc  ||         STW     .D2T1   A8,*+SP(132)
    2855 00000966     3a8f  ||         MV      .S2X    A21,B1
    2856                    
    2857 00000974 d004a35a     [!A0]   MVK     .L2     0x1,B0            ; nullify predicate
    2858 00000970 0c3f62f5  ||         STW     .D2T1   A24,*+SP(108)
    2859 0000096c d200002b! || [!A0]   MVKL    .S2     $C$SL5+0,B4
    2860                    
TMS320C6x Assembler PC v7.4.2 Thu Mar 19 12:40:09 2015

Tools Copyright (c) 1996-2012 Texas Instruments Incorporated
package/lib/Regression/regress_d_c/./../packages/ti/vlib/src/VLIB_blockStatistics/VLIB_blockStatistics_d.se66 PAGE   53

    2861 00000978 09bda2f5             STW     .D2T1   A19,*+SP(52)
    2862 00000980 d200006a! || [!A0]   MVKH    .S2     $C$SL5+0,B4
    2863                    
    2864 00000988 08bde2f4             STW     .D2T1   A17,*+SP(60)
    2865 00000984 d0002311  || [!A0]   B       .S1     $C$L19
    2866                    
    2867 0000098c 0c3f22f7             STW     .D2T2   B24,*+SP(100)
    2868 00000990 30001a90  || [!B0]   B       .S1     $C$L18
    2869                    
    2870 00000994     cda5             STW     .D2T1   A18,*+SP(56)
    2871 00000996     df75             STW     .D2T2   B23,*+SP(104)
    2872 00000998     8ff5             STW     .D2T1   A23,*+SP(112)
    2873                    $C$DW$218       .dwtag  DW_TAG_TI_branch
    2874                            .dwattr $C$DW$218, DW_AT_low_pc(0x08)
    2875                            .dwattr $C$DW$218, DW_AT_name("printf")
    2876                            .dwattr $C$DW$218, DW_AT_TI_call
    2877                    
    2878 000009a0 04bfe2f5             STW     .D2T1   A9,*+SP(124)
    2879 0000099a     b447  ||         MV      .L2X    A16,B13
    2880 000009a4 d0000010! || [!A0]   CALL    .S1     printf            ; |169| 
    2881                    
    2882                               ; BRANCHCC OCCURS {$C$L19}  
    2883 000009a8           $C$DW$L$VLIB_blockStatistics_d$43$E:
    2884                    ;** --------------------------------------------------------------------------*
    2885 000009a8           $C$DW$L$VLIB_blockStatistics_d$44$B:
    2886                    ;          EXCLUSIVE CPU CYCLES: 1
    2887                    ;**     -----------------------    if ( !f$9 ) goto g30;
    2888 000009a8 00000000             NOP             1
    2889                               ; BRANCHCC OCCURS {$C$L18}  
    2890 000009ac           $C$DW$L$VLIB_blockStatistics_d$44$E:
    2891                    ;** --------------------------------------------------------------------------*
    2892 000009ac           $C$DW$L$VLIB_blockStatistics_d$45$B:
    2893                    ;          EXCLUSIVE CPU CYCLES: 6
    2894                    ;**     -----------------------    if ( !f$8 ) goto g29;
    2895                    
    2896 000009ac 90001011     [!A1]   B       .S1     $C$L17
    2897 000009b0 9080a35a  || [!A1]   ZERO    .L2     B1                ; nullify predicate
    2898                    
