TMS320C6x Assembler PC v7.4.2 Thu Mar 19 12:38:22 2015

Tools Copyright (c) 1996-2012 Texas Instruments Incorporated
package/lib/Regression/regress_d_c/./../packages/ti/vlib/src/VLIB_afast9_detectCorners/VLIB_afast9_detectCorners_d.se66 PAGE    1

       1                    ;******************************************************************************
       2                    ;* TMS320C6x C/C++ Codegen                                          PC v7.4.2 *
       3                    ;* Date/Time created: Thu Mar 19 12:38:21 2015                                *
       4                    ;******************************************************************************
       5                            .compiler_opts --abi=eabi --c64p_l1d_workaround=off --endian=little --hll_source=on --long_pre
       6                    
       7                    ;******************************************************************************
       8                    ;* GLOBAL FILE PARAMETERS                                                     *
       9                    ;*                                                                            *
      10                    ;*   Architecture      : TMS320C66xx                                          *
      11                    ;*   Optimization      : Enabled at level 3                                   *
      12                    ;*   Optimizing for    : Speed                                                *
      13                    ;*                       Based on options: -o3, no -ms                        *
      14                    ;*   Endian            : Little                                               *
      15                    ;*   Interrupt Thrshld : 10000                                                *
      16                    ;*   Data Access Model : Far                                                  *
      17                    ;*   Pipelining        : Enabled                                              *
      18                    ;*   Speculate Loads   : Enabled with threshold = 0                           *
      19                    ;*   Memory Aliases    : Presume are aliases (pessimistic)                    *
      20                    ;*   Debug Info        : DWARF Debug w/Optimization                           *
      21                    ;*                                                                            *
      22                    ;******************************************************************************
      23                    
      24                            .asg    A15, FP
      25                            .asg    B14, DP
      26                            .asg    B15, SP
      27                            .global $bss
      28                    
      29                    
      30                    $C$DW$CU        .dwtag  DW_TAG_compile_unit
      31                            .dwattr $C$DW$CU, DW_AT_name("./../packages/ti/vlib/src/VLIB_afast9_detectCorners/VLIB_afast9_
      32                            .dwattr $C$DW$CU, DW_AT_producer("TI TMS320C6x C/C++ Codegen PC v7.4.2 Copyright (c) 1996-2012
      33                            .dwattr $C$DW$CU, DW_AT_TI_version(0x01)
      34                            .dwattr $C$DW$CU, DW_AT_comp_dir("c:\nightlybuilds\vlib\ti\vlib\vlib\examples")
      35                    
      36                    $C$DW$1 .dwtag  DW_TAG_subprogram, DW_AT_name("_itoll")
      37                            .dwattr $C$DW$1, DW_AT_TI_symbol_name("_itoll")
      38                            .dwattr $C$DW$1, DW_AT_type(*$C$DW$T$14)
      39                            .dwattr $C$DW$1, DW_AT_declaration
      40                            .dwattr $C$DW$1, DW_AT_external
      41                            .dwattr $C$DW$1, DW_AT_decl_file("C:/VLIB_Tools/CCSV5_4_0/ccsv5/tools/compiler/C6000/include/c
      42                            .dwattr $C$DW$1, DW_AT_decl_line(0xdf)
      43                            .dwattr $C$DW$1, DW_AT_decl_column(0x0b)
      44                    $C$DW$2 .dwtag  DW_TAG_formal_parameter
      45                            .dwattr $C$DW$2, DW_AT_type(*$C$DW$T$11)
      46                    $C$DW$3 .dwtag  DW_TAG_formal_parameter
      47                            .dwattr $C$DW$3, DW_AT_type(*$C$DW$T$11)
      48                            .dwendtag $C$DW$1
      49                    
      50                    
      51                    $C$DW$4 .dwtag  DW_TAG_subprogram, DW_AT_name("printf")
      52                            .dwattr $C$DW$4, DW_AT_TI_symbol_name("printf")
      53                            .dwattr $C$DW$4, DW_AT_type(*$C$DW$T$10)
      54                            .dwattr $C$DW$4, DW_AT_declaration
      55                            .dwattr $C$DW$4, DW_AT_external
TMS320C6x Assembler PC v7.4.2 Thu Mar 19 12:38:22 2015

Tools Copyright (c) 1996-2012 Texas Instruments Incorporated
package/lib/Regression/regress_d_c/./../packages/ti/vlib/src/VLIB_afast9_detectCorners/VLIB_afast9_detectCorners_d.se66 PAGE    2

      56                            .dwattr $C$DW$4, DW_AT_decl_file("C:/VLIB_Tools/CCSV5_4_0/ccsv5/tools/compiler/C6000/include/s
      57                            .dwattr $C$DW$4, DW_AT_decl_line(0xb8)
      58                            .dwattr $C$DW$4, DW_AT_decl_column(0x19)
      59                    $C$DW$5 .dwtag  DW_TAG_formal_parameter
      60                            .dwattr $C$DW$5, DW_AT_type(*$C$DW$T$138)
      61                    $C$DW$6 .dwtag  DW_TAG_unspecified_parameters
      62                            .dwendtag $C$DW$4
      63                    
      64                    
      65                    $C$DW$7 .dwtag  DW_TAG_subprogram, DW_AT_name("sprintf")
      66                            .dwattr $C$DW$7, DW_AT_TI_symbol_name("sprintf")
      67                            .dwattr $C$DW$7, DW_AT_type(*$C$DW$T$10)
      68                            .dwattr $C$DW$7, DW_AT_declaration
      69                            .dwattr $C$DW$7, DW_AT_external
      70                            .dwattr $C$DW$7, DW_AT_decl_file("C:/VLIB_Tools/CCSV5_4_0/ccsv5/tools/compiler/C6000/include/s
      71                            .dwattr $C$DW$7, DW_AT_decl_line(0xbc)
      72                            .dwattr $C$DW$7, DW_AT_decl_column(0x19)
      73                    $C$DW$8 .dwtag  DW_TAG_formal_parameter
      74                            .dwattr $C$DW$8, DW_AT_type(*$C$DW$T$24)
      75                    $C$DW$9 .dwtag  DW_TAG_formal_parameter
      76                            .dwattr $C$DW$9, DW_AT_type(*$C$DW$T$138)
      77                    $C$DW$10        .dwtag  DW_TAG_unspecified_parameters
      78                            .dwendtag $C$DW$7
      79                    
      80                    
      81                    $C$DW$11        .dwtag  DW_TAG_subprogram, DW_AT_name("malloc")
      82                            .dwattr $C$DW$11, DW_AT_TI_symbol_name("malloc")
      83                            .dwattr $C$DW$11, DW_AT_type(*$C$DW$T$3)
      84                            .dwattr $C$DW$11, DW_AT_declaration
      85                            .dwattr $C$DW$11, DW_AT_external
      86                            .dwattr $C$DW$11, DW_AT_decl_file("C:/VLIB_Tools/CCSV5_4_0/ccsv5/tools/compiler/C6000/include/
      87                            .dwattr $C$DW$11, DW_AT_decl_line(0x82)
      88                            .dwattr $C$DW$11, DW_AT_decl_column(0x19)
      89                    $C$DW$12        .dwtag  DW_TAG_formal_parameter
      90                            .dwattr $C$DW$12, DW_AT_type(*$C$DW$T$85)
      91                            .dwendtag $C$DW$11
      92                    
      93                    
      94                    $C$DW$13        .dwtag  DW_TAG_subprogram, DW_AT_name("free")
      95                            .dwattr $C$DW$13, DW_AT_TI_symbol_name("free")
      96                            .dwattr $C$DW$13, DW_AT_declaration
      97                            .dwattr $C$DW$13, DW_AT_external
      98                            .dwattr $C$DW$13, DW_AT_decl_file("C:/VLIB_Tools/CCSV5_4_0/ccsv5/tools/compiler/C6000/include/
      99                            .dwattr $C$DW$13, DW_AT_decl_line(0x86)
     100                            .dwattr $C$DW$13, DW_AT_decl_column(0x19)
     101                    $C$DW$14        .dwtag  DW_TAG_formal_parameter
     102                            .dwattr $C$DW$14, DW_AT_type(*$C$DW$T$3)
     103                            .dwendtag $C$DW$13
     104                    
     105                    
     106                    $C$DW$15        .dwtag  DW_TAG_subprogram, DW_AT_name("VLIB_cache_inval")
     107                            .dwattr $C$DW$15, DW_AT_TI_symbol_name("VLIB_cache_inval")
     108                            .dwattr $C$DW$15, DW_AT_type(*$C$DW$T$10)
     109                            .dwattr $C$DW$15, DW_AT_declaration
     110                            .dwattr $C$DW$15, DW_AT_external
TMS320C6x Assembler PC v7.4.2 Thu Mar 19 12:38:22 2015

Tools Copyright (c) 1996-2012 Texas Instruments Incorporated
package/lib/Regression/regress_d_c/./../packages/ti/vlib/src/VLIB_afast9_detectCorners/VLIB_afast9_detectCorners_d.se66 PAGE    3

     111                            .dwattr $C$DW$15, DW_AT_decl_file(".\..\packages\ti\vlib\src\VLIB_afast9_detectCorners\..\comm
     112                            .dwattr $C$DW$15, DW_AT_decl_line(0x58)
     113                            .dwattr $C$DW$15, DW_AT_decl_column(0x05)
     114                    
     115                    $C$DW$16        .dwtag  DW_TAG_subprogram, DW_AT_name("VLIB_profile_init")
     116                            .dwattr $C$DW$16, DW_AT_TI_symbol_name("VLIB_profile_init")
     117                            .dwattr $C$DW$16, DW_AT_declaration
     118                            .dwattr $C$DW$16, DW_AT_external
     119                            .dwattr $C$DW$16, DW_AT_decl_file(".\..\packages\ti\vlib\src\VLIB_afast9_detectCorners\..\comm
     120                            .dwattr $C$DW$16, DW_AT_decl_line(0x7b)
     121                            .dwattr $C$DW$16, DW_AT_decl_column(0x06)
     122                    $C$DW$17        .dwtag  DW_TAG_formal_parameter
     123                            .dwattr $C$DW$17, DW_AT_type(*$C$DW$T$10)
     124                    $C$DW$18        .dwtag  DW_TAG_formal_parameter
     125                            .dwattr $C$DW$18, DW_AT_type(*$C$DW$T$24)
     126                            .dwendtag $C$DW$16
     127                    
     128                    
     129                    $C$DW$19        .dwtag  DW_TAG_subprogram, DW_AT_name("VLIB_formula_add_test")
     130                            .dwattr $C$DW$19, DW_AT_TI_symbol_name("VLIB_formula_add_test")
     131                            .dwattr $C$DW$19, DW_AT_declaration
     132                            .dwattr $C$DW$19, DW_AT_external
     133                            .dwattr $C$DW$19, DW_AT_decl_file(".\..\packages\ti\vlib\src\VLIB_afast9_detectCorners\..\comm
     134                            .dwattr $C$DW$19, DW_AT_decl_line(0x7d)
     135                            .dwattr $C$DW$19, DW_AT_decl_column(0x06)
     136                    $C$DW$20        .dwtag  DW_TAG_formal_parameter
     137                            .dwattr $C$DW$20, DW_AT_type(*$C$DW$T$10)
     138                    $C$DW$21        .dwtag  DW_TAG_formal_parameter
     139                            .dwattr $C$DW$21, DW_AT_type(*$C$DW$T$10)
     140                    $C$DW$22        .dwtag  DW_TAG_formal_parameter
     141                            .dwattr $C$DW$22, DW_AT_type(*$C$DW$T$10)
     142                    $C$DW$23        .dwtag  DW_TAG_formal_parameter
     143                            .dwattr $C$DW$23, DW_AT_type(*$C$DW$T$10)
     144                    $C$DW$24        .dwtag  DW_TAG_formal_parameter
     145                            .dwattr $C$DW$24, DW_AT_type(*$C$DW$T$24)
     146                    $C$DW$25        .dwtag  DW_TAG_formal_parameter
     147                            .dwattr $C$DW$25, DW_AT_type(*$C$DW$T$10)
     148                            .dwendtag $C$DW$19
     149                    
     150                    
     151                    $C$DW$26        .dwtag  DW_TAG_subprogram, DW_AT_name("VLIB_skip_test")
     152                            .dwattr $C$DW$26, DW_AT_TI_symbol_name("VLIB_skip_test")
     153                            .dwattr $C$DW$26, DW_AT_declaration
     154                            .dwattr $C$DW$26, DW_AT_external
     155                            .dwattr $C$DW$26, DW_AT_decl_file(".\..\packages\ti\vlib\src\VLIB_afast9_detectCorners\..\comm
     156                            .dwattr $C$DW$26, DW_AT_decl_line(0x7e)
     157                            .dwattr $C$DW$26, DW_AT_decl_column(0x06)
     158                    $C$DW$27        .dwtag  DW_TAG_formal_parameter
     159                            .dwattr $C$DW$27, DW_AT_type(*$C$DW$T$24)
     160                            .dwendtag $C$DW$26
     161                    
     162                    
     163                    $C$DW$28        .dwtag  DW_TAG_subprogram, DW_AT_name("VLIB_profile_cycle_report")
     164                            .dwattr $C$DW$28, DW_AT_TI_symbol_name("VLIB_profile_cycle_report")
     165                            .dwattr $C$DW$28, DW_AT_declaration
TMS320C6x Assembler PC v7.4.2 Thu Mar 19 12:38:22 2015

Tools Copyright (c) 1996-2012 Texas Instruments Incorporated
package/lib/Regression/regress_d_c/./../packages/ti/vlib/src/VLIB_afast9_detectCorners/VLIB_afast9_detectCorners_d.se66 PAGE    4

     166                            .dwattr $C$DW$28, DW_AT_external
     167                            .dwattr $C$DW$28, DW_AT_decl_file(".\..\packages\ti\vlib\src\VLIB_afast9_detectCorners\..\comm
     168                            .dwattr $C$DW$28, DW_AT_decl_line(0x7f)
     169                            .dwattr $C$DW$28, DW_AT_decl_column(0x06)
     170                    $C$DW$29        .dwtag  DW_TAG_formal_parameter
     171                            .dwattr $C$DW$29, DW_AT_type(*$C$DW$T$10)
     172                    $C$DW$30        .dwtag  DW_TAG_formal_parameter
     173                            .dwattr $C$DW$30, DW_AT_type(*$C$DW$T$24)
     174                    $C$DW$31        .dwtag  DW_TAG_formal_parameter
     175                            .dwattr $C$DW$31, DW_AT_type(*$C$DW$T$24)
     176                            .dwendtag $C$DW$28
     177                    
     178                    
     179                    $C$DW$32        .dwtag  DW_TAG_subprogram, DW_AT_name("initStack")
     180                            .dwattr $C$DW$32, DW_AT_TI_symbol_name("initStack")
     181                            .dwattr $C$DW$32, DW_AT_declaration
     182                            .dwattr $C$DW$32, DW_AT_external
     183                            .dwattr $C$DW$32, DW_AT_decl_file(".\..\packages\ti\vlib\src\VLIB_afast9_detectCorners\..\comm
     184                            .dwattr $C$DW$32, DW_AT_decl_line(0x80)
     185                            .dwattr $C$DW$32, DW_AT_decl_column(0x06)
     186                    $C$DW$33        .dwtag  DW_TAG_formal_parameter
     187                            .dwattr $C$DW$33, DW_AT_type(*$C$DW$T$48)
     188                            .dwendtag $C$DW$32
     189                    
     190                    
     191                    $C$DW$34        .dwtag  DW_TAG_subprogram, DW_AT_name("setStackDepth")
     192                            .dwattr $C$DW$34, DW_AT_TI_symbol_name("setStackDepth")
     193                            .dwattr $C$DW$34, DW_AT_declaration
     194                            .dwattr $C$DW$34, DW_AT_external
     195                            .dwattr $C$DW$34, DW_AT_decl_file(".\..\packages\ti\vlib\src\VLIB_afast9_detectCorners\..\comm
     196                            .dwattr $C$DW$34, DW_AT_decl_line(0x81)
     197                            .dwattr $C$DW$34, DW_AT_decl_column(0x06)
     198                    
     199                    $C$DW$35        .dwtag  DW_TAG_subprogram, DW_AT_name("getSP")
     200                            .dwattr $C$DW$35, DW_AT_TI_symbol_name("getSP")
     201                            .dwattr $C$DW$35, DW_AT_type(*$C$DW$T$48)
     202                            .dwattr $C$DW$35, DW_AT_declaration
     203                            .dwattr $C$DW$35, DW_AT_external
     204                            .dwattr $C$DW$35, DW_AT_decl_file(".\..\packages\ti\vlib\src\VLIB_afast9_detectCorners\..\comm
     205                            .dwattr $C$DW$35, DW_AT_decl_line(0x82)
     206                            .dwattr $C$DW$35, DW_AT_decl_column(0x0a)
     207                    
     208                    $C$DW$36        .dwtag  DW_TAG_subprogram, DW_AT_name("VLIB_stack_memory")
     209                            .dwattr $C$DW$36, DW_AT_TI_symbol_name("VLIB_stack_memory")
     210                            .dwattr $C$DW$36, DW_AT_declaration
     211                            .dwattr $C$DW$36, DW_AT_external
     212                            .dwattr $C$DW$36, DW_AT_decl_file(".\..\packages\ti\vlib\src\VLIB_afast9_detectCorners\..\comm
     213                            .dwattr $C$DW$36, DW_AT_decl_line(0x83)
     214                            .dwattr $C$DW$36, DW_AT_decl_column(0x06)
     215                    
     216                    $C$DW$37        .dwtag  DW_TAG_subprogram, DW_AT_name("VLIB_fillBuffer")
     217                            .dwattr $C$DW$37, DW_AT_TI_symbol_name("VLIB_fillBuffer")
     218                            .dwattr $C$DW$37, DW_AT_declaration
     219                            .dwattr $C$DW$37, DW_AT_external
     220                            .dwattr $C$DW$37, DW_AT_decl_file(".\..\packages\ti\vlib\src\VLIB_afast9_detectCorners\../comm
TMS320C6x Assembler PC v7.4.2 Thu Mar 19 12:38:22 2015

Tools Copyright (c) 1996-2012 Texas Instruments Incorporated
package/lib/Regression/regress_d_c/./../packages/ti/vlib/src/VLIB_afast9_detectCorners/VLIB_afast9_detectCorners_d.se66 PAGE    5

     221                            .dwattr $C$DW$37, DW_AT_decl_line(0x77)
     222                            .dwattr $C$DW$37, DW_AT_decl_column(0x06)
     223                    $C$DW$38        .dwtag  DW_TAG_formal_parameter
     224                            .dwattr $C$DW$38, DW_AT_type(*$C$DW$T$19)
     225                    $C$DW$39        .dwtag  DW_TAG_formal_parameter
     226                            .dwattr $C$DW$39, DW_AT_type(*$C$DW$T$19)
     227                    $C$DW$40        .dwtag  DW_TAG_formal_parameter
     228                            .dwattr $C$DW$40, DW_AT_type(*$C$DW$T$3)
     229                    $C$DW$41        .dwtag  DW_TAG_formal_parameter
     230                            .dwattr $C$DW$41, DW_AT_type(*$C$DW$T$3)
     231                    $C$DW$42        .dwtag  DW_TAG_formal_parameter
     232                            .dwattr $C$DW$42, DW_AT_type(*$C$DW$T$21)
     233                    $C$DW$43        .dwtag  DW_TAG_formal_parameter
     234                            .dwattr $C$DW$43, DW_AT_type(*$C$DW$T$21)
     235                    $C$DW$44        .dwtag  DW_TAG_formal_parameter
     236                            .dwattr $C$DW$44, DW_AT_type(*$C$DW$T$21)
     237                    $C$DW$45        .dwtag  DW_TAG_formal_parameter
     238                            .dwattr $C$DW$45, DW_AT_type(*$C$DW$T$19)
     239                    $C$DW$46        .dwtag  DW_TAG_formal_parameter
     240                            .dwattr $C$DW$46, DW_AT_type(*$C$DW$T$24)
     241                            .dwendtag $C$DW$37
     242                    
     243                    
     244                    $C$DW$47        .dwtag  DW_TAG_subprogram, DW_AT_name("VLIB_memalign")
     245                            .dwattr $C$DW$47, DW_AT_TI_symbol_name("VLIB_memalign")
     246                            .dwattr $C$DW$47, DW_AT_type(*$C$DW$T$3)
     247                            .dwattr $C$DW$47, DW_AT_declaration
     248                            .dwattr $C$DW$47, DW_AT_external
     249                            .dwattr $C$DW$47, DW_AT_decl_file(".\..\packages\ti\vlib\src\VLIB_afast9_detectCorners\../comm
     250                            .dwattr $C$DW$47, DW_AT_decl_line(0xae)
     251                            .dwattr $C$DW$47, DW_AT_decl_column(0x07)
     252                    $C$DW$48        .dwtag  DW_TAG_formal_parameter
     253                            .dwattr $C$DW$48, DW_AT_type(*$C$DW$T$85)
     254                    $C$DW$49        .dwtag  DW_TAG_formal_parameter
     255                            .dwattr $C$DW$49, DW_AT_type(*$C$DW$T$85)
     256                            .dwendtag $C$DW$47
     257                    
     258                    
     259                    $C$DW$50        .dwtag  DW_TAG_subprogram, DW_AT_name("VLIB_malloc")
     260                            .dwattr $C$DW$50, DW_AT_TI_symbol_name("VLIB_malloc")
     261                            .dwattr $C$DW$50, DW_AT_type(*$C$DW$T$3)
     262                            .dwattr $C$DW$50, DW_AT_declaration
     263                            .dwattr $C$DW$50, DW_AT_external
     264                            .dwattr $C$DW$50, DW_AT_decl_file(".\..\packages\ti\vlib\src\VLIB_afast9_detectCorners\../comm
     265                            .dwattr $C$DW$50, DW_AT_decl_line(0xaf)
     266                            .dwattr $C$DW$50, DW_AT_decl_column(0x07)
     267                    $C$DW$51        .dwtag  DW_TAG_formal_parameter
     268                            .dwattr $C$DW$51, DW_AT_type(*$C$DW$T$85)
     269                            .dwendtag $C$DW$50
     270                    
     271                    
     272                    $C$DW$52        .dwtag  DW_TAG_subprogram, DW_AT_name("VLIB_align_free")
     273                            .dwattr $C$DW$52, DW_AT_TI_symbol_name("VLIB_align_free")
     274                            .dwattr $C$DW$52, DW_AT_declaration
     275                            .dwattr $C$DW$52, DW_AT_external
TMS320C6x Assembler PC v7.4.2 Thu Mar 19 12:38:22 2015

Tools Copyright (c) 1996-2012 Texas Instruments Incorporated
package/lib/Regression/regress_d_c/./../packages/ti/vlib/src/VLIB_afast9_detectCorners/VLIB_afast9_detectCorners_d.se66 PAGE    6

     276                            .dwattr $C$DW$52, DW_AT_decl_file(".\..\packages\ti\vlib\src\VLIB_afast9_detectCorners\../comm
     277                            .dwattr $C$DW$52, DW_AT_decl_line(0xb3)
     278                            .dwattr $C$DW$52, DW_AT_decl_column(0x07)
     279                    $C$DW$53        .dwtag  DW_TAG_formal_parameter
     280                            .dwattr $C$DW$53, DW_AT_type(*$C$DW$T$3)
     281                            .dwendtag $C$DW$52
     282                    
     283                    
     284                    $C$DW$54        .dwtag  DW_TAG_subprogram, DW_AT_name("VLIB_free")
     285                            .dwattr $C$DW$54, DW_AT_TI_symbol_name("VLIB_free")
     286                            .dwattr $C$DW$54, DW_AT_declaration
     287                            .dwattr $C$DW$54, DW_AT_external
     288                            .dwattr $C$DW$54, DW_AT_decl_file(".\..\packages\ti\vlib\src\VLIB_afast9_detectCorners\../comm
     289                            .dwattr $C$DW$54, DW_AT_decl_line(0xb4)
     290                            .dwattr $C$DW$54, DW_AT_decl_column(0x07)
     291                    $C$DW$55        .dwtag  DW_TAG_formal_parameter
     292                            .dwattr $C$DW$55, DW_AT_type(*$C$DW$T$3)
     293                            .dwendtag $C$DW$54
     294                    
     295                    
     296                    $C$DW$56        .dwtag  DW_TAG_subprogram, DW_AT_name("VLIB_afast9_detectCorners")
     297                            .dwattr $C$DW$56, DW_AT_TI_symbol_name("VLIB_afast9_detectCorners")
     298                            .dwattr $C$DW$56, DW_AT_type(*$C$DW$T$31)
     299                            .dwattr $C$DW$56, DW_AT_declaration
     300                            .dwattr $C$DW$56, DW_AT_external
     301                            .dwattr $C$DW$56, DW_AT_decl_file(".\..\packages\ti\vlib\src\VLIB_afast9_detectCorners\c66/VLI
     302                            .dwattr $C$DW$56, DW_AT_decl_line(0x79)
     303                            .dwattr $C$DW$56, DW_AT_decl_column(0x09)
     304                    $C$DW$57        .dwtag  DW_TAG_formal_parameter
     305                            .dwattr $C$DW$57, DW_AT_type(*$C$DW$T$130)
     306                    $C$DW$58        .dwtag  DW_TAG_formal_parameter
     307                            .dwattr $C$DW$58, DW_AT_type(*$C$DW$T$21)
     308                    $C$DW$59        .dwtag  DW_TAG_formal_parameter
     309                            .dwattr $C$DW$59, DW_AT_type(*$C$DW$T$21)
     310                    $C$DW$60        .dwtag  DW_TAG_formal_parameter
     311                            .dwattr $C$DW$60, DW_AT_type(*$C$DW$T$48)
     312                    $C$DW$61        .dwtag  DW_TAG_formal_parameter
     313                            .dwattr $C$DW$61, DW_AT_type(*$C$DW$T$19)
     314                    $C$DW$62        .dwtag  DW_TAG_formal_parameter
     315                            .dwattr $C$DW$62, DW_AT_type(*$C$DW$T$135)
     316                    $C$DW$63        .dwtag  DW_TAG_formal_parameter
     317                            .dwattr $C$DW$63, DW_AT_type(*$C$DW$T$127)
     318                            .dwendtag $C$DW$56
     319                    
     320                    
     321                    $C$DW$64        .dwtag  DW_TAG_subprogram, DW_AT_name("VLIB_afast9_detectCorners_cn")
     322                            .dwattr $C$DW$64, DW_AT_TI_symbol_name("VLIB_afast9_detectCorners_cn")
     323                            .dwattr $C$DW$64, DW_AT_type(*$C$DW$T$31)
     324                            .dwattr $C$DW$64, DW_AT_declaration
     325                            .dwattr $C$DW$64, DW_AT_external
     326                            .dwattr $C$DW$64, DW_AT_decl_file(".\..\packages\ti\vlib\src\VLIB_afast9_detectCorners\VLIB_af
     327                            .dwattr $C$DW$64, DW_AT_decl_line(0x22)
     328                            .dwattr $C$DW$64, DW_AT_decl_column(0x09)
     329                    $C$DW$65        .dwtag  DW_TAG_formal_parameter
     330                            .dwattr $C$DW$65, DW_AT_type(*$C$DW$T$129)
TMS320C6x Assembler PC v7.4.2 Thu Mar 19 12:38:22 2015

Tools Copyright (c) 1996-2012 Texas Instruments Incorporated
package/lib/Regression/regress_d_c/./../packages/ti/vlib/src/VLIB_afast9_detectCorners/VLIB_afast9_detectCorners_d.se66 PAGE    7

     331                    $C$DW$66        .dwtag  DW_TAG_formal_parameter
     332                            .dwattr $C$DW$66, DW_AT_type(*$C$DW$T$21)
     333                    $C$DW$67        .dwtag  DW_TAG_formal_parameter
     334                            .dwattr $C$DW$67, DW_AT_type(*$C$DW$T$21)
     335                    $C$DW$68        .dwtag  DW_TAG_formal_parameter
     336                            .dwattr $C$DW$68, DW_AT_type(*$C$DW$T$48)
     337                    $C$DW$69        .dwtag  DW_TAG_formal_parameter
     338                            .dwattr $C$DW$69, DW_AT_type(*$C$DW$T$19)
     339                    $C$DW$70        .dwtag  DW_TAG_formal_parameter
     340                            .dwattr $C$DW$70, DW_AT_type(*$C$DW$T$22)
     341                    $C$DW$71        .dwtag  DW_TAG_formal_parameter
     342                            .dwattr $C$DW$71, DW_AT_type(*$C$DW$T$20)
     343                            .dwendtag $C$DW$64
     344                    
     345                    
     346                    $C$DW$72        .dwtag  DW_TAG_subprogram, DW_AT_name("afast9_detectCorners_getTestParams")
     347                            .dwattr $C$DW$72, DW_AT_TI_symbol_name("afast9_detectCorners_getTestParams")
     348                            .dwattr $C$DW$72, DW_AT_declaration
     349                            .dwattr $C$DW$72, DW_AT_external
     350                            .dwattr $C$DW$72, DW_AT_decl_file(".\..\packages\ti\vlib\src\VLIB_afast9_detectCorners\VLIB_af
     351                            .dwattr $C$DW$72, DW_AT_decl_line(0x2e)
     352                            .dwattr $C$DW$72, DW_AT_decl_column(0x06)
     353                    $C$DW$73        .dwtag  DW_TAG_formal_parameter
     354                            .dwattr $C$DW$73, DW_AT_type(*$C$DW$T$74)
     355                    $C$DW$74        .dwtag  DW_TAG_formal_parameter
     356                            .dwattr $C$DW$74, DW_AT_type(*$C$DW$T$107)
     357                            .dwendtag $C$DW$72
     358                    
     359                    $C$DW$75        .dwtag  DW_TAG_variable, DW_AT_name("test_cases")
     360                            .dwattr $C$DW$75, DW_AT_TI_symbol_name("test_cases")
     361                            .dwattr $C$DW$75, DW_AT_type(*$C$DW$T$31)
     362                            .dwattr $C$DW$75, DW_AT_declaration
     363                            .dwattr $C$DW$75, DW_AT_external
     364                            .dwattr $C$DW$75, DW_AT_decl_file(".\..\packages\ti\vlib\src\VLIB_afast9_detectCorners\../comm
     365                            .dwattr $C$DW$75, DW_AT_decl_line(0x60)
     366                            .dwattr $C$DW$75, DW_AT_decl_column(0x13)
     367                    $C$DW$76        .dwtag  DW_TAG_variable, DW_AT_name("act_kernel")
     368                            .dwattr $C$DW$76, DW_AT_TI_symbol_name("act_kernel")
     369                            .dwattr $C$DW$76, DW_AT_type(*$C$DW$T$10)
     370                            .dwattr $C$DW$76, DW_AT_declaration
     371                            .dwattr $C$DW$76, DW_AT_external
     372                            .dwattr $C$DW$76, DW_AT_decl_file(".\..\packages\ti\vlib\src\VLIB_afast9_detectCorners\../comm
     373                            .dwattr $C$DW$76, DW_AT_decl_line(0x62)
     374                            .dwattr $C$DW$76, DW_AT_decl_column(0x13)
     375                    $C$DW$77        .dwtag  DW_TAG_variable, DW_AT_name("desc")
     376                            .dwattr $C$DW$77, DW_AT_TI_symbol_name("desc")
     377                            .dwattr $C$DW$77, DW_AT_type(*$C$DW$T$193)
     378                            .dwattr $C$DW$77, DW_AT_declaration
     379                            .dwattr $C$DW$77, DW_AT_external
     380                            .dwattr $C$DW$77, DW_AT_decl_file(".\..\packages\ti\vlib\src\VLIB_afast9_detectCorners\../comm
     381                            .dwattr $C$DW$77, DW_AT_decl_line(0x63)
     382                            .dwattr $C$DW$77, DW_AT_decl_column(0x13)
     383                    $C$DW$78        .dwtag  DW_TAG_variable, DW_AT_name("testPatternString")
     384                            .dwattr $C$DW$78, DW_AT_TI_symbol_name("testPatternString")
     385                            .dwattr $C$DW$78, DW_AT_type(*$C$DW$T$193)
TMS320C6x Assembler PC v7.4.2 Thu Mar 19 12:38:22 2015

Tools Copyright (c) 1996-2012 Texas Instruments Incorporated
package/lib/Regression/regress_d_c/./../packages/ti/vlib/src/VLIB_afast9_detectCorners/VLIB_afast9_detectCorners_d.se66 PAGE    8

     386                            .dwattr $C$DW$78, DW_AT_declaration
     387                            .dwattr $C$DW$78, DW_AT_external
     388                            .dwattr $C$DW$78, DW_AT_decl_file(".\..\packages\ti\vlib\src\VLIB_afast9_detectCorners\../comm
     389                            .dwattr $C$DW$78, DW_AT_decl_line(0x64)
     390                            .dwattr $C$DW$78, DW_AT_decl_column(0x13)
     391                    $C$DW$79        .dwtag  DW_TAG_variable, DW_AT_name("est_test")
     392                            .dwattr $C$DW$79, DW_AT_TI_symbol_name("est_test")
     393                            .dwattr $C$DW$79, DW_AT_type(*$C$DW$T$10)
     394                            .dwattr $C$DW$79, DW_AT_declaration
     395                            .dwattr $C$DW$79, DW_AT_external
     396                            .dwattr $C$DW$79, DW_AT_decl_file(".\..\packages\ti\vlib\src\VLIB_afast9_detectCorners\..\comm
     397                            .dwattr $C$DW$79, DW_AT_decl_line(0x75)
     398                            .dwattr $C$DW$79, DW_AT_decl_column(0x14)
     399                    $C$DW$80        .dwtag  DW_TAG_variable, DW_AT_name("beg_count")
     400                            .dwattr $C$DW$80, DW_AT_TI_symbol_name("beg_count")
     401                            .dwattr $C$DW$80, DW_AT_type(*$C$DW$T$184)
     402                            .dwattr $C$DW$80, DW_AT_declaration
     403                            .dwattr $C$DW$80, DW_AT_external
     404                            .dwattr $C$DW$80, DW_AT_decl_file(".\..\packages\ti\vlib\src\VLIB_afast9_detectCorners\..\comm
     405                            .dwattr $C$DW$80, DW_AT_decl_line(0x76)
     406                            .dwattr $C$DW$80, DW_AT_decl_column(0x14)
     407                    $C$DW$81        .dwtag  DW_TAG_variable, DW_AT_name("end_count")
     408                            .dwattr $C$DW$81, DW_AT_TI_symbol_name("end_count")
     409                            .dwattr $C$DW$81, DW_AT_type(*$C$DW$T$184)
     410                            .dwattr $C$DW$81, DW_AT_declaration
     411                            .dwattr $C$DW$81, DW_AT_external
     412                            .dwattr $C$DW$81, DW_AT_decl_file(".\..\packages\ti\vlib\src\VLIB_afast9_detectCorners\..\comm
     413                            .dwattr $C$DW$81, DW_AT_decl_line(0x77)
     414                            .dwattr $C$DW$81, DW_AT_decl_column(0x14)
     415                    $C$DW$82        .dwtag  DW_TAG_variable, DW_AT_name("overhead")
     416                            .dwattr $C$DW$82, DW_AT_TI_symbol_name("overhead")
     417                            .dwattr $C$DW$82, DW_AT_type(*$C$DW$T$184)
     418                            .dwattr $C$DW$82, DW_AT_declaration
     419                            .dwattr $C$DW$82, DW_AT_external
     420                            .dwattr $C$DW$82, DW_AT_decl_file(".\..\packages\ti\vlib\src\VLIB_afast9_detectCorners\..\comm
     421                            .dwattr $C$DW$82, DW_AT_decl_line(0x78)
     422                            .dwattr $C$DW$82, DW_AT_decl_column(0x14)
     423                    $C$DW$83        .dwtag  DW_TAG_variable, DW_AT_name("cycles")
     424                            .dwattr $C$DW$83, DW_AT_TI_symbol_name("cycles")
     425                            .dwattr $C$DW$83, DW_AT_type(*$C$DW$T$185)
     426                            .dwattr $C$DW$83, DW_AT_declaration
     427                            .dwattr $C$DW$83, DW_AT_external
     428                            .dwattr $C$DW$83, DW_AT_decl_file(".\..\packages\ti\vlib\src\VLIB_afast9_detectCorners\..\comm
     429                            .dwattr $C$DW$83, DW_AT_decl_line(0x79)
     430                            .dwattr $C$DW$83, DW_AT_decl_column(0x14)
     431                    ;       C:\VLIB_Tools\CCSV5_4_0\ccsv5\tools\compiler\C6000\bin\opt6x.exe C:\\Users\\gtbldadm\\AppData\
     432 00000000                   .sect   ".text"
     433                            .clink
     434                            .global VLIB_afast9_detectCorners_d
     435                    
     436                    $C$DW$84        .dwtag  DW_TAG_subprogram, DW_AT_name("VLIB_afast9_detectCorners_d")
     437                            .dwattr $C$DW$84, DW_AT_low_pc(VLIB_afast9_detectCorners_d)
     438                            .dwattr $C$DW$84, DW_AT_high_pc(0x00)
     439                            .dwattr $C$DW$84, DW_AT_TI_symbol_name("VLIB_afast9_detectCorners_d")
     440                            .dwattr $C$DW$84, DW_AT_external
TMS320C6x Assembler PC v7.4.2 Thu Mar 19 12:38:22 2015

Tools Copyright (c) 1996-2012 Texas Instruments Incorporated
package/lib/Regression/regress_d_c/./../packages/ti/vlib/src/VLIB_afast9_detectCorners/VLIB_afast9_detectCorners_d.se66 PAGE    9

     441                            .dwattr $C$DW$84, DW_AT_TI_begin_file("./../packages/ti/vlib/src/VLIB_afast9_detectCorners/VLI
     442                            .dwattr $C$DW$84, DW_AT_TI_begin_line(0x25)
     443                            .dwattr $C$DW$84, DW_AT_TI_begin_column(0x06)
     444                            .dwattr $C$DW$84, DW_AT_decl_file("./../packages/ti/vlib/src/VLIB_afast9_detectCorners/VLIB_af
     445                            .dwattr $C$DW$84, DW_AT_decl_line(0x25)
     446                            .dwattr $C$DW$84, DW_AT_decl_column(0x06)
     447                            .dwattr $C$DW$84, DW_AT_TI_max_frame_size(0x70)
     448                            .dwpsn  file "./../packages/ti/vlib/src/VLIB_afast9_detectCorners/VLIB_afast9_detectCorners_d.
     449                    
     450                            .dwfde $C$DW$CIE, VLIB_afast9_detectCorners_d
     451                    $C$DW$85        .dwtag  DW_TAG_formal_parameter, DW_AT_name("LevelOfFeedback")
     452                            .dwattr $C$DW$85, DW_AT_TI_symbol_name("LevelOfFeedback")
     453                            .dwattr $C$DW$85, DW_AT_type(*$C$DW$T$19)
     454                            .dwattr $C$DW$85, DW_AT_location[DW_OP_reg4]
     455                    ;----------------------------------------------------------------------
     456                    ;  37 | void VLIB_afast9_detectCorners_d(uint8_t LevelOfFeedback)              
     457                    ;----------------------------------------------------------------------
     458                    
     459                    ;******************************************************************************
     460                    ;* FUNCTION NAME: VLIB_afast9_detectCorners_d                                 *
     461                    ;*                                                                            *
     462                    ;*   Regs Modified     : A0,A1,A2,A3,A4,A5,A6,A7,A8,A9,A10,A11,A12,A13,A14,   *
     463                    ;*                           A15,B0,B1,B2,B3,B4,B5,B6,B7,B8,B9,B10,B11,B12,   *
     464                    ;*                           B13,SP,A16,A17,A18,A19,A20,A21,A22,A23,A24,A25,  *
     465                    ;*                           A26,A27,A28,A29,A30,A31,B16,B17,B18,B19,B20,B21, *
     466                    ;*                           B22,B23,B24,B25,B26,B27,B28,B29,B30,B31          *
     467                    ;*   Regs Used         : A0,A1,A2,A3,A4,A5,A6,A7,A8,A9,A10,A11,A12,A13,A14,   *
     468                    ;*                           A15,B0,B1,B2,B3,B4,B5,B6,B7,B8,B9,B10,B11,B12,   *
     469                    ;*                           B13,DP,SP,A16,A17,A18,A19,A20,A21,A22,A23,A24,   *
     470                    ;*                           A25,A26,A27,A28,A29,A30,A31,B16,B17,B18,B19,B20, *
     471                    ;*                           B21,B22,B23,B24,B25,B26,B27,B28,B29,B30,B31      *
     472                    ;*   Local Frame Size  : 24 Args + 28 Auto + 56 Save = 108 byte               *
     473                    ;******************************************************************************
     474                    
     475                    ;******************************************************************************
     476                    ;*                                                                            *
     477                    ;* Using -g (debug) with optimization (-o3) may disable key optimizations!    *
     478                    ;*                                                                            *
     479                    ;******************************************************************************
     480 00000000           VLIB_afast9_detectCorners_d:
     481                    ;** --------------------------------------------------------------------------*
     482                    ;          EXCLUSIVE CPU CYCLES: 15
     483                    ;** 44  -----------------------    afast9_detectCorners_getTestParams(&prm, &test_cases);
     484                    ;** 47  -----------------------    VLIB_profile_init(3, "VLIB_afast9_detectCorners");
     485                    ;** 50  -----------------------    if ( test_cases <= 0 ) goto g34;
     486                            .dwcfi  cfa_offset, 0
     487                    ;----------------------------------------------------------------------
     488                    ;  39 | int32_t    tpi;  /* test parameter index */                            
     489                    ;  42 | afast9_detectCorners_testParams_t   *prm;                              
     490                    ;----------------------------------------------------------------------
     491 00000000     25f7             STW     .D2T1   A11,*SP--(8)      ; |38| 
     492                            .dwcfi  cfa_offset, 8
     493                            .dwcfi  save_reg_to_mem, 11, 0
     494 00000002     2577             STW     .D2T1   A10,*SP--(8)      ; |38| 
     495                            .dwcfi  cfa_offset, 16
TMS320C6x Assembler PC v7.4.2 Thu Mar 19 12:38:22 2015

Tools Copyright (c) 1996-2012 Texas Instruments Incorporated
package/lib/Regression/regress_d_c/./../packages/ti/vlib/src/VLIB_afast9_detectCorners/VLIB_afast9_detectCorners_d.se66 PAGE   10

     496                            .dwcfi  save_reg_to_mem, 10, -8
     497 00000004     9677             STDW    .D2T2   B13:B12,*SP--     ; |38| 
     498                            .dwcfi  cfa_offset, 24
     499                            .dwcfi  save_reg_to_mem, 29, -12
     500                            .dwcfi  save_reg_to_mem, 28, -16
     501 00000006     9577             STDW    .D2T2   B11:B10,*SP--     ; |38| 
     502                            .dwcfi  cfa_offset, 32
     503                            .dwcfi  save_reg_to_mem, 27, -20
     504                            .dwcfi  save_reg_to_mem, 26, -24
     505 00000008     8777             STDW    .D2T1   A15:A14,*SP--     ; |38| 
     506                            .dwcfi  cfa_offset, 40
     507                            .dwcfi  save_reg_to_mem, 15, -28
     508                            .dwcfi  save_reg_to_mem, 14, -32
     509 0000000a     8677             STDW    .D2T1   A13:A12,*SP--     ; |38| 
     510                            .dwcfi  cfa_offset, 48
     511                            .dwcfi  save_reg_to_mem, 13, -36
     512                            .dwcfi  save_reg_to_mem, 12, -40
     513 0000000c 01be14f6             STW     .D2T2   B3,*SP--(64)      ; |38| 
     514                            .dwcfi  cfa_offset, 112
     515                            .dwcfi  save_reg_to_mem, 19, 0
     516                    $C$DW$86        .dwtag  DW_TAG_variable, DW_AT_name("$O$C7")
     517                            .dwattr $C$DW$86, DW_AT_TI_symbol_name("$O$C7")
     518                            .dwattr $C$DW$86, DW_AT_type(*$C$DW$T$70)
     519                            .dwattr $C$DW$86, DW_AT_location[DW_OP_reg22]
     520                    $C$DW$87        .dwtag  DW_TAG_variable, DW_AT_name("$O$C8")
     521                            .dwattr $C$DW$87, DW_AT_TI_symbol_name("$O$C8")
     522                            .dwattr $C$DW$87, DW_AT_type(*$C$DW$T$10)
     523                            .dwattr $C$DW$87, DW_AT_location[DW_OP_reg4]
     524                    $C$DW$88        .dwtag  DW_TAG_variable, DW_AT_name("$O$C9")
     525                            .dwattr $C$DW$88, DW_AT_TI_symbol_name("$O$C9")
     526                            .dwattr $C$DW$88, DW_AT_type(*$C$DW$T$10)
     527                            .dwattr $C$DW$88, DW_AT_location[DW_OP_regx 0x25]
     528                    $C$DW$89        .dwtag  DW_TAG_variable, DW_AT_name("$O$C10")
     529                            .dwattr $C$DW$89, DW_AT_TI_symbol_name("$O$C10")
     530                            .dwattr $C$DW$89, DW_AT_type(*$C$DW$T$9)
     531                            .dwattr $C$DW$89, DW_AT_location[DW_OP_reg0]
     532                    $C$DW$90        .dwtag  DW_TAG_variable, DW_AT_name("$O$C11")
     533                            .dwattr $C$DW$90, DW_AT_TI_symbol_name("$O$C11")
     534                            .dwattr $C$DW$90, DW_AT_type(*$C$DW$T$11)
     535                            .dwattr $C$DW$90, DW_AT_location[DW_OP_reg26]
     536                    $C$DW$91        .dwtag  DW_TAG_variable, DW_AT_name("$O$C12")
     537                            .dwattr $C$DW$91, DW_AT_TI_symbol_name("$O$C12")
     538                            .dwattr $C$DW$91, DW_AT_type(*$C$DW$T$9)
     539                            .dwattr $C$DW$91, DW_AT_location[DW_OP_reg10]
     540                    $C$DW$92        .dwtag  DW_TAG_variable, DW_AT_name("$O$C13")
     541                            .dwattr $C$DW$92, DW_AT_TI_symbol_name("$O$C13")
     542                            .dwattr $C$DW$92, DW_AT_type(*$C$DW$T$11)
     543                            .dwattr $C$DW$92, DW_AT_location[DW_OP_reg3]
     544                    $C$DW$93        .dwtag  DW_TAG_variable, DW_AT_name("$O$f5")
     545                            .dwattr $C$DW$93, DW_AT_TI_symbol_name("$O$f5")
     546                            .dwattr $C$DW$93, DW_AT_type(*$C$DW$T$10)
     547                            .dwattr $C$DW$93, DW_AT_location[DW_OP_reg0]
     548                    $C$DW$94        .dwtag  DW_TAG_variable, DW_AT_name("$O$f6")
     549                            .dwattr $C$DW$94, DW_AT_TI_symbol_name("$O$f6")
     550                            .dwattr $C$DW$94, DW_AT_type(*$C$DW$T$10)
TMS320C6x Assembler PC v7.4.2 Thu Mar 19 12:38:22 2015

Tools Copyright (c) 1996-2012 Texas Instruments Incorporated
package/lib/Regression/regress_d_c/./../packages/ti/vlib/src/VLIB_afast9_detectCorners/VLIB_afast9_detectCorners_d.se66 PAGE   11

     551                            .dwattr $C$DW$94, DW_AT_location[DW_OP_reg0]
     552                    $C$DW$95        .dwtag  DW_TAG_variable, DW_AT_name("$O$K18")
     553                            .dwattr $C$DW$95, DW_AT_TI_symbol_name("$O$K18")
     554                            .dwattr $C$DW$95, DW_AT_type(*$C$DW$T$11)
     555                            .dwattr $C$DW$95, DW_AT_location[DW_OP_reg3]
     556                    $C$DW$96        .dwtag  DW_TAG_variable, DW_AT_name("$O$U15")
     557                            .dwattr $C$DW$96, DW_AT_TI_symbol_name("$O$U15")
     558                            .dwattr $C$DW$96, DW_AT_type(*$C$DW$T$70)
     559                            .dwattr $C$DW$96, DW_AT_location[DW_OP_reg13]
     560                    $C$DW$97        .dwtag  DW_TAG_variable, DW_AT_name("$O$K35")
     561                            .dwattr $C$DW$97, DW_AT_TI_symbol_name("$O$K35")
     562                            .dwattr $C$DW$97, DW_AT_type(*$C$DW$T$11)
     563                            .dwattr $C$DW$97, DW_AT_location[DW_OP_reg20]
     564                    $C$DW$98        .dwtag  DW_TAG_variable, DW_AT_name("$O$K50")
     565                            .dwattr $C$DW$98, DW_AT_TI_symbol_name("$O$K50")
     566                            .dwattr $C$DW$98, DW_AT_type(*$C$DW$T$111)
     567                            .dwattr $C$DW$98, DW_AT_location[DW_OP_reg12]
     568                    $C$DW$99        .dwtag  DW_TAG_variable, DW_AT_name("$O$K54")
     569                            .dwattr $C$DW$99, DW_AT_TI_symbol_name("$O$K54")
     570                            .dwattr $C$DW$99, DW_AT_type(*$C$DW$T$10)
     571                            .dwattr $C$DW$99, DW_AT_location[DW_OP_reg20]
     572                    $C$DW$100       .dwtag  DW_TAG_variable, DW_AT_name("$O$K71")
     573                            .dwattr $C$DW$100, DW_AT_TI_symbol_name("$O$K71")
     574                            .dwattr $C$DW$100, DW_AT_type(*$C$DW$T$10)
     575                            .dwattr $C$DW$100, DW_AT_location[DW_OP_regx 0x35]
     576                    $C$DW$101       .dwtag  DW_TAG_variable, DW_AT_name("$O$U72")
     577                            .dwattr $C$DW$101, DW_AT_TI_symbol_name("$O$U72")
     578                            .dwattr $C$DW$101, DW_AT_type(*$C$DW$T$70)
     579                            .dwattr $C$DW$101, DW_AT_location[DW_OP_regx 0x3a]
     580                    $C$DW$102       .dwtag  DW_TAG_variable, DW_AT_name("$O$U93")
     581                            .dwattr $C$DW$102, DW_AT_TI_symbol_name("$O$U93")
     582                            .dwattr $C$DW$102, DW_AT_type(*$C$DW$T$11)
     583                            .dwattr $C$DW$102, DW_AT_location[DW_OP_regx 0x2a]
     584                    $C$DW$103       .dwtag  DW_TAG_variable, DW_AT_name("$O$K96")
     585                            .dwattr $C$DW$103, DW_AT_TI_symbol_name("$O$K96")
     586                            .dwattr $C$DW$103, DW_AT_type(*$C$DW$T$10)
     587                            .dwattr $C$DW$103, DW_AT_location[DW_OP_regx 0x29]
     588                    $C$DW$104       .dwtag  DW_TAG_variable, DW_AT_name("$O$U106")
     589                            .dwattr $C$DW$104, DW_AT_TI_symbol_name("$O$U106")
     590                            .dwattr $C$DW$104, DW_AT_type(*$C$DW$T$11)
     591                            .dwattr $C$DW$104, DW_AT_location[DW_OP_reg24]
     592                    $C$DW$105       .dwtag  DW_TAG_variable, DW_AT_name("$O$K122")
     593                            .dwattr $C$DW$105, DW_AT_TI_symbol_name("$O$K122")
     594                            .dwattr $C$DW$105, DW_AT_type(*$C$DW$T$183)
     595                            .dwattr $C$DW$105, DW_AT_location[DW_OP_reg15]
     596                    $C$DW$106       .dwtag  DW_TAG_variable, DW_AT_name("$O$U137")
     597                            .dwattr $C$DW$106, DW_AT_TI_symbol_name("$O$U137")
     598                            .dwattr $C$DW$106, DW_AT_type(*$C$DW$T$133)
     599                            .dwattr $C$DW$106, DW_AT_location[DW_OP_reg6]
     600                    $C$DW$107       .dwtag  DW_TAG_variable, DW_AT_name("$O$U138")
     601                            .dwattr $C$DW$107, DW_AT_TI_symbol_name("$O$U138")
     602                            .dwattr $C$DW$107, DW_AT_type(*$C$DW$T$9)
     603                            .dwattr $C$DW$107, DW_AT_location[DW_OP_reg5]
     604                    $C$DW$108       .dwtag  DW_TAG_variable, DW_AT_name("$O$U136")
     605                            .dwattr $C$DW$108, DW_AT_TI_symbol_name("$O$U136")
TMS320C6x Assembler PC v7.4.2 Thu Mar 19 12:38:22 2015

Tools Copyright (c) 1996-2012 Texas Instruments Incorporated
package/lib/Regression/regress_d_c/./../packages/ti/vlib/src/VLIB_afast9_detectCorners/VLIB_afast9_detectCorners_d.se66 PAGE   12

     606                            .dwattr $C$DW$108, DW_AT_type(*$C$DW$T$9)
     607                            .dwattr $C$DW$108, DW_AT_location[DW_OP_reg22]
     608                    $C$DW$109       .dwtag  DW_TAG_variable, DW_AT_name("$O$U157")
     609                            .dwattr $C$DW$109, DW_AT_TI_symbol_name("$O$U157")
     610                            .dwattr $C$DW$109, DW_AT_type(*$C$DW$T$133)
     611                            .dwattr $C$DW$109, DW_AT_location[DW_OP_reg5]
     612                    $C$DW$110       .dwtag  DW_TAG_variable, DW_AT_name("$O$U14")
     613                            .dwattr $C$DW$110, DW_AT_TI_symbol_name("$O$U14")
     614                            .dwattr $C$DW$110, DW_AT_type(*$C$DW$T$10)
     615                            .dwattr $C$DW$110, DW_AT_location[DW_OP_reg27]
     616                    $C$DW$111       .dwtag  DW_TAG_variable, DW_AT_name("$O$K173")
     617                            .dwattr $C$DW$111, DW_AT_TI_symbol_name("$O$K173")
     618                            .dwattr $C$DW$111, DW_AT_type(*$C$DW$T$111)
     619                            .dwattr $C$DW$111, DW_AT_location[DW_OP_reg8]
     620                    $C$DW$112       .dwtag  DW_TAG_variable, DW_AT_name("$O$L1")
     621                            .dwattr $C$DW$112, DW_AT_TI_symbol_name("$O$L1")
     622                            .dwattr $C$DW$112, DW_AT_type(*$C$DW$T$10)
     623                            .dwattr $C$DW$112, DW_AT_location[DW_OP_reg17]
     624                    $C$DW$113       .dwtag  DW_TAG_variable, DW_AT_name("$O$L3")
     625                            .dwattr $C$DW$113, DW_AT_TI_symbol_name("$O$L3")
     626                            .dwattr $C$DW$113, DW_AT_type(*$C$DW$T$10)
     627                            .dwattr $C$DW$113, DW_AT_location[DW_OP_reg4]
     628                    $C$DW$114       .dwtag  DW_TAG_variable, DW_AT_name("$O$L4")
     629                            .dwattr $C$DW$114, DW_AT_TI_symbol_name("$O$L4")
     630                            .dwattr $C$DW$114, DW_AT_type(*$C$DW$T$10)
     631                            .dwattr $C$DW$114, DW_AT_location[DW_OP_reg4]
     632                    $C$DW$115       .dwtag  DW_TAG_variable, DW_AT_name("LevelOfFeedback")
     633                            .dwattr $C$DW$115, DW_AT_TI_symbol_name("LevelOfFeedback")
     634                            .dwattr $C$DW$115, DW_AT_type(*$C$DW$T$128)
     635                            .dwattr $C$DW$115, DW_AT_location[DW_OP_breg31 32]
     636                    $C$DW$116       .dwtag  DW_TAG_variable, DW_AT_name("tpi")
     637                            .dwattr $C$DW$116, DW_AT_TI_symbol_name("tpi")
     638                            .dwattr $C$DW$116, DW_AT_type(*$C$DW$T$31)
     639                            .dwattr $C$DW$116, DW_AT_location[DW_OP_reg14]
     640                    $C$DW$117       .dwtag  DW_TAG_variable, DW_AT_name("prm")
     641                            .dwattr $C$DW$117, DW_AT_TI_symbol_name("prm")
     642                            .dwattr $C$DW$117, DW_AT_type(*$C$DW$T$73)
     643                            .dwattr $C$DW$117, DW_AT_location[DW_OP_breg31 28]
     644                    $C$DW$118       .dwtag  DW_TAG_variable, DW_AT_name("status_nat_vs_int")
     645                            .dwattr $C$DW$118, DW_AT_TI_symbol_name("status_nat_vs_int")
     646                            .dwattr $C$DW$118, DW_AT_type(*$C$DW$T$31)
     647                            .dwattr $C$DW$118, DW_AT_location[DW_OP_reg28]
     648                    $C$DW$119       .dwtag  DW_TAG_variable, DW_AT_name("status_nat_vs_ref")
     649                            .dwattr $C$DW$119, DW_AT_TI_symbol_name("status_nat_vs_ref")
     650                            .dwattr $C$DW$119, DW_AT_type(*$C$DW$T$31)
     651                            .dwattr $C$DW$119, DW_AT_location[DW_OP_reg12]
     652                    $C$DW$120       .dwtag  DW_TAG_variable, DW_AT_name("totalFeatureHalfWords")
     653                            .dwattr $C$DW$120, DW_AT_TI_symbol_name("totalFeatureHalfWords")
     654                            .dwattr $C$DW$120, DW_AT_type(*$C$DW$T$48)
     655                            .dwattr $C$DW$120, DW_AT_location[DW_OP_breg31 36]
     656                    $C$DW$121       .dwtag  DW_TAG_variable, DW_AT_name("im1")
     657                            .dwattr $C$DW$121, DW_AT_TI_symbol_name("im1")
     658                            .dwattr $C$DW$121, DW_AT_type(*$C$DW$T$20)
     659                            .dwattr $C$DW$121, DW_AT_location[DW_OP_breg31 40]
     660                    $C$DW$122       .dwtag  DW_TAG_variable, DW_AT_name("outFeatures")
TMS320C6x Assembler PC v7.4.2 Thu Mar 19 12:38:22 2015

Tools Copyright (c) 1996-2012 Texas Instruments Incorporated
package/lib/Regression/regress_d_c/./../packages/ti/vlib/src/VLIB_afast9_detectCorners/VLIB_afast9_detectCorners_d.se66 PAGE   13

     661                            .dwattr $C$DW$122, DW_AT_TI_symbol_name("outFeatures")
     662                            .dwattr $C$DW$122, DW_AT_type(*$C$DW$T$22)
     663                            .dwattr $C$DW$122, DW_AT_location[DW_OP_breg31 44]
     664                    $C$DW$123       .dwtag  DW_TAG_variable, DW_AT_name("scratch")
     665                            .dwattr $C$DW$123, DW_AT_TI_symbol_name("scratch")
     666                            .dwattr $C$DW$123, DW_AT_type(*$C$DW$T$20)
     667                            .dwattr $C$DW$123, DW_AT_location[DW_OP_breg31 48]
     668                    $C$DW$124       .dwtag  DW_TAG_variable, DW_AT_name("outFeatures_cn")
     669                            .dwattr $C$DW$124, DW_AT_TI_symbol_name("outFeatures_cn")
     670                            .dwattr $C$DW$124, DW_AT_type(*$C$DW$T$22)
     671                            .dwattr $C$DW$124, DW_AT_location[DW_OP_breg31 52]
     672                    $C$DW$125       .dwtag  DW_TAG_variable, DW_AT_name("numFeatures")
     673                            .dwattr $C$DW$125, DW_AT_TI_symbol_name("numFeatures")
     674                            .dwattr $C$DW$125, DW_AT_type(*$C$DW$T$48)
     675                            .dwattr $C$DW$125, DW_AT_location[DW_OP_reg29]
     676                    $C$DW$126       .dwtag  DW_TAG_variable, DW_AT_name("numFeatures_cn")
     677                            .dwattr $C$DW$126, DW_AT_TI_symbol_name("numFeatures_cn")
     678                            .dwattr $C$DW$126, DW_AT_type(*$C$DW$T$48)
     679                            .dwattr $C$DW$126, DW_AT_location[DW_OP_reg10]
     680                    $C$DW$127       .dwtag  DW_TAG_variable, DW_AT_name("row")
     681                            .dwattr $C$DW$127, DW_AT_TI_symbol_name("row")
     682                            .dwattr $C$DW$127, DW_AT_type(*$C$DW$T$48)
     683                            .dwattr $C$DW$127, DW_AT_location[DW_OP_regx 0x27]
     684                    $C$DW$128       .dwtag  DW_TAG_variable, DW_AT_name("col")
     685                            .dwattr $C$DW$128, DW_AT_TI_symbol_name("col")
     686                            .dwattr $C$DW$128, DW_AT_type(*$C$DW$T$48)
     687                            .dwattr $C$DW$128, DW_AT_location[DW_OP_regx 0x26]
     688                    $C$DW$129       .dwtag  DW_TAG_variable, DW_AT_name("$O$V1")
     689                            .dwattr $C$DW$129, DW_AT_TI_symbol_name("$O$V1")
     690                            .dwattr $C$DW$129, DW_AT_type(*$C$DW$T$21)
     691                            .dwattr $C$DW$129, DW_AT_location[DW_OP_regx 0x3f]
     692                    $C$DW$130       .dwtag  DW_TAG_variable, DW_AT_name("$O$U135")
     693                            .dwattr $C$DW$130, DW_AT_TI_symbol_name("$O$U135")
     694                            .dwattr $C$DW$130, DW_AT_type(*$C$DW$T$133)
     695                            .dwattr $C$DW$130, DW_AT_location[DW_OP_reg21]
     696                    $C$DW$131       .dwtag  DW_TAG_variable, DW_AT_name("$O$U135")
     697                            .dwattr $C$DW$131, DW_AT_TI_symbol_name("$O$U135")
     698                            .dwattr $C$DW$131, DW_AT_type(*$C$DW$T$133)
     699                            .dwattr $C$DW$131, DW_AT_location[DW_OP_reg22]
     700                    $C$DW$132       .dwtag  DW_TAG_variable, DW_AT_name("i")
     701                            .dwattr $C$DW$132, DW_AT_TI_symbol_name("i")
     702                            .dwattr $C$DW$132, DW_AT_type(*$C$DW$T$31)
     703                            .dwattr $C$DW$132, DW_AT_location[DW_OP_reg20]
     704                    $C$DW$133       .dwtag  DW_TAG_variable, DW_AT_name("i")
     705                            .dwattr $C$DW$133, DW_AT_TI_symbol_name("i")
     706                            .dwattr $C$DW$133, DW_AT_type(*$C$DW$T$31)
     707                            .dwattr $C$DW$133, DW_AT_location[DW_OP_reg21]
     708                    $C$DW$134       .dwtag  DW_TAG_variable, DW_AT_name("$O$v1")
     709                            .dwattr $C$DW$134, DW_AT_TI_symbol_name("$O$v1")
     710                            .dwattr $C$DW$134, DW_AT_type(*$C$DW$T$73)
     711                            .dwattr $C$DW$134, DW_AT_location[DW_OP_regx 0x40]
     712                    $C$DW$135       .dwtag  DW_TAG_variable, DW_AT_name("$O$v1")
     713                            .dwattr $C$DW$135, DW_AT_TI_symbol_name("$O$v1")
     714                            .dwattr $C$DW$135, DW_AT_type(*$C$DW$T$73)
     715                            .dwattr $C$DW$135, DW_AT_location[DW_OP_reg26]
TMS320C6x Assembler PC v7.4.2 Thu Mar 19 12:38:22 2015

Tools Copyright (c) 1996-2012 Texas Instruments Incorporated
package/lib/Regression/regress_d_c/./../packages/ti/vlib/src/VLIB_afast9_detectCorners/VLIB_afast9_detectCorners_d.se66 PAGE   14

     716                    $C$DW$136       .dwtag  DW_TAG_variable, DW_AT_name("$O$v2")
     717                            .dwattr $C$DW$136, DW_AT_TI_symbol_name("$O$v2")
     718                            .dwattr $C$DW$136, DW_AT_type(*$C$DW$T$184)
     719                            .dwattr $C$DW$136, DW_AT_location[DW_OP_reg22]
     720                    $C$DW$137       .dwtag  DW_TAG_variable, DW_AT_name("$O$v2")
     721                            .dwattr $C$DW$137, DW_AT_TI_symbol_name("$O$v2")
     722                            .dwattr $C$DW$137, DW_AT_type(*$C$DW$T$184)
     723                            .dwattr $C$DW$137, DW_AT_location[DW_OP_reg22]
     724 00000010 0200002a!            MVKL    .S2     test_cases,B4
     725 00000014 0200006a!            MVKH    .S2     test_cases,B4
     726                    $C$DW$138       .dwtag  DW_TAG_TI_branch
     727                            .dwattr $C$DW$138, DW_AT_low_pc(0x00)
     728                            .dwattr $C$DW$138, DW_AT_name("afast9_detectCorners_getTestParams")
     729                            .dwattr $C$DW$138, DW_AT_TI_call
     730                    
     731 00000018 10000013!            CALLP   .S2     afast9_detectCorners_getTestParams,B3
     732 00000020     8d45  ||         STW     .D2T1   A4,*+SP(32)       ; |38| 
     733 00000022     e636  ||         ADDAW   .D1X    SP,7,A4           ; |44| 
     734                    
     735                            .dwpsn  file "./../packages/ti/vlib/src/VLIB_afast9_detectCorners/VLIB_afast9_detectCorners_d.
     736                    ;----------------------------------------------------------------------
     737                    ;  44 | afast9_detectCorners_getTestParams(&prm, &test_cases);                 
     738                    ;----------------------------------------------------------------------
     739 00000024           $C$RL0:    ; CALL OCCURS {afast9_detectCorners_getTestParams} {0}  ; |44| 
     740                    ;** --------------------------------------------------------------------------*
     741                    ;          EXCLUSIVE CPU CYCLES: 8
     742 00000024 0200002a!            MVKL    .S2     $C$SL1+0,B4
     743 00000028 0200006a!            MVKH    .S2     $C$SL1+0,B4
     744                    $C$DW$139       .dwtag  DW_TAG_TI_branch
     745                            .dwattr $C$DW$139, DW_AT_low_pc(0x00)
     746                            .dwattr $C$DW$139, DW_AT_name("VLIB_profile_init")
     747                            .dwattr $C$DW$139, DW_AT_TI_call
     748                    
     749 0000002c 10000013!            CALLP   .S2     VLIB_profile_init,B3
     750 00000030 020ca358  ||         MVK     .L1     0x3,A4            ; |47| 
     751                    
     752                            .dwpsn  file "./../packages/ti/vlib/src/VLIB_afast9_detectCorners/VLIB_afast9_detectCorners_d.
     753                    ;----------------------------------------------------------------------
     754                    ;  47 | VLIB_profile_init(3, "VLIB_afast9_detectCorners");                     
     755                    ;----------------------------------------------------------------------
     756 00000034           $C$RL1:    ; CALL OCCURS {VLIB_profile_init} {0}  ; |47| 
     757                    ;** --------------------------------------------------------------------------*
     758                    ;          EXCLUSIVE CPU CYCLES: 14
     759                    ;**     -----------------------    K$50 = &testPatternString[0];
     760                    ;**     -----------------------    K$54 = 128;
     761                    ;**     -----------------------    K$173 = &desc[0];
     762                    ;**     -----------------------    U$15 = prm-24;
     763                    ;**     -----------------------    K$18 = 0xfffffffau;
     764                    ;**     -----------------------    K$35 = 512u;
     765                    ;**     -----------------------    U$14 = 0;
     766                    ;** 50  -----------------------    tpi = 0;
     767                    ;**     -----------------------    #pragma LOOP_FLAGS(5120u)
     768                    
     769 00000034 01800029!            MVKL    .S1     test_cases,A3
     770 00000038 02bce2e4  ||         LDW     .D2T1   *+SP(28),A5
TMS320C6x Assembler PC v7.4.2 Thu Mar 19 12:38:22 2015

Tools Copyright (c) 1996-2012 Texas Instruments Incorporated
package/lib/Regression/regress_d_c/./../packages/ti/vlib/src/VLIB_afast9_detectCorners/VLIB_afast9_detectCorners_d.se66 PAGE   15

     771                    
     772 00000040 01800068!            MVKH    .S1     test_cases,A3
     773                            .dwpsn  file "./../packages/ti/vlib/src/VLIB_afast9_detectCorners/VLIB_afast9_detectCorners_d.
     774                    ;----------------------------------------------------------------------
     775                    ;  50 | for( tpi=0; tpi < test_cases; tpi++ ) {                                
     776                    ;----------------------------------------------------------------------
     777 00000044 020c0264             LDW     .D1T1   *A3,A4            ; |50| 
     778                            .dwpsn  file "./../packages/ti/vlib/src/VLIB_afast9_detectCorners/VLIB_afast9_detectCorners_d.
     779                    ;----------------------------------------------------------------------
     780                    ;  53 | int32_t    status_nat_vs_int = vlib_KERNEL_PASS; /* Test status : Natur
     781                    ;     | al c vs. Optimized */                                                  
     782                    ;  54 | int32_t    status_nat_vs_ref = vlib_KERNEL_PASS; /* Test status : Natur
     783                    ;     | al c vs. Static Reference */                                           
     784                    ;  57 | uint16_t    totalHalfWordsInRow    = ((prm[tpi].imageWidth  - 2 * 3) &
     785                    ;     | 0xFFF0U) >> 0x4U;                                                      
     786                    ;  58 | uint32_t    totalFeatureHalfWords  = totalHalfWordsInRow * (prm[tpi].im
     787                    ;     | ageHeight - 2 * 3);                                                    
     788                    ;----------------------------------------------------------------------
     789 00000048 0580a35a             ZERO    .L2     B11               ; |50| 
     790 0000004c 0700a358             ZERO    .L1     A14               ; |50| 
     791 00000050 069709c0             SUB     .D1     A5,24,A13
     792 00000054     0c6e             NOP             1
     793                            .dwpsn  file "./../packages/ti/vlib/src/VLIB_afast9_detectCorners/VLIB_afast9_detectCorners_d.
     794 00000056     1226             CMPGT   .L1     A4,0,A0           ; |50| 
     795                    
     796 00000058 d3844123     [!A0]   BNOP    .S2     $C$L21,2          ; |50| 
     797 00000060 c6800c50  || [ A0]   ADDK    .S1     24,A13            ; |58| 
     798                    
     799                            .dwpsn  file "./../packages/ti/vlib/src/VLIB_afast9_detectCorners/VLIB_afast9_detectCorners_d.
     800                    ;----------------------------------------------------------------------
     801                    ;  61 | uint8_t    *im1             =  (uint8_t *)  VLIB_malloc(prm[tpi].imageP
     802                    ;     | itch * prm[tpi].imageHeight);                                          
     803                    ;----------------------------------------------------------------------
     804 00000064 c1b50204     [ A0]   LDHU    .D1T1   *+A13(16),A3      ; |61| 
     805                            .dwpsn  file "./../packages/ti/vlib/src/VLIB_afast9_detectCorners/VLIB_afast9_detectCorners_d.
     806 00000068 c5b4c204     [ A0]   LDHU    .D1T1   *+A13(12),A11     ; |58| 
     807 0000006c c534e204     [ A0]   LDHU    .D1T1   *+A13(14),A10     ; |58| 
     808                            .dwpsn  file "./../packages/ti/vlib/src/VLIB_afast9_detectCorners/VLIB_afast9_detectCorners_d.
     809                               ; BRANCHCC OCCURS {$C$L21}        ; |50| 
     810                    ;** --------------------------------------------------------------------------*
     811                    ;**   BEGIN LOOP $C$L1
     812                    ;** --------------------------------------------------------------------------*
     813 00000070           $C$L1:    
     814                            .dwpsn  file "./../packages/ti/vlib/src/VLIB_afast9_detectCorners/VLIB_afast9_detectCorners_d.
     815 00000070           $C$DW$L$VLIB_afast9_detectCorners_d$4$B:
     816                    ;          EXCLUSIVE CPU CYCLES: 6
     817                    ;**     -----------------------g3:
     818                    ;** 58  -----------------------    C$13 = _extu((*(U$15 += 24)).imageWidth+K$18, 16u, 20u);
     819                    ;** 58  -----------------------    C$12 = (*U$15).imageHeight;
     820                    ;** 58  -----------------------    totalFeatureHalfWords = _mpyu(C$12, C$13)+(unsigned)_mpyus(C$13, (-
     821                    ;** 61  -----------------------    im1 = VLIB_malloc((unsigned)((*U$15).imagePitch*C$12));
     822                    ;** 62  -----------------------    C$11 = totalFeatureHalfWords*2u;
     823                    ;** 62  -----------------------    outFeatures = VLIB_malloc(C$11);
     824                    ;** 63  -----------------------    scratch = VLIB_memalign(8u, K$35);
     825                    ;** 64  -----------------------    outFeatures_cn = malloc(C$11);
TMS320C6x Assembler PC v7.4.2 Thu Mar 19 12:38:22 2015

Tools Copyright (c) 1996-2012 Texas Instruments Incorporated
package/lib/Regression/regress_d_c/./../packages/ti/vlib/src/VLIB_afast9_detectCorners/VLIB_afast9_detectCorners_d.se66 PAGE   16

     826                    ;** 69  -----------------------    if ( !((im1 != NULL)&(scratch != NULL)&(outFeatures != NULL)&(outFe
     827                            .dwpsn  file "./../packages/ti/vlib/src/VLIB_afast9_detectCorners/VLIB_afast9_detectCorners_d.
     828                    $C$DW$140       .dwtag  DW_TAG_TI_branch
     829                            .dwattr $C$DW$140, DW_AT_low_pc(0x00)
     830                            .dwattr $C$DW$140, DW_AT_name("VLIB_malloc")
     831                            .dwattr $C$DW$140, DW_AT_TI_call
     832 00000070 00000010!            CALL    .S1     VLIB_malloc       ; |61| 
     833 00000074 01884162             ADDKPC  .S2     $C$RL2,B3,2       ; |61| 
     834 00000078 020d4f80             MPYU    .M1     A10,A3,A4         ; |61| 
     835 0000007c 00000000             NOP             1
     836 00000080           $C$RL2:    ; CALL OCCURS {VLIB_malloc} {0}   ; |61| 
     837 00000080           $C$DW$L$VLIB_afast9_detectCorners_d$4$E:
     838                    ;** --------------------------------------------------------------------------*
     839 00000080           $C$DW$L$VLIB_afast9_detectCorners_d$5$B:
     840                    ;          EXCLUSIVE CPU CYCLES: 28
     841 00000080 01e8a358             MVK     .L1     0xfffffffa,A3
     842                            .dwpsn  file "./../packages/ti/vlib/src/VLIB_afast9_detectCorners/VLIB_afast9_detectCorners_d.
     843 00000084 01ac6078             ADD     .L1     A3,A11,A3         ; |58| 
     844 00000088 018e1408             EXTU    .S1     A3,16,20,A3       ; |58| 
     845                    
     846 00000090 023d42f4             STW     .D2T1   A4,*+SP(40)       ; |61| 
     847 0000008c 020d4f81  ||         MPYU    .M1     A10,A3,A4         ; |58| 
     848                    
     849 00000094 020f5f02             MPYSU   .M2X    -6,A3,B4          ; |58| 
     850 00000098     0c6e             NOP             1
     851 0000009a     9241             ADD     .L2X    B4,A4,B4          ; |58| 
     852                            .dwpsn  file "./../packages/ti/vlib/src/VLIB_afast9_detectCorners/VLIB_afast9_detectCorners_d.
     853                    ;----------------------------------------------------------------------
     854                    ;  62 | uint16_t   *outFeatures     =  (uint16_t *) VLIB_malloc(totalFeatureHal
     855                    ;     | fWords * sizeof(uint16_t));                                            
     856                    ;----------------------------------------------------------------------
     857 000000a0 0510807a             ADD     .L2     B4,B4,B10         ; |62| 
     858                            .dwpsn  file "./../packages/ti/vlib/src/VLIB_afast9_detectCorners/VLIB_afast9_detectCorners_d.
     859 000000a4     bd45             STW     .D2T2   B4,*+SP(36)       ; |58| 
     860                    $C$DW$141       .dwtag  DW_TAG_TI_branch
     861                            .dwattr $C$DW$141, DW_AT_low_pc(0x00)
     862                            .dwattr $C$DW$141, DW_AT_name("VLIB_malloc")
     863                            .dwattr $C$DW$141, DW_AT_TI_call
     864                    
     865 000000a8 10000012!            CALLP   .S2     VLIB_malloc,B3
     866 000000a6     9506  ||         MV      .L1X    B10,A4            ; |62| 
     867                    
     868                            .dwpsn  file "./../packages/ti/vlib/src/VLIB_afast9_detectCorners/VLIB_afast9_detectCorners_d.
     869 000000ac           $C$RL3:    ; CALL OCCURS {VLIB_malloc} {0}   ; |62| 
     870 000000ac 0201002a             MVK     .S2     0x200,B4
     871                    $C$DW$142       .dwtag  DW_TAG_TI_branch
     872                            .dwattr $C$DW$142, DW_AT_low_pc(0x00)
     873                            .dwattr $C$DW$142, DW_AT_name("VLIB_memalign")
     874                            .dwattr $C$DW$142, DW_AT_TI_call
     875                    
     876 000000b0 10000013!            CALLP   .S2     VLIB_memalign,B3
     877 000000b4     ed45  ||         STW     .D2T1   A4,*+SP(44)       ; |62| 
     878 000000b6     0e26  ||         MVK     .L1     0x8,A4            ; |63| 
     879                    
     880                            .dwpsn  file "./../packages/ti/vlib/src/VLIB_afast9_detectCorners/VLIB_afast9_detectCorners_d.
TMS320C6x Assembler PC v7.4.2 Thu Mar 19 12:38:22 2015

Tools Copyright (c) 1996-2012 Texas Instruments Incorporated
package/lib/Regression/regress_d_c/./../packages/ti/vlib/src/VLIB_afast9_detectCorners/VLIB_afast9_detectCorners_d.se66 PAGE   17

     881                    ;----------------------------------------------------------------------
     882                    ;  63 | uint8_t    *scratch         =  (uint8_t *)  VLIB_memalign(8, 32 * 16); 
     883                    ;----------------------------------------------------------------------
     884                    $C$RL4:    ; CALL OCCURS {VLIB_memalign} {0}  ; |63| 
     885                    $C$DW$143       .dwtag  DW_TAG_TI_branch
     886                            .dwattr $C$DW$143, DW_AT_low_pc(0x00)
     887                            .dwattr $C$DW$143, DW_AT_name("malloc")
     888                            .dwattr $C$DW$143, DW_AT_TI_call
     889                    
     890 000000c0 10000013!            CALLP   .S2     malloc,B3
     891 000000c4     8dc5  ||         STW     .D2T1   A4,*+SP(48)       ; |63| 
     892 000000c6     9506  ||         MV      .L1X    B10,A4            ; |64| 
     893                    
     894                            .dwpsn  file "./../packages/ti/vlib/src/VLIB_afast9_detectCorners/VLIB_afast9_detectCorners_d.
     895                    ;----------------------------------------------------------------------
     896                    ;  64 | uint16_t   *outFeatures_cn  =  (uint16_t *) malloc(totalFeatureHalfWord
     897                    ;     | s * sizeof(uint16_t));                                                 
     898                    ;  65 | uint32_t    numFeatures;                                               
     899                    ;  66 | uint32_t    numFeatures_cn;                                            
     900                    ;----------------------------------------------------------------------
     901 000000c8           $C$RL5:    ; CALL OCCURS {malloc} {0}        ; |64| 
     902 000000c8           $C$DW$L$VLIB_afast9_detectCorners_d$5$E:
     903                    ;** --------------------------------------------------------------------------*
     904 000000c8           $C$DW$L$VLIB_afast9_detectCorners_d$6$B:
     905                    ;          EXCLUSIVE CPU CYCLES: 17
     906                    
     907 000000c8     0627             ZERO    .L2     B4                ; |69| 
     908 000000ca     05a6  ||         ZERO    .L1     A3                ; |69| 
     909 000000cc     424e  ||         MV      .S1     A4,A2             ; |69| 
     910 000000ce     8d9d  ||         LDW     .D2T1   *+SP(48),A1       ; |69| 
     911                    
     912                            .dwpsn  file "./../packages/ti/vlib/src/VLIB_afast9_detectCorners/VLIB_afast9_detectCorners_d.
     913                    ;----------------------------------------------------------------------
     914                    ;  69 | if( im1 && scratch && outFeatures && outFeatures_cn ) {                
     915                    ;----------------------------------------------------------------------
     916 000000d0     cd0d             LDW     .D2T1   *+SP(40),A0       ; |69| 
     917 000000d2     fd0d             LDW     .D2T2   *+SP(44),B0       ; |69| 
     918 000000d4     06a7             ZERO    .L2     B5                ; |69| 
     919                            .dwpsn  file "./../packages/ti/vlib/src/VLIB_afast9_detectCorners/VLIB_afast9_detectCorners_d.
     920 000000d6     adc5             STW     .D2T1   A4,*+SP(52)       ; |64| 
     921                            .dwpsn  file "./../packages/ti/vlib/src/VLIB_afast9_detectCorners/VLIB_afast9_detectCorners_d.
     922                    ;----------------------------------------------------------------------
     923                    ;  71 | int32_t    fail;                                                       
     924                    ;  72 | int32_t    i;                                                          
     925                    ;----------------------------------------------------------------------
     926 000000d8 8204a35a     [ A1]   MVK     .L2     0x1,B4            ; |69| 
     927 000000e0     2ae7     [ A0]   MVK     .L2     0x1,B5            ; |69| 
     928                    
     929 000000e2     a9e6     [ B0]   MVK     .L1     0x1,A3            ; |69| 
     930 000000e4 02948f7b  ||         AND     .L2     B4,B5,B5          ; |69| 
     931 000000e8 0200002a  ||         ZERO    .S2     B4                ; |69| 
     932                    
     933 000000ec a204a35a     [ A2]   MVK     .L2     0x1,B4            ; |69| 
     934 000000f0 028cbf7a             AND     .L2X    A3,B5,B5          ; |69| 
     935 000000f4 00148f7a             AND     .L2     B4,B5,B0          ; |69| 
TMS320C6x Assembler PC v7.4.2 Thu Mar 19 12:38:22 2015

Tools Copyright (c) 1996-2012 Texas Instruments Incorporated
package/lib/Regression/regress_d_c/./../packages/ti/vlib/src/VLIB_afast9_detectCorners/VLIB_afast9_detectCorners_d.se66 PAGE   18

     936                    
     937 000000f8 3000ba91     [!B0]   B       .S1     $C$L19            ; |69| 
     938 00000100 25350205  || [ B0]   LDHU    .D1T1   *+A13(16),A10     ; |75| 
     939 00000104 2200402a  || [ B0]   MVK     .S2     0x80,B4
     940                    
     941 00000108 233d42e5     [ B0]   LDW     .D2T1   *+SP(40),A6       ; |75| 
     942 0000010c 2434e207  || [ B0]   LDHU    .D1T2   *+A13(14),B8      ; |75| 
     943 00000110 26000028! || [ B0]   MVKL    .S1     testPatternString,A12
     944                    
     945                            .dwpsn  file "./../packages/ti/vlib/src/VLIB_afast9_detectCorners/VLIB_afast9_detectCorners_d.
     946                    ;----------------------------------------------------------------------
     947                    ;  75 | VLIB_fillBuffer(prm[tpi].testPattern,                                  
     948                    ;  76 |                 (uint8_t)128,                                          
     949                    ;  77 |                 im1, prm[tpi].staticIn,                                
     950                    ;  78 |                 prm[tpi].imageWidth, prm[tpi].imageHeight, prm[tpi].ima
     951                    ;     | gePitch,                                                               
     952                    ;  79 |                 sizeof(uint8_t), testPatternString);                   
     953                    ;  81 | if( prm[tpi].testPattern == CUSTOM ) {  /* Custom pattern of 3x3 blocks
     954                    ;     |  to generate most corners*/                                            
     955                    ;  82 |     uint32_t    row, col;                                              
     956                    ;  83 |     uint8_t     val = 128;                                             
     957                    ;  85 |     for( row= 0; row < prm[tpi].imageHeight; row++ ) {                 
     958                    ;  86 |         for( col=0; col < prm[tpi].imageWidth - 5; col+=6 ) {          
     959                    ;  87 |             im1[row * prm[tpi].imagePitch + col] = 0;                  
     960                    ;  88 |             im1[row * prm[tpi].imagePitch + col + 1] = 0;              
     961                    ;  89 |             im1[row * prm[tpi].imagePitch + col + 2] = 0;              
     962                    ;  90 |             if((row % 6) < 3 ) {                                       
     963                    ;  91 |                 im1[row * prm[tpi].imagePitch + col + 3] = 0;          
     964                    ;  92 |                 im1[row * prm[tpi].imagePitch + col + 4] = 0;          
     965                    ;  93 |                 im1[row * prm[tpi].imagePitch + col + 5] = 0;          
     966                    ;  94 |             } else {                                                   
     967                    ;  95 |                 im1[row * prm[tpi].imagePitch + col + 3] = val;        
     968                    ;  96 |                 im1[row * prm[tpi].imagePitch + col + 4] = val;        
     969                    ;  97 |                 im1[row * prm[tpi].imagePitch + col + 5] = val;        
     970                    ; 104 | VLIB_profile_start(vlib_KERNEL_OPT);                                   
     971                    ; 106 | numFeatures = VLIB_afast9_detectCorners(im1,                           
     972                    ; 107 |                                         prm[tpi].imageWidth,           
     973                    ; 108 |                                         prm[tpi].imageHeight,          
     974                    ; 109 |                                         prm[tpi].imagePitch,           
     975                    ; 110 |                                         prm[tpi].threshold,            
     976                    ; 111 |                                         outFeatures,                   
     977                    ; 112 |                                         scratch);                      
     978                    ; 113 | VLIB_profile_stop();                                                   
     979                    ; 116 | VLIB_profile_start(vlib_KERNEL_CN);                                    
     980                    ; 117 | numFeatures_cn = VLIB_afast9_detectCorners_cn(im1,                     
     981                    ; 118 |                                               prm[tpi].imageWidth,     
     982                    ; 119 |                                               prm[tpi].imageHeight,    
     983                    ; 120 |                                               prm[tpi].imagePitch,     
     984                    ; 121 |                                               prm[tpi].threshold,      
     985                    ; 122 |                                               outFeatures_cn,          
     986                    ; 123 |                                               scratch);                
     987                    ; 124 | VLIB_profile_stop();                                                   
     988                    ; 126 | for( i=0; i < totalFeatureHalfWords; i++ ) {                           
     989                    ; 127 |     if( outFeatures_cn[i] != outFeatures[i] ) {                        
     990                    ; 128 |         status_nat_vs_int = vlib_KERNEL_FAIL;                          
TMS320C6x Assembler PC v7.4.2 Thu Mar 19 12:38:22 2015

Tools Copyright (c) 1996-2012 Texas Instruments Incorporated
package/lib/Regression/regress_d_c/./../packages/ti/vlib/src/VLIB_afast9_detectCorners/VLIB_afast9_detectCorners_d.se66 PAGE   19

     991                    ; 129 |         if( LevelOfFeedback > 0 ) {                                    
     992                    ; 130 |             printf(" Mismatch in Index = %u,%x,%x \n", i, outFeatures_c
     993                    ;     | n[i], outFeatures[i]);                                                 
     994                    ; 132 |         break;                                                         
     995                    ; 136 | if( numFeatures != numFeatures_cn ) {                                  
     996                    ; 137 |     status_nat_vs_int = vlib_KERNEL_FAIL;                              
     997                    ; 141 | if( prm[tpi].staticOut != NULL ) {                                     
     998                    ; 142 |     if( numFeatures_cn == numFeatures ) {                              
     999                    ; 143 |         for( i=0; i < totalFeatureHalfWords; i++ ) {                   
    1000                    ; 144 |             if( outFeatures_cn[i] != prm[tpi].staticOut[i] ) {         
    1001                    ; 145 |                 status_nat_vs_ref = vlib_KERNEL_FAIL;                  
    1002                    ; 146 |                 if( LevelOfFeedback > 0 ) {                            
    1003                    ; 147 |                     printf(" Mismatch in Index = %u \n", i);           
    1004                    ; 149 |                 break;                                                 
    1005                    ; 152 |     } else {                                                           
    1006                    ; 153 |         status_nat_vs_ref = vlib_KERNEL_FAIL;                          
    1007                    ; 158 | fail = ((status_nat_vs_int == vlib_KERNEL_FAIL) ||                     
    1008                    ; 159 |         (status_nat_vs_ref == vlib_KERNEL_FAIL)) ? 1 : 0;              
    1009                    ; 161 | est_test=1;                                                            
    1010                    ; 164 | sprintf(desc, "%s generated input | Opt and NatC results compared | wid
    1011                    ;     | th= %d, height= %d, n_features found= %d, %s",                         
    1012                    ; 165 |         testPatternString, prm[tpi].imageWidth, prm[tpi].imageHeight, n
    1013                    ;     | umFeatures, prm[tpi].desc);                                            
    1014                    ; 167 | VLIB_formula_add_test(totalFeatureHalfWords * 16, prm[tpi].imageHeight
    1015                    ;     | - 6, NULL, fail, desc, NULL);                                          
    1016                    ; 169 | } else {                                                               
    1017                    ;----------------------------------------------------------------------
    1018 00000114 2434c204     [ B0]   LDHU    .D1T1   *+A13(12),A8      ; |75| 
    1019                    $C$DW$144       .dwtag  DW_TAG_TI_branch
    1020                            .dwattr $C$DW$144, DW_AT_low_pc(0x00)
    1021                            .dwattr $C$DW$144, DW_AT_name("VLIB_fillBuffer")
    1022                            .dwattr $C$DW$144, DW_AT_TI_call
    1023                    
    1024 00000118 20000011!    [ B0]   CALL    .S1     VLIB_fillBuffer   ; |75| 
    1025 0000011c 23342266  || [ B0]   LDW     .D1T2   *+A13(4),B6       ; |75| 
    1026                    
    1027 00000120 22340214     [ B0]   LDBU    .D1T1   *A13,A4           ; |75| 
    1028                            .dwpsn  file "./../packages/ti/vlib/src/VLIB_afast9_detectCorners/VLIB_afast9_detectCorners_d.
    1029                    ;----------------------------------------------------------------------
    1030                    ; 171 | sprintf(desc, "width= %d, height= %d",                                 
    1031                    ; 172 |         prm[tpi].imageWidth, prm[tpi].imageHeight);                    
    1032                    ; 173 | VLIB_skip_test(desc);                                                  
    1033                    ;----------------------------------------------------------------------
    1034 00000124 3234c204     [!B0]   LDHU    .D1T1   *+A13(12),A4      ; |171| 
    1035                            .dwpsn  file "./../packages/ti/vlib/src/VLIB_afast9_detectCorners/VLIB_afast9_detectCorners_d.
    1036                               ; BRANCHCC OCCURS {$C$L19}        ; |69| 
    1037 00000128           $C$DW$L$VLIB_afast9_detectCorners_d$6$E:
    1038                    ;** --------------------------------------------------------------------------*
    1039 00000128           $C$DW$L$VLIB_afast9_detectCorners_d$7$B:
    1040                    ;          EXCLUSIVE CPU CYCLES: 3
    1041                    ;** 75  -----------------------    VLIB_fillBuffer((*U$15).testPattern, (unsigned char)K$54, (void *)i
    1042                    ;** 81  -----------------------    v$1 = prm;
    1043                    ;**     -----------------------    K$122 = &cycles[0];
    1044                    ;** 53  -----------------------    status_nat_vs_int = 1;
    1045                    ;** 54  -----------------------    status_nat_vs_ref = 1;
TMS320C6x Assembler PC v7.4.2 Thu Mar 19 12:38:22 2015

Tools Copyright (c) 1996-2012 Texas Instruments Incorporated
package/lib/Regression/regress_d_c/./../packages/ti/vlib/src/VLIB_afast9_detectCorners/VLIB_afast9_detectCorners_d.se66 PAGE   20

    1046                    ;** 81  -----------------------    if ( (*U$15).testPattern != 5 ) goto g14;
    1047                            .dwpsn  file "./../packages/ti/vlib/src/VLIB_afast9_detectCorners/VLIB_afast9_detectCorners_d.
    1048 00000128 0213180a             EXTU    .S2     B4,24,24,B4       ; |75| 
    1049 0000012c 0504a35a             MVK     .L2     0x1,B10           ; |75| 
    1050                    
    1051 00000130 06000069!            MVKH    .S1     testPatternString,A12
    1052 00000134 01860162  ||         ADDKPC  .S2     $C$RL6,B3,0       ; |75| 
    1053                    
    1054 00000138           $C$RL6:    ; CALL OCCURS {VLIB_fillBuffer} {0}  ; |75| 
    1055 00000138           $C$DW$L$VLIB_afast9_detectCorners_d$7$E:
    1056                    ;** --------------------------------------------------------------------------*
    1057 00000138           $C$DW$L$VLIB_afast9_detectCorners_d$8$B:
    1058                    ;          EXCLUSIVE CPU CYCLES: 12
    1059                    
    1060 00000138 06280fdb             MV      .L2     B10,B12           ; |81| 
    1061 0000013c 01b40214  ||         LDBU    .D1T1   *A13,A3           ; |81| 
    1062                    
    1063                            .dwpsn  file "./../packages/ti/vlib/src/VLIB_afast9_detectCorners/VLIB_afast9_detectCorners_d.
    1064 00000140 06281fd8             MV      .L1X    B10,A12           ; |81| 
    1065 00000144 07800028!            MVKL    .S1     cycles,A15
    1066 00000148 0dbce2e6             LDW     .D2T2   *+SP(28),B27      ; |81| 
    1067 0000014c 07800068!            MVKH    .S1     cycles,A15
    1068 00000150     a1a6             CMPEQ   .L1     A3,5,A0           ; |81| 
    1069                    
    1070 00000154 d0d86121     [!A0]   BNOP    .S1     $C$L7,3           ; |81| 
    1071 00000152     2046  ||         MV      .L1     A0,A1             ; guard predicate rewrite
    1072 00000158 c034e204  || [ A0]   LDHU    .D1T1   *+A13(14),A0      ; |85| 
    1073                    
    1074                            .dwpsn  file "./../packages/ti/vlib/src/VLIB_afast9_detectCorners/VLIB_afast9_detectCorners_d.
    1075 00000160 9004a358     [!A1]   MVK     .L1     0x1,A0            ; |85| nullify predicate
    1076 00000164 d0003210     [!A0]   B       .S1     $C$L7             ; |85| 
    1077                            .dwpsn  file "./../packages/ti/vlib/src/VLIB_afast9_detectCorners/VLIB_afast9_detectCorners_d.
    1078                               ; BRANCHCC OCCURS {$C$L7}         ; |81| 
    1079 00000168           $C$DW$L$VLIB_afast9_detectCorners_d$8$E:
    1080                    ;** --------------------------------------------------------------------------*
    1081 00000168           $C$DW$L$VLIB_afast9_detectCorners_d$9$B:
    1082                    ;          EXCLUSIVE CPU CYCLES: 5
    1083                    ;** 85  -----------------------    if ( !(C$10 = (*U$15).imageHeight) ) goto g14;
    1084 00000168 cd34c206     [ A0]   LDHU    .D1T2   *+A13(12),B26
    1085 0000016c caaf607a     [ A0]   ADD     .L2     B27,B11,B21
    1086 00000170 ca004028     [ A0]   MVK     .S1     0x80,A20
    1087 00000174     2c6e             NOP             2
    1088                            .dwpsn  file "./../packages/ti/vlib/src/VLIB_afast9_detectCorners/VLIB_afast9_detectCorners_d.
    1089                               ; BRANCHCC OCCURS {$C$L7}         ; |85| 
    1090 00000180           $C$DW$L$VLIB_afast9_detectCorners_d$9$E:
    1091                    ;** --------------------------------------------------------------------------*
    1092 00000180           $C$DW$L$VLIB_afast9_detectCorners_d$10$B:
    1093                    ;          EXCLUSIVE CPU CYCLES: 2
    1094                    ;**     -----------------------    V$1 = (*U$15).imageWidth;
    1095                    ;** 86  -----------------------    L$1 = (unsigned)C$10;
    1096                    ;** 85  -----------------------    row = 0u;
    1097                    ;**     -----------------------    #pragma MUST_ITERATE(1, 65535, 1)
    1098                    ;**     -----------------------    #pragma LOOP_FLAGS(4096u)
    1099                    
    1100 00000180     0526             ZERO    .L1     A18               ; |85| 
TMS320C6x Assembler PC v7.4.2 Thu Mar 19 12:38:22 2015

Tools Copyright (c) 1996-2012 Texas Instruments Incorporated
package/lib/Regression/regress_d_c/./../packages/ti/vlib/src/VLIB_afast9_detectCorners/VLIB_afast9_detectCorners_d.se66 PAGE   21

    1101 00000182     0392  ||         ZERO    .S1     A23
    1102 00000184     dad6  ||         MV      .D1X    B21,A22
    1103 0000018c 0068aa5a  ||         CMPEQ   .L2     B26,5,B0          ; |86| 
    1104 00000188 008016a3  ||         MV      .S2X    A0,B1             ; |86| 
    1105 00000186     1877  ||         ZERO    .D2     B16
    1106                    
    1107 00000194     9a47             MV      .L2X    A20,B20
    1108 00000190 046b61a3  ||         SUB     .S2     B26,5,B8
    1109                    
    1110 000001a0           $C$DW$L$VLIB_afast9_detectCorners_d$10$E:
    1111                    ;** --------------------------------------------------------------------------*
    1112                    ;**   BEGIN LOOP $C$L2
    1113                    ;** --------------------------------------------------------------------------*
    1114 000001a0           $C$L2:    
    1115                            .dwpsn  file "./../packages/ti/vlib/src/VLIB_afast9_detectCorners/VLIB_afast9_detectCorners_d.
    1116 000001a0           $C$DW$L$VLIB_afast9_detectCorners_d$11$B:
    1117                    ;          EXCLUSIVE CPU CYCLES: 6
    1118                    ;**     -----------------------g7:
    1119                    ;** 86  -----------------------    if ( (unsigned)V$1 == 5u ) goto g13;
    1120                    
    1121 000001a0 20a0a121     [ B0]   BNOP    .S1     $C$L6,5           ; |86| 
    1122 000001a4 3004a35a  || [!B0]   MVK     .L2     0x1,B0            ; init sploopw predicate
    1123                    
    1124                            .dwpsn  file "./../packages/ti/vlib/src/VLIB_afast9_detectCorners/VLIB_afast9_detectCorners_d.
    1125                               ; BRANCHCC OCCURS {$C$L6}         ; |86| 
    1126 000001a8           $C$DW$L$VLIB_afast9_detectCorners_d$11$E:
    1127                    ;** --------------------------------------------------------------------------*
    1128                            .dwpsn  file "./../packages/ti/vlib/src/VLIB_afast9_detectCorners/VLIB_afast9_detectCorners_d.
    1129 000001a8           $C$DW$L$VLIB_afast9_detectCorners_d$12$B:
    1130                    ;**     -----------------------    K$71 = 0;
    1131                    ;**     -----------------------    K$96 = K$54;
    1132                    ;**     -----------------------    U$72 = U$14+v$1;
    1133                    ;**     -----------------------    U$93 = row-_mpyhlu(_mpyu(row, 43691u)>>2, 6u);
    1134                    ;**     -----------------------    U$106 = (unsigned)V$1-5u;
    1135                    ;** 86  -----------------------    col = 0u;
    1136                    ;**     -----------------------    #pragma MUST_ITERATE(1, 10922, 1)
    1137                    ;**     -----------------------    #pragma LOOP_FLAGS(0u)
    1138                    ;**     -----------------------g9:
    1139                    ;** 87  -----------------------    im1[(int)col+(int)((unsigned)(*U$72).imagePitch*row)] = K$71;
    1140                    ;** 88  -----------------------    im1[(unsigned)(*U$72).imagePitch*row+col+1] = K$71;
    1141                    ;** 89  -----------------------    im1[(unsigned)(*U$72).imagePitch*row+col+2] = K$71;
    1142                    ;** 90  -----------------------    if ( U$93 < 3u ) goto g11;
    1143                    ;** 95  -----------------------    im1[(unsigned)(*U$72).imagePitch*row+col+3] = K$96;
    1144                    ;** 96  -----------------------    im1[(unsigned)(*U$72).imagePitch*row+col+4] = K$96;
    1145                    ;** 97  -----------------------    im1[(unsigned)(*U$72).imagePitch*row+col+5] = K$96;
    1146                    ;** 97  -----------------------    goto g12;
    1147                    ;**     -----------------------g11:
    1148                    ;** 91  -----------------------    im1[(unsigned)(*U$72).imagePitch*row+col+3] = K$71;
    1149                    ;** 92  -----------------------    im1[(unsigned)(*U$72).imagePitch*row+col+4] = K$71;
    1150                    ;** 93  -----------------------    im1[(unsigned)(*U$72).imagePitch*row+col+5] = K$71;
    1151                    ;**     -----------------------g12:
    1152                    ;** 86  -----------------------    if ( (col += 6u) < U$106 ) goto g9;
    1153 000001a8           $C$DW$L$VLIB_afast9_detectCorners_d$12$E:
    1154                    ;*----------------------------------------------------------------------------*
    1155                    ;*   SOFTWARE PIPELINE INFORMATION
TMS320C6x Assembler PC v7.4.2 Thu Mar 19 12:38:22 2015

Tools Copyright (c) 1996-2012 Texas Instruments Incorporated
package/lib/Regression/regress_d_c/./../packages/ti/vlib/src/VLIB_afast9_detectCorners/VLIB_afast9_detectCorners_d.se66 PAGE   22

    1156                    ;*
    1157                    ;*      Loop found in file               : ./../packages/ti/vlib/src/VLIB_afast9_detectCorners/VLIB_af
    1158                    ;*      Loop source line                 : 86
    1159                    ;*      Loop opening brace source line   : 86
    1160                    ;*      Loop closing brace source line   : 99
    1161                    ;*      Known Minimum Trip Count         : 1                    
    1162                    ;*      Known Maximum Trip Count         : 10922                    
    1163                    ;*      Known Max Trip Count Factor      : 1
    1164                    ;*      Loop Carried Dependency Bound(^) : 7
    1165                    ;*      Unpartitioned Resource Bound     : 9
    1166                    ;*      Partitioned Resource Bound(*)    : 9
    1167                    ;*      Resource Partition:
    1168                    ;*                                A-side   B-side
    1169                    ;*      .L units                     1        1     
    1170                    ;*      .S units                     0        0     
    1171                    ;*      .D units                     9*       9*    
    1172                    ;*      .M units                     5        4     
    1173                    ;*      .X cross paths               1        2     
    1174                    ;*      .T address paths             9*       9*    
    1175                    ;*      Long read paths              0        0     
    1176                    ;*      Long write paths             0        0     
    1177                    ;*      Logical  ops (.LS)           0        0     (.L or .S unit)
    1178                    ;*      Addition ops (.LSD)         10       12     (.L or .S or .D unit)
    1179                    ;*      Bound(.L .S .LS)             1        1     
    1180                    ;*      Bound(.L .S .D .LS .LSD)     7        8     
    1181                    ;*
    1182                    ;*      Searching for software pipeline schedule at ...
    1183                    ;*         ii = 9  Schedule found with 4 iterations in parallel
    1184                    ;*
    1185                    ;*      Register Usage Table:
    1186                    ;*          +-----------------------------------------------------------------+
    1187                    ;*          |AAAAAAAAAAAAAAAAAAAAAAAAAAAAAAAA|BBBBBBBBBBBBBBBBBBBBBBBBBBBBBBBB|
    1188                    ;*          |00000000001111111111222222222233|00000000001111111111222222222233|
    1189                    ;*          |01234567890123456789012345678901|01234567890123456789012345678901|
    1190                    ;*          |--------------------------------+--------------------------------|
    1191                    ;*       0: |** ** * *       ********        |    ******      ****** * *      |
    1192                    ;*       1: |** ** * *       ********        |    ******      ******** *      |
    1193                    ;*       2: |** *  * **      ********        |    ******      **********      |
    1194                    ;*       3: |** **** **      ********        |    ******      * ********      |
    1195                    ;*       4: |** *******      ********        |    ******      ******** *      |
    1196                    ;*       5: |** **** **      ********        |*   ******      * ****** *      |
    1197                    ;*       6: |** **** *       ********        |    ** ***      * ****** *      |
    1198                    ;*       7: |** **** *       ********        |    ** ***      * ****** *      |
    1199                    ;*       8: |** ** * *       ********        |    ** ***      ****** * *      |
    1200                    ;*          +-----------------------------------------------------------------+
    1201                    ;*
    1202                    ;*      Done
    1203                    ;*
    1204                    ;*      Loop will be splooped
    1205                    ;*      Collapsed epilog stages       : 3
    1206                    ;*      Collapsed prolog stages       : 0
    1207                    ;*      Minimum required memory pad   : 0 bytes
    1208                    ;*
    1209                    ;*      Minimum safe trip count       : 1
    1210                    ;*      Min. prof. trip count  (est.) : 4
TMS320C6x Assembler PC v7.4.2 Thu Mar 19 12:38:22 2015

Tools Copyright (c) 1996-2012 Texas Instruments Incorporated
package/lib/Regression/regress_d_c/./../packages/ti/vlib/src/VLIB_afast9_detectCorners/VLIB_afast9_detectCorners_d.se66 PAGE   23

    1211                    ;*
    1212                    ;*      Mem bank conflicts/iter(est.) : { min 2.000, est 2.875, max 9.000 }
    1213                    ;*      Mem bank perf. penalty (est.) : 24.2%
    1214                    ;*
    1215                    ;*      Effective ii                : { min 11.00, est 11.88, max 18.00 }
    1216                    ;*
    1217                    ;*
    1218                    ;*      Total cycles (est.)         : 27 + trip_cnt * 9        
    1219                    ;*----------------------------------------------------------------------------*
    1220                    ;*       SETUP CODE
    1221                    ;*
    1222                    ;*                  MV              A23,B16
    1223                    ;*                  MV              A22,B21
    1224                    ;*                  MV              A20,B20
    1225                    ;*                  MV              A19,B4
    1226                    ;*                  MV              A18,B9
    1227                    ;*                  MV              A17,B19
    1228                    ;*
    1229                    ;*        SINGLE SCHEDULED ITERATION
    1230                    ;*
    1231                    ;*        $C$C175:
    1232                    ;*   8              LDHU    .D2T1   *+B21(16),A4      ; |88| 
    1233                    ;*   9              LDHU    .D2T2   *+B21(16),B7      ; |89| 
    1234                    ;*  10              NOP             3
    1235                    ;*  13              MPY32   .M1     A18,A4,A3         ; |88| 
    1236                    ;*  14              NOP             1
    1237                    ;*  15              LDHU    .D2T2   *+B21(16),B6      ; |87| 
    1238                    ;*  16              CMPLTU  .L1     A21,3,A1          ; |90|  ^ 
    1239                    ;*  17              MPY32   .M2     B9,B7,B6          ; |89| 
    1240                    ;*     ||   [ A1]   LDHU    .D1T2   *+A22(16),B25     ; |93| 
    1241                    ;*  18      [!A1]   LDHU    .D1T1   *+A22(16),A16     ; |95|  ^ 
    1242                    ;*  19      [ A1]   LDHU    .D1T2   *+A22(16),B23     ; |91|  ^ 
    1243                    ;*  20              MV      .L1X    B6,A4             ; |87| Define a twin register
    1244                    ;*     ||   [!A1]   LDHU    .D1T2   *+A22(16),B18     ; |96|  ^ 
    1245                    ;*  21              MPY32   .M1     A18,A4,A4         ; |87| 
    1246                    ;*     ||   [ A1]   LDHU    .D1T1   *+A22(16),A6      ; |92| 
    1247                    ;*  22      [!A1]   LDHU    .D1T1   *+A22(16),A8      ; |97| 
    1248                    ;*  23              ADD     .L1     A17,A3,A3         ; |88| 
    1249                    ;*     ||           ADD     .L2     B19,B6,B5         ; |89| 
    1250                    ;*     ||           MPY32   .M1     A18,A16,A4        ; |95|  ^ 
    1251                    ;*     ||           MPY32   .M2     B9,B25,B7         ; |93| 
    1252                    ;*  24              ADD     .L2     B4,B5,B5          ; |89| 
    1253                    ;*     ||           MPY32   .M2     B9,B23,B22        ; |91|  ^ 
    1254                    ;*  25              ADD     .L2X    B4,A3,B17         ; |88| Define a twin register
    1255                    ;*     ||           MV      .S1     A1,A0             ; |90|  ^ Split a long life(pre-sched)
    1256                    ;*     ||           MPY32   .M2     B9,B18,B7         ; |96|  ^ 
    1257                    ;*  26              ADD     .L2X    A4,B19,B6         ; |87| Define a twin register
    1258                    ;*     ||           MPY32   .M1     A18,A6,A5         ; |92| 
    1259                    ;*  27              ADD     .L1     A17,A4,A4         ; |95|  ^ 
    1260                    ;*     ||           MPY32   .M1     A18,A8,A7         ; |97| 
    1261                    ;*     ||           ADD     .L2     B19,B7,B7         ; |93| 
    1262                    ;*  28              STB     .D2T1   A23,*+B6[B4]      ; |87| 
    1263                    ;*     ||           ADD     .L1     A19,A4,A9         ; |95|  ^ 
    1264                    ;*     ||           ADD     .S2     B19,B22,B24       ; |91|  ^ 
    1265                    ;*     ||           ADD     .L2     B4,B7,B22         ; |93| 
TMS320C6x Assembler PC v7.4.2 Thu Mar 19 12:38:22 2015

Tools Copyright (c) 1996-2012 Texas Instruments Incorporated
package/lib/Regression/regress_d_c/./../packages/ti/vlib/src/VLIB_afast9_detectCorners/VLIB_afast9_detectCorners_d.se66 PAGE   24

    1266                    ;*  29              STB     .D2T1   A23,*+B17(1)      ; |88| 
    1267                    ;*     ||           ADD     .S2     B19,B7,B7         ; |96|  ^ 
    1268                    ;*     ||           ADD     .L2     6,B19,B19         ; |86| 
    1269                    ;*  30              STB     .D2T2   B16,*+B5(2)       ; |89| 
    1270                    ;*     ||           ADD     .S2     B4,B24,B17        ; |91|  ^ 
    1271                    ;*     ||           ADD     .L1     A17,A5,A5         ; |92| 
    1272                    ;*     ||           CMPLTU  .L2     B19,B8,B5         ; |86| 
    1273                    ;*  31              ADD     .L2     B4,B7,B5          ; |96|  ^ 
    1274                    ;*     ||           ADD     .S1     A17,A7,A4         ; |97| 
    1275                    ;*     ||   [ A0]   STB     .D2T2   B16,*+B17(3)      ; |91| 
    1276                    ;*     ||           ADD     .L1     6,A17,A17         ; |86| Define a twin register
    1277                    ;*     ||           MV      .S2     B5,B0             ; |86| 
    1278                    ;*  32      [!A0]   STB     .D1T1   A20,*+A9(3)       ; |95| 
    1279                    ;*     ||   [!A0]   STB     .D2T2   B20,*+B5(4)       ; |96| 
    1280                    ;*     ||           ADD     .S1     A19,A4,A4         ; |97| 
    1281                    ;*     ||   [ B0]   SPWBR           $C$C175
    1282                    ;*  33      [!A0]   STB     .D1T1   A20,*+A4(5)       ; |97| 
    1283                    ;*     ||           ADD     .L1     A19,A5,A5         ; |92| 
    1284                    ;*  34      [ A0]   STB     .D1T1   A23,*+A5(4)       ; |92| 
    1285                    ;*     ||   [ A0]   STB     .D2T2   B16,*+B22(5)      ; |93| 
    1286                    ;*  35              NOP             1
    1287                    ;*  36              ; BRANCHCC OCCURS {$C$C175}       ; |86| 
    1288                    ;*----------------------------------------------------------------------------*
    1289 000001a8           $C$L3:    ; PIPED LOOP PROLOG
    1290                    ;          EXCLUSIVE CPU CYCLES: 28
    1291 000001a8 2403e000     [ B0]   SPLOOPW 9       ;36               ; (P) 
    1292                    ;** --------------------------------------------------------------------------*
    1293 000001ac           $C$L4:    ; PIPED LOOP KERNEL
    1294 000001ac           $C$DW$L$VLIB_afast9_detectCorners_d$14$B:
    1295                    ;          EXCLUSIVE CPU CYCLES: 9
    1296 000001ac     cc6e             NOP             7
    1297                    
    1298 000001ae     2d66             SPMASK          S1
    1299 000001b0 01d555a8  ||         MVKL    .S1     0xaaab,A3
    1300                    
    1301 000001b4 00130001             SPMASK          S1
    1302 000001b8 01800069  ||         MVKH    .S1     0xaaab,A3
    1303 000001c0 02550284  ||         LDHU    .D2T1   *+B21(16),A4      ; |88| (P) <0,8> 
    1304                    
    1305 000001c4 01030001             SPMASK          M1
    1306 000001c8 028e4f81  ||         MPYU    .M1     A18,A3,A5
    1307 000001cc 03d50286  ||         LDHU    .D2T2   *+B21(16),B7      ; |89| (P) <0,9> 
    1308                    
    1309 000001d0     0c6e             NOP             1
    1310                    
    1311 000001d2     2d67             SPMASK          L1,S1
    1312 000001d8 0298a358  ||         MVK     .L1     6,A5
    1313 000001d4 039449a1  ||         SHRU    .S1     A5,2,A7
    1314                    
    1315 000001e0 01030001             SPMASK          M1
    1316 000001e4 0294e780  ||         MPYHLU  .M1     A7,A5,A5
    1317                    
    1318                            .dwpsn  file "./../packages/ti/vlib/src/VLIB_afast9_detectCorners/VLIB_afast9_detectCorners_d.
    1319 000001e8 01924800             MPY32   .M1     A18,A4,A3         ; |88| (P) <0,13> 
    1320 000001ec     0c6e             NOP             1
TMS320C6x Assembler PC v7.4.2 Thu Mar 19 12:38:22 2015

Tools Copyright (c) 1996-2012 Texas Instruments Incorporated
package/lib/Regression/regress_d_c/./../packages/ti/vlib/src/VLIB_afast9_detectCorners/VLIB_afast9_detectCorners_d.se66 PAGE   25

    1321                    
    1322 000001ee     2c67             SPMASK          L1
    1323 000001f0 0a9640f9  ||         SUB     .L1     A18,A5,A21
    1324 000001f4 03550286  ||         LDHU    .D2T2   *+B21(16),B6      ; |87| (P) <0,15> 
    1325                    
    1326 000001f8     ace6             SPMASK          L2,D2
    1327 000001fa     cd3d  ||         LDW     .D2T1   *+SP(40),A19
    1328 00000200 04c81fdb  ||         MV      .L2X    A18,B9
    1329 00000204 00d469d8  ||         CMPLTU  .L1     A21,3,A1          ; |90| (P) <0,16>  ^ 
    1330                    
    1331 00000208 031d2803             MPY32   .M2     B9,B7,B6          ; |89| (P) <0,17> 
    1332 0000020c 8cd90206  || [ A1]   LDHU    .D1T2   *+A22(16),B25     ; |93| (P) <0,17> 
    1333                    
    1334                            .dwpsn  file "./../packages/ti/vlib/src/VLIB_afast9_detectCorners/VLIB_afast9_detectCorners_d.
    1335 00000210 98590204     [!A1]   LDHU    .D1T1   *+A22(16),A16     ; |95| (P) <0,18>  ^ 
    1336                            .dwpsn  file "./../packages/ti/vlib/src/VLIB_afast9_detectCorners/VLIB_afast9_detectCorners_d.
    1337 00000214 8bd90206     [ A1]   LDHU    .D1T2   *+A22(16),B23     ; |91| (P) <0,19>  ^ 
    1338                    
    1339 00000218 02181fd9             MV      .L1X    B6,A4             ; |87| (P) <0,20> Define a twin register
    1340 0000021c 99590206  || [!A1]   LDHU    .D1T2   *+A22(16),B18     ; |96| (P) <0,20>  ^ 
    1341                    
    1342 00000220 83590205     [ A1]   LDHU    .D1T1   *+A22(16),A6      ; |92| (P) <0,21> 
    1343 00000224 02124800  ||         MPY32   .M1     A18,A4,A4         ; |87| (P) <0,21> 
    1344                    
    1345 00000228     2ce7             SPMASK          L1,L2
    1346 0000022a     04a6  ||         ZERO    .L1     A17
    1347 00000230     05a7  ||         ZERO    .L2     B19
    1348 0000022c 94590205  || [!A1]   LDHU    .D1T1   *+A22(16),A8      ; |97| (P) <0,22> 
    1349                    
    1350 00000232     2e66             SPMASK          S2
    1351 00000248     998f  ||         MV      .S2X    A19,B4
    1352 00000238 029a607b  ||         ADD     .L2     B19,B6,B5         ; |89| (P) <0,23> 
    1353 00000240 02424801  ||         MPY32   .M1     A18,A16,A4        ; |95| (P) <0,23>  ^ 
    1354 00000244 018e2079  ||         ADD     .L1     A17,A3,A3         ; |88| (P) <0,23> 
    1355 00000234 03e52803  ||         MPY32   .M2     B9,B25,B7         ; |93| (P) <0,23> 
    1356                    
    1357 0000024a     82d1             ADD     .L2     B4,B5,B5          ; |89| (P) <0,24> 
    1358 0000024c 0b5d2802  ||         MPY32   .M2     B9,B23,B22        ; |91| (P) <0,24>  ^ 
    1359                    
    1360 00000250 088c907b             ADD     .L2X    B4,A3,B17         ; |88| (P) <0,25> Define a twin register
    1361 00000254 03c92803  ||         MPY32   .M2     B9,B18,B7         ; |96| (P) <0,25>  ^ 
    1362 00000258 000406a0  ||         MV      .S1     A1,A0             ; |90| (P) <0,25>  ^ Split a long life(pre-sched)
    1363                    
    1364 00000260 0312707b             ADD     .L2X    A4,B19,B6         ; |87| (P) <0,26> Define a twin register
    1365 00000264 029a4800  ||         MPY32   .M1     A18,A6,A5         ; |92| (P) <0,26> 
    1366                    
    1367 00000268 02122079             ADD     .L1     A17,A4,A4         ; |95| <0,27>  ^ 
    1368 0000026c 03a24801  ||         MPY32   .M1     A18,A8,A7         ; |97| <0,27> 
    1369 00000270 039e607a  ||         ADD     .L2     B19,B7,B7         ; |93| <0,27> 
    1370                    
    1371 00000274 0b1c807b             ADD     .L2     B4,B7,B22         ; |93| <0,28> 
    1372 00000278 04926079  ||         ADD     .L1     A19,A4,A9         ; |95| <0,28>  ^ 
    1373 0000027c 0c5a61e3  ||         ADD     .S2     B19,B22,B24       ; |91| <0,28>  ^ 
    1374 00000280 0b988ab4  ||         STB     .D2T1   A23,*+B6[B4]      ; |87| <0,28> 
    1375                    
TMS320C6x Assembler PC v7.4.2 Thu Mar 19 12:38:22 2015

Tools Copyright (c) 1996-2012 Texas Instruments Incorporated
package/lib/Regression/regress_d_c/./../packages/ti/vlib/src/VLIB_afast9_detectCorners/VLIB_afast9_detectCorners_d.se66 PAGE   26

    1376 0000028c     c5b1             ADD     .L2     6,B19,B19         ; |86| <0,29> 
    1377 00000288 039e61e3  ||         ADD     .S2     B19,B7,B7         ; |96| <0,29>  ^ 
    1378 00000284 0bc422b5  ||         STB     .D2T1   A23,*+B17(1)      ; |88| <0,29> 
    1379                    
    1380 0000028e     5285             STB     .D2T2   B16,*+B5(2)       ; |89| <0,30> 
    1381 00000290 02a26bfb  ||         CMPLTU  .L2     B19,B8,B5         ; |86| <0,30> 
    1382 00000294 08e081e3  ||         ADD     .S2     B4,B24,B17        ; |91| <0,30>  ^ 
    1383 00000298 02962078  ||         ADD     .L1     A17,A5,A5         ; |92| <0,30> 
    1384                    
    1385 000002a0     83d1             ADD     .L2     B4,B7,B5          ; |96| <0,31>  ^ 
    1386 000002ac 08c4c058  ||         ADD     .L1     6,A17,A17         ; |86| <0,31> Define a twin register
    1387 000002a4 021e21e1  ||         ADD     .S1     A17,A7,A4         ; |97| <0,31> 
    1388 000002a8 c84462b7  || [ A0]   STB     .D2T2   B16,*+B17(3)      ; |91| <0,31> 
    1389 000002a2     02cf  ||         MV      .S2     B5,B0             ; |86| <0,31> 
    1390                    
    1391 000002b0 021261e1             ADD     .S1     A19,A4,A4         ; |97| <0,32> 
    1392 000002b4 da1482b7  || [!A0]   STB     .D2T2   B20,*+B5(4)       ; |96| <0,32> 
    1393 000002b8 da246234  || [!A0]   STB     .D1T1   A20,*+A9(3)       ; |95| <0,32> 
    1394                    
    1395 000002c0 02966079             ADD     .L1     A19,A5,A5         ; |92| <0,33> 
    1396 000002c4 da10a234  || [!A0]   STB     .D1T1   A20,*+A4(5)       ; |97| <0,33> 
    1397                    
    1398 000002c8 c858a2b7     [ A0]   STB     .D2T2   B16,*+B22(5)      ; |93| <0,34> 
    1399 000002cc cb948234  || [ A0]   STB     .D1T1   A23,*+A5(4)       ; |92| <0,34> 
    1400                    
    1401 000002d0 00034000             SPKERNEL 0,0
    1402 000002d4           $C$DW$L$VLIB_afast9_detectCorners_d$14$E:
    1403                    ;** --------------------------------------------------------------------------*
    1404 000002d4           $C$L5:    ; PIPED LOOP EPILOG
    1405                    ;** --------------------------------------------------------------------------*
    1406 000002d4           $C$DW$L$VLIB_afast9_detectCorners_d$16$B:
    1407                    ;          EXCLUSIVE CPU CYCLES: 1
    1408 000002d4 09bd42f5             STW     .D2T1   A19,*+SP(40)
    1409 000002e0           $C$DW$L$VLIB_afast9_detectCorners_d$16$E:
    1410                    ;** --------------------------------------------------------------------------*
    1411 000002e0           $C$L6:    
    1412                            .dwpsn  file "./../packages/ti/vlib/src/VLIB_afast9_detectCorners/VLIB_afast9_detectCorners_d.
    1413 000002e0           $C$DW$L$VLIB_afast9_detectCorners_d$17$B:
    1414                    ;          EXCLUSIVE CPU CYCLES: 7
    1415                    ;**     -----------------------g13:
    1416                    ;** 85  -----------------------    ++row;
    1417                    ;** 85  -----------------------    if ( L$1 = L$1-1 ) goto g7;
    1418                    
    1419 000002e0 0087e1a3             SUB     .S2     B1,1,B1           ; |85| 
    1420 000002e4 09482059  ||         ADD     .L1     1,A18,A18         ; |85| 
    1421 000002e8 0068aa5a  ||         CMPEQ   .L2     B26,5,B0          ; |86| 
    1422                    
    1423                            .dwpsn  file "./../packages/ti/vlib/src/VLIB_afast9_detectCorners/VLIB_afast9_detectCorners_d.
    1424 000002ec 4fb0a120     [ B1]   BNOP    .S1     $C$L2,5           ; |85| 
    1425                               ; BRANCHCC OCCURS {$C$L2}         ; |85| 
    1426 000002f0           $C$DW$L$VLIB_afast9_detectCorners_d$17$E:
    1427                    ;** --------------------------------------------------------------------------*
    1428 000002f0           $C$L7:    
    1429                            .dwpsn  file "./../packages/ti/vlib/src/VLIB_afast9_detectCorners/VLIB_afast9_detectCorners_d.
    1430 000002f0           $C$DW$L$VLIB_afast9_detectCorners_d$18$B:
TMS320C6x Assembler PC v7.4.2 Thu Mar 19 12:38:22 2015

Tools Copyright (c) 1996-2012 Texas Instruments Incorporated
package/lib/Regression/regress_d_c/./../packages/ti/vlib/src/VLIB_afast9_detectCorners/VLIB_afast9_detectCorners_d.se66 PAGE   27

    1431                    ;          EXCLUSIVE CPU CYCLES: 6
    1432                    ;**     -----------------------g14:
    1433                    ;** 137 -----------------------    act_kernel = 0;  // [14]
    1434                    ;** 140 -----------------------    VLIB_cache_inval();  // [14]
    1435                    ;** 143 -----------------------    initStack(getSP());  // [14]
    1436                    ;** 146 -----------------------    beg_count = _itoll(TSCH, TSCL);  // [14]
    1437                    ;** 106 -----------------------    numFeatures = VLIB_afast9_detectCorners(im1, (*U$15).imageWidth, (*
    1438                    ;** 153 -----------------------    v$2 = _itoll(TSCH, TSCL);  // [15]
    1439                    ;** 153 -----------------------    end_count = v$2;  // [15]
    1440                    ;** 156 -----------------------    C$9 = act_kernel;  // [15]
    1441                    ;** 156 -----------------------    *((C$9<<3)+K$122) = *((C$9<<3)+K$122)+(v$2-(beg_count+overhead));  
    1442                    ;** 159 -----------------------    setStackDepth();  // [15]
    1443                    ;** 137 -----------------------    act_kernel = 1;  // [14]
    1444                    ;** 140 -----------------------    VLIB_cache_inval();  // [14]
    1445                    ;** 143 -----------------------    initStack(getSP());  // [14]
    1446                    ;** 146 -----------------------    beg_count = _itoll(TSCH, TSCL);  // [14]
    1447                    ;** 117 -----------------------    numFeatures_cn = VLIB_afast9_detectCorners_cn(im1, (*U$15).imageWid
    1448                    ;** 153 -----------------------    v$2 = _itoll(TSCH, TSCL);  // [15]
    1449                    ;** 153 -----------------------    end_count = v$2;  // [15]
    1450                    ;** 156 -----------------------    C$8 = act_kernel;  // [15]
    1451                    ;** 156 -----------------------    *((C$8<<3)+K$122) = *((C$8<<3)+K$122)+(v$2-(beg_count+overhead));  
    1452                    ;** 159 -----------------------    setStackDepth();  // [15]
    1453                    ;** 126 -----------------------    if ( !totalFeatureHalfWords ) goto g20;
    1454                            .dwpsn  file ".\..\packages\ti\vlib\src\VLIB_afast9_detectCorners\..\common\VLIB_profile.h",li
    1455                    $C$DW$145       .dwtag  DW_TAG_TI_branch
    1456                            .dwattr $C$DW$145, DW_AT_low_pc(0x00)
    1457                            .dwattr $C$DW$145, DW_AT_name("VLIB_cache_inval")
    1458                            .dwattr $C$DW$145, DW_AT_TI_call
    1459 000002f0 00000010!            CALL    .S1     VLIB_cache_inval  ; |140| 
    1460 000002f4 05800028!            MVKL    .S1     act_kernel,A11
    1461 000002f8 05800068!            MVKH    .S1     act_kernel,A11
    1462                            .dwpsn  file ".\..\packages\ti\vlib\src\VLIB_afast9_detectCorners\..\common\VLIB_profile.h",li
    1463 000002fc 0200a35a             ZERO    .L2     B4                ; |137| 
    1464 00000300 022c0276             STW     .D1T2   B4,*A11           ; |137| 
    1465                            .dwpsn  file ".\..\packages\ti\vlib\src\VLIB_afast9_detectCorners\..\common\VLIB_profile.h",li
    1466 00000304 01820162             ADDKPC  .S2     $C$RL7,B3,0       ; |140| 
    1467                    $C$RL7:    ; CALL OCCURS {VLIB_cache_inval} {0}  ; |140| 
    1468                    $C$DW$L$VLIB_afast9_detectCorners_d$18$E:
    1469                    ;** --------------------------------------------------------------------------*
    1470                    $C$DW$L$VLIB_afast9_detectCorners_d$19$B:
    1471                    ;          EXCLUSIVE CPU CYCLES: 101
    1472                    $C$DW$146       .dwtag  DW_TAG_TI_branch
    1473                            .dwattr $C$DW$146, DW_AT_low_pc(0x00)
    1474                            .dwattr $C$DW$146, DW_AT_name("getSP")
    1475                            .dwattr $C$DW$146, DW_AT_TI_call
    1476 00000308 10000012!            CALLP   .S2     getSP,B3
    1477                            .dwpsn  file ".\..\packages\ti\vlib\src\VLIB_afast9_detectCorners\..\common\VLIB_profile.h",li
    1478                    $C$RL8:    ; CALL OCCURS {getSP} {0}         ; |143| 
    1479                    $C$DW$147       .dwtag  DW_TAG_TI_branch
    1480                            .dwattr $C$DW$147, DW_AT_low_pc(0x00)
    1481                            .dwattr $C$DW$147, DW_AT_name("initStack")
    1482                            .dwattr $C$DW$147, DW_AT_TI_call
    1483 0000030c 10000012!            CALLP   .S2     initStack,B3
    1484 00000310           $C$RL9:    ; CALL OCCURS {initStack} {0}     ; |143| 
    1485                            .dwpsn  file ".\..\packages\ti\vlib\src\VLIB_afast9_detectCorners\..\common\VLIB_profile.h",li
TMS320C6x Assembler PC v7.4.2 Thu Mar 19 12:38:22 2015

Tools Copyright (c) 1996-2012 Texas Instruments Incorporated
package/lib/Regression/regress_d_c/./../packages/ti/vlib/src/VLIB_afast9_detectCorners/VLIB_afast9_detectCorners_d.se66 PAGE   28

    1486 00000310 032803e2             MVC     .S2     TSCL,B6           ; |146| 
    1487 00000314 022c03e2             MVC     .S2     TSCH,B4           ; |146| 
    1488                    
    1489 00000318 01800029!            MVKL    .S1     beg_count,A3
    1490 0000031c 0334e204  ||         LDHU    .D1T1   *+A13(14),A6      ; |106| 
    1491                    
    1492 00000320 01800069!            MVKH    .S1     beg_count,A3
    1493 00000324 03900fdb  ||         MV      .L2     B4,B7             ; |146| 
    1494 00000328 043d62e7  ||         LDW     .D2T2   *+SP(44),B8       ; |106| 
    1495 0000032c 04364214  ||         LDBU    .D1T1   *+A13(18),A8      ; |106| 
    1496                    
    1497 00000330 030c0346             STDW    .D1T2   B7:B6,*A3         ; |146| 
    1498                    
    1499 00000334 053d82e5             LDW     .D2T1   *+SP(48),A10      ; |106| 
    1500 00000338 0234c206  ||         LDHU    .D1T2   *+A13(12),B4      ; |106| 
    1501                    
    1502                    $C$DW$148       .dwtag  DW_TAG_TI_branch
    1503                            .dwattr $C$DW$148, DW_AT_low_pc(0x00)
    1504                            .dwattr $C$DW$148, DW_AT_name("VLIB_afast9_detectCorners")
    1505                            .dwattr $C$DW$148, DW_AT_TI_call
    1506                    
    1507 0000033c 10000013!            CALLP   .S2     VLIB_afast9_detectCorners,B3
    1508 00000340 03350207  ||         LDHU    .D1T2   *+A13(16),B6      ; |106| 
    1509 00000344     cd4d  ||         LDW     .D2T1   *+SP(40),A4       ; |106| 
    1510                    
    1511                            .dwpsn  file "./../packages/ti/vlib/src/VLIB_afast9_detectCorners/VLIB_afast9_detectCorners_d.
    1512 00000346           $C$RL10:   ; CALL OCCURS {VLIB_afast9_detectCorners} {0}  ; |106| 
    1513                    
    1514 00000346     b647             MV      .L2X    A4,B13            ; |106| 
    1515 00000348 032803e2  ||         MVC     .S2     TSCL,B6           ; |153| 
    1516                    
    1517                            .dwpsn  file ".\..\packages\ti\vlib\src\VLIB_afast9_detectCorners\..\common\VLIB_profile.h",li
    1518 0000034c 03ac03e2             MVC     .S2     TSCH,B7           ; |153| 
    1519                    
    1520 00000350 0500002b!            MVKL    .S2     overhead,B10
    1521 00000354 05000028! ||         MVKL    .S1     beg_count,A10
    1522                    
    1523 00000358 0500006b!            MVKH    .S2     overhead,B10
    1524 00000360 05000069! ||         MVKH    .S1     beg_count,A10
    1525 00000364 082c0264  ||         LDW     .D1T1   *A11,A16          ; |156| 
    1526                    
    1527 00000368 022803e7             LDDW    .D2T2   *B10,B5:B4        ; |156| 
    1528 0000036c 04280364  ||         LDDW    .D1T1   *A10,A9:A8        ; |156| 
    1529                    
    1530 00000370 00006000             NOP             4
    1531                    
    1532 00000374 02111579             ADDU    .L1X    B4,A8,A5:A4       ; |156| 
    1533 00000378 033e0b64  ||         LDDW    .D1T1   *+A15[A16],A7:A6  ; |156| 
    1534                    
    1535                            .dwpsn  file ".\..\packages\ti\vlib\src\VLIB_afast9_detectCorners\..\common\VLIB_profile.h",li
    1536 0000037c 0194b078             ADD     .L1X    A5,B5,A3          ; |156| 
    1537 00000380 01a46078             ADD     .L1     A3,A9,A3          ; |156| 
    1538 00000384 0210d7f8             SUBU    .L1X    B6,A4,A5:A4       ; |156| 
    1539                    
    1540 00000388 020cf0fb             SUB     .L2X    B7,A3,B4          ; |156| 
TMS320C6x Assembler PC v7.4.2 Thu Mar 19 12:38:22 2015

Tools Copyright (c) 1996-2012 Texas Instruments Incorporated
package/lib/Regression/regress_d_c/./../packages/ti/vlib/src/VLIB_afast9_detectCorners/VLIB_afast9_detectCorners_d.se66 PAGE   29

    1541 0000038c 0f971848  ||         EXT     .S1     A5,24,24,A31      ; |156| 
    1542                    
    1543 00000390 0210c579             ADDU    .L1     A6,A4,A5:A4       ; |156| 
    1544 00000394 01800028! ||         MVKL    .S1     end_count,A3
    1545                    
    1546 00000398 031ca079             ADD     .L1     A5,A7,A6          ; |156| 
    1547 0000039c 0293fab1  ||         ADD     .D1X    B4,A31,A5         ; |156| 
    1548 000003a0 01800068! ||         MVKH    .S1     end_count,A3
    1549                    
    1550 000003a8 0294c078             ADD     .L1     A6,A5,A5          ; |156| 
    1551 000003a4 030c0347  ||         STDW    .D1T2   B7:B6,*A3         ; |153| 
    1552                    
    1553                    $C$DW$149       .dwtag  DW_TAG_TI_branch
    1554                            .dwattr $C$DW$149, DW_AT_low_pc(0x00)
    1555                            .dwattr $C$DW$149, DW_AT_name("setStackDepth")
    1556                            .dwattr $C$DW$149, DW_AT_TI_call
    1557                    
    1558 000003ac 10000013!            CALLP   .S2     setStackDepth,B3
    1559 000003b0 023e0b44  ||         STDW    .D1T1   A5:A4,*+A15[A16]  ; |156| 
    1560                    
    1561                            .dwpsn  file ".\..\packages\ti\vlib\src\VLIB_afast9_detectCorners\..\common\VLIB_profile.h",li
    1562 000003b4           $C$RL11:   ; CALL OCCURS {setStackDepth} {0}  ; |159| 
    1563                    
    1564 000003b4     2627             MVK     .L2     1,B4              ; |137| 
    1565 000003b6     6586  ||         MV      .L1     A11,A3            ; |137| 
    1566                    
    1567                    $C$DW$150       .dwtag  DW_TAG_TI_branch
    1568                            .dwattr $C$DW$150, DW_AT_low_pc(0x00)
    1569                            .dwattr $C$DW$150, DW_AT_name("VLIB_cache_inval")
    1570                            .dwattr $C$DW$150, DW_AT_TI_call
    1571                    
    1572 000003b8 10000013!            CALLP   .S2     VLIB_cache_inval,B3
    1573 000003c0 020c0276  ||         STW     .D1T2   B4,*A3            ; |137| 
    1574                    
    1575                            .dwpsn  file ".\..\packages\ti\vlib\src\VLIB_afast9_detectCorners\..\common\VLIB_profile.h",li
    1576                    $C$RL12:   ; CALL OCCURS {VLIB_cache_inval} {0}  ; |140| 
    1577                    $C$DW$151       .dwtag  DW_TAG_TI_branch
    1578                            .dwattr $C$DW$151, DW_AT_low_pc(0x00)
    1579                            .dwattr $C$DW$151, DW_AT_name("getSP")
    1580                            .dwattr $C$DW$151, DW_AT_TI_call
    1581 000003c4 10000012!            CALLP   .S2     getSP,B3
    1582                            .dwpsn  file ".\..\packages\ti\vlib\src\VLIB_afast9_detectCorners\..\common\VLIB_profile.h",li
    1583                    $C$RL13:   ; CALL OCCURS {getSP} {0}         ; |143| 
    1584                    $C$DW$152       .dwtag  DW_TAG_TI_branch
    1585                            .dwattr $C$DW$152, DW_AT_low_pc(0x00)
    1586                            .dwattr $C$DW$152, DW_AT_name("initStack")
    1587                            .dwattr $C$DW$152, DW_AT_TI_call
    1588 000003c8 10000012!            CALLP   .S2     initStack,B3
    1589 000003cc           $C$RL14:   ; CALL OCCURS {initStack} {0}     ; |143| 
    1590                            .dwpsn  file ".\..\packages\ti\vlib\src\VLIB_afast9_detectCorners\..\common\VLIB_profile.h",li
    1591 000003cc 032803e2             MVC     .S2     TSCL,B6           ; |146| 
    1592 000003d0 022c03e2             MVC     .S2     TSCH,B4           ; |146| 
    1593                            .dwpsn  file "./../packages/ti/vlib/src/VLIB_afast9_detectCorners/VLIB_afast9_detectCorners_d.
    1594 000003d4 04364214             LDBU    .D1T1   *+A13(18),A8      ; |117| 
    1595                    
TMS320C6x Assembler PC v7.4.2 Thu Mar 19 12:38:22 2015

Tools Copyright (c) 1996-2012 Texas Instruments Incorporated
package/lib/Regression/regress_d_c/./../packages/ti/vlib/src/VLIB_afast9_detectCorners/VLIB_afast9_detectCorners_d.se66 PAGE   30

    1596 000003d8 043da2e7             LDW     .D2T2   *+SP(52),B8       ; |117| 
    1597 000003dc 0334e204  ||         LDHU    .D1T1   *+A13(14),A6      ; |117| 
    1598                    
    1599 000003e0 05a80fd9             MV      .L1     A10,A11           ; |146| 
    1600 000003e8     e247  ||         MV      .L2     B4,B7             ; |146| 
    1601 000003e4 0234c207  ||         LDHU    .D1T2   *+A13(12),B4      ; |117| 
    1602                    
    1603 000003ec 032c0346             STDW    .D1T2   B7:B6,*A11        ; |146| 
    1604 000003ea     cd4d  ||         LDW     .D2T1   *+SP(40),A4       ; |117| 
    1605                    
    1606                    $C$DW$153       .dwtag  DW_TAG_TI_branch
    1607                            .dwattr $C$DW$153, DW_AT_low_pc(0x00)
    1608                            .dwattr $C$DW$153, DW_AT_name("VLIB_afast9_detectCorners_cn")
    1609                            .dwattr $C$DW$153, DW_AT_TI_call
    1610                    
    1611 000003f0 10000013!            CALLP   .S2     VLIB_afast9_detectCorners_cn,B3
    1612 000003f4 03350207  ||         LDHU    .D1T2   *+A13(16),B6      ; |117| 
    1613 000003f8 053d82e4  ||         LDW     .D2T1   *+SP(48),A10      ; |117| 
    1614                    
    1615 00000400           $C$RL15:   ; CALL OCCURS {VLIB_afast9_detectCorners_cn} {0}  ; |117| 
    1616                    
    1617 00000400 05100fd9             MV      .L1     A4,A10            ; |117| 
    1618 00000404 032803e2  ||         MVC     .S2     TSCL,B6           ; |153| 
    1619                    
    1620                            .dwpsn  file ".\..\packages\ti\vlib\src\VLIB_afast9_detectCorners\..\common\VLIB_profile.h",li
    1621 00000408 022c03e2             MVC     .S2     TSCH,B4           ; |153| 
    1622 0000040c 01800028!            MVKL    .S1     act_kernel,A3
    1623 00000410 01800068!            MVKH    .S1     act_kernel,A3
    1624                            .dwpsn  file ".\..\packages\ti\vlib\src\VLIB_afast9_detectCorners\..\common\VLIB_profile.h",li
    1625 00000414 020c0264             LDW     .D1T1   *A3,A4            ; |156| 
    1626 00000418 042803e6             LDDW    .D2T2   *B10,B9:B8        ; |156| 
    1627 0000041c 042c0364             LDDW    .D1T1   *A11,A9:A8        ; |156| 
    1628 00000420 01800028!            MVKL    .S1     end_count,A3
    1629 00000424 01800068!            MVKH    .S1     end_count,A3
    1630 00000428 033c8b64             LDDW    .D1T1   *+A15[A4],A7:A6   ; |156| 
    1631                            .dwpsn  file ".\..\packages\ti\vlib\src\VLIB_afast9_detectCorners\..\common\VLIB_profile.h",li
    1632 0000042c 03900fda             MV      .L2     B4,B7             ; |153| 
    1633                            .dwpsn  file ".\..\packages\ti\vlib\src\VLIB_afast9_detectCorners\..\common\VLIB_profile.h",li
    1634 00000430 0221157a             ADDU    .L2X    B8,A8,B5:B4       ; |156| 
    1635                    
    1636 00000434 02a4a07b             ADD     .L2     B5,B9,B5          ; |156| 
    1637 00000438     064f  ||         MV      .S2     B4,B8             ; |156| 
    1638 0000043a     91d7  ||         MV      .D2X    A3,B4
    1639                    
    1640 00000440 0420c5fb             SUBU    .L2     B6,B8,B9:B8       ; |156| 
    1641 00000444 02a4b1e2  ||         ADD     .S2X    B5,A9,B5          ; |156| 
    1642                    
    1643 00000448 0827184b             EXT     .S2     B9,24,24,B16      ; |156| 
    1644 0000044c 0419157b  ||         ADDU    .L2X    A6,B8,B9:B8       ; |156| 
    1645 00000450 029ca8c2  ||         SUB     .D2     B7,B5,B5          ; |156| 
    1646                    
    1647 00000454 029d307b             ADD     .L2X    B9,A7,B5          ; |156| 
    1648 00000458 04c0a1e2  ||         ADD     .S2     B5,B16,B9         ; |156| 
    1649                    
    1650 0000045c 04a4a07b             ADD     .L2     B5,B9,B9          ; |156| 
TMS320C6x Assembler PC v7.4.2 Thu Mar 19 12:38:22 2015

Tools Copyright (c) 1996-2012 Texas Instruments Incorporated
package/lib/Regression/regress_d_c/./../packages/ti/vlib/src/VLIB_afast9_detectCorners/VLIB_afast9_detectCorners_d.se66 PAGE   31

    1651 00000460 031003c6  ||         STDW    .D2T2   B7:B6,*B4         ; |153| 
    1652                    
    1653                    $C$DW$154       .dwtag  DW_TAG_TI_branch
    1654                            .dwattr $C$DW$154, DW_AT_low_pc(0x00)
    1655                            .dwattr $C$DW$154, DW_AT_name("setStackDepth")
    1656                            .dwattr $C$DW$154, DW_AT_TI_call
    1657                    
    1658 00000464 10000013!            CALLP   .S2     setStackDepth,B3
    1659 00000468 043c8b46  ||         STDW    .D1T2   B9:B8,*+A15[A4]   ; |156| 
    1660                    
    1661                            .dwpsn  file ".\..\packages\ti\vlib\src\VLIB_afast9_detectCorners\..\common\VLIB_profile.h",li
    1662 0000046c           $C$RL16:   ; CALL OCCURS {setStackDepth} {0}  ; |159| 
    1663 0000046c           $C$DW$L$VLIB_afast9_detectCorners_d$19$E:
    1664                    ;** --------------------------------------------------------------------------*
    1665 0000046c           $C$DW$L$VLIB_afast9_detectCorners_d$20$B:
    1666                    ;          EXCLUSIVE CPU CYCLES: 11
    1667 0000046c     ad0d             LDW     .D2T1   *+SP(36),A0       ; |159| 
    1668 0000046e     6c6e             NOP             4
    1669                    
    1670 00000470     d53a     [!A0]   BNOP    .S1     $C$L11,5          ; |126| 
    1671 00000478 c2000fd8  || [ A0]   MV      .L1     A0,A4
    1672 00000474 c1bda2e5  || [ A0]   LDW     .D2T1   *+SP(52),A3       ; |127| 
    1673 00000472     2876  || [ A0]   MVK     .D1     0x1,A0
    1674                    
    1675                            .dwpsn  file "./../packages/ti/vlib/src/VLIB_afast9_detectCorners/VLIB_afast9_detectCorners_d.
    1676                               ; BRANCHCC OCCURS {$C$L11}        ; |126| 
    1677 00000480           $C$DW$L$VLIB_afast9_detectCorners_d$20$E:
    1678                    ;** --------------------------------------------------------------------------*
    1679                            .dwpsn  file "./../packages/ti/vlib/src/VLIB_afast9_detectCorners/VLIB_afast9_detectCorners_d.
    1680 00000480           $C$DW$L$VLIB_afast9_detectCorners_d$21$B:
    1681                    ;**     -----------------------    U$135 = outFeatures_cn;
    1682                    ;**     -----------------------    U$137 = outFeatures;
    1683                    ;** 127 -----------------------    L$3 = totalFeatureHalfWords;
    1684                    ;** 126 -----------------------    --U$137;
    1685                    ;** 126 -----------------------    --U$135;
    1686                    ;** 126 -----------------------    i = (-1);
    1687                    ;**     -----------------------    #pragma MUST_ITERATE(1, 4294967295, 1)
    1688                    ;**     -----------------------    #pragma LOOP_FLAGS(4352u)
    1689                    ;**     -----------------------g16:
    1690                    ;** 127 -----------------------    U$138 = *(++U$137);
    1691                    ;** 127 -----------------------    U$136 = *(++U$135);
    1692                    ;** 127 -----------------------    f$5 = (U$136 != U$138)-1;
    1693                    ;** 126 -----------------------    ++i;
    1694                    ;** 126 -----------------------    L$3 = L$3-1;
    1695                    ;** 126 -----------------------    if ( L$3&f$5 ) goto g16;
    1696                    ;**     -----------------------    if ( f$5 ) goto g20;
    1697 00000480           $C$DW$L$VLIB_afast9_detectCorners_d$21$E:
    1698                    ;*----------------------------------------------------------------------------*
    1699                    ;*   SOFTWARE PIPELINE INFORMATION
    1700                    ;*
    1701                    ;*      Loop found in file               : ./../packages/ti/vlib/src/VLIB_afast9_detectCorners/VLIB_af
    1702                    ;*      Loop source line                 : 126
    1703                    ;*      Loop opening brace source line   : 126
    1704                    ;*      Loop closing brace source line   : 134
    1705                    ;*      Known Minimum Trip Count         : 1                    
TMS320C6x Assembler PC v7.4.2 Thu Mar 19 12:38:22 2015

Tools Copyright (c) 1996-2012 Texas Instruments Incorporated
package/lib/Regression/regress_d_c/./../packages/ti/vlib/src/VLIB_afast9_detectCorners/VLIB_afast9_detectCorners_d.se66 PAGE   32

    1706                    ;*      Known Max Trip Count Factor      : 1
    1707                    ;*      Loop Carried Dependency Bound(^) : 1
    1708                    ;*      Unpartitioned Resource Bound     : 2
    1709                    ;*      Partitioned Resource Bound(*)    : 2
    1710                    ;*      Resource Partition:
    1711                    ;*                                A-side   B-side
    1712                    ;*      .L units                     1        0     
    1713                    ;*      .S units                     1        0     
    1714                    ;*      .D units                     1        1     
    1715                    ;*      .M units                     0        0     
    1716                    ;*      .X cross paths               1        0     
    1717                    ;*      .T address paths             1        1     
    1718                    ;*      Long read paths              0        0     
    1719                    ;*      Long write paths             0        0     
    1720                    ;*      Logical  ops (.LS)           0        0     (.L or .S unit)
    1721                    ;*      Addition ops (.LSD)          3        1     (.L or .S or .D unit)
    1722                    ;*      Bound(.L .S .LS)             1        0     
    1723                    ;*      Bound(.L .S .D .LS .LSD)     2*       1     
    1724                    ;*
    1725                    ;*      Searching for software pipeline schedule at ...
    1726                    ;*         ii = 4  Unsafe schedule for irregular loop
    1727                    ;*         ii = 4  Unsafe schedule for irregular loop
    1728                    ;*         ii = 4  Unsafe schedule for irregular loop
    1729                    ;*         ii = 4  Unsafe schedule for irregular loop
    1730                    ;*         ii = 4  Unsafe schedule for irregular loop
    1731                    ;*         ii = 4  Did not find schedule
    1732                    ;*         ii = 5  Unsafe schedule for irregular loop
    1733                    ;*         ii = 5  Unsafe schedule for irregular loop
    1734                    ;*         ii = 5  Unsafe schedule for irregular loop
    1735                    ;*         ii = 5  Unsafe schedule for irregular loop
    1736                    ;*         ii = 5  Unsafe schedule for irregular loop
    1737                    ;*         ii = 5  Did not find schedule
    1738                    ;*         ii = 6  Unsafe schedule for irregular loop
    1739                    ;*         ii = 6  Unsafe schedule for irregular loop
    1740                    ;*         ii = 6  Unsafe schedule for irregular loop
    1741                    ;*         ii = 6  Unsafe schedule for irregular loop
    1742                    ;*         ii = 6  Unsafe schedule for irregular loop
    1743                    ;*         ii = 6  Did not find schedule
    1744                    ;*         ii = 7  Unsafe schedule for irregular loop
    1745                    ;*         ii = 7  Unsafe schedule for irregular loop
    1746                    ;*         ii = 7  Unsafe schedule for irregular loop
    1747                    ;*         ii = 7  Unsafe schedule for irregular loop
    1748                    ;*         ii = 7  Unsafe schedule for irregular loop
    1749                    ;*         ii = 7  Did not find schedule
    1750                    ;*         ii = 8  Unsafe schedule for irregular loop
    1751                    ;*         ii = 8  Unsafe schedule for irregular loop
    1752                    ;*         ii = 8  Unsafe schedule for irregular loop
    1753                    ;*         ii = 8  Unsafe schedule for irregular loop
    1754                    ;*         ii = 8  Unsafe schedule for irregular loop
    1755                    ;*         ii = 8  Did not find schedule
    1756                    ;*         ii = 9  Schedule found with 2 iterations in parallel
    1757                    ;*
    1758                    ;*      Register Usage Table:
    1759                    ;*          +-----------------------------------------------------------------+
    1760                    ;*          |AAAAAAAAAAAAAAAAAAAAAAAAAAAAAAAA|BBBBBBBBBBBBBBBBBBBBBBBBBBBBBBBB|
TMS320C6x Assembler PC v7.4.2 Thu Mar 19 12:38:22 2015

Tools Copyright (c) 1996-2012 Texas Instruments Incorporated
package/lib/Regression/regress_d_c/./../packages/ti/vlib/src/VLIB_afast9_detectCorners/VLIB_afast9_detectCorners_d.se66 PAGE   33

    1761                    ;*          |00000000001111111111222222222233|00000000001111111111222222222233|
    1762                    ;*          |01234567890123456789012345678901|01234567890123456789012345678901|
    1763                    ;*          |--------------------------------+--------------------------------|
    1764                    ;*       0: |    ***                         |    ***                         |
    1765                    ;*       1: |    ***                         |    ***                         |
    1766                    ;*       2: |   ****                         |    ***                         |
    1767                    ;*       3: |    ****                        |    ***                         |
    1768                    ;*       4: |   ****                         |    ***                         |
    1769                    ;*       5: |*   ***                         |    ***                         |
    1770                    ;*       6: |    ***                         |    ***                         |
    1771                    ;*       7: |    ***                         |    ***                         |
    1772                    ;*       8: |    ***                         |    ***                         |
    1773                    ;*          +-----------------------------------------------------------------+
    1774                    ;*
    1775                    ;*      Done
    1776                    ;*
    1777                    ;*      Loop will be splooped
    1778                    ;*      Collapsed epilog stages       : 1
    1779                    ;*      Collapsed prolog stages       : 0
    1780                    ;*      Minimum required memory pad   : 0 bytes
    1781                    ;*
    1782                    ;*      For further improvement on this loop, try option -mh28
    1783                    ;*
    1784                    ;*      Minimum safe trip count       : 1
    1785                    ;*      Min. prof. trip count  (est.) : 3
    1786                    ;*
    1787                    ;*      Mem bank conflicts/iter(est.) : { min 0.000, est 0.125, max 1.000 }
    1788                    ;*      Mem bank perf. penalty (est.) : 1.4%
    1789                    ;*
    1790                    ;*      Effective ii                : { min 9.00, est 9.13, max 10.00 }
    1791                    ;*
    1792                    ;*
    1793                    ;*      Total cycles (est.)         : 9 + trip_cnt * 9        
    1794                    ;*----------------------------------------------------------------------------*
    1795                    ;*       SETUP CODE
    1796                    ;*
    1797                    ;*                  MVK             0x1,A0
    1798                    ;*
    1799                    ;*        SINGLE SCHEDULED ITERATION
    1800                    ;*
    1801                    ;*        $C$C120:
    1802                    ;*   5      [ A0]   LDHU    .D1T1   *++A6,A5          ; |127|  ^ 
    1803                    ;*     ||   [ A0]   LDHU    .D2T2   *++B5,B6          ; |127|  ^ 
    1804                    ;*   6              NOP             4
    1805                    ;*  10              CMPEQ   .L1X    B6,A5,A3          ; |127|  ^ 
    1806                    ;*  11              EXT     .S1     A3,31,31,A7       ; |127|  ^ 
    1807                    ;*     ||           SUB     .L1     A4,1,A4           ; |126|  ^ 
    1808                    ;*  12              AND     .L1     A7,A4,A3          ; |126|  ^ 
    1809                    ;*  13              MV      .L1     A3,A0             ; |126|  ^ 
    1810                    ;*  14      [ A0]   SPWBR           $C$C120
    1811                    ;*  15              NOP             2
    1812                    ;*  17              ADD     .L2     1,B4,B4           ; |126| 
    1813                    ;*  18              ; BRANCHCC OCCURS {$C$C120}       ; |126| 
    1814                    ;*----------------------------------------------------------------------------*
    1815 00000480           $C$L8:    ; PIPED LOOP PROLOG
TMS320C6x Assembler PC v7.4.2 Thu Mar 19 12:38:22 2015

Tools Copyright (c) 1996-2012 Texas Instruments Incorporated
package/lib/Regression/regress_d_c/./../packages/ti/vlib/src/VLIB_afast9_detectCorners/VLIB_afast9_detectCorners_d.se66 PAGE   34

    1816                    ;          EXCLUSIVE CPU CYCLES: 10
    1817                    
    1818 00000480 c403e001     [ A0]   SPLOOPW 9       ;18               ; (P) 
    1819 00000484     ed5d  ||         LDW     .D2T1   *+SP(44),A5       ; |127| 
    1820                    
    1821                    ;** --------------------------------------------------------------------------*
    1822 00000486           $C$L9:    ; PIPED LOOP KERNEL
    1823 00000486           $C$DW$L$VLIB_afast9_detectCorners_d$23$B:
    1824                    ;          EXCLUSIVE CPU CYCLES: 9
    1825 00000486     6c6e             NOP             4
    1826                    
    1827 00000488     2ce7             SPMASK          L1,L2
    1828 0000048a     ddd1  ||         SUB     .L2X    A3,2,B5           ; |126| 
    1829 0000048c 0317c058  ||         SUB     .L1     A5,2,A6           ; |126| 
    1830                    
    1831 00000490 c2983205     [ A0]   LDHU    .D1T1   *++A6,A5          ; |127| (P) <0,5>  ^ 
    1832 00000494 c3143286  || [ A0]   LDHU    .D2T2   *++B5,B6          ; |127| (P) <0,5>  ^ 
    1833                    
    1834 00000498     2c6e             NOP             2
    1835                    
    1836 0000049a     2ce6             SPMASK          L2
    1837 000004a0     fe27  ||         MVK     .L2     0xffffffff,B4     ; |126| 
    1838                    
    1839 000004a2     0c6e             NOP             1
    1840                            .dwpsn  file "./../packages/ti/vlib/src/VLIB_afast9_detectCorners/VLIB_afast9_detectCorners_d.
    1841 000004a4 0198ba78             CMPEQ   .L1X    B6,A5,A3          ; |127| <0,10>  ^ 
    1842                    
    1843 000004ac 0213e058             SUB     .L1     A4,1,A4           ; |126| <0,11>  ^ 
    1844 000004a8 038fff49  ||         EXT     .S1     A3,31,31,A7       ; |127| <0,11>  ^ 
    1845                    
    1846                            .dwpsn  file "./../packages/ti/vlib/src/VLIB_afast9_detectCorners/VLIB_afast9_detectCorners_d.
    1847 000004b0 0190ef78             AND     .L1     A7,A4,A3          ; |126| <0,12>  ^ 
    1848 000004b4     01c6             MV      .L1     A3,A0             ; |126| <0,13>  ^ 
    1849 000004b6     2c6e             NOP             2
    1850 000004b8 00000000             NOP             1
    1851                    
    1852 000004c0 00034001             SPKERNEL 0,0
    1853 000004c4     2641  ||         ADD     .L2     1,B4,B4           ; |126| <0,17> 
    1854                    
    1855 000004c6           $C$DW$L$VLIB_afast9_detectCorners_d$23$E:
    1856                    ;** --------------------------------------------------------------------------*
    1857 000004c6           $C$L10:    ; PIPED LOOP EPILOG
    1858                    ;** --------------------------------------------------------------------------*
    1859 000004c6           $C$DW$L$VLIB_afast9_detectCorners_d$25$B:
    1860                    ;          EXCLUSIVE CPU CYCLES: 7
    1861 000004c6     03c6             MV      .L1     A7,A0
    1862                    
    1863 000004c8     2046             MV      .L1     A0,A1             ; branch predicate copy
    1864 000004cc d600a35b  || [!A0]   ZERO    .L2     B12               ; |128| 
    1865 000004d0 c0000a10  || [ A0]   B       .S1     $C$L13
    1866 000004ca     8d0d  ||         LDW     .D2T1   *+SP(32),A0       ; |128| 
    1867                    
    1868                            .dwpsn  file "./../packages/ti/vlib/src/VLIB_afast9_detectCorners/VLIB_afast9_detectCorners_d.
    1869 000004d4 80344264     [ A1]   LDW     .D1T1   *+A13(8),A0       ; |141| 
    1870 000004d8     6c6e             NOP             4
TMS320C6x Assembler PC v7.4.2 Thu Mar 19 12:38:22 2015

Tools Copyright (c) 1996-2012 Texas Instruments Incorporated
package/lib/Regression/regress_d_c/./../packages/ti/vlib/src/VLIB_afast9_detectCorners/VLIB_afast9_detectCorners_d.se66 PAGE   35

    1871                               ; BRANCHCC OCCURS {$C$L13}  
    1872 000004e0           $C$DW$L$VLIB_afast9_detectCorners_d$25$E:
    1873                    ;** --------------------------------------------------------------------------*
    1874 000004e0           $C$DW$L$VLIB_afast9_detectCorners_d$26$B:
    1875                    ;          EXCLUSIVE CPU CYCLES: 6
    1876                    ;** 128 -----------------------    status_nat_vs_int = 0;
    1877                    ;** 129 -----------------------    if ( !LevelOfFeedback ) goto g20;
    1878                    
    1879 000004e0 d0174121     [!A0]   BNOP    .S1     $C$L12,2          ; |129| 
    1880 000004e4 c280002a! || [ A0]   MVKL    .S2     $C$SL2+0,B5
    1881                    
    1882 000004e8 c280006a!    [ A0]   MVKH    .S2     $C$SL2+0,B5
    1883                    $C$DW$155       .dwtag  DW_TAG_TI_branch
    1884                            .dwattr $C$DW$155, DW_AT_low_pc(0x00)
    1885                            .dwattr $C$DW$155, DW_AT_name("printf")
    1886                            .dwattr $C$DW$155, DW_AT_TI_call
    1887                    
    1888 000004ec c0000011!    [ A0]   CALL    .S1     printf            ; |130| 
    1889 000004f0 d0344264  || [!A0]   LDW     .D1T1   *+A13(8),A0       ; |141| 
    1890                    
    1891 000004f4     0c6e             NOP             1
    1892                            .dwpsn  file "./../packages/ti/vlib/src/VLIB_afast9_detectCorners/VLIB_afast9_detectCorners_d.
    1893                               ; BRANCHCC OCCURS {$C$L12}        ; |129| 
    1894 000004f6           $C$DW$L$VLIB_afast9_detectCorners_d$26$E:
    1895                    ;** --------------------------------------------------------------------------*
    1896 000004f6           $C$DW$L$VLIB_afast9_detectCorners_d$27$B:
    1897                    ;          EXCLUSIVE CPU CYCLES: 4
    1898                    ;** 130 -----------------------    printf((const char *)" Mismatch in Index = %u,%x,%x \n", i, (int)U$
    1899                            .dwpsn  file "./../packages/ti/vlib/src/VLIB_afast9_detectCorners/VLIB_afast9_detectCorners_d.
    1900 000004f6     bc55             STW     .D2T2   B5,*+SP(4)        ; |130| 
    1901 000004f8     8cd5             STW     .D2T1   A5,*+SP(16)       ; |130| 
    1902 000004fa     fc65             STW     .D2T2   B6,*+SP(12)       ; |130| 
    1903                    
    1904 00000504 023c42f6             STW     .D2T2   B4,*+SP(8)        ; |130| 
    1905 00000500 01820163  ||         ADDKPC  .S2     $C$RL17,B3,0      ; |130| 
    1906                    
    1907 00000508           $C$RL17:   ; CALL OCCURS {printf} {0}        ; |130| 
    1908 00000508           $C$DW$L$VLIB_afast9_detectCorners_d$27$E:
    1909                    ;** --------------------------------------------------------------------------*
    1910 00000508           $C$L11:    
    1911 00000508           $C$DW$L$VLIB_afast9_detectCorners_d$28$B:
    1912                    ;          EXCLUSIVE CPU CYCLES: 2
    1913                            .dwpsn  file "./../packages/ti/vlib/src/VLIB_afast9_detectCorners/VLIB_afast9_detectCorners_d.
    1914 00000508 00344264             LDW     .D1T1   *+A13(8),A0       ; |141| 
    1915 0000050c     0c6e             NOP             1
    1916 0000050e           $C$DW$L$VLIB_afast9_detectCorners_d$28$E:
    1917                    ;** --------------------------------------------------------------------------*
    1918 0000050e           $C$L12:    
    1919 0000050e           $C$DW$L$VLIB_afast9_detectCorners_d$29$B:
    1920                    ;          EXCLUSIVE CPU CYCLES: 3
    1921 0000050e     4c6e             NOP             3
    1922 00000510           $C$DW$L$VLIB_afast9_detectCorners_d$29$E:
    1923                    ;** --------------------------------------------------------------------------*
    1924 00000510           $C$L13:    
    1925                            .dwpsn  file "./../packages/ti/vlib/src/VLIB_afast9_detectCorners/VLIB_afast9_detectCorners_d.
TMS320C6x Assembler PC v7.4.2 Thu Mar 19 12:38:22 2015

Tools Copyright (c) 1996-2012 Texas Instruments Incorporated
package/lib/Regression/regress_d_c/./../packages/ti/vlib/src/VLIB_afast9_detectCorners/VLIB_afast9_detectCorners_d.se66 PAGE   36

    1926 00000510           $C$DW$L$VLIB_afast9_detectCorners_d$30$B:
    1927                    ;          EXCLUSIVE CPU CYCLES: 6
    1928                    ;**     -----------------------g20:
    1929                    ;** 136 -----------------------    if ( numFeatures == numFeatures_cn ) goto g22;
    1930                    ;** 137 -----------------------    status_nat_vs_int = 0;
    1931                    ;**     -----------------------g22:
    1932                    ;** 141 -----------------------    v$1 = prm;
    1933                    ;** 141 -----------------------    if ( (*U$15).staticOut == NULL ) goto g31;
    1934                    
    1935 00000510 0029ba7b             CMPEQ   .L2X    B13,A10,B0        ; |136| 
    1936 00000514 d0002411  || [!A0]   B       .S1     $C$L17            ; |141| 
    1937 00000518 053ce2e6  ||         LDW     .D2T2   *+SP(28),B10      ; |141| 
    1938                    
    1939 00000520 3600a35b     [!B0]   ZERO    .L2     B12               ; |137| 
    1940 00000524 003d22e6  ||         LDW     .D2T2   *+SP(36),B0       ; |142| 
    1941                    
    1942                            .dwpsn  file "./../packages/ti/vlib/src/VLIB_afast9_detectCorners/VLIB_afast9_detectCorners_d.
    1943 00000528 c0a9ba7a     [ A0]   CMPEQ   .L2X    A10,B13,B1        ; |142| 
    1944 0000052c 00004000             NOP             3
    1945                            .dwpsn  file "./../packages/ti/vlib/src/VLIB_afast9_detectCorners/VLIB_afast9_detectCorners_d.
    1946                               ; BRANCHCC OCCURS {$C$L17}        ; |141| 
    1947 00000530           $C$DW$L$VLIB_afast9_detectCorners_d$30$E:
    1948                    ;** --------------------------------------------------------------------------*
    1949 00000530           $C$DW$L$VLIB_afast9_detectCorners_d$31$B:
    1950                    ;          EXCLUSIVE CPU CYCLES: 7
    1951                    ;** 142 -----------------------    if ( numFeatures_cn != numFeatures ) goto g30;
    1952                    ;** 143 -----------------------    if ( !totalFeatureHalfWords ) goto g31;
    1953                    
    1954 00000530 5000a35b     [!B1]   ZERO    .L2     B0
    1955 00000534 5600a358  || [!B1]   ZERO    .L1     A12               ; |153| 
    1956                    
    1957 00000538 30404123     [!B0]   BNOP    .S2     $C$L17,2          ; |143| 
    1958 0000053c 2004a359  || [ B0]   MVK     .L1     0x1,A0
    1959 00000540 21b88ca0  || [ B0]   SHL     .S1     A14,4,A3
    1960                    
    1961 00000544 218dde40     [ B0]   ADDAD   .D1     A3,A14,A3
    1962                            .dwpsn  file "./../packages/ti/vlib/src/VLIB_afast9_detectCorners/VLIB_afast9_detectCorners_d.
    1963 00000548 2fbda2e4     [ B0]   LDW     .D2T1   *+SP(52),A31      ; |144| 
    1964 0000054c 228d507a     [ B0]   ADD     .L2X    B10,A3,B5
    1965                            .dwpsn  file "./../packages/ti/vlib/src/VLIB_afast9_detectCorners/VLIB_afast9_detectCorners_d.
    1966                               ; BRANCHCC OCCURS {$C$L17}        ; |143| 
    1967 00000550           $C$DW$L$VLIB_afast9_detectCorners_d$31$E:
    1968                    ;** --------------------------------------------------------------------------*
    1969                            .dwpsn  file "./../packages/ti/vlib/src/VLIB_afast9_detectCorners/VLIB_afast9_detectCorners_d.
    1970 00000550           $C$DW$L$VLIB_afast9_detectCorners_d$32$B:
    1971                    ;**     -----------------------    U$135 = outFeatures_cn;
    1972                    ;**     -----------------------    U$157 = (v$1[tpi]).staticOut;
    1973                    ;** 144 -----------------------    L$4 = totalFeatureHalfWords;
    1974                    ;** 143 -----------------------    --U$157;
    1975                    ;** 143 -----------------------    --U$135;
    1976                    ;** 143 -----------------------    i = (-1);
    1977                    ;**     -----------------------    #pragma MUST_ITERATE(1, 4294967295, 1)
    1978                    ;**     -----------------------    #pragma LOOP_FLAGS(4352u)
    1979                    ;**     -----------------------g26:
    1980                    ;** 144 -----------------------    f$6 = (*(++U$135) != *(++U$157))-1;
TMS320C6x Assembler PC v7.4.2 Thu Mar 19 12:38:22 2015

Tools Copyright (c) 1996-2012 Texas Instruments Incorporated
package/lib/Regression/regress_d_c/./../packages/ti/vlib/src/VLIB_afast9_detectCorners/VLIB_afast9_detectCorners_d.se66 PAGE   37

    1981                    ;** 143 -----------------------    ++i;
    1982                    ;** 143 -----------------------    L$4 = L$4-1;
    1983                    ;** 143 -----------------------    if ( L$4&f$6 ) goto g26;
    1984                    ;**     -----------------------    if ( f$6 ) goto g31;
    1985 00000550           $C$DW$L$VLIB_afast9_detectCorners_d$32$E:
    1986                    ;*----------------------------------------------------------------------------*
    1987                    ;*   SOFTWARE PIPELINE INFORMATION
    1988                    ;*
    1989                    ;*      Loop found in file               : ./../packages/ti/vlib/src/VLIB_afast9_detectCorners/VLIB_af
    1990                    ;*      Loop source line                 : 143
    1991                    ;*      Loop opening brace source line   : 143
    1992                    ;*      Loop closing brace source line   : 151
    1993                    ;*      Known Minimum Trip Count         : 1                    
    1994                    ;*      Known Max Trip Count Factor      : 1
    1995                    ;*      Loop Carried Dependency Bound(^) : 1
    1996                    ;*      Unpartitioned Resource Bound     : 2
    1997                    ;*      Partitioned Resource Bound(*)    : 2
    1998                    ;*      Resource Partition:
    1999                    ;*                                A-side   B-side
    2000                    ;*      .L units                     1        0     
    2001                    ;*      .S units                     1        0     
    2002                    ;*      .D units                     1        1     
    2003                    ;*      .M units                     0        0     
    2004                    ;*      .X cross paths               1        0     
    2005                    ;*      .T address paths             1        1     
    2006                    ;*      Long read paths              0        0     
    2007                    ;*      Long write paths             0        0     
    2008                    ;*      Logical  ops (.LS)           0        0     (.L or .S unit)
    2009                    ;*      Addition ops (.LSD)          3        1     (.L or .S or .D unit)
    2010                    ;*      Bound(.L .S .LS)             1        0     
    2011                    ;*      Bound(.L .S .D .LS .LSD)     2*       1     
    2012                    ;*
    2013                    ;*      Searching for software pipeline schedule at ...
    2014                    ;*         ii = 4  Unsafe schedule for irregular loop
    2015                    ;*         ii = 4  Unsafe schedule for irregular loop
    2016                    ;*         ii = 4  Unsafe schedule for irregular loop
    2017                    ;*         ii = 4  Unsafe schedule for irregular loop
    2018                    ;*         ii = 4  Unsafe schedule for irregular loop
    2019                    ;*         ii = 4  Did not find schedule
    2020                    ;*         ii = 5  Unsafe schedule for irregular loop
    2021                    ;*         ii = 5  Unsafe schedule for irregular loop
    2022                    ;*         ii = 5  Unsafe schedule for irregular loop
    2023                    ;*         ii = 5  Unsafe schedule for irregular loop
    2024                    ;*         ii = 5  Unsafe schedule for irregular loop
    2025                    ;*         ii = 5  Did not find schedule
    2026                    ;*         ii = 6  Unsafe schedule for irregular loop
    2027                    ;*         ii = 6  Unsafe schedule for irregular loop
    2028                    ;*         ii = 6  Unsafe schedule for irregular loop
    2029                    ;*         ii = 6  Unsafe schedule for irregular loop
    2030                    ;*         ii = 6  Unsafe schedule for irregular loop
    2031                    ;*         ii = 6  Did not find schedule
    2032                    ;*         ii = 7  Unsafe schedule for irregular loop
    2033                    ;*         ii = 7  Unsafe schedule for irregular loop
    2034                    ;*         ii = 7  Unsafe schedule for irregular loop
    2035                    ;*         ii = 7  Unsafe schedule for irregular loop
TMS320C6x Assembler PC v7.4.2 Thu Mar 19 12:38:22 2015

Tools Copyright (c) 1996-2012 Texas Instruments Incorporated
package/lib/Regression/regress_d_c/./../packages/ti/vlib/src/VLIB_afast9_detectCorners/VLIB_afast9_detectCorners_d.se66 PAGE   38

    2036                    ;*         ii = 7  Unsafe schedule for irregular loop
    2037                    ;*         ii = 7  Did not find schedule
    2038                    ;*         ii = 8  Unsafe schedule for irregular loop
    2039                    ;*         ii = 8  Unsafe schedule for irregular loop
    2040                    ;*         ii = 8  Unsafe schedule for irregular loop
    2041                    ;*         ii = 8  Unsafe schedule for irregular loop
    2042                    ;*         ii = 8  Unsafe schedule for irregular loop
    2043                    ;*         ii = 8  Did not find schedule
    2044                    ;*         ii = 9  Schedule found with 2 iterations in parallel
    2045                    ;*
    2046                    ;*      Register Usage Table:
    2047                    ;*          +-----------------------------------------------------------------+
    2048                    ;*          |AAAAAAAAAAAAAAAAAAAAAAAAAAAAAAAA|BBBBBBBBBBBBBBBBBBBBBBBBBBBBBBBB|
    2049                    ;*          |00000000001111111111222222222233|00000000001111111111222222222233|
    2050                    ;*          |01234567890123456789012345678901|01234567890123456789012345678901|
    2051                    ;*          |--------------------------------+--------------------------------|
    2052                    ;*       0: |    ** *                        |    ***                         |
    2053                    ;*       1: |    ** *                        |    ***                         |
    2054                    ;*       2: |   *** *                        |    ***                         |
    2055                    ;*       3: |    ****                        |    ***                         |
    2056                    ;*       4: |   *** *                        |    ***                         |
    2057                    ;*       5: |*   ** *                        |    ***                         |
    2058                    ;*       6: |    ** *                        |    ***                         |
    2059                    ;*       7: |    ** *                        |    ***                         |
    2060                    ;*       8: |    ** *                        |    ***                         |
    2061                    ;*          +-----------------------------------------------------------------+
    2062                    ;*
    2063                    ;*      Done
    2064                    ;*
    2065                    ;*      Loop will be splooped
    2066                    ;*      Collapsed epilog stages       : 1
    2067                    ;*      Collapsed prolog stages       : 0
    2068                    ;*      Minimum required memory pad   : 0 bytes
    2069                    ;*
    2070                    ;*      For further improvement on this loop, try option -mh28
    2071                    ;*
    2072                    ;*      Minimum safe trip count       : 1
    2073                    ;*      Min. prof. trip count  (est.) : 3
    2074                    ;*
    2075                    ;*      Mem bank conflicts/iter(est.) : { min 0.000, est 0.125, max 1.000 }
    2076                    ;*      Mem bank perf. penalty (est.) : 1.4%
    2077                    ;*
    2078                    ;*      Effective ii                : { min 9.00, est 9.13, max 10.00 }
    2079                    ;*
    2080                    ;*
    2081                    ;*      Total cycles (est.)         : 9 + trip_cnt * 9        
    2082                    ;*----------------------------------------------------------------------------*
    2083                    ;*       SETUP CODE
    2084                    ;*
    2085                    ;*                  MVK             0x1,A0
    2086                    ;*
    2087                    ;*        SINGLE SCHEDULED ITERATION
    2088                    ;*
    2089                    ;*        $C$C66:
    2090                    ;*   5      [ A0]   LDHU    .D1T1   *++A5,A7          ; |144|  ^ 
TMS320C6x Assembler PC v7.4.2 Thu Mar 19 12:38:22 2015

Tools Copyright (c) 1996-2012 Texas Instruments Incorporated
package/lib/Regression/regress_d_c/./../packages/ti/vlib/src/VLIB_afast9_detectCorners/VLIB_afast9_detectCorners_d.se66 PAGE   39

    2091                    ;*     ||   [ A0]   LDHU    .D2T2   *++B6,B4          ; |144|  ^ 
    2092                    ;*   6              NOP             4
    2093                    ;*  10              CMPEQ   .L1X    B4,A7,A3          ; |144|  ^ 
    2094                    ;*  11              EXT     .S1     A3,31,31,A6       ; |144|  ^ 
    2095                    ;*     ||           SUB     .L1     A4,1,A4           ; |143|  ^ 
    2096                    ;*  12              AND     .L1     A6,A4,A3          ; |143|  ^ 
    2097                    ;*  13              MV      .L1     A3,A0             ; |143|  ^ 
    2098                    ;*  14      [ A0]   SPWBR           $C$C66
    2099                    ;*  15              NOP             2
    2100                    ;*  17              ADD     .L2     1,B5,B5           ; |143| 
    2101                    ;*  18              ; BRANCHCC OCCURS {$C$C66}        ; |143| 
    2102                    ;*----------------------------------------------------------------------------*
    2103 00000550           $C$L14:    ; PIPED LOOP PROLOG
    2104                    ;          EXCLUSIVE CPU CYCLES: 10
    2105                    
    2106 00000550 c403e001     [ A0]   SPLOOPW 9       ;18               ; (P) 
    2107 00000554     50dd  ||         LDW     .D2T2   *+B5(8),B5
    2108                    
    2109                    ;** --------------------------------------------------------------------------*
    2110 00000556           $C$L15:    ; PIPED LOOP KERNEL
    2111 00000556           $C$DW$L$VLIB_afast9_detectCorners_d$34$B:
    2112                    ;          EXCLUSIVE CPU CYCLES: 9
    2113 00000556     6c6e             NOP             4
    2114                    
    2115 00000558     ace7             SPMASK          L1,L2,D2
    2116 0000055a     ad4d  ||         LDW     .D2T1   *+SP(36),A4
    2117 00000560 037fd05b  ||         SUB     .L2X    A31,2,B6          ; |143| 
    2118 00000564 0297d058  ||         SUB     .L1X    B5,2,A5           ; |143| 
    2119                    
    2120 00000568 c3943205     [ A0]   LDHU    .D1T1   *++A5,A7          ; |144| (P) <0,5>  ^ 
    2121 0000056c c2183286  || [ A0]   LDHU    .D2T2   *++B6,B4          ; |144| (P) <0,5>  ^ 
    2122                    
    2123 00000570     2c6e             NOP             2
    2124                    
    2125 00000572     2ce6             SPMASK          L2
    2126 00000574     fea7  ||         MVK     .L2     0xffffffff,B5     ; |143| 
    2127                    
    2128 00000576     0c6e             NOP             1
    2129                            .dwpsn  file "./../packages/ti/vlib/src/VLIB_afast9_detectCorners/VLIB_afast9_detectCorners_d.
    2130 00000578 0190fa78             CMPEQ   .L1X    B4,A7,A3          ; |144| <0,10>  ^ 
    2131                    
    2132 00000584 0213e058             SUB     .L1     A4,1,A4           ; |143| <0,11>  ^ 
    2133 00000580 030fff49  ||         EXT     .S1     A3,31,31,A6       ; |144| <0,11>  ^ 
    2134                    
    2135                            .dwpsn  file "./../packages/ti/vlib/src/VLIB_afast9_detectCorners/VLIB_afast9_detectCorners_d.
    2136 00000588 0190cf78             AND     .L1     A6,A4,A3          ; |143| <0,12>  ^ 
    2137 0000058c     01c6             MV      .L1     A3,A0             ; |143| <0,13>  ^ 
    2138 0000058e     2c6e             NOP             2
    2139 00000590 00000000             NOP             1
    2140                    
    2141 00000594 00034001             SPKERNEL 0,0
    2142 00000598     26d1  ||         ADD     .L2     1,B5,B5           ; |143| <0,17> 
    2143                    
    2144 000005a0           $C$DW$L$VLIB_afast9_detectCorners_d$34$E:
    2145                    ;** --------------------------------------------------------------------------*
TMS320C6x Assembler PC v7.4.2 Thu Mar 19 12:38:22 2015

Tools Copyright (c) 1996-2012 Texas Instruments Incorporated
package/lib/Regression/regress_d_c/./../packages/ti/vlib/src/VLIB_afast9_detectCorners/VLIB_afast9_detectCorners_d.se66 PAGE   40

    2146 000005a0           $C$L16:    ; PIPED LOOP EPILOG
    2147                    ;** --------------------------------------------------------------------------*
    2148 000005a0           $C$DW$L$VLIB_afast9_detectCorners_d$36$B:
    2149                    ;          EXCLUSIVE CPU CYCLES: 7
    2150                    
    2151 000005a0 00180fd9             MV      .L1     A6,A0
    2152 000005a4 032d407a  ||         ADD     .L2     B10,B11,B6        ; |164| 
    2153                    
    2154 000005a8 c0001491     [ A0]   B       .S1     $C$L18
    2155 000005ac     2046  ||         MV      .L1     A0,A1             ; branch predicate copy
    2156 000005b0 d6000040  || [!A0]   ZERO    .D1     A12               ; |145| 
    2157 000005ae     8d0d  ||         LDW     .D2T1   *+SP(32),A0       ; |145| 
    2158                    
    2159 000005b4 8218a2e7     [ A1]   LDW     .D2T2   *+B6(20),B4       ; |164| 
    2160 000005b8 8380002b! || [ A1]   MVKL    .S2     testPatternString,B7
    2161 000005c0 82000028! || [ A1]   MVKL    .S1     est_test,A4
    2162                    
    2163 000005c4 8298e287     [ A1]   LDHU    .D2T2   *+B6(14),B5       ; |164| 
    2164 000005c8 8400002a! || [ A1]   MVKL    .S2     $C$SL4+0,B8
    2165                    
    2166 000005cc 8380006a!    [ A1]   MVKH    .S2     testPatternString,B7
    2167                            .dwpsn  file "./../packages/ti/vlib/src/VLIB_afast9_detectCorners/VLIB_afast9_detectCorners_d.
    2168 000005d0 8318c286     [ A1]   LDHU    .D2T2   *+B6(12),B6       ; |164| 
    2169 000005d4 8400006b!    [ A1]   MVKH    .S2     $C$SL4+0,B8
    2170                               ; BRANCHCC OCCURS {$C$L18}  
    2171 000005e0           $C$DW$L$VLIB_afast9_detectCorners_d$36$E:
    2172                    ;** --------------------------------------------------------------------------*
    2173 000005e0           $C$DW$L$VLIB_afast9_detectCorners_d$37$B:
    2174                    ;          EXCLUSIVE CPU CYCLES: 6
    2175                    ;** 145 -----------------------    status_nat_vs_ref = 0;
    2176                    ;** 146 -----------------------    if ( !LevelOfFeedback ) goto g31;
    2177                    
    2178 000005e0 d400002b!    [!A0]   MVKL    .S2     $C$SL4+0,B8
    2179 000005e4 d32d407b  || [!A0]   ADD     .L2     B10,B11,B6        ; |164| 
    2180 000005e8 d0000c90  || [!A0]   B       .S1     $C$L18            ; |146| 
    2181                    
    2182 000005ec d218a2e7     [!A0]   LDW     .D2T2   *+B6(20),B4       ; |164| 
    2183 000005f0 d380002b! || [!A0]   MVKL    .S2     testPatternString,B7
    2184 000005f4 d2000028! || [!A0]   MVKL    .S1     est_test,A4
    2185                    
    2186                    $C$DW$156       .dwtag  DW_TAG_TI_branch
    2187                            .dwattr $C$DW$156, DW_AT_low_pc(0x08)
    2188                            .dwattr $C$DW$156, DW_AT_name("printf")
    2189                            .dwattr $C$DW$156, DW_AT_TI_call
    2190                    
    2191 000005f8 d298e287     [!A0]   LDHU    .D2T2   *+B6(14),B5       ; |164| 
    2192 000005fc c200002b! || [ A0]   MVKL    .S2     $C$SL3+0,B4
    2193 00000600 c0000010! || [ A0]   CALL    .S1     printf            ; |147| 
    2194                    
    2195 00000604 d400006b!    [!A0]   MVKH    .S2     $C$SL4+0,B8
    2196 00000608 d318c286  || [!A0]   LDHU    .D2T2   *+B6(12),B6       ; |164| 
    2197                    
    2198 0000060c d380006a!    [!A0]   MVKH    .S2     testPatternString,B7
    2199 00000610 c200006a!    [ A0]   MVKH    .S2     $C$SL3+0,B4
    2200                            .dwpsn  file "./../packages/ti/vlib/src/VLIB_afast9_detectCorners/VLIB_afast9_detectCorners_d.
TMS320C6x Assembler PC v7.4.2 Thu Mar 19 12:38:22 2015

Tools Copyright (c) 1996-2012 Texas Instruments Incorporated
package/lib/Regression/regress_d_c/./../packages/ti/vlib/src/VLIB_afast9_detectCorners/VLIB_afast9_detectCorners_d.se66 PAGE   41

    2201                               ; BRANCHCC OCCURS {$C$L18}        ; |146| 
    2202 00000614           $C$DW$L$VLIB_afast9_detectCorners_d$37$E:
    2203                    ;** --------------------------------------------------------------------------*
    2204 00000614           $C$DW$L$VLIB_afast9_detectCorners_d$38$B:
    2205                    ;          EXCLUSIVE CPU CYCLES: 2
    2206                    ;** 147 -----------------------    printf((const char *)" Mismatch in Index = %u \n", i);
    2207                    ;** 147 -----------------------    goto g31;
    2208                    ;**     -----------------------g30:
    2209                    ;** 153 -----------------------    status_nat_vs_ref = 0;
    2210                            .dwpsn  file "./../packages/ti/vlib/src/VLIB_afast9_detectCorners/VLIB_afast9_detectCorners_d.
    2211 00000614     bc45             STW     .D2T2   B4,*+SP(4)        ; |147| 
    2212                    
    2213 00000616     dc55             STW     .D2T2   B5,*+SP(8)        ; |147| 
    2214 00000618 01880162  ||         ADDKPC  .S2     $C$RL18,B3,0      ; |147| 
    2215                    
    2216 00000620           $C$RL18:   ; CALL OCCURS {printf} {0}        ; |147| 
    2217 00000620           $C$DW$L$VLIB_afast9_detectCorners_d$38$E:
    2218                    ;** --------------------------------------------------------------------------*
    2219 00000620           $C$L17:    
    2220 00000620           $C$DW$L$VLIB_afast9_detectCorners_d$39$B:
    2221                    ;          EXCLUSIVE CPU CYCLES: 5
    2222                            .dwpsn  file "./../packages/ti/vlib/src/VLIB_afast9_detectCorners/VLIB_afast9_detectCorners_d.
    2223 00000620 032d407a             ADD     .L2     B10,B11,B6        ; |164| 
    2224                    
    2225 00000628     f35d             LDHU    .D2T2   *+B6(14),B5       ; |164| 
    2226 00000624 0400002b! ||         MVKL    .S2     $C$SL4+0,B8
    2227                    
    2228 0000062a     b14d             LDW     .D2T2   *+B6(20),B4       ; |164| 
    2229 0000062c 0380002a! ||         MVKL    .S2     testPatternString,B7
    2230                    
    2231 00000634 0318c286             LDHU    .D2T2   *+B6(12),B6       ; |164| 
    2232 00000630 0400006b! ||         MVKH    .S2     $C$SL4+0,B8
    2233                    
    2234 00000638 0380006b!            MVKH    .S2     testPatternString,B7
    2235 00000640 02000028! ||         MVKL    .S1     est_test,A4
    2236                    
    2237 00000644           $C$DW$L$VLIB_afast9_detectCorners_d$39$E:
    2238                    ;** --------------------------------------------------------------------------*
    2239 00000644           $C$L18:    
    2240                            .dwpsn  file "./../packages/ti/vlib/src/VLIB_afast9_detectCorners/VLIB_afast9_detectCorners_d.
    2241 00000644           $C$DW$L$VLIB_afast9_detectCorners_d$40$B:
    2242                    ;          EXCLUSIVE CPU CYCLES: 8
    2243                    ;**     -----------------------g31:
    2244                    ;** 161 -----------------------    est_test = 1;
    2245                    ;** 164 -----------------------    C$7 = U$14+v$1;
    2246                    ;** 164 -----------------------    sprintf(K$173, (const char *)"%s generated input | Opt and NatC res
    2247                    ;** 167 -----------------------    VLIB_formula_add_test((int)(totalFeatureHalfWords<<4), (*U$15).imag
    2248                    ;** 169 -----------------------    goto g33;
    2249                    
    2250 00000644 02000069!            MVKH    .S1     est_test,A4
    2251 00000648 03bc42f6  ||         STW     .D2T2   B7,*+SP(8)        ; |164| 
    2252                    
    2253                            .dwpsn  file "./../packages/ti/vlib/src/VLIB_afast9_detectCorners/VLIB_afast9_detectCorners_d.
    2254 0000064c 06bca2f6             STW     .D2T2   B13,*+SP(20)      ; |164| 
    2255                    $C$DW$157       .dwtag  DW_TAG_TI_branch
TMS320C6x Assembler PC v7.4.2 Thu Mar 19 12:38:22 2015

Tools Copyright (c) 1996-2012 Texas Instruments Incorporated
package/lib/Regression/regress_d_c/./../packages/ti/vlib/src/VLIB_afast9_detectCorners/VLIB_afast9_detectCorners_d.se66 PAGE   42

    2256                            .dwattr $C$DW$157, DW_AT_low_pc(0x04)
    2257                            .dwattr $C$DW$157, DW_AT_name("sprintf")
    2258                            .dwattr $C$DW$157, DW_AT_TI_call
    2259                    
    2260 00000654     9cd5             STW     .D2T2   B5,*+SP(16)       ; |164| 
    2261 00000650 00000011! ||         CALL    .S1     sprintf           ; |164| 
    2262                    
    2263 00000656     25a6             MVK     .L1     1,A3              ; |161| 
    2264 00000658 033c62f6  ||         STW     .D2T2   B6,*+SP(12)       ; |164| 
    2265                    
    2266 00000660 043c22f6             STW     .D2T2   B8,*+SP(4)        ; |164| 
    2267 00000664     dcc5             STW     .D2T2   B4,*+SP(24)       ; |164| 
    2268                    
    2269 00000666     0034             STW     .D1T1   A3,*A4            ; |161| 
    2270 00000668 02000028! ||         MVKL    .S1     desc,A4
    2271                    
    2272 0000066c 02000069!            MVKH    .S1     desc,A4
    2273 00000670 01850162  ||         ADDKPC  .S2     $C$RL19,B3,0      ; |164| 
    2274                    
    2275 00000674           $C$RL19:   ; CALL OCCURS {sprintf} {0}       ; |164| 
    2276 00000674           $C$DW$L$VLIB_afast9_detectCorners_d$40$E:
    2277                    ;** --------------------------------------------------------------------------*
    2278 00000674           $C$DW$L$VLIB_afast9_detectCorners_d$41$B:
    2279                    ;          EXCLUSIVE CPU CYCLES: 13
    2280                            .dwpsn  file "./../packages/ti/vlib/src/VLIB_afast9_detectCorners/VLIB_afast9_detectCorners_d.
    2281 00000674 023d22e6             LDW     .D2T2   *+SP(36),B4       ; |167| 
    2282 00000678 01b4e204             LDHU    .D1T1   *+A13(14),A3      ; |167| 
    2283 00000680 02300a58             CMPEQ   .L1     A12,0,A4          ; |167| 
    2284 00000684 02b00a5a             CMPEQ   .L2     B12,0,B5          ; |167| 
    2285 00000688 04000028!            MVKL    .S1     desc,A8
    2286 0000068c 02108ca2             SHL     .S2     B4,4,B4           ; |167| 
    2287 00000690 0310bffa             OR      .L2X    A4,B5,B6          ; |167| 
    2288                    $C$DW$158       .dwtag  DW_TAG_TI_branch
    2289                            .dwattr $C$DW$158, DW_AT_low_pc(0x00)
    2290                            .dwattr $C$DW$158, DW_AT_name("VLIB_formula_add_test")
    2291                            .dwattr $C$DW$158, DW_AT_TI_call
    2292                    
    2293 00000694 10000013!            CALLP   .S2     VLIB_formula_add_test,B3
    2294 00000698     9246  ||         MV      .L1X    B4,A4             ; |167| 
    2295 0000069a     5dc1  ||         SUB     .L2X    A3,6,B4           ; |167| 
    2296 000006a0 04000069! ||         MVKH    .S1     desc,A8
    2297 000006a8     1b76  ||         ZERO    .D1     A6                ; |167| 
    2298 000006a4 04000043  ||         ZERO    .D2     B8                ; |167| 
    2299                    
    2300 000006aa           $C$RL20:   ; CALL OCCURS {VLIB_formula_add_test} {0}  ; |167| 
    2301 000006aa           $C$DW$L$VLIB_afast9_detectCorners_d$41$E:
    2302                    ;** --------------------------------------------------------------------------*
    2303 000006aa           $C$DW$L$VLIB_afast9_detectCorners_d$42$B:
    2304                    ;          EXCLUSIVE CPU CYCLES: 6
    2305                            .dwpsn  file "./../packages/ti/vlib/src/VLIB_afast9_detectCorners/VLIB_afast9_detectCorners_d.
    2306 000006aa     0b0a             B       .S1     $C$L20            ; |169| 
    2307                            .dwpsn  file "./../packages/ti/vlib/src/VLIB_afast9_detectCorners/VLIB_afast9_detectCorners_d.
    2308                    ;----------------------------------------------------------------------
    2309                    ; 177 | VLIB_free(im1);                                                        
    2310                    ;----------------------------------------------------------------------
TMS320C6x Assembler PC v7.4.2 Thu Mar 19 12:38:22 2015

Tools Copyright (c) 1996-2012 Texas Instruments Incorporated
package/lib/Regression/regress_d_c/./../packages/ti/vlib/src/VLIB_afast9_detectCorners/VLIB_afast9_detectCorners_d.se66 PAGE   43

    2311                    $C$DW$159       .dwtag  DW_TAG_TI_branch
    2312                            .dwattr $C$DW$159, DW_AT_low_pc(0x00)
    2313                            .dwattr $C$DW$159, DW_AT_name("VLIB_free")
    2314                            .dwattr $C$DW$159, DW_AT_TI_call
    2315 000006ac 00000010!            CALL    .S1     VLIB_free         ; |177| 
    2316 000006b0     cd4d             LDW     .D2T1   *+SP(40),A4       ; |177| 
    2317 000006b2     4c6e             NOP             3
    2318                            .dwpsn  file "./../packages/ti/vlib/src/VLIB_afast9_detectCorners/VLIB_afast9_detectCorners_d.
    2319                               ; BRANCH OCCURS {$C$L20}          ; |169| 
    2320 000006b4           $C$DW$L$VLIB_afast9_detectCorners_d$42$E:
    2321                    ;** --------------------------------------------------------------------------*
    2322 000006b4           $C$L19:    
    2323                            .dwpsn  file "./../packages/ti/vlib/src/VLIB_afast9_detectCorners/VLIB_afast9_detectCorners_d.
    2324                    $C$DW$L$VLIB_afast9_detectCorners_d$43$B:
    2325                    ;          EXCLUSIVE CPU CYCLES: 6
    2326                    ;**     -----------------------g32:
    2327                    ;** 171 -----------------------    sprintf(K$173, (const char *)"width= %d, height= %d", (int)(*U$15).
    2328                    ;** 173 -----------------------    VLIB_skip_test(K$173);
    2329                    $C$DW$160       .dwtag  DW_TAG_TI_branch
    2330                            .dwattr $C$DW$160, DW_AT_low_pc(0x00)
    2331                            .dwattr $C$DW$160, DW_AT_name("sprintf")
    2332                            .dwattr $C$DW$160, DW_AT_TI_call
    2333                    
    2334 000006b4 00000011!            CALL    .S1     sprintf           ; |171| 
    2335 000006b8 01b4e204  ||         LDHU    .D1T1   *+A13(14),A3      ; |171| 
    2336                    
    2337 000006c0 0200002a!            MVKL    .S2     $C$SL5+0,B4
    2338 000006c4 0200006a!            MVKH    .S2     $C$SL5+0,B4
    2339                            .dwpsn  file "./../packages/ti/vlib/src/VLIB_afast9_detectCorners/VLIB_afast9_detectCorners_d.
    2340 000006c8     bc45             STW     .D2T2   B4,*+SP(4)        ; |171| 
    2341                    
    2342 000006ca     cc45             STW     .D2T1   A4,*+SP(8)        ; |171| 
    2343 000006cc 02000028! ||         MVKL    .S1     desc,A4
    2344                    
    2345 000006d8 01bc62f4             STW     .D2T1   A3,*+SP(12)       ; |171| 
    2346 000006d4 02000069! ||         MVKH    .S1     desc,A4
    2347 000006d0 01880163  ||         ADDKPC  .S2     $C$RL21,B3,0      ; |171| 
    2348                    
    2349 000006e0           $C$RL21:   ; CALL OCCURS {sprintf} {0}       ; |171| 
    2350 000006e0           $C$DW$L$VLIB_afast9_detectCorners_d$43$E:
    2351                    ;** --------------------------------------------------------------------------*
    2352 000006e0           $C$DW$L$VLIB_afast9_detectCorners_d$44$B:
    2353                    ;          EXCLUSIVE CPU CYCLES: 12
    2354 000006e0 02000028!            MVKL    .S1     desc,A4
    2355                    $C$DW$161       .dwtag  DW_TAG_TI_branch
    2356                            .dwattr $C$DW$161, DW_AT_low_pc(0x00)
    2357                            .dwattr $C$DW$161, DW_AT_name("VLIB_skip_test")
    2358                            .dwattr $C$DW$161, DW_AT_TI_call
    2359                    
    2360 000006e4 10000013!            CALLP   .S2     VLIB_skip_test,B3
    2361 000006e8 02000068! ||         MVKH    .S1     desc,A4
    2362                    
    2363                            .dwpsn  file "./../packages/ti/vlib/src/VLIB_afast9_detectCorners/VLIB_afast9_detectCorners_d.
    2364 000006ec           $C$RL22:   ; CALL OCCURS {VLIB_skip_test} {0}  ; |173| 
    2365                            .dwpsn  file "./../packages/ti/vlib/src/VLIB_afast9_detectCorners/VLIB_afast9_detectCorners_d.
TMS320C6x Assembler PC v7.4.2 Thu Mar 19 12:38:22 2015

Tools Copyright (c) 1996-2012 Texas Instruments Incorporated
package/lib/Regression/regress_d_c/./../packages/ti/vlib/src/VLIB_afast9_detectCorners/VLIB_afast9_detectCorners_d.se66 PAGE   44

    2366                    $C$DW$162       .dwtag  DW_TAG_TI_branch
    2367                            .dwattr $C$DW$162, DW_AT_low_pc(0x00)
    2368                            .dwattr $C$DW$162, DW_AT_name("VLIB_free")
    2369                            .dwattr $C$DW$162, DW_AT_TI_call
    2370 000006ec 00000010!            CALL    .S1     VLIB_free         ; |177| 
    2371 000006f0 023d42e4             LDW     .D2T1   *+SP(40),A4       ; |177| 
    2372 000006f4 00004000             NOP             3
    2373 000006f8           $C$DW$L$VLIB_afast9_detectCorners_d$44$E:
    2374                    ;** --------------------------------------------------------------------------*
    2375 000006f8           $C$L20:    
    2376                            .dwpsn  file "./../packages/ti/vlib/src/VLIB_afast9_detectCorners/VLIB_afast9_detectCorners_d.
    2377 000006f8           $C$DW$L$VLIB_afast9_detectCorners_d$45$B:
    2378                    ;          EXCLUSIVE CPU CYCLES: 1
    2379                    ;**     -----------------------g33:
    2380                    ;** 177 -----------------------    VLIB_free((void *)im1);
    2381                    ;** 178 -----------------------    VLIB_free((void *)outFeatures);
    2382                    ;** 179 -----------------------    VLIB_align_free((void *)scratch);
    2383                    ;** 180 -----------------------    free((void *)outFeatures_cn);
    2384                    ;** 50  -----------------------    U$14 += 24;
    2385                    ;** 50  -----------------------    if ( test_cases > (++tpi) ) goto g3;
    2386                            .dwpsn  file "./../packages/ti/vlib/src/VLIB_afast9_detectCorners/VLIB_afast9_detectCorners_d.
    2387 000006f8 01880163             ADDKPC  .S2     $C$RL23,B3,0      ; |177| 
    2388                    $C$RL23:   ; CALL OCCURS {VLIB_free} {0}     ; |177| 
    2389                    $C$DW$L$VLIB_afast9_detectCorners_d$45$E:
    2390                    ;** --------------------------------------------------------------------------*
    2391                    $C$DW$L$VLIB_afast9_detectCorners_d$46$B:
    2392                    ;          EXCLUSIVE CPU CYCLES: 18
    2393                    $C$DW$163       .dwtag  DW_TAG_TI_branch
    2394                            .dwattr $C$DW$163, DW_AT_low_pc(0x00)
    2395                            .dwattr $C$DW$163, DW_AT_name("VLIB_free")
    2396                            .dwattr $C$DW$163, DW_AT_TI_call
    2397                    
    2398 00000700 10000013!            CALLP   .S2     VLIB_free,B3
    2399 00000704 023d62e4  ||         LDW     .D2T1   *+SP(44),A4       ; |178| 
    2400                    
    2401                            .dwpsn  file "./../packages/ti/vlib/src/VLIB_afast9_detectCorners/VLIB_afast9_detectCorners_d.
    2402                    ;----------------------------------------------------------------------
    2403                    ; 178 | VLIB_free(outFeatures);                                                
    2404                    ;----------------------------------------------------------------------
    2405                    $C$RL24:   ; CALL OCCURS {VLIB_free} {0}     ; |178| 
    2406                    $C$DW$164       .dwtag  DW_TAG_TI_branch
    2407                            .dwattr $C$DW$164, DW_AT_low_pc(0x00)
    2408                            .dwattr $C$DW$164, DW_AT_name("VLIB_align_free")
    2409                            .dwattr $C$DW$164, DW_AT_TI_call
    2410                    
    2411 00000708 10000013!            CALLP   .S2     VLIB_align_free,B3
    2412 0000070c 023d82e4  ||         LDW     .D2T1   *+SP(48),A4       ; |179| 
    2413                    
    2414                            .dwpsn  file "./../packages/ti/vlib/src/VLIB_afast9_detectCorners/VLIB_afast9_detectCorners_d.
    2415                    ;----------------------------------------------------------------------
    2416                    ; 179 | VLIB_align_free(scratch);                                              
    2417                    ;----------------------------------------------------------------------
    2418                    $C$RL25:   ; CALL OCCURS {VLIB_align_free} {0}  ; |179| 
    2419                    $C$DW$165       .dwtag  DW_TAG_TI_branch
    2420                            .dwattr $C$DW$165, DW_AT_low_pc(0x00)
TMS320C6x Assembler PC v7.4.2 Thu Mar 19 12:38:22 2015

Tools Copyright (c) 1996-2012 Texas Instruments Incorporated
package/lib/Regression/regress_d_c/./../packages/ti/vlib/src/VLIB_afast9_detectCorners/VLIB_afast9_detectCorners_d.se66 PAGE   45

    2421                            .dwattr $C$DW$165, DW_AT_name("free")
    2422                            .dwattr $C$DW$165, DW_AT_TI_call
    2423                    
    2424 00000710 10000013!            CALLP   .S2     free,B3
    2425 00000714 023da2e4  ||         LDW     .D2T1   *+SP(52),A4       ; |180| 
    2426                    
    2427                            .dwpsn  file "./../packages/ti/vlib/src/VLIB_afast9_detectCorners/VLIB_afast9_detectCorners_d.
    2428                    ;----------------------------------------------------------------------
    2429                    ; 180 | free(outFeatures_cn);                                                  
    2430                    ;----------------------------------------------------------------------
    2431 00000718           $C$RL26:   ; CALL OCCURS {free} {0}          ; |180| 
    2432 00000718           $C$DW$L$VLIB_afast9_detectCorners_d$46$E:
    2433                    ;** --------------------------------------------------------------------------*
    2434 00000718           $C$DW$L$VLIB_afast9_detectCorners_d$47$B:
    2435                    ;          EXCLUSIVE CPU CYCLES: 14
    2436 00000718 01800028!            MVKL    .S1     test_cases,A3
    2437 0000071c 01800068!            MVKH    .S1     test_cases,A3
    2438                            .dwpsn  file "./../packages/ti/vlib/src/VLIB_afast9_detectCorners/VLIB_afast9_detectCorners_d.
    2439 00000720 018c0264             LDW     .D1T1   *A3,A3            ; |50| 
    2440 00000724 05800c52             ADDK    .S2     24,B11            ; |50| 
    2441 00000728 07382058             ADD     .L1     1,A14,A14         ; |50| 
    2442                            .dwpsn  file "./../packages/ti/vlib/src/VLIB_afast9_detectCorners/VLIB_afast9_detectCorners_d.
    2443 0000072c 06800c50             ADDK    .S1     24,A13            ; |58| 
    2444 00000730 00000000             NOP             1
    2445                            .dwpsn  file "./../packages/ti/vlib/src/VLIB_afast9_detectCorners/VLIB_afast9_detectCorners_d.
    2446 00000734 003868f8             CMPGT   .L1     A3,A14,A0         ; |50| 
    2447                    
    2448 00000738 ce546121     [ A0]   BNOP    .S1     $C$L1,3           ; |50| 
    2449 0000073c c1b50204  || [ A0]   LDHU    .D1T1   *+A13(16),A3      ; |61| 
    2450                    
    2451                            .dwpsn  file "./../packages/ti/vlib/src/VLIB_afast9_detectCorners/VLIB_afast9_detectCorners_d.
    2452 00000740 c534e204     [ A0]   LDHU    .D1T1   *+A13(14),A10     ; |58| 
    2453 00000744 c5b4c204     [ A0]   LDHU    .D1T1   *+A13(12),A11     ; |58| 
    2454                            .dwpsn  file "./../packages/ti/vlib/src/VLIB_afast9_detectCorners/VLIB_afast9_detectCorners_d.
    2455                               ; BRANCHCC OCCURS {$C$L1}         ; |50| 
    2456 00000748           $C$DW$L$VLIB_afast9_detectCorners_d$47$E:
    2457                    ;** --------------------------------------------------------------------------*
    2458 00000748           $C$L21:    
    2459                    ;          EXCLUSIVE CPU CYCLES: 8
    2460                    ;**     -----------------------g34:
    2461                    ;** 184 -----------------------    VLIB_profile_cycle_report(2, "N = ((width-6)&0xFFF0) * (height-6), 
    2462                    ;** 158 -----------------------    printf((const char *)"---------------------------------------------
    2463                    ;** 165 -----------------------    VLIB_stack_memory();  // [17]
    2464                    ;**     -----------------------    return;
    2465 00000748 0200002a!            MVKL    .S2     $C$SL7+0,B4
    2466                    
    2467 0000074c 03000029!            MVKL    .S1     $C$SL6+0,A6
    2468 00000750 0200006a! ||         MVKH    .S2     $C$SL7+0,B4
    2469                    
    2470                    $C$DW$166       .dwtag  DW_TAG_TI_branch
    2471                            .dwattr $C$DW$166, DW_AT_low_pc(0x00)
    2472                            .dwattr $C$DW$166, DW_AT_name("VLIB_profile_cycle_report")
    2473                            .dwattr $C$DW$166, DW_AT_TI_call
    2474                    
    2475 00000754 10000013!            CALLP   .S2     VLIB_profile_cycle_report,B3
TMS320C6x Assembler PC v7.4.2 Thu Mar 19 12:38:22 2015

Tools Copyright (c) 1996-2012 Texas Instruments Incorporated
package/lib/Regression/regress_d_c/./../packages/ti/vlib/src/VLIB_afast9_detectCorners/VLIB_afast9_detectCorners_d.se66 PAGE   46

    2476 00000758 03000069! ||         MVKH    .S1     $C$SL6+0,A6
    2477 0000075c 0208a358  ||         MVK     .L1     0x2,A4            ; |184| 
    2478                    
    2479                            .dwpsn  file "./../packages/ti/vlib/src/VLIB_afast9_detectCorners/VLIB_afast9_detectCorners_d.
    2480                    ;----------------------------------------------------------------------
    2481                    ; 184 | VLIB_profile_cycle_report(vlib_PROFILE_FORMULA_RANGE,                  
    2482                    ; 185 |                           "N = ((width-6)&0xFFF0) * (height-6), M=heigh
    2483                    ;     | t-6",                                                                  
    2484                    ; 186 |                           "((width-6)&0xFFF0) * (height-6)");          
    2485                    ; 189 | VLIB_kernel_memory();                                                  
    2486                    ;----------------------------------------------------------------------
    2487 00000760           $C$RL27:   ; CALL OCCURS {VLIB_profile_cycle_report} {0}  ; |184| 
    2488                    ;** --------------------------------------------------------------------------*
    2489                    ;          EXCLUSIVE CPU CYCLES: 14
    2490 00000760 0200002a!            MVKL    .S2     $C$SL8+0,B4
    2491 00000764 0200006a!            MVKH    .S2     $C$SL8+0,B4
    2492                    $C$DW$167       .dwtag  DW_TAG_TI_branch
    2493                            .dwattr $C$DW$167, DW_AT_low_pc(0x00)
    2494                            .dwattr $C$DW$167, DW_AT_name("printf")
    2495                            .dwattr $C$DW$167, DW_AT_TI_call
    2496                    
    2497 00000768 10000013!            CALLP   .S2     printf,B3
    2498 0000076c 023c22f6  ||         STW     .D2T2   B4,*+SP(4)        ; |158| 
    2499                    
    2500                            .dwpsn  file ".\..\packages\ti\vlib\src\VLIB_afast9_detectCorners\../common/VLIB_memory.h",lin
    2501                    $C$RL28:   ; CALL OCCURS {printf} {0}        ; |158| 
    2502                    $C$DW$168       .dwtag  DW_TAG_TI_branch
    2503                            .dwattr $C$DW$168, DW_AT_low_pc(0x00)
    2504                            .dwattr $C$DW$168, DW_AT_name("VLIB_stack_memory")
    2505                            .dwattr $C$DW$168, DW_AT_TI_call
    2506 00000770 10000012!            CALLP   .S2     VLIB_stack_memory,B3
    2507                            .dwpsn  file ".\..\packages\ti\vlib\src\VLIB_afast9_detectCorners\../common/VLIB_memory.h",lin
    2508 00000774           $C$RL29:   ; CALL OCCURS {VLIB_stack_memory} {0}  ; |165| 
    2509                    ;** --------------------------------------------------------------------------*
    2510                    ;          EXCLUSIVE CPU CYCLES: 13
    2511                            .dwpsn  file "./../packages/ti/vlib/src/VLIB_afast9_detectCorners/VLIB_afast9_detectCorners_d.
    2512 00000774 01be12e6             LDW     .D2T2   *++SP(64),B3      ; |190| 
    2513                            .dwcfi  cfa_offset, 48
    2514                            .dwcfi  restore_reg, 19
    2515 00000778     c677             LDDW    .D2T1   *++SP,A13:A12
    2516                            .dwcfi  cfa_offset, 40
    2517                            .dwcfi  restore_reg, 13
    2518                            .dwcfi  restore_reg, 12
    2519 0000077a     c777             LDDW    .D2T1   *++SP,A15:A14
    2520                            .dwcfi  cfa_offset, 32
    2521                            .dwcfi  restore_reg, 15
    2522                            .dwcfi  restore_reg, 14
    2523 00000780 053c33e6             LDDW    .D2T2   *++SP,B11:B10
    2524                            .dwcfi  cfa_offset, 24
    2525                            .dwcfi  restore_reg, 27
    2526                            .dwcfi  restore_reg, 26
    2527 00000784 063c33e6             LDDW    .D2T2   *++SP,B13:B12
    2528                            .dwcfi  cfa_offset, 16
    2529                            .dwcfi  restore_reg, 29
    2530                            .dwcfi  restore_reg, 28
TMS320C6x Assembler PC v7.4.2 Thu Mar 19 12:38:22 2015

Tools Copyright (c) 1996-2012 Texas Instruments Incorporated
package/lib/Regression/regress_d_c/./../packages/ti/vlib/src/VLIB_afast9_detectCorners/VLIB_afast9_detectCorners_d.se66 PAGE   47

    2531 00000788 053c52e4             LDW     .D2T1   *++SP(8),A10
    2532                            .dwcfi  cfa_offset, 8
    2533                            .dwcfi  restore_reg, 10
    2534 0000078c 05bc52e4             LDW     .D2T1   *++SP(8),A11      ; |190| 
    2535                            .dwcfi  cfa_offset, 0
    2536                            .dwcfi  restore_reg, 11
    2537                            .dwcfi  cfa_offset, 0
    2538                    $C$DW$169       .dwtag  DW_TAG_TI_branch
    2539                            .dwattr $C$DW$169, DW_AT_low_pc(0x00)
    2540                            .dwattr $C$DW$169, DW_AT_TI_return
    2541 00000790 008ca362             RETNOP  .S2     B3,5
    2542                               ; BRANCH OCCURS {B3}  
    2543                    
    2544                    $C$DW$170       .dwtag  DW_TAG_TI_loop
    2545                            .dwattr $C$DW$170, DW_AT_name("c:\nightlybuilds\vlib\ti\vlib\vlib\examples\package/lib/Regress
    2546                            .dwattr $C$DW$170, DW_AT_TI_begin_file("./../packages/ti/vlib/src/VLIB_afast9_detectCorners/VL
    2547                            .dwattr $C$DW$170, DW_AT_TI_begin_line(0x32)
    2548                            .dwattr $C$DW$170, DW_AT_TI_end_line(0xb5)
    2549                    $C$DW$171       .dwtag  DW_TAG_TI_loop_range
    2550                            .dwattr $C$DW$171, DW_AT_low_pc($C$DW$L$VLIB_afast9_detectCorners_d$4$B)
    2551                            .dwattr $C$DW$171, DW_AT_high_pc($C$DW$L$VLIB_afast9_detectCorners_d$4$E)
    2552                    $C$DW$172       .dwtag  DW_TAG_TI_loop_range
    2553                            .dwattr $C$DW$172, DW_AT_low_pc($C$DW$L$VLIB_afast9_detectCorners_d$43$B)
    2554                            .dwattr $C$DW$172, DW_AT_high_pc($C$DW$L$VLIB_afast9_detectCorners_d$43$E)
    2555                    $C$DW$173       .dwtag  DW_TAG_TI_loop_range
    2556                            .dwattr $C$DW$173, DW_AT_low_pc($C$DW$L$VLIB_afast9_detectCorners_d$38$B)
    2557                            .dwattr $C$DW$173, DW_AT_high_pc($C$DW$L$VLIB_afast9_detectCorners_d$38$E)
    2558                    $C$DW$174       .dwtag  DW_TAG_TI_loop_range
    2559                            .dwattr $C$DW$174, DW_AT_low_pc($C$DW$L$VLIB_afast9_detectCorners_d$27$B)
    2560                            .dwattr $C$DW$174, DW_AT_high_pc($C$DW$L$VLIB_afast9_detectCorners_d$27$E)
    2561                    $C$DW$175       .dwtag  DW_TAG_TI_loop_range
    2562                            .dwattr $C$DW$175, DW_AT_low_pc($C$DW$L$VLIB_afast9_detectCorners_d$26$B)
    2563                            .dwattr $C$DW$175, DW_AT_high_pc($C$DW$L$VLIB_afast9_detectCorners_d$26$E)
    2564                    $C$DW$176       .dwtag  DW_TAG_TI_loop_range
    2565                            .dwattr $C$DW$176, DW_AT_low_pc($C$DW$L$VLIB_afast9_detectCorners_d$28$B)
    2566                            .dwattr $C$DW$176, DW_AT_high_pc($C$DW$L$VLIB_afast9_detectCorners_d$28$E)
    2567                    $C$DW$177       .dwtag  DW_TAG_TI_loop_range
    2568                            .dwattr $C$DW$177, DW_AT_low_pc($C$DW$L$VLIB_afast9_detectCorners_d$10$B)
    2569                            .dwattr $C$DW$177, DW_AT_high_pc($C$DW$L$VLIB_afast9_detectCorners_d$10$E)
    2570                    $C$DW$178       .dwtag  DW_TAG_TI_loop_range
    2571                            .dwattr $C$DW$178, DW_AT_low_pc($C$DW$L$VLIB_afast9_detectCorners_d$5$B)
    2572                            .dwattr $C$DW$178, DW_AT_high_pc($C$DW$L$VLIB_afast9_detectCorners_d$5$E)
    2573                    $C$DW$179       .dwtag  DW_TAG_TI_loop_range
    2574                            .dwattr $C$DW$179, DW_AT_low_pc($C$DW$L$VLIB_afast9_detectCorners_d$6$B)
    2575                            .dwattr $C$DW$179, DW_AT_high_pc($C$DW$L$VLIB_afast9_detectCorners_d$6$E)
    2576                    $C$DW$180       .dwtag  DW_TAG_TI_loop_range
    2577                            .dwattr $C$DW$180, DW_AT_low_pc($C$DW$L$VLIB_afast9_detectCorners_d$7$B)
    2578                            .dwattr $C$DW$180, DW_AT_high_pc($C$DW$L$VLIB_afast9_detectCorners_d$7$E)
    2579                    $C$DW$181       .dwtag  DW_TAG_TI_loop_range
    2580                            .dwattr $C$DW$181, DW_AT_low_pc($C$DW$L$VLIB_afast9_detectCorners_d$8$B)
    2581                            .dwattr $C$DW$181, DW_AT_high_pc($C$DW$L$VLIB_afast9_detectCorners_d$8$E)
    2582                    $C$DW$182       .dwtag  DW_TAG_TI_loop_range
    2583                            .dwattr $C$DW$182, DW_AT_low_pc($C$DW$L$VLIB_afast9_detectCorners_d$9$B)
    2584                            .dwattr $C$DW$182, DW_AT_high_pc($C$DW$L$VLIB_afast9_detectCorners_d$9$E)
    2585                    $C$DW$183       .dwtag  DW_TAG_TI_loop_range
TMS320C6x Assembler PC v7.4.2 Thu Mar 19 12:38:22 2015

Tools Copyright (c) 1996-2012 Texas Instruments Incorporated
package/lib/Regression/regress_d_c/./../packages/ti/vlib/src/VLIB_afast9_detectCorners/VLIB_afast9_detectCorners_d.se66 PAGE   48

    2586                            .dwattr $C$DW$183, DW_AT_low_pc($C$DW$L$VLIB_afast9_detectCorners_d$18$B)
    2587                            .dwattr $C$DW$183, DW_AT_high_pc($C$DW$L$VLIB_afast9_detectCorners_d$18$E)
    2588                    $C$DW$184       .dwtag  DW_TAG_TI_loop_range
    2589                            .dwattr $C$DW$184, DW_AT_low_pc($C$DW$L$VLIB_afast9_detectCorners_d$19$B)
    2590                            .dwattr $C$DW$184, DW_AT_high_pc($C$DW$L$VLIB_afast9_detectCorners_d$19$E)
    2591                    $C$DW$185       .dwtag  DW_TAG_TI_loop_range
    2592                            .dwattr $C$DW$185, DW_AT_low_pc($C$DW$L$VLIB_afast9_detectCorners_d$20$B)
    2593                            .dwattr $C$DW$185, DW_AT_high_pc($C$DW$L$VLIB_afast9_detectCorners_d$20$E)
    2594                    $C$DW$186       .dwtag  DW_TAG_TI_loop_range
    2595                            .dwattr $C$DW$186, DW_AT_low_pc($C$DW$L$VLIB_afast9_detectCorners_d$21$B)
    2596                            .dwattr $C$DW$186, DW_AT_high_pc($C$DW$L$VLIB_afast9_detectCorners_d$21$E)
    2597                    $C$DW$187       .dwtag  DW_TAG_TI_loop_range
    2598                            .dwattr $C$DW$187, DW_AT_low_pc($C$DW$L$VLIB_afast9_detectCorners_d$25$B)
    2599                            .dwattr $C$DW$187, DW_AT_high_pc($C$DW$L$VLIB_afast9_detectCorners_d$25$E)
    2600                    $C$DW$188       .dwtag  DW_TAG_TI_loop_range
    2601                            .dwattr $C$DW$188, DW_AT_low_pc($C$DW$L$VLIB_afast9_detectCorners_d$29$B)
    2602                            .dwattr $C$DW$188, DW_AT_high_pc($C$DW$L$VLIB_afast9_detectCorners_d$29$E)
    2603                    $C$DW$189       .dwtag  DW_TAG_TI_loop_range
    2604                            .dwattr $C$DW$189, DW_AT_low_pc($C$DW$L$VLIB_afast9_detectCorners_d$30$B)
    2605                            .dwattr $C$DW$189, DW_AT_high_pc($C$DW$L$VLIB_afast9_detectCorners_d$30$E)
    2606                    $C$DW$190       .dwtag  DW_TAG_TI_loop_range
    2607                            .dwattr $C$DW$190, DW_AT_low_pc($C$DW$L$VLIB_afast9_detectCorners_d$31$B)
    2608                            .dwattr $C$DW$190, DW_AT_high_pc($C$DW$L$VLIB_afast9_detectCorners_d$31$E)
    2609                    $C$DW$191       .dwtag  DW_TAG_TI_loop_range
    2610                            .dwattr $C$DW$191, DW_AT_low_pc($C$DW$L$VLIB_afast9_detectCorners_d$32$B)
    2611                            .dwattr $C$DW$191, DW_AT_high_pc($C$DW$L$VLIB_afast9_detectCorners_d$32$E)
    2612                    $C$DW$192       .dwtag  DW_TAG_TI_loop_range
    2613                            .dwattr $C$DW$192, DW_AT_low_pc($C$DW$L$VLIB_afast9_detectCorners_d$36$B)
    2614                            .dwattr $C$DW$192, DW_AT_high_pc($C$DW$L$VLIB_afast9_detectCorners_d$36$E)
    2615                    $C$DW$193       .dwtag  DW_TAG_TI_loop_range
    2616                            .dwattr $C$DW$193, DW_AT_low_pc($C$DW$L$VLIB_afast9_detectCorners_d$37$B)
    2617                            .dwattr $C$DW$193, DW_AT_high_pc($C$DW$L$VLIB_afast9_detectCorners_d$37$E)
    2618                    $C$DW$194       .dwtag  DW_TAG_TI_loop_range
    2619                            .dwattr $C$DW$194, DW_AT_low_pc($C$DW$L$VLIB_afast9_detectCorners_d$39$B)
    2620                            .dwattr $C$DW$194, DW_AT_high_pc($C$DW$L$VLIB_afast9_detectCorners_d$39$E)
    2621                    $C$DW$195       .dwtag  DW_TAG_TI_loop_range
    2622                            .dwattr $C$DW$195, DW_AT_low_pc($C$DW$L$VLIB_afast9_detectCorners_d$40$B)
    2623                            .dwattr $C$DW$195, DW_AT_high_pc($C$DW$L$VLIB_afast9_detectCorners_d$40$E)
    2624                    $C$DW$196       .dwtag  DW_TAG_TI_loop_range
    2625                            .dwattr $C$DW$196, DW_AT_low_pc($C$DW$L$VLIB_afast9_detectCorners_d$41$B)
    2626                            .dwattr $C$DW$196, DW_AT_high_pc($C$DW$L$VLIB_afast9_detectCorners_d$41$E)
    2627                    $C$DW$197       .dwtag  DW_TAG_TI_loop_range
    2628                            .dwattr $C$DW$197, DW_AT_low_pc($C$DW$L$VLIB_afast9_detectCorners_d$42$B)
    2629                            .dwattr $C$DW$197, DW_AT_high_pc($C$DW$L$VLIB_afast9_detectCorners_d$42$E)
    2630                    $C$DW$198       .dwtag  DW_TAG_TI_loop_range
    2631                            .dwattr $C$DW$198, DW_AT_low_pc($C$DW$L$VLIB_afast9_detectCorners_d$44$B)
    2632                            .dwattr $C$DW$198, DW_AT_high_pc($C$DW$L$VLIB_afast9_detectCorners_d$44$E)
    2633                    $C$DW$199       .dwtag  DW_TAG_TI_loop_range
    2634                            .dwattr $C$DW$199, DW_AT_low_pc($C$DW$L$VLIB_afast9_detectCorners_d$45$B)
    2635                            .dwattr $C$DW$199, DW_AT_high_pc($C$DW$L$VLIB_afast9_detectCorners_d$45$E)
    2636                    $C$DW$200       .dwtag  DW_TAG_TI_loop_range
    2637                            .dwattr $C$DW$200, DW_AT_low_pc($C$DW$L$VLIB_afast9_detectCorners_d$46$B)
    2638                            .dwattr $C$DW$200, DW_AT_high_pc($C$DW$L$VLIB_afast9_detectCorners_d$46$E)
    2639                    $C$DW$201       .dwtag  DW_TAG_TI_loop_range
    2640                            .dwattr $C$DW$201, DW_AT_low_pc($C$DW$L$VLIB_afast9_detectCorners_d$47$B)
TMS320C6x Assembler PC v7.4.2 Thu Mar 19 12:38:22 2015

Tools Copyright (c) 1996-2012 Texas Instruments Incorporated
package/lib/Regression/regress_d_c/./../packages/ti/vlib/src/VLIB_afast9_detectCorners/VLIB_afast9_detectCorners_d.se66 PAGE   49

    2641                            .dwattr $C$DW$201, DW_AT_high_pc($C$DW$L$VLIB_afast9_detectCorners_d$47$E)
    2642                    
    2643                    $C$DW$202       .dwtag  DW_TAG_TI_loop
    2644                            .dwattr $C$DW$202, DW_AT_name("c:\nightlybuilds\vlib\ti\vlib\vlib\examples\package/lib/Regress
    2645                            .dwattr $C$DW$202, DW_AT_TI_begin_file("./../packages/ti/vlib/src/VLIB_afast9_detectCorners/VL
    2646                            .dwattr $C$DW$202, DW_AT_TI_begin_line(0x55)
    2647                            .dwattr $C$DW$202, DW_AT_TI_end_line(0x64)
    2648                    $C$DW$203       .dwtag  DW_TAG_TI_loop_range
    2649                            .dwattr $C$DW$203, DW_AT_low_pc($C$DW$L$VLIB_afast9_detectCorners_d$11$B)
    2650                            .dwattr $C$DW$203, DW_AT_high_pc($C$DW$L$VLIB_afast9_detectCorners_d$11$E)
    2651                    $C$DW$204       .dwtag  DW_TAG_TI_loop_range
    2652                            .dwattr $C$DW$204, DW_AT_low_pc($C$DW$L$VLIB_afast9_detectCorners_d$12$B)
    2653                            .dwattr $C$DW$204, DW_AT_high_pc($C$DW$L$VLIB_afast9_detectCorners_d$12$E)
    2654                    $C$DW$205       .dwtag  DW_TAG_TI_loop_range
    2655                            .dwattr $C$DW$205, DW_AT_low_pc($C$DW$L$VLIB_afast9_detectCorners_d$16$B)
    2656                            .dwattr $C$DW$205, DW_AT_high_pc($C$DW$L$VLIB_afast9_detectCorners_d$16$E)
    2657                    $C$DW$206       .dwtag  DW_TAG_TI_loop_range
    2658                            .dwattr $C$DW$206, DW_AT_low_pc($C$DW$L$VLIB_afast9_detectCorners_d$17$B)
    2659                            .dwattr $C$DW$206, DW_AT_high_pc($C$DW$L$VLIB_afast9_detectCorners_d$17$E)
    2660                    
    2661                    $C$DW$207       .dwtag  DW_TAG_TI_loop
    2662                            .dwattr $C$DW$207, DW_AT_name("c:\nightlybuilds\vlib\ti\vlib\vlib\examples\package/lib/Regress
    2663                            .dwattr $C$DW$207, DW_AT_TI_begin_file("./../packages/ti/vlib/src/VLIB_afast9_detectCorners/VL
    2664                            .dwattr $C$DW$207, DW_AT_TI_begin_line(0x56)
    2665                            .dwattr $C$DW$207, DW_AT_TI_end_line(0x63)
    2666                    $C$DW$208       .dwtag  DW_TAG_TI_loop_range
    2667                            .dwattr $C$DW$208, DW_AT_low_pc($C$DW$L$VLIB_afast9_detectCorners_d$14$B)
    2668                            .dwattr $C$DW$208, DW_AT_high_pc($C$DW$L$VLIB_afast9_detectCorners_d$14$E)
    2669                            .dwendtag $C$DW$207
    2670                    
    2671                            .dwendtag $C$DW$202
    2672                    
    2673                    
    2674                    $C$DW$209       .dwtag  DW_TAG_TI_loop
    2675                            .dwattr $C$DW$209, DW_AT_name("c:\nightlybuilds\vlib\ti\vlib\vlib\examples\package/lib/Regress
    2676                            .dwattr $C$DW$209, DW_AT_TI_begin_file("./../packages/ti/vlib/src/VLIB_afast9_detectCorners/VL
    2677                            .dwattr $C$DW$209, DW_AT_TI_begin_line(0x7e)
    2678                            .dwattr $C$DW$209, DW_AT_TI_end_line(0x86)
    2679                    $C$DW$210       .dwtag  DW_TAG_TI_loop_range
    2680                            .dwattr $C$DW$210, DW_AT_low_pc($C$DW$L$VLIB_afast9_detectCorners_d$23$B)
    2681                            .dwattr $C$DW$210, DW_AT_high_pc($C$DW$L$VLIB_afast9_detectCorners_d$23$E)
    2682                            .dwendtag $C$DW$209
    2683                    
    2684                    
    2685                    $C$DW$211       .dwtag  DW_TAG_TI_loop
    2686                            .dwattr $C$DW$211, DW_AT_name("c:\nightlybuilds\vlib\ti\vlib\vlib\examples\package/lib/Regress
    2687                            .dwattr $C$DW$211, DW_AT_TI_begin_file("./../packages/ti/vlib/src/VLIB_afast9_detectCorners/VL
    2688                            .dwattr $C$DW$211, DW_AT_TI_begin_line(0x8f)
    2689                            .dwattr $C$DW$211, DW_AT_TI_end_line(0x97)
    2690                    $C$DW$212       .dwtag  DW_TAG_TI_loop_range
    2691                            .dwattr $C$DW$212, DW_AT_low_pc($C$DW$L$VLIB_afast9_detectCorners_d$34$B)
    2692                            .dwattr $C$DW$212, DW_AT_high_pc($C$DW$L$VLIB_afast9_detectCorners_d$34$E)
    2693                            .dwendtag $C$DW$211
    2694                    
    2695                            .dwendtag $C$DW$170
TMS320C6x Assembler PC v7.4.2 Thu Mar 19 12:38:22 2015

Tools Copyright (c) 1996-2012 Texas Instruments Incorporated
package/lib/Regression/regress_d_c/./../packages/ti/vlib/src/VLIB_afast9_detectCorners/VLIB_afast9_detectCorners_d.se66 PAGE   50

    2696                    
    2697                            .dwattr $C$DW$84, DW_AT_TI_end_file("./../packages/ti/vlib/src/VLIB_afast9_detectCorners/VLIB_
    2698                            .dwattr $C$DW$84, DW_AT_TI_end_line(0xbe)
    2699                            .dwattr $C$DW$84, DW_AT_TI_end_column(0x01)
    2700                            .dwendentry
    2701                            .dwendtag $C$DW$84
    2702                    
    2703                    ;; Inlined function references:
    2704                    ;; [ 14] VLIB_profile_start
    2705                    ;; [ 15] VLIB_profile_stop
    2706                    ;; [ 17] VLIB_kernel_memory
    2707                    ;******************************************************************************
    2708                    ;* STRINGS                                                                    *
    2709                    ;******************************************************************************
    2710 00000000                   .sect   ".const:.string"
    2711 00000000 00000056  $C$SL1: .string "VLIB_afast9_detectCorners",0
         00000001 0000004C 
         00000002 00000049 
         00000003 00000042 
         00000004 0000005F 
         00000005 00000061 
         00000006 00000066 
         00000007 00000061 
         00000008 00000073 
         00000009 00000074 
         0000000a 00000039 
         0000000b 0000005F 
         0000000c 00000064 
         0000000d 00000065 
         0000000e 00000074 
         0000000f 00000065 
         00000010 00000063 
         00000011 00000074 
         00000012 00000043 
         00000013 0000006F 
         00000014 00000072 
         00000015 0000006E 
         00000016 00000065 
         00000017 00000072 
         00000018 00000073 
         00000019 00000000 
    2712 0000001a 00000020  $C$SL2: .string " Mismatch in Index = %u,%x,%x ",10,0
         0000001b 0000004D 
         0000001c 00000069 
         0000001d 00000073 
         0000001e 0000006D 
         0000001f 00000061 
         00000020 00000074 
         00000021 00000063 
         00000022 00000068 
         00000023 00000020 
         00000024 00000069 
         00000025 0000006E 
         00000026 00000020 
         00000027 00000049 
TMS320C6x Assembler PC v7.4.2 Thu Mar 19 12:38:22 2015

Tools Copyright (c) 1996-2012 Texas Instruments Incorporated
package/lib/Regression/regress_d_c/./../packages/ti/vlib/src/VLIB_afast9_detectCorners/VLIB_afast9_detectCorners_d.se66 PAGE   51

         00000028 0000006E 
         00000029 00000064 
         0000002a 00000065 
         0000002b 00000078 
         0000002c 00000020 
         0000002d 0000003D 
         0000002e 00000020 
         0000002f 00000025 
         00000030 00000075 
         00000031 0000002C 
         00000032 00000025 
         00000033 00000078 
         00000034 0000002C 
         00000035 00000025 
         00000036 00000078 
         00000037 00000020 
         00000038 0000000A 
         00000039 00000000 
    2713 0000003a 00000020  $C$SL3: .string " Mismatch in Index = %u ",10,0
         0000003b 0000004D 
         0000003c 00000069 
         0000003d 00000073 
         0000003e 0000006D 
         0000003f 00000061 
         00000040 00000074 
         00000041 00000063 
         00000042 00000068 
         00000043 00000020 
         00000044 00000069 
         00000045 0000006E 
         00000046 00000020 
         00000047 00000049 
         00000048 0000006E 
         00000049 00000064 
         0000004a 00000065 
         0000004b 00000078 
         0000004c 00000020 
         0000004d 0000003D 
         0000004e 00000020 
         0000004f 00000025 
         00000050 00000075 
         00000051 00000020 
         00000052 0000000A 
         00000053 00000000 
    2714 00000054 00000025  $C$SL4: .string "%s generated input | Opt and NatC results compared | width="
         00000055 00000073 
         00000056 00000020 
         00000057 00000067 
         00000058 00000065 
         00000059 0000006E 
         0000005a 00000065 
         0000005b 00000072 
         0000005c 00000061 
         0000005d 00000074 
         0000005e 00000065 
TMS320C6x Assembler PC v7.4.2 Thu Mar 19 12:38:22 2015

Tools Copyright (c) 1996-2012 Texas Instruments Incorporated
package/lib/Regression/regress_d_c/./../packages/ti/vlib/src/VLIB_afast9_detectCorners/VLIB_afast9_detectCorners_d.se66 PAGE   52

         0000005f 00000064 
         00000060 00000020 
         00000061 00000069 
         00000062 0000006E 
         00000063 00000070 
         00000064 00000075 
         00000065 00000074 
         00000066 00000020 
         00000067 0000007C 
         00000068 00000020 
         00000069 0000004F 
         0000006a 00000070 
         0000006b 00000074 
         0000006c 00000020 
         0000006d 00000061 
         0000006e 0000006E 
         0000006f 00000064 
         00000070 00000020 
         00000071 0000004E 
         00000072 00000061 
         00000073 00000074 
         00000074 00000043 
         00000075 00000020 
         00000076 00000072 
         00000077 00000065 
         00000078 00000073 
         00000079 00000075 
         0000007a 0000006C 
         0000007b 00000074 
         0000007c 00000073 
         0000007d 00000020 
         0000007e 00000063 
         0000007f 0000006F 
         00000080 0000006D 
         00000081 00000070 
         00000082 00000061 
         00000083 00000072 
         00000084 00000065 
         00000085 00000064 
         00000086 00000020 
         00000087 0000007C 
         00000088 00000020 
         00000089 00000077 
         0000008a 00000069 
         0000008b 00000064 
         0000008c 00000074 
         0000008d 00000068 
         0000008e 0000003D 
    2715 0000008f 00000020          .string " %d, height= %d, n_features found= %d, %s",0
         00000090 00000025 
         00000091 00000064 
         00000092 0000002C 
         00000093 00000020 
         00000094 00000068 
         00000095 00000065 
TMS320C6x Assembler PC v7.4.2 Thu Mar 19 12:38:22 2015

Tools Copyright (c) 1996-2012 Texas Instruments Incorporated
package/lib/Regression/regress_d_c/./../packages/ti/vlib/src/VLIB_afast9_detectCorners/VLIB_afast9_detectCorners_d.se66 PAGE   53

         00000096 00000069 
         00000097 00000067 
         00000098 00000068 
         00000099 00000074 
         0000009a 0000003D 
         0000009b 00000020 
         0000009c 00000025 
         0000009d 00000064 
         0000009e 0000002C 
         0000009f 00000020 
         000000a0 0000006E 
         000000a1 0000005F 
         000000a2 00000066 
         000000a3 00000065 
         000000a4 00000061 
         000000a5 00000074 
         000000a6 00000075 
         000000a7 00000072 
         000000a8 00000065 
         000000a9 00000073 
         000000aa 00000020 
         000000ab 00000066 
         000000ac 0000006F 
         000000ad 00000075 
         000000ae 0000006E 
         000000af 00000064 
         000000b0 0000003D 
         000000b1 00000020 
         000000b2 00000025 
         000000b3 00000064 
         000000b4 0000002C 
         000000b5 00000020 
         000000b6 00000025 
         000000b7 00000073 
         000000b8 00000000 
    2716 000000b9 00000077  $C$SL5: .string "width= %d, height= %d",0
         000000ba 00000069 
         000000bb 00000064 
         000000bc 00000074 
         000000bd 00000068 
         000000be 0000003D 
         000000bf 00000020 
         000000c0 00000025 
         000000c1 00000064 
         000000c2 0000002C 
         000000c3 00000020 
         000000c4 00000068 
         000000c5 00000065 
         000000c6 00000069 
         000000c7 00000067 
         000000c8 00000068 
         000000c9 00000074 
         000000ca 0000003D 
         000000cb 00000020 
         000000cc 00000025 
TMS320C6x Assembler PC v7.4.2 Thu Mar 19 12:38:22 2015

Tools Copyright (c) 1996-2012 Texas Instruments Incorporated
package/lib/Regression/regress_d_c/./../packages/ti/vlib/src/VLIB_afast9_detectCorners/VLIB_afast9_detectCorners_d.se66 PAGE   54

         000000cd 00000064 
         000000ce 00000000 
    2717 000000cf 00000028  $C$SL6: .string "((width-6)&0xFFF0) * (height-6)",0
         000000d0 00000028 
         000000d1 00000077 
         000000d2 00000069 
         000000d3 00000064 
         000000d4 00000074 
         000000d5 00000068 
         000000d6 0000002D 
         000000d7 00000036 
         000000d8 00000029 
         000000d9 00000026 
         000000da 00000030 
         000000db 00000078 
         000000dc 00000046 
         000000dd 00000046 
         000000de 00000046 
         000000df 00000030 
         000000e0 00000029 
         000000e1 00000020 
         000000e2 0000002A 
         000000e3 00000020 
         000000e4 00000028 
         000000e5 00000068 
         000000e6 00000065 
         000000e7 00000069 
         000000e8 00000067 
         000000e9 00000068 
         000000ea 00000074 
         000000eb 0000002D 
         000000ec 00000036 
         000000ed 00000029 
         000000ee 00000000 
    2718 000000ef 0000004E  $C$SL7: .string "N = ((width-6)&0xFFF0) * (height-6), M=height-6",0
         000000f0 00000020 
         000000f1 0000003D 
         000000f2 00000020 
         000000f3 00000028 
         000000f4 00000028 
         000000f5 00000077 
         000000f6 00000069 
         000000f7 00000064 
         000000f8 00000074 
         000000f9 00000068 
         000000fa 0000002D 
         000000fb 00000036 
         000000fc 00000029 
         000000fd 00000026 
         000000fe 00000030 
         000000ff 00000078 
         00000100 00000046 
         00000101 00000046 
         00000102 00000046 
         00000103 00000030 
TMS320C6x Assembler PC v7.4.2 Thu Mar 19 12:38:22 2015

Tools Copyright (c) 1996-2012 Texas Instruments Incorporated
package/lib/Regression/regress_d_c/./../packages/ti/vlib/src/VLIB_afast9_detectCorners/VLIB_afast9_detectCorners_d.se66 PAGE   55

         00000104 00000029 
         00000105 00000020 
         00000106 0000002A 
         00000107 00000020 
         00000108 00000028 
         00000109 00000068 
         0000010a 00000065 
         0000010b 00000069 
         0000010c 00000067 
         0000010d 00000068 
         0000010e 00000074 
         0000010f 0000002D 
         00000110 00000036 
         00000111 00000029 
         00000112 0000002C 
         00000113 00000020 
         00000114 0000004D 
         00000115 0000003D 
         00000116 00000068 
         00000117 00000065 
         00000118 00000069 
         00000119 00000067 
         0000011a 00000068 
         0000011b 00000074 
         0000011c 0000002D 
         0000011d 00000036 
         0000011e 00000000 
    2719 0000011f 0000002D  $C$SL8: .string "-----------------------------------------------------------"
         00000120 0000002D 
         00000121 0000002D 
         00000122 0000002D 
         00000123 0000002D 
         00000124 0000002D 
         00000125 0000002D 
         00000126 0000002D 
         00000127 0000002D 
         00000128 0000002D 
         00000129 0000002D 
         0000012a 0000002D 
         0000012b 0000002D 
         0000012c 0000002D 
         0000012d 0000002D 
         0000012e 0000002D 
         0000012f 0000002D 
         00000130 0000002D 
         00000131 0000002D 
         00000132 0000002D 
         00000133 0000002D 
         00000134 0000002D 
         00000135 0000002D 
         00000136 0000002D 
         00000137 0000002D 
         00000138 0000002D 
         00000139 0000002D 
         0000013a 0000002D 
TMS320C6x Assembler PC v7.4.2 Thu Mar 19 12:38:22 2015

Tools Copyright (c) 1996-2012 Texas Instruments Incorporated
package/lib/Regression/regress_d_c/./../packages/ti/vlib/src/VLIB_afast9_detectCorners/VLIB_afast9_detectCorners_d.se66 PAGE   56

         0000013b 0000002D 
         0000013c 0000002D 
         0000013d 0000002D 
         0000013e 0000002D 
         0000013f 0000002D 
         00000140 0000002D 
         00000141 0000002D 
         00000142 0000002D 
         00000143 0000002D 
         00000144 0000002D 
         00000145 0000002D 
         00000146 0000002D 
         00000147 0000002D 
         00000148 0000002D 
         00000149 0000002D 
         0000014a 0000002D 
         0000014b 0000002D 
         0000014c 0000002D 
         0000014d 0000002D 
         0000014e 0000002D 
         0000014f 0000002D 
         00000150 0000002D 
         00000151 0000002D 
         00000152 0000002D 
         00000153 0000002D 
         00000154 0000002D 
         00000155 0000002D 
         00000156 0000002D 
         00000157 0000002D 
         00000158 0000002D 
         00000159 0000002D 
    2720 0000015a 0000002D          .string "-----------------------------------------------------------"
         0000015b 0000002D 
         0000015c 0000002D 
         0000015d 0000002D 
         0000015e 0000002D 
         0000015f 0000002D 
         00000160 0000002D 
         00000161 0000002D 
         00000162 0000002D 
         00000163 0000002D 
         00000164 0000002D 
         00000165 0000002D 
         00000166 0000002D 
         00000167 0000002D 
         00000168 0000002D 
         00000169 0000002D 
         0000016a 0000002D 
         0000016b 0000002D 
         0000016c 0000002D 
         0000016d 0000002D 
         0000016e 0000002D 
         0000016f 0000002D 
         00000170 0000002D 
         00000171 0000002D 
TMS320C6x Assembler PC v7.4.2 Thu Mar 19 12:38:22 2015

Tools Copyright (c) 1996-2012 Texas Instruments Incorporated
package/lib/Regression/regress_d_c/./../packages/ti/vlib/src/VLIB_afast9_detectCorners/VLIB_afast9_detectCorners_d.se66 PAGE   57

         00000172 0000002D 
         00000173 0000002D 
         00000174 0000002D 
         00000175 0000002D 
         00000176 0000002D 
         00000177 0000002D 
         00000178 0000002D 
         00000179 0000002D 
         0000017a 0000002D 
         0000017b 0000002D 
         0000017c 0000002D 
         0000017d 0000002D 
         0000017e 0000002D 
         0000017f 0000002D 
         00000180 0000002D 
         00000181 0000002D 
         00000182 0000002D 
         00000183 0000002D 
         00000184 0000002D 
         00000185 0000002D 
         00000186 0000002D 
         00000187 0000002D 
         00000188 0000002D 
         00000189 0000002D 
         0000018a 0000002D 
         0000018b 0000002D 
         0000018c 0000002D 
         0000018d 0000002D 
         0000018e 0000002D 
         0000018f 0000002D 
         00000190 0000002D 
         00000191 0000002D 
         00000192 0000002D 
         00000193 0000002D 
         00000194 0000002D 
    2721 00000195 0000002D          .string "-----------------------",10,0
         00000196 0000002D 
         00000197 0000002D 
         00000198 0000002D 
         00000199 0000002D 
         0000019a 0000002D 
         0000019b 0000002D 
         0000019c 0000002D 
         0000019d 0000002D 
         0000019e 0000002D 
         0000019f 0000002D 
         000001a0 0000002D 
         000001a1 0000002D 
         000001a2 0000002D 
         000001a3 0000002D 
         000001a4 0000002D 
         000001a5 0000002D 
         000001a6 0000002D 
         000001a7 0000002D 
         000001a8 0000002D 
TMS320C6x Assembler PC v7.4.2 Thu Mar 19 12:38:22 2015

Tools Copyright (c) 1996-2012 Texas Instruments Incorporated
package/lib/Regression/regress_d_c/./../packages/ti/vlib/src/VLIB_afast9_detectCorners/VLIB_afast9_detectCorners_d.se66 PAGE   58

         000001a9 0000002D 
         000001aa 0000002D 
         000001ab 0000002D 
         000001ac 0000000A 
         000001ad 00000000 
    2722                    ;*****************************************************************************
    2723                    ;* UNDEFINED EXTERNAL REFERENCES                                             *
    2724                    ;*****************************************************************************
    2725                            .global printf
    2726                            .global sprintf
    2727                            .global malloc
    2728                            .global free
    2729                            .global VLIB_cache_inval
    2730                            .global VLIB_profile_init
    2731                            .global VLIB_formula_add_test
    2732                            .global VLIB_skip_test
    2733                            .global VLIB_profile_cycle_report
    2734                            .global initStack
    2735                            .global setStackDepth
    2736                            .global getSP
    2737                            .global VLIB_stack_memory
    2738                            .global VLIB_fillBuffer
    2739                            .global VLIB_memalign
    2740                            .global VLIB_malloc
    2741                            .global VLIB_align_free
    2742                            .global VLIB_free
    2743                            .global VLIB_afast9_detectCorners
    2744                            .global VLIB_afast9_detectCorners_cn
    2745                            .global afast9_detectCorners_getTestParams
    2746                            .global test_cases
    2747                            .global act_kernel
    2748                            .global desc
    2749                            .global testPatternString
    2750                            .global est_test
    2751                            .global beg_count
    2752                            .global end_count
    2753                            .global overhead
    2754                            .global cycles
    2755                    
    2756                    ;******************************************************************************
    2757                    ;* BUILD ATTRIBUTES                                                           *
    2758                    ;******************************************************************************
    2759                            .battr "TI", Tag_File, 1, Tag_Long_Precision_Bits(2)
    2760                            .battr "TI", Tag_File, 1, Tag_Bitfield_layout(2)
    2761                            .battr "TI", Tag_File, 1, Tag_ABI_enum_size(2)
    2762                            .battr "c6xabi", Tag_File, 1, Tag_ABI_wchar_t(1)
    2763                            .battr "c6xabi", Tag_File, 1, Tag_ABI_array_object_alignment(0)
