TMS320C6x Assembler PC v7.4.2 Thu Mar 19 12:41:40 2015

Tools Copyright (c) 1996-2012 Texas Instruments Incorporated
package/lib/Regression/regress_d_c/./../packages/ti/vlib/src/VLIB_histogram_1D_Init_U8/VLIB_histogram_1D_Init_U8_d.se66 PAGE    1

       1                    ;******************************************************************************
       2                    ;* TMS320C6x C/C++ Codegen                                          PC v7.4.2 *
       3                    ;* Date/Time created: Thu Mar 19 12:41:40 2015                                *
       4                    ;******************************************************************************
       5                            .compiler_opts --abi=eabi --c64p_l1d_workaround=off --endian=little --hll_source=on --long_pre
       6                    
       7                    ;******************************************************************************
       8                    ;* GLOBAL FILE PARAMETERS                                                     *
       9                    ;*                                                                            *
      10                    ;*   Architecture      : TMS320C66xx                                          *
      11                    ;*   Optimization      : Enabled at level 3                                   *
      12                    ;*   Optimizing for    : Speed                                                *
      13                    ;*                       Based on options: -o3, no -ms                        *
      14                    ;*   Endian            : Little                                               *
      15                    ;*   Interrupt Thrshld : 10000                                                *
      16                    ;*   Data Access Model : Far                                                  *
      17                    ;*   Pipelining        : Enabled                                              *
      18                    ;*   Speculate Loads   : Enabled with threshold = 0                           *
      19                    ;*   Memory Aliases    : Presume are aliases (pessimistic)                    *
      20                    ;*   Debug Info        : DWARF Debug w/Optimization                           *
      21                    ;*                                                                            *
      22                    ;******************************************************************************
      23                    
      24                            .asg    A15, FP
      25                            .asg    B14, DP
      26                            .asg    B15, SP
      27                            .global $bss
      28                    
      29                    
      30                    $C$DW$CU        .dwtag  DW_TAG_compile_unit
      31                            .dwattr $C$DW$CU, DW_AT_name("./../packages/ti/vlib/src/VLIB_histogram_1D_Init_U8/VLIB_histogr
      32                            .dwattr $C$DW$CU, DW_AT_producer("TI TMS320C6x C/C++ Codegen PC v7.4.2 Copyright (c) 1996-2012
      33                            .dwattr $C$DW$CU, DW_AT_TI_version(0x01)
      34                            .dwattr $C$DW$CU, DW_AT_comp_dir("c:\nightlybuilds\vlib\ti\vlib\vlib\examples")
      35                    
      36                    $C$DW$1 .dwtag  DW_TAG_subprogram, DW_AT_name("_itoll")
      37                            .dwattr $C$DW$1, DW_AT_TI_symbol_name("_itoll")
      38                            .dwattr $C$DW$1, DW_AT_type(*$C$DW$T$14)
      39                            .dwattr $C$DW$1, DW_AT_declaration
      40                            .dwattr $C$DW$1, DW_AT_external
      41                            .dwattr $C$DW$1, DW_AT_decl_file("C:/VLIB_Tools/CCSV5_4_0/ccsv5/tools/compiler/C6000/include/c
      42                            .dwattr $C$DW$1, DW_AT_decl_line(0xdf)
      43                            .dwattr $C$DW$1, DW_AT_decl_column(0x0b)
      44                    $C$DW$2 .dwtag  DW_TAG_formal_parameter
      45                            .dwattr $C$DW$2, DW_AT_type(*$C$DW$T$11)
      46                    $C$DW$3 .dwtag  DW_TAG_formal_parameter
      47                            .dwattr $C$DW$3, DW_AT_type(*$C$DW$T$11)
      48                            .dwendtag $C$DW$1
      49                    
      50                    
      51                    $C$DW$4 .dwtag  DW_TAG_subprogram, DW_AT_name("printf")
      52                            .dwattr $C$DW$4, DW_AT_TI_symbol_name("printf")
      53                            .dwattr $C$DW$4, DW_AT_type(*$C$DW$T$10)
      54                            .dwattr $C$DW$4, DW_AT_declaration
      55                            .dwattr $C$DW$4, DW_AT_external
TMS320C6x Assembler PC v7.4.2 Thu Mar 19 12:41:40 2015

Tools Copyright (c) 1996-2012 Texas Instruments Incorporated
package/lib/Regression/regress_d_c/./../packages/ti/vlib/src/VLIB_histogram_1D_Init_U8/VLIB_histogram_1D_Init_U8_d.se66 PAGE    2

      56                            .dwattr $C$DW$4, DW_AT_decl_file("C:/VLIB_Tools/CCSV5_4_0/ccsv5/tools/compiler/C6000/include/s
      57                            .dwattr $C$DW$4, DW_AT_decl_line(0xb8)
      58                            .dwattr $C$DW$4, DW_AT_decl_column(0x19)
      59                    $C$DW$5 .dwtag  DW_TAG_formal_parameter
      60                            .dwattr $C$DW$5, DW_AT_type(*$C$DW$T$102)
      61                    $C$DW$6 .dwtag  DW_TAG_unspecified_parameters
      62                            .dwendtag $C$DW$4
      63                    
      64                    
      65                    $C$DW$7 .dwtag  DW_TAG_subprogram, DW_AT_name("sprintf")
      66                            .dwattr $C$DW$7, DW_AT_TI_symbol_name("sprintf")
      67                            .dwattr $C$DW$7, DW_AT_type(*$C$DW$T$10)
      68                            .dwattr $C$DW$7, DW_AT_declaration
      69                            .dwattr $C$DW$7, DW_AT_external
      70                            .dwattr $C$DW$7, DW_AT_decl_file("C:/VLIB_Tools/CCSV5_4_0/ccsv5/tools/compiler/C6000/include/s
      71                            .dwattr $C$DW$7, DW_AT_decl_line(0xbc)
      72                            .dwattr $C$DW$7, DW_AT_decl_column(0x19)
      73                    $C$DW$8 .dwtag  DW_TAG_formal_parameter
      74                            .dwattr $C$DW$8, DW_AT_type(*$C$DW$T$58)
      75                    $C$DW$9 .dwtag  DW_TAG_formal_parameter
      76                            .dwattr $C$DW$9, DW_AT_type(*$C$DW$T$102)
      77                    $C$DW$10        .dwtag  DW_TAG_unspecified_parameters
      78                            .dwendtag $C$DW$7
      79                    
      80                    
      81                    $C$DW$11        .dwtag  DW_TAG_subprogram, DW_AT_name("memset")
      82                            .dwattr $C$DW$11, DW_AT_TI_symbol_name("memset")
      83                            .dwattr $C$DW$11, DW_AT_type(*$C$DW$T$3)
      84                            .dwattr $C$DW$11, DW_AT_declaration
      85                            .dwattr $C$DW$11, DW_AT_external
      86                            .dwattr $C$DW$11, DW_AT_decl_file("C:/VLIB_Tools/CCSV5_4_0/ccsv5/tools/compiler/C6000/include/
      87                            .dwattr $C$DW$11, DW_AT_decl_line(0x5b)
      88                            .dwattr $C$DW$11, DW_AT_decl_column(0x16)
      89                    $C$DW$12        .dwtag  DW_TAG_formal_parameter
      90                            .dwattr $C$DW$12, DW_AT_type(*$C$DW$T$3)
      91                    $C$DW$13        .dwtag  DW_TAG_formal_parameter
      92                            .dwattr $C$DW$13, DW_AT_type(*$C$DW$T$10)
      93                    $C$DW$14        .dwtag  DW_TAG_formal_parameter
      94                            .dwattr $C$DW$14, DW_AT_type(*$C$DW$T$51)
      95                            .dwendtag $C$DW$11
      96                    
      97                    
      98                    $C$DW$15        .dwtag  DW_TAG_subprogram, DW_AT_name("malloc")
      99                            .dwattr $C$DW$15, DW_AT_TI_symbol_name("malloc")
     100                            .dwattr $C$DW$15, DW_AT_type(*$C$DW$T$3)
     101                            .dwattr $C$DW$15, DW_AT_declaration
     102                            .dwattr $C$DW$15, DW_AT_external
     103                            .dwattr $C$DW$15, DW_AT_decl_file("C:/VLIB_Tools/CCSV5_4_0/ccsv5/tools/compiler/C6000/include/
     104                            .dwattr $C$DW$15, DW_AT_decl_line(0x82)
     105                            .dwattr $C$DW$15, DW_AT_decl_column(0x19)
     106                    $C$DW$16        .dwtag  DW_TAG_formal_parameter
     107                            .dwattr $C$DW$16, DW_AT_type(*$C$DW$T$51)
     108                            .dwendtag $C$DW$15
     109                    
     110                    
TMS320C6x Assembler PC v7.4.2 Thu Mar 19 12:41:40 2015

Tools Copyright (c) 1996-2012 Texas Instruments Incorporated
package/lib/Regression/regress_d_c/./../packages/ti/vlib/src/VLIB_histogram_1D_Init_U8/VLIB_histogram_1D_Init_U8_d.se66 PAGE    3

     111                    $C$DW$17        .dwtag  DW_TAG_subprogram, DW_AT_name("free")
     112                            .dwattr $C$DW$17, DW_AT_TI_symbol_name("free")
     113                            .dwattr $C$DW$17, DW_AT_declaration
     114                            .dwattr $C$DW$17, DW_AT_external
     115                            .dwattr $C$DW$17, DW_AT_decl_file("C:/VLIB_Tools/CCSV5_4_0/ccsv5/tools/compiler/C6000/include/
     116                            .dwattr $C$DW$17, DW_AT_decl_line(0x86)
     117                            .dwattr $C$DW$17, DW_AT_decl_column(0x19)
     118                    $C$DW$18        .dwtag  DW_TAG_formal_parameter
     119                            .dwattr $C$DW$18, DW_AT_type(*$C$DW$T$3)
     120                            .dwendtag $C$DW$17
     121                    
     122                    
     123                    $C$DW$19        .dwtag  DW_TAG_subprogram, DW_AT_name("VLIB_cache_inval")
     124                            .dwattr $C$DW$19, DW_AT_TI_symbol_name("VLIB_cache_inval")
     125                            .dwattr $C$DW$19, DW_AT_type(*$C$DW$T$10)
     126                            .dwattr $C$DW$19, DW_AT_declaration
     127                            .dwattr $C$DW$19, DW_AT_external
     128                            .dwattr $C$DW$19, DW_AT_decl_file(".\..\packages\ti\vlib\src\VLIB_histogram_1D_Init_U8\..\comm
     129                            .dwattr $C$DW$19, DW_AT_decl_line(0x58)
     130                            .dwattr $C$DW$19, DW_AT_decl_column(0x05)
     131                    
     132                    $C$DW$20        .dwtag  DW_TAG_subprogram, DW_AT_name("VLIB_profile_init")
     133                            .dwattr $C$DW$20, DW_AT_TI_symbol_name("VLIB_profile_init")
     134                            .dwattr $C$DW$20, DW_AT_declaration
     135                            .dwattr $C$DW$20, DW_AT_external
     136                            .dwattr $C$DW$20, DW_AT_decl_file(".\..\packages\ti\vlib\src\VLIB_histogram_1D_Init_U8\..\comm
     137                            .dwattr $C$DW$20, DW_AT_decl_line(0x7b)
     138                            .dwattr $C$DW$20, DW_AT_decl_column(0x06)
     139                    $C$DW$21        .dwtag  DW_TAG_formal_parameter
     140                            .dwattr $C$DW$21, DW_AT_type(*$C$DW$T$10)
     141                    $C$DW$22        .dwtag  DW_TAG_formal_parameter
     142                            .dwattr $C$DW$22, DW_AT_type(*$C$DW$T$58)
     143                            .dwendtag $C$DW$20
     144                    
     145                    
     146                    $C$DW$23        .dwtag  DW_TAG_subprogram, DW_AT_name("VLIB_formula_add_test")
     147                            .dwattr $C$DW$23, DW_AT_TI_symbol_name("VLIB_formula_add_test")
     148                            .dwattr $C$DW$23, DW_AT_declaration
     149                            .dwattr $C$DW$23, DW_AT_external
     150                            .dwattr $C$DW$23, DW_AT_decl_file(".\..\packages\ti\vlib\src\VLIB_histogram_1D_Init_U8\..\comm
     151                            .dwattr $C$DW$23, DW_AT_decl_line(0x7d)
     152                            .dwattr $C$DW$23, DW_AT_decl_column(0x06)
     153                    $C$DW$24        .dwtag  DW_TAG_formal_parameter
     154                            .dwattr $C$DW$24, DW_AT_type(*$C$DW$T$10)
     155                    $C$DW$25        .dwtag  DW_TAG_formal_parameter
     156                            .dwattr $C$DW$25, DW_AT_type(*$C$DW$T$10)
     157                    $C$DW$26        .dwtag  DW_TAG_formal_parameter
     158                            .dwattr $C$DW$26, DW_AT_type(*$C$DW$T$10)
     159                    $C$DW$27        .dwtag  DW_TAG_formal_parameter
     160                            .dwattr $C$DW$27, DW_AT_type(*$C$DW$T$10)
     161                    $C$DW$28        .dwtag  DW_TAG_formal_parameter
     162                            .dwattr $C$DW$28, DW_AT_type(*$C$DW$T$58)
     163                    $C$DW$29        .dwtag  DW_TAG_formal_parameter
     164                            .dwattr $C$DW$29, DW_AT_type(*$C$DW$T$10)
     165                            .dwendtag $C$DW$23
TMS320C6x Assembler PC v7.4.2 Thu Mar 19 12:41:40 2015

Tools Copyright (c) 1996-2012 Texas Instruments Incorporated
package/lib/Regression/regress_d_c/./../packages/ti/vlib/src/VLIB_histogram_1D_Init_U8/VLIB_histogram_1D_Init_U8_d.se66 PAGE    4

     166                    
     167                    
     168                    $C$DW$30        .dwtag  DW_TAG_subprogram, DW_AT_name("VLIB_skip_test")
     169                            .dwattr $C$DW$30, DW_AT_TI_symbol_name("VLIB_skip_test")
     170                            .dwattr $C$DW$30, DW_AT_declaration
     171                            .dwattr $C$DW$30, DW_AT_external
     172                            .dwattr $C$DW$30, DW_AT_decl_file(".\..\packages\ti\vlib\src\VLIB_histogram_1D_Init_U8\..\comm
     173                            .dwattr $C$DW$30, DW_AT_decl_line(0x7e)
     174                            .dwattr $C$DW$30, DW_AT_decl_column(0x06)
     175                    $C$DW$31        .dwtag  DW_TAG_formal_parameter
     176                            .dwattr $C$DW$31, DW_AT_type(*$C$DW$T$58)
     177                            .dwendtag $C$DW$30
     178                    
     179                    
     180                    $C$DW$32        .dwtag  DW_TAG_subprogram, DW_AT_name("VLIB_profile_cycle_report")
     181                            .dwattr $C$DW$32, DW_AT_TI_symbol_name("VLIB_profile_cycle_report")
     182                            .dwattr $C$DW$32, DW_AT_declaration
     183                            .dwattr $C$DW$32, DW_AT_external
     184                            .dwattr $C$DW$32, DW_AT_decl_file(".\..\packages\ti\vlib\src\VLIB_histogram_1D_Init_U8\..\comm
     185                            .dwattr $C$DW$32, DW_AT_decl_line(0x7f)
     186                            .dwattr $C$DW$32, DW_AT_decl_column(0x06)
     187                    $C$DW$33        .dwtag  DW_TAG_formal_parameter
     188                            .dwattr $C$DW$33, DW_AT_type(*$C$DW$T$10)
     189                    $C$DW$34        .dwtag  DW_TAG_formal_parameter
     190                            .dwattr $C$DW$34, DW_AT_type(*$C$DW$T$58)
     191                    $C$DW$35        .dwtag  DW_TAG_formal_parameter
     192                            .dwattr $C$DW$35, DW_AT_type(*$C$DW$T$58)
     193                            .dwendtag $C$DW$32
     194                    
     195                    
     196                    $C$DW$36        .dwtag  DW_TAG_subprogram, DW_AT_name("initStack")
     197                            .dwattr $C$DW$36, DW_AT_TI_symbol_name("initStack")
     198                            .dwattr $C$DW$36, DW_AT_declaration
     199                            .dwattr $C$DW$36, DW_AT_external
     200                            .dwattr $C$DW$36, DW_AT_decl_file(".\..\packages\ti\vlib\src\VLIB_histogram_1D_Init_U8\..\comm
     201                            .dwattr $C$DW$36, DW_AT_decl_line(0x80)
     202                            .dwattr $C$DW$36, DW_AT_decl_column(0x06)
     203                    $C$DW$37        .dwtag  DW_TAG_formal_parameter
     204                            .dwattr $C$DW$37, DW_AT_type(*$C$DW$T$67)
     205                            .dwendtag $C$DW$36
     206                    
     207                    
     208                    $C$DW$38        .dwtag  DW_TAG_subprogram, DW_AT_name("setStackDepth")
     209                            .dwattr $C$DW$38, DW_AT_TI_symbol_name("setStackDepth")
     210                            .dwattr $C$DW$38, DW_AT_declaration
     211                            .dwattr $C$DW$38, DW_AT_external
     212                            .dwattr $C$DW$38, DW_AT_decl_file(".\..\packages\ti\vlib\src\VLIB_histogram_1D_Init_U8\..\comm
     213                            .dwattr $C$DW$38, DW_AT_decl_line(0x81)
     214                            .dwattr $C$DW$38, DW_AT_decl_column(0x06)
     215                    
     216                    $C$DW$39        .dwtag  DW_TAG_subprogram, DW_AT_name("getSP")
     217                            .dwattr $C$DW$39, DW_AT_TI_symbol_name("getSP")
     218                            .dwattr $C$DW$39, DW_AT_type(*$C$DW$T$67)
     219                            .dwattr $C$DW$39, DW_AT_declaration
     220                            .dwattr $C$DW$39, DW_AT_external
TMS320C6x Assembler PC v7.4.2 Thu Mar 19 12:41:40 2015

Tools Copyright (c) 1996-2012 Texas Instruments Incorporated
package/lib/Regression/regress_d_c/./../packages/ti/vlib/src/VLIB_histogram_1D_Init_U8/VLIB_histogram_1D_Init_U8_d.se66 PAGE    5

     221                            .dwattr $C$DW$39, DW_AT_decl_file(".\..\packages\ti\vlib\src\VLIB_histogram_1D_Init_U8\..\comm
     222                            .dwattr $C$DW$39, DW_AT_decl_line(0x82)
     223                            .dwattr $C$DW$39, DW_AT_decl_column(0x0a)
     224                    
     225                    $C$DW$40        .dwtag  DW_TAG_subprogram, DW_AT_name("VLIB_stack_memory")
     226                            .dwattr $C$DW$40, DW_AT_TI_symbol_name("VLIB_stack_memory")
     227                            .dwattr $C$DW$40, DW_AT_declaration
     228                            .dwattr $C$DW$40, DW_AT_external
     229                            .dwattr $C$DW$40, DW_AT_decl_file(".\..\packages\ti\vlib\src\VLIB_histogram_1D_Init_U8\..\comm
     230                            .dwattr $C$DW$40, DW_AT_decl_line(0x83)
     231                            .dwattr $C$DW$40, DW_AT_decl_column(0x06)
     232                    
     233                    $C$DW$41        .dwtag  DW_TAG_subprogram, DW_AT_name("VLIB_compare_mem")
     234                            .dwattr $C$DW$41, DW_AT_TI_symbol_name("VLIB_compare_mem")
     235                            .dwattr $C$DW$41, DW_AT_type(*$C$DW$T$21)
     236                            .dwattr $C$DW$41, DW_AT_declaration
     237                            .dwattr $C$DW$41, DW_AT_external
     238                            .dwattr $C$DW$41, DW_AT_decl_file(".\..\packages\ti\vlib\src\VLIB_histogram_1D_Init_U8\../comm
     239                            .dwattr $C$DW$41, DW_AT_decl_line(0x6f)
     240                            .dwattr $C$DW$41, DW_AT_decl_column(0x11)
     241                    $C$DW$42        .dwtag  DW_TAG_formal_parameter
     242                            .dwattr $C$DW$42, DW_AT_type(*$C$DW$T$50)
     243                    $C$DW$43        .dwtag  DW_TAG_formal_parameter
     244                            .dwattr $C$DW$43, DW_AT_type(*$C$DW$T$50)
     245                    $C$DW$44        .dwtag  DW_TAG_formal_parameter
     246                            .dwattr $C$DW$44, DW_AT_type(*$C$DW$T$21)
     247                            .dwendtag $C$DW$41
     248                    
     249                    
     250                    $C$DW$45        .dwtag  DW_TAG_subprogram, DW_AT_name("VLIB_fillBuffer")
     251                            .dwattr $C$DW$45, DW_AT_TI_symbol_name("VLIB_fillBuffer")
     252                            .dwattr $C$DW$45, DW_AT_declaration
     253                            .dwattr $C$DW$45, DW_AT_external
     254                            .dwattr $C$DW$45, DW_AT_decl_file(".\..\packages\ti\vlib\src\VLIB_histogram_1D_Init_U8\../comm
     255                            .dwattr $C$DW$45, DW_AT_decl_line(0x77)
     256                            .dwattr $C$DW$45, DW_AT_decl_column(0x06)
     257                    $C$DW$46        .dwtag  DW_TAG_formal_parameter
     258                            .dwattr $C$DW$46, DW_AT_type(*$C$DW$T$19)
     259                    $C$DW$47        .dwtag  DW_TAG_formal_parameter
     260                            .dwattr $C$DW$47, DW_AT_type(*$C$DW$T$19)
     261                    $C$DW$48        .dwtag  DW_TAG_formal_parameter
     262                            .dwattr $C$DW$48, DW_AT_type(*$C$DW$T$3)
     263                    $C$DW$49        .dwtag  DW_TAG_formal_parameter
     264                            .dwattr $C$DW$49, DW_AT_type(*$C$DW$T$3)
     265                    $C$DW$50        .dwtag  DW_TAG_formal_parameter
     266                            .dwattr $C$DW$50, DW_AT_type(*$C$DW$T$73)
     267                    $C$DW$51        .dwtag  DW_TAG_formal_parameter
     268                            .dwattr $C$DW$51, DW_AT_type(*$C$DW$T$73)
     269                    $C$DW$52        .dwtag  DW_TAG_formal_parameter
     270                            .dwattr $C$DW$52, DW_AT_type(*$C$DW$T$73)
     271                    $C$DW$53        .dwtag  DW_TAG_formal_parameter
     272                            .dwattr $C$DW$53, DW_AT_type(*$C$DW$T$19)
     273                    $C$DW$54        .dwtag  DW_TAG_formal_parameter
     274                            .dwattr $C$DW$54, DW_AT_type(*$C$DW$T$58)
     275                            .dwendtag $C$DW$45
TMS320C6x Assembler PC v7.4.2 Thu Mar 19 12:41:40 2015

Tools Copyright (c) 1996-2012 Texas Instruments Incorporated
package/lib/Regression/regress_d_c/./../packages/ti/vlib/src/VLIB_histogram_1D_Init_U8/VLIB_histogram_1D_Init_U8_d.se66 PAGE    6

     276                    
     277                    
     278                    $C$DW$55        .dwtag  DW_TAG_subprogram, DW_AT_name("VLIB_malloc")
     279                            .dwattr $C$DW$55, DW_AT_TI_symbol_name("VLIB_malloc")
     280                            .dwattr $C$DW$55, DW_AT_type(*$C$DW$T$3)
     281                            .dwattr $C$DW$55, DW_AT_declaration
     282                            .dwattr $C$DW$55, DW_AT_external
     283                            .dwattr $C$DW$55, DW_AT_decl_file(".\..\packages\ti\vlib\src\VLIB_histogram_1D_Init_U8\../comm
     284                            .dwattr $C$DW$55, DW_AT_decl_line(0xaf)
     285                            .dwattr $C$DW$55, DW_AT_decl_column(0x07)
     286                    $C$DW$56        .dwtag  DW_TAG_formal_parameter
     287                            .dwattr $C$DW$56, DW_AT_type(*$C$DW$T$51)
     288                            .dwendtag $C$DW$55
     289                    
     290                    
     291                    $C$DW$57        .dwtag  DW_TAG_subprogram, DW_AT_name("VLIB_free")
     292                            .dwattr $C$DW$57, DW_AT_TI_symbol_name("VLIB_free")
     293                            .dwattr $C$DW$57, DW_AT_declaration
     294                            .dwattr $C$DW$57, DW_AT_external
     295                            .dwattr $C$DW$57, DW_AT_decl_file(".\..\packages\ti\vlib\src\VLIB_histogram_1D_Init_U8\../comm
     296                            .dwattr $C$DW$57, DW_AT_decl_line(0xb4)
     297                            .dwattr $C$DW$57, DW_AT_decl_column(0x07)
     298                    $C$DW$58        .dwtag  DW_TAG_formal_parameter
     299                            .dwattr $C$DW$58, DW_AT_type(*$C$DW$T$3)
     300                            .dwendtag $C$DW$57
     301                    
     302                    
     303                    $C$DW$59        .dwtag  DW_TAG_subprogram, DW_AT_name("VLIB_histogram_1D_Init_U8")
     304                            .dwattr $C$DW$59, DW_AT_TI_symbol_name("VLIB_histogram_1D_Init_U8")
     305                            .dwattr $C$DW$59, DW_AT_type(*$C$DW$T$21)
     306                            .dwattr $C$DW$59, DW_AT_declaration
     307                            .dwattr $C$DW$59, DW_AT_external
     308                            .dwattr $C$DW$59, DW_AT_decl_file(".\..\packages\ti\vlib\src\VLIB_histogram_1D_Init_U8\c66/VLI
     309                            .dwattr $C$DW$59, DW_AT_decl_line(0x6e)
     310                            .dwattr $C$DW$59, DW_AT_decl_column(0x09)
     311                    $C$DW$60        .dwtag  DW_TAG_formal_parameter
     312                            .dwattr $C$DW$60, DW_AT_type(*$C$DW$T$95)
     313                    $C$DW$61        .dwtag  DW_TAG_formal_parameter
     314                            .dwattr $C$DW$61, DW_AT_type(*$C$DW$T$111)
     315                    $C$DW$62        .dwtag  DW_TAG_formal_parameter
     316                            .dwattr $C$DW$62, DW_AT_type(*$C$DW$T$92)
     317                            .dwendtag $C$DW$59
     318                    
     319                    
     320                    $C$DW$63        .dwtag  DW_TAG_subprogram, DW_AT_name("VLIB_histogram_1D_Init_U8_cn")
     321                            .dwattr $C$DW$63, DW_AT_TI_symbol_name("VLIB_histogram_1D_Init_U8_cn")
     322                            .dwattr $C$DW$63, DW_AT_type(*$C$DW$T$21)
     323                            .dwattr $C$DW$63, DW_AT_declaration
     324                            .dwattr $C$DW$63, DW_AT_external
     325                            .dwattr $C$DW$63, DW_AT_decl_file(".\..\packages\ti\vlib\src\VLIB_histogram_1D_Init_U8\VLIB_hi
     326                            .dwattr $C$DW$63, DW_AT_decl_line(0x20)
     327                            .dwattr $C$DW$63, DW_AT_decl_column(0x09)
     328                    $C$DW$64        .dwtag  DW_TAG_formal_parameter
     329                            .dwattr $C$DW$64, DW_AT_type(*$C$DW$T$92)
     330                    $C$DW$65        .dwtag  DW_TAG_formal_parameter
TMS320C6x Assembler PC v7.4.2 Thu Mar 19 12:41:40 2015

Tools Copyright (c) 1996-2012 Texas Instruments Incorporated
package/lib/Regression/regress_d_c/./../packages/ti/vlib/src/VLIB_histogram_1D_Init_U8/VLIB_histogram_1D_Init_U8_d.se66 PAGE    7

     331                            .dwattr $C$DW$65, DW_AT_type(*$C$DW$T$111)
     332                    $C$DW$66        .dwtag  DW_TAG_formal_parameter
     333                            .dwattr $C$DW$66, DW_AT_type(*$C$DW$T$92)
     334                            .dwendtag $C$DW$63
     335                    
     336                    
     337                    $C$DW$67        .dwtag  DW_TAG_subprogram, DW_AT_name("histogram_1D_Init_U8_getTestParams")
     338                            .dwattr $C$DW$67, DW_AT_TI_symbol_name("histogram_1D_Init_U8_getTestParams")
     339                            .dwattr $C$DW$67, DW_AT_declaration
     340                            .dwattr $C$DW$67, DW_AT_external
     341                            .dwattr $C$DW$67, DW_AT_decl_file(".\..\packages\ti\vlib\src\VLIB_histogram_1D_Init_U8\VLIB_hi
     342                            .dwattr $C$DW$67, DW_AT_decl_line(0x2b)
     343                            .dwattr $C$DW$67, DW_AT_decl_column(0x06)
     344                    $C$DW$68        .dwtag  DW_TAG_formal_parameter
     345                            .dwattr $C$DW$68, DW_AT_type(*$C$DW$T$43)
     346                    $C$DW$69        .dwtag  DW_TAG_formal_parameter
     347                            .dwattr $C$DW$69, DW_AT_type(*$C$DW$T$76)
     348                            .dwendtag $C$DW$67
     349                    
     350                    $C$DW$70        .dwtag  DW_TAG_variable, DW_AT_name("test_cases")
     351                            .dwattr $C$DW$70, DW_AT_TI_symbol_name("test_cases")
     352                            .dwattr $C$DW$70, DW_AT_type(*$C$DW$T$21)
     353                            .dwattr $C$DW$70, DW_AT_declaration
     354                            .dwattr $C$DW$70, DW_AT_external
     355                            .dwattr $C$DW$70, DW_AT_decl_file(".\..\packages\ti\vlib\src\VLIB_histogram_1D_Init_U8\../comm
     356                            .dwattr $C$DW$70, DW_AT_decl_line(0x60)
     357                            .dwattr $C$DW$70, DW_AT_decl_column(0x13)
     358                    $C$DW$71        .dwtag  DW_TAG_variable, DW_AT_name("act_kernel")
     359                            .dwattr $C$DW$71, DW_AT_TI_symbol_name("act_kernel")
     360                            .dwattr $C$DW$71, DW_AT_type(*$C$DW$T$10)
     361                            .dwattr $C$DW$71, DW_AT_declaration
     362                            .dwattr $C$DW$71, DW_AT_external
     363                            .dwattr $C$DW$71, DW_AT_decl_file(".\..\packages\ti\vlib\src\VLIB_histogram_1D_Init_U8\../comm
     364                            .dwattr $C$DW$71, DW_AT_decl_line(0x62)
     365                            .dwattr $C$DW$71, DW_AT_decl_column(0x13)
     366                    $C$DW$72        .dwtag  DW_TAG_variable, DW_AT_name("desc")
     367                            .dwattr $C$DW$72, DW_AT_TI_symbol_name("desc")
     368                            .dwattr $C$DW$72, DW_AT_type(*$C$DW$T$162)
     369                            .dwattr $C$DW$72, DW_AT_declaration
     370                            .dwattr $C$DW$72, DW_AT_external
     371                            .dwattr $C$DW$72, DW_AT_decl_file(".\..\packages\ti\vlib\src\VLIB_histogram_1D_Init_U8\../comm
     372                            .dwattr $C$DW$72, DW_AT_decl_line(0x63)
     373                            .dwattr $C$DW$72, DW_AT_decl_column(0x13)
     374                    $C$DW$73        .dwtag  DW_TAG_variable, DW_AT_name("testPatternString")
     375                            .dwattr $C$DW$73, DW_AT_TI_symbol_name("testPatternString")
     376                            .dwattr $C$DW$73, DW_AT_type(*$C$DW$T$162)
     377                            .dwattr $C$DW$73, DW_AT_declaration
     378                            .dwattr $C$DW$73, DW_AT_external
     379                            .dwattr $C$DW$73, DW_AT_decl_file(".\..\packages\ti\vlib\src\VLIB_histogram_1D_Init_U8\../comm
     380                            .dwattr $C$DW$73, DW_AT_decl_line(0x64)
     381                            .dwattr $C$DW$73, DW_AT_decl_column(0x13)
     382                    $C$DW$74        .dwtag  DW_TAG_variable, DW_AT_name("est_test")
     383                            .dwattr $C$DW$74, DW_AT_TI_symbol_name("est_test")
     384                            .dwattr $C$DW$74, DW_AT_type(*$C$DW$T$10)
     385                            .dwattr $C$DW$74, DW_AT_declaration
TMS320C6x Assembler PC v7.4.2 Thu Mar 19 12:41:40 2015

Tools Copyright (c) 1996-2012 Texas Instruments Incorporated
package/lib/Regression/regress_d_c/./../packages/ti/vlib/src/VLIB_histogram_1D_Init_U8/VLIB_histogram_1D_Init_U8_d.se66 PAGE    8

     386                            .dwattr $C$DW$74, DW_AT_external
     387                            .dwattr $C$DW$74, DW_AT_decl_file(".\..\packages\ti\vlib\src\VLIB_histogram_1D_Init_U8\..\comm
     388                            .dwattr $C$DW$74, DW_AT_decl_line(0x75)
     389                            .dwattr $C$DW$74, DW_AT_decl_column(0x14)
     390                    $C$DW$75        .dwtag  DW_TAG_variable, DW_AT_name("beg_count")
     391                            .dwattr $C$DW$75, DW_AT_TI_symbol_name("beg_count")
     392                            .dwattr $C$DW$75, DW_AT_type(*$C$DW$T$152)
     393                            .dwattr $C$DW$75, DW_AT_declaration
     394                            .dwattr $C$DW$75, DW_AT_external
     395                            .dwattr $C$DW$75, DW_AT_decl_file(".\..\packages\ti\vlib\src\VLIB_histogram_1D_Init_U8\..\comm
     396                            .dwattr $C$DW$75, DW_AT_decl_line(0x76)
     397                            .dwattr $C$DW$75, DW_AT_decl_column(0x14)
     398                    $C$DW$76        .dwtag  DW_TAG_variable, DW_AT_name("end_count")
     399                            .dwattr $C$DW$76, DW_AT_TI_symbol_name("end_count")
     400                            .dwattr $C$DW$76, DW_AT_type(*$C$DW$T$152)
     401                            .dwattr $C$DW$76, DW_AT_declaration
     402                            .dwattr $C$DW$76, DW_AT_external
     403                            .dwattr $C$DW$76, DW_AT_decl_file(".\..\packages\ti\vlib\src\VLIB_histogram_1D_Init_U8\..\comm
     404                            .dwattr $C$DW$76, DW_AT_decl_line(0x77)
     405                            .dwattr $C$DW$76, DW_AT_decl_column(0x14)
     406                    $C$DW$77        .dwtag  DW_TAG_variable, DW_AT_name("overhead")
     407                            .dwattr $C$DW$77, DW_AT_TI_symbol_name("overhead")
     408                            .dwattr $C$DW$77, DW_AT_type(*$C$DW$T$152)
     409                            .dwattr $C$DW$77, DW_AT_declaration
     410                            .dwattr $C$DW$77, DW_AT_external
     411                            .dwattr $C$DW$77, DW_AT_decl_file(".\..\packages\ti\vlib\src\VLIB_histogram_1D_Init_U8\..\comm
     412                            .dwattr $C$DW$77, DW_AT_decl_line(0x78)
     413                            .dwattr $C$DW$77, DW_AT_decl_column(0x14)
     414                    $C$DW$78        .dwtag  DW_TAG_variable, DW_AT_name("cycles")
     415                            .dwattr $C$DW$78, DW_AT_TI_symbol_name("cycles")
     416                            .dwattr $C$DW$78, DW_AT_type(*$C$DW$T$153)
     417                            .dwattr $C$DW$78, DW_AT_declaration
     418                            .dwattr $C$DW$78, DW_AT_external
     419                            .dwattr $C$DW$78, DW_AT_decl_file(".\..\packages\ti\vlib\src\VLIB_histogram_1D_Init_U8\..\comm
     420                            .dwattr $C$DW$78, DW_AT_decl_line(0x79)
     421                            .dwattr $C$DW$78, DW_AT_decl_column(0x14)
     422                    ;       C:\VLIB_Tools\CCSV5_4_0\ccsv5\tools\compiler\C6000\bin\opt6x.exe C:\\Users\\gtbldadm\\AppData\
     423 00000000                   .sect   ".text"
     424                            .clink
     425                            .global VLIB_histogram_1D_Init_U8_d
     426                    
     427                    $C$DW$79        .dwtag  DW_TAG_subprogram, DW_AT_name("VLIB_histogram_1D_Init_U8_d")
     428                            .dwattr $C$DW$79, DW_AT_low_pc(VLIB_histogram_1D_Init_U8_d)
     429                            .dwattr $C$DW$79, DW_AT_high_pc(0x00)
     430                            .dwattr $C$DW$79, DW_AT_TI_symbol_name("VLIB_histogram_1D_Init_U8_d")
     431                            .dwattr $C$DW$79, DW_AT_external
     432                            .dwattr $C$DW$79, DW_AT_TI_begin_file("./../packages/ti/vlib/src/VLIB_histogram_1D_Init_U8/VLI
     433                            .dwattr $C$DW$79, DW_AT_TI_begin_line(0x26)
     434                            .dwattr $C$DW$79, DW_AT_TI_begin_column(0x06)
     435                            .dwattr $C$DW$79, DW_AT_decl_file("./../packages/ti/vlib/src/VLIB_histogram_1D_Init_U8/VLIB_hi
     436                            .dwattr $C$DW$79, DW_AT_decl_line(0x26)
     437                            .dwattr $C$DW$79, DW_AT_decl_column(0x06)
     438                            .dwattr $C$DW$79, DW_AT_TI_max_frame_size(0x58)
     439                            .dwpsn  file "./../packages/ti/vlib/src/VLIB_histogram_1D_Init_U8/VLIB_histogram_1D_Init_U8_d.
     440                    
TMS320C6x Assembler PC v7.4.2 Thu Mar 19 12:41:40 2015

Tools Copyright (c) 1996-2012 Texas Instruments Incorporated
package/lib/Regression/regress_d_c/./../packages/ti/vlib/src/VLIB_histogram_1D_Init_U8/VLIB_histogram_1D_Init_U8_d.se66 PAGE    9

     441                            .dwfde $C$DW$CIE, VLIB_histogram_1D_Init_U8_d
     442                    $C$DW$80        .dwtag  DW_TAG_formal_parameter, DW_AT_name("LevelOfFeedback")
     443                            .dwattr $C$DW$80, DW_AT_TI_symbol_name("LevelOfFeedback")
     444                            .dwattr $C$DW$80, DW_AT_type(*$C$DW$T$19)
     445                            .dwattr $C$DW$80, DW_AT_location[DW_OP_reg4]
     446                    ;----------------------------------------------------------------------
     447                    ;  38 | void VLIB_histogram_1D_Init_U8_d (uint8_t LevelOfFeedback)             
     448                    ;----------------------------------------------------------------------
     449                    
     450                    ;******************************************************************************
     451                    ;* FUNCTION NAME: VLIB_histogram_1D_Init_U8_d                                 *
     452                    ;*                                                                            *
     453                    ;*   Regs Modified     : A0,A1,A2,A3,A4,A5,A6,A7,A8,A9,A10,A11,A12,A13,A14,   *
     454                    ;*                           A15,B0,B1,B2,B3,B4,B5,B6,B7,B8,B9,B10,B11,B12,   *
     455                    ;*                           B13,SP,A16,A17,A18,A19,A20,A21,A22,A23,A24,A25,  *
     456                    ;*                           A26,A27,A28,A29,A30,A31,B16,B17,B18,B19,B20,B21, *
     457                    ;*                           B22,B23,B24,B25,B26,B27,B28,B29,B30,B31          *
     458                    ;*   Regs Used         : A0,A1,A2,A3,A4,A5,A6,A7,A8,A9,A10,A11,A12,A13,A14,   *
     459                    ;*                           A15,B0,B1,B2,B3,B4,B5,B6,B7,B8,B9,B10,B11,B12,   *
     460                    ;*                           B13,DP,SP,A16,A17,A18,A19,A20,A21,A22,A23,A24,   *
     461                    ;*                           A25,A26,A27,A28,A29,A30,A31,B16,B17,B18,B19,B20, *
     462                    ;*                           B21,B22,B23,B24,B25,B26,B27,B28,B29,B30,B31      *
     463                    ;*   Local Frame Size  : 16 Args + 16 Auto + 56 Save = 88 byte                *
     464                    ;******************************************************************************
     465                    
     466                    ;******************************************************************************
     467                    ;*                                                                            *
     468                    ;* Using -g (debug) with optimization (-o3) may disable key optimizations!    *
     469                    ;*                                                                            *
     470                    ;******************************************************************************
     471 00000000           VLIB_histogram_1D_Init_U8_d:
     472                    ;** --------------------------------------------------------------------------*
     473                    ;          EXCLUSIVE CPU CYCLES: 16
     474                    ;** 45  -----------------------    histogram_1D_Init_U8_getTestParams(&prm, &test_cases);
     475                    ;** 48  -----------------------    VLIB_profile_init(2, "VLIB_histogram_1D_Init_U8");
     476                    ;** 51  -----------------------    if ( test_cases <= 0 ) goto g10;
     477                            .dwcfi  cfa_offset, 0
     478                    ;----------------------------------------------------------------------
     479                    ;  40 | int32_t    tpi;  /* test parameter index */                            
     480                    ;  43 | histogram_1D_Init_U8_testParams_t   *prm;                              
     481                    ;----------------------------------------------------------------------
     482 00000000     25f7             STW     .D2T1   A11,*SP--(8)      ; |39| 
     483                            .dwcfi  cfa_offset, 8
     484                            .dwcfi  save_reg_to_mem, 11, 0
     485 00000002     2577             STW     .D2T1   A10,*SP--(8)      ; |39| 
     486                            .dwcfi  cfa_offset, 16
     487                            .dwcfi  save_reg_to_mem, 10, -8
     488 00000004     9677             STDW    .D2T2   B13:B12,*SP--     ; |39| 
     489                            .dwcfi  cfa_offset, 24
     490                            .dwcfi  save_reg_to_mem, 29, -12
     491                            .dwcfi  save_reg_to_mem, 28, -16
     492 00000006     9577             STDW    .D2T2   B11:B10,*SP--     ; |39| 
     493                            .dwcfi  cfa_offset, 32
     494                            .dwcfi  save_reg_to_mem, 27, -20
     495                            .dwcfi  save_reg_to_mem, 26, -24
TMS320C6x Assembler PC v7.4.2 Thu Mar 19 12:41:40 2015

Tools Copyright (c) 1996-2012 Texas Instruments Incorporated
package/lib/Regression/regress_d_c/./../packages/ti/vlib/src/VLIB_histogram_1D_Init_U8/VLIB_histogram_1D_Init_U8_d.se66 PAGE   10

     496 00000008     8777             STDW    .D2T1   A15:A14,*SP--     ; |39| 
     497                            .dwcfi  cfa_offset, 40
     498                            .dwcfi  save_reg_to_mem, 15, -28
     499                            .dwcfi  save_reg_to_mem, 14, -32
     500 0000000a     8677             STDW    .D2T1   A13:A12,*SP--     ; |39| 
     501                            .dwcfi  cfa_offset, 48
     502                            .dwcfi  save_reg_to_mem, 13, -36
     503                            .dwcfi  save_reg_to_mem, 12, -40
     504 0000000c 01bd54f6             STW     .D2T2   B3,*SP--(40)      ; |39| 
     505                            .dwcfi  cfa_offset, 88
     506                            .dwcfi  save_reg_to_mem, 19, 0
     507                    $C$DW$81        .dwtag  DW_TAG_variable, DW_AT_name("$O$C1")
     508                            .dwattr $C$DW$81, DW_AT_TI_symbol_name("$O$C1")
     509                            .dwattr $C$DW$81, DW_AT_type(*$C$DW$T$10)
     510                            .dwattr $C$DW$81, DW_AT_location[DW_OP_reg21]
     511                    $C$DW$82        .dwtag  DW_TAG_variable, DW_AT_name("$O$C2")
     512                            .dwattr $C$DW$82, DW_AT_TI_symbol_name("$O$C2")
     513                            .dwattr $C$DW$82, DW_AT_type(*$C$DW$T$39)
     514                            .dwattr $C$DW$82, DW_AT_location[DW_OP_reg20]
     515                    $C$DW$83        .dwtag  DW_TAG_variable, DW_AT_name("$O$C3")
     516                            .dwattr $C$DW$83, DW_AT_TI_symbol_name("$O$C3")
     517                            .dwattr $C$DW$83, DW_AT_type(*$C$DW$T$10)
     518                            .dwattr $C$DW$83, DW_AT_location[DW_OP_reg3]
     519                    $C$DW$84        .dwtag  DW_TAG_variable, DW_AT_name("$O$C4")
     520                            .dwattr $C$DW$84, DW_AT_TI_symbol_name("$O$C4")
     521                            .dwattr $C$DW$84, DW_AT_type(*$C$DW$T$10)
     522                            .dwattr $C$DW$84, DW_AT_location[DW_OP_reg3]
     523                    $C$DW$85        .dwtag  DW_TAG_variable, DW_AT_name("$O$C5")
     524                            .dwattr $C$DW$85, DW_AT_TI_symbol_name("$O$C5")
     525                            .dwattr $C$DW$85, DW_AT_type(*$C$DW$T$9)
     526                            .dwattr $C$DW$85, DW_AT_location[DW_OP_reg8]
     527                    $C$DW$86        .dwtag  DW_TAG_variable, DW_AT_name("$O$U12")
     528                            .dwattr $C$DW$86, DW_AT_TI_symbol_name("$O$U12")
     529                            .dwattr $C$DW$86, DW_AT_type(*$C$DW$T$39)
     530                            .dwattr $C$DW$86, DW_AT_location[DW_OP_reg11]
     531                    $C$DW$87        .dwtag  DW_TAG_variable, DW_AT_name("$O$K30")
     532                            .dwattr $C$DW$87, DW_AT_TI_symbol_name("$O$K30")
     533                            .dwattr $C$DW$87, DW_AT_type(*$C$DW$T$80)
     534                            .dwattr $C$DW$87, DW_AT_location[DW_OP_reg28]
     535                    $C$DW$88        .dwtag  DW_TAG_variable, DW_AT_name("$O$K43")
     536                            .dwattr $C$DW$88, DW_AT_TI_symbol_name("$O$K43")
     537                            .dwattr $C$DW$88, DW_AT_type(*$C$DW$T$151)
     538                            .dwattr $C$DW$88, DW_AT_location[DW_OP_reg13]
     539                    $C$DW$89        .dwtag  DW_TAG_variable, DW_AT_name("$O$U52")
     540                            .dwattr $C$DW$89, DW_AT_TI_symbol_name("$O$U52")
     541                            .dwattr $C$DW$89, DW_AT_type(*$C$DW$T$23)
     542                            .dwattr $C$DW$89, DW_AT_location[DW_OP_reg0]
     543                    $C$DW$90        .dwtag  DW_TAG_variable, DW_AT_name("$O$U11")
     544                            .dwattr $C$DW$90, DW_AT_TI_symbol_name("$O$U11")
     545                            .dwattr $C$DW$90, DW_AT_type(*$C$DW$T$10)
     546                            .dwattr $C$DW$90, DW_AT_location[DW_OP_reg29]
     547                    $C$DW$91        .dwtag  DW_TAG_variable, DW_AT_name("$O$K73")
     548                            .dwattr $C$DW$91, DW_AT_TI_symbol_name("$O$K73")
     549                            .dwattr $C$DW$91, DW_AT_type(*$C$DW$T$80)
     550                            .dwattr $C$DW$91, DW_AT_location[DW_OP_reg27]
TMS320C6x Assembler PC v7.4.2 Thu Mar 19 12:41:40 2015

Tools Copyright (c) 1996-2012 Texas Instruments Incorporated
package/lib/Regression/regress_d_c/./../packages/ti/vlib/src/VLIB_histogram_1D_Init_U8/VLIB_histogram_1D_Init_U8_d.se66 PAGE   11

     551                    $C$DW$92        .dwtag  DW_TAG_variable, DW_AT_name("tpi")
     552                            .dwattr $C$DW$92, DW_AT_TI_symbol_name("tpi")
     553                            .dwattr $C$DW$92, DW_AT_type(*$C$DW$T$21)
     554                            .dwattr $C$DW$92, DW_AT_location[DW_OP_reg14]
     555                    $C$DW$93        .dwtag  DW_TAG_variable, DW_AT_name("prm")
     556                            .dwattr $C$DW$93, DW_AT_TI_symbol_name("prm")
     557                            .dwattr $C$DW$93, DW_AT_type(*$C$DW$T$42)
     558                            .dwattr $C$DW$93, DW_AT_location[DW_OP_breg31 20]
     559                    $C$DW$94        .dwtag  DW_TAG_variable, DW_AT_name("status_nat_vs_int")
     560                            .dwattr $C$DW$94, DW_AT_TI_symbol_name("status_nat_vs_int")
     561                            .dwattr $C$DW$94, DW_AT_type(*$C$DW$T$21)
     562                            .dwattr $C$DW$94, DW_AT_location[DW_OP_reg26]
     563                    $C$DW$95        .dwtag  DW_TAG_variable, DW_AT_name("status_nat_vs_ref")
     564                            .dwattr $C$DW$95, DW_AT_TI_symbol_name("status_nat_vs_ref")
     565                            .dwattr $C$DW$95, DW_AT_type(*$C$DW$T$21)
     566                            .dwattr $C$DW$95, DW_AT_location[DW_OP_reg15]
     567                    $C$DW$96        .dwtag  DW_TAG_variable, DW_AT_name("binEdges")
     568                            .dwattr $C$DW$96, DW_AT_TI_symbol_name("binEdges")
     569                            .dwattr $C$DW$96, DW_AT_type(*$C$DW$T$20)
     570                            .dwattr $C$DW$96, DW_AT_location[DW_OP_breg31 24]
     571                    $C$DW$97        .dwtag  DW_TAG_variable, DW_AT_name("histArray")
     572                            .dwattr $C$DW$97, DW_AT_TI_symbol_name("histArray")
     573                            .dwattr $C$DW$97, DW_AT_type(*$C$DW$T$20)
     574                            .dwattr $C$DW$97, DW_AT_location[DW_OP_breg31 28]
     575                    $C$DW$98        .dwtag  DW_TAG_variable, DW_AT_name("histArray_cn")
     576                            .dwattr $C$DW$98, DW_AT_TI_symbol_name("histArray_cn")
     577                            .dwattr $C$DW$98, DW_AT_type(*$C$DW$T$20)
     578                            .dwattr $C$DW$98, DW_AT_location[DW_OP_breg31 32]
     579                    $C$DW$99        .dwtag  DW_TAG_variable, DW_AT_name("numIterations")
     580                            .dwattr $C$DW$99, DW_AT_TI_symbol_name("numIterations")
     581                            .dwattr $C$DW$99, DW_AT_type(*$C$DW$T$21)
     582                            .dwattr $C$DW$99, DW_AT_location[DW_OP_reg4]
     583                    $C$DW$100       .dwtag  DW_TAG_variable, DW_AT_name("$O$v1")
     584                            .dwattr $C$DW$100, DW_AT_TI_symbol_name("$O$v1")
     585                            .dwattr $C$DW$100, DW_AT_type(*$C$DW$T$42)
     586                            .dwattr $C$DW$100, DW_AT_location[DW_OP_reg20]
     587                    $C$DW$101       .dwtag  DW_TAG_variable, DW_AT_name("$O$v2")
     588                            .dwattr $C$DW$101, DW_AT_TI_symbol_name("$O$v2")
     589                            .dwattr $C$DW$101, DW_AT_type(*$C$DW$T$152)
     590                            .dwattr $C$DW$101, DW_AT_location[DW_OP_reg22]
     591                    $C$DW$102       .dwtag  DW_TAG_variable, DW_AT_name("$O$v2")
     592                            .dwattr $C$DW$102, DW_AT_TI_symbol_name("$O$v2")
     593                            .dwattr $C$DW$102, DW_AT_type(*$C$DW$T$152)
     594                            .dwattr $C$DW$102, DW_AT_location[DW_OP_reg24]
     595 00000010 05000028!            MVKL    .S1     test_cases,A10
     596 00000014 05000068!            MVKH    .S1     test_cases,A10
     597                            .dwpsn  file "./../packages/ti/vlib/src/VLIB_histogram_1D_Init_U8/VLIB_histogram_1D_Init_U8_d.
     598                    ;----------------------------------------------------------------------
     599                    ;  45 | histogram_1D_Init_U8_getTestParams(&prm, &test_cases);                 
     600                    ;----------------------------------------------------------------------
     601 00000018     a636             ADDAW   .D1X    SP,5,A4           ; |45| 
     602                    $C$DW$103       .dwtag  DW_TAG_TI_branch
     603                            .dwattr $C$DW$103, DW_AT_low_pc(0x00)
     604                            .dwattr $C$DW$103, DW_AT_name("histogram_1D_Init_U8_getTestParams")
     605                            .dwattr $C$DW$103, DW_AT_TI_call
TMS320C6x Assembler PC v7.4.2 Thu Mar 19 12:41:40 2015

Tools Copyright (c) 1996-2012 Texas Instruments Incorporated
package/lib/Regression/regress_d_c/./../packages/ti/vlib/src/VLIB_histogram_1D_Init_U8/VLIB_histogram_1D_Init_U8_d.se66 PAGE   12

     606                    
     607 00000020 10000012!            CALLP   .S2     histogram_1D_Init_U8_getTestParams,B3
     608 0000001a     9507  ||         MV      .L2X    A10,B4            ; |45| 
     609                    
     610 00000024           $C$RL0:    ; CALL OCCURS {histogram_1D_Init_U8_getTestParams} {0}  ; |45| 
     611                    ;** --------------------------------------------------------------------------*
     612                    ;          EXCLUSIVE CPU CYCLES: 8
     613 00000024 0200002a!            MVKL    .S2     $C$SL1+0,B4
     614 00000028 0200006a!            MVKH    .S2     $C$SL1+0,B4
     615                    $C$DW$104       .dwtag  DW_TAG_TI_branch
     616                            .dwattr $C$DW$104, DW_AT_low_pc(0x00)
     617                            .dwattr $C$DW$104, DW_AT_name("VLIB_profile_init")
     618                            .dwattr $C$DW$104, DW_AT_TI_call
     619                    
     620 0000002c 10000013!            CALLP   .S2     VLIB_profile_init,B3
     621 00000030 0208a358  ||         MVK     .L1     0x2,A4            ; |48| 
     622                    
     623                            .dwpsn  file "./../packages/ti/vlib/src/VLIB_histogram_1D_Init_U8/VLIB_histogram_1D_Init_U8_d.
     624                    ;----------------------------------------------------------------------
     625                    ;  48 | VLIB_profile_init(2, "VLIB_histogram_1D_Init_U8");                     
     626                    ;----------------------------------------------------------------------
     627 00000034           $C$RL1:    ; CALL OCCURS {VLIB_profile_init} {0}  ; |48| 
     628                    ;** --------------------------------------------------------------------------*
     629                    ;          EXCLUSIVE CPU CYCLES: 12
     630                            .dwpsn  file "./../packages/ti/vlib/src/VLIB_histogram_1D_Init_U8/VLIB_histogram_1D_Init_U8_d.
     631                    ;----------------------------------------------------------------------
     632                    ;  51 | for( tpi=0; tpi < test_cases; tpi++ ) {                                
     633                    ;----------------------------------------------------------------------
     634 00000034 01a80264             LDW     .D1T1   *A10,A3           ; |51| 
     635 00000038 023ca2e4             LDW     .D2T1   *+SP(20),A4
     636 0000003c 0600002a!            MVKL    .S2     testPatternString,B12
     637 00000040 0580002a!            MVKL    .S2     desc,B11
     638 00000044 06800028!            MVKL    .S1     cycles,A13
     639 00000048 000c0ad8             CMPGT   .L1     A3,0,A0           ; |51| 
     640 0000004c d0d56120     [!A0]   BNOP    .S1     $C$L5,3           ; |51| 
     641 00000050 0600006a!            MVKH    .S2     testPatternString,B12
     642                    
     643 00000054 059289c1             SUB     .D1     A4,20,A11
     644 00000058 06800069! ||         MVKH    .S1     cycles,A13
     645 0000005c 0580006b! ||         MVKH    .S2     desc,B11
     646 00000060 0700a359  ||         ZERO    .L1     A14               ; |51| 
     647 00000064 0680a35a  ||         ZERO    .L2     B13               ; |51| 
     648                    
     649                               ; BRANCHCC OCCURS {$C$L5}         ; |51| 
     650                    ;** --------------------------------------------------------------------------*
     651                    ;**     -----------------------    K$30 = &testPatternString[0];
     652                    ;**     -----------------------    K$43 = &cycles[0];
     653                    ;**     -----------------------    K$73 = &desc[0];
     654                    ;**     -----------------------    U$12 = prm-20;
     655                    ;**     -----------------------    U$11 = 0;
     656                    ;** 51  -----------------------    tpi = 0;
     657                    ;**     -----------------------    #pragma LOOP_FLAGS(5120u)
     658                    ;*----------------------------------------------------------------------------*
     659                    ;*   SOFTWARE PIPELINE INFORMATION
     660                    ;*      Disqualified loop: Loop contains a call
TMS320C6x Assembler PC v7.4.2 Thu Mar 19 12:41:40 2015

Tools Copyright (c) 1996-2012 Texas Instruments Incorporated
package/lib/Regression/regress_d_c/./../packages/ti/vlib/src/VLIB_histogram_1D_Init_U8/VLIB_histogram_1D_Init_U8_d.se66 PAGE   13

     661                    ;*      Disqualified loop: Loop contains non-pipelinable instructions
     662                    ;*      Disqualified loop: Loop contains a call
     663                    ;*      Disqualified loop: Loop contains non-pipelinable instructions
     664                    ;*      Disqualified loop: Loop contains a call
     665                    ;*      Disqualified loop: Loop contains non-pipelinable instructions
     666                    ;*      Disqualified loop: Loop contains control code
     667                    ;*----------------------------------------------------------------------------*
     668 00000068           $C$L1:    
     669                            .dwpsn  file "./../packages/ti/vlib/src/VLIB_histogram_1D_Init_U8/VLIB_histogram_1D_Init_U8_d.
     670                    ;----------------------------------------------------------------------
     671                    ;  54 | int32_t    status_nat_vs_int = vlib_KERNEL_PASS; /* Test status : Natur
     672                    ;     | al c vs. Optimized */                                                  
     673                    ;  55 | int32_t    status_nat_vs_ref = vlib_KERNEL_PASS; /* Test status : Natur
     674                    ;     | al c vs. Static Reference */                                           
     675                    ;----------------------------------------------------------------------
     676                    $C$DW$L$VLIB_histogram_1D_Init_U8_d$5$B:
     677                    ;          EXCLUSIVE CPU CYCLES: 6
     678                    ;**     -----------------------g3:
     679                    ;** 58  -----------------------    binEdges = VLIB_malloc((unsigned)(*(U$12 += 20)).numBins);
     680                    ;** 59  -----------------------    histArray = VLIB_malloc((unsigned)(*U$12).maxSize);
     681                    ;** 60  -----------------------    histArray_cn = malloc((unsigned)(*U$12).maxSize);
     682                    ;** 63  -----------------------    if ( !((binEdges != NULL)&(histArray != NULL)&(histArray_cn != NULL
     683                    $C$DW$105       .dwtag  DW_TAG_TI_branch
     684                            .dwattr $C$DW$105, DW_AT_low_pc(0x00)
     685                            .dwattr $C$DW$105, DW_AT_name("VLIB_malloc")
     686                            .dwattr $C$DW$105, DW_AT_TI_call
     687                    
     688 00000068 00000013!            CALL    .S2     VLIB_malloc       ; |58| 
     689 0000006c 05800a50  ||         ADDK    .S1     20,A11            ; |58| 
     690                    
     691                            .dwpsn  file "./../packages/ti/vlib/src/VLIB_histogram_1D_Init_U8/VLIB_histogram_1D_Init_U8_d.
     692                    ;----------------------------------------------------------------------
     693                    ;  58 | uint8_t   *binEdges       =  (uint8_t *) VLIB_malloc(prm[tpi].numBins *
     694                    ;     |  sizeof(uint8_t));                                                     
     695                    ;----------------------------------------------------------------------
     696 00000070 022c6264             LDW     .D1T1   *+A11(12),A4      ; |58| 
     697 00000074 01866162             ADDKPC  .S2     $C$RL2,B3,3       ; |58| 
     698 00000078           $C$RL2:    ; CALL OCCURS {VLIB_malloc} {0}   ; |58| 
     699 00000078           $C$DW$L$VLIB_histogram_1D_Init_U8_d$5$E:
     700                    ;** --------------------------------------------------------------------------*
     701 00000078           $C$DW$L$VLIB_histogram_1D_Init_U8_d$6$B:
     702                    ;          EXCLUSIVE CPU CYCLES: 14
     703 00000078 023cc2f4             STW     .D2T1   A4,*+SP(24)       ; |58| 
     704                    $C$DW$106       .dwtag  DW_TAG_TI_branch
     705                            .dwattr $C$DW$106, DW_AT_low_pc(0x00)
     706                            .dwattr $C$DW$106, DW_AT_name("VLIB_malloc")
     707                            .dwattr $C$DW$106, DW_AT_TI_call
     708                    
     709 0000007c 10000013!            CALLP   .S2     VLIB_malloc,B3
     710 00000080 022c8264  ||         LDW     .D1T1   *+A11(16),A4      ; |59| 
     711                    
     712                            .dwpsn  file "./../packages/ti/vlib/src/VLIB_histogram_1D_Init_U8/VLIB_histogram_1D_Init_U8_d.
     713                    ;----------------------------------------------------------------------
     714                    ;  59 | uint8_t   *histArray      =  (uint8_t *) VLIB_malloc(prm[tpi].maxSize *
     715                    ;     |  sizeof(uint8_t));                                                     
TMS320C6x Assembler PC v7.4.2 Thu Mar 19 12:41:40 2015

Tools Copyright (c) 1996-2012 Texas Instruments Incorporated
package/lib/Regression/regress_d_c/./../packages/ti/vlib/src/VLIB_histogram_1D_Init_U8/VLIB_histogram_1D_Init_U8_d.se66 PAGE   14

     716                    ;----------------------------------------------------------------------
     717 00000084           $C$RL3:    ; CALL OCCURS {VLIB_malloc} {0}   ; |59| 
     718 00000084 023ce2f4             STW     .D2T1   A4,*+SP(28)       ; |59| 
     719                    $C$DW$107       .dwtag  DW_TAG_TI_branch
     720                            .dwattr $C$DW$107, DW_AT_low_pc(0x00)
     721                            .dwattr $C$DW$107, DW_AT_name("malloc")
     722                            .dwattr $C$DW$107, DW_AT_TI_call
     723                    
     724 00000088 10000013!            CALLP   .S2     malloc,B3
     725 0000008c 022c8264  ||         LDW     .D1T1   *+A11(16),A4      ; |60| 
     726                    
     727                            .dwpsn  file "./../packages/ti/vlib/src/VLIB_histogram_1D_Init_U8/VLIB_histogram_1D_Init_U8_d.
     728                    ;----------------------------------------------------------------------
     729                    ;  60 | uint8_t   *histArray_cn   =  (uint8_t *) malloc(prm[tpi].maxSize * size
     730                    ;     | of(uint8_t));                                                          
     731                    ;----------------------------------------------------------------------
     732 00000090           $C$RL4:    ; CALL OCCURS {malloc} {0}        ; |60| 
     733 00000090           $C$DW$L$VLIB_histogram_1D_Init_U8_d$6$E:
     734                    ;** --------------------------------------------------------------------------*
     735 00000090           $C$DW$L$VLIB_histogram_1D_Init_U8_d$7$B:
     736                    ;          EXCLUSIVE CPU CYCLES: 15
     737                    
     738 00000090     0627             ZERO    .L2     B4                ; |63| 
     739 00000092     05a6  ||         ZERO    .L1     A3                ; |63| 
     740 00000094     224e  ||         MV      .S1     A4,A1             ; |63| 
     741 00000096     fc8d  ||         LDW     .D2T2   *+SP(28),B0       ; |63| 
     742                    
     743                            .dwpsn  file "./../packages/ti/vlib/src/VLIB_histogram_1D_Init_U8/VLIB_histogram_1D_Init_U8_d.
     744                    ;----------------------------------------------------------------------
     745                    ;  63 | if( binEdges && histArray && histArray_cn ) {                          
     746                    ;----------------------------------------------------------------------
     747 00000098     cc8d             LDW     .D2T1   *+SP(24),A0       ; |63| 
     748 0000009a     06a7             ZERO    .L2     B5                ; |63| 
     749 000000a0 8184a358     [ A1]   MVK     .L1     0x1,A3            ; |63| 
     750                            .dwpsn  file "./../packages/ti/vlib/src/VLIB_histogram_1D_Init_U8/VLIB_histogram_1D_Init_U8_d.
     751 000000a4     8d45             STW     .D2T1   A4,*+SP(32)       ; |60| 
     752                            .dwpsn  file "./../packages/ti/vlib/src/VLIB_histogram_1D_Init_U8/VLIB_histogram_1D_Init_U8_d.
     753                    ;----------------------------------------------------------------------
     754                    ;  65 | int32_t    fail, numIterations;                                        
     755                    ;----------------------------------------------------------------------
     756 000000a6     aa67     [ B0]   MVK     .L2     0x1,B4            ; |63| 
     757 000000a8 c284a35a     [ A0]   MVK     .L2     0x1,B5            ; |63| 
     758 000000ac 02148f7a             AND     .L2     B4,B5,B4          ; |63| 
     759 000000b0 000c9f7a             AND     .L2X    A3,B4,B0          ; |63| 
     760                    
     761 000000b4 30005311     [!B0]   B       .S1     $C$L3             ; |63| 
     762 000000b8 242cc205  || [ B0]   LDHU    .D1T1   *+A11(12),A8      ; |68| 
     763 000000c0 3200002b! || [!B0]   MVKL    .S2     $C$SL3+0,B4
     764 000000c4 2404a35a  || [ B0]   MVK     .L2     0x1,B8            ; |68| 
     765                    
     766                    $C$DW$108       .dwtag  DW_TAG_TI_branch
     767                            .dwattr $C$DW$108, DW_AT_low_pc(0x00)
     768                            .dwattr $C$DW$108, DW_AT_name("VLIB_fillBuffer")
     769                            .dwattr $C$DW$108, DW_AT_TI_call
     770                    
TMS320C6x Assembler PC v7.4.2 Thu Mar 19 12:41:40 2015

Tools Copyright (c) 1996-2012 Texas Instruments Incorporated
package/lib/Regression/regress_d_c/./../packages/ti/vlib/src/VLIB_histogram_1D_Init_U8/VLIB_histogram_1D_Init_U8_d.se66 PAGE   15

     771 000000c8 20000011!    [ B0]   CALL    .S1     VLIB_fillBuffer   ; |68| 
     772 000000cc 232c2266  || [ B0]   LDW     .D1T2   *+A11(4),B6       ; |68| 
     773                    
     774                            .dwpsn  file "./../packages/ti/vlib/src/VLIB_histogram_1D_Init_U8/VLIB_histogram_1D_Init_U8_d.
     775                    ;----------------------------------------------------------------------
     776                    ;  68 | VLIB_fillBuffer(prm[tpi].testPattern,                                  
     777                    ;  69 |                 (uint8_t)1,                                            
     778                    ;  70 |                 binEdges, prm[tpi].staticIn,                           
     779                    ;  71 |                 prm[tpi].numBins, 1, prm[tpi].numBins,                 
     780                    ;  72 |                 sizeof(uint8_t), testPatternString);                   
     781                    ;  75 | memset(histArray, 0, prm[tpi].maxSize * sizeof(uint8_t));              
     782                    ;  76 | memset(histArray_cn, 0, prm[tpi].maxSize * sizeof(uint8_t));           
     783                    ;  79 | VLIB_profile_start(vlib_KERNEL_OPT);                                   
     784                    ;  80 | VLIB_histogram_1D_Init_U8(binEdges, prm[tpi].numBins, histArray);      
     785                    ;  81 | VLIB_profile_stop();                                                   
     786                    ;  85 | VLIB_profile_start(vlib_KERNEL_CN);                                    
     787                    ;  86 | VLIB_histogram_1D_Init_U8_cn(binEdges, prm[tpi].numBins, histArray_cn);
     788                    ;  87 | VLIB_profile_stop();                                                   
     789                    ;  91 | status_nat_vs_int = VLIB_compare_mem((void *) histArray, (void *)histAr
     790                    ;     | ray_cn, prm[tpi].maxSize * sizeof(uint8_t));                           
     791                    ;  94 | if( prm[tpi].staticOut != NULL ) {                                     
     792                    ;  95 |     status_nat_vs_ref = VLIB_compare_mem((void *) prm[tpi].staticOut, (
     793                    ;     | void *)histArray_cn, prm[tpi].maxSize * sizeof(uint8_t));              
     794                    ;  99 | fail = ((status_nat_vs_int == vlib_KERNEL_FAIL) || (status_nat_vs_ref =
     795                    ;     | = vlib_KERNEL_FAIL)) ? 1 : 0;                                          
     796                    ; 101 | est_test=1;                                                            
     797                    ; 102 | numIterations = binEdges[prm[tpi].numBins - 1] - binEdges[0] + 1;      
     798                    ; 105 | sprintf(desc, "%s generated input | Opt results compared to NatC result
     799                    ;     | s | numBins=%d, maxSize=%d",                                           
     800                    ; 106 |         testPatternString, prm[tpi].numBins, prm[tpi].maxSize);        
     801                    ; 107 | VLIB_formula_add_test(numIterations, NULL, NULL, fail, desc, NULL);    
     802                    ; 109 | } else {                                                               
     803                    ;----------------------------------------------------------------------
     804 000000d0 222c0214     [ B0]   LDBU    .D1T1   *A11,A4           ; |68| 
     805                            .dwpsn  file "./../packages/ti/vlib/src/VLIB_histogram_1D_Init_U8/VLIB_histogram_1D_Init_U8_d.
     806                    ;----------------------------------------------------------------------
     807                    ; 111 | sprintf(desc, "numBins=%d, maxSize=%d",                                
     808                    ; 112 |         prm[tpi].numBins, prm[tpi].maxSize);                           
     809                    ; 113 | VLIB_skip_test(desc);                                                  
     810                    ; 117 | free(histArray_cn);                                                    
     811                    ; 118 | VLIB_free(histArray);                                                  
     812                    ; 119 | VLIB_free(binEdges);                                                   
     813                    ; 123 | VLIB_profile_cycle_report(vlib_PROFILE_FORMULA_RANGE,                  
     814                    ; 124 |                   "N = binEdges[numBins-1] - binEdges[0] + 1",         
     815                    ; 125 |                   "binEdges[numBins-1] - binEdges[0] + 1");            
     816                    ; 128 | VLIB_kernel_memory();                                                  
     817                    ; 132 | #ifndef __ONESHOTTEST                                                  
     818                    ; 134 | main() {                                                               
     819                    ; 135 | if( VLIB_cache_init()) {                                               
     820                    ; 136 | VLIB_memError("VLIB_histogram_1D_Init_U8");                            
     821                    ; 137 | } else {                                                               
     822                    ; 138 | VLIB_histogram_1D_Init_U8_d(0);                                        
     823                    ;----------------------------------------------------------------------
     824 000000d4 322c6264     [!B0]   LDW     .D1T1   *+A11(12),A4      ; |111| 
     825                    $C$DW$109       .dwtag  DW_TAG_TI_branch
TMS320C6x Assembler PC v7.4.2 Thu Mar 19 12:41:40 2015

Tools Copyright (c) 1996-2012 Texas Instruments Incorporated
package/lib/Regression/regress_d_c/./../packages/ti/vlib/src/VLIB_histogram_1D_Init_U8/VLIB_histogram_1D_Init_U8_d.se66 PAGE   16

     826                            .dwattr $C$DW$109, DW_AT_low_pc(0x00)
     827                            .dwattr $C$DW$109, DW_AT_name("sprintf")
     828                            .dwattr $C$DW$109, DW_AT_TI_call
     829                    
     830 000000d8 30000011!    [!B0]   CALL    .S1     sprintf           ; |111| 
     831 000000dc 31ac8264  || [!B0]   LDW     .D1T1   *+A11(16),A3      ; |111| 
     832                    
     833 000000e0 3200006a!    [!B0]   MVKH    .S2     $C$SL3+0,B4
     834                            .dwpsn  file "./../packages/ti/vlib/src/VLIB_histogram_1D_Init_U8/VLIB_histogram_1D_Init_U8_d.
     835                               ; BRANCHCC OCCURS {$C$L3}         ; |63| 
     836 000000e4           $C$DW$L$VLIB_histogram_1D_Init_U8_d$7$E:
     837                    ;** --------------------------------------------------------------------------*
     838 000000e4           $C$DW$L$VLIB_histogram_1D_Init_U8_d$8$B:
     839                    ;          EXCLUSIVE CPU CYCLES: 1
     840                    ;** 68  -----------------------    C$5 = (unsigned short)(*U$12).numBins;
     841                    ;** 68  -----------------------    VLIB_fillBuffer((*U$12).testPattern, 1u, (void *)binEdges, (*U$12).
     842                    ;** 75  -----------------------    memset((void *)histArray, 0, (unsigned)(*U$12).maxSize);
     843                    ;** 76  -----------------------    memset((void *)histArray_cn, 0, (unsigned)(*U$12).maxSize);
     844                    ;** 137 -----------------------    act_kernel = 0;  // [15]
     845                    ;** 140 -----------------------    VLIB_cache_inval();  // [15]
     846                    ;** 143 -----------------------    initStack(getSP());  // [15]
     847                    ;** 146 -----------------------    beg_count = _itoll(TSCH, TSCL);  // [15]
     848                    ;** 80  -----------------------    VLIB_histogram_1D_Init_U8(binEdges, (*U$12).numBins, histArray);
     849                    ;** 153 -----------------------    v$2 = _itoll(TSCH, TSCL);  // [16]
     850                    ;** 153 -----------------------    end_count = v$2;  // [16]
     851                    ;** 156 -----------------------    C$4 = act_kernel;  // [16]
     852                    ;** 156 -----------------------    *((C$4<<3)+K$43) = *((C$4<<3)+K$43)+(v$2-(beg_count+overhead));  //
     853                    ;** 159 -----------------------    setStackDepth();  // [16]
     854                    ;** 137 -----------------------    act_kernel = 1;  // [15]
     855                    ;** 140 -----------------------    VLIB_cache_inval();  // [15]
     856                    ;** 143 -----------------------    initStack(getSP());  // [15]
     857                    
     858 000000e4 06301fd9             MV      .L1X    B12,A12           ; |68| 
     859 000000e8     c04e  ||         MV      .S1     A0,A6             ; |68| 
     860 000000ec 05200fdb  ||         MV      .L2     B8,B10            ; |68| 
     861 000000ea     8417  ||         MV      .D2     B8,B4             ; |68| 
     862 000000f0 052008f1  ||         MV      .D1     A8,A10            ; |68| 
     863 000000f4 01860162  ||         ADDKPC  .S2     $C$RL5,B3,0       ; |68| 
     864                    
     865                            .dwpsn  file "./../packages/ti/vlib/src/VLIB_histogram_1D_Init_U8/VLIB_histogram_1D_Init_U8_d.
     866 000000f8           $C$RL5:    ; CALL OCCURS {VLIB_fillBuffer} {0}  ; |68| 
     867 000000f8           $C$DW$L$VLIB_histogram_1D_Init_U8_d$8$E:
     868                    ;** --------------------------------------------------------------------------*
     869 000000f8           $C$DW$L$VLIB_histogram_1D_Init_U8_d$9$B:
     870                    ;          EXCLUSIVE CPU CYCLES: 88
     871                            .dwpsn  file "./../packages/ti/vlib/src/VLIB_histogram_1D_Init_U8/VLIB_histogram_1D_Init_U8_d.
     872 000000f8     eccd             LDW     .D2T1   *+SP(28),A4       ; |75| 
     873                    $C$DW$110       .dwtag  DW_TAG_TI_branch
     874                            .dwattr $C$DW$110, DW_AT_low_pc(0x00)
     875                            .dwattr $C$DW$110, DW_AT_name("memset")
     876                            .dwattr $C$DW$110, DW_AT_TI_call
     877                    
     878 00000104 10000012!            CALLP   .S2     memset,B3
     879 00000100 032c8265  ||         LDW     .D1T1   *+A11(16),A6      ; |75| 
     880 000000fa     0627  ||         ZERO    .L2     B4                ; |75| 
TMS320C6x Assembler PC v7.4.2 Thu Mar 19 12:41:40 2015

Tools Copyright (c) 1996-2012 Texas Instruments Incorporated
package/lib/Regression/regress_d_c/./../packages/ti/vlib/src/VLIB_histogram_1D_Init_U8/VLIB_histogram_1D_Init_U8_d.se66 PAGE   17

     881                    
     882 00000108           $C$RL6:    ; CALL OCCURS {memset} {0}        ; |75| 
     883                            .dwpsn  file "./../packages/ti/vlib/src/VLIB_histogram_1D_Init_U8/VLIB_histogram_1D_Init_U8_d.
     884 00000108     8d4d             LDW     .D2T1   *+SP(32),A4       ; |76| 
     885                    $C$DW$111       .dwtag  DW_TAG_TI_branch
     886                            .dwattr $C$DW$111, DW_AT_low_pc(0x00)
     887                            .dwattr $C$DW$111, DW_AT_name("memset")
     888                            .dwattr $C$DW$111, DW_AT_TI_call
     889                    
     890 00000110 10000012!            CALLP   .S2     memset,B3
     891 0000010c 032c8265  ||         LDW     .D1T1   *+A11(16),A6      ; |76| 
     892 0000010a     0627  ||         ZERO    .L2     B4                ; |76| 
     893                    
     894 00000114           $C$RL7:    ; CALL OCCURS {memset} {0}        ; |76| 
     895 00000114 0280002a!            MVKL    .S2     act_kernel,B5
     896                    
     897 00000118 0280006b!            MVKH    .S2     act_kernel,B5
     898 00000120     0627  ||         ZERO    .L2     B4                ; |137| 
     899                    
     900                    $C$DW$112       .dwtag  DW_TAG_TI_branch
     901                            .dwattr $C$DW$112, DW_AT_low_pc(0x00)
     902                            .dwattr $C$DW$112, DW_AT_name("VLIB_cache_inval")
     903                            .dwattr $C$DW$112, DW_AT_TI_call
     904                    
     905 00000124 10000012!            CALLP   .S2     VLIB_cache_inval,B3
     906 00000122     10c5  ||         STW     .D2T2   B4,*B5            ; |137| 
     907                    
     908                            .dwpsn  file ".\..\packages\ti\vlib\src\VLIB_histogram_1D_Init_U8\..\common\VLIB_profile.h",li
     909                    ;----------------------------------------------------------------------
     910                    ; 141 | #endif /* __ONESHOTTEST */                                             
     911                    ;----------------------------------------------------------------------
     912                    $C$RL8:    ; CALL OCCURS {VLIB_cache_inval} {0}  ; |140| 
     913                    $C$DW$113       .dwtag  DW_TAG_TI_branch
     914                            .dwattr $C$DW$113, DW_AT_low_pc(0x00)
     915                            .dwattr $C$DW$113, DW_AT_name("getSP")
     916                            .dwattr $C$DW$113, DW_AT_TI_call
     917 00000128 10000012!            CALLP   .S2     getSP,B3
     918                            .dwpsn  file ".\..\packages\ti\vlib\src\VLIB_histogram_1D_Init_U8\..\common\VLIB_profile.h",li
     919                    $C$RL9:    ; CALL OCCURS {getSP} {0}         ; |143| 
     920                    $C$DW$114       .dwtag  DW_TAG_TI_branch
     921                            .dwattr $C$DW$114, DW_AT_low_pc(0x00)
     922                            .dwattr $C$DW$114, DW_AT_name("initStack")
     923                            .dwattr $C$DW$114, DW_AT_TI_call
     924 0000012c 10000012!            CALLP   .S2     initStack,B3
     925 00000130           $C$RL10:   ; CALL OCCURS {initStack} {0}     ; |143| 
     926                            .dwpsn  file ".\..\packages\ti\vlib\src\VLIB_histogram_1D_Init_U8\..\common\VLIB_profile.h",li
     927                    ;----------------------------------------------------------------------
     928                    ; 147 |                                                                        
     929                    ;----------------------------------------------------------------------
     930 00000130 032803e2             MVC     .S2     TSCL,B6           ; |146| 
     931 00000134 022c03e2             MVC     .S2     TSCH,B4           ; |146| 
     932                    
     933 00000140     cccd             LDW     .D2T1   *+SP(24),A4       ; |80| 
     934 00000138 0280002b! ||         MVKL    .S2     beg_count,B5
     935                    
TMS320C6x Assembler PC v7.4.2 Thu Mar 19 12:41:40 2015

Tools Copyright (c) 1996-2012 Texas Instruments Incorporated
package/lib/Regression/regress_d_c/./../packages/ti/vlib/src/VLIB_histogram_1D_Init_U8/VLIB_histogram_1D_Init_U8_d.se66 PAGE   18

     936 00000142     e247             MV      .L2     B4,B7             ; |146| 
     937 0000014c     eced  ||         LDW     .D2T1   *+SP(28),A6       ; |80| 
     938 00000148 022c6267  ||         LDW     .D1T2   *+A11(12),B4      ; |80| 
     939 00000144 0280006b! ||         MVKH    .S2     beg_count,B5
     940                    
     941                    $C$DW$115       .dwtag  DW_TAG_TI_branch
     942                            .dwattr $C$DW$115, DW_AT_low_pc(0x00)
     943                            .dwattr $C$DW$115, DW_AT_name("VLIB_histogram_1D_Init_U8")
     944                            .dwattr $C$DW$115, DW_AT_TI_call
     945                    
     946 00000150 10000012!            CALLP   .S2     VLIB_histogram_1D_Init_U8,B3
     947 0000014e     10e5  ||         STDW    .D2T2   B7:B6,*B5         ; |146| 
     948                    
     949                            .dwpsn  file "./../packages/ti/vlib/src/VLIB_histogram_1D_Init_U8/VLIB_histogram_1D_Init_U8_d.
     950 00000154           $C$RL11:   ; CALL OCCURS {VLIB_histogram_1D_Init_U8} {0}  ; |80| 
     951                            .dwpsn  file ".\..\packages\ti\vlib\src\VLIB_histogram_1D_Init_U8\..\common\VLIB_profile.h",li
     952 00000154 032803e2             MVC     .S2     TSCL,B6           ; |153| 
     953 00000158 022c03e2             MVC     .S2     TSCH,B4           ; |153| 
     954 00000160 0280002a!            MVKL    .S2     overhead,B5
     955                    
     956 00000164 01800029!            MVKL    .S1     act_kernel,A3
     957 00000168 0380002a! ||         MVKL    .S2     beg_count,B7
     958                    
     959 0000016c 01800069!            MVKH    .S1     act_kernel,A3
     960 00000170 0280006a! ||         MVKH    .S2     overhead,B5
     961                    
     962 00000174 018c0265             LDW     .D1T1   *A3,A3            ; |156| 
     963 00000178 0380006b! ||         MVKH    .S2     beg_count,B7
     964 0000017c 041403e6  ||         LDDW    .D2T2   *B5,B9:B8         ; |156| 
     965                    
     966                            .dwpsn  file ".\..\packages\ti\vlib\src\VLIB_histogram_1D_Init_U8\..\common\VLIB_profile.h",li
     967 00000180 081c03e6             LDDW    .D2T2   *B7,B17:B16       ; |156| 
     968                            .dwpsn  file ".\..\packages\ti\vlib\src\VLIB_histogram_1D_Init_U8\..\common\VLIB_profile.h",li
     969 00000184     e247             MV      .L2     B4,B7             ; |153| 
     970 00000186     2c6e             NOP             2
     971                            .dwpsn  file ".\..\packages\ti\vlib\src\VLIB_histogram_1D_Init_U8\..\common\VLIB_profile.h",li
     972 00000188 03346b64             LDDW    .D1T1   *+A13[A3],A7:A6   ; |156| 
     973 0000018c 0241057a             ADDU    .L2     B8,B16,B5:B4      ; |156| 
     974 00000190 04a4a07a             ADD     .L2     B5,B9,B9          ; |156| 
     975                    
     976 00000194 04c521e3             ADD     .S2     B9,B17,B9         ; |156| 
     977 00000198 0210c5fa  ||         SUBU    .L2     B6,B4,B5:B4       ; |156| 
     978                    
     979 000001a0 0fa4e0fb             SUB     .L2     B7,B9,B31         ; |156| 
     980 000001a4 0297184a  ||         EXT     .S2     B5,24,24,B5       ; |156| 
     981                    
     982 000001a8 0210d579             ADDU    .L1X    A6,B4,A5:A4       ; |156| 
     983 000001ac 0217e07a  ||         ADD     .L2     B31,B5,B4         ; |156| 
     984                    
     985 000001b4     a3d0             ADD     .L1     A5,A7,A5          ; |156| 
     986 000001b0 0400002b! ||         MVKL    .S2     end_count,B8
     987                    
     988 000001b6     b250             ADD     .L1X    A5,B4,A5          ; |156| 
     989 000001b8 0400006a! ||         MVKH    .S2     end_count,B8
     990                    
TMS320C6x Assembler PC v7.4.2 Thu Mar 19 12:41:40 2015

Tools Copyright (c) 1996-2012 Texas Instruments Incorporated
package/lib/Regression/regress_d_c/./../packages/ti/vlib/src/VLIB_histogram_1D_Init_U8/VLIB_histogram_1D_Init_U8_d.se66 PAGE   19

     991                    $C$DW$116       .dwtag  DW_TAG_TI_branch
     992                            .dwattr $C$DW$116, DW_AT_low_pc(0x00)
     993                            .dwattr $C$DW$116, DW_AT_name("setStackDepth")
     994                            .dwattr $C$DW$116, DW_AT_TI_call
     995                    
     996 000001c0 10000013!            CALLP   .S2     setStackDepth,B3
     997 000001c4 02346b45  ||         STDW    .D1T1   A5:A4,*+A13[A3]   ; |156| 
     998 000001c8 032003c6  ||         STDW    .D2T2   B7:B6,*B8         ; |153| 
     999                    
    1000                            .dwpsn  file ".\..\packages\ti\vlib\src\VLIB_histogram_1D_Init_U8\..\common\VLIB_profile.h",li
    1001 000001cc           $C$RL12:   ; CALL OCCURS {setStackDepth} {0}  ; |159| 
    1002 000001cc 0280002a!            MVKL    .S2     act_kernel,B5
    1003                    
    1004 000001d0 0280006b!            MVKH    .S2     act_kernel,B5
    1005 000001d4     2627  ||         MVK     .L2     1,B4              ; |137| 
    1006                    
    1007                    $C$DW$117       .dwtag  DW_TAG_TI_branch
    1008                            .dwattr $C$DW$117, DW_AT_low_pc(0x00)
    1009                            .dwattr $C$DW$117, DW_AT_name("VLIB_cache_inval")
    1010                            .dwattr $C$DW$117, DW_AT_TI_call
    1011                    
    1012 000001d8 10000012!            CALLP   .S2     VLIB_cache_inval,B3
    1013 000001d6     10c5  ||         STW     .D2T2   B4,*B5            ; |137| 
    1014                    
    1015                            .dwpsn  file ".\..\packages\ti\vlib\src\VLIB_histogram_1D_Init_U8\..\common\VLIB_profile.h",li
    1016                    $C$RL13:   ; CALL OCCURS {VLIB_cache_inval} {0}  ; |140| 
    1017                    $C$DW$118       .dwtag  DW_TAG_TI_branch
    1018                            .dwattr $C$DW$118, DW_AT_low_pc(0x00)
    1019                            .dwattr $C$DW$118, DW_AT_name("getSP")
    1020                            .dwattr $C$DW$118, DW_AT_TI_call
    1021 000001e0 10000012!            CALLP   .S2     getSP,B3
    1022                            .dwpsn  file ".\..\packages\ti\vlib\src\VLIB_histogram_1D_Init_U8\..\common\VLIB_profile.h",li
    1023                    $C$RL14:   ; CALL OCCURS {getSP} {0}         ; |143| 
    1024                    $C$DW$119       .dwtag  DW_TAG_TI_branch
    1025                            .dwattr $C$DW$119, DW_AT_low_pc(0x00)
    1026                            .dwattr $C$DW$119, DW_AT_name("initStack")
    1027                            .dwattr $C$DW$119, DW_AT_TI_call
    1028 000001e4 10000012!            CALLP   .S2     initStack,B3
    1029 000001e8           $C$RL15:   ; CALL OCCURS {initStack} {0}     ; |143| 
    1030 000001e8           $C$DW$L$VLIB_histogram_1D_Init_U8_d$9$E:
    1031                    ;** --------------------------------------------------------------------------*
    1032 000001e8           $C$DW$L$VLIB_histogram_1D_Init_U8_d$10$B:
    1033                    ;          EXCLUSIVE CPU CYCLES: 10
    1034                    ;** 146 -----------------------    beg_count = _itoll(TSCH, TSCL);  // [15]
    1035                    ;** 86  -----------------------    VLIB_histogram_1D_Init_U8_cn(binEdges, (*U$12).numBins, histArray_c
    1036                    ;** 153 -----------------------    v$2 = _itoll(TSCH, TSCL);  // [16]
    1037                    ;** 153 -----------------------    end_count = v$2;  // [16]
    1038                    ;** 156 -----------------------    C$3 = act_kernel;  // [16]
    1039                    ;** 156 -----------------------    *((C$3<<3)+K$43) = *((C$3<<3)+K$43)+(v$2-(beg_count+overhead));  //
    1040                    ;** 159 -----------------------    setStackDepth();  // [16]
    1041                    ;** 91  -----------------------    status_nat_vs_int = VLIB_compare_mem((void *)histArray, (void *)his
    1042                    ;** 94  -----------------------    v$1 = prm;
    1043                    ;** 94  -----------------------    U$52 = (*U$12).staticOut;
    1044                    ;** 94  -----------------------    if ( U$52 ) goto g6;
    1045                    ;** 55  -----------------------    status_nat_vs_ref = 1;
TMS320C6x Assembler PC v7.4.2 Thu Mar 19 12:41:40 2015

Tools Copyright (c) 1996-2012 Texas Instruments Incorporated
package/lib/Regression/regress_d_c/./../packages/ti/vlib/src/VLIB_histogram_1D_Init_U8/VLIB_histogram_1D_Init_U8_d.se66 PAGE   20

    1046                    ;**     -----------------------    goto g7;
    1047                            .dwpsn  file ".\..\packages\ti\vlib\src\VLIB_histogram_1D_Init_U8\..\common\VLIB_profile.h",li
    1048 000001e8 032803e2             MVC     .S2     TSCL,B6           ; |146| 
    1049 000001ec 022c03e2             MVC     .S2     TSCH,B4           ; |146| 
    1050 000001f0 01800028!            MVKL    .S1     beg_count,A3
    1051                    
    1052 000001f4     8d6d             LDW     .D2T1   *+SP(32),A6       ; |86| 
    1053 000001f6     e247  ||         MV      .L2     B4,B7             ; |146| 
    1054 000001f8 022c6267  ||         LDW     .D1T2   *+A11(12),B4      ; |86| 
    1055 00000200 01800068! ||         MVKH    .S1     beg_count,A3
    1056                    
    1057                    $C$DW$120       .dwtag  DW_TAG_TI_branch
    1058                            .dwattr $C$DW$120, DW_AT_low_pc(0x00)
    1059                            .dwattr $C$DW$120, DW_AT_name("VLIB_histogram_1D_Init_U8_cn")
    1060                            .dwattr $C$DW$120, DW_AT_TI_call
    1061                    
    1062 00000204 10000013!            CALLP   .S2     VLIB_histogram_1D_Init_U8_cn,B3
    1063 00000208 023cc2e5  ||         LDW     .D2T1   *+SP(24),A4       ; |86| 
    1064 0000020c 030c0346  ||         STDW    .D1T2   B7:B6,*A3         ; |146| 
    1065                    
    1066                            .dwpsn  file "./../packages/ti/vlib/src/VLIB_histogram_1D_Init_U8/VLIB_histogram_1D_Init_U8_d.
    1067 00000210           $C$RL16:   ; CALL OCCURS {VLIB_histogram_1D_Init_U8_cn} {0}  ; |86| 
    1068 00000210           $C$DW$L$VLIB_histogram_1D_Init_U8_d$10$E:
    1069                    ;** --------------------------------------------------------------------------*
    1070 00000210           $C$DW$L$VLIB_histogram_1D_Init_U8_d$11$B:
    1071                    ;          EXCLUSIVE CPU CYCLES: 31
    1072                            .dwpsn  file ".\..\packages\ti\vlib\src\VLIB_histogram_1D_Init_U8\..\common\VLIB_profile.h",li
    1073 00000210 042803e2             MVC     .S2     TSCL,B8           ; |153| 
    1074 00000214 022c03e2             MVC     .S2     TSCH,B4           ; |153| 
    1075 00000218 0300002a!            MVKL    .S2     beg_count,B6
    1076                    
    1077 0000021c 01800029!            MVKL    .S1     act_kernel,A3
    1078 00000220 0280002a! ||         MVKL    .S2     overhead,B5
    1079                    
    1080 00000224 01800069!            MVKH    .S1     act_kernel,A3
    1081 00000228 0300006a! ||         MVKH    .S2     beg_count,B6
    1082                    
    1083 0000022c 018c0265             LDW     .D1T1   *A3,A3            ; |156| 
    1084 00000230 0280006b! ||         MVKH    .S2     overhead,B5
    1085 00000234 081803e6  ||         LDDW    .D2T2   *B6,B17:B16       ; |156| 
    1086                    
    1087                            .dwpsn  file ".\..\packages\ti\vlib\src\VLIB_histogram_1D_Init_U8\..\common\VLIB_profile.h",li
    1088 00000238     10ed             LDDW    .D2T2   *B5,B7:B6         ; |156| 
    1089                            .dwpsn  file ".\..\packages\ti\vlib\src\VLIB_histogram_1D_Init_U8\..\common\VLIB_profile.h",li
    1090 0000023a     2647             MV      .L2     B4,B9             ; |153| 
    1091 00000240 00002000             NOP             2
    1092                            .dwpsn  file ".\..\packages\ti\vlib\src\VLIB_histogram_1D_Init_U8\..\common\VLIB_profile.h",li
    1093 00000244 03346b64             LDDW    .D1T1   *+A13[A3],A7:A6   ; |156| 
    1094 00000248 0240c57a             ADDU    .L2     B6,B16,B5:B4      ; |156| 
    1095 0000024c 031ca07a             ADD     .L2     B5,B7,B6          ; |156| 
    1096                    
    1097 00000250 0344c1e3             ADD     .S2     B6,B17,B6         ; |156| 
    1098 00000254 021105fa  ||         SUBU    .L2     B8,B4,B5:B4       ; |156| 
    1099                    
    1100 00000258 0f9920fb             SUB     .L2     B9,B6,B31         ; |156| 
TMS320C6x Assembler PC v7.4.2 Thu Mar 19 12:41:40 2015

Tools Copyright (c) 1996-2012 Texas Instruments Incorporated
package/lib/Regression/regress_d_c/./../packages/ti/vlib/src/VLIB_histogram_1D_Init_U8/VLIB_histogram_1D_Init_U8_d.se66 PAGE   21

    1101 0000025c 0297184a  ||         EXT     .S2     B5,24,24,B5       ; |156| 
    1102                    
    1103 00000260 0210d579             ADDU    .L1X    A6,B4,A5:A4       ; |156| 
    1104 00000264 0217e07a  ||         ADD     .L2     B31,B5,B4         ; |156| 
    1105                    
    1106 0000026c     a3d0             ADD     .L1     A5,A7,A5          ; |156| 
    1107 00000268 0380002b! ||         MVKL    .S2     end_count,B7
    1108                    
    1109 0000026e     b250             ADD     .L1X    A5,B4,A5          ; |156| 
    1110 00000270 0380006a! ||         MVKH    .S2     end_count,B7
    1111                    
    1112                    $C$DW$121       .dwtag  DW_TAG_TI_branch
    1113                            .dwattr $C$DW$121, DW_AT_low_pc(0x00)
    1114                            .dwattr $C$DW$121, DW_AT_name("setStackDepth")
    1115                            .dwattr $C$DW$121, DW_AT_TI_call
    1116                    
    1117 00000274 10000013!            CALLP   .S2     setStackDepth,B3
    1118 00000278 02346b45  ||         STDW    .D1T1   A5:A4,*+A13[A3]   ; |156| 
    1119 00000280 041c03c6  ||         STDW    .D2T2   B9:B8,*B7         ; |153| 
    1120                    
    1121                            .dwpsn  file ".\..\packages\ti\vlib\src\VLIB_histogram_1D_Init_U8\..\common\VLIB_profile.h",li
    1122 00000284           $C$RL17:   ; CALL OCCURS {setStackDepth} {0}  ; |159| 
    1123                            .dwpsn  file "./../packages/ti/vlib/src/VLIB_histogram_1D_Init_U8/VLIB_histogram_1D_Init_U8_d.
    1124 00000284     eccd             LDW     .D2T1   *+SP(28),A4       ; |91| 
    1125                    $C$DW$122       .dwtag  DW_TAG_TI_branch
    1126                            .dwattr $C$DW$122, DW_AT_low_pc(0x00)
    1127                            .dwattr $C$DW$122, DW_AT_name("VLIB_compare_mem")
    1128                            .dwattr $C$DW$122, DW_AT_TI_call
    1129                    
    1130 00000288 10000013!            CALLP   .S2     VLIB_compare_mem,B3
    1131 00000286     9d4d  ||         LDW     .D2T2   *+SP(32),B4       ; |91| 
    1132 0000028c 032c8264  ||         LDW     .D1T1   *+A11(16),A6      ; |91| 
    1133                    
    1134 00000290           $C$RL18:   ; CALL OCCURS {VLIB_compare_mem} {0}  ; |91| 
    1135 00000290           $C$DW$L$VLIB_histogram_1D_Init_U8_d$11$E:
    1136                    ;** --------------------------------------------------------------------------*
    1137 00000290           $C$DW$L$VLIB_histogram_1D_Init_U8_d$12$B:
    1138                    ;          EXCLUSIVE CPU CYCLES: 11
    1139                            .dwpsn  file "./../packages/ti/vlib/src/VLIB_histogram_1D_Init_U8/VLIB_histogram_1D_Init_U8_d.
    1140 00000290 002c4264             LDW     .D1T1   *+A11(8),A0       ; |94| 
    1141 00000294     bccd             LDW     .D2T2   *+SP(20),B4       ; |94| 
    1142                            .dwpsn  file "./../packages/ti/vlib/src/VLIB_histogram_1D_Init_U8/VLIB_histogram_1D_Init_U8_d.
    1143 00000296     5647             MV      .L2X    A4,B10            ; |91| 
    1144 00000298     2c6e             NOP             2
    1145                    
    1146 000002a0 c23d02e6     [ A0]   LDW     .D2T2   *+SP(32),B4       ; |95| 
    1147 0000029a     08ba  || [!A0]   B       .S1     $C$L2
    1148                    
    1149                            .dwpsn  file "./../packages/ti/vlib/src/VLIB_histogram_1D_Init_U8/VLIB_histogram_1D_Init_U8_d.
    1150                    $C$DW$123       .dwtag  DW_TAG_TI_branch
    1151                            .dwattr $C$DW$123, DW_AT_low_pc(0x00)
    1152                            .dwattr $C$DW$123, DW_AT_name("VLIB_compare_mem")
    1153                            .dwattr $C$DW$123, DW_AT_TI_call
    1154 000002a4 c0000010!    [ A0]   CALL    .S1     VLIB_compare_mem  ; |95| 
    1155 000002a8 c32c8264     [ A0]   LDW     .D1T1   *+A11(16),A6      ; |95| 
TMS320C6x Assembler PC v7.4.2 Thu Mar 19 12:41:40 2015

Tools Copyright (c) 1996-2012 Texas Instruments Incorporated
package/lib/Regression/regress_d_c/./../packages/ti/vlib/src/VLIB_histogram_1D_Init_U8/VLIB_histogram_1D_Init_U8_d.se66 PAGE   22

    1156                            .dwpsn  file "./../packages/ti/vlib/src/VLIB_histogram_1D_Init_U8/VLIB_histogram_1D_Init_U8_d.
    1157 000002ac d784a358     [!A0]   MVK     .L1     0x1,A15           ; |55| 
    1158 000002b0     2c6e             NOP             2
    1159                               ; BRANCHCC OCCURS {$C$L2}  
    1160 000002b2           $C$DW$L$VLIB_histogram_1D_Init_U8_d$12$E:
    1161                    ;** --------------------------------------------------------------------------*
    1162                            .dwpsn  file "./../packages/ti/vlib/src/VLIB_histogram_1D_Init_U8/VLIB_histogram_1D_Init_U8_d.
    1163 000002b2           $C$DW$L$VLIB_histogram_1D_Init_U8_d$13$B:
    1164                    ;          EXCLUSIVE CPU CYCLES: 1
    1165                    ;**     -----------------------g6:
    1166                    ;** 95  -----------------------    status_nat_vs_ref = VLIB_compare_mem((void *)U$52, (void *)histArra
    1167                    ;** 95  -----------------------    v$1 = prm;
    1168                    
    1169 000002b2     8046             MV      .L1     A0,A4             ; |95| 
    1170 000002b4 01860162  ||         ADDKPC  .S2     $C$RL19,B3,0      ; |95| 
    1171                    
    1172                            .dwpsn  file "./../packages/ti/vlib/src/VLIB_histogram_1D_Init_U8/VLIB_histogram_1D_Init_U8_d.
    1173 000002b8           $C$RL19:   ; CALL OCCURS {VLIB_compare_mem} {0}  ; |95| 
    1174 000002b8           $C$DW$L$VLIB_histogram_1D_Init_U8_d$13$E:
    1175                    ;** --------------------------------------------------------------------------*
    1176 000002b8           $C$DW$L$VLIB_histogram_1D_Init_U8_d$14$B:
    1177                    ;          EXCLUSIVE CPU CYCLES: 5
    1178 000002b8     bccd             LDW     .D2T2   *+SP(20),B4       ; |95| 
    1179 000002ba     e646             MV      .L1     A4,A15            ; |95| 
    1180 000002c0 00004000             NOP             3
    1181 000002c4           $C$DW$L$VLIB_histogram_1D_Init_U8_d$14$E:
    1182                    ;** --------------------------------------------------------------------------*
    1183 000002c4           $C$L2:    
    1184 000002c4           $C$DW$L$VLIB_histogram_1D_Init_U8_d$15$B:
    1185                    ;          EXCLUSIVE CPU CYCLES: 14
    1186                    ;**     -----------------------g7:
    1187                    ;** 101 -----------------------    est_test = 1;
    1188                    ;** 102 -----------------------    C$2 = U$11+v$1;
    1189                    ;** 102 -----------------------    C$1 = (*C$2).numBins;
    1190                    ;** 102 -----------------------    numIterations = binEdges[C$1-1]-*binEdges+1;
    1191                    ;** 105 -----------------------    sprintf(K$73, (const char *)"%s generated input | Opt results compa
    1192                    ;** 107 -----------------------    VLIB_formula_add_test(numIterations, 0, 0, (status_nat_vs_int == 0)
    1193                    ;** 109 -----------------------    goto g9;
    1194                            .dwpsn  file "./../packages/ti/vlib/src/VLIB_histogram_1D_Init_U8/VLIB_histogram_1D_Init_U8_d.
    1195 000002c4 0234807a             ADD     .L2     B4,B13,B4         ; |102| 
    1196 000002c8 029062e6             LDW     .D2T2   *+B4(12),B5       ; |102| 
    1197                    
    1198 000002cc 0fbcc2e5             LDW     .D2T1   *+SP(24),A31      ; |105| 
    1199 000002d0 01800028! ||         MVKL    .S1     $C$SL2+0,A3
    1200                    
    1201 000002d4 02800029!            MVKL    .S1     est_test,A5
    1202 000002d8 021082e6  ||         LDW     .D2T2   *+B4(16),B4       ; |105| 
    1203                    
    1204 000002dc 01800068!            MVKH    .S1     $C$SL2+0,A3
    1205                    
    1206 000002e0 02800069!            MVKH    .S1     est_test,A5
    1207 000002e4     2626  ||         MVK     .L1     1,A4              ; |101| 
    1208 000002e6     ac35  ||         STW     .D2T1   A3,*+SP(4)        ; |105| 
    1209                    
    1210 000002ec     00c4             STW     .D1T1   A4,*A5            ; |101| 
TMS320C6x Assembler PC v7.4.2 Thu Mar 19 12:41:40 2015

Tools Copyright (c) 1996-2012 Texas Instruments Incorporated
package/lib/Regression/regress_d_c/./../packages/ti/vlib/src/VLIB_histogram_1D_Init_U8/VLIB_histogram_1D_Init_U8_d.se66 PAGE   23

    1211 000002e8 063c42f7  ||         STW     .D2T2   B12,*+SP(8)       ; |105| 
    1212                    
    1213 000002f4 0197f078             ADD     .L1X    A31,B5,A3         ; |102| 
    1214 000002f0 057c0215  ||         LDBU    .D1T1   *A31,A10          ; |102| 
    1215 000002ee     fc55  ||         STW     .D2T2   B5,*+SP(12)       ; |105| 
    1216                    
    1217                    $C$DW$124       .dwtag  DW_TAG_TI_branch
    1218                            .dwattr $C$DW$124, DW_AT_low_pc(0x00)
    1219                            .dwattr $C$DW$124, DW_AT_name("sprintf")
    1220                            .dwattr $C$DW$124, DW_AT_TI_call
    1221                    
    1222 000002f8 10000013!            CALLP   .S2     sprintf,B3
    1223 00000300 060c2015  ||         LDBU    .D1T1   *-A3(1),A12       ; |102| 
    1224 00000304     9cc5  ||         STW     .D2T2   B4,*+SP(16)       ; |105| 
    1225 00000306     9586  ||         MV      .L1X    B11,A4            ; |105| 
    1226                    
    1227                            .dwpsn  file "./../packages/ti/vlib/src/VLIB_histogram_1D_Init_U8/VLIB_histogram_1D_Init_U8_d.
    1228 00000308           $C$RL20:   ; CALL OCCURS {sprintf} {0}       ; |105| 
    1229 00000308           $C$DW$L$VLIB_histogram_1D_Init_U8_d$15$E:
    1230                    ;** --------------------------------------------------------------------------*
    1231 00000308           $C$DW$L$VLIB_histogram_1D_Init_U8_d$16$B:
    1232                    ;          EXCLUSIVE CPU CYCLES: 8
    1233                            .dwpsn  file "./../packages/ti/vlib/src/VLIB_histogram_1D_Init_U8/VLIB_histogram_1D_Init_U8_d.
    1234 00000308 023c0a58             CMPEQ   .L1     A15,0,A4          ; |107| 
    1235                    
    1236 0000030c 01a980f9             SUB     .L1     A12,A10,A3        ; |102| 
    1237 00000310 02280a5b  ||         CMPEQ   .L2     B10,0,B4          ; |107| 
    1238 00000314 0400002a  ||         ZERO    .S2     B8                ; |107| 
    1239                    
    1240                    $C$DW$125       .dwtag  DW_TAG_TI_branch
    1241                            .dwattr $C$DW$125, DW_AT_low_pc(0x00)
    1242                            .dwattr $C$DW$125, DW_AT_name("VLIB_formula_add_test")
    1243                            .dwattr $C$DW$125, DW_AT_TI_call
    1244                    
    1245 00000318 10000013!            CALLP   .S2     VLIB_formula_add_test,B3
    1246 00000320 03109ffb  ||         OR      .L2X    A4,B4,B6          ; |107| 
    1247 00000324     25c0  ||         ADD     .L1     1,A3,A4           ; |102| 
    1248 00000326     1a77  ||         ZERO    .D2     B4                ; |107| 
    1249 0000032c     0312  ||         ZERO    .S1     A6                ; |107| 
    1250 00000328 042c18f1  ||         MV      .D1X    B11,A8            ; |107| 
    1251                    
    1252 0000032e           $C$RL21:   ; CALL OCCURS {VLIB_formula_add_test} {0}  ; |107| 
    1253 0000032e           $C$DW$L$VLIB_histogram_1D_Init_U8_d$16$E:
    1254                    ;** --------------------------------------------------------------------------*
    1255 0000032e           $C$DW$L$VLIB_histogram_1D_Init_U8_d$17$B:
    1256                    ;          EXCLUSIVE CPU CYCLES: 6
    1257                            .dwpsn  file "./../packages/ti/vlib/src/VLIB_histogram_1D_Init_U8/VLIB_histogram_1D_Init_U8_d.
    1258 0000032e     080a             B       .S1     $C$L4             ; |109| 
    1259                            .dwpsn  file "./../packages/ti/vlib/src/VLIB_histogram_1D_Init_U8/VLIB_histogram_1D_Init_U8_d.
    1260                    $C$DW$126       .dwtag  DW_TAG_TI_branch
    1261                            .dwattr $C$DW$126, DW_AT_low_pc(0x00)
    1262                            .dwattr $C$DW$126, DW_AT_name("free")
    1263                            .dwattr $C$DW$126, DW_AT_TI_call
    1264 00000330 00000010!            CALL    .S1     free              ; |117| 
    1265 00000334     8d4d             LDW     .D2T1   *+SP(32),A4       ; |117| 
TMS320C6x Assembler PC v7.4.2 Thu Mar 19 12:41:40 2015

Tools Copyright (c) 1996-2012 Texas Instruments Incorporated
package/lib/Regression/regress_d_c/./../packages/ti/vlib/src/VLIB_histogram_1D_Init_U8/VLIB_histogram_1D_Init_U8_d.se66 PAGE   24

    1266 00000336     4c6e             NOP             3
    1267                            .dwpsn  file "./../packages/ti/vlib/src/VLIB_histogram_1D_Init_U8/VLIB_histogram_1D_Init_U8_d.
    1268                               ; BRANCH OCCURS {$C$L4}           ; |109| 
    1269 00000338           $C$DW$L$VLIB_histogram_1D_Init_U8_d$17$E:
    1270                    ;** --------------------------------------------------------------------------*
    1271 00000338           $C$L3:    
    1272                            .dwpsn  file "./../packages/ti/vlib/src/VLIB_histogram_1D_Init_U8/VLIB_histogram_1D_Init_U8_d.
    1273 00000338           $C$DW$L$VLIB_histogram_1D_Init_U8_d$18$B:
    1274                    ;          EXCLUSIVE CPU CYCLES: 4
    1275                    ;**     -----------------------g8:
    1276                    ;** 111 -----------------------    sprintf(K$73, (const char *)"numBins=%d, maxSize=%d", (*U$12).numBi
    1277                    ;** 113 -----------------------    VLIB_skip_test(K$73);
    1278                            .dwpsn  file "./../packages/ti/vlib/src/VLIB_histogram_1D_Init_U8/VLIB_histogram_1D_Init_U8_d.
    1279 00000338 023c22f6             STW     .D2T2   B4,*+SP(4)        ; |111| 
    1280 00000340 01830162             ADDKPC  .S2     $C$RL22,B3,0      ; |111| 
    1281 00000344     cc45             STW     .D2T1   A4,*+SP(8)        ; |111| 
    1282                    
    1283 00000346     ec35             STW     .D2T1   A3,*+SP(12)       ; |111| 
    1284 00000348 022c1fd8  ||         MV      .L1X    B11,A4            ; |111| 
    1285                    
    1286                    $C$RL22:   ; CALL OCCURS {sprintf} {0}       ; |111| 
    1287                    $C$DW$L$VLIB_histogram_1D_Init_U8_d$18$E:
    1288                    ;** --------------------------------------------------------------------------*
    1289                    $C$DW$L$VLIB_histogram_1D_Init_U8_d$19$B:
    1290                    ;          EXCLUSIVE CPU CYCLES: 11
    1291                    $C$DW$127       .dwtag  DW_TAG_TI_branch
    1292                            .dwattr $C$DW$127, DW_AT_low_pc(0x00)
    1293                            .dwattr $C$DW$127, DW_AT_name("VLIB_skip_test")
    1294                            .dwattr $C$DW$127, DW_AT_TI_call
    1295                    
    1296 0000034c 10000013!            CALLP   .S2     VLIB_skip_test,B3
    1297 00000350 022c1fd8  ||         MV      .L1X    B11,A4            ; |113| 
    1298                    
    1299                            .dwpsn  file "./../packages/ti/vlib/src/VLIB_histogram_1D_Init_U8/VLIB_histogram_1D_Init_U8_d.
    1300 00000354           $C$RL23:   ; CALL OCCURS {VLIB_skip_test} {0}  ; |113| 
    1301                            .dwpsn  file "./../packages/ti/vlib/src/VLIB_histogram_1D_Init_U8/VLIB_histogram_1D_Init_U8_d.
    1302                    $C$DW$128       .dwtag  DW_TAG_TI_branch
    1303                            .dwattr $C$DW$128, DW_AT_low_pc(0x00)
    1304                            .dwattr $C$DW$128, DW_AT_name("free")
    1305                            .dwattr $C$DW$128, DW_AT_TI_call
    1306 00000354 00000010!            CALL    .S1     free              ; |117| 
    1307 00000358     8d4d             LDW     .D2T1   *+SP(32),A4       ; |117| 
    1308 0000035a     4c6e             NOP             3
    1309 00000360           $C$DW$L$VLIB_histogram_1D_Init_U8_d$19$E:
    1310                    ;** --------------------------------------------------------------------------*
    1311 00000360           $C$L4:    
    1312                            .dwpsn  file "./../packages/ti/vlib/src/VLIB_histogram_1D_Init_U8/VLIB_histogram_1D_Init_U8_d.
    1313 00000360           $C$DW$L$VLIB_histogram_1D_Init_U8_d$20$B:
    1314                    ;          EXCLUSIVE CPU CYCLES: 1
    1315                    ;**     -----------------------g9:
    1316                    ;** 117 -----------------------    free((void *)histArray_cn);
    1317                    ;** 118 -----------------------    VLIB_free((void *)histArray);
    1318                    ;** 119 -----------------------    VLIB_free((void *)binEdges);
    1319                    ;** 51  -----------------------    U$11 += 20;
    1320                    ;** 51  -----------------------    if ( test_cases > (++tpi) ) goto g3;
TMS320C6x Assembler PC v7.4.2 Thu Mar 19 12:41:40 2015

Tools Copyright (c) 1996-2012 Texas Instruments Incorporated
package/lib/Regression/regress_d_c/./../packages/ti/vlib/src/VLIB_histogram_1D_Init_U8/VLIB_histogram_1D_Init_U8_d.se66 PAGE   25

    1321                            .dwpsn  file "./../packages/ti/vlib/src/VLIB_histogram_1D_Init_U8/VLIB_histogram_1D_Init_U8_d.
    1322 00000360 01810162             ADDKPC  .S2     $C$RL24,B3,0      ; |117| 
    1323                    $C$RL24:   ; CALL OCCURS {free} {0}          ; |117| 
    1324                    $C$DW$L$VLIB_histogram_1D_Init_U8_d$20$E:
    1325                    ;** --------------------------------------------------------------------------*
    1326                    $C$DW$L$VLIB_histogram_1D_Init_U8_d$21$B:
    1327                    ;          EXCLUSIVE CPU CYCLES: 12
    1328                    $C$DW$129       .dwtag  DW_TAG_TI_branch
    1329                            .dwattr $C$DW$129, DW_AT_low_pc(0x00)
    1330                            .dwattr $C$DW$129, DW_AT_name("VLIB_free")
    1331                            .dwattr $C$DW$129, DW_AT_TI_call
    1332                    
    1333 00000364 10000013!            CALLP   .S2     VLIB_free,B3
    1334 00000368 023ce2e4  ||         LDW     .D2T1   *+SP(28),A4       ; |118| 
    1335                    
    1336                            .dwpsn  file "./../packages/ti/vlib/src/VLIB_histogram_1D_Init_U8/VLIB_histogram_1D_Init_U8_d.
    1337                    $C$RL25:   ; CALL OCCURS {VLIB_free} {0}     ; |118| 
    1338                    $C$DW$130       .dwtag  DW_TAG_TI_branch
    1339                            .dwattr $C$DW$130, DW_AT_low_pc(0x00)
    1340                            .dwattr $C$DW$130, DW_AT_name("VLIB_free")
    1341                            .dwattr $C$DW$130, DW_AT_TI_call
    1342                    
    1343 0000036c 10000013!            CALLP   .S2     VLIB_free,B3
    1344 00000370 023cc2e4  ||         LDW     .D2T1   *+SP(24),A4       ; |119| 
    1345                    
    1346                            .dwpsn  file "./../packages/ti/vlib/src/VLIB_histogram_1D_Init_U8/VLIB_histogram_1D_Init_U8_d.
    1347 00000374           $C$RL26:   ; CALL OCCURS {VLIB_free} {0}     ; |119| 
    1348 00000374           $C$DW$L$VLIB_histogram_1D_Init_U8_d$21$E:
    1349                    ;** --------------------------------------------------------------------------*
    1350 00000374           $C$DW$L$VLIB_histogram_1D_Init_U8_d$22$B:
    1351                    ;          EXCLUSIVE CPU CYCLES: 14
    1352 00000374 01800028!            MVKL    .S1     test_cases,A3
    1353 00000378 01800068!            MVKH    .S1     test_cases,A3
    1354                            .dwpsn  file "./../packages/ti/vlib/src/VLIB_histogram_1D_Init_U8/VLIB_histogram_1D_Init_U8_d.
    1355 0000037c 018c0264             LDW     .D1T1   *A3,A3            ; |51| 
    1356 00000380 06800a52             ADDK    .S2     20,B13            ; |51| 
    1357 00000384 07382058             ADD     .L1     1,A14,A14         ; |51| 
    1358 00000388 00002000             NOP             2
    1359 0000038c 003868f8             CMPGT   .L1     A3,A14,A0         ; |51| 
    1360 00000390 cf3aa120     [ A0]   BNOP    .S1     $C$L1,5           ; |51| 
    1361                               ; BRANCHCC OCCURS {$C$L1}         ; |51| 
    1362 00000394           $C$DW$L$VLIB_histogram_1D_Init_U8_d$22$E:
    1363                    ;** --------------------------------------------------------------------------*
    1364 00000394           $C$L5:    
    1365                    ;          EXCLUSIVE CPU CYCLES: 8
    1366                    ;**     -----------------------g10:
    1367                    ;** 123 -----------------------    VLIB_profile_cycle_report(2, "N = binEdges[numBins-1] - binEdges[0]
    1368                    ;** 158 -----------------------    printf((const char *)"---------------------------------------------
    1369                    ;** 165 -----------------------    VLIB_stack_memory();  // [19]
    1370                    ;**     -----------------------    return;
    1371 00000394 0200002a!            MVKL    .S2     $C$SL5+0,B4
    1372                    
    1373 00000398 03000029!            MVKL    .S1     $C$SL4+0,A6
    1374 0000039c 0200006a! ||         MVKH    .S2     $C$SL5+0,B4
    1375                    
TMS320C6x Assembler PC v7.4.2 Thu Mar 19 12:41:40 2015

Tools Copyright (c) 1996-2012 Texas Instruments Incorporated
package/lib/Regression/regress_d_c/./../packages/ti/vlib/src/VLIB_histogram_1D_Init_U8/VLIB_histogram_1D_Init_U8_d.se66 PAGE   26

    1376                    $C$DW$131       .dwtag  DW_TAG_TI_branch
    1377                            .dwattr $C$DW$131, DW_AT_low_pc(0x00)
    1378                            .dwattr $C$DW$131, DW_AT_name("VLIB_profile_cycle_report")
    1379                            .dwattr $C$DW$131, DW_AT_TI_call
    1380                    
    1381 000003a0 10000013!            CALLP   .S2     VLIB_profile_cycle_report,B3
    1382 000003a4 03000069! ||         MVKH    .S1     $C$SL4+0,A6
    1383 000003a8 0208a358  ||         MVK     .L1     0x2,A4            ; |123| 
    1384                    
    1385                            .dwpsn  file "./../packages/ti/vlib/src/VLIB_histogram_1D_Init_U8/VLIB_histogram_1D_Init_U8_d.
    1386 000003ac           $C$RL27:   ; CALL OCCURS {VLIB_profile_cycle_report} {0}  ; |123| 
    1387                    ;** --------------------------------------------------------------------------*
    1388                    ;          EXCLUSIVE CPU CYCLES: 14
    1389 000003ac 0200002a!            MVKL    .S2     $C$SL6+0,B4
    1390 000003b0 0200006a!            MVKH    .S2     $C$SL6+0,B4
    1391                    $C$DW$132       .dwtag  DW_TAG_TI_branch
    1392                            .dwattr $C$DW$132, DW_AT_low_pc(0x00)
    1393                            .dwattr $C$DW$132, DW_AT_name("printf")
    1394                            .dwattr $C$DW$132, DW_AT_TI_call
    1395                    
    1396 000003b4 10000013!            CALLP   .S2     printf,B3
    1397 000003b8 023c22f6  ||         STW     .D2T2   B4,*+SP(4)        ; |158| 
    1398                    
    1399                            .dwpsn  file ".\..\packages\ti\vlib\src\VLIB_histogram_1D_Init_U8\../common/VLIB_memory.h",lin
    1400                    $C$RL28:   ; CALL OCCURS {printf} {0}        ; |158| 
    1401                    $C$DW$133       .dwtag  DW_TAG_TI_branch
    1402                            .dwattr $C$DW$133, DW_AT_low_pc(0x00)
    1403                            .dwattr $C$DW$133, DW_AT_name("VLIB_stack_memory")
    1404                            .dwattr $C$DW$133, DW_AT_TI_call
    1405 000003bc 10000012!            CALLP   .S2     VLIB_stack_memory,B3
    1406                            .dwpsn  file ".\..\packages\ti\vlib\src\VLIB_histogram_1D_Init_U8\../common/VLIB_memory.h",lin
    1407 000003c0           $C$RL29:   ; CALL OCCURS {VLIB_stack_memory} {0}  ; |165| 
    1408                    ;** --------------------------------------------------------------------------*
    1409                    ;          EXCLUSIVE CPU CYCLES: 13
    1410                            .dwpsn  file "./../packages/ti/vlib/src/VLIB_histogram_1D_Init_U8/VLIB_histogram_1D_Init_U8_d.
    1411 000003c0 01bd52e6             LDW     .D2T2   *++SP(40),B3      ; |129| 
    1412                            .dwcfi  cfa_offset, 48
    1413                            .dwcfi  restore_reg, 19
    1414 000003c4     c677             LDDW    .D2T1   *++SP,A13:A12
    1415                            .dwcfi  cfa_offset, 40
    1416                            .dwcfi  restore_reg, 13
    1417                            .dwcfi  restore_reg, 12
    1418 000003c6     c777             LDDW    .D2T1   *++SP,A15:A14
    1419                            .dwcfi  cfa_offset, 32
    1420                            .dwcfi  restore_reg, 15
    1421                            .dwcfi  restore_reg, 14
    1422 000003c8     d577             LDDW    .D2T2   *++SP,B11:B10
    1423                            .dwcfi  cfa_offset, 24
    1424                            .dwcfi  restore_reg, 27
    1425                            .dwcfi  restore_reg, 26
    1426 000003ca     d677             LDDW    .D2T2   *++SP,B13:B12
    1427                            .dwcfi  cfa_offset, 16
    1428                            .dwcfi  restore_reg, 29
    1429                            .dwcfi  restore_reg, 28
    1430 000003cc     6577             LDW     .D2T1   *++SP(8),A10
TMS320C6x Assembler PC v7.4.2 Thu Mar 19 12:41:40 2015

Tools Copyright (c) 1996-2012 Texas Instruments Incorporated
package/lib/Regression/regress_d_c/./../packages/ti/vlib/src/VLIB_histogram_1D_Init_U8/VLIB_histogram_1D_Init_U8_d.se66 PAGE   27

    1431                            .dwcfi  cfa_offset, 8
    1432                            .dwcfi  restore_reg, 10
    1433 000003ce     65f7             LDW     .D2T1   *++SP(8),A11      ; |129| 
    1434                            .dwcfi  cfa_offset, 0
    1435                            .dwcfi  restore_reg, 11
    1436                            .dwcfi  cfa_offset, 0
    1437                    $C$DW$134       .dwtag  DW_TAG_TI_branch
    1438                            .dwattr $C$DW$134, DW_AT_low_pc(0x00)
    1439                            .dwattr $C$DW$134, DW_AT_TI_return
    1440 000003d0 008ca362             RETNOP  .S2     B3,5
    1441                               ; BRANCH OCCURS {B3}  
    1442                    
    1443                    $C$DW$135       .dwtag  DW_TAG_TI_loop
    1444                            .dwattr $C$DW$135, DW_AT_name("c:\nightlybuilds\vlib\ti\vlib\vlib\examples\package/lib/Regress
    1445                            .dwattr $C$DW$135, DW_AT_TI_begin_file("./../packages/ti/vlib/src/VLIB_histogram_1D_Init_U8/VL
    1446                            .dwattr $C$DW$135, DW_AT_TI_begin_line(0x33)
    1447                            .dwattr $C$DW$135, DW_AT_TI_end_line(0x78)
    1448                    $C$DW$136       .dwtag  DW_TAG_TI_loop_range
    1449                            .dwattr $C$DW$136, DW_AT_low_pc($C$DW$L$VLIB_histogram_1D_Init_U8_d$5$B)
    1450                            .dwattr $C$DW$136, DW_AT_high_pc($C$DW$L$VLIB_histogram_1D_Init_U8_d$5$E)
    1451                    $C$DW$137       .dwtag  DW_TAG_TI_loop_range
    1452                            .dwattr $C$DW$137, DW_AT_low_pc($C$DW$L$VLIB_histogram_1D_Init_U8_d$18$B)
    1453                            .dwattr $C$DW$137, DW_AT_high_pc($C$DW$L$VLIB_histogram_1D_Init_U8_d$18$E)
    1454                    $C$DW$138       .dwtag  DW_TAG_TI_loop_range
    1455                            .dwattr $C$DW$138, DW_AT_low_pc($C$DW$L$VLIB_histogram_1D_Init_U8_d$13$B)
    1456                            .dwattr $C$DW$138, DW_AT_high_pc($C$DW$L$VLIB_histogram_1D_Init_U8_d$13$E)
    1457                    $C$DW$139       .dwtag  DW_TAG_TI_loop_range
    1458                            .dwattr $C$DW$139, DW_AT_low_pc($C$DW$L$VLIB_histogram_1D_Init_U8_d$6$B)
    1459                            .dwattr $C$DW$139, DW_AT_high_pc($C$DW$L$VLIB_histogram_1D_Init_U8_d$6$E)
    1460                    $C$DW$140       .dwtag  DW_TAG_TI_loop_range
    1461                            .dwattr $C$DW$140, DW_AT_low_pc($C$DW$L$VLIB_histogram_1D_Init_U8_d$7$B)
    1462                            .dwattr $C$DW$140, DW_AT_high_pc($C$DW$L$VLIB_histogram_1D_Init_U8_d$7$E)
    1463                    $C$DW$141       .dwtag  DW_TAG_TI_loop_range
    1464                            .dwattr $C$DW$141, DW_AT_low_pc($C$DW$L$VLIB_histogram_1D_Init_U8_d$8$B)
    1465                            .dwattr $C$DW$141, DW_AT_high_pc($C$DW$L$VLIB_histogram_1D_Init_U8_d$8$E)
    1466                    $C$DW$142       .dwtag  DW_TAG_TI_loop_range
    1467                            .dwattr $C$DW$142, DW_AT_low_pc($C$DW$L$VLIB_histogram_1D_Init_U8_d$9$B)
    1468                            .dwattr $C$DW$142, DW_AT_high_pc($C$DW$L$VLIB_histogram_1D_Init_U8_d$9$E)
    1469                    $C$DW$143       .dwtag  DW_TAG_TI_loop_range
    1470                            .dwattr $C$DW$143, DW_AT_low_pc($C$DW$L$VLIB_histogram_1D_Init_U8_d$10$B)
    1471                            .dwattr $C$DW$143, DW_AT_high_pc($C$DW$L$VLIB_histogram_1D_Init_U8_d$10$E)
    1472                    $C$DW$144       .dwtag  DW_TAG_TI_loop_range
    1473                            .dwattr $C$DW$144, DW_AT_low_pc($C$DW$L$VLIB_histogram_1D_Init_U8_d$11$B)
    1474                            .dwattr $C$DW$144, DW_AT_high_pc($C$DW$L$VLIB_histogram_1D_Init_U8_d$11$E)
    1475                    $C$DW$145       .dwtag  DW_TAG_TI_loop_range
    1476                            .dwattr $C$DW$145, DW_AT_low_pc($C$DW$L$VLIB_histogram_1D_Init_U8_d$12$B)
    1477                            .dwattr $C$DW$145, DW_AT_high_pc($C$DW$L$VLIB_histogram_1D_Init_U8_d$12$E)
    1478                    $C$DW$146       .dwtag  DW_TAG_TI_loop_range
    1479                            .dwattr $C$DW$146, DW_AT_low_pc($C$DW$L$VLIB_histogram_1D_Init_U8_d$14$B)
    1480                            .dwattr $C$DW$146, DW_AT_high_pc($C$DW$L$VLIB_histogram_1D_Init_U8_d$14$E)
    1481                    $C$DW$147       .dwtag  DW_TAG_TI_loop_range
    1482                            .dwattr $C$DW$147, DW_AT_low_pc($C$DW$L$VLIB_histogram_1D_Init_U8_d$15$B)
    1483                            .dwattr $C$DW$147, DW_AT_high_pc($C$DW$L$VLIB_histogram_1D_Init_U8_d$15$E)
    1484                    $C$DW$148       .dwtag  DW_TAG_TI_loop_range
    1485                            .dwattr $C$DW$148, DW_AT_low_pc($C$DW$L$VLIB_histogram_1D_Init_U8_d$16$B)
TMS320C6x Assembler PC v7.4.2 Thu Mar 19 12:41:40 2015

Tools Copyright (c) 1996-2012 Texas Instruments Incorporated
package/lib/Regression/regress_d_c/./../packages/ti/vlib/src/VLIB_histogram_1D_Init_U8/VLIB_histogram_1D_Init_U8_d.se66 PAGE   28

    1486                            .dwattr $C$DW$148, DW_AT_high_pc($C$DW$L$VLIB_histogram_1D_Init_U8_d$16$E)
    1487                    $C$DW$149       .dwtag  DW_TAG_TI_loop_range
    1488                            .dwattr $C$DW$149, DW_AT_low_pc($C$DW$L$VLIB_histogram_1D_Init_U8_d$17$B)
    1489                            .dwattr $C$DW$149, DW_AT_high_pc($C$DW$L$VLIB_histogram_1D_Init_U8_d$17$E)
    1490                    $C$DW$150       .dwtag  DW_TAG_TI_loop_range
    1491                            .dwattr $C$DW$150, DW_AT_low_pc($C$DW$L$VLIB_histogram_1D_Init_U8_d$19$B)
    1492                            .dwattr $C$DW$150, DW_AT_high_pc($C$DW$L$VLIB_histogram_1D_Init_U8_d$19$E)
    1493                    $C$DW$151       .dwtag  DW_TAG_TI_loop_range
    1494                            .dwattr $C$DW$151, DW_AT_low_pc($C$DW$L$VLIB_histogram_1D_Init_U8_d$20$B)
    1495                            .dwattr $C$DW$151, DW_AT_high_pc($C$DW$L$VLIB_histogram_1D_Init_U8_d$20$E)
    1496                    $C$DW$152       .dwtag  DW_TAG_TI_loop_range
    1497                            .dwattr $C$DW$152, DW_AT_low_pc($C$DW$L$VLIB_histogram_1D_Init_U8_d$21$B)
    1498                            .dwattr $C$DW$152, DW_AT_high_pc($C$DW$L$VLIB_histogram_1D_Init_U8_d$21$E)
    1499                    $C$DW$153       .dwtag  DW_TAG_TI_loop_range
    1500                            .dwattr $C$DW$153, DW_AT_low_pc($C$DW$L$VLIB_histogram_1D_Init_U8_d$22$B)
    1501                            .dwattr $C$DW$153, DW_AT_high_pc($C$DW$L$VLIB_histogram_1D_Init_U8_d$22$E)
    1502                            .dwendtag $C$DW$135
    1503                    
    1504                            .dwattr $C$DW$79, DW_AT_TI_end_file("./../packages/ti/vlib/src/VLIB_histogram_1D_Init_U8/VLIB_
    1505                            .dwattr $C$DW$79, DW_AT_TI_end_line(0x81)
    1506                            .dwattr $C$DW$79, DW_AT_TI_end_column(0x01)
    1507                            .dwendentry
    1508                            .dwendtag $C$DW$79
    1509                    
    1510                    ;; Inlined function references:
    1511                    ;; [ 15] VLIB_profile_start
    1512                    ;; [ 16] VLIB_profile_stop
    1513                    ;; [ 19] VLIB_kernel_memory
    1514                    ;******************************************************************************
    1515                    ;* STRINGS                                                                    *
    1516                    ;******************************************************************************
    1517 00000000                   .sect   ".const:.string"
    1518 00000000 00000056  $C$SL1: .string "VLIB_histogram_1D_Init_U8",0
         00000001 0000004C 
         00000002 00000049 
         00000003 00000042 
         00000004 0000005F 
         00000005 00000068 
         00000006 00000069 
         00000007 00000073 
         00000008 00000074 
         00000009 0000006F 
         0000000a 00000067 
         0000000b 00000072 
         0000000c 00000061 
         0000000d 0000006D 
         0000000e 0000005F 
         0000000f 00000031 
         00000010 00000044 
         00000011 0000005F 
         00000012 00000049 
         00000013 0000006E 
         00000014 00000069 
         00000015 00000074 
         00000016 0000005F 
TMS320C6x Assembler PC v7.4.2 Thu Mar 19 12:41:40 2015

Tools Copyright (c) 1996-2012 Texas Instruments Incorporated
package/lib/Regression/regress_d_c/./../packages/ti/vlib/src/VLIB_histogram_1D_Init_U8/VLIB_histogram_1D_Init_U8_d.se66 PAGE   29

         00000017 00000055 
         00000018 00000038 
         00000019 00000000 
    1519 0000001a 00000025  $C$SL2: .string "%s generated input | Opt results compared to NatC results |"
         0000001b 00000073 
         0000001c 00000020 
         0000001d 00000067 
         0000001e 00000065 
         0000001f 0000006E 
         00000020 00000065 
         00000021 00000072 
         00000022 00000061 
         00000023 00000074 
         00000024 00000065 
         00000025 00000064 
         00000026 00000020 
         00000027 00000069 
         00000028 0000006E 
         00000029 00000070 
         0000002a 00000075 
         0000002b 00000074 
         0000002c 00000020 
         0000002d 0000007C 
         0000002e 00000020 
         0000002f 0000004F 
         00000030 00000070 
         00000031 00000074 
         00000032 00000020 
         00000033 00000072 
         00000034 00000065 
         00000035 00000073 
         00000036 00000075 
         00000037 0000006C 
         00000038 00000074 
         00000039 00000073 
         0000003a 00000020 
         0000003b 00000063 
         0000003c 0000006F 
         0000003d 0000006D 
         0000003e 00000070 
         0000003f 00000061 
         00000040 00000072 
         00000041 00000065 
         00000042 00000064 
         00000043 00000020 
         00000044 00000074 
         00000045 0000006F 
         00000046 00000020 
         00000047 0000004E 
         00000048 00000061 
         00000049 00000074 
         0000004a 00000043 
         0000004b 00000020 
         0000004c 00000072 
         0000004d 00000065 
TMS320C6x Assembler PC v7.4.2 Thu Mar 19 12:41:40 2015

Tools Copyright (c) 1996-2012 Texas Instruments Incorporated
package/lib/Regression/regress_d_c/./../packages/ti/vlib/src/VLIB_histogram_1D_Init_U8/VLIB_histogram_1D_Init_U8_d.se66 PAGE   30

         0000004e 00000073 
         0000004f 00000075 
         00000050 0000006C 
         00000051 00000074 
         00000052 00000073 
         00000053 00000020 
         00000054 0000007C 
    1520 00000055 00000020          .string " numBins=%d, maxSize=%d",0
         00000056 0000006E 
         00000057 00000075 
         00000058 0000006D 
         00000059 00000042 
         0000005a 00000069 
         0000005b 0000006E 
         0000005c 00000073 
         0000005d 0000003D 
         0000005e 00000025 
         0000005f 00000064 
         00000060 0000002C 
         00000061 00000020 
         00000062 0000006D 
         00000063 00000061 
         00000064 00000078 
         00000065 00000053 
         00000066 00000069 
         00000067 0000007A 
         00000068 00000065 
         00000069 0000003D 
         0000006a 00000025 
         0000006b 00000064 
         0000006c 00000000 
    1521 0000006d 0000006E  $C$SL3: .string "numBins=%d, maxSize=%d",0
         0000006e 00000075 
         0000006f 0000006D 
         00000070 00000042 
         00000071 00000069 
         00000072 0000006E 
         00000073 00000073 
         00000074 0000003D 
         00000075 00000025 
         00000076 00000064 
         00000077 0000002C 
         00000078 00000020 
         00000079 0000006D 
         0000007a 00000061 
         0000007b 00000078 
         0000007c 00000053 
         0000007d 00000069 
         0000007e 0000007A 
         0000007f 00000065 
         00000080 0000003D 
         00000081 00000025 
         00000082 00000064 
         00000083 00000000 
    1522 00000084 00000062  $C$SL4: .string "binEdges[numBins-1] - binEdges[0] + 1",0
TMS320C6x Assembler PC v7.4.2 Thu Mar 19 12:41:40 2015

Tools Copyright (c) 1996-2012 Texas Instruments Incorporated
package/lib/Regression/regress_d_c/./../packages/ti/vlib/src/VLIB_histogram_1D_Init_U8/VLIB_histogram_1D_Init_U8_d.se66 PAGE   31

         00000085 00000069 
         00000086 0000006E 
         00000087 00000045 
         00000088 00000064 
         00000089 00000067 
         0000008a 00000065 
         0000008b 00000073 
         0000008c 0000005B 
         0000008d 0000006E 
         0000008e 00000075 
         0000008f 0000006D 
         00000090 00000042 
         00000091 00000069 
         00000092 0000006E 
         00000093 00000073 
         00000094 0000002D 
         00000095 00000031 
         00000096 0000005D 
         00000097 00000020 
         00000098 0000002D 
         00000099 00000020 
         0000009a 00000062 
         0000009b 00000069 
         0000009c 0000006E 
         0000009d 00000045 
         0000009e 00000064 
         0000009f 00000067 
         000000a0 00000065 
         000000a1 00000073 
         000000a2 0000005B 
         000000a3 00000030 
         000000a4 0000005D 
         000000a5 00000020 
         000000a6 0000002B 
         000000a7 00000020 
         000000a8 00000031 
         000000a9 00000000 
    1523 000000aa 0000004E  $C$SL5: .string "N = binEdges[numBins-1] - binEdges[0] + 1",0
         000000ab 00000020 
         000000ac 0000003D 
         000000ad 00000020 
         000000ae 00000062 
         000000af 00000069 
         000000b0 0000006E 
         000000b1 00000045 
         000000b2 00000064 
         000000b3 00000067 
         000000b4 00000065 
         000000b5 00000073 
         000000b6 0000005B 
         000000b7 0000006E 
         000000b8 00000075 
         000000b9 0000006D 
         000000ba 00000042 
         000000bb 00000069 
TMS320C6x Assembler PC v7.4.2 Thu Mar 19 12:41:40 2015

Tools Copyright (c) 1996-2012 Texas Instruments Incorporated
package/lib/Regression/regress_d_c/./../packages/ti/vlib/src/VLIB_histogram_1D_Init_U8/VLIB_histogram_1D_Init_U8_d.se66 PAGE   32

         000000bc 0000006E 
         000000bd 00000073 
         000000be 0000002D 
         000000bf 00000031 
         000000c0 0000005D 
         000000c1 00000020 
         000000c2 0000002D 
         000000c3 00000020 
         000000c4 00000062 
         000000c5 00000069 
         000000c6 0000006E 
         000000c7 00000045 
         000000c8 00000064 
         000000c9 00000067 
         000000ca 00000065 
         000000cb 00000073 
         000000cc 0000005B 
         000000cd 00000030 
         000000ce 0000005D 
         000000cf 00000020 
         000000d0 0000002B 
         000000d1 00000020 
         000000d2 00000031 
         000000d3 00000000 
    1524 000000d4 0000002D  $C$SL6: .string "-----------------------------------------------------------"
         000000d5 0000002D 
         000000d6 0000002D 
         000000d7 0000002D 
         000000d8 0000002D 
         000000d9 0000002D 
         000000da 0000002D 
         000000db 0000002D 
         000000dc 0000002D 
         000000dd 0000002D 
         000000de 0000002D 
         000000df 0000002D 
         000000e0 0000002D 
         000000e1 0000002D 
         000000e2 0000002D 
         000000e3 0000002D 
         000000e4 0000002D 
         000000e5 0000002D 
         000000e6 0000002D 
         000000e7 0000002D 
         000000e8 0000002D 
         000000e9 0000002D 
         000000ea 0000002D 
         000000eb 0000002D 
         000000ec 0000002D 
         000000ed 0000002D 
         000000ee 0000002D 
         000000ef 0000002D 
         000000f0 0000002D 
         000000f1 0000002D 
         000000f2 0000002D 
TMS320C6x Assembler PC v7.4.2 Thu Mar 19 12:41:40 2015

Tools Copyright (c) 1996-2012 Texas Instruments Incorporated
package/lib/Regression/regress_d_c/./../packages/ti/vlib/src/VLIB_histogram_1D_Init_U8/VLIB_histogram_1D_Init_U8_d.se66 PAGE   33

         000000f3 0000002D 
         000000f4 0000002D 
         000000f5 0000002D 
         000000f6 0000002D 
         000000f7 0000002D 
         000000f8 0000002D 
         000000f9 0000002D 
         000000fa 0000002D 
         000000fb 0000002D 
         000000fc 0000002D 
         000000fd 0000002D 
         000000fe 0000002D 
         000000ff 0000002D 
         00000100 0000002D 
         00000101 0000002D 
         00000102 0000002D 
         00000103 0000002D 
         00000104 0000002D 
         00000105 0000002D 
         00000106 0000002D 
         00000107 0000002D 
         00000108 0000002D 
         00000109 0000002D 
         0000010a 0000002D 
         0000010b 0000002D 
         0000010c 0000002D 
         0000010d 0000002D 
         0000010e 0000002D 
    1525 0000010f 0000002D          .string "-----------------------------------------------------------"
         00000110 0000002D 
         00000111 0000002D 
         00000112 0000002D 
         00000113 0000002D 
         00000114 0000002D 
         00000115 0000002D 
         00000116 0000002D 
         00000117 0000002D 
         00000118 0000002D 
         00000119 0000002D 
         0000011a 0000002D 
         0000011b 0000002D 
         0000011c 0000002D 
         0000011d 0000002D 
         0000011e 0000002D 
         0000011f 0000002D 
         00000120 0000002D 
         00000121 0000002D 
         00000122 0000002D 
         00000123 0000002D 
         00000124 0000002D 
         00000125 0000002D 
         00000126 0000002D 
         00000127 0000002D 
         00000128 0000002D 
         00000129 0000002D 
TMS320C6x Assembler PC v7.4.2 Thu Mar 19 12:41:40 2015

Tools Copyright (c) 1996-2012 Texas Instruments Incorporated
package/lib/Regression/regress_d_c/./../packages/ti/vlib/src/VLIB_histogram_1D_Init_U8/VLIB_histogram_1D_Init_U8_d.se66 PAGE   34

         0000012a 0000002D 
         0000012b 0000002D 
         0000012c 0000002D 
         0000012d 0000002D 
         0000012e 0000002D 
         0000012f 0000002D 
         00000130 0000002D 
         00000131 0000002D 
         00000132 0000002D 
         00000133 0000002D 
         00000134 0000002D 
         00000135 0000002D 
         00000136 0000002D 
         00000137 0000002D 
         00000138 0000002D 
         00000139 0000002D 
         0000013a 0000002D 
         0000013b 0000002D 
         0000013c 0000002D 
         0000013d 0000002D 
         0000013e 0000002D 
         0000013f 0000002D 
         00000140 0000002D 
         00000141 0000002D 
         00000142 0000002D 
         00000143 0000002D 
         00000144 0000002D 
         00000145 0000002D 
         00000146 0000002D 
         00000147 0000002D 
         00000148 0000002D 
         00000149 0000002D 
    1526 0000014a 0000002D          .string "-----------------------",10,0
         0000014b 0000002D 
         0000014c 0000002D 
         0000014d 0000002D 
         0000014e 0000002D 
         0000014f 0000002D 
         00000150 0000002D 
         00000151 0000002D 
         00000152 0000002D 
         00000153 0000002D 
         00000154 0000002D 
         00000155 0000002D 
         00000156 0000002D 
         00000157 0000002D 
         00000158 0000002D 
         00000159 0000002D 
         0000015a 0000002D 
         0000015b 0000002D 
         0000015c 0000002D 
         0000015d 0000002D 
         0000015e 0000002D 
         0000015f 0000002D 
         00000160 0000002D 
TMS320C6x Assembler PC v7.4.2 Thu Mar 19 12:41:40 2015

Tools Copyright (c) 1996-2012 Texas Instruments Incorporated
package/lib/Regression/regress_d_c/./../packages/ti/vlib/src/VLIB_histogram_1D_Init_U8/VLIB_histogram_1D_Init_U8_d.se66 PAGE   35

         00000161 0000000A 
         00000162 00000000 
    1527                    ;*****************************************************************************
    1528                    ;* UNDEFINED EXTERNAL REFERENCES                                             *
    1529                    ;*****************************************************************************
    1530                            .global printf
    1531                            .global sprintf
    1532                            .global memset
    1533                            .global malloc
    1534                            .global free
    1535                            .global VLIB_cache_inval
    1536                            .global VLIB_profile_init
    1537                            .global VLIB_formula_add_test
    1538                            .global VLIB_skip_test
    1539                            .global VLIB_profile_cycle_report
    1540                            .global initStack
    1541                            .global setStackDepth
    1542                            .global getSP
    1543                            .global VLIB_stack_memory
    1544                            .global VLIB_compare_mem
    1545                            .global VLIB_fillBuffer
    1546                            .global VLIB_malloc
    1547                            .global VLIB_free
    1548                            .global VLIB_histogram_1D_Init_U8
    1549                            .global VLIB_histogram_1D_Init_U8_cn
    1550                            .global histogram_1D_Init_U8_getTestParams
    1551                            .global test_cases
    1552                            .global act_kernel
    1553                            .global desc
    1554                            .global testPatternString
    1555                            .global est_test
    1556                            .global beg_count
    1557                            .global end_count
    1558                            .global overhead
    1559                            .global cycles
    1560                    
    1561                    ;******************************************************************************
    1562                    ;* BUILD ATTRIBUTES                                                           *
    1563                    ;******************************************************************************
    1564                            .battr "TI", Tag_File, 1, Tag_Long_Precision_Bits(2)
    1565                            .battr "TI", Tag_File, 1, Tag_Bitfield_layout(2)
    1566                            .battr "TI", Tag_File, 1, Tag_ABI_enum_size(2)
    1567                            .battr "c6xabi", Tag_File, 1, Tag_ABI_wchar_t(1)
    1568                            .battr "c6xabi", Tag_File, 1, Tag_ABI_array_object_alignment(0)
    1569                            .battr "c6xabi", Tag_File, 1, Tag_ABI_array_object_align_expected(0)
    1570                            .battr "c6xabi", Tag_File, 1, Tag_ABI_PIC(0)
    1571                            .battr "c6xabi", Tag_File, 1, Tag_ABI_PID(0)
    1572                            .battr "c6xabi", Tag_File, 1, Tag_ABI_DSBT(0)
    1573                            .battr "c6xabi", Tag_File, 1, Tag_ABI_stack_align_needed(0)
    1574                            .battr "c6xabi", Tag_File, 1, Tag_ABI_stack_align_preserved(0)
    1575                            .battr "TI", Tag_File, 1, Tag_Tramps_Use_SOC(1)
    1576                    
    1577                    ;******************************************************************************
    1578                    ;* TYPE INFORMATION                                                           *
    1579                    ;******************************************************************************
TMS320C6x Assembler PC v7.4.2 Thu Mar 19 12:41:40 2015

Tools Copyright (c) 1996-2012 Texas Instruments Incorporated
package/lib/Regression/regress_d_c/./../packages/ti/vlib/src/VLIB_histogram_1D_Init_U8/VLIB_histogram_1D_Init_U8_d.se66 PAGE   36

    1580                    
    1581                    $C$DW$T$35      .dwtag  DW_TAG_enumeration_type
    1582                            .dwattr $C$DW$T$35, DW_AT_byte_size(0x04)
    1583                    $C$DW$154       .dwtag  DW_TAG_enumerator, DW_AT_name("VLIB_NO_ERROR"), DW_AT_const_value(0x00)
    1584                            .dwattr $C$DW$154, DW_AT_decl_file(".\..\packages\ti\vlib\src\VLIB_histogram_1D_Init_U8\..\com
    1585                            .dwattr $C$DW$154, DW_AT_decl_line(0x7a)
    1586                            .dwattr $C$DW$154, DW_AT_decl_column(0x05)
    1587                    $C$DW$155       .dwtag  DW_TAG_enumerator, DW_AT_name("VLIB_ERR_INPUT_INVALID"), DW_AT_const_value(0x0
    1588                            .dwattr $C$DW$155, DW_AT_decl_file(".\..\packages\ti\vlib\src\VLIB_histogram_1D_Init_U8\..\com
    1589                            .dwattr $C$DW$155, DW_AT_decl_line(0x7b)
    1590                            .dwattr $C$DW$155, DW_AT_decl_column(0x05)
    1591                    $C$DW$156       .dwtag  DW_TAG_enumerator, DW_AT_name("VLIB_ERR_INPUT_NEGATIVE"), DW_AT_const_value(0x
    1592                            .dwattr $C$DW$156, DW_AT_decl_file(".\..\packages\ti\vlib\src\VLIB_histogram_1D_Init_U8\..\com
    1593                            .dwattr $C$DW$156, DW_AT_decl_line(0x7c)
    1594                            .dwattr $C$DW$156, DW_AT_decl_column(0x05)
    1595                    $C$DW$157       .dwtag  DW_TAG_enumerator, DW_AT_name("VLIB_ERR_INPUT_EXCEEDED_RANGE"), DW_AT_const_va
    1596                            .dwattr $C$DW$157, DW_AT_decl_file(".\..\packages\ti\vlib\src\VLIB_histogram_1D_Init_U8\..\com
    1597                            .dwattr $C$DW$157, DW_AT_decl_line(0x7d)
    1598                            .dwattr $C$DW$157, DW_AT_decl_column(0x05)
    1599                    $C$DW$158       .dwtag  DW_TAG_enumerator, DW_AT_name("VLIB_ERR_MEMORY_EXCEEDED_BOUNDARY"), DW_AT_cons
    1600                            .dwattr $C$DW$158, DW_AT_decl_file(".\..\packages\ti\vlib\src\VLIB_histogram_1D_Init_U8\..\com
    1601                            .dwattr $C$DW$158, DW_AT_decl_line(0x7e)
    1602                            .dwattr $C$DW$158, DW_AT_decl_column(0x05)
    1603                    $C$DW$159       .dwtag  DW_TAG_enumerator, DW_AT_name("VLIB_ERR_MEMORY_ALLOCATION_FAILURE"), DW_AT_con
    1604                            .dwattr $C$DW$159, DW_AT_decl_file(".\..\packages\ti\vlib\src\VLIB_histogram_1D_Init_U8\..\com
    1605                            .dwattr $C$DW$159, DW_AT_decl_line(0x7f)
    1606                            .dwattr $C$DW$159, DW_AT_decl_column(0x05)
    1607                    $C$DW$160       .dwtag  DW_TAG_enumerator, DW_AT_name("VLIB_ERR_MEMORY_POINTER_NULL"), DW_AT_const_val
    1608                            .dwattr $C$DW$160, DW_AT_decl_file(".\..\packages\ti\vlib\src\VLIB_histogram_1D_Init_U8\..\com
    1609                            .dwattr $C$DW$160, DW_AT_decl_line(0x80)
    1610                            .dwattr $C$DW$160, DW_AT_decl_column(0x05)
    1611                    $C$DW$161       .dwtag  DW_TAG_enumerator, DW_AT_name("VLIB_ERR_DMA_FAILURE"), DW_AT_const_value(0x07)
    1612                            .dwattr $C$DW$161, DW_AT_decl_file(".\..\packages\ti\vlib\src\VLIB_histogram_1D_Init_U8\..\com
    1613                            .dwattr $C$DW$161, DW_AT_decl_line(0x81)
    1614                            .dwattr $C$DW$161, DW_AT_decl_column(0x05)
    1615                    $C$DW$162       .dwtag  DW_TAG_enumerator, DW_AT_name("VLIB_ERR_FILE_OPEN_FAILURE"), DW_AT_const_value
    1616                            .dwattr $C$DW$162, DW_AT_decl_file(".\..\packages\ti\vlib\src\VLIB_histogram_1D_Init_U8\..\com
    1617                            .dwattr $C$DW$162, DW_AT_decl_line(0x82)
    1618                            .dwattr $C$DW$162, DW_AT_decl_column(0x05)
    1619                    $C$DW$163       .dwtag  DW_TAG_enumerator, DW_AT_name("VLIB_ERR_FILE_READ_FAILURE"), DW_AT_const_value
    1620                            .dwattr $C$DW$163, DW_AT_decl_file(".\..\packages\ti\vlib\src\VLIB_histogram_1D_Init_U8\..\com
    1621                            .dwattr $C$DW$163, DW_AT_decl_line(0x83)
    1622                            .dwattr $C$DW$163, DW_AT_decl_column(0x05)
    1623                    $C$DW$164       .dwtag  DW_TAG_enumerator, DW_AT_name("VLIB_ERR_FILE_WRITE_FAILURE"), DW_AT_const_valu
    1624                            .dwattr $C$DW$164, DW_AT_decl_file(".\..\packages\ti\vlib\src\VLIB_histogram_1D_Init_U8\..\com
    1625                            .dwattr $C$DW$164, DW_AT_decl_line(0x84)
    1626                            .dwattr $C$DW$164, DW_AT_decl_column(0x05)
    1627                    $C$DW$165       .dwtag  DW_TAG_enumerator, DW_AT_name("VLIB_ERR_FILE_CLOSE_FAILURE"), DW_AT_const_valu
    1628                            .dwattr $C$DW$165, DW_AT_decl_file(".\..\packages\ti\vlib\src\VLIB_histogram_1D_Init_U8\..\com
    1629                            .dwattr $C$DW$165, DW_AT_decl_line(0x85)
    1630                            .dwattr $C$DW$165, DW_AT_decl_column(0x05)
    1631                    $C$DW$166       .dwtag  DW_TAG_enumerator, DW_AT_name("VLIB_ERR_FILE_FORMAT_FAILURE"), DW_AT_const_val
    1632                            .dwattr $C$DW$166, DW_AT_decl_file(".\..\packages\ti\vlib\src\VLIB_histogram_1D_Init_U8\..\com
    1633                            .dwattr $C$DW$166, DW_AT_decl_line(0x86)
    1634                            .dwattr $C$DW$166, DW_AT_decl_column(0x05)
TMS320C6x Assembler PC v7.4.2 Thu Mar 19 12:41:40 2015

Tools Copyright (c) 1996-2012 Texas Instruments Incorporated
package/lib/Regression/regress_d_c/./../packages/ti/vlib/src/VLIB_histogram_1D_Init_U8/VLIB_histogram_1D_Init_U8_d.se66 PAGE   37

    1635                    $C$DW$167       .dwtag  DW_TAG_enumerator, DW_AT_name("VLIB_WARNING_LOW_MEMORY"), DW_AT_const_value(0x
    1636                            .dwattr $C$DW$167, DW_AT_decl_file(".\..\packages\ti\vlib\src\VLIB_histogram_1D_Init_U8\..\com
    1637                            .dwattr $C$DW$167, DW_AT_decl_line(0x87)
    1638                            .dwattr $C$DW$167, DW_AT_decl_column(0x05)
    1639                    $C$DW$168       .dwtag  DW_TAG_enumerator, DW_AT_name("VLIB_ERR_NOT_IMPLEMENTED"), DW_AT_const_value(0
    1640                            .dwattr $C$DW$168, DW_AT_decl_file(".\..\packages\ti\vlib\src\VLIB_histogram_1D_Init_U8\..\com
    1641                            .dwattr $C$DW$168, DW_AT_decl_line(0x88)
    1642                            .dwattr $C$DW$168, DW_AT_decl_column(0x05)
    1643                    $C$DW$169       .dwtag  DW_TAG_enumerator, DW_AT_name("VLIB_ERROR_MAX"), DW_AT_const_value(0x0f)
    1644                            .dwattr $C$DW$169, DW_AT_decl_file(".\..\packages\ti\vlib\src\VLIB_histogram_1D_Init_U8\..\com
    1645                            .dwattr $C$DW$169, DW_AT_decl_line(0x89)
    1646                            .dwattr $C$DW$169, DW_AT_decl_column(0x05)
    1647                            .dwendtag $C$DW$T$35
    1648                    
    1649                            .dwattr $C$DW$T$35, DW_AT_decl_file(".\..\packages\ti\vlib\src\VLIB_histogram_1D_Init_U8\..\co
    1650                            .dwattr $C$DW$T$35, DW_AT_decl_line(0x79)
    1651                            .dwattr $C$DW$T$35, DW_AT_decl_column(0x0e)
    1652                    $C$DW$T$36      .dwtag  DW_TAG_typedef, DW_AT_name("VLIB_STATUS")
    1653                            .dwattr $C$DW$T$36, DW_AT_type(*$C$DW$T$35)
    1654                            .dwattr $C$DW$T$36, DW_AT_language(DW_LANG_C)
    1655                            .dwattr $C$DW$T$36, DW_AT_decl_file(".\..\packages\ti\vlib\src\VLIB_histogram_1D_Init_U8\..\co
    1656                            .dwattr $C$DW$T$36, DW_AT_decl_line(0x8a)
    1657                            .dwattr $C$DW$T$36, DW_AT_decl_column(0x03)
    1658                    
    1659                    $C$DW$T$37      .dwtag  DW_TAG_enumeration_type
    1660                            .dwattr $C$DW$T$37, DW_AT_byte_size(0x04)
    1661                    $C$DW$170       .dwtag  DW_TAG_enumerator, DW_AT_name("vlib_KERNEL_OPT"), DW_AT_const_value(0x00)
    1662                            .dwattr $C$DW$170, DW_AT_decl_file(".\..\packages\ti\vlib\src\VLIB_histogram_1D_Init_U8\../com
    1663                            .dwattr $C$DW$170, DW_AT_decl_line(0x6a)
    1664                            .dwattr $C$DW$170, DW_AT_decl_column(0x05)
    1665                    $C$DW$171       .dwtag  DW_TAG_enumerator, DW_AT_name("vlib_KERNEL_CN"), DW_AT_const_value(0x01)
    1666                            .dwattr $C$DW$171, DW_AT_decl_file(".\..\packages\ti\vlib\src\VLIB_histogram_1D_Init_U8\../com
    1667                            .dwattr $C$DW$171, DW_AT_decl_line(0x6b)
    1668                            .dwattr $C$DW$171, DW_AT_decl_column(0x05)
    1669                    $C$DW$172       .dwtag  DW_TAG_enumerator, DW_AT_name("vlib_KERNEL_CNT"), DW_AT_const_value(0x02)
    1670                            .dwattr $C$DW$172, DW_AT_decl_file(".\..\packages\ti\vlib\src\VLIB_histogram_1D_Init_U8\../com
    1671                            .dwattr $C$DW$172, DW_AT_decl_line(0x6c)
    1672                            .dwattr $C$DW$172, DW_AT_decl_column(0x05)
    1673                            .dwendtag $C$DW$T$37
    1674                    
    1675                            .dwattr $C$DW$T$37, DW_AT_decl_file(".\..\packages\ti\vlib\src\VLIB_histogram_1D_Init_U8\../co
    1676                            .dwattr $C$DW$T$37, DW_AT_decl_line(0x69)
    1677                            .dwattr $C$DW$T$37, DW_AT_decl_column(0x06)
    1678                    
    1679                    $C$DW$T$38      .dwtag  DW_TAG_enumeration_type
    1680                            .dwattr $C$DW$T$38, DW_AT_byte_size(0x04)
    1681                    $C$DW$173       .dwtag  DW_TAG_enumerator, DW_AT_name("vlib_KERNEL_FAIL"), DW_AT_const_value(0x00)
    1682                            .dwattr $C$DW$173, DW_AT_decl_file(".\..\packages\ti\vlib\src\VLIB_histogram_1D_Init_U8\../com
    1683                            .dwattr $C$DW$173, DW_AT_decl_line(0x72)
    1684                            .dwattr $C$DW$173, DW_AT_decl_column(0x05)
    1685                    $C$DW$174       .dwtag  DW_TAG_enumerator, DW_AT_name("vlib_KERNEL_PASS"), DW_AT_const_value(0x01)
    1686                            .dwattr $C$DW$174, DW_AT_decl_file(".\..\packages\ti\vlib\src\VLIB_histogram_1D_Init_U8\../com
    1687                            .dwattr $C$DW$174, DW_AT_decl_line(0x73)
    1688                            .dwattr $C$DW$174, DW_AT_decl_column(0x05)
    1689                            .dwendtag $C$DW$T$38
TMS320C6x Assembler PC v7.4.2 Thu Mar 19 12:41:40 2015

Tools Copyright (c) 1996-2012 Texas Instruments Incorporated
package/lib/Regression/regress_d_c/./../packages/ti/vlib/src/VLIB_histogram_1D_Init_U8/VLIB_histogram_1D_Init_U8_d.se66 PAGE   38

    1690                    
    1691                            .dwattr $C$DW$T$38, DW_AT_decl_file(".\..\packages\ti\vlib\src\VLIB_histogram_1D_Init_U8\../co
    1692                            .dwattr $C$DW$T$38, DW_AT_decl_line(0x71)
    1693                            .dwattr $C$DW$T$38, DW_AT_decl_column(0x06)
    1694                    
    1695                    $C$DW$T$22      .dwtag  DW_TAG_structure_type
    1696                            .dwattr $C$DW$T$22, DW_AT_byte_size(0x14)
    1697                    $C$DW$175       .dwtag  DW_TAG_member
    1698                            .dwattr $C$DW$175, DW_AT_type(*$C$DW$T$19)
    1699                            .dwattr $C$DW$175, DW_AT_name("testPattern")
    1700                            .dwattr $C$DW$175, DW_AT_TI_symbol_name("testPattern")
    1701                            .dwattr $C$DW$175, DW_AT_data_member_location[DW_OP_plus_uconst 0x0]
    1702                            .dwattr $C$DW$175, DW_AT_accessibility(DW_ACCESS_public)
    1703                            .dwattr $C$DW$175, DW_AT_decl_file(".\..\packages\ti\vlib\src\VLIB_histogram_1D_Init_U8\VLIB_h
    1704                            .dwattr $C$DW$175, DW_AT_decl_line(0x24)
    1705                            .dwattr $C$DW$175, DW_AT_decl_column(0x0e)
    1706                    $C$DW$176       .dwtag  DW_TAG_member
    1707                            .dwattr $C$DW$176, DW_AT_type(*$C$DW$T$20)
    1708                            .dwattr $C$DW$176, DW_AT_name("staticIn")
    1709                            .dwattr $C$DW$176, DW_AT_TI_symbol_name("staticIn")
    1710                            .dwattr $C$DW$176, DW_AT_data_member_location[DW_OP_plus_uconst 0x4]
    1711                            .dwattr $C$DW$176, DW_AT_accessibility(DW_ACCESS_public)
    1712                            .dwattr $C$DW$176, DW_AT_decl_file(".\..\packages\ti\vlib\src\VLIB_histogram_1D_Init_U8\VLIB_h
    1713                            .dwattr $C$DW$176, DW_AT_decl_line(0x25)
    1714                            .dwattr $C$DW$176, DW_AT_decl_column(0x0e)
    1715                    $C$DW$177       .dwtag  DW_TAG_member
    1716                            .dwattr $C$DW$177, DW_AT_type(*$C$DW$T$20)
    1717                            .dwattr $C$DW$177, DW_AT_name("staticOut")
    1718                            .dwattr $C$DW$177, DW_AT_TI_symbol_name("staticOut")
    1719                            .dwattr $C$DW$177, DW_AT_data_member_location[DW_OP_plus_uconst 0x8]
    1720                            .dwattr $C$DW$177, DW_AT_accessibility(DW_ACCESS_public)
    1721                            .dwattr $C$DW$177, DW_AT_decl_file(".\..\packages\ti\vlib\src\VLIB_histogram_1D_Init_U8\VLIB_h
    1722                            .dwattr $C$DW$177, DW_AT_decl_line(0x26)
    1723                            .dwattr $C$DW$177, DW_AT_decl_column(0x0e)
    1724                    $C$DW$178       .dwtag  DW_TAG_member
    1725                            .dwattr $C$DW$178, DW_AT_type(*$C$DW$T$21)
    1726                            .dwattr $C$DW$178, DW_AT_name("numBins")
    1727                            .dwattr $C$DW$178, DW_AT_TI_symbol_name("numBins")
    1728                            .dwattr $C$DW$178, DW_AT_data_member_location[DW_OP_plus_uconst 0xc]
    1729                            .dwattr $C$DW$178, DW_AT_accessibility(DW_ACCESS_public)
    1730                            .dwattr $C$DW$178, DW_AT_decl_file(".\..\packages\ti\vlib\src\VLIB_histogram_1D_Init_U8\VLIB_h
    1731                            .dwattr $C$DW$178, DW_AT_decl_line(0x27)
    1732                            .dwattr $C$DW$178, DW_AT_decl_column(0x0e)
    1733                    $C$DW$179       .dwtag  DW_TAG_member
    1734                            .dwattr $C$DW$179, DW_AT_type(*$C$DW$T$21)
    1735                            .dwattr $C$DW$179, DW_AT_name("maxSize")
    1736                            .dwattr $C$DW$179, DW_AT_TI_symbol_name("maxSize")
    1737                            .dwattr $C$DW$179, DW_AT_data_member_location[DW_OP_plus_uconst 0x10]
    1738                            .dwattr $C$DW$179, DW_AT_accessibility(DW_ACCESS_public)
    1739                            .dwattr $C$DW$179, DW_AT_decl_file(".\..\packages\ti\vlib\src\VLIB_histogram_1D_Init_U8\VLIB_h
    1740                            .dwattr $C$DW$179, DW_AT_decl_line(0x28)
    1741                            .dwattr $C$DW$179, DW_AT_decl_column(0x0e)
    1742                            .dwendtag $C$DW$T$22
    1743                    
    1744                            .dwattr $C$DW$T$22, DW_AT_decl_file(".\..\packages\ti\vlib\src\VLIB_histogram_1D_Init_U8\VLIB_
TMS320C6x Assembler PC v7.4.2 Thu Mar 19 12:41:40 2015

Tools Copyright (c) 1996-2012 Texas Instruments Incorporated
package/lib/Regression/regress_d_c/./../packages/ti/vlib/src/VLIB_histogram_1D_Init_U8/VLIB_histogram_1D_Init_U8_d.se66 PAGE   39

    1745                            .dwattr $C$DW$T$22, DW_AT_decl_line(0x23)
    1746                            .dwattr $C$DW$T$22, DW_AT_decl_column(0x10)
    1747                    $C$DW$T$39      .dwtag  DW_TAG_pointer_type
    1748                            .dwattr $C$DW$T$39, DW_AT_type(*$C$DW$T$22)
    1749                            .dwattr $C$DW$T$39, DW_AT_address_class(0x20)
    1750                    $C$DW$T$41      .dwtag  DW_TAG_typedef, DW_AT_name("histogram_1D_Init_U8_testParams_t")
    1751                            .dwattr $C$DW$T$41, DW_AT_type(*$C$DW$T$22)
    1752                            .dwattr $C$DW$T$41, DW_AT_language(DW_LANG_C)
    1753                            .dwattr $C$DW$T$41, DW_AT_decl_file(".\..\packages\ti\vlib\src\VLIB_histogram_1D_Init_U8\VLIB_
    1754                            .dwattr $C$DW$T$41, DW_AT_decl_line(0x29)
    1755                            .dwattr $C$DW$T$41, DW_AT_decl_column(0x03)
    1756                    $C$DW$T$42      .dwtag  DW_TAG_pointer_type
    1757                            .dwattr $C$DW$T$42, DW_AT_type(*$C$DW$T$41)
    1758                            .dwattr $C$DW$T$42, DW_AT_address_class(0x20)
    1759                    $C$DW$T$43      .dwtag  DW_TAG_pointer_type
    1760                            .dwattr $C$DW$T$43, DW_AT_type(*$C$DW$T$42)
    1761                            .dwattr $C$DW$T$43, DW_AT_address_class(0x20)
    1762                    
    1763                    $C$DW$T$24      .dwtag  DW_TAG_structure_type
    1764                            .dwattr $C$DW$T$24, DW_AT_byte_size(0x18)
    1765                    $C$DW$180       .dwtag  DW_TAG_member
    1766                            .dwattr $C$DW$180, DW_AT_type(*$C$DW$T$10)
    1767                            .dwattr $C$DW$180, DW_AT_name("fd")
    1768                            .dwattr $C$DW$180, DW_AT_TI_symbol_name("fd")
    1769                            .dwattr $C$DW$180, DW_AT_data_member_location[DW_OP_plus_uconst 0x0]
    1770                            .dwattr $C$DW$180, DW_AT_accessibility(DW_ACCESS_public)
    1771                            .dwattr $C$DW$180, DW_AT_decl_file("C:/VLIB_Tools/CCSV5_4_0/ccsv5/tools/compiler/C6000/include
    1772                            .dwattr $C$DW$180, DW_AT_decl_line(0x49)
    1773                            .dwattr $C$DW$180, DW_AT_decl_column(0x0b)
    1774                    $C$DW$181       .dwtag  DW_TAG_member
    1775                            .dwattr $C$DW$181, DW_AT_type(*$C$DW$T$23)
    1776                            .dwattr $C$DW$181, DW_AT_name("buf")
    1777                            .dwattr $C$DW$181, DW_AT_TI_symbol_name("buf")
    1778                            .dwattr $C$DW$181, DW_AT_data_member_location[DW_OP_plus_uconst 0x4]
    1779                            .dwattr $C$DW$181, DW_AT_accessibility(DW_ACCESS_public)
    1780                            .dwattr $C$DW$181, DW_AT_decl_file("C:/VLIB_Tools/CCSV5_4_0/ccsv5/tools/compiler/C6000/include
    1781                            .dwattr $C$DW$181, DW_AT_decl_line(0x4a)
    1782                            .dwattr $C$DW$181, DW_AT_decl_column(0x16)
    1783                    $C$DW$182       .dwtag  DW_TAG_member
    1784                            .dwattr $C$DW$182, DW_AT_type(*$C$DW$T$23)
    1785                            .dwattr $C$DW$182, DW_AT_name("pos")
    1786                            .dwattr $C$DW$182, DW_AT_TI_symbol_name("pos")
    1787                            .dwattr $C$DW$182, DW_AT_data_member_location[DW_OP_plus_uconst 0x8]
    1788                            .dwattr $C$DW$182, DW_AT_accessibility(DW_ACCESS_public)
    1789                            .dwattr $C$DW$182, DW_AT_decl_file("C:/VLIB_Tools/CCSV5_4_0/ccsv5/tools/compiler/C6000/include
    1790                            .dwattr $C$DW$182, DW_AT_decl_line(0x4b)
    1791                            .dwattr $C$DW$182, DW_AT_decl_column(0x16)
    1792                    $C$DW$183       .dwtag  DW_TAG_member
    1793                            .dwattr $C$DW$183, DW_AT_type(*$C$DW$T$23)
    1794                            .dwattr $C$DW$183, DW_AT_name("bufend")
    1795                            .dwattr $C$DW$183, DW_AT_TI_symbol_name("bufend")
    1796                            .dwattr $C$DW$183, DW_AT_data_member_location[DW_OP_plus_uconst 0xc]
    1797                            .dwattr $C$DW$183, DW_AT_accessibility(DW_ACCESS_public)
    1798                            .dwattr $C$DW$183, DW_AT_decl_file("C:/VLIB_Tools/CCSV5_4_0/ccsv5/tools/compiler/C6000/include
    1799                            .dwattr $C$DW$183, DW_AT_decl_line(0x4c)
TMS320C6x Assembler PC v7.4.2 Thu Mar 19 12:41:40 2015

Tools Copyright (c) 1996-2012 Texas Instruments Incorporated
package/lib/Regression/regress_d_c/./../packages/ti/vlib/src/VLIB_histogram_1D_Init_U8/VLIB_histogram_1D_Init_U8_d.se66 PAGE   40

    1800                            .dwattr $C$DW$183, DW_AT_decl_column(0x16)
    1801                    $C$DW$184       .dwtag  DW_TAG_member
    1802                            .dwattr $C$DW$184, DW_AT_type(*$C$DW$T$23)
    1803                            .dwattr $C$DW$184, DW_AT_name("buff_stop")
    1804                            .dwattr $C$DW$184, DW_AT_TI_symbol_name("buff_stop")
    1805                            .dwattr $C$DW$184, DW_AT_data_member_location[DW_OP_plus_uconst 0x10]
    1806                            .dwattr $C$DW$184, DW_AT_accessibility(DW_ACCESS_public)
    1807                            .dwattr $C$DW$184, DW_AT_decl_file("C:/VLIB_Tools/CCSV5_4_0/ccsv5/tools/compiler/C6000/include
    1808                            .dwattr $C$DW$184, DW_AT_decl_line(0x4d)
    1809                            .dwattr $C$DW$184, DW_AT_decl_column(0x16)
    1810                    $C$DW$185       .dwtag  DW_TAG_member
    1811                            .dwattr $C$DW$185, DW_AT_type(*$C$DW$T$11)
    1812                            .dwattr $C$DW$185, DW_AT_name("flags")
    1813                            .dwattr $C$DW$185, DW_AT_TI_symbol_name("flags")
    1814                            .dwattr $C$DW$185, DW_AT_data_member_location[DW_OP_plus_uconst 0x14]
    1815                            .dwattr $C$DW$185, DW_AT_accessibility(DW_ACCESS_public)
    1816                            .dwattr $C$DW$185, DW_AT_decl_file("C:/VLIB_Tools/CCSV5_4_0/ccsv5/tools/compiler/C6000/include
    1817                            .dwattr $C$DW$185, DW_AT_decl_line(0x4e)
    1818                            .dwattr $C$DW$185, DW_AT_decl_column(0x16)
    1819                            .dwendtag $C$DW$T$24
    1820                    
    1821                            .dwattr $C$DW$T$24, DW_AT_decl_file("C:/VLIB_Tools/CCSV5_4_0/ccsv5/tools/compiler/C6000/includ
    1822                            .dwattr $C$DW$T$24, DW_AT_decl_line(0x48)
    1823                            .dwattr $C$DW$T$24, DW_AT_decl_column(0x10)
    1824                    $C$DW$T$44      .dwtag  DW_TAG_typedef, DW_AT_name("FILE")
    1825                            .dwattr $C$DW$T$44, DW_AT_type(*$C$DW$T$24)
    1826                            .dwattr $C$DW$T$44, DW_AT_language(DW_LANG_C)
    1827                            .dwattr $C$DW$T$44, DW_AT_decl_file("C:/VLIB_Tools/CCSV5_4_0/ccsv5/tools/compiler/C6000/includ
    1828                            .dwattr $C$DW$T$44, DW_AT_decl_line(0x4f)
    1829                            .dwattr $C$DW$T$44, DW_AT_decl_column(0x03)
    1830                    
    1831                    $C$DW$T$25      .dwtag  DW_TAG_structure_type
    1832                            .dwattr $C$DW$T$25, DW_AT_byte_size(0x08)
    1833                    $C$DW$186       .dwtag  DW_TAG_member
    1834                            .dwattr $C$DW$186, DW_AT_type(*$C$DW$T$10)
    1835                            .dwattr $C$DW$186, DW_AT_name("quot")
    1836                            .dwattr $C$DW$186, DW_AT_TI_symbol_name("quot")
    1837                            .dwattr $C$DW$186, DW_AT_data_member_location[DW_OP_plus_uconst 0x0]
    1838                            .dwattr $C$DW$186, DW_AT_accessibility(DW_ACCESS_public)
    1839                            .dwattr $C$DW$186, DW_AT_decl_file("C:/VLIB_Tools/CCSV5_4_0/ccsv5/tools/compiler/C6000/include
    1840                            .dwattr $C$DW$186, DW_AT_decl_line(0x3e)
    1841                            .dwattr $C$DW$186, DW_AT_decl_column(0x16)
    1842                    $C$DW$187       .dwtag  DW_TAG_member
    1843                            .dwattr $C$DW$187, DW_AT_type(*$C$DW$T$10)
    1844                            .dwattr $C$DW$187, DW_AT_name("rem")
    1845                            .dwattr $C$DW$187, DW_AT_TI_symbol_name("rem")
    1846                            .dwattr $C$DW$187, DW_AT_data_member_location[DW_OP_plus_uconst 0x4]
    1847                            .dwattr $C$DW$187, DW_AT_accessibility(DW_ACCESS_public)
    1848                            .dwattr $C$DW$187, DW_AT_decl_file("C:/VLIB_Tools/CCSV5_4_0/ccsv5/tools/compiler/C6000/include
    1849                            .dwattr $C$DW$187, DW_AT_decl_line(0x3e)
    1850                            .dwattr $C$DW$187, DW_AT_decl_column(0x1c)
    1851                            .dwendtag $C$DW$T$25
    1852                    
    1853                            .dwattr $C$DW$T$25, DW_AT_decl_file("C:/VLIB_Tools/CCSV5_4_0/ccsv5/tools/compiler/C6000/includ
    1854                            .dwattr $C$DW$T$25, DW_AT_decl_line(0x3e)
TMS320C6x Assembler PC v7.4.2 Thu Mar 19 12:41:40 2015

Tools Copyright (c) 1996-2012 Texas Instruments Incorporated
package/lib/Regression/regress_d_c/./../packages/ti/vlib/src/VLIB_histogram_1D_Init_U8/VLIB_histogram_1D_Init_U8_d.se66 PAGE   41

    1855                            .dwattr $C$DW$T$25, DW_AT_decl_column(0x10)
    1856                    $C$DW$T$45      .dwtag  DW_TAG_typedef, DW_AT_name("div_t")
    1857                            .dwattr $C$DW$T$45, DW_AT_type(*$C$DW$T$25)
    1858                            .dwattr $C$DW$T$45, DW_AT_language(DW_LANG_C)
    1859                            .dwattr $C$DW$T$45, DW_AT_decl_file("C:/VLIB_Tools/CCSV5_4_0/ccsv5/tools/compiler/C6000/includ
    1860                            .dwattr $C$DW$T$45, DW_AT_decl_line(0x3e)
    1861                            .dwattr $C$DW$T$45, DW_AT_decl_column(0x23)
    1862                    
    1863                    $C$DW$T$26      .dwtag  DW_TAG_structure_type
    1864                            .dwattr $C$DW$T$26, DW_AT_byte_size(0x08)
    1865                    $C$DW$188       .dwtag  DW_TAG_member
    1866                            .dwattr $C$DW$188, DW_AT_type(*$C$DW$T$10)
    1867                            .dwattr $C$DW$188, DW_AT_name("quot")
    1868                            .dwattr $C$DW$188, DW_AT_TI_symbol_name("quot")
    1869                            .dwattr $C$DW$188, DW_AT_data_member_location[DW_OP_plus_uconst 0x0]
    1870                            .dwattr $C$DW$188, DW_AT_accessibility(DW_ACCESS_public)
    1871                            .dwattr $C$DW$188, DW_AT_decl_file("C:/VLIB_Tools/CCSV5_4_0/ccsv5/tools/compiler/C6000/include
    1872                            .dwattr $C$DW$188, DW_AT_decl_line(0x40)
    1873                            .dwattr $C$DW$188, DW_AT_decl_column(0x17)
    1874                    $C$DW$189       .dwtag  DW_TAG_member
    1875                            .dwattr $C$DW$189, DW_AT_type(*$C$DW$T$10)
    1876                            .dwattr $C$DW$189, DW_AT_name("rem")
    1877                            .dwattr $C$DW$189, DW_AT_TI_symbol_name("rem")
    1878                            .dwattr $C$DW$189, DW_AT_data_member_location[DW_OP_plus_uconst 0x4]
    1879                            .dwattr $C$DW$189, DW_AT_accessibility(DW_ACCESS_public)
    1880                            .dwattr $C$DW$189, DW_AT_decl_file("C:/VLIB_Tools/CCSV5_4_0/ccsv5/tools/compiler/C6000/include
    1881                            .dwattr $C$DW$189, DW_AT_decl_line(0x40)
    1882                            .dwattr $C$DW$189, DW_AT_decl_column(0x1d)
    1883                            .dwendtag $C$DW$T$26
    1884                    
    1885                            .dwattr $C$DW$T$26, DW_AT_decl_file("C:/VLIB_Tools/CCSV5_4_0/ccsv5/tools/compiler/C6000/includ
    1886                            .dwattr $C$DW$T$26, DW_AT_decl_line(0x40)
    1887                            .dwattr $C$DW$T$26, DW_AT_decl_column(0x10)
    1888                    $C$DW$T$46      .dwtag  DW_TAG_typedef, DW_AT_name("ldiv_t")
    1889                            .dwattr $C$DW$T$46, DW_AT_type(*$C$DW$T$26)
    1890                            .dwattr $C$DW$T$46, DW_AT_language(DW_LANG_C)
    1891                            .dwattr $C$DW$T$46, DW_AT_decl_file("C:/VLIB_Tools/CCSV5_4_0/ccsv5/tools/compiler/C6000/includ
    1892                            .dwattr $C$DW$T$46, DW_AT_decl_line(0x40)
    1893                            .dwattr $C$DW$T$46, DW_AT_decl_column(0x24)
    1894                    
    1895                    $C$DW$T$27      .dwtag  DW_TAG_structure_type
    1896                            .dwattr $C$DW$T$27, DW_AT_byte_size(0x10)
    1897                    $C$DW$190       .dwtag  DW_TAG_member
    1898                            .dwattr $C$DW$190, DW_AT_type(*$C$DW$T$14)
    1899                            .dwattr $C$DW$190, DW_AT_name("quot")
    1900                            .dwattr $C$DW$190, DW_AT_TI_symbol_name("quot")
    1901                            .dwattr $C$DW$190, DW_AT_data_member_location[DW_OP_plus_uconst 0x0]
    1902                            .dwattr $C$DW$190, DW_AT_accessibility(DW_ACCESS_public)
    1903                            .dwattr $C$DW$190, DW_AT_decl_file("C:/VLIB_Tools/CCSV5_4_0/ccsv5/tools/compiler/C6000/include
    1904                            .dwattr $C$DW$190, DW_AT_decl_line(0x43)
    1905                            .dwattr $C$DW$190, DW_AT_decl_column(0x1c)
    1906                    $C$DW$191       .dwtag  DW_TAG_member
    1907                            .dwattr $C$DW$191, DW_AT_type(*$C$DW$T$14)
    1908                            .dwattr $C$DW$191, DW_AT_name("rem")
    1909                            .dwattr $C$DW$191, DW_AT_TI_symbol_name("rem")
TMS320C6x Assembler PC v7.4.2 Thu Mar 19 12:41:40 2015

Tools Copyright (c) 1996-2012 Texas Instruments Incorporated
package/lib/Regression/regress_d_c/./../packages/ti/vlib/src/VLIB_histogram_1D_Init_U8/VLIB_histogram_1D_Init_U8_d.se66 PAGE   42

    1910                            .dwattr $C$DW$191, DW_AT_data_member_location[DW_OP_plus_uconst 0x8]
    1911                            .dwattr $C$DW$191, DW_AT_accessibility(DW_ACCESS_public)
    1912                            .dwattr $C$DW$191, DW_AT_decl_file("C:/VLIB_Tools/CCSV5_4_0/ccsv5/tools/compiler/C6000/include
    1913                            .dwattr $C$DW$191, DW_AT_decl_line(0x43)
    1914                            .dwattr $C$DW$191, DW_AT_decl_column(0x22)
    1915                            .dwendtag $C$DW$T$27
    1916                    
    1917                            .dwattr $C$DW$T$27, DW_AT_decl_file("C:/VLIB_Tools/CCSV5_4_0/ccsv5/tools/compiler/C6000/includ
    1918                            .dwattr $C$DW$T$27, DW_AT_decl_line(0x43)
    1919                            .dwattr $C$DW$T$27, DW_AT_decl_column(0x10)
    1920                    $C$DW$T$47      .dwtag  DW_TAG_typedef, DW_AT_name("lldiv_t")
    1921                            .dwattr $C$DW$T$47, DW_AT_type(*$C$DW$T$27)
    1922                            .dwattr $C$DW$T$47, DW_AT_language(DW_LANG_C)
    1923                            .dwattr $C$DW$T$47, DW_AT_decl_file("C:/VLIB_Tools/CCSV5_4_0/ccsv5/tools/compiler/C6000/includ
    1924                            .dwattr $C$DW$T$47, DW_AT_decl_line(0x43)
    1925                            .dwattr $C$DW$T$47, DW_AT_decl_column(0x29)
    1926                    
    1927                    $C$DW$T$28      .dwtag  DW_TAG_structure_type
    1928                            .dwattr $C$DW$T$28, DW_AT_byte_size(0x24)
    1929                    $C$DW$192       .dwtag  DW_TAG_member
    1930                            .dwattr $C$DW$192, DW_AT_type(*$C$DW$T$21)
    1931                            .dwattr $C$DW$192, DW_AT_name("area")
    1932                            .dwattr $C$DW$192, DW_AT_TI_symbol_name("area")
    1933                            .dwattr $C$DW$192, DW_AT_data_member_location[DW_OP_plus_uconst 0x0]
    1934                            .dwattr $C$DW$192, DW_AT_accessibility(DW_ACCESS_public)
    1935                            .dwattr $C$DW$192, DW_AT_decl_file(".\..\packages\ti\vlib\src\VLIB_histogram_1D_Init_U8\..\com
    1936                            .dwattr $C$DW$192, DW_AT_decl_line(0x69)
    1937                            .dwattr $C$DW$192, DW_AT_decl_column(0x0d)
    1938                    $C$DW$193       .dwtag  DW_TAG_member
    1939                            .dwattr $C$DW$193, DW_AT_type(*$C$DW$T$21)
    1940                            .dwattr $C$DW$193, DW_AT_name("xsum")
    1941                            .dwattr $C$DW$193, DW_AT_TI_symbol_name("xsum")
    1942                            .dwattr $C$DW$193, DW_AT_data_member_location[DW_OP_plus_uconst 0x4]
    1943                            .dwattr $C$DW$193, DW_AT_accessibility(DW_ACCESS_public)
    1944                            .dwattr $C$DW$193, DW_AT_decl_file(".\..\packages\ti\vlib\src\VLIB_histogram_1D_Init_U8\..\com
    1945                            .dwattr $C$DW$193, DW_AT_decl_line(0x6a)
    1946                            .dwattr $C$DW$193, DW_AT_decl_column(0x0d)
    1947                    $C$DW$194       .dwtag  DW_TAG_member
    1948                            .dwattr $C$DW$194, DW_AT_type(*$C$DW$T$21)
    1949                            .dwattr $C$DW$194, DW_AT_name("ysum")
    1950                            .dwattr $C$DW$194, DW_AT_TI_symbol_name("ysum")
    1951                            .dwattr $C$DW$194, DW_AT_data_member_location[DW_OP_plus_uconst 0x8]
    1952                            .dwattr $C$DW$194, DW_AT_accessibility(DW_ACCESS_public)
    1953                            .dwattr $C$DW$194, DW_AT_decl_file(".\..\packages\ti\vlib\src\VLIB_histogram_1D_Init_U8\..\com
    1954                            .dwattr $C$DW$194, DW_AT_decl_line(0x6b)
    1955                            .dwattr $C$DW$194, DW_AT_decl_column(0x0d)
    1956                    $C$DW$195       .dwtag  DW_TAG_member
    1957                            .dwattr $C$DW$195, DW_AT_type(*$C$DW$T$21)
    1958                            .dwattr $C$DW$195, DW_AT_name("xmin")
    1959                            .dwattr $C$DW$195, DW_AT_TI_symbol_name("xmin")
    1960                            .dwattr $C$DW$195, DW_AT_data_member_location[DW_OP_plus_uconst 0xc]
    1961                            .dwattr $C$DW$195, DW_AT_accessibility(DW_ACCESS_public)
    1962                            .dwattr $C$DW$195, DW_AT_decl_file(".\..\packages\ti\vlib\src\VLIB_histogram_1D_Init_U8\..\com
    1963                            .dwattr $C$DW$195, DW_AT_decl_line(0x6d)
    1964                            .dwattr $C$DW$195, DW_AT_decl_column(0x0d)
TMS320C6x Assembler PC v7.4.2 Thu Mar 19 12:41:40 2015

Tools Copyright (c) 1996-2012 Texas Instruments Incorporated
package/lib/Regression/regress_d_c/./../packages/ti/vlib/src/VLIB_histogram_1D_Init_U8/VLIB_histogram_1D_Init_U8_d.se66 PAGE   43

    1965                    $C$DW$196       .dwtag  DW_TAG_member
    1966                            .dwattr $C$DW$196, DW_AT_type(*$C$DW$T$21)
    1967                            .dwattr $C$DW$196, DW_AT_name("ymin")
    1968                            .dwattr $C$DW$196, DW_AT_TI_symbol_name("ymin")
    1969                            .dwattr $C$DW$196, DW_AT_data_member_location[DW_OP_plus_uconst 0x10]
    1970                            .dwattr $C$DW$196, DW_AT_accessibility(DW_ACCESS_public)
    1971                            .dwattr $C$DW$196, DW_AT_decl_file(".\..\packages\ti\vlib\src\VLIB_histogram_1D_Init_U8\..\com
    1972                            .dwattr $C$DW$196, DW_AT_decl_line(0x6e)
    1973                            .dwattr $C$DW$196, DW_AT_decl_column(0x0d)
    1974                    $C$DW$197       .dwtag  DW_TAG_member
    1975                            .dwattr $C$DW$197, DW_AT_type(*$C$DW$T$21)
    1976                            .dwattr $C$DW$197, DW_AT_name("xmax")
    1977                            .dwattr $C$DW$197, DW_AT_TI_symbol_name("xmax")
    1978                            .dwattr $C$DW$197, DW_AT_data_member_location[DW_OP_plus_uconst 0x14]
    1979                            .dwattr $C$DW$197, DW_AT_accessibility(DW_ACCESS_public)
    1980                            .dwattr $C$DW$197, DW_AT_decl_file(".\..\packages\ti\vlib\src\VLIB_histogram_1D_Init_U8\..\com
    1981                            .dwattr $C$DW$197, DW_AT_decl_line(0x6f)
    1982                            .dwattr $C$DW$197, DW_AT_decl_column(0x0d)
    1983                    $C$DW$198       .dwtag  DW_TAG_member
    1984                            .dwattr $C$DW$198, DW_AT_type(*$C$DW$T$21)
    1985                            .dwattr $C$DW$198, DW_AT_name("ymax")
    1986                            .dwattr $C$DW$198, DW_AT_TI_symbol_name("ymax")
    1987                            .dwattr $C$DW$198, DW_AT_data_member_location[DW_OP_plus_uconst 0x18]
    1988                            .dwattr $C$DW$198, DW_AT_accessibility(DW_ACCESS_public)
    1989                            .dwattr $C$DW$198, DW_AT_decl_file(".\..\packages\ti\vlib\src\VLIB_histogram_1D_Init_U8\..\com
    1990                            .dwattr $C$DW$198, DW_AT_decl_line(0x70)
    1991                            .dwattr $C$DW$198, DW_AT_decl_column(0x0d)
    1992                    $C$DW$199       .dwtag  DW_TAG_member
    1993                            .dwattr $C$DW$199, DW_AT_type(*$C$DW$T$21)
    1994                            .dwattr $C$DW$199, DW_AT_name("seedx")
    1995                            .dwattr $C$DW$199, DW_AT_TI_symbol_name("seedx")
    1996                            .dwattr $C$DW$199, DW_AT_data_member_location[DW_OP_plus_uconst 0x1c]
    1997                            .dwattr $C$DW$199, DW_AT_accessibility(DW_ACCESS_public)
    1998                            .dwattr $C$DW$199, DW_AT_decl_file(".\..\packages\ti\vlib\src\VLIB_histogram_1D_Init_U8\..\com
    1999                            .dwattr $C$DW$199, DW_AT_decl_line(0x72)
    2000                            .dwattr $C$DW$199, DW_AT_decl_column(0x0d)
    2001                    $C$DW$200       .dwtag  DW_TAG_member
    2002                            .dwattr $C$DW$200, DW_AT_type(*$C$DW$T$21)
    2003                            .dwattr $C$DW$200, DW_AT_name("seedy")
    2004                            .dwattr $C$DW$200, DW_AT_TI_symbol_name("seedy")
    2005                            .dwattr $C$DW$200, DW_AT_data_member_location[DW_OP_plus_uconst 0x20]
    2006                            .dwattr $C$DW$200, DW_AT_accessibility(DW_ACCESS_public)
    2007                            .dwattr $C$DW$200, DW_AT_decl_file(".\..\packages\ti\vlib\src\VLIB_histogram_1D_Init_U8\..\com
    2008                            .dwattr $C$DW$200, DW_AT_decl_line(0x73)
    2009                            .dwattr $C$DW$200, DW_AT_decl_column(0x0d)
    2010                            .dwendtag $C$DW$T$28
    2011                    
    2012                            .dwattr $C$DW$T$28, DW_AT_decl_file(".\..\packages\ti\vlib\src\VLIB_histogram_1D_Init_U8\..\co
    2013                            .dwattr $C$DW$T$28, DW_AT_decl_line(0x68)
    2014                            .dwattr $C$DW$T$28, DW_AT_decl_column(0x10)
    2015                    $C$DW$T$48      .dwtag  DW_TAG_typedef, DW_AT_name("VLIB_CC")
    2016                            .dwattr $C$DW$T$48, DW_AT_type(*$C$DW$T$28)
    2017                            .dwattr $C$DW$T$48, DW_AT_language(DW_LANG_C)
    2018                            .dwattr $C$DW$T$48, DW_AT_decl_file(".\..\packages\ti\vlib\src\VLIB_histogram_1D_Init_U8\..\co
    2019                            .dwattr $C$DW$T$48, DW_AT_decl_line(0x75)
TMS320C6x Assembler PC v7.4.2 Thu Mar 19 12:41:40 2015

Tools Copyright (c) 1996-2012 Texas Instruments Incorporated
package/lib/Regression/regress_d_c/./../packages/ti/vlib/src/VLIB_histogram_1D_Init_U8/VLIB_histogram_1D_Init_U8_d.se66 PAGE   44

    2020                            .dwattr $C$DW$T$48, DW_AT_decl_column(0x03)
    2021                    
    2022                    $C$DW$T$31      .dwtag  DW_TAG_structure_type
    2023                            .dwattr $C$DW$T$31, DW_AT_byte_size(0x10)
    2024                    $C$DW$201       .dwtag  DW_TAG_member
    2025                            .dwattr $C$DW$201, DW_AT_type(*$C$DW$T$8)
    2026                            .dwattr $C$DW$201, DW_AT_name("daylight")
    2027                            .dwattr $C$DW$201, DW_AT_TI_symbol_name("daylight")
    2028                            .dwattr $C$DW$201, DW_AT_data_member_location[DW_OP_plus_uconst 0x0]
    2029                            .dwattr $C$DW$201, DW_AT_accessibility(DW_ACCESS_public)
    2030                            .dwattr $C$DW$201, DW_AT_decl_file("C:/VLIB_Tools/CCSV5_4_0/ccsv5/tools/compiler/C6000/include
    2031                            .dwattr $C$DW$201, DW_AT_decl_line(0x52)
    2032                            .dwattr $C$DW$201, DW_AT_decl_column(0x0b)
    2033                    $C$DW$202       .dwtag  DW_TAG_member
    2034                            .dwattr $C$DW$202, DW_AT_type(*$C$DW$T$10)
    2035                            .dwattr $C$DW$202, DW_AT_name("timezone")
    2036                            .dwattr $C$DW$202, DW_AT_TI_symbol_name("timezone")
    2037                            .dwattr $C$DW$202, DW_AT_data_member_location[DW_OP_plus_uconst 0x4]
    2038                            .dwattr $C$DW$202, DW_AT_accessibility(DW_ACCESS_public)
    2039                            .dwattr $C$DW$202, DW_AT_decl_file("C:/VLIB_Tools/CCSV5_4_0/ccsv5/tools/compiler/C6000/include
    2040                            .dwattr $C$DW$202, DW_AT_decl_line(0x53)
    2041                            .dwattr $C$DW$202, DW_AT_decl_column(0x0b)
    2042                    $C$DW$203       .dwtag  DW_TAG_member
    2043                            .dwattr $C$DW$203, DW_AT_type(*$C$DW$T$30)
    2044                            .dwattr $C$DW$203, DW_AT_name("tzname")
    2045                            .dwattr $C$DW$203, DW_AT_TI_symbol_name("tzname")
    2046                            .dwattr $C$DW$203, DW_AT_data_member_location[DW_OP_plus_uconst 0x8]
    2047                            .dwattr $C$DW$203, DW_AT_accessibility(DW_ACCESS_public)
    2048                            .dwattr $C$DW$203, DW_AT_decl_file("C:/VLIB_Tools/CCSV5_4_0/ccsv5/tools/compiler/C6000/include
    2049                            .dwattr $C$DW$203, DW_AT_decl_line(0x54)
    2050                            .dwattr $C$DW$203, DW_AT_decl_column(0x0b)
    2051                    $C$DW$204       .dwtag  DW_TAG_member
    2052                            .dwattr $C$DW$204, DW_AT_type(*$C$DW$T$30)
    2053                            .dwattr $C$DW$204, DW_AT_name("dstname")
    2054                            .dwattr $C$DW$204, DW_AT_TI_symbol_name("dstname")
    2055                            .dwattr $C$DW$204, DW_AT_data_member_location[DW_OP_plus_uconst 0xc]
    2056                            .dwattr $C$DW$204, DW_AT_accessibility(DW_ACCESS_public)
    2057                            .dwattr $C$DW$204, DW_AT_decl_file("C:/VLIB_Tools/CCSV5_4_0/ccsv5/tools/compiler/C6000/include
    2058                            .dwattr $C$DW$204, DW_AT_decl_line(0x55)
    2059                            .dwattr $C$DW$204, DW_AT_decl_column(0x0b)
    2060                            .dwendtag $C$DW$T$31
    2061                    
    2062                            .dwattr $C$DW$T$31, DW_AT_decl_file("C:/VLIB_Tools/CCSV5_4_0/ccsv5/tools/compiler/C6000/includ
    2063                            .dwattr $C$DW$T$31, DW_AT_decl_line(0x51)
    2064                            .dwattr $C$DW$T$31, DW_AT_decl_column(0x01)
    2065                    $C$DW$T$49      .dwtag  DW_TAG_typedef, DW_AT_name("TZ")
    2066                            .dwattr $C$DW$T$49, DW_AT_type(*$C$DW$T$31)
    2067                            .dwattr $C$DW$T$49, DW_AT_language(DW_LANG_C)
    2068                            .dwattr $C$DW$T$49, DW_AT_decl_file("C:/VLIB_Tools/CCSV5_4_0/ccsv5/tools/compiler/C6000/includ
    2069                            .dwattr $C$DW$T$49, DW_AT_decl_line(0x56)
    2070                            .dwattr $C$DW$T$49, DW_AT_decl_column(0x03)
    2071                    $C$DW$T$2       .dwtag  DW_TAG_unspecified_type
    2072                            .dwattr $C$DW$T$2, DW_AT_name("void")
    2073                    $C$DW$T$3       .dwtag  DW_TAG_pointer_type
    2074                            .dwattr $C$DW$T$3, DW_AT_type(*$C$DW$T$2)
TMS320C6x Assembler PC v7.4.2 Thu Mar 19 12:41:40 2015

Tools Copyright (c) 1996-2012 Texas Instruments Incorporated
package/lib/Regression/regress_d_c/./../packages/ti/vlib/src/VLIB_histogram_1D_Init_U8/VLIB_histogram_1D_Init_U8_d.se66 PAGE   45

    2075                            .dwattr $C$DW$T$3, DW_AT_address_class(0x20)
    2076                    $C$DW$T$50      .dwtag  DW_TAG_typedef, DW_AT_name("VLIB_PTR")
    2077                            .dwattr $C$DW$T$50, DW_AT_type(*$C$DW$T$3)
    2078                            .dwattr $C$DW$T$50, DW_AT_language(DW_LANG_C)
    2079                            .dwattr $C$DW$T$50, DW_AT_decl_file(".\..\packages\ti\vlib\src\VLIB_histogram_1D_Init_U8\..\co
    2080                            .dwattr $C$DW$T$50, DW_AT_decl_line(0x5c)
    2081                            .dwattr $C$DW$T$50, DW_AT_decl_column(0x19)
    2082                    $C$DW$T$4       .dwtag  DW_TAG_base_type
    2083                            .dwattr $C$DW$T$4, DW_AT_encoding(DW_ATE_boolean)
    2084                            .dwattr $C$DW$T$4, DW_AT_name("bool")
    2085                            .dwattr $C$DW$T$4, DW_AT_byte_size(0x01)
    2086                    $C$DW$T$5       .dwtag  DW_TAG_base_type
    2087                            .dwattr $C$DW$T$5, DW_AT_encoding(DW_ATE_signed_char)
    2088                            .dwattr $C$DW$T$5, DW_AT_name("signed char")
    2089                            .dwattr $C$DW$T$5, DW_AT_byte_size(0x01)
    2090                    $C$DW$T$80      .dwtag  DW_TAG_pointer_type
    2091                            .dwattr $C$DW$T$80, DW_AT_type(*$C$DW$T$5)
    2092                            .dwattr $C$DW$T$80, DW_AT_address_class(0x20)
    2093                    $C$DW$T$90      .dwtag  DW_TAG_typedef, DW_AT_name("int8_t")
    2094                            .dwattr $C$DW$T$90, DW_AT_type(*$C$DW$T$5)
    2095                            .dwattr $C$DW$T$90, DW_AT_language(DW_LANG_C)
    2096                            .dwattr $C$DW$T$90, DW_AT_decl_file("C:/VLIB_Tools/CCSV5_4_0/ccsv5/tools/compiler/C6000/includ
    2097                            .dwattr $C$DW$T$90, DW_AT_decl_line(0x2a)
    2098                            .dwattr $C$DW$T$90, DW_AT_decl_column(0x1d)
    2099                    $C$DW$T$91      .dwtag  DW_TAG_typedef, DW_AT_name("int_least8_t")
    2100                            .dwattr $C$DW$T$91, DW_AT_type(*$C$DW$T$90)
    2101                            .dwattr $C$DW$T$91, DW_AT_language(DW_LANG_C)
    2102                            .dwattr $C$DW$T$91, DW_AT_decl_file("C:/VLIB_Tools/CCSV5_4_0/ccsv5/tools/compiler/C6000/includ
    2103                            .dwattr $C$DW$T$91, DW_AT_decl_line(0x39)
    2104                            .dwattr $C$DW$T$91, DW_AT_decl_column(0x17)
    2105                    $C$DW$T$6       .dwtag  DW_TAG_base_type
    2106                            .dwattr $C$DW$T$6, DW_AT_encoding(DW_ATE_unsigned_char)
    2107                            .dwattr $C$DW$T$6, DW_AT_name("unsigned char")
    2108                            .dwattr $C$DW$T$6, DW_AT_byte_size(0x01)
    2109                    $C$DW$T$23      .dwtag  DW_TAG_pointer_type
    2110                            .dwattr $C$DW$T$23, DW_AT_type(*$C$DW$T$6)
    2111                            .dwattr $C$DW$T$23, DW_AT_address_class(0x20)
    2112                    $C$DW$T$19      .dwtag  DW_TAG_typedef, DW_AT_name("uint8_t")
    2113                            .dwattr $C$DW$T$19, DW_AT_type(*$C$DW$T$6)
    2114                            .dwattr $C$DW$T$19, DW_AT_language(DW_LANG_C)
    2115                            .dwattr $C$DW$T$19, DW_AT_decl_file("C:/VLIB_Tools/CCSV5_4_0/ccsv5/tools/compiler/C6000/includ
    2116                            .dwattr $C$DW$T$19, DW_AT_decl_line(0x2b)
    2117                            .dwattr $C$DW$T$19, DW_AT_decl_column(0x1c)
    2118                    $C$DW$T$20      .dwtag  DW_TAG_pointer_type
    2119                            .dwattr $C$DW$T$20, DW_AT_type(*$C$DW$T$19)
    2120                            .dwattr $C$DW$T$20, DW_AT_address_class(0x20)
    2121                    $C$DW$T$92      .dwtag  DW_TAG_restrict_type
    2122                            .dwattr $C$DW$T$92, DW_AT_type(*$C$DW$T$20)
    2123                    $C$DW$T$93      .dwtag  DW_TAG_const_type
    2124                            .dwattr $C$DW$T$93, DW_AT_type(*$C$DW$T$19)
    2125                    $C$DW$T$94      .dwtag  DW_TAG_pointer_type
    2126                            .dwattr $C$DW$T$94, DW_AT_type(*$C$DW$T$93)
    2127                            .dwattr $C$DW$T$94, DW_AT_address_class(0x20)
    2128                    $C$DW$T$95      .dwtag  DW_TAG_restrict_type
    2129                            .dwattr $C$DW$T$95, DW_AT_type(*$C$DW$T$94)
TMS320C6x Assembler PC v7.4.2 Thu Mar 19 12:41:40 2015

Tools Copyright (c) 1996-2012 Texas Instruments Incorporated
package/lib/Regression/regress_d_c/./../packages/ti/vlib/src/VLIB_histogram_1D_Init_U8/VLIB_histogram_1D_Init_U8_d.se66 PAGE   46

    2130                    $C$DW$T$96      .dwtag  DW_TAG_typedef, DW_AT_name("uint_least8_t")
    2131                            .dwattr $C$DW$T$96, DW_AT_type(*$C$DW$T$19)
    2132                            .dwattr $C$DW$T$96, DW_AT_language(DW_LANG_C)
    2133                            .dwattr $C$DW$T$96, DW_AT_decl_file("C:/VLIB_Tools/CCSV5_4_0/ccsv5/tools/compiler/C6000/includ
    2134                            .dwattr $C$DW$T$96, DW_AT_decl_line(0x3a)
    2135                            .dwattr $C$DW$T$96, DW_AT_decl_column(0x16)
    2136                    $C$DW$T$7       .dwtag  DW_TAG_base_type
    2137                            .dwattr $C$DW$T$7, DW_AT_encoding(DW_ATE_signed_char)
    2138                            .dwattr $C$DW$T$7, DW_AT_name("wchar_t")
    2139                            .dwattr $C$DW$T$7, DW_AT_byte_size(0x02)
    2140                    $C$DW$T$8       .dwtag  DW_TAG_base_type
    2141                            .dwattr $C$DW$T$8, DW_AT_encoding(DW_ATE_signed)
    2142                            .dwattr $C$DW$T$8, DW_AT_name("short")
    2143                            .dwattr $C$DW$T$8, DW_AT_byte_size(0x02)
    2144                    $C$DW$T$97      .dwtag  DW_TAG_typedef, DW_AT_name("int16_t")
    2145                            .dwattr $C$DW$T$97, DW_AT_type(*$C$DW$T$8)
    2146                            .dwattr $C$DW$T$97, DW_AT_language(DW_LANG_C)
    2147                            .dwattr $C$DW$T$97, DW_AT_decl_file("C:/VLIB_Tools/CCSV5_4_0/ccsv5/tools/compiler/C6000/includ
    2148                            .dwattr $C$DW$T$97, DW_AT_decl_line(0x2c)
    2149                            .dwattr $C$DW$T$97, DW_AT_decl_column(0x1d)
    2150                    $C$DW$T$98      .dwtag  DW_TAG_typedef, DW_AT_name("int_least16_t")
    2151                            .dwattr $C$DW$T$98, DW_AT_type(*$C$DW$T$97)
    2152                            .dwattr $C$DW$T$98, DW_AT_language(DW_LANG_C)
    2153                            .dwattr $C$DW$T$98, DW_AT_decl_file("C:/VLIB_Tools/CCSV5_4_0/ccsv5/tools/compiler/C6000/includ
    2154                            .dwattr $C$DW$T$98, DW_AT_decl_line(0x3c)
    2155                            .dwattr $C$DW$T$98, DW_AT_decl_column(0x17)
    2156                    $C$DW$T$9       .dwtag  DW_TAG_base_type
    2157                            .dwattr $C$DW$T$9, DW_AT_encoding(DW_ATE_unsigned)
    2158                            .dwattr $C$DW$T$9, DW_AT_name("unsigned short")
    2159                            .dwattr $C$DW$T$9, DW_AT_byte_size(0x02)
    2160                    $C$DW$T$73      .dwtag  DW_TAG_typedef, DW_AT_name("uint16_t")
    2161                            .dwattr $C$DW$T$73, DW_AT_type(*$C$DW$T$9)
    2162                            .dwattr $C$DW$T$73, DW_AT_language(DW_LANG_C)
    2163                            .dwattr $C$DW$T$73, DW_AT_decl_file("C:/VLIB_Tools/CCSV5_4_0/ccsv5/tools/compiler/C6000/includ
    2164                            .dwattr $C$DW$T$73, DW_AT_decl_line(0x2d)
    2165                            .dwattr $C$DW$T$73, DW_AT_decl_column(0x1c)
    2166                    $C$DW$T$100     .dwtag  DW_TAG_typedef, DW_AT_name("uint_least16_t")
    2167                            .dwattr $C$DW$T$100, DW_AT_type(*$C$DW$T$73)
    2168                            .dwattr $C$DW$T$100, DW_AT_language(DW_LANG_C)
    2169                            .dwattr $C$DW$T$100, DW_AT_decl_file("C:/VLIB_Tools/CCSV5_4_0/ccsv5/tools/compiler/C6000/inclu
    2170                            .dwattr $C$DW$T$100, DW_AT_decl_line(0x3d)
    2171                            .dwattr $C$DW$T$100, DW_AT_decl_column(0x16)
    2172                    $C$DW$T$99      .dwtag  DW_TAG_typedef, DW_AT_name("wchar_t")
    2173                            .dwattr $C$DW$T$99, DW_AT_type(*$C$DW$T$9)
    2174                            .dwattr $C$DW$T$99, DW_AT_language(DW_LANG_C)
    2175                            .dwattr $C$DW$T$99, DW_AT_decl_file("C:/VLIB_Tools/CCSV5_4_0/ccsv5/tools/compiler/C6000/includ
    2176                            .dwattr $C$DW$T$99, DW_AT_decl_line(0x53)
    2177                            .dwattr $C$DW$T$99, DW_AT_decl_column(0x1a)
    2178                    $C$DW$T$10      .dwtag  DW_TAG_base_type
    2179                            .dwattr $C$DW$T$10, DW_AT_encoding(DW_ATE_signed)
    2180                            .dwattr $C$DW$T$10, DW_AT_name("int")
    2181                            .dwattr $C$DW$T$10, DW_AT_byte_size(0x04)
    2182                    $C$DW$T$126     .dwtag  DW_TAG_typedef, DW_AT_name("fpos_t")
    2183                            .dwattr $C$DW$T$126, DW_AT_type(*$C$DW$T$10)
    2184                            .dwattr $C$DW$T$126, DW_AT_language(DW_LANG_C)
TMS320C6x Assembler PC v7.4.2 Thu Mar 19 12:41:40 2015

Tools Copyright (c) 1996-2012 Texas Instruments Incorporated
package/lib/Regression/regress_d_c/./../packages/ti/vlib/src/VLIB_histogram_1D_Init_U8/VLIB_histogram_1D_Init_U8_d.se66 PAGE   47

    2185                            .dwattr $C$DW$T$126, DW_AT_decl_file("C:/VLIB_Tools/CCSV5_4_0/ccsv5/tools/compiler/C6000/inclu
    2186                            .dwattr $C$DW$T$126, DW_AT_decl_line(0x53)
    2187                            .dwattr $C$DW$T$126, DW_AT_decl_column(0x0d)
    2188                    $C$DW$T$21      .dwtag  DW_TAG_typedef, DW_AT_name("int32_t")
    2189                            .dwattr $C$DW$T$21, DW_AT_type(*$C$DW$T$10)
    2190                            .dwattr $C$DW$T$21, DW_AT_language(DW_LANG_C)
    2191                            .dwattr $C$DW$T$21, DW_AT_decl_file("C:/VLIB_Tools/CCSV5_4_0/ccsv5/tools/compiler/C6000/includ
    2192                            .dwattr $C$DW$T$21, DW_AT_decl_line(0x2e)
    2193                            .dwattr $C$DW$T$21, DW_AT_decl_column(0x1d)
    2194                    $C$DW$T$117     .dwtag  DW_TAG_typedef, DW_AT_name("VLIB_CCHandle")
    2195                            .dwattr $C$DW$T$117, DW_AT_type(*$C$DW$T$21)
    2196                            .dwattr $C$DW$T$117, DW_AT_language(DW_LANG_C)
    2197                            .dwattr $C$DW$T$117, DW_AT_decl_file(".\..\packages\ti\vlib\src\VLIB_histogram_1D_Init_U8\..\c
    2198                            .dwattr $C$DW$T$117, DW_AT_decl_line(0x77)
    2199                            .dwattr $C$DW$T$117, DW_AT_decl_column(0x11)
    2200                    
    2201                    $C$DW$T$32      .dwtag  DW_TAG_array_type
    2202                            .dwattr $C$DW$T$32, DW_AT_type(*$C$DW$T$21)
    2203                            .dwattr $C$DW$T$32, DW_AT_language(DW_LANG_C)
    2204                            .dwattr $C$DW$T$32, DW_AT_byte_size(0x10)
    2205                    $C$DW$205       .dwtag  DW_TAG_subrange_type
    2206                            .dwattr $C$DW$205, DW_AT_upper_bound(0x03)
    2207                            .dwendtag $C$DW$T$32
    2208                    
    2209                    $C$DW$T$76      .dwtag  DW_TAG_pointer_type
    2210                            .dwattr $C$DW$T$76, DW_AT_type(*$C$DW$T$21)
    2211                            .dwattr $C$DW$T$76, DW_AT_address_class(0x20)
    2212                    $C$DW$T$111     .dwtag  DW_TAG_const_type
    2213                            .dwattr $C$DW$T$111, DW_AT_type(*$C$DW$T$21)
    2214                    $C$DW$T$121     .dwtag  DW_TAG_typedef, DW_AT_name("int_fast16_t")
    2215                            .dwattr $C$DW$T$121, DW_AT_type(*$C$DW$T$21)
    2216                            .dwattr $C$DW$T$121, DW_AT_language(DW_LANG_C)
    2217                            .dwattr $C$DW$T$121, DW_AT_decl_file("C:/VLIB_Tools/CCSV5_4_0/ccsv5/tools/compiler/C6000/inclu
    2218                            .dwattr $C$DW$T$121, DW_AT_decl_line(0x4b)
    2219                            .dwattr $C$DW$T$121, DW_AT_decl_column(0x17)
    2220                    $C$DW$T$122     .dwtag  DW_TAG_typedef, DW_AT_name("int_fast32_t")
    2221                            .dwattr $C$DW$T$122, DW_AT_type(*$C$DW$T$21)
    2222                            .dwattr $C$DW$T$122, DW_AT_language(DW_LANG_C)
    2223                            .dwattr $C$DW$T$122, DW_AT_decl_file("C:/VLIB_Tools/CCSV5_4_0/ccsv5/tools/compiler/C6000/inclu
    2224                            .dwattr $C$DW$T$122, DW_AT_decl_line(0x4e)
    2225                            .dwattr $C$DW$T$122, DW_AT_decl_column(0x17)
    2226                    $C$DW$T$123     .dwtag  DW_TAG_typedef, DW_AT_name("int_fast8_t")
    2227                            .dwattr $C$DW$T$123, DW_AT_type(*$C$DW$T$21)
    2228                            .dwattr $C$DW$T$123, DW_AT_language(DW_LANG_C)
    2229                            .dwattr $C$DW$T$123, DW_AT_decl_file("C:/VLIB_Tools/CCSV5_4_0/ccsv5/tools/compiler/C6000/inclu
    2230                            .dwattr $C$DW$T$123, DW_AT_decl_line(0x49)
    2231                            .dwattr $C$DW$T$123, DW_AT_decl_column(0x17)
    2232                    $C$DW$T$124     .dwtag  DW_TAG_typedef, DW_AT_name("int_least32_t")
    2233                            .dwattr $C$DW$T$124, DW_AT_type(*$C$DW$T$21)
    2234                            .dwattr $C$DW$T$124, DW_AT_language(DW_LANG_C)
    2235                            .dwattr $C$DW$T$124, DW_AT_decl_file("C:/VLIB_Tools/CCSV5_4_0/ccsv5/tools/compiler/C6000/inclu
    2236                            .dwattr $C$DW$T$124, DW_AT_decl_line(0x3e)
    2237                            .dwattr $C$DW$T$124, DW_AT_decl_column(0x17)
    2238                    $C$DW$T$125     .dwtag  DW_TAG_typedef, DW_AT_name("intptr_t")
    2239                            .dwattr $C$DW$T$125, DW_AT_type(*$C$DW$T$10)
TMS320C6x Assembler PC v7.4.2 Thu Mar 19 12:41:40 2015

Tools Copyright (c) 1996-2012 Texas Instruments Incorporated
package/lib/Regression/regress_d_c/./../packages/ti/vlib/src/VLIB_histogram_1D_Init_U8/VLIB_histogram_1D_Init_U8_d.se66 PAGE   48

    2240                            .dwattr $C$DW$T$125, DW_AT_language(DW_LANG_C)
    2241                            .dwattr $C$DW$T$125, DW_AT_decl_file("C:/VLIB_Tools/CCSV5_4_0/ccsv5/tools/compiler/C6000/inclu
    2242                            .dwattr $C$DW$T$125, DW_AT_decl_line(0x58)
    2243                            .dwattr $C$DW$T$125, DW_AT_decl_column(0x1a)
    2244                    $C$DW$T$11      .dwtag  DW_TAG_base_type
    2245                            .dwattr $C$DW$T$11, DW_AT_encoding(DW_ATE_unsigned)
    2246                            .dwattr $C$DW$T$11, DW_AT_name("unsigned int")
    2247                            .dwattr $C$DW$T$11, DW_AT_byte_size(0x04)
    2248                    $C$DW$T$127     .dwtag  DW_TAG_typedef, DW_AT_name("VLIB_VAL")
    2249                            .dwattr $C$DW$T$127, DW_AT_type(*$C$DW$T$11)
    2250                            .dwattr $C$DW$T$127, DW_AT_language(DW_LANG_C)
    2251                            .dwattr $C$DW$T$127, DW_AT_decl_file(".\..\packages\ti\vlib\src\VLIB_histogram_1D_Init_U8\..\c
    2252                            .dwattr $C$DW$T$127, DW_AT_decl_line(0x5d)
    2253                            .dwattr $C$DW$T$127, DW_AT_decl_column(0x17)
    2254                    $C$DW$T$138     .dwtag  DW_TAG_typedef, DW_AT_name("clock_t")
    2255                            .dwattr $C$DW$T$138, DW_AT_type(*$C$DW$T$11)
    2256                            .dwattr $C$DW$T$138, DW_AT_language(DW_LANG_C)
    2257                            .dwattr $C$DW$T$138, DW_AT_decl_file("C:/VLIB_Tools/CCSV5_4_0/ccsv5/tools/compiler/C6000/inclu
    2258                            .dwattr $C$DW$T$138, DW_AT_decl_line(0x37)
    2259                            .dwattr $C$DW$T$138, DW_AT_decl_column(0x16)
    2260                    $C$DW$T$51      .dwtag  DW_TAG_typedef, DW_AT_name("size_t")
    2261                            .dwattr $C$DW$T$51, DW_AT_type(*$C$DW$T$11)
    2262                            .dwattr $C$DW$T$51, DW_AT_language(DW_LANG_C)
    2263                            .dwattr $C$DW$T$51, DW_AT_decl_file("C:/VLIB_Tools/CCSV5_4_0/ccsv5/tools/compiler/C6000/includ
    2264                            .dwattr $C$DW$T$51, DW_AT_decl_line(0x45)
    2265                            .dwattr $C$DW$T$51, DW_AT_decl_column(0x19)
    2266                    $C$DW$T$131     .dwtag  DW_TAG_typedef, DW_AT_name("time_t")
    2267                            .dwattr $C$DW$T$131, DW_AT_type(*$C$DW$T$11)
    2268                            .dwattr $C$DW$T$131, DW_AT_language(DW_LANG_C)
    2269                            .dwattr $C$DW$T$131, DW_AT_decl_file("C:/VLIB_Tools/CCSV5_4_0/ccsv5/tools/compiler/C6000/inclu
    2270                            .dwattr $C$DW$T$131, DW_AT_decl_line(0x38)
    2271                            .dwattr $C$DW$T$131, DW_AT_decl_column(0x16)
    2272                    $C$DW$T$67      .dwtag  DW_TAG_typedef, DW_AT_name("uint32_t")
    2273                            .dwattr $C$DW$T$67, DW_AT_type(*$C$DW$T$11)
    2274                            .dwattr $C$DW$T$67, DW_AT_language(DW_LANG_C)
    2275                            .dwattr $C$DW$T$67, DW_AT_decl_file("C:/VLIB_Tools/CCSV5_4_0/ccsv5/tools/compiler/C6000/includ
    2276                            .dwattr $C$DW$T$67, DW_AT_decl_line(0x2f)
    2277                            .dwattr $C$DW$T$67, DW_AT_decl_column(0x1c)
    2278                    $C$DW$T$133     .dwtag  DW_TAG_typedef, DW_AT_name("uint_fast16_t")
    2279                            .dwattr $C$DW$T$133, DW_AT_type(*$C$DW$T$67)
    2280                            .dwattr $C$DW$T$133, DW_AT_language(DW_LANG_C)
    2281                            .dwattr $C$DW$T$133, DW_AT_decl_file("C:/VLIB_Tools/CCSV5_4_0/ccsv5/tools/compiler/C6000/inclu
    2282                            .dwattr $C$DW$T$133, DW_AT_decl_line(0x4c)
    2283                            .dwattr $C$DW$T$133, DW_AT_decl_column(0x16)
    2284                    $C$DW$T$134     .dwtag  DW_TAG_typedef, DW_AT_name("uint_fast32_t")
    2285                            .dwattr $C$DW$T$134, DW_AT_type(*$C$DW$T$67)
    2286                            .dwattr $C$DW$T$134, DW_AT_language(DW_LANG_C)
    2287                            .dwattr $C$DW$T$134, DW_AT_decl_file("C:/VLIB_Tools/CCSV5_4_0/ccsv5/tools/compiler/C6000/inclu
    2288                            .dwattr $C$DW$T$134, DW_AT_decl_line(0x4f)
    2289                            .dwattr $C$DW$T$134, DW_AT_decl_column(0x16)
    2290                    $C$DW$T$135     .dwtag  DW_TAG_typedef, DW_AT_name("uint_fast8_t")
    2291                            .dwattr $C$DW$T$135, DW_AT_type(*$C$DW$T$67)
    2292                            .dwattr $C$DW$T$135, DW_AT_language(DW_LANG_C)
    2293                            .dwattr $C$DW$T$135, DW_AT_decl_file("C:/VLIB_Tools/CCSV5_4_0/ccsv5/tools/compiler/C6000/inclu
    2294                            .dwattr $C$DW$T$135, DW_AT_decl_line(0x4a)
TMS320C6x Assembler PC v7.4.2 Thu Mar 19 12:41:40 2015

Tools Copyright (c) 1996-2012 Texas Instruments Incorporated
package/lib/Regression/regress_d_c/./../packages/ti/vlib/src/VLIB_histogram_1D_Init_U8/VLIB_histogram_1D_Init_U8_d.se66 PAGE   49

    2295                            .dwattr $C$DW$T$135, DW_AT_decl_column(0x16)
    2296                    $C$DW$T$136     .dwtag  DW_TAG_typedef, DW_AT_name("uint_least32_t")
    2297                            .dwattr $C$DW$T$136, DW_AT_type(*$C$DW$T$67)
    2298                            .dwattr $C$DW$T$136, DW_AT_language(DW_LANG_C)
    2299                            .dwattr $C$DW$T$136, DW_AT_decl_file("C:/VLIB_Tools/CCSV5_4_0/ccsv5/tools/compiler/C6000/inclu
    2300                            .dwattr $C$DW$T$136, DW_AT_decl_line(0x3f)
    2301                            .dwattr $C$DW$T$136, DW_AT_decl_column(0x16)
    2302                    $C$DW$T$137     .dwtag  DW_TAG_typedef, DW_AT_name("uintptr_t")
    2303                            .dwattr $C$DW$T$137, DW_AT_type(*$C$DW$T$11)
    2304                            .dwattr $C$DW$T$137, DW_AT_language(DW_LANG_C)
    2305                            .dwattr $C$DW$T$137, DW_AT_decl_file("C:/VLIB_Tools/CCSV5_4_0/ccsv5/tools/compiler/C6000/inclu
    2306                            .dwattr $C$DW$T$137, DW_AT_decl_line(0x59)
    2307                            .dwattr $C$DW$T$137, DW_AT_decl_column(0x1a)
    2308                    $C$DW$T$12      .dwtag  DW_TAG_base_type
    2309                            .dwattr $C$DW$T$12, DW_AT_encoding(DW_ATE_signed)
    2310                            .dwattr $C$DW$T$12, DW_AT_name("__int40_t")
    2311                            .dwattr $C$DW$T$12, DW_AT_byte_size(0x08)
    2312                            .dwattr $C$DW$T$12, DW_AT_bit_size(0x28)
    2313                            .dwattr $C$DW$T$12, DW_AT_bit_offset(0x18)
    2314                    $C$DW$T$139     .dwtag  DW_TAG_typedef, DW_AT_name("int40_t")
    2315                            .dwattr $C$DW$T$139, DW_AT_type(*$C$DW$T$12)
    2316                            .dwattr $C$DW$T$139, DW_AT_language(DW_LANG_C)
    2317                            .dwattr $C$DW$T$139, DW_AT_decl_file("C:/VLIB_Tools/CCSV5_4_0/ccsv5/tools/compiler/C6000/inclu
    2318                            .dwattr $C$DW$T$139, DW_AT_decl_line(0x31)
    2319                            .dwattr $C$DW$T$139, DW_AT_decl_column(0x21)
    2320                    $C$DW$T$140     .dwtag  DW_TAG_typedef, DW_AT_name("int_fast40_t")
    2321                            .dwattr $C$DW$T$140, DW_AT_type(*$C$DW$T$139)
    2322                            .dwattr $C$DW$T$140, DW_AT_language(DW_LANG_C)
    2323                            .dwattr $C$DW$T$140, DW_AT_decl_file("C:/VLIB_Tools/CCSV5_4_0/ccsv5/tools/compiler/C6000/inclu
    2324                            .dwattr $C$DW$T$140, DW_AT_decl_line(0x51)
    2325                            .dwattr $C$DW$T$140, DW_AT_decl_column(0x17)
    2326                    $C$DW$T$141     .dwtag  DW_TAG_typedef, DW_AT_name("int_least40_t")
    2327                            .dwattr $C$DW$T$141, DW_AT_type(*$C$DW$T$139)
    2328                            .dwattr $C$DW$T$141, DW_AT_language(DW_LANG_C)
    2329                            .dwattr $C$DW$T$141, DW_AT_decl_file("C:/VLIB_Tools/CCSV5_4_0/ccsv5/tools/compiler/C6000/inclu
    2330                            .dwattr $C$DW$T$141, DW_AT_decl_line(0x41)
    2331                            .dwattr $C$DW$T$141, DW_AT_decl_column(0x17)
    2332                    $C$DW$T$13      .dwtag  DW_TAG_base_type
    2333                            .dwattr $C$DW$T$13, DW_AT_encoding(DW_ATE_unsigned)
    2334                            .dwattr $C$DW$T$13, DW_AT_name("unsigned __int40_t")
    2335                            .dwattr $C$DW$T$13, DW_AT_byte_size(0x08)
    2336                            .dwattr $C$DW$T$13, DW_AT_bit_size(0x28)
    2337                            .dwattr $C$DW$T$13, DW_AT_bit_offset(0x18)
    2338                    $C$DW$T$142     .dwtag  DW_TAG_typedef, DW_AT_name("uint40_t")
    2339                            .dwattr $C$DW$T$142, DW_AT_type(*$C$DW$T$13)
    2340                            .dwattr $C$DW$T$142, DW_AT_language(DW_LANG_C)
    2341                            .dwattr $C$DW$T$142, DW_AT_decl_file("C:/VLIB_Tools/CCSV5_4_0/ccsv5/tools/compiler/C6000/inclu
    2342                            .dwattr $C$DW$T$142, DW_AT_decl_line(0x32)
    2343                            .dwattr $C$DW$T$142, DW_AT_decl_column(0x20)
    2344                    $C$DW$T$143     .dwtag  DW_TAG_typedef, DW_AT_name("uint_fast40_t")
    2345                            .dwattr $C$DW$T$143, DW_AT_type(*$C$DW$T$142)
    2346                            .dwattr $C$DW$T$143, DW_AT_language(DW_LANG_C)
    2347                            .dwattr $C$DW$T$143, DW_AT_decl_file("C:/VLIB_Tools/CCSV5_4_0/ccsv5/tools/compiler/C6000/inclu
    2348                            .dwattr $C$DW$T$143, DW_AT_decl_line(0x52)
    2349                            .dwattr $C$DW$T$143, DW_AT_decl_column(0x16)
TMS320C6x Assembler PC v7.4.2 Thu Mar 19 12:41:40 2015

Tools Copyright (c) 1996-2012 Texas Instruments Incorporated
package/lib/Regression/regress_d_c/./../packages/ti/vlib/src/VLIB_histogram_1D_Init_U8/VLIB_histogram_1D_Init_U8_d.se66 PAGE   50

    2350                    $C$DW$T$144     .dwtag  DW_TAG_typedef, DW_AT_name("uint_least40_t")
    2351                            .dwattr $C$DW$T$144, DW_AT_type(*$C$DW$T$142)
    2352                            .dwattr $C$DW$T$144, DW_AT_language(DW_LANG_C)
    2353                            .dwattr $C$DW$T$144, DW_AT_decl_file("C:/VLIB_Tools/CCSV5_4_0/ccsv5/tools/compiler/C6000/inclu
    2354                            .dwattr $C$DW$T$144, DW_AT_decl_line(0x42)
    2355                            .dwattr $C$DW$T$144, DW_AT_decl_column(0x16)
    2356                    $C$DW$T$14      .dwtag  DW_TAG_base_type
    2357                            .dwattr $C$DW$T$14, DW_AT_encoding(DW_ATE_signed)
    2358                            .dwattr $C$DW$T$14, DW_AT_name("long long")
    2359                            .dwattr $C$DW$T$14, DW_AT_byte_size(0x08)
    2360                    $C$DW$T$146     .dwtag  DW_TAG_typedef, DW_AT_name("int64_t")
    2361                            .dwattr $C$DW$T$146, DW_AT_type(*$C$DW$T$14)
    2362                            .dwattr $C$DW$T$146, DW_AT_language(DW_LANG_C)
    2363                            .dwattr $C$DW$T$146, DW_AT_decl_file("C:/VLIB_Tools/CCSV5_4_0/ccsv5/tools/compiler/C6000/inclu
    2364                            .dwattr $C$DW$T$146, DW_AT_decl_line(0x34)
    2365                            .dwattr $C$DW$T$146, DW_AT_decl_column(0x21)
    2366                    $C$DW$T$147     .dwtag  DW_TAG_typedef, DW_AT_name("int_fast64_t")
    2367                            .dwattr $C$DW$T$147, DW_AT_type(*$C$DW$T$146)
    2368                            .dwattr $C$DW$T$147, DW_AT_language(DW_LANG_C)
    2369                            .dwattr $C$DW$T$147, DW_AT_decl_file("C:/VLIB_Tools/CCSV5_4_0/ccsv5/tools/compiler/C6000/inclu
    2370                            .dwattr $C$DW$T$147, DW_AT_decl_line(0x54)
    2371                            .dwattr $C$DW$T$147, DW_AT_decl_column(0x17)
    2372                    $C$DW$T$148     .dwtag  DW_TAG_typedef, DW_AT_name("int_least64_t")
    2373                            .dwattr $C$DW$T$148, DW_AT_type(*$C$DW$T$146)
    2374                            .dwattr $C$DW$T$148, DW_AT_language(DW_LANG_C)
    2375                            .dwattr $C$DW$T$148, DW_AT_decl_file("C:/VLIB_Tools/CCSV5_4_0/ccsv5/tools/compiler/C6000/inclu
    2376                            .dwattr $C$DW$T$148, DW_AT_decl_line(0x44)
    2377                            .dwattr $C$DW$T$148, DW_AT_decl_column(0x17)
    2378                    $C$DW$T$149     .dwtag  DW_TAG_typedef, DW_AT_name("intmax_t")
    2379                            .dwattr $C$DW$T$149, DW_AT_type(*$C$DW$T$14)
    2380                            .dwattr $C$DW$T$149, DW_AT_language(DW_LANG_C)
    2381                            .dwattr $C$DW$T$149, DW_AT_decl_file("C:/VLIB_Tools/CCSV5_4_0/ccsv5/tools/compiler/C6000/inclu
    2382                            .dwattr $C$DW$T$149, DW_AT_decl_line(0x5c)
    2383                            .dwattr $C$DW$T$149, DW_AT_decl_column(0x20)
    2384                    $C$DW$T$15      .dwtag  DW_TAG_base_type
    2385                            .dwattr $C$DW$T$15, DW_AT_encoding(DW_ATE_unsigned)
    2386                            .dwattr $C$DW$T$15, DW_AT_name("unsigned long long")
    2387                            .dwattr $C$DW$T$15, DW_AT_byte_size(0x08)
    2388                    $C$DW$T$151     .dwtag  DW_TAG_pointer_type
    2389                            .dwattr $C$DW$T$151, DW_AT_type(*$C$DW$T$15)
    2390                            .dwattr $C$DW$T$151, DW_AT_address_class(0x20)
    2391                    $C$DW$T$152     .dwtag  DW_TAG_typedef, DW_AT_name("uint64_t")
    2392                            .dwattr $C$DW$T$152, DW_AT_type(*$C$DW$T$15)
    2393                            .dwattr $C$DW$T$152, DW_AT_language(DW_LANG_C)
    2394                            .dwattr $C$DW$T$152, DW_AT_decl_file("C:/VLIB_Tools/CCSV5_4_0/ccsv5/tools/compiler/C6000/inclu
    2395                            .dwattr $C$DW$T$152, DW_AT_decl_line(0x35)
    2396                            .dwattr $C$DW$T$152, DW_AT_decl_column(0x20)
    2397                    
    2398                    $C$DW$T$153     .dwtag  DW_TAG_array_type
    2399                            .dwattr $C$DW$T$153, DW_AT_type(*$C$DW$T$152)
    2400                            .dwattr $C$DW$T$153, DW_AT_language(DW_LANG_C)
    2401                            .dwattr $C$DW$T$153, DW_AT_byte_size(0x10)
    2402                    $C$DW$206       .dwtag  DW_TAG_subrange_type
    2403                            .dwattr $C$DW$206, DW_AT_upper_bound(0x01)
    2404                            .dwendtag $C$DW$T$153
TMS320C6x Assembler PC v7.4.2 Thu Mar 19 12:41:40 2015

Tools Copyright (c) 1996-2012 Texas Instruments Incorporated
package/lib/Regression/regress_d_c/./../packages/ti/vlib/src/VLIB_histogram_1D_Init_U8/VLIB_histogram_1D_Init_U8_d.se66 PAGE   51

    2405                    
    2406                    $C$DW$T$154     .dwtag  DW_TAG_typedef, DW_AT_name("uint_fast64_t")
    2407                            .dwattr $C$DW$T$154, DW_AT_type(*$C$DW$T$152)
    2408                            .dwattr $C$DW$T$154, DW_AT_language(DW_LANG_C)
    2409                            .dwattr $C$DW$T$154, DW_AT_decl_file("C:/VLIB_Tools/CCSV5_4_0/ccsv5/tools/compiler/C6000/inclu
    2410                            .dwattr $C$DW$T$154, DW_AT_decl_line(0x55)
    2411                            .dwattr $C$DW$T$154, DW_AT_decl_column(0x16)
    2412                    $C$DW$T$155     .dwtag  DW_TAG_typedef, DW_AT_name("uint_least64_t")
    2413                            .dwattr $C$DW$T$155, DW_AT_type(*$C$DW$T$152)
    2414                            .dwattr $C$DW$T$155, DW_AT_language(DW_LANG_C)
    2415                            .dwattr $C$DW$T$155, DW_AT_decl_file("C:/VLIB_Tools/CCSV5_4_0/ccsv5/tools/compiler/C6000/inclu
    2416                            .dwattr $C$DW$T$155, DW_AT_decl_line(0x45)
    2417                            .dwattr $C$DW$T$155, DW_AT_decl_column(0x16)
    2418                    $C$DW$T$156     .dwtag  DW_TAG_typedef, DW_AT_name("uintmax_t")
    2419                            .dwattr $C$DW$T$156, DW_AT_type(*$C$DW$T$15)
    2420                            .dwattr $C$DW$T$156, DW_AT_language(DW_LANG_C)
    2421                            .dwattr $C$DW$T$156, DW_AT_decl_file("C:/VLIB_Tools/CCSV5_4_0/ccsv5/tools/compiler/C6000/inclu
    2422                            .dwattr $C$DW$T$156, DW_AT_decl_line(0x5d)
    2423                            .dwattr $C$DW$T$156, DW_AT_decl_column(0x20)
    2424                    $C$DW$T$16      .dwtag  DW_TAG_base_type
    2425                            .dwattr $C$DW$T$16, DW_AT_encoding(DW_ATE_float)
    2426                            .dwattr $C$DW$T$16, DW_AT_name("float")
    2427                            .dwattr $C$DW$T$16, DW_AT_byte_size(0x04)
    2428                    $C$DW$T$157     .dwtag  DW_TAG_typedef, DW_AT_name("VLIB_F32")
    2429                            .dwattr $C$DW$T$157, DW_AT_type(*$C$DW$T$16)
    2430                            .dwattr $C$DW$T$157, DW_AT_language(DW_LANG_C)
    2431                            .dwattr $C$DW$T$157, DW_AT_decl_file(".\..\packages\ti\vlib\src\VLIB_histogram_1D_Init_U8\..\c
    2432                            .dwattr $C$DW$T$157, DW_AT_decl_line(0x5b)
    2433                            .dwattr $C$DW$T$157, DW_AT_decl_column(0x0f)
    2434                    $C$DW$T$158     .dwtag  DW_TAG_typedef, DW_AT_name("float32_t")
    2435                            .dwattr $C$DW$T$158, DW_AT_type(*$C$DW$T$16)
    2436                            .dwattr $C$DW$T$158, DW_AT_language(DW_LANG_C)
    2437                            .dwattr $C$DW$T$158, DW_AT_decl_file("C:\VLIB_Tools\CCSV5_4_0\ccsv5\tools\compiler\C6000\inclu
    2438                            .dwattr $C$DW$T$158, DW_AT_decl_line(0x30)
    2439                            .dwattr $C$DW$T$158, DW_AT_decl_column(0x0f)
    2440                    $C$DW$T$17      .dwtag  DW_TAG_base_type
    2441                            .dwattr $C$DW$T$17, DW_AT_encoding(DW_ATE_float)
    2442                            .dwattr $C$DW$T$17, DW_AT_name("double")
    2443                            .dwattr $C$DW$T$17, DW_AT_byte_size(0x08)
    2444                    $C$DW$T$159     .dwtag  DW_TAG_typedef, DW_AT_name("VLIB_D64")
    2445                            .dwattr $C$DW$T$159, DW_AT_type(*$C$DW$T$17)
    2446                            .dwattr $C$DW$T$159, DW_AT_language(DW_LANG_C)
    2447                            .dwattr $C$DW$T$159, DW_AT_decl_file(".\..\packages\ti\vlib\src\VLIB_histogram_1D_Init_U8\..\c
    2448                            .dwattr $C$DW$T$159, DW_AT_decl_line(0x5a)
    2449                            .dwattr $C$DW$T$159, DW_AT_decl_column(0x10)
    2450                    $C$DW$T$160     .dwtag  DW_TAG_typedef, DW_AT_name("__float2_t")
    2451                            .dwattr $C$DW$T$160, DW_AT_type(*$C$DW$T$17)
    2452                            .dwattr $C$DW$T$160, DW_AT_language(DW_LANG_C)
    2453                            .dwattr $C$DW$T$160, DW_AT_decl_file("C:/VLIB_Tools/CCSV5_4_0/ccsv5/tools/compiler/C6000/inclu
    2454                            .dwattr $C$DW$T$160, DW_AT_decl_line(0x5f)
    2455                            .dwattr $C$DW$T$160, DW_AT_decl_column(0x14)
    2456                    $C$DW$T$18      .dwtag  DW_TAG_base_type
    2457                            .dwattr $C$DW$T$18, DW_AT_encoding(DW_ATE_float)
    2458                            .dwattr $C$DW$T$18, DW_AT_name("long double")
    2459                            .dwattr $C$DW$T$18, DW_AT_byte_size(0x08)
TMS320C6x Assembler PC v7.4.2 Thu Mar 19 12:41:40 2015

Tools Copyright (c) 1996-2012 Texas Instruments Incorporated
package/lib/Regression/regress_d_c/./../packages/ti/vlib/src/VLIB_histogram_1D_Init_U8/VLIB_histogram_1D_Init_U8_d.se66 PAGE   52

    2460                    $C$DW$T$29      .dwtag  DW_TAG_base_type
    2461                            .dwattr $C$DW$T$29, DW_AT_encoding(DW_ATE_signed_char)
    2462                            .dwattr $C$DW$T$29, DW_AT_name("signed char")
    2463                            .dwattr $C$DW$T$29, DW_AT_byte_size(0x01)
    2464                    
    2465                    $C$DW$T$30      .dwtag  DW_TAG_array_type
    2466                            .dwattr $C$DW$T$30, DW_AT_type(*$C$DW$T$29)
    2467                            .dwattr $C$DW$T$30, DW_AT_language(DW_LANG_C)
    2468                            .dwattr $C$DW$T$30, DW_AT_byte_size(0x04)
    2469                    $C$DW$207       .dwtag  DW_TAG_subrange_type
    2470                            .dwattr $C$DW$207, DW_AT_upper_bound(0x03)
    2471                            .dwendtag $C$DW$T$30
    2472                    
    2473                    $C$DW$T$58      .dwtag  DW_TAG_pointer_type
    2474                            .dwattr $C$DW$T$58, DW_AT_type(*$C$DW$T$29)
    2475                            .dwattr $C$DW$T$58, DW_AT_address_class(0x20)
    2476                    $C$DW$T$161     .dwtag  DW_TAG_typedef, DW_AT_name("va_list")
    2477                            .dwattr $C$DW$T$161, DW_AT_type(*$C$DW$T$58)
    2478                            .dwattr $C$DW$T$161, DW_AT_language(DW_LANG_C)
    2479                            .dwattr $C$DW$T$161, DW_AT_decl_file("C:/VLIB_Tools/CCSV5_4_0/ccsv5/tools/compiler/C6000/inclu
    2480                            .dwattr $C$DW$T$161, DW_AT_decl_line(0x2f)
    2481                            .dwattr $C$DW$T$161, DW_AT_decl_column(0x12)
    2482                    $C$DW$T$101     .dwtag  DW_TAG_const_type
    2483                            .dwattr $C$DW$T$101, DW_AT_type(*$C$DW$T$29)
    2484                    $C$DW$T$102     .dwtag  DW_TAG_pointer_type
    2485                            .dwattr $C$DW$T$102, DW_AT_type(*$C$DW$T$101)
    2486                            .dwattr $C$DW$T$102, DW_AT_address_class(0x20)
    2487                    
    2488                    $C$DW$T$162     .dwtag  DW_TAG_array_type
    2489                            .dwattr $C$DW$T$162, DW_AT_type(*$C$DW$T$29)
    2490                            .dwattr $C$DW$T$162, DW_AT_language(DW_LANG_C)
    2491                    $C$DW$208       .dwtag  DW_TAG_subrange_type
    2492                            .dwendtag $C$DW$T$162
    2493                    
    2494                    
    2495                    $C$DW$T$33      .dwtag  DW_TAG_structure_type
    2496                            .dwattr $C$DW$T$33, DW_AT_name("__simd128_int32_t")
    2497                            .dwattr $C$DW$T$33, DW_AT_byte_size(0x10)
    2498                    $C$DW$209       .dwtag  DW_TAG_member
    2499                            .dwattr $C$DW$209, DW_AT_type(*$C$DW$T$32)
    2500                            .dwattr $C$DW$209, DW_AT_name("_v")
    2501                            .dwattr $C$DW$209, DW_AT_TI_symbol_name("_v")
    2502                            .dwattr $C$DW$209, DW_AT_data_member_location[DW_OP_plus_uconst 0x0]
    2503                            .dwattr $C$DW$209, DW_AT_accessibility(DW_ACCESS_public)
    2504                            .dwattr $C$DW$209, DW_AT_decl_file("C:\VLIB_Tools\CCSV5_4_0\ccsv5\tools\compiler\C6000\include
    2505                            .dwattr $C$DW$209, DW_AT_decl_line(0x44)
    2506                            .dwattr $C$DW$209, DW_AT_decl_column(0x01)
    2507                            .dwendtag $C$DW$T$33
    2508                    
    2509                            .dwattr $C$DW$T$33, DW_AT_decl_file("C:\VLIB_Tools\CCSV5_4_0\ccsv5\tools\compiler\C6000\includ
    2510                            .dwattr $C$DW$T$33, DW_AT_decl_line(0x44)
    2511                            .dwattr $C$DW$T$33, DW_AT_decl_column(0x01)
    2512                    $C$DW$T$163     .dwtag  DW_TAG_typedef, DW_AT_name("int32x4_t")
    2513                            .dwattr $C$DW$T$163, DW_AT_type(*$C$DW$T$33)
    2514                            .dwattr $C$DW$T$163, DW_AT_language(DW_LANG_C)
TMS320C6x Assembler PC v7.4.2 Thu Mar 19 12:41:40 2015

Tools Copyright (c) 1996-2012 Texas Instruments Incorporated
package/lib/Regression/regress_d_c/./../packages/ti/vlib/src/VLIB_histogram_1D_Init_U8/VLIB_histogram_1D_Init_U8_d.se66 PAGE   53

    2515                            .dwattr $C$DW$T$163, DW_AT_decl_file("C:\VLIB_Tools\CCSV5_4_0\ccsv5\tools\compiler\C6000\inclu
    2516                            .dwattr $C$DW$T$163, DW_AT_decl_line(0x44)
    2517                            .dwattr $C$DW$T$163, DW_AT_decl_column(0x01)
    2518                    $C$DW$T$164     .dwtag  DW_TAG_typedef, DW_AT_name("__x128_t")
    2519                            .dwattr $C$DW$T$164, DW_AT_type(*$C$DW$T$163)
    2520                            .dwattr $C$DW$T$164, DW_AT_language(DW_LANG_C)
    2521                            .dwattr $C$DW$T$164, DW_AT_decl_file("C:\VLIB_Tools\CCSV5_4_0\ccsv5\tools\compiler\C6000\inclu
    2522                            .dwattr $C$DW$T$164, DW_AT_decl_line(0x46)
    2523                            .dwattr $C$DW$T$164, DW_AT_decl_column(0x13)
    2524                    
    2525                    $C$DW$T$34      .dwtag  DW_TAG_structure_type
    2526                            .dwattr $C$DW$T$34, DW_AT_name("tm")
    2527                            .dwattr $C$DW$T$34, DW_AT_byte_size(0x24)
    2528                    $C$DW$210       .dwtag  DW_TAG_member
    2529                            .dwattr $C$DW$210, DW_AT_type(*$C$DW$T$10)
    2530                            .dwattr $C$DW$210, DW_AT_name("tm_sec")
    2531                            .dwattr $C$DW$210, DW_AT_TI_symbol_name("tm_sec")
    2532                            .dwattr $C$DW$210, DW_AT_data_member_location[DW_OP_plus_uconst 0x0]
    2533                            .dwattr $C$DW$210, DW_AT_accessibility(DW_ACCESS_public)
    2534                            .dwattr $C$DW$210, DW_AT_decl_file("C:/VLIB_Tools/CCSV5_4_0/ccsv5/tools/compiler/C6000/include
    2535                            .dwattr $C$DW$210, DW_AT_decl_line(0x41)
    2536                            .dwattr $C$DW$210, DW_AT_decl_column(0x09)
    2537                    $C$DW$211       .dwtag  DW_TAG_member
    2538                            .dwattr $C$DW$211, DW_AT_type(*$C$DW$T$10)
    2539                            .dwattr $C$DW$211, DW_AT_name("tm_min")
    2540                            .dwattr $C$DW$211, DW_AT_TI_symbol_name("tm_min")
    2541                            .dwattr $C$DW$211, DW_AT_data_member_location[DW_OP_plus_uconst 0x4]
    2542                            .dwattr $C$DW$211, DW_AT_accessibility(DW_ACCESS_public)
    2543                            .dwattr $C$DW$211, DW_AT_decl_file("C:/VLIB_Tools/CCSV5_4_0/ccsv5/tools/compiler/C6000/include
    2544                            .dwattr $C$DW$211, DW_AT_decl_line(0x42)
    2545                            .dwattr $C$DW$211, DW_AT_decl_column(0x09)
    2546                    $C$DW$212       .dwtag  DW_TAG_member
    2547                            .dwattr $C$DW$212, DW_AT_type(*$C$DW$T$10)
    2548                            .dwattr $C$DW$212, DW_AT_name("tm_hour")
    2549                            .dwattr $C$DW$212, DW_AT_TI_symbol_name("tm_hour")
    2550                            .dwattr $C$DW$212, DW_AT_data_member_location[DW_OP_plus_uconst 0x8]
    2551                            .dwattr $C$DW$212, DW_AT_accessibility(DW_ACCESS_public)
    2552                            .dwattr $C$DW$212, DW_AT_decl_file("C:/VLIB_Tools/CCSV5_4_0/ccsv5/tools/compiler/C6000/include
    2553                            .dwattr $C$DW$212, DW_AT_decl_line(0x43)
    2554                            .dwattr $C$DW$212, DW_AT_decl_column(0x09)
    2555                    $C$DW$213       .dwtag  DW_TAG_member
    2556                            .dwattr $C$DW$213, DW_AT_type(*$C$DW$T$10)
    2557                            .dwattr $C$DW$213, DW_AT_name("tm_mday")
    2558                            .dwattr $C$DW$213, DW_AT_TI_symbol_name("tm_mday")
    2559                            .dwattr $C$DW$213, DW_AT_data_member_location[DW_OP_plus_uconst 0xc]
    2560                            .dwattr $C$DW$213, DW_AT_accessibility(DW_ACCESS_public)
    2561                            .dwattr $C$DW$213, DW_AT_decl_file("C:/VLIB_Tools/CCSV5_4_0/ccsv5/tools/compiler/C6000/include
    2562                            .dwattr $C$DW$213, DW_AT_decl_line(0x44)
    2563                            .dwattr $C$DW$213, DW_AT_decl_column(0x09)
    2564                    $C$DW$214       .dwtag  DW_TAG_member
    2565                            .dwattr $C$DW$214, DW_AT_type(*$C$DW$T$10)
    2566                            .dwattr $C$DW$214, DW_AT_name("tm_mon")
    2567                            .dwattr $C$DW$214, DW_AT_TI_symbol_name("tm_mon")
    2568                            .dwattr $C$DW$214, DW_AT_data_member_location[DW_OP_plus_uconst 0x10]
    2569                            .dwattr $C$DW$214, DW_AT_accessibility(DW_ACCESS_public)
TMS320C6x Assembler PC v7.4.2 Thu Mar 19 12:41:40 2015

Tools Copyright (c) 1996-2012 Texas Instruments Incorporated
package/lib/Regression/regress_d_c/./../packages/ti/vlib/src/VLIB_histogram_1D_Init_U8/VLIB_histogram_1D_Init_U8_d.se66 PAGE   54

    2570                            .dwattr $C$DW$214, DW_AT_decl_file("C:/VLIB_Tools/CCSV5_4_0/ccsv5/tools/compiler/C6000/include
    2571                            .dwattr $C$DW$214, DW_AT_decl_line(0x45)
    2572                            .dwattr $C$DW$214, DW_AT_decl_column(0x09)
    2573                    $C$DW$215       .dwtag  DW_TAG_member
    2574                            .dwattr $C$DW$215, DW_AT_type(*$C$DW$T$10)
    2575                            .dwattr $C$DW$215, DW_AT_name("tm_year")
    2576                            .dwattr $C$DW$215, DW_AT_TI_symbol_name("tm_year")
    2577                            .dwattr $C$DW$215, DW_AT_data_member_location[DW_OP_plus_uconst 0x14]
    2578                            .dwattr $C$DW$215, DW_AT_accessibility(DW_ACCESS_public)
    2579                            .dwattr $C$DW$215, DW_AT_decl_file("C:/VLIB_Tools/CCSV5_4_0/ccsv5/tools/compiler/C6000/include
    2580                            .dwattr $C$DW$215, DW_AT_decl_line(0x46)
    2581                            .dwattr $C$DW$215, DW_AT_decl_column(0x09)
    2582                    $C$DW$216       .dwtag  DW_TAG_member
    2583                            .dwattr $C$DW$216, DW_AT_type(*$C$DW$T$10)
    2584                            .dwattr $C$DW$216, DW_AT_name("tm_wday")
    2585                            .dwattr $C$DW$216, DW_AT_TI_symbol_name("tm_wday")
    2586                            .dwattr $C$DW$216, DW_AT_data_member_location[DW_OP_plus_uconst 0x18]
    2587                            .dwattr $C$DW$216, DW_AT_accessibility(DW_ACCESS_public)
    2588                            .dwattr $C$DW$216, DW_AT_decl_file("C:/VLIB_Tools/CCSV5_4_0/ccsv5/tools/compiler/C6000/include
    2589                            .dwattr $C$DW$216, DW_AT_decl_line(0x47)
    2590                            .dwattr $C$DW$216, DW_AT_decl_column(0x09)
    2591                    $C$DW$217       .dwtag  DW_TAG_member
    2592                            .dwattr $C$DW$217, DW_AT_type(*$C$DW$T$10)
    2593                            .dwattr $C$DW$217, DW_AT_name("tm_yday")
    2594                            .dwattr $C$DW$217, DW_AT_TI_symbol_name("tm_yday")
    2595                            .dwattr $C$DW$217, DW_AT_data_member_location[DW_OP_plus_uconst 0x1c]
    2596                            .dwattr $C$DW$217, DW_AT_accessibility(DW_ACCESS_public)
    2597                            .dwattr $C$DW$217, DW_AT_decl_file("C:/VLIB_Tools/CCSV5_4_0/ccsv5/tools/compiler/C6000/include
    2598                            .dwattr $C$DW$217, DW_AT_decl_line(0x48)
    2599                            .dwattr $C$DW$217, DW_AT_decl_column(0x09)
    2600                    $C$DW$218       .dwtag  DW_TAG_member
    2601                            .dwattr $C$DW$218, DW_AT_type(*$C$DW$T$10)
    2602                            .dwattr $C$DW$218, DW_AT_name("tm_isdst")
    2603                            .dwattr $C$DW$218, DW_AT_TI_symbol_name("tm_isdst")
    2604                            .dwattr $C$DW$218, DW_AT_data_member_location[DW_OP_plus_uconst 0x20]
    2605                            .dwattr $C$DW$218, DW_AT_accessibility(DW_ACCESS_public)
    2606                            .dwattr $C$DW$218, DW_AT_decl_file("C:/VLIB_Tools/CCSV5_4_0/ccsv5/tools/compiler/C6000/include
    2607                            .dwattr $C$DW$218, DW_AT_decl_line(0x49)
    2608                            .dwattr $C$DW$218, DW_AT_decl_column(0x09)
    2609                            .dwendtag $C$DW$T$34
    2610                    
    2611                            .dwattr $C$DW$T$34, DW_AT_decl_file("C:/VLIB_Tools/CCSV5_4_0/ccsv5/tools/compiler/C6000/includ
    2612                            .dwattr $C$DW$T$34, DW_AT_decl_line(0x3f)
    2613                            .dwattr $C$DW$T$34, DW_AT_decl_column(0x08)
    2614                            .dwattr $C$DW$CU, DW_AT_language(DW_LANG_C)
    2615                    
    2616                    ;***************************************************************
    2617                    ;* DWARF CIE ENTRIES                                           *
    2618                    ;***************************************************************
    2619                    
    2620                    $C$DW$CIE       .dwcie 19
    2621                            .dwcfi  cfa_register, 31
    2622                            .dwcfi  cfa_offset, 0
    2623                            .dwcfi  undefined, 0
    2624                            .dwcfi  undefined, 1
TMS320C6x Assembler PC v7.4.2 Thu Mar 19 12:41:40 2015

Tools Copyright (c) 1996-2012 Texas Instruments Incorporated
package/lib/Regression/regress_d_c/./../packages/ti/vlib/src/VLIB_histogram_1D_Init_U8/VLIB_histogram_1D_Init_U8_d.se66 PAGE   55

    2625                            .dwcfi  undefined, 2
    2626                            .dwcfi  undefined, 3
    2627                            .dwcfi  undefined, 4
    2628                            .dwcfi  undefined, 5
    2629                            .dwcfi  undefined, 6
    2630                            .dwcfi  undefined, 7
    2631                            .dwcfi  undefined, 8
    2632                            .dwcfi  undefined, 9
    2633                            .dwcfi  same_value, 10
    2634                            .dwcfi  same_value, 11
    2635                            .dwcfi  same_value, 12
    2636                            .dwcfi  same_value, 13
    2637                            .dwcfi  same_value, 14
    2638                            .dwcfi  same_value, 15
    2639                            .dwcfi  undefined, 16
    2640                            .dwcfi  undefined, 17
    2641                            .dwcfi  undefined, 18
    2642                            .dwcfi  undefined, 19
    2643                            .dwcfi  undefined, 20
    2644                            .dwcfi  undefined, 21
    2645                            .dwcfi  undefined, 22
    2646                            .dwcfi  undefined, 23
    2647                            .dwcfi  undefined, 24
    2648                            .dwcfi  undefined, 25
    2649                            .dwcfi  same_value, 26
    2650                            .dwcfi  same_value, 27
    2651                            .dwcfi  same_value, 28
    2652                            .dwcfi  same_value, 29
    2653                            .dwcfi  same_value, 30
    2654                            .dwcfi  same_value, 31
    2655                            .dwcfi  same_value, 32
    2656                            .dwcfi  undefined, 33
    2657                            .dwcfi  undefined, 34
    2658                            .dwcfi  undefined, 35
    2659                            .dwcfi  undefined, 36
    2660                            .dwcfi  undefined, 37
    2661                            .dwcfi  undefined, 38
    2662                            .dwcfi  undefined, 39
    2663                            .dwcfi  undefined, 40
    2664                            .dwcfi  undefined, 41
    2665                            .dwcfi  undefined, 42
    2666                            .dwcfi  undefined, 43
    2667                            .dwcfi  undefined, 44
    2668                            .dwcfi  undefined, 45
    2669                            .dwcfi  undefined, 46
    2670                            .dwcfi  undefined, 47
    2671                            .dwcfi  undefined, 48
    2672                            .dwcfi  undefined, 49
    2673                            .dwcfi  undefined, 50
    2674                            .dwcfi  undefined, 51
    2675                            .dwcfi  undefined, 52
    2676                            .dwcfi  undefined, 53
    2677                            .dwcfi  undefined, 54
    2678                            .dwcfi  undefined, 55
    2679                            .dwcfi  undefined, 56
TMS320C6x Assembler PC v7.4.2 Thu Mar 19 12:41:40 2015

Tools Copyright (c) 1996-2012 Texas Instruments Incorporated
package/lib/Regression/regress_d_c/./../packages/ti/vlib/src/VLIB_histogram_1D_Init_U8/VLIB_histogram_1D_Init_U8_d.se66 PAGE   56

    2680                            .dwcfi  undefined, 57
    2681                            .dwcfi  undefined, 58
    2682                            .dwcfi  undefined, 59
    2683                            .dwcfi  undefined, 60
    2684                            .dwcfi  undefined, 61
    2685                            .dwcfi  undefined, 62
    2686                            .dwcfi  undefined, 63
    2687                            .dwcfi  undefined, 64
    2688                            .dwcfi  undefined, 65
    2689                            .dwcfi  undefined, 66
    2690                            .dwcfi  undefined, 67
    2691                            .dwcfi  undefined, 68
    2692                            .dwcfi  undefined, 69
    2693                            .dwcfi  undefined, 70
    2694                            .dwcfi  undefined, 71
    2695                            .dwcfi  undefined, 72
    2696                            .dwcfi  undefined, 73
    2697                            .dwcfi  undefined, 74
    2698                            .dwcfi  undefined, 75
    2699                            .dwcfi  undefined, 76
    2700                            .dwcfi  undefined, 77
    2701                            .dwcfi  undefined, 78
    2702                            .dwcfi  undefined, 79
    2703                            .dwcfi  undefined, 80
    2704                            .dwcfi  undefined, 81
    2705                            .dwcfi  undefined, 82
    2706                            .dwcfi  undefined, 83
    2707                            .dwcfi  undefined, 84
    2708                            .dwcfi  undefined, 85
    2709                            .dwcfi  undefined, 86
    2710                            .dwcfi  undefined, 87
    2711                            .dwcfi  undefined, 88
    2712                            .dwcfi  undefined, 89
    2713                            .dwcfi  undefined, 90
    2714                            .dwcfi  undefined, 91
    2715                            .dwcfi  undefined, 92
    2716                            .dwcfi  undefined, 93
    2717                            .dwcfi  undefined, 94
    2718                            .dwcfi  undefined, 95
    2719                            .dwcfi  undefined, 96
    2720                            .dwcfi  undefined, 97
    2721                            .dwcfi  undefined, 98
    2722                            .dwcfi  undefined, 99
    2723                            .dwcfi  undefined, 100
    2724                            .dwcfi  undefined, 101
    2725                            .dwcfi  undefined, 102
    2726                            .dwcfi  undefined, 103
    2727                            .dwcfi  undefined, 104
    2728                            .dwcfi  undefined, 105
    2729                            .dwcfi  undefined, 106
    2730                            .dwcfi  undefined, 107
    2731                            .dwcfi  undefined, 108
    2732                            .dwcfi  undefined, 109
    2733                            .dwcfi  undefined, 110
    2734                            .dwcfi  undefined, 111
TMS320C6x Assembler PC v7.4.2 Thu Mar 19 12:41:40 2015

Tools Copyright (c) 1996-2012 Texas Instruments Incorporated
