TMS320C6x Assembler PC v7.4.2 Thu Mar 19 12:43:28 2015

Tools Copyright (c) 1996-2012 Texas Instruments Incorporated
package/lib/Regression/regress_d_c/./../packages/ti/vlib/src/VLIB_mixtureOfGaussiansS32/VLIB_mixtureOfGaussiansS32_d.se66 PAGE    1

       1                    ;******************************************************************************
       2                    ;* TMS320C6x C/C++ Codegen                                          PC v7.4.2 *
       3                    ;* Date/Time created: Thu Mar 19 12:43:26 2015                                *
       4                    ;******************************************************************************
       5                            .compiler_opts --abi=eabi --c64p_l1d_workaround=off --endian=little --hll_source=on --long_pre
       6                    
       7                    ;******************************************************************************
       8                    ;* GLOBAL FILE PARAMETERS                                                     *
       9                    ;*                                                                            *
      10                    ;*   Architecture      : TMS320C66xx                                          *
      11                    ;*   Optimization      : Enabled at level 3                                   *
      12                    ;*   Optimizing for    : Speed                                                *
      13                    ;*                       Based on options: -o3, no -ms                        *
      14                    ;*   Endian            : Little                                               *
      15                    ;*   Interrupt Thrshld : 10000                                                *
      16                    ;*   Data Access Model : Far                                                  *
      17                    ;*   Pipelining        : Enabled                                              *
      18                    ;*   Speculate Loads   : Enabled with threshold = 0                           *
      19                    ;*   Memory Aliases    : Presume are aliases (pessimistic)                    *
      20                    ;*   Debug Info        : DWARF Debug w/Optimization                           *
      21                    ;*                                                                            *
      22                    ;******************************************************************************
      23                    
      24                            .asg    A15, FP
      25                            .asg    B14, DP
      26                            .asg    B15, SP
      27                            .global $bss
      28                    
      29                    
      30                    $C$DW$CU        .dwtag  DW_TAG_compile_unit
      31                            .dwattr $C$DW$CU, DW_AT_name("./../packages/ti/vlib/src/VLIB_mixtureOfGaussiansS32/VLIB_mixtur
      32                            .dwattr $C$DW$CU, DW_AT_producer("TI TMS320C6x C/C++ Codegen PC v7.4.2 Copyright (c) 1996-2012
      33                            .dwattr $C$DW$CU, DW_AT_TI_version(0x01)
      34                            .dwattr $C$DW$CU, DW_AT_comp_dir("c:\nightlybuilds\vlib\ti\vlib\vlib\examples")
      35                    
      36                    $C$DW$1 .dwtag  DW_TAG_subprogram, DW_AT_name("_itoll")
      37                            .dwattr $C$DW$1, DW_AT_TI_symbol_name("_itoll")
      38                            .dwattr $C$DW$1, DW_AT_type(*$C$DW$T$14)
      39                            .dwattr $C$DW$1, DW_AT_declaration
      40                            .dwattr $C$DW$1, DW_AT_external
      41                            .dwattr $C$DW$1, DW_AT_decl_file("C:/VLIB_Tools/CCSV5_4_0/ccsv5/tools/compiler/C6000/include/c
      42                            .dwattr $C$DW$1, DW_AT_decl_line(0xdf)
      43                            .dwattr $C$DW$1, DW_AT_decl_column(0x0b)
      44                    $C$DW$2 .dwtag  DW_TAG_formal_parameter
      45                            .dwattr $C$DW$2, DW_AT_type(*$C$DW$T$11)
      46                    $C$DW$3 .dwtag  DW_TAG_formal_parameter
      47                            .dwattr $C$DW$3, DW_AT_type(*$C$DW$T$11)
      48                            .dwendtag $C$DW$1
      49                    
      50                    
      51                    $C$DW$4 .dwtag  DW_TAG_subprogram, DW_AT_name("printf")
      52                            .dwattr $C$DW$4, DW_AT_TI_symbol_name("printf")
      53                            .dwattr $C$DW$4, DW_AT_type(*$C$DW$T$10)
      54                            .dwattr $C$DW$4, DW_AT_declaration
      55                            .dwattr $C$DW$4, DW_AT_external
TMS320C6x Assembler PC v7.4.2 Thu Mar 19 12:43:28 2015

Tools Copyright (c) 1996-2012 Texas Instruments Incorporated
package/lib/Regression/regress_d_c/./../packages/ti/vlib/src/VLIB_mixtureOfGaussiansS32/VLIB_mixtureOfGaussiansS32_d.se66 PAGE    2

      56                            .dwattr $C$DW$4, DW_AT_decl_file("C:/VLIB_Tools/CCSV5_4_0/ccsv5/tools/compiler/C6000/include/s
      57                            .dwattr $C$DW$4, DW_AT_decl_line(0xb8)
      58                            .dwattr $C$DW$4, DW_AT_decl_column(0x19)
      59                    $C$DW$5 .dwtag  DW_TAG_formal_parameter
      60                            .dwattr $C$DW$5, DW_AT_type(*$C$DW$T$122)
      61                    $C$DW$6 .dwtag  DW_TAG_unspecified_parameters
      62                            .dwendtag $C$DW$4
      63                    
      64                    
      65                    $C$DW$7 .dwtag  DW_TAG_subprogram, DW_AT_name("sprintf")
      66                            .dwattr $C$DW$7, DW_AT_TI_symbol_name("sprintf")
      67                            .dwattr $C$DW$7, DW_AT_type(*$C$DW$T$10)
      68                            .dwattr $C$DW$7, DW_AT_declaration
      69                            .dwattr $C$DW$7, DW_AT_external
      70                            .dwattr $C$DW$7, DW_AT_decl_file("C:/VLIB_Tools/CCSV5_4_0/ccsv5/tools/compiler/C6000/include/s
      71                            .dwattr $C$DW$7, DW_AT_decl_line(0xbc)
      72                            .dwattr $C$DW$7, DW_AT_decl_column(0x19)
      73                    $C$DW$8 .dwtag  DW_TAG_formal_parameter
      74                            .dwattr $C$DW$8, DW_AT_type(*$C$DW$T$61)
      75                    $C$DW$9 .dwtag  DW_TAG_formal_parameter
      76                            .dwattr $C$DW$9, DW_AT_type(*$C$DW$T$122)
      77                    $C$DW$10        .dwtag  DW_TAG_unspecified_parameters
      78                            .dwendtag $C$DW$7
      79                    
      80                    
      81                    $C$DW$11        .dwtag  DW_TAG_subprogram, DW_AT_name("memset")
      82                            .dwattr $C$DW$11, DW_AT_TI_symbol_name("memset")
      83                            .dwattr $C$DW$11, DW_AT_type(*$C$DW$T$3)
      84                            .dwattr $C$DW$11, DW_AT_declaration
      85                            .dwattr $C$DW$11, DW_AT_external
      86                            .dwattr $C$DW$11, DW_AT_decl_file("C:/VLIB_Tools/CCSV5_4_0/ccsv5/tools/compiler/C6000/include/
      87                            .dwattr $C$DW$11, DW_AT_decl_line(0x5b)
      88                            .dwattr $C$DW$11, DW_AT_decl_column(0x16)
      89                    $C$DW$12        .dwtag  DW_TAG_formal_parameter
      90                            .dwattr $C$DW$12, DW_AT_type(*$C$DW$T$3)
      91                    $C$DW$13        .dwtag  DW_TAG_formal_parameter
      92                            .dwattr $C$DW$13, DW_AT_type(*$C$DW$T$10)
      93                    $C$DW$14        .dwtag  DW_TAG_formal_parameter
      94                            .dwattr $C$DW$14, DW_AT_type(*$C$DW$T$54)
      95                            .dwendtag $C$DW$11
      96                    
      97                    
      98                    $C$DW$15        .dwtag  DW_TAG_subprogram, DW_AT_name("malloc")
      99                            .dwattr $C$DW$15, DW_AT_TI_symbol_name("malloc")
     100                            .dwattr $C$DW$15, DW_AT_type(*$C$DW$T$3)
     101                            .dwattr $C$DW$15, DW_AT_declaration
     102                            .dwattr $C$DW$15, DW_AT_external
     103                            .dwattr $C$DW$15, DW_AT_decl_file("C:/VLIB_Tools/CCSV5_4_0/ccsv5/tools/compiler/C6000/include/
     104                            .dwattr $C$DW$15, DW_AT_decl_line(0x82)
     105                            .dwattr $C$DW$15, DW_AT_decl_column(0x19)
     106                    $C$DW$16        .dwtag  DW_TAG_formal_parameter
     107                            .dwattr $C$DW$16, DW_AT_type(*$C$DW$T$54)
     108                            .dwendtag $C$DW$15
     109                    
     110                    
TMS320C6x Assembler PC v7.4.2 Thu Mar 19 12:43:28 2015

Tools Copyright (c) 1996-2012 Texas Instruments Incorporated
package/lib/Regression/regress_d_c/./../packages/ti/vlib/src/VLIB_mixtureOfGaussiansS32/VLIB_mixtureOfGaussiansS32_d.se66 PAGE    3

     111                    $C$DW$17        .dwtag  DW_TAG_subprogram, DW_AT_name("free")
     112                            .dwattr $C$DW$17, DW_AT_TI_symbol_name("free")
     113                            .dwattr $C$DW$17, DW_AT_declaration
     114                            .dwattr $C$DW$17, DW_AT_external
     115                            .dwattr $C$DW$17, DW_AT_decl_file("C:/VLIB_Tools/CCSV5_4_0/ccsv5/tools/compiler/C6000/include/
     116                            .dwattr $C$DW$17, DW_AT_decl_line(0x86)
     117                            .dwattr $C$DW$17, DW_AT_decl_column(0x19)
     118                    $C$DW$18        .dwtag  DW_TAG_formal_parameter
     119                            .dwattr $C$DW$18, DW_AT_type(*$C$DW$T$3)
     120                            .dwendtag $C$DW$17
     121                    
     122                    
     123                    $C$DW$19        .dwtag  DW_TAG_subprogram, DW_AT_name("VLIB_cache_inval")
     124                            .dwattr $C$DW$19, DW_AT_TI_symbol_name("VLIB_cache_inval")
     125                            .dwattr $C$DW$19, DW_AT_type(*$C$DW$T$10)
     126                            .dwattr $C$DW$19, DW_AT_declaration
     127                            .dwattr $C$DW$19, DW_AT_external
     128                            .dwattr $C$DW$19, DW_AT_decl_file(".\..\packages\ti\vlib\src\VLIB_mixtureOfGaussiansS32\..\com
     129                            .dwattr $C$DW$19, DW_AT_decl_line(0x58)
     130                            .dwattr $C$DW$19, DW_AT_decl_column(0x05)
     131                    
     132                    $C$DW$20        .dwtag  DW_TAG_subprogram, DW_AT_name("VLIB_getFractional32")
     133                            .dwattr $C$DW$20, DW_AT_TI_symbol_name("VLIB_getFractional32")
     134                            .dwattr $C$DW$20, DW_AT_type(*$C$DW$T$177)
     135                            .dwattr $C$DW$20, DW_AT_declaration
     136                            .dwattr $C$DW$20, DW_AT_external
     137                            .dwattr $C$DW$20, DW_AT_decl_file(".\..\packages\ti\vlib\src\VLIB_mixtureOfGaussiansS32\../com
     138                            .dwattr $C$DW$20, DW_AT_decl_line(0x7c)
     139                            .dwattr $C$DW$20, DW_AT_decl_column(0x0a)
     140                    $C$DW$21        .dwtag  DW_TAG_formal_parameter
     141                            .dwattr $C$DW$21, DW_AT_type(*$C$DW$T$23)
     142                    $C$DW$22        .dwtag  DW_TAG_formal_parameter
     143                            .dwattr $C$DW$22, DW_AT_type(*$C$DW$T$23)
     144                    $C$DW$23        .dwtag  DW_TAG_formal_parameter
     145                            .dwattr $C$DW$23, DW_AT_type(*$C$DW$T$23)
     146                            .dwendtag $C$DW$20
     147                    
     148                    
     149                    $C$DW$24        .dwtag  DW_TAG_subprogram, DW_AT_name("VLIB_getFractional16")
     150                            .dwattr $C$DW$24, DW_AT_TI_symbol_name("VLIB_getFractional16")
     151                            .dwattr $C$DW$24, DW_AT_type(*$C$DW$T$177)
     152                            .dwattr $C$DW$24, DW_AT_declaration
     153                            .dwattr $C$DW$24, DW_AT_external
     154                            .dwattr $C$DW$24, DW_AT_decl_file(".\..\packages\ti\vlib\src\VLIB_mixtureOfGaussiansS32\../com
     155                            .dwattr $C$DW$24, DW_AT_decl_line(0x7d)
     156                            .dwattr $C$DW$24, DW_AT_decl_column(0x0a)
     157                    $C$DW$25        .dwtag  DW_TAG_formal_parameter
     158                            .dwattr $C$DW$25, DW_AT_type(*$C$DW$T$24)
     159                    $C$DW$26        .dwtag  DW_TAG_formal_parameter
     160                            .dwattr $C$DW$26, DW_AT_type(*$C$DW$T$23)
     161                    $C$DW$27        .dwtag  DW_TAG_formal_parameter
     162                            .dwattr $C$DW$27, DW_AT_type(*$C$DW$T$23)
     163                            .dwendtag $C$DW$24
     164                    
     165                    
TMS320C6x Assembler PC v7.4.2 Thu Mar 19 12:43:28 2015

Tools Copyright (c) 1996-2012 Texas Instruments Incorporated
package/lib/Regression/regress_d_c/./../packages/ti/vlib/src/VLIB_mixtureOfGaussiansS32/VLIB_mixtureOfGaussiansS32_d.se66 PAGE    4

     166                    $C$DW$28        .dwtag  DW_TAG_subprogram, DW_AT_name("VLIB_profile_init")
     167                            .dwattr $C$DW$28, DW_AT_TI_symbol_name("VLIB_profile_init")
     168                            .dwattr $C$DW$28, DW_AT_declaration
     169                            .dwattr $C$DW$28, DW_AT_external
     170                            .dwattr $C$DW$28, DW_AT_decl_file(".\..\packages\ti\vlib\src\VLIB_mixtureOfGaussiansS32\..\com
     171                            .dwattr $C$DW$28, DW_AT_decl_line(0x7b)
     172                            .dwattr $C$DW$28, DW_AT_decl_column(0x06)
     173                    $C$DW$29        .dwtag  DW_TAG_formal_parameter
     174                            .dwattr $C$DW$29, DW_AT_type(*$C$DW$T$10)
     175                    $C$DW$30        .dwtag  DW_TAG_formal_parameter
     176                            .dwattr $C$DW$30, DW_AT_type(*$C$DW$T$61)
     177                            .dwendtag $C$DW$28
     178                    
     179                    
     180                    $C$DW$31        .dwtag  DW_TAG_subprogram, DW_AT_name("VLIB_formula_add_test")
     181                            .dwattr $C$DW$31, DW_AT_TI_symbol_name("VLIB_formula_add_test")
     182                            .dwattr $C$DW$31, DW_AT_declaration
     183                            .dwattr $C$DW$31, DW_AT_external
     184                            .dwattr $C$DW$31, DW_AT_decl_file(".\..\packages\ti\vlib\src\VLIB_mixtureOfGaussiansS32\..\com
     185                            .dwattr $C$DW$31, DW_AT_decl_line(0x7d)
     186                            .dwattr $C$DW$31, DW_AT_decl_column(0x06)
     187                    $C$DW$32        .dwtag  DW_TAG_formal_parameter
     188                            .dwattr $C$DW$32, DW_AT_type(*$C$DW$T$10)
     189                    $C$DW$33        .dwtag  DW_TAG_formal_parameter
     190                            .dwattr $C$DW$33, DW_AT_type(*$C$DW$T$10)
     191                    $C$DW$34        .dwtag  DW_TAG_formal_parameter
     192                            .dwattr $C$DW$34, DW_AT_type(*$C$DW$T$10)
     193                    $C$DW$35        .dwtag  DW_TAG_formal_parameter
     194                            .dwattr $C$DW$35, DW_AT_type(*$C$DW$T$10)
     195                    $C$DW$36        .dwtag  DW_TAG_formal_parameter
     196                            .dwattr $C$DW$36, DW_AT_type(*$C$DW$T$61)
     197                    $C$DW$37        .dwtag  DW_TAG_formal_parameter
     198                            .dwattr $C$DW$37, DW_AT_type(*$C$DW$T$10)
     199                            .dwendtag $C$DW$31
     200                    
     201                    
     202                    $C$DW$38        .dwtag  DW_TAG_subprogram, DW_AT_name("VLIB_skip_test")
     203                            .dwattr $C$DW$38, DW_AT_TI_symbol_name("VLIB_skip_test")
     204                            .dwattr $C$DW$38, DW_AT_declaration
     205                            .dwattr $C$DW$38, DW_AT_external
     206                            .dwattr $C$DW$38, DW_AT_decl_file(".\..\packages\ti\vlib\src\VLIB_mixtureOfGaussiansS32\..\com
     207                            .dwattr $C$DW$38, DW_AT_decl_line(0x7e)
     208                            .dwattr $C$DW$38, DW_AT_decl_column(0x06)
     209                    $C$DW$39        .dwtag  DW_TAG_formal_parameter
     210                            .dwattr $C$DW$39, DW_AT_type(*$C$DW$T$61)
     211                            .dwendtag $C$DW$38
     212                    
     213                    
     214                    $C$DW$40        .dwtag  DW_TAG_subprogram, DW_AT_name("VLIB_profile_cycle_report")
     215                            .dwattr $C$DW$40, DW_AT_TI_symbol_name("VLIB_profile_cycle_report")
     216                            .dwattr $C$DW$40, DW_AT_declaration
     217                            .dwattr $C$DW$40, DW_AT_external
     218                            .dwattr $C$DW$40, DW_AT_decl_file(".\..\packages\ti\vlib\src\VLIB_mixtureOfGaussiansS32\..\com
     219                            .dwattr $C$DW$40, DW_AT_decl_line(0x7f)
     220                            .dwattr $C$DW$40, DW_AT_decl_column(0x06)
TMS320C6x Assembler PC v7.4.2 Thu Mar 19 12:43:28 2015

Tools Copyright (c) 1996-2012 Texas Instruments Incorporated
package/lib/Regression/regress_d_c/./../packages/ti/vlib/src/VLIB_mixtureOfGaussiansS32/VLIB_mixtureOfGaussiansS32_d.se66 PAGE    5

     221                    $C$DW$41        .dwtag  DW_TAG_formal_parameter
     222                            .dwattr $C$DW$41, DW_AT_type(*$C$DW$T$10)
     223                    $C$DW$42        .dwtag  DW_TAG_formal_parameter
     224                            .dwattr $C$DW$42, DW_AT_type(*$C$DW$T$61)
     225                    $C$DW$43        .dwtag  DW_TAG_formal_parameter
     226                            .dwattr $C$DW$43, DW_AT_type(*$C$DW$T$61)
     227                            .dwendtag $C$DW$40
     228                    
     229                    
     230                    $C$DW$44        .dwtag  DW_TAG_subprogram, DW_AT_name("initStack")
     231                            .dwattr $C$DW$44, DW_AT_TI_symbol_name("initStack")
     232                            .dwattr $C$DW$44, DW_AT_declaration
     233                            .dwattr $C$DW$44, DW_AT_external
     234                            .dwattr $C$DW$44, DW_AT_decl_file(".\..\packages\ti\vlib\src\VLIB_mixtureOfGaussiansS32\..\com
     235                            .dwattr $C$DW$44, DW_AT_decl_line(0x80)
     236                            .dwattr $C$DW$44, DW_AT_decl_column(0x06)
     237                    $C$DW$45        .dwtag  DW_TAG_formal_parameter
     238                            .dwattr $C$DW$45, DW_AT_type(*$C$DW$T$21)
     239                            .dwendtag $C$DW$44
     240                    
     241                    
     242                    $C$DW$46        .dwtag  DW_TAG_subprogram, DW_AT_name("setStackDepth")
     243                            .dwattr $C$DW$46, DW_AT_TI_symbol_name("setStackDepth")
     244                            .dwattr $C$DW$46, DW_AT_declaration
     245                            .dwattr $C$DW$46, DW_AT_external
     246                            .dwattr $C$DW$46, DW_AT_decl_file(".\..\packages\ti\vlib\src\VLIB_mixtureOfGaussiansS32\..\com
     247                            .dwattr $C$DW$46, DW_AT_decl_line(0x81)
     248                            .dwattr $C$DW$46, DW_AT_decl_column(0x06)
     249                    
     250                    $C$DW$47        .dwtag  DW_TAG_subprogram, DW_AT_name("getSP")
     251                            .dwattr $C$DW$47, DW_AT_TI_symbol_name("getSP")
     252                            .dwattr $C$DW$47, DW_AT_type(*$C$DW$T$21)
     253                            .dwattr $C$DW$47, DW_AT_declaration
     254                            .dwattr $C$DW$47, DW_AT_external
     255                            .dwattr $C$DW$47, DW_AT_decl_file(".\..\packages\ti\vlib\src\VLIB_mixtureOfGaussiansS32\..\com
     256                            .dwattr $C$DW$47, DW_AT_decl_line(0x82)
     257                            .dwattr $C$DW$47, DW_AT_decl_column(0x0a)
     258                    
     259                    $C$DW$48        .dwtag  DW_TAG_subprogram, DW_AT_name("VLIB_stack_memory")
     260                            .dwattr $C$DW$48, DW_AT_TI_symbol_name("VLIB_stack_memory")
     261                            .dwattr $C$DW$48, DW_AT_declaration
     262                            .dwattr $C$DW$48, DW_AT_external
     263                            .dwattr $C$DW$48, DW_AT_decl_file(".\..\packages\ti\vlib\src\VLIB_mixtureOfGaussiansS32\..\com
     264                            .dwattr $C$DW$48, DW_AT_decl_line(0x83)
     265                            .dwattr $C$DW$48, DW_AT_decl_column(0x06)
     266                    
     267                    $C$DW$49        .dwtag  DW_TAG_subprogram, DW_AT_name("VLIB_compare_mem")
     268                            .dwattr $C$DW$49, DW_AT_TI_symbol_name("VLIB_compare_mem")
     269                            .dwattr $C$DW$49, DW_AT_type(*$C$DW$T$23)
     270                            .dwattr $C$DW$49, DW_AT_declaration
     271                            .dwattr $C$DW$49, DW_AT_external
     272                            .dwattr $C$DW$49, DW_AT_decl_file(".\..\packages\ti\vlib\src\VLIB_mixtureOfGaussiansS32\../com
     273                            .dwattr $C$DW$49, DW_AT_decl_line(0x6f)
     274                            .dwattr $C$DW$49, DW_AT_decl_column(0x11)
     275                    $C$DW$50        .dwtag  DW_TAG_formal_parameter
TMS320C6x Assembler PC v7.4.2 Thu Mar 19 12:43:28 2015

Tools Copyright (c) 1996-2012 Texas Instruments Incorporated
package/lib/Regression/regress_d_c/./../packages/ti/vlib/src/VLIB_mixtureOfGaussiansS32/VLIB_mixtureOfGaussiansS32_d.se66 PAGE    6

     276                            .dwattr $C$DW$50, DW_AT_type(*$C$DW$T$53)
     277                    $C$DW$51        .dwtag  DW_TAG_formal_parameter
     278                            .dwattr $C$DW$51, DW_AT_type(*$C$DW$T$53)
     279                    $C$DW$52        .dwtag  DW_TAG_formal_parameter
     280                            .dwattr $C$DW$52, DW_AT_type(*$C$DW$T$23)
     281                            .dwendtag $C$DW$49
     282                    
     283                    
     284                    $C$DW$53        .dwtag  DW_TAG_subprogram, DW_AT_name("VLIB_fillBuffer")
     285                            .dwattr $C$DW$53, DW_AT_TI_symbol_name("VLIB_fillBuffer")
     286                            .dwattr $C$DW$53, DW_AT_declaration
     287                            .dwattr $C$DW$53, DW_AT_external
     288                            .dwattr $C$DW$53, DW_AT_decl_file(".\..\packages\ti\vlib\src\VLIB_mixtureOfGaussiansS32\../com
     289                            .dwattr $C$DW$53, DW_AT_decl_line(0x77)
     290                            .dwattr $C$DW$53, DW_AT_decl_column(0x06)
     291                    $C$DW$54        .dwtag  DW_TAG_formal_parameter
     292                            .dwattr $C$DW$54, DW_AT_type(*$C$DW$T$19)
     293                    $C$DW$55        .dwtag  DW_TAG_formal_parameter
     294                            .dwattr $C$DW$55, DW_AT_type(*$C$DW$T$19)
     295                    $C$DW$56        .dwtag  DW_TAG_formal_parameter
     296                            .dwattr $C$DW$56, DW_AT_type(*$C$DW$T$3)
     297                    $C$DW$57        .dwtag  DW_TAG_formal_parameter
     298                            .dwattr $C$DW$57, DW_AT_type(*$C$DW$T$3)
     299                    $C$DW$58        .dwtag  DW_TAG_formal_parameter
     300                            .dwattr $C$DW$58, DW_AT_type(*$C$DW$T$75)
     301                    $C$DW$59        .dwtag  DW_TAG_formal_parameter
     302                            .dwattr $C$DW$59, DW_AT_type(*$C$DW$T$75)
     303                    $C$DW$60        .dwtag  DW_TAG_formal_parameter
     304                            .dwattr $C$DW$60, DW_AT_type(*$C$DW$T$75)
     305                    $C$DW$61        .dwtag  DW_TAG_formal_parameter
     306                            .dwattr $C$DW$61, DW_AT_type(*$C$DW$T$19)
     307                    $C$DW$62        .dwtag  DW_TAG_formal_parameter
     308                            .dwattr $C$DW$62, DW_AT_type(*$C$DW$T$61)
     309                            .dwendtag $C$DW$53
     310                    
     311                    
     312                    $C$DW$63        .dwtag  DW_TAG_subprogram, DW_AT_name("VLIB_malloc")
     313                            .dwattr $C$DW$63, DW_AT_TI_symbol_name("VLIB_malloc")
     314                            .dwattr $C$DW$63, DW_AT_type(*$C$DW$T$3)
     315                            .dwattr $C$DW$63, DW_AT_declaration
     316                            .dwattr $C$DW$63, DW_AT_external
     317                            .dwattr $C$DW$63, DW_AT_decl_file(".\..\packages\ti\vlib\src\VLIB_mixtureOfGaussiansS32\../com
     318                            .dwattr $C$DW$63, DW_AT_decl_line(0xaf)
     319                            .dwattr $C$DW$63, DW_AT_decl_column(0x07)
     320                    $C$DW$64        .dwtag  DW_TAG_formal_parameter
     321                            .dwattr $C$DW$64, DW_AT_type(*$C$DW$T$54)
     322                            .dwendtag $C$DW$63
     323                    
     324                    
     325                    $C$DW$65        .dwtag  DW_TAG_subprogram, DW_AT_name("VLIB_free")
     326                            .dwattr $C$DW$65, DW_AT_TI_symbol_name("VLIB_free")
     327                            .dwattr $C$DW$65, DW_AT_declaration
     328                            .dwattr $C$DW$65, DW_AT_external
     329                            .dwattr $C$DW$65, DW_AT_decl_file(".\..\packages\ti\vlib\src\VLIB_mixtureOfGaussiansS32\../com
     330                            .dwattr $C$DW$65, DW_AT_decl_line(0xb4)
TMS320C6x Assembler PC v7.4.2 Thu Mar 19 12:43:28 2015

Tools Copyright (c) 1996-2012 Texas Instruments Incorporated
package/lib/Regression/regress_d_c/./../packages/ti/vlib/src/VLIB_mixtureOfGaussiansS32/VLIB_mixtureOfGaussiansS32_d.se66 PAGE    7

     331                            .dwattr $C$DW$65, DW_AT_decl_column(0x07)
     332                    $C$DW$66        .dwtag  DW_TAG_formal_parameter
     333                            .dwattr $C$DW$66, DW_AT_type(*$C$DW$T$3)
     334                            .dwendtag $C$DW$65
     335                    
     336                    
     337                    $C$DW$67        .dwtag  DW_TAG_subprogram, DW_AT_name("VLIB_mixtureOfGaussiansS32")
     338                            .dwattr $C$DW$67, DW_AT_TI_symbol_name("VLIB_mixtureOfGaussiansS32")
     339                            .dwattr $C$DW$67, DW_AT_type(*$C$DW$T$23)
     340                            .dwattr $C$DW$67, DW_AT_declaration
     341                            .dwattr $C$DW$67, DW_AT_external
     342                            .dwattr $C$DW$67, DW_AT_decl_file(".\..\packages\ti\vlib\src\VLIB_mixtureOfGaussiansS32\c66/VL
     343                            .dwattr $C$DW$67, DW_AT_decl_line(0x80)
     344                            .dwattr $C$DW$67, DW_AT_decl_column(0x09)
     345                    $C$DW$68        .dwtag  DW_TAG_formal_parameter
     346                            .dwattr $C$DW$68, DW_AT_type(*$C$DW$T$112)
     347                    $C$DW$69        .dwtag  DW_TAG_formal_parameter
     348                            .dwattr $C$DW$69, DW_AT_type(*$C$DW$T$116)
     349                    $C$DW$70        .dwtag  DW_TAG_formal_parameter
     350                            .dwattr $C$DW$70, DW_AT_type(*$C$DW$T$131)
     351                    $C$DW$71        .dwtag  DW_TAG_formal_parameter
     352                            .dwattr $C$DW$71, DW_AT_type(*$C$DW$T$131)
     353                    $C$DW$72        .dwtag  DW_TAG_formal_parameter
     354                            .dwattr $C$DW$72, DW_AT_type(*$C$DW$T$109)
     355                    $C$DW$73        .dwtag  DW_TAG_formal_parameter
     356                            .dwattr $C$DW$73, DW_AT_type(*$C$DW$T$109)
     357                    $C$DW$74        .dwtag  DW_TAG_formal_parameter
     358                            .dwattr $C$DW$74, DW_AT_type(*$C$DW$T$132)
     359                    $C$DW$75        .dwtag  DW_TAG_formal_parameter
     360                            .dwattr $C$DW$75, DW_AT_type(*$C$DW$T$133)
     361                    $C$DW$76        .dwtag  DW_TAG_formal_parameter
     362                            .dwattr $C$DW$76, DW_AT_type(*$C$DW$T$117)
     363                    $C$DW$77        .dwtag  DW_TAG_formal_parameter
     364                            .dwattr $C$DW$77, DW_AT_type(*$C$DW$T$133)
     365                    $C$DW$78        .dwtag  DW_TAG_formal_parameter
     366                            .dwattr $C$DW$78, DW_AT_type(*$C$DW$T$133)
     367                    $C$DW$79        .dwtag  DW_TAG_formal_parameter
     368                            .dwattr $C$DW$79, DW_AT_type(*$C$DW$T$117)
     369                    $C$DW$80        .dwtag  DW_TAG_formal_parameter
     370                            .dwattr $C$DW$80, DW_AT_type(*$C$DW$T$117)
     371                    $C$DW$81        .dwtag  DW_TAG_formal_parameter
     372                            .dwattr $C$DW$81, DW_AT_type(*$C$DW$T$133)
     373                            .dwendtag $C$DW$67
     374                    
     375                    
     376                    $C$DW$82        .dwtag  DW_TAG_subprogram, DW_AT_name("VLIB_mixtureOfGaussiansS32_cn")
     377                            .dwattr $C$DW$82, DW_AT_TI_symbol_name("VLIB_mixtureOfGaussiansS32_cn")
     378                            .dwattr $C$DW$82, DW_AT_type(*$C$DW$T$23)
     379                            .dwattr $C$DW$82, DW_AT_declaration
     380                            .dwattr $C$DW$82, DW_AT_external
     381                            .dwattr $C$DW$82, DW_AT_decl_file(".\..\packages\ti\vlib\src\VLIB_mixtureOfGaussiansS32\VLIB_m
     382                            .dwattr $C$DW$82, DW_AT_decl_line(0x20)
     383                            .dwattr $C$DW$82, DW_AT_decl_column(0x09)
     384                    $C$DW$83        .dwtag  DW_TAG_formal_parameter
     385                            .dwattr $C$DW$83, DW_AT_type(*$C$DW$T$112)
TMS320C6x Assembler PC v7.4.2 Thu Mar 19 12:43:28 2015

Tools Copyright (c) 1996-2012 Texas Instruments Incorporated
package/lib/Regression/regress_d_c/./../packages/ti/vlib/src/VLIB_mixtureOfGaussiansS32/VLIB_mixtureOfGaussiansS32_d.se66 PAGE    8

     386                    $C$DW$84        .dwtag  DW_TAG_formal_parameter
     387                            .dwattr $C$DW$84, DW_AT_type(*$C$DW$T$116)
     388                    $C$DW$85        .dwtag  DW_TAG_formal_parameter
     389                            .dwattr $C$DW$85, DW_AT_type(*$C$DW$T$131)
     390                    $C$DW$86        .dwtag  DW_TAG_formal_parameter
     391                            .dwattr $C$DW$86, DW_AT_type(*$C$DW$T$131)
     392                    $C$DW$87        .dwtag  DW_TAG_formal_parameter
     393                            .dwattr $C$DW$87, DW_AT_type(*$C$DW$T$109)
     394                    $C$DW$88        .dwtag  DW_TAG_formal_parameter
     395                            .dwattr $C$DW$88, DW_AT_type(*$C$DW$T$109)
     396                    $C$DW$89        .dwtag  DW_TAG_formal_parameter
     397                            .dwattr $C$DW$89, DW_AT_type(*$C$DW$T$132)
     398                    $C$DW$90        .dwtag  DW_TAG_formal_parameter
     399                            .dwattr $C$DW$90, DW_AT_type(*$C$DW$T$133)
     400                    $C$DW$91        .dwtag  DW_TAG_formal_parameter
     401                            .dwattr $C$DW$91, DW_AT_type(*$C$DW$T$117)
     402                    $C$DW$92        .dwtag  DW_TAG_formal_parameter
     403                            .dwattr $C$DW$92, DW_AT_type(*$C$DW$T$133)
     404                    $C$DW$93        .dwtag  DW_TAG_formal_parameter
     405                            .dwattr $C$DW$93, DW_AT_type(*$C$DW$T$133)
     406                    $C$DW$94        .dwtag  DW_TAG_formal_parameter
     407                            .dwattr $C$DW$94, DW_AT_type(*$C$DW$T$117)
     408                    $C$DW$95        .dwtag  DW_TAG_formal_parameter
     409                            .dwattr $C$DW$95, DW_AT_type(*$C$DW$T$117)
     410                    $C$DW$96        .dwtag  DW_TAG_formal_parameter
     411                            .dwattr $C$DW$96, DW_AT_type(*$C$DW$T$133)
     412                            .dwendtag $C$DW$82
     413                    
     414                    
     415                    $C$DW$97        .dwtag  DW_TAG_subprogram, DW_AT_name("mixtureOfGaussiansS32_getTestParams")
     416                            .dwattr $C$DW$97, DW_AT_TI_symbol_name("mixtureOfGaussiansS32_getTestParams")
     417                            .dwattr $C$DW$97, DW_AT_declaration
     418                            .dwattr $C$DW$97, DW_AT_external
     419                            .dwattr $C$DW$97, DW_AT_decl_file(".\..\packages\ti\vlib\src\VLIB_mixtureOfGaussiansS32\VLIB_m
     420                            .dwattr $C$DW$97, DW_AT_decl_line(0x31)
     421                            .dwattr $C$DW$97, DW_AT_decl_column(0x06)
     422                    $C$DW$98        .dwtag  DW_TAG_formal_parameter
     423                            .dwattr $C$DW$98, DW_AT_type(*$C$DW$T$46)
     424                    $C$DW$99        .dwtag  DW_TAG_formal_parameter
     425                            .dwattr $C$DW$99, DW_AT_type(*$C$DW$T$78)
     426                            .dwendtag $C$DW$97
     427                    
     428                    $C$DW$100       .dwtag  DW_TAG_variable, DW_AT_name("test_cases")
     429                            .dwattr $C$DW$100, DW_AT_TI_symbol_name("test_cases")
     430                            .dwattr $C$DW$100, DW_AT_type(*$C$DW$T$23)
     431                            .dwattr $C$DW$100, DW_AT_declaration
     432                            .dwattr $C$DW$100, DW_AT_external
     433                            .dwattr $C$DW$100, DW_AT_decl_file(".\..\packages\ti\vlib\src\VLIB_mixtureOfGaussiansS32\../co
     434                            .dwattr $C$DW$100, DW_AT_decl_line(0x60)
     435                            .dwattr $C$DW$100, DW_AT_decl_column(0x13)
     436                    $C$DW$101       .dwtag  DW_TAG_variable, DW_AT_name("act_kernel")
     437                            .dwattr $C$DW$101, DW_AT_TI_symbol_name("act_kernel")
     438                            .dwattr $C$DW$101, DW_AT_type(*$C$DW$T$10)
     439                            .dwattr $C$DW$101, DW_AT_declaration
     440                            .dwattr $C$DW$101, DW_AT_external
TMS320C6x Assembler PC v7.4.2 Thu Mar 19 12:43:28 2015

Tools Copyright (c) 1996-2012 Texas Instruments Incorporated
package/lib/Regression/regress_d_c/./../packages/ti/vlib/src/VLIB_mixtureOfGaussiansS32/VLIB_mixtureOfGaussiansS32_d.se66 PAGE    9

     441                            .dwattr $C$DW$101, DW_AT_decl_file(".\..\packages\ti\vlib\src\VLIB_mixtureOfGaussiansS32\../co
     442                            .dwattr $C$DW$101, DW_AT_decl_line(0x62)
     443                            .dwattr $C$DW$101, DW_AT_decl_column(0x13)
     444                    $C$DW$102       .dwtag  DW_TAG_variable, DW_AT_name("desc")
     445                            .dwattr $C$DW$102, DW_AT_TI_symbol_name("desc")
     446                            .dwattr $C$DW$102, DW_AT_type(*$C$DW$T$188)
     447                            .dwattr $C$DW$102, DW_AT_declaration
     448                            .dwattr $C$DW$102, DW_AT_external
     449                            .dwattr $C$DW$102, DW_AT_decl_file(".\..\packages\ti\vlib\src\VLIB_mixtureOfGaussiansS32\../co
     450                            .dwattr $C$DW$102, DW_AT_decl_line(0x63)
     451                            .dwattr $C$DW$102, DW_AT_decl_column(0x13)
     452                    $C$DW$103       .dwtag  DW_TAG_variable, DW_AT_name("testPatternString")
     453                            .dwattr $C$DW$103, DW_AT_TI_symbol_name("testPatternString")
     454                            .dwattr $C$DW$103, DW_AT_type(*$C$DW$T$188)
     455                            .dwattr $C$DW$103, DW_AT_declaration
     456                            .dwattr $C$DW$103, DW_AT_external
     457                            .dwattr $C$DW$103, DW_AT_decl_file(".\..\packages\ti\vlib\src\VLIB_mixtureOfGaussiansS32\../co
     458                            .dwattr $C$DW$103, DW_AT_decl_line(0x64)
     459                            .dwattr $C$DW$103, DW_AT_decl_column(0x13)
     460                    $C$DW$104       .dwtag  DW_TAG_variable, DW_AT_name("est_test")
     461                            .dwattr $C$DW$104, DW_AT_TI_symbol_name("est_test")
     462                            .dwattr $C$DW$104, DW_AT_type(*$C$DW$T$10)
     463                            .dwattr $C$DW$104, DW_AT_declaration
     464                            .dwattr $C$DW$104, DW_AT_external
     465                            .dwattr $C$DW$104, DW_AT_decl_file(".\..\packages\ti\vlib\src\VLIB_mixtureOfGaussiansS32\..\co
     466                            .dwattr $C$DW$104, DW_AT_decl_line(0x75)
     467                            .dwattr $C$DW$104, DW_AT_decl_column(0x14)
     468                    $C$DW$105       .dwtag  DW_TAG_variable, DW_AT_name("beg_count")
     469                            .dwattr $C$DW$105, DW_AT_TI_symbol_name("beg_count")
     470                            .dwattr $C$DW$105, DW_AT_type(*$C$DW$T$172)
     471                            .dwattr $C$DW$105, DW_AT_declaration
     472                            .dwattr $C$DW$105, DW_AT_external
     473                            .dwattr $C$DW$105, DW_AT_decl_file(".\..\packages\ti\vlib\src\VLIB_mixtureOfGaussiansS32\..\co
     474                            .dwattr $C$DW$105, DW_AT_decl_line(0x76)
     475                            .dwattr $C$DW$105, DW_AT_decl_column(0x14)
     476                    $C$DW$106       .dwtag  DW_TAG_variable, DW_AT_name("end_count")
     477                            .dwattr $C$DW$106, DW_AT_TI_symbol_name("end_count")
     478                            .dwattr $C$DW$106, DW_AT_type(*$C$DW$T$172)
     479                            .dwattr $C$DW$106, DW_AT_declaration
     480                            .dwattr $C$DW$106, DW_AT_external
     481                            .dwattr $C$DW$106, DW_AT_decl_file(".\..\packages\ti\vlib\src\VLIB_mixtureOfGaussiansS32\..\co
     482                            .dwattr $C$DW$106, DW_AT_decl_line(0x77)
     483                            .dwattr $C$DW$106, DW_AT_decl_column(0x14)
     484                    $C$DW$107       .dwtag  DW_TAG_variable, DW_AT_name("overhead")
     485                            .dwattr $C$DW$107, DW_AT_TI_symbol_name("overhead")
     486                            .dwattr $C$DW$107, DW_AT_type(*$C$DW$T$172)
     487                            .dwattr $C$DW$107, DW_AT_declaration
     488                            .dwattr $C$DW$107, DW_AT_external
     489                            .dwattr $C$DW$107, DW_AT_decl_file(".\..\packages\ti\vlib\src\VLIB_mixtureOfGaussiansS32\..\co
     490                            .dwattr $C$DW$107, DW_AT_decl_line(0x78)
     491                            .dwattr $C$DW$107, DW_AT_decl_column(0x14)
     492                    $C$DW$108       .dwtag  DW_TAG_variable, DW_AT_name("cycles")
     493                            .dwattr $C$DW$108, DW_AT_TI_symbol_name("cycles")
     494                            .dwattr $C$DW$108, DW_AT_type(*$C$DW$T$173)
     495                            .dwattr $C$DW$108, DW_AT_declaration
TMS320C6x Assembler PC v7.4.2 Thu Mar 19 12:43:28 2015

Tools Copyright (c) 1996-2012 Texas Instruments Incorporated
package/lib/Regression/regress_d_c/./../packages/ti/vlib/src/VLIB_mixtureOfGaussiansS32/VLIB_mixtureOfGaussiansS32_d.se66 PAGE   10

     496                            .dwattr $C$DW$108, DW_AT_external
     497                            .dwattr $C$DW$108, DW_AT_decl_file(".\..\packages\ti\vlib\src\VLIB_mixtureOfGaussiansS32\..\co
     498                            .dwattr $C$DW$108, DW_AT_decl_line(0x79)
     499                            .dwattr $C$DW$108, DW_AT_decl_column(0x14)
     500                    ;       C:\VLIB_Tools\CCSV5_4_0\ccsv5\tools\compiler\C6000\bin\opt6x.exe C:\\Users\\gtbldadm\\AppData\
     501 00000000                   .sect   ".text"
     502                            .clink
     503                            .global VLIB_mixtureOfGaussiansS32_d
     504                    
     505                    $C$DW$109       .dwtag  DW_TAG_subprogram, DW_AT_name("VLIB_mixtureOfGaussiansS32_d")
     506                            .dwattr $C$DW$109, DW_AT_low_pc(VLIB_mixtureOfGaussiansS32_d)
     507                            .dwattr $C$DW$109, DW_AT_high_pc(0x00)
     508                            .dwattr $C$DW$109, DW_AT_TI_symbol_name("VLIB_mixtureOfGaussiansS32_d")
     509                            .dwattr $C$DW$109, DW_AT_external
     510                            .dwattr $C$DW$109, DW_AT_TI_begin_file("./../packages/ti/vlib/src/VLIB_mixtureOfGaussiansS32/V
     511                            .dwattr $C$DW$109, DW_AT_TI_begin_line(0x26)
     512                            .dwattr $C$DW$109, DW_AT_TI_begin_column(0x06)
     513                            .dwattr $C$DW$109, DW_AT_decl_file("./../packages/ti/vlib/src/VLIB_mixtureOfGaussiansS32/VLIB_
     514                            .dwattr $C$DW$109, DW_AT_decl_line(0x26)
     515                            .dwattr $C$DW$109, DW_AT_decl_column(0x06)
     516                            .dwattr $C$DW$109, DW_AT_TI_max_frame_size(0xe8)
     517                            .dwpsn  file "./../packages/ti/vlib/src/VLIB_mixtureOfGaussiansS32/VLIB_mixtureOfGaussiansS32_
     518                    
     519                            .dwfde $C$DW$CIE, VLIB_mixtureOfGaussiansS32_d
     520                    $C$DW$110       .dwtag  DW_TAG_formal_parameter, DW_AT_name("LevelOfFeedback")
     521                            .dwattr $C$DW$110, DW_AT_TI_symbol_name("LevelOfFeedback")
     522                            .dwattr $C$DW$110, DW_AT_type(*$C$DW$T$19)
     523                            .dwattr $C$DW$110, DW_AT_location[DW_OP_reg4]
     524                    ;----------------------------------------------------------------------
     525                    ;  38 | void VLIB_mixtureOfGaussiansS32_d (uint8_t LevelOfFeedback)            
     526                    ;----------------------------------------------------------------------
     527                    
     528                    ;******************************************************************************
     529                    ;* FUNCTION NAME: VLIB_mixtureOfGaussiansS32_d                                *
     530                    ;*                                                                            *
     531                    ;*   Regs Modified     : A0,A1,A2,A3,A4,A5,A6,A7,A8,A9,A10,A11,A12,A13,A14,   *
     532                    ;*                           A15,B0,B1,B2,B3,B4,B5,B6,B7,B8,B9,B10,B11,B12,   *
     533                    ;*                           B13,SP,A16,A17,A18,A19,A20,A21,A22,A23,A24,A25,  *
     534                    ;*                           A26,A27,A28,A29,A30,A31,B16,B17,B18,B19,B20,B21, *
     535                    ;*                           B22,B23,B24,B25,B26,B27,B28,B29,B30,B31          *
     536                    ;*   Regs Used         : A0,A1,A2,A3,A4,A5,A6,A7,A8,A9,A10,A11,A12,A13,A14,   *
     537                    ;*                           A15,B0,B1,B2,B3,B4,B5,B6,B7,B8,B9,B10,B11,B12,   *
     538                    ;*                           B13,DP,SP,A16,A17,A18,A19,A20,A21,A22,A23,A24,   *
     539                    ;*                           A25,A26,A27,A28,A29,A30,A31,B16,B17,B18,B19,B20, *
     540                    ;*                           B21,B22,B23,B24,B25,B26,B27,B28,B29,B30,B31      *
     541                    ;*   Local Frame Size  : 112 Args + 64 Auto + 56 Save = 232 byte              *
     542                    ;******************************************************************************
     543                    
     544                    ;******************************************************************************
     545                    ;*                                                                            *
     546                    ;* Using -g (debug) with optimization (-o3) may disable key optimizations!    *
     547                    ;*                                                                            *
     548                    ;******************************************************************************
     549 00000000           VLIB_mixtureOfGaussiansS32_d:
     550                    ;** --------------------------------------------------------------------------*
TMS320C6x Assembler PC v7.4.2 Thu Mar 19 12:43:28 2015

Tools Copyright (c) 1996-2012 Texas Instruments Incorporated
package/lib/Regression/regress_d_c/./../packages/ti/vlib/src/VLIB_mixtureOfGaussiansS32/VLIB_mixtureOfGaussiansS32_d.se66 PAGE   11

     551                    ;          EXCLUSIVE CPU CYCLES: 16
     552                    ;** 45  -----------------------    mixtureOfGaussiansS32_getTestParams(&prm, &test_cases);
     553                    ;** 48  -----------------------    VLIB_profile_init(3, "VLIB_mixtureOfGaussiansS32");
     554                    ;** 51  -----------------------    if ( test_cases <= 0 ) goto g63;
     555                            .dwcfi  cfa_offset, 0
     556                    ;----------------------------------------------------------------------
     557                    ;  40 | int32_t    tpi;  /* test parameter index */                            
     558                    ;  43 | mixtureOfGaussiansS32_testParams_t   *prm;                             
     559                    ;----------------------------------------------------------------------
     560 00000000     25f7             STW     .D2T1   A11,*SP--(8)      ; |39| 
     561                            .dwcfi  cfa_offset, 8
     562                            .dwcfi  save_reg_to_mem, 11, 0
     563 00000002     2577             STW     .D2T1   A10,*SP--(8)      ; |39| 
     564                            .dwcfi  cfa_offset, 16
     565                            .dwcfi  save_reg_to_mem, 10, -8
     566 00000004     9677             STDW    .D2T2   B13:B12,*SP--     ; |39| 
     567                            .dwcfi  cfa_offset, 24
     568                            .dwcfi  save_reg_to_mem, 29, -12
     569                            .dwcfi  save_reg_to_mem, 28, -16
     570 00000006     9577             STDW    .D2T2   B11:B10,*SP--     ; |39| 
     571                            .dwcfi  cfa_offset, 32
     572                            .dwcfi  save_reg_to_mem, 27, -20
     573                            .dwcfi  save_reg_to_mem, 26, -24
     574 00000008     8777             STDW    .D2T1   A15:A14,*SP--     ; |39| 
     575                            .dwcfi  cfa_offset, 40
     576                            .dwcfi  save_reg_to_mem, 15, -28
     577                            .dwcfi  save_reg_to_mem, 14, -32
     578 0000000a     8677             STDW    .D2T1   A13:A12,*SP--     ; |39| 
     579                            .dwcfi  cfa_offset, 48
     580                            .dwcfi  save_reg_to_mem, 13, -36
     581                            .dwcfi  save_reg_to_mem, 12, -40
     582 0000000c 01bc54f6             STW     .D2T2   B3,*SP--(8)       ; |39| 
     583                            .dwcfi  cfa_offset, 56
     584                            .dwcfi  save_reg_to_mem, 19, -48
     585 00000010 07ffa852             ADDK    .S2     -176,SP           ; |39| 
     586                            .dwcfi  cfa_offset, 232
     587                    $C$DW$111       .dwtag  DW_TAG_variable, DW_AT_name("$O$C1")
     588                            .dwattr $C$DW$111, DW_AT_TI_symbol_name("$O$C1")
     589                            .dwattr $C$DW$111, DW_AT_type(*$C$DW$T$10)
     590                            .dwattr $C$DW$111, DW_AT_location[DW_OP_reg20]
     591                    $C$DW$112       .dwtag  DW_TAG_variable, DW_AT_name("$O$C2")
     592                            .dwattr $C$DW$112, DW_AT_TI_symbol_name("$O$C2")
     593                            .dwattr $C$DW$112, DW_AT_type(*$C$DW$T$10)
     594                            .dwattr $C$DW$112, DW_AT_location[DW_OP_reg3]
     595                    $C$DW$113       .dwtag  DW_TAG_variable, DW_AT_name("$O$C3")
     596                            .dwattr $C$DW$113, DW_AT_TI_symbol_name("$O$C3")
     597                            .dwattr $C$DW$113, DW_AT_type(*$C$DW$T$42)
     598                            .dwattr $C$DW$113, DW_AT_location[DW_OP_reg3]
     599                    $C$DW$114       .dwtag  DW_TAG_variable, DW_AT_name("$O$C4")
     600                            .dwattr $C$DW$114, DW_AT_TI_symbol_name("$O$C4")
     601                            .dwattr $C$DW$114, DW_AT_type(*$C$DW$T$10)
     602                            .dwattr $C$DW$114, DW_AT_location[DW_OP_reg8]
     603                    $C$DW$115       .dwtag  DW_TAG_variable, DW_AT_name("$O$C5")
     604                            .dwattr $C$DW$115, DW_AT_TI_symbol_name("$O$C5")
     605                            .dwattr $C$DW$115, DW_AT_type(*$C$DW$T$10)
TMS320C6x Assembler PC v7.4.2 Thu Mar 19 12:43:28 2015

Tools Copyright (c) 1996-2012 Texas Instruments Incorporated
package/lib/Regression/regress_d_c/./../packages/ti/vlib/src/VLIB_mixtureOfGaussiansS32/VLIB_mixtureOfGaussiansS32_d.se66 PAGE   12

     606                            .dwattr $C$DW$115, DW_AT_location[DW_OP_reg26]
     607                    $C$DW$116       .dwtag  DW_TAG_variable, DW_AT_name("$O$C6")
     608                            .dwattr $C$DW$116, DW_AT_TI_symbol_name("$O$C6")
     609                            .dwattr $C$DW$116, DW_AT_type(*$C$DW$T$42)
     610                            .dwattr $C$DW$116, DW_AT_location[DW_OP_reg3]
     611                    $C$DW$117       .dwtag  DW_TAG_variable, DW_AT_name("$O$C7")
     612                            .dwattr $C$DW$117, DW_AT_TI_symbol_name("$O$C7")
     613                            .dwattr $C$DW$117, DW_AT_type(*$C$DW$T$10)
     614                            .dwattr $C$DW$117, DW_AT_location[DW_OP_reg3]
     615                    $C$DW$118       .dwtag  DW_TAG_variable, DW_AT_name("$O$C8")
     616                            .dwattr $C$DW$118, DW_AT_TI_symbol_name("$O$C8")
     617                            .dwattr $C$DW$118, DW_AT_type(*$C$DW$T$10)
     618                            .dwattr $C$DW$118, DW_AT_location[DW_OP_reg26]
     619                    $C$DW$119       .dwtag  DW_TAG_variable, DW_AT_name("$O$C9")
     620                            .dwattr $C$DW$119, DW_AT_TI_symbol_name("$O$C9")
     621                            .dwattr $C$DW$119, DW_AT_type(*$C$DW$T$9)
     622                            .dwattr $C$DW$119, DW_AT_location[DW_OP_reg21]
     623                    $C$DW$120       .dwtag  DW_TAG_variable, DW_AT_name("$O$C10")
     624                            .dwattr $C$DW$120, DW_AT_TI_symbol_name("$O$C10")
     625                            .dwattr $C$DW$120, DW_AT_type(*$C$DW$T$10)
     626                            .dwattr $C$DW$120, DW_AT_location[DW_OP_reg20]
     627                    $C$DW$121       .dwtag  DW_TAG_variable, DW_AT_name("$O$C11")
     628                            .dwattr $C$DW$121, DW_AT_TI_symbol_name("$O$C11")
     629                            .dwattr $C$DW$121, DW_AT_type(*$C$DW$T$10)
     630                            .dwattr $C$DW$121, DW_AT_location[DW_OP_reg20]
     631                    $C$DW$122       .dwtag  DW_TAG_variable, DW_AT_name("$O$U13")
     632                            .dwattr $C$DW$122, DW_AT_TI_symbol_name("$O$U13")
     633                            .dwattr $C$DW$122, DW_AT_type(*$C$DW$T$42)
     634                            .dwattr $C$DW$122, DW_AT_location[DW_OP_reg27]
     635                    $C$DW$123       .dwtag  DW_TAG_variable, DW_AT_name("$O$K36")
     636                            .dwattr $C$DW$123, DW_AT_TI_symbol_name("$O$K36")
     637                            .dwattr $C$DW$123, DW_AT_type(*$C$DW$T$11)
     638                            .dwattr $C$DW$123, DW_AT_location[DW_OP_reg3]
     639                    $C$DW$124       .dwtag  DW_TAG_variable, DW_AT_name("$O$K59")
     640                            .dwattr $C$DW$124, DW_AT_TI_symbol_name("$O$K59")
     641                            .dwattr $C$DW$124, DW_AT_type(*$C$DW$T$82)
     642                            .dwattr $C$DW$124, DW_AT_location[DW_OP_reg12]
     643                    $C$DW$125       .dwtag  DW_TAG_variable, DW_AT_name("$O$K65")
     644                            .dwattr $C$DW$125, DW_AT_TI_symbol_name("$O$K65")
     645                            .dwattr $C$DW$125, DW_AT_type(*$C$DW$T$10)
     646                            .dwattr $C$DW$125, DW_AT_location[DW_OP_reg3]
     647                    $C$DW$126       .dwtag  DW_TAG_variable, DW_AT_name("$O$U12")
     648                            .dwattr $C$DW$126, DW_AT_TI_symbol_name("$O$U12")
     649                            .dwattr $C$DW$126, DW_AT_type(*$C$DW$T$10)
     650                            .dwattr $C$DW$126, DW_AT_location[DW_OP_breg31 128]
     651                    $C$DW$127       .dwtag  DW_TAG_variable, DW_AT_name("$O$U138")
     652                            .dwattr $C$DW$127, DW_AT_TI_symbol_name("$O$U138")
     653                            .dwattr $C$DW$127, DW_AT_type(*$C$DW$T$11)
     654                            .dwattr $C$DW$127, DW_AT_location[DW_OP_reg28]
     655                    $C$DW$128       .dwtag  DW_TAG_variable, DW_AT_name("$O$U217")
     656                            .dwattr $C$DW$128, DW_AT_TI_symbol_name("$O$U217")
     657                            .dwattr $C$DW$128, DW_AT_type(*$C$DW$T$11)
     658                            .dwattr $C$DW$128, DW_AT_location[DW_OP_reg28]
     659                    $C$DW$129       .dwtag  DW_TAG_variable, DW_AT_name("$O$K232")
     660                            .dwattr $C$DW$129, DW_AT_TI_symbol_name("$O$K232")
TMS320C6x Assembler PC v7.4.2 Thu Mar 19 12:43:28 2015

Tools Copyright (c) 1996-2012 Texas Instruments Incorporated
package/lib/Regression/regress_d_c/./../packages/ti/vlib/src/VLIB_mixtureOfGaussiansS32/VLIB_mixtureOfGaussiansS32_d.se66 PAGE   13

     661                            .dwattr $C$DW$129, DW_AT_type(*$C$DW$T$82)
     662                            .dwattr $C$DW$129, DW_AT_location[DW_OP_reg8]
     663                    $C$DW$130       .dwtag  DW_TAG_variable, DW_AT_name("$O$L1")
     664                            .dwattr $C$DW$130, DW_AT_TI_symbol_name("$O$L1")
     665                            .dwattr $C$DW$130, DW_AT_type(*$C$DW$T$10)
     666                            .dwattr $C$DW$130, DW_AT_location[DW_OP_breg31 132]
     667                    $C$DW$131       .dwtag  DW_TAG_variable, DW_AT_name("$O$L2")
     668                            .dwattr $C$DW$131, DW_AT_TI_symbol_name("$O$L2")
     669                            .dwattr $C$DW$131, DW_AT_type(*$C$DW$T$10)
     670                            .dwattr $C$DW$131, DW_AT_location[DW_OP_breg31 132]
     671                    $C$DW$132       .dwtag  DW_TAG_variable, DW_AT_name("$O$L3")
     672                            .dwattr $C$DW$132, DW_AT_TI_symbol_name("$O$L3")
     673                            .dwattr $C$DW$132, DW_AT_type(*$C$DW$T$10)
     674                            .dwattr $C$DW$132, DW_AT_location[DW_OP_reg0]
     675                    $C$DW$133       .dwtag  DW_TAG_variable, DW_AT_name("$O$L4")
     676                            .dwattr $C$DW$133, DW_AT_TI_symbol_name("$O$L4")
     677                            .dwattr $C$DW$133, DW_AT_type(*$C$DW$T$10)
     678                            .dwattr $C$DW$133, DW_AT_location[DW_OP_breg31 132]
     679                    $C$DW$134       .dwtag  DW_TAG_variable, DW_AT_name("$O$L5")
     680                            .dwattr $C$DW$134, DW_AT_TI_symbol_name("$O$L5")
     681                            .dwattr $C$DW$134, DW_AT_type(*$C$DW$T$10)
     682                            .dwattr $C$DW$134, DW_AT_location[DW_OP_breg31 132]
     683                    $C$DW$135       .dwtag  DW_TAG_variable, DW_AT_name("$O$L6")
     684                            .dwattr $C$DW$135, DW_AT_TI_symbol_name("$O$L6")
     685                            .dwattr $C$DW$135, DW_AT_type(*$C$DW$T$10)
     686                            .dwattr $C$DW$135, DW_AT_location[DW_OP_reg0]
     687                    $C$DW$136       .dwtag  DW_TAG_variable, DW_AT_name("LevelOfFeedback")
     688                            .dwattr $C$DW$136, DW_AT_TI_symbol_name("LevelOfFeedback")
     689                            .dwattr $C$DW$136, DW_AT_type(*$C$DW$T$110)
     690                            .dwattr $C$DW$136, DW_AT_location[DW_OP_breg31 136]
     691                    $C$DW$137       .dwtag  DW_TAG_variable, DW_AT_name("tpi")
     692                            .dwattr $C$DW$137, DW_AT_TI_symbol_name("tpi")
     693                            .dwattr $C$DW$137, DW_AT_type(*$C$DW$T$23)
     694                            .dwattr $C$DW$137, DW_AT_location[DW_OP_reg13]
     695                    $C$DW$138       .dwtag  DW_TAG_variable, DW_AT_name("prm")
     696                            .dwattr $C$DW$138, DW_AT_TI_symbol_name("prm")
     697                            .dwattr $C$DW$138, DW_AT_type(*$C$DW$T$45)
     698                            .dwattr $C$DW$138, DW_AT_location[DW_OP_breg31 116]
     699                    $C$DW$139       .dwtag  DW_TAG_variable, DW_AT_name("status_nat_vs_int")
     700                            .dwattr $C$DW$139, DW_AT_TI_symbol_name("status_nat_vs_int")
     701                            .dwattr $C$DW$139, DW_AT_type(*$C$DW$T$23)
     702                            .dwattr $C$DW$139, DW_AT_location[DW_OP_reg10]
     703                    $C$DW$140       .dwtag  DW_TAG_variable, DW_AT_name("status_nat_vs_ref")
     704                            .dwattr $C$DW$140, DW_AT_TI_symbol_name("status_nat_vs_ref")
     705                            .dwattr $C$DW$140, DW_AT_type(*$C$DW$T$23)
     706                            .dwattr $C$DW$140, DW_AT_location[DW_OP_reg11]
     707                    $C$DW$141       .dwtag  DW_TAG_variable, DW_AT_name("Im")
     708                            .dwattr $C$DW$141, DW_AT_TI_symbol_name("Im")
     709                            .dwattr $C$DW$141, DW_AT_type(*$C$DW$T$20)
     710                            .dwattr $C$DW$141, DW_AT_location[DW_OP_breg31 140]
     711                    $C$DW$142       .dwtag  DW_TAG_variable, DW_AT_name("wt")
     712                            .dwattr $C$DW$142, DW_AT_TI_symbol_name("wt")
     713                            .dwattr $C$DW$142, DW_AT_type(*$C$DW$T$115)
     714                            .dwattr $C$DW$142, DW_AT_location[DW_OP_breg31 144]
     715                    $C$DW$143       .dwtag  DW_TAG_variable, DW_AT_name("mu")
TMS320C6x Assembler PC v7.4.2 Thu Mar 19 12:43:28 2015

Tools Copyright (c) 1996-2012 Texas Instruments Incorporated
package/lib/Regression/regress_d_c/./../packages/ti/vlib/src/VLIB_mixtureOfGaussiansS32/VLIB_mixtureOfGaussiansS32_d.se66 PAGE   14

     716                            .dwattr $C$DW$143, DW_AT_TI_symbol_name("mu")
     717                            .dwattr $C$DW$143, DW_AT_type(*$C$DW$T$78)
     718                            .dwattr $C$DW$143, DW_AT_location[DW_OP_breg31 148]
     719                    $C$DW$144       .dwtag  DW_TAG_variable, DW_AT_name("var")
     720                            .dwattr $C$DW$144, DW_AT_TI_symbol_name("var")
     721                            .dwattr $C$DW$144, DW_AT_type(*$C$DW$T$78)
     722                            .dwattr $C$DW$144, DW_AT_location[DW_OP_breg31 152]
     723                    $C$DW$145       .dwtag  DW_TAG_variable, DW_AT_name("compNum")
     724                            .dwattr $C$DW$145, DW_AT_TI_symbol_name("compNum")
     725                            .dwattr $C$DW$145, DW_AT_type(*$C$DW$T$20)
     726                            .dwattr $C$DW$145, DW_AT_location[DW_OP_breg31 156]
     727                    $C$DW$146       .dwtag  DW_TAG_variable, DW_AT_name("updateMask8")
     728                            .dwattr $C$DW$146, DW_AT_TI_symbol_name("updateMask8")
     729                            .dwattr $C$DW$146, DW_AT_type(*$C$DW$T$20)
     730                            .dwattr $C$DW$146, DW_AT_location[DW_OP_breg31 160]
     731                    $C$DW$147       .dwtag  DW_TAG_variable, DW_AT_name("Im_mask")
     732                            .dwattr $C$DW$147, DW_AT_TI_symbol_name("Im_mask")
     733                            .dwattr $C$DW$147, DW_AT_type(*$C$DW$T$22)
     734                            .dwattr $C$DW$147, DW_AT_location[DW_OP_breg31 164]
     735                    $C$DW$148       .dwtag  DW_TAG_variable, DW_AT_name("Im_mask_cn")
     736                            .dwattr $C$DW$148, DW_AT_TI_symbol_name("Im_mask_cn")
     737                            .dwattr $C$DW$148, DW_AT_type(*$C$DW$T$22)
     738                            .dwattr $C$DW$148, DW_AT_location[DW_OP_breg31 168]
     739                    $C$DW$149       .dwtag  DW_TAG_variable, DW_AT_name("$O$K94")
     740                            .dwattr $C$DW$149, DW_AT_TI_symbol_name("$O$K94")
     741                            .dwattr $C$DW$149, DW_AT_type(*$C$DW$T$171)
     742                            .dwattr $C$DW$149, DW_AT_location[DW_OP_reg6]
     743                    $C$DW$150       .dwtag  DW_TAG_variable, DW_AT_name("$O$K94")
     744                            .dwattr $C$DW$150, DW_AT_TI_symbol_name("$O$K94")
     745                            .dwattr $C$DW$150, DW_AT_type(*$C$DW$T$171)
     746                            .dwattr $C$DW$150, DW_AT_location[DW_OP_reg3]
     747                    $C$DW$151       .dwtag  DW_TAG_variable, DW_AT_name("$O$K102")
     748                            .dwattr $C$DW$151, DW_AT_TI_symbol_name("$O$K102")
     749                            .dwattr $C$DW$151, DW_AT_type(*$C$DW$T$10)
     750                            .dwattr $C$DW$151, DW_AT_location[DW_OP_reg3]
     751                    $C$DW$152       .dwtag  DW_TAG_variable, DW_AT_name("$O$K102")
     752                            .dwattr $C$DW$152, DW_AT_TI_symbol_name("$O$K102")
     753                            .dwattr $C$DW$152, DW_AT_type(*$C$DW$T$10)
     754                            .dwattr $C$DW$152, DW_AT_location[DW_OP_reg3]
     755                    $C$DW$153       .dwtag  DW_TAG_variable, DW_AT_name("$O$K112")
     756                            .dwattr $C$DW$153, DW_AT_TI_symbol_name("$O$K112")
     757                            .dwattr $C$DW$153, DW_AT_type(*$C$DW$T$10)
     758                            .dwattr $C$DW$153, DW_AT_location[DW_OP_reg5]
     759                    $C$DW$154       .dwtag  DW_TAG_variable, DW_AT_name("$O$K112")
     760                            .dwattr $C$DW$154, DW_AT_TI_symbol_name("$O$K112")
     761                            .dwattr $C$DW$154, DW_AT_type(*$C$DW$T$10)
     762                            .dwattr $C$DW$154, DW_AT_location[DW_OP_regx 0x33]
     763                    $C$DW$155       .dwtag  DW_TAG_variable, DW_AT_name("$O$U159")
     764                            .dwattr $C$DW$155, DW_AT_TI_symbol_name("$O$U159")
     765                            .dwattr $C$DW$155, DW_AT_type(*$C$DW$T$147)
     766                            .dwattr $C$DW$155, DW_AT_location[DW_OP_reg12]
     767                    $C$DW$156       .dwtag  DW_TAG_variable, DW_AT_name("$O$U159")
     768                            .dwattr $C$DW$156, DW_AT_TI_symbol_name("$O$U159")
     769                            .dwattr $C$DW$156, DW_AT_type(*$C$DW$T$147)
     770                            .dwattr $C$DW$156, DW_AT_location[DW_OP_reg15]
TMS320C6x Assembler PC v7.4.2 Thu Mar 19 12:43:28 2015

Tools Copyright (c) 1996-2012 Texas Instruments Incorporated
package/lib/Regression/regress_d_c/./../packages/ti/vlib/src/VLIB_mixtureOfGaussiansS32/VLIB_mixtureOfGaussiansS32_d.se66 PAGE   15

     771                    $C$DW$157       .dwtag  DW_TAG_variable, DW_AT_name("$O$U159")
     772                            .dwattr $C$DW$157, DW_AT_TI_symbol_name("$O$U159")
     773                            .dwattr $C$DW$157, DW_AT_type(*$C$DW$T$147)
     774                            .dwattr $C$DW$157, DW_AT_location[DW_OP_reg12]
     775                    $C$DW$158       .dwtag  DW_TAG_variable, DW_AT_name("$O$U159")
     776                            .dwattr $C$DW$158, DW_AT_TI_symbol_name("$O$U159")
     777                            .dwattr $C$DW$158, DW_AT_type(*$C$DW$T$147)
     778                            .dwattr $C$DW$158, DW_AT_location[DW_OP_reg15]
     779                    $C$DW$159       .dwtag  DW_TAG_variable, DW_AT_name("$O$U152")
     780                            .dwattr $C$DW$159, DW_AT_TI_symbol_name("$O$U152")
     781                            .dwattr $C$DW$159, DW_AT_type(*$C$DW$T$136)
     782                            .dwattr $C$DW$159, DW_AT_location[DW_OP_reg15]
     783                    $C$DW$160       .dwtag  DW_TAG_variable, DW_AT_name("$O$U152")
     784                            .dwattr $C$DW$160, DW_AT_TI_symbol_name("$O$U152")
     785                            .dwattr $C$DW$160, DW_AT_type(*$C$DW$T$136)
     786                            .dwattr $C$DW$160, DW_AT_location[DW_OP_reg15]
     787                    $C$DW$161       .dwtag  DW_TAG_variable, DW_AT_name("$O$U170")
     788                            .dwattr $C$DW$161, DW_AT_TI_symbol_name("$O$U170")
     789                            .dwattr $C$DW$161, DW_AT_type(*$C$DW$T$136)
     790                            .dwattr $C$DW$161, DW_AT_location[DW_OP_breg31 172]
     791                    $C$DW$162       .dwtag  DW_TAG_variable, DW_AT_name("$O$U170")
     792                            .dwattr $C$DW$162, DW_AT_TI_symbol_name("$O$U170")
     793                            .dwattr $C$DW$162, DW_AT_type(*$C$DW$T$136)
     794                            .dwattr $C$DW$162, DW_AT_location[DW_OP_breg31 172]
     795                    $C$DW$163       .dwtag  DW_TAG_variable, DW_AT_name("$O$U178")
     796                            .dwattr $C$DW$163, DW_AT_TI_symbol_name("$O$U178")
     797                            .dwattr $C$DW$163, DW_AT_type(*$C$DW$T$114)
     798                            .dwattr $C$DW$163, DW_AT_location[DW_OP_reg26]
     799                    $C$DW$164       .dwtag  DW_TAG_variable, DW_AT_name("$O$U178")
     800                            .dwattr $C$DW$164, DW_AT_TI_symbol_name("$O$U178")
     801                            .dwattr $C$DW$164, DW_AT_type(*$C$DW$T$114)
     802                            .dwattr $C$DW$164, DW_AT_location[DW_OP_reg26]
     803                    $C$DW$165       .dwtag  DW_TAG_variable, DW_AT_name("$O$U194")
     804                            .dwattr $C$DW$165, DW_AT_TI_symbol_name("$O$U194")
     805                            .dwattr $C$DW$165, DW_AT_type(*$C$DW$T$26)
     806                            .dwattr $C$DW$165, DW_AT_location[DW_OP_reg28]
     807                    $C$DW$166       .dwtag  DW_TAG_variable, DW_AT_name("$O$U194")
     808                            .dwattr $C$DW$166, DW_AT_TI_symbol_name("$O$U194")
     809                            .dwattr $C$DW$166, DW_AT_type(*$C$DW$T$26)
     810                            .dwattr $C$DW$166, DW_AT_location[DW_OP_reg28]
     811                    $C$DW$167       .dwtag  DW_TAG_variable, DW_AT_name("$O$U186")
     812                            .dwattr $C$DW$167, DW_AT_TI_symbol_name("$O$U186")
     813                            .dwattr $C$DW$167, DW_AT_type(*$C$DW$T$10)
     814                            .dwattr $C$DW$167, DW_AT_location[DW_OP_reg26]
     815                    $C$DW$168       .dwtag  DW_TAG_variable, DW_AT_name("$O$U186")
     816                            .dwattr $C$DW$168, DW_AT_TI_symbol_name("$O$U186")
     817                            .dwattr $C$DW$168, DW_AT_type(*$C$DW$T$10)
     818                            .dwattr $C$DW$168, DW_AT_location[DW_OP_reg26]
     819                    $C$DW$169       .dwtag  DW_TAG_variable, DW_AT_name("$O$U205")
     820                            .dwattr $C$DW$169, DW_AT_TI_symbol_name("$O$U205")
     821                            .dwattr $C$DW$169, DW_AT_type(*$C$DW$T$11)
     822                            .dwattr $C$DW$169, DW_AT_location[DW_OP_reg15]
     823                    $C$DW$170       .dwtag  DW_TAG_variable, DW_AT_name("$O$U205")
     824                            .dwattr $C$DW$170, DW_AT_TI_symbol_name("$O$U205")
     825                            .dwattr $C$DW$170, DW_AT_type(*$C$DW$T$11)
TMS320C6x Assembler PC v7.4.2 Thu Mar 19 12:43:28 2015

Tools Copyright (c) 1996-2012 Texas Instruments Incorporated
package/lib/Regression/regress_d_c/./../packages/ti/vlib/src/VLIB_mixtureOfGaussiansS32/VLIB_mixtureOfGaussiansS32_d.se66 PAGE   16

     826                            .dwattr $C$DW$170, DW_AT_location[DW_OP_reg15]
     827                    $C$DW$171       .dwtag  DW_TAG_variable, DW_AT_name("i")
     828                            .dwattr $C$DW$171, DW_AT_TI_symbol_name("i")
     829                            .dwattr $C$DW$171, DW_AT_type(*$C$DW$T$23)
     830                            .dwattr $C$DW$171, DW_AT_location[DW_OP_reg29]
     831                    $C$DW$172       .dwtag  DW_TAG_variable, DW_AT_name("i")
     832                            .dwattr $C$DW$172, DW_AT_TI_symbol_name("i")
     833                            .dwattr $C$DW$172, DW_AT_type(*$C$DW$T$23)
     834                            .dwattr $C$DW$172, DW_AT_location[DW_OP_reg29]
     835                    $C$DW$173       .dwtag  DW_TAG_variable, DW_AT_name("k")
     836                            .dwattr $C$DW$173, DW_AT_TI_symbol_name("k")
     837                            .dwattr $C$DW$173, DW_AT_type(*$C$DW$T$23)
     838                            .dwattr $C$DW$173, DW_AT_location[DW_OP_reg28]
     839                    $C$DW$174       .dwtag  DW_TAG_variable, DW_AT_name("k")
     840                            .dwattr $C$DW$174, DW_AT_TI_symbol_name("k")
     841                            .dwattr $C$DW$174, DW_AT_type(*$C$DW$T$23)
     842                            .dwattr $C$DW$174, DW_AT_location[DW_OP_reg12]
     843                    $C$DW$175       .dwtag  DW_TAG_variable, DW_AT_name("k")
     844                            .dwattr $C$DW$175, DW_AT_TI_symbol_name("k")
     845                            .dwattr $C$DW$175, DW_AT_type(*$C$DW$T$23)
     846                            .dwattr $C$DW$175, DW_AT_location[DW_OP_reg12]
     847                    $C$DW$176       .dwtag  DW_TAG_variable, DW_AT_name("k")
     848                            .dwattr $C$DW$176, DW_AT_TI_symbol_name("k")
     849                            .dwattr $C$DW$176, DW_AT_type(*$C$DW$T$23)
     850                            .dwattr $C$DW$176, DW_AT_location[DW_OP_reg28]
     851                    $C$DW$177       .dwtag  DW_TAG_variable, DW_AT_name("k")
     852                            .dwattr $C$DW$177, DW_AT_TI_symbol_name("k")
     853                            .dwattr $C$DW$177, DW_AT_type(*$C$DW$T$23)
     854                            .dwattr $C$DW$177, DW_AT_location[DW_OP_reg12]
     855                    $C$DW$178       .dwtag  DW_TAG_variable, DW_AT_name("k")
     856                            .dwattr $C$DW$178, DW_AT_TI_symbol_name("k")
     857                            .dwattr $C$DW$178, DW_AT_type(*$C$DW$T$23)
     858                            .dwattr $C$DW$178, DW_AT_location[DW_OP_reg12]
     859                    $C$DW$179       .dwtag  DW_TAG_variable, DW_AT_name("counter")
     860                            .dwattr $C$DW$179, DW_AT_TI_symbol_name("counter")
     861                            .dwattr $C$DW$179, DW_AT_type(*$C$DW$T$23)
     862                            .dwattr $C$DW$179, DW_AT_location[DW_OP_reg14]
     863                    $C$DW$180       .dwtag  DW_TAG_variable, DW_AT_name("counter")
     864                            .dwattr $C$DW$180, DW_AT_TI_symbol_name("counter")
     865                            .dwattr $C$DW$180, DW_AT_type(*$C$DW$T$23)
     866                            .dwattr $C$DW$180, DW_AT_location[DW_OP_reg14]
     867                    $C$DW$181       .dwtag  DW_TAG_variable, DW_AT_name("$O$v1")
     868                            .dwattr $C$DW$181, DW_AT_TI_symbol_name("$O$v1")
     869                            .dwattr $C$DW$181, DW_AT_type(*$C$DW$T$45)
     870                            .dwattr $C$DW$181, DW_AT_location[DW_OP_reg10]
     871                    $C$DW$182       .dwtag  DW_TAG_variable, DW_AT_name("$O$v1")
     872                            .dwattr $C$DW$182, DW_AT_TI_symbol_name("$O$v1")
     873                            .dwattr $C$DW$182, DW_AT_type(*$C$DW$T$45)
     874                            .dwattr $C$DW$182, DW_AT_location[DW_OP_reg10]
     875                    $C$DW$183       .dwtag  DW_TAG_variable, DW_AT_name("$O$v2")
     876                            .dwattr $C$DW$183, DW_AT_TI_symbol_name("$O$v2")
     877                            .dwattr $C$DW$183, DW_AT_type(*$C$DW$T$172)
     878                            .dwattr $C$DW$183, DW_AT_location[DW_OP_reg22]
     879                    $C$DW$184       .dwtag  DW_TAG_variable, DW_AT_name("$O$v2")
     880                            .dwattr $C$DW$184, DW_AT_TI_symbol_name("$O$v2")
TMS320C6x Assembler PC v7.4.2 Thu Mar 19 12:43:28 2015

Tools Copyright (c) 1996-2012 Texas Instruments Incorporated
package/lib/Regression/regress_d_c/./../packages/ti/vlib/src/VLIB_mixtureOfGaussiansS32/VLIB_mixtureOfGaussiansS32_d.se66 PAGE   17

     881                            .dwattr $C$DW$184, DW_AT_type(*$C$DW$T$172)
     882                            .dwattr $C$DW$184, DW_AT_location[DW_OP_reg20]
     883                    $C$DW$185       .dwtag  DW_TAG_variable, DW_AT_name("mode")
     884                            .dwattr $C$DW$185, DW_AT_TI_symbol_name("mode")
     885                            .dwattr $C$DW$185, DW_AT_type(*$C$DW$T$106)
     886                            .dwattr $C$DW$185, DW_AT_location[DW_OP_breg31 120]
     887 00000014 0200002a!            MVKL    .S2     test_cases,B4
     888 00000018 0200006a!            MVKH    .S2     test_cases,B4
     889                    $C$DW$186       .dwtag  DW_TAG_TI_branch
     890                            .dwattr $C$DW$186, DW_AT_low_pc(0x00)
     891                            .dwattr $C$DW$186, DW_AT_name("mixtureOfGaussiansS32_getTestParams")
     892                            .dwattr $C$DW$186, DW_AT_TI_call
     893                    
     894 00000020 10000013!            CALLP   .S2     mixtureOfGaussiansS32_getTestParams,B3
     895 00000024 020022fd  ||         STW     .D2T1   A4,*+SP(136)      ; |39| 
     896 00000028 12001dfc  ||         ADDAW   .D1X    SP,29,A4          ; |45| 
     897                    
     898                            .dwpsn  file "./../packages/ti/vlib/src/VLIB_mixtureOfGaussiansS32/VLIB_mixtureOfGaussiansS32_
     899                    ;----------------------------------------------------------------------
     900                    ;  45 | mixtureOfGaussiansS32_getTestParams(&prm, &test_cases);                
     901                    ;----------------------------------------------------------------------
     902 0000002c           $C$RL0:    ; CALL OCCURS {mixtureOfGaussiansS32_getTestParams} {0}  ; |45| 
     903                    ;** --------------------------------------------------------------------------*
     904                    ;          EXCLUSIVE CPU CYCLES: 8
     905 0000002c 0200002a!            MVKL    .S2     $C$SL1+0,B4
     906 00000030 0200006a!            MVKH    .S2     $C$SL1+0,B4
     907                    $C$DW$187       .dwtag  DW_TAG_TI_branch
     908                            .dwattr $C$DW$187, DW_AT_low_pc(0x00)
     909                            .dwattr $C$DW$187, DW_AT_name("VLIB_profile_init")
     910                            .dwattr $C$DW$187, DW_AT_TI_call
     911                    
     912 00000034 10000013!            CALLP   .S2     VLIB_profile_init,B3
     913 00000038 020ca358  ||         MVK     .L1     0x3,A4            ; |48| 
     914                    
     915                            .dwpsn  file "./../packages/ti/vlib/src/VLIB_mixtureOfGaussiansS32/VLIB_mixtureOfGaussiansS32_
     916                    ;----------------------------------------------------------------------
     917                    ;  48 | VLIB_profile_init(3, "VLIB_mixtureOfGaussiansS32");                    
     918                    ;----------------------------------------------------------------------
     919 0000003c           $C$RL1:    ; CALL OCCURS {VLIB_profile_init} {0}  ; |48| 
     920                    ;** --------------------------------------------------------------------------*
     921                    ;          EXCLUSIVE CPU CYCLES: 14
     922 0000003c 01800028!            MVKL    .S1     test_cases,A3
     923 00000040 01800068!            MVKH    .S1     test_cases,A3
     924                            .dwpsn  file "./../packages/ti/vlib/src/VLIB_mixtureOfGaussiansS32/VLIB_mixtureOfGaussiansS32_
     925                    ;----------------------------------------------------------------------
     926                    ;  51 | for( tpi=0; tpi < test_cases; tpi++ ) {                                
     927                    ;  54 |     int32_t    status_nat_vs_int = vlib_KERNEL_PASS; /* Test status : N
     928                    ;     | atural c vs. Optimized */                                              
     929                    ;  55 |     int32_t    status_nat_vs_ref = vlib_KERNEL_PASS; /* Test status : N
     930                    ;     | atural c vs. Static Reference */                                       
     931                    ;  58 |     uint32_t    inp_size     =   prm[tpi].im_size * prm[tpi].num_images
     932                    ;     | ; // Allocate all frames into a single buffer for this test            
     933                    ;----------------------------------------------------------------------
     934 00000044 018c0264             LDW     .D1T1   *A3,A3            ; |51| 
     935 00000048 05bfa2e6             LDW     .D2T2   *+SP(116),B11
TMS320C6x Assembler PC v7.4.2 Thu Mar 19 12:43:28 2015

Tools Copyright (c) 1996-2012 Texas Instruments Incorporated
package/lib/Regression/regress_d_c/./../packages/ti/vlib/src/VLIB_mixtureOfGaussiansS32/VLIB_mixtureOfGaussiansS32_d.se66 PAGE   18

     936 0000004c 0680a358             ZERO    .L1     A13
     937 00000050 00002000             NOP             2
     938                    
     939 00000054 000c0ad9             CMPGT   .L1     A3,0,A0           ; |51| 
     940 00000058 01800028  ||         ZERO    .S1     A3
     941                    
     942 0000005c d4192121     [!A0]   BNOP    .S1     $C$L36,1          ; |51| 
     943 00000060 018020fc  ||         STW     .D2T1   A3,*+SP(128)
     944                    
     945                            .dwpsn  file "./../packages/ti/vlib/src/VLIB_mixtureOfGaussiansS32/VLIB_mixtureOfGaussiansS32_
     946                    ;----------------------------------------------------------------------
     947                    ;  61 | uint8_t    *Im          =  (uint8_t *) VLIB_malloc(inp_size*sizeof(uint
     948                    ;     | 8_t));                                                                 
     949                    ;----------------------------------------------------------------------
     950 00000064 c1ac82e4     [ A0]   LDW     .D2T1   *+B11(16),A3      ; |61| 
     951 00000068 c22c62e6     [ A0]   LDW     .D2T2   *+B11(12),B4      ; |61| 
     952 0000006c 00002000             NOP             2
     953                            .dwpsn  file "./../packages/ti/vlib/src/VLIB_mixtureOfGaussiansS32/VLIB_mixtureOfGaussiansS32_
     954                               ; BRANCHCC OCCURS {$C$L36}        ; |51| 
     955                    ;** --------------------------------------------------------------------------*
     956                    ;**     -----------------------    K$59 = &testPatternString[0];
     957                    ;**     -----------------------    K$65 = 255;
     958                    ;**     -----------------------    K$232 = &desc[0];
     959                    ;**     -----------------------    U$13 = prm;
     960                    ;**     -----------------------    K$36 = 0xfffffffcu;
     961                    ;**     -----------------------    U$12 = 0;
     962                    ;** 51  -----------------------    tpi = 0;
     963                    ;**     -----------------------    #pragma LOOP_FLAGS(5120u)
     964                    ;** --------------------------------------------------------------------------*
     965                    ;**   BEGIN LOOP $C$L1
     966                    ;** --------------------------------------------------------------------------*
     967 00000070           $C$L1:    
     968                            .dwpsn  file "./../packages/ti/vlib/src/VLIB_mixtureOfGaussiansS32/VLIB_mixtureOfGaussiansS32_
     969 00000070           $C$DW$L$VLIB_mixtureOfGaussiansS32_d$5$B:
     970                    ;          EXCLUSIVE CPU CYCLES: 6
     971                    ;**     -----------------------g3:
     972                    ;** 61  -----------------------    Im = VLIB_malloc((unsigned)((*U$13).im_size*(*U$13).num_images));
     973                    ;** 62  -----------------------    wt = VLIB_malloc((*U$13).im_size*6u);
     974                    ;** 63  -----------------------    mu = VLIB_malloc((*U$13).im_size*12u);
     975                    ;** 64  -----------------------    var = VLIB_malloc((*U$13).im_size*12u);
     976                    ;** 65  -----------------------    compNum = VLIB_malloc((unsigned)(*U$13).im_size);
     977                    ;** 66  -----------------------    updateMask8 = VLIB_malloc((unsigned)(*U$13).im_size);
     978                    ;** 67  -----------------------    C$11 = (*U$13).im_size;
     979                    ;** 67  -----------------------    Im_mask = VLIB_malloc((C$11>>4>>27)+C$11>>3&K$36);
     980                    ;** 68  -----------------------    C$10 = (*U$13).im_size;
     981                    ;** 68  -----------------------    Im_mask_cn = malloc((C$10>>4>>27)+C$10>>3&K$36);
     982                    ;** 71  -----------------------    if ( !((Im != NULL)&(wt != NULL)&(mu != NULL)&(var != NULL)&(compNu
     983                            .dwpsn  file "./../packages/ti/vlib/src/VLIB_mixtureOfGaussiansS32/VLIB_mixtureOfGaussiansS32_
     984                    $C$DW$188       .dwtag  DW_TAG_TI_branch
     985                            .dwattr $C$DW$188, DW_AT_low_pc(0x00)
     986                            .dwattr $C$DW$188, DW_AT_name("VLIB_malloc")
     987                            .dwattr $C$DW$188, DW_AT_TI_call
     988 00000070 00000010!            CALL    .S1     VLIB_malloc       ; |61| 
     989 00000074 01880162             ADDKPC  .S2     $C$RL2,B3,0       ; |61| 
     990 00000078 02107800             MPY32   .M1X    A3,B4,A4          ; |61| 
TMS320C6x Assembler PC v7.4.2 Thu Mar 19 12:43:28 2015

Tools Copyright (c) 1996-2012 Texas Instruments Incorporated
package/lib/Regression/regress_d_c/./../packages/ti/vlib/src/VLIB_mixtureOfGaussiansS32/VLIB_mixtureOfGaussiansS32_d.se66 PAGE   19

     991 0000007c 00004000             NOP             3
     992 00000080           $C$RL2:    ; CALL OCCURS {VLIB_malloc} {0}   ; |61| 
     993 00000080           $C$DW$L$VLIB_mixtureOfGaussiansS32_d$5$E:
     994                    ;** --------------------------------------------------------------------------*
     995 00000080           $C$DW$L$VLIB_mixtureOfGaussiansS32_d$6$B:
     996                    ;          EXCLUSIVE CPU CYCLES: 87
     997                            .dwpsn  file "./../packages/ti/vlib/src/VLIB_mixtureOfGaussiansS32/VLIB_mixtureOfGaussiansS32_
     998                    ;----------------------------------------------------------------------
     999                    ;  62 | int16_t    *wt          =  (int16_t *) VLIB_malloc(prm[tpi].im_size * 3
    1000                    ;     |  * sizeof(int16_t));                                                   
    1001                    ;----------------------------------------------------------------------
    1002 00000080 022c62e6             LDW     .D2T2   *+B11(12),B4      ; |62| 
    1003                            .dwpsn  file "./../packages/ti/vlib/src/VLIB_mixtureOfGaussiansS32/VLIB_mixtureOfGaussiansS32_
    1004 00000084 020023fc             STW     .D2T1   A4,*+SP(140)      ; |61| 
    1005 00000088     4c6e             NOP             3
    1006                            .dwpsn  file "./../packages/ti/vlib/src/VLIB_mixtureOfGaussiansS32/VLIB_mixtureOfGaussiansS32_
    1007 0000008a     465b             SHL     .S2     B4,2,B5           ; |62| 
    1008 0000008c 02149a42             ADDAH   .D2     B5,B4,B4          ; |62| 
    1009 00000090     0c6e             NOP             1
    1010                    $C$DW$189       .dwtag  DW_TAG_TI_branch
    1011                            .dwattr $C$DW$189, DW_AT_low_pc(0x04)
    1012                            .dwattr $C$DW$189, DW_AT_name("VLIB_malloc")
    1013                            .dwattr $C$DW$189, DW_AT_TI_call
    1014                    
    1015 00000092     9246             MV      .L1X    B4,A4             ; |62| 
    1016 00000094 10000012! ||         CALLP   .S2     VLIB_malloc,B3
    1017                    
    1018 00000098           $C$RL3:    ; CALL OCCURS {VLIB_malloc} {0}   ; |62| 
    1019                            .dwpsn  file "./../packages/ti/vlib/src/VLIB_mixtureOfGaussiansS32/VLIB_mixtureOfGaussiansS32_
    1020                    ;----------------------------------------------------------------------
    1021                    ;  63 | int32_t    *mu          =  (int32_t *) VLIB_malloc(prm[tpi].im_size * 3
    1022                    ;     |  * sizeof(int32_t));                                                   
    1023                    ;----------------------------------------------------------------------
    1024 00000098 022c62e6             LDW     .D2T2   *+B11(12),B4      ; |63| 
    1025                            .dwpsn  file "./../packages/ti/vlib/src/VLIB_mixtureOfGaussiansS32/VLIB_mixtureOfGaussiansS32_
    1026 000000a0 020024fc             STW     .D2T1   A4,*+SP(144)      ; |62| 
    1027 000000a4     4c6e             NOP             3
    1028                            .dwpsn  file "./../packages/ti/vlib/src/VLIB_mixtureOfGaussiansS32/VLIB_mixtureOfGaussiansS32_
    1029 000000a6     665b             SHL     .S2     B4,3,B5           ; |63| 
    1030 000000a8 02149c42             ADDAW   .D2     B5,B4,B4          ; |63| 
    1031 000000ac     0c6e             NOP             1
    1032                    $C$DW$190       .dwtag  DW_TAG_TI_branch
    1033                            .dwattr $C$DW$190, DW_AT_low_pc(0x04)
    1034                            .dwattr $C$DW$190, DW_AT_name("VLIB_malloc")
    1035                            .dwattr $C$DW$190, DW_AT_TI_call
    1036                    
    1037 000000ae     9246             MV      .L1X    B4,A4             ; |63| 
    1038 000000b0 10000012! ||         CALLP   .S2     VLIB_malloc,B3
    1039                    
    1040 000000b4           $C$RL4:    ; CALL OCCURS {VLIB_malloc} {0}   ; |63| 
    1041                            .dwpsn  file "./../packages/ti/vlib/src/VLIB_mixtureOfGaussiansS32/VLIB_mixtureOfGaussiansS32_
    1042                    ;----------------------------------------------------------------------
    1043                    ;  64 | int32_t    *var         =  (int32_t *) VLIB_malloc(prm[tpi].im_size * 3
    1044                    ;     |  * sizeof(int32_t));                                                   
    1045                    ;----------------------------------------------------------------------
TMS320C6x Assembler PC v7.4.2 Thu Mar 19 12:43:28 2015

Tools Copyright (c) 1996-2012 Texas Instruments Incorporated
package/lib/Regression/regress_d_c/./../packages/ti/vlib/src/VLIB_mixtureOfGaussiansS32/VLIB_mixtureOfGaussiansS32_d.se66 PAGE   20

    1046 000000b4 022c62e6             LDW     .D2T2   *+B11(12),B4      ; |64| 
    1047                            .dwpsn  file "./../packages/ti/vlib/src/VLIB_mixtureOfGaussiansS32/VLIB_mixtureOfGaussiansS32_
    1048 000000b8 020025fc             STW     .D2T1   A4,*+SP(148)      ; |63| 
    1049 000000c0     4c6e             NOP             3
    1050                            .dwpsn  file "./../packages/ti/vlib/src/VLIB_mixtureOfGaussiansS32/VLIB_mixtureOfGaussiansS32_
    1051 000000c2     665b             SHL     .S2     B4,3,B5           ; |64| 
    1052 000000c4 02149c42             ADDAW   .D2     B5,B4,B4          ; |64| 
    1053 000000c8     0c6e             NOP             1
    1054                    $C$DW$191       .dwtag  DW_TAG_TI_branch
    1055                            .dwattr $C$DW$191, DW_AT_low_pc(0x04)
    1056                            .dwattr $C$DW$191, DW_AT_name("VLIB_malloc")
    1057                            .dwattr $C$DW$191, DW_AT_TI_call
    1058                    
    1059 000000ca     9246             MV      .L1X    B4,A4             ; |64| 
    1060 000000cc 10000012! ||         CALLP   .S2     VLIB_malloc,B3
    1061                    
    1062 000000d0           $C$RL5:    ; CALL OCCURS {VLIB_malloc} {0}   ; |64| 
    1063 000000d0 020026fc             STW     .D2T1   A4,*+SP(152)      ; |64| 
    1064                    $C$DW$192       .dwtag  DW_TAG_TI_branch
    1065                            .dwattr $C$DW$192, DW_AT_low_pc(0x00)
    1066                            .dwattr $C$DW$192, DW_AT_name("VLIB_malloc")
    1067                            .dwattr $C$DW$192, DW_AT_TI_call
    1068                    
    1069 000000d4 10000013!            CALLP   .S2     VLIB_malloc,B3
    1070 000000d8 022c62e4  ||         LDW     .D2T1   *+B11(12),A4      ; |65| 
    1071                    
    1072                            .dwpsn  file "./../packages/ti/vlib/src/VLIB_mixtureOfGaussiansS32/VLIB_mixtureOfGaussiansS32_
    1073                    ;----------------------------------------------------------------------
    1074                    ;  65 | uint8_t    *compNum     =  (uint8_t *) VLIB_malloc(prm[tpi].im_size * s
    1075                    ;     | izeof(uint8_t));                                                       
    1076                    ;----------------------------------------------------------------------
    1077 000000e0           $C$RL6:    ; CALL OCCURS {VLIB_malloc} {0}   ; |65| 
    1078 000000e0 020027fc             STW     .D2T1   A4,*+SP(156)      ; |65| 
    1079                    $C$DW$193       .dwtag  DW_TAG_TI_branch
    1080                            .dwattr $C$DW$193, DW_AT_low_pc(0x00)
    1081                            .dwattr $C$DW$193, DW_AT_name("VLIB_malloc")
    1082                            .dwattr $C$DW$193, DW_AT_TI_call
    1083                    
    1084 000000e4 10000013!            CALLP   .S2     VLIB_malloc,B3
    1085 000000e8 022c62e4  ||         LDW     .D2T1   *+B11(12),A4      ; |66| 
    1086                    
    1087                            .dwpsn  file "./../packages/ti/vlib/src/VLIB_mixtureOfGaussiansS32/VLIB_mixtureOfGaussiansS32_
    1088                    ;----------------------------------------------------------------------
    1089                    ;  66 | uint8_t    *updateMask8 =  (uint8_t *) VLIB_malloc(prm[tpi].im_size * s
    1090                    ;     | izeof(uint8_t));                                                       
    1091                    ;----------------------------------------------------------------------
    1092 000000ec           $C$RL7:    ; CALL OCCURS {VLIB_malloc} {0}   ; |66| 
    1093                            .dwpsn  file "./../packages/ti/vlib/src/VLIB_mixtureOfGaussiansS32/VLIB_mixtureOfGaussiansS32_
    1094                    ;----------------------------------------------------------------------
    1095                    ;  67 | uint32_t   *Im_mask     =  (uint32_t *) VLIB_malloc(prm[tpi].im_size /
    1096                    ;     | 32 * sizeof(uint32_t));                                                
    1097                    ;----------------------------------------------------------------------
    1098 000000ec 022c62e6             LDW     .D2T2   *+B11(12),B4      ; |67| 
    1099                            .dwpsn  file "./../packages/ti/vlib/src/VLIB_mixtureOfGaussiansS32/VLIB_mixtureOfGaussiansS32_
    1100 000000f0 020028fc             STW     .D2T1   A4,*+SP(160)      ; |66| 
TMS320C6x Assembler PC v7.4.2 Thu Mar 19 12:43:28 2015

Tools Copyright (c) 1996-2012 Texas Instruments Incorporated
package/lib/Regression/regress_d_c/./../packages/ti/vlib/src/VLIB_mixtureOfGaussiansS32/VLIB_mixtureOfGaussiansS32_d.se66 PAGE   21

    1101 000000f4     9e26             MVK     .L1     0xfffffffc,A4
    1102 000000f6     2c6e             NOP             2
    1103                            .dwpsn  file "./../packages/ti/vlib/src/VLIB_mixtureOfGaussiansS32/VLIB_mixtureOfGaussiansS32_
    1104 000000f8     9e3a             SHR     .S1X    B4,4,A3           ; |67| 
    1105 000000fa     7dc2             SHRU    .S1     A3,27,A3          ; |67| 
    1106 00000100     7230             ADD     .L1X    B4,A3,A3          ; |67| 
    1107 00000102     65a2             SHR     .S1     A3,3,A3           ; |67| 
    1108                    $C$DW$194       .dwtag  DW_TAG_TI_branch
    1109                            .dwattr $C$DW$194, DW_AT_low_pc(0x00)
    1110                            .dwattr $C$DW$194, DW_AT_name("VLIB_malloc")
    1111                            .dwattr $C$DW$194, DW_AT_TI_call
    1112                    
    1113 00000104 10000013!            CALLP   .S2     VLIB_malloc,B3
    1114 00000108 020c8f78  ||         AND     .L1     A4,A3,A4          ; |67| 
    1115                    
    1116 0000010c           $C$RL8:    ; CALL OCCURS {VLIB_malloc} {0}   ; |67| 
    1117                            .dwpsn  file "./../packages/ti/vlib/src/VLIB_mixtureOfGaussiansS32/VLIB_mixtureOfGaussiansS32_
    1118                    ;----------------------------------------------------------------------
    1119                    ;  68 | uint32_t   *Im_mask_cn  =  (uint32_t *) malloc(prm[tpi].im_size / 32 *
    1120                    ;     | sizeof(uint32_t));                                                     
    1121                    ;----------------------------------------------------------------------
    1122 0000010c 022c62e6             LDW     .D2T2   *+B11(12),B4      ; |68| 
    1123 00000110 01f0a358             MVK     .L1     0xfffffffc,A3
    1124                            .dwpsn  file "./../packages/ti/vlib/src/VLIB_mixtureOfGaussiansS32/VLIB_mixtureOfGaussiansS32_
    1125 00000114 020029fc             STW     .D2T1   A4,*+SP(164)      ; |67| 
    1126 00000118     2c6e             NOP             2
    1127                            .dwpsn  file "./../packages/ti/vlib/src/VLIB_mixtureOfGaussiansS32/VLIB_mixtureOfGaussiansS32_
    1128 0000011a     8e5b             SHR     .S2     B4,4,B5           ; |68| 
    1129 00000120     7ec3             SHRU    .S2     B5,27,B5          ; |68| 
    1130 00000122     82c1             ADD     .L2     B4,B5,B4          ; |68| 
    1131 00000124     6623             SHR     .S2     B4,3,B4           ; |68| 
    1132 00000126     0c6e             NOP             1
    1133                    $C$DW$195       .dwtag  DW_TAG_TI_branch
    1134                            .dwattr $C$DW$195, DW_AT_low_pc(0x04)
    1135                            .dwattr $C$DW$195, DW_AT_name("malloc")
    1136                            .dwattr $C$DW$195, DW_AT_TI_call
    1137                    
    1138 00000128 02107f79             AND     .L1X    A3,B4,A4          ; |68| 
    1139 0000012c 10000012! ||         CALLP   .S2     malloc,B3
    1140                    
    1141 00000130           $C$RL9:    ; CALL OCCURS {malloc} {0}        ; |68| 
    1142 00000130           $C$DW$L$VLIB_mixtureOfGaussiansS32_d$6$E:
    1143                    ;** --------------------------------------------------------------------------*
    1144 00000130           $C$DW$L$VLIB_mixtureOfGaussiansS32_d$7$B:
    1145                    ;          EXCLUSIVE CPU CYCLES: 22
    1146                    
    1147 00000130 000023ed             LDW     .D2T1   *+SP(140),A0      ; |71| 
    1148 00000134     05a6  ||         ZERO    .L1     A3                ; |71| 
    1149 00000136     06a7  ||         ZERO    .L2     B5                ; |71| 
    1150 00000138 0200002a  ||         ZERO    .S2     B4                ; |71| 
    1151                    
    1152                            .dwpsn  file "./../packages/ti/vlib/src/VLIB_mixtureOfGaussiansS32/VLIB_mixtureOfGaussiansS32_
    1153                    ;----------------------------------------------------------------------
    1154                    ;  71 | if( Im && wt && mu && var && compNum && updateMask8 && Im_mask && Im_ma
    1155                    ;     | sk_cn) {                                                               
TMS320C6x Assembler PC v7.4.2 Thu Mar 19 12:43:28 2015

Tools Copyright (c) 1996-2012 Texas Instruments Incorporated
package/lib/Regression/regress_d_c/./../packages/ti/vlib/src/VLIB_mixtureOfGaussiansS32/VLIB_mixtureOfGaussiansS32_d.se66 PAGE   22

    1156                    ;  73 |     int32_t    fail, i, k, counter;                                    
    1157                    ;  74 |     int8_t     mode[3];                                                
    1158                    ;----------------------------------------------------------------------
    1159 00000140 000024ee             LDW     .D2T2   *+SP(144),B0      ; |71| 
    1160 00000144 008025ec             LDW     .D2T1   *+SP(148),A1      ; |71| 
    1161 00000148 010026ec             LDW     .D2T1   *+SP(152),A2      ; |71| 
    1162 0000014c 010027ee             LDW     .D2T2   *+SP(156),B2      ; |71| 
    1163                    
    1164 00000150 02002afd             STW     .D2T1   A4,*+SP(168)      ; |68| 
    1165 00000154     0626  ||         ZERO    .L1     A4                ; |71| 
    1166                    
    1167 00000156     2a66     [ A0]   MVK     .L1     0x1,A4            ; |71| 
    1168 00000158 000028ed  ||         LDW     .D2T1   *+SP(160),A0      ; |71| 
    1169 00000160     a9ee  || [ B0]   MVK     .S1     0x1,A3            ; |71| 
    1170                    
    1171 00000164 02106f79             AND     .L1     A3,A4,A4          ; |71| 
    1172 00000162     0192  ||         ZERO    .S1     A3                ; |71| 
    1173 00000168 8284a35b  || [ A1]   MVK     .L2     0x1,B5            ; |71| 
    1174 0000016c 00802aec  ||         LDW     .D2T1   *+SP(168),A1      ; |71| 
    1175                    
    1176 00000170 a184a359     [ A2]   MVK     .L1     0x1,A3            ; |71| 
    1177 00000174 010029ec  ||         LDW     .D2T1   *+SP(164),A2      ; |71| 
    1178                    
    1179 00000178 02149f79             AND     .L1X    B5,A4,A4          ; |71| 
    1180 00000180 6204a35b  || [ B2]   MVK     .L2     0x1,B4            ; |71| 
    1181 00000184     0293  ||         ZERO    .S2     B5                ; |71| 
    1182                    
    1183 00000188 02106f78             AND     .L1     A3,A4,A4          ; |71| 
    1184 00000186     0192  ||         ZERO    .S1     A3                ; |71| 
    1185                    
    1186 0000018c     29e6     [ A0]   MVK     .L1     0x1,A3            ; |71| 
    1187 00000190 021097e0  ||         AND     .S1X    B4,A4,A4          ; |71| 
    1188 0000018e     0627  ||         ZERO    .L2     B4                ; |71| 
    1189                    
    1190 00000194 01906f79             AND     .L1     A3,A4,A3          ; |71| 
    1191 00000198 8204a35a  || [ A1]   MVK     .L2     0x1,B4            ; |71| 
    1192                    
    1193 000001a0 a284a35a     [ A2]   MVK     .L2     0x1,B5            ; |71| 
    1194 000001a4 028cbf7a             AND     .L2X    B5,A3,B5          ; |71| 
    1195 000001a8 00148f7a             AND     .L2     B4,B5,B0          ; |71| 
    1196                    
    1197 000001ac 21807fa9     [ B0]   MVK     .S1     0xff,A3
    1198 000001b0 3001ca13  || [!B0]   B       .S2     $C$L34            ; |71| 
    1199 000001b4 22acc286  || [ B0]   LDHU    .D2T2   *+B11(12),B5      ; |77| 
    1200                    
    1201 000001b8 218f1809     [ B0]   EXTU    .S1     A3,24,24,A3       ; |77| 
    1202 000001bc 222c0294  || [ B0]   LDBU    .D2T1   *B11,A4           ; |77| 
    1203                    
    1204 000001c0 26000029!    [ B0]   MVKL    .S1     testPatternString,A12
    1205 000001c4 242d0286  || [ B0]   LDHU    .D2T2   *+B11(16),B8      ; |77| 
    1206                    
    1207                    $C$DW$196       .dwtag  DW_TAG_TI_branch
    1208                            .dwattr $C$DW$196, DW_AT_low_pc(0x00)
    1209                            .dwattr $C$DW$196, DW_AT_name("VLIB_fillBuffer")
    1210                            .dwattr $C$DW$196, DW_AT_TI_call
TMS320C6x Assembler PC v7.4.2 Thu Mar 19 12:43:28 2015

Tools Copyright (c) 1996-2012 Texas Instruments Incorporated
package/lib/Regression/regress_d_c/./../packages/ti/vlib/src/VLIB_mixtureOfGaussiansS32/VLIB_mixtureOfGaussiansS32_d.se66 PAGE   23

    1211                    
    1212 000001c8 20000011!    [ B0]   CALL    .S1     VLIB_fillBuffer   ; |77| 
    1213 000001cc 232c22e6  || [ B0]   LDW     .D2T2   *+B11(4),B6       ; |77| 
    1214                    
    1215                            .dwpsn  file "./../packages/ti/vlib/src/VLIB_mixtureOfGaussiansS32/VLIB_mixtureOfGaussiansS32_
    1216                    ;----------------------------------------------------------------------
    1217                    ;  77 | VLIB_fillBuffer(prm[tpi].testPattern,                                  
    1218                    ;  78 |                 (uint8_t)255,                                          
    1219                    ;  79 |                 Im, prm[tpi].staticIn,                                 
    1220                    ;  80 |                 prm[tpi].im_size, prm[tpi].num_images, prm[tpi].im_size
    1221                    ;     | *sizeof(uint8_t),                                                      
    1222                    ;  81 |                 sizeof(uint8_t), testPatternString);                   
    1223                    ;  88 | memset(wt, 0, prm[tpi].im_size * 3 * sizeof(int16_t));                 
    1224                    ;  89 | memset(mu, 0, prm[tpi].im_size * 3 * sizeof(int32_t));                 
    1225                    ;  90 | memset(var, 0, prm[tpi].im_size * 3 * sizeof(int32_t));                
    1226                    ;  91 | counter = 0;                                                           
    1227                    ;  93 | if( LevelOfFeedback > 0 ) {                                            
    1228                    ;  95 |     printf("Luma  FG    Mean-1   Varn-1   Wght-1        Mean-2   Varn-2
    1229                    ;     |    Wght-2       Mean-3   Varn-3   Wght-3\n");                          
    1230                    ;  96 |     printf("-----------------------------------------------------------
    1231                    ;     | ------------------------------------------\n");                        
    1232                    ; 100 | for( i=0; i < prm[tpi].num_images; i++ ) {                             
    1233                    ; 103 |     VLIB_profile_start(vlib_KERNEL_OPT);                               
    1234                    ; 104 |     VLIB_mixtureOfGaussiansS32(&Im[i*prm[tpi].im_size],                
    1235                    ; 105 |                                wt, mu, var, compNum, updateMask8, Im_ma
    1236                    ;     | sk,                                                                    
    1237                    ; 106 |                                prm[tpi].im_size,                       
    1238                    ; 107 |                                prm[tpi].alpha,  prm[tpi].rho,          
    1239                    ; 108 |                                prm[tpi].delta,  prm[tpi].T,            
    1240                    ; 109 |                                prm[tpi].ini_wt, prm[tpi].ini_var);     
    1241                    ; 110 |     VLIB_profile_stop();                                               
    1242                    ; 113 |     mode[0] = ' ';                                                     
    1243                    ; 114 |     mode[1] = ' ';                                                     
    1244                    ; 115 |     mode[2] = ' ';                                                     
    1245                    ; 116 |     mode[compNum[0]] = '*';                                            
    1246                    ; 118 |     if( LevelOfFeedback > 0 ) {                                        
    1247                    ; 119 |         printf("%4d  %d  %c %8.4f %8.4f %8.6f   %c %8.4f %8.4f %8.6f
    1248                    ;     | %c %8.4f %8.4f %8.6f\n", Im[i*prm[tpi].im_size], (Im_mask[0] & 0x800000
    1249                    ;     | 00) >> 31,                                                             
    1250                    ; 120 |                mode[0], VLIB_getFractional32(mu[0], 15, 1), VLIB_getFra
    1251                    ;     | ctional16(var[0], 3, 1), VLIB_getFractional16(wt[0], 15, 1),           
    1252                    ; 121 |                mode[1], VLIB_getFractional32(mu[0 + (prm[tpi].im_size)]
    1253                    ;     | , 23, 1), VLIB_getFractional32(var[0 + (prm[tpi].im_size)], 15, 1), VLI
    1254                    ;     | B_getFractional16(wt[0 + (prm[tpi].im_size)], 15, 1),                  
    1255                    ; 122 |                mode[2], VLIB_getFractional32(mu[0 + 2 * (prm[tpi].im_si
    1256                    ;     | ze)], 23, 1), VLIB_getFractional16(var[0 + 2 * (prm[tpi].im_size)], 15,
    1257                    ;     |  1), VLIB_getFractional16(wt[0 + 2 * (prm[tpi].im_size)], 15, 1));     
    1258                    ; 126 |     if( prm[tpi].staticOut != NULL ) {                                 
    1259                    ; 129 |         for( k=0; k < 3 * prm[tpi].im_size; k++ ) {                    
    1260                    ; 130 |             if( mu[k] != prm[tpi].staticOut[counter++] ) {             
    1261                    ; 131 |                 printf("\tError in Mean: Image %d, Pixel %d, Mode %d\n"
    1262                    ;     | , i, k % 32, k / 32);                                                  
    1263                    ; 132 |                 status_nat_vs_ref = vlib_KERNEL_FAIL;                  
    1264                    ; 134 |             if( var[k] != prm[tpi].staticOut[counter++] ) {            
    1265                    ; 135 |                 printf("\tError in Variance: Image %d, Pixel %d, Mode %
TMS320C6x Assembler PC v7.4.2 Thu Mar 19 12:43:28 2015

Tools Copyright (c) 1996-2012 Texas Instruments Incorporated
package/lib/Regression/regress_d_c/./../packages/ti/vlib/src/VLIB_mixtureOfGaussiansS32/VLIB_mixtureOfGaussiansS32_d.se66 PAGE   24

    1266                    ;     | d\n", i, k % 32, k / 32);                                              
    1267                    ; 136 |                 status_nat_vs_ref = vlib_KERNEL_FAIL;                  
    1268                    ; 138 |             if( wt[k] != prm[tpi].staticOut[counter++] ) {             
    1269                    ; 139 |                 printf("\tError in Weight: Image %d, Pixel %d, Mode %d\
    1270                    ;     | n", i, k % 32, k / 32);                                                
    1271                    ; 140 |                 status_nat_vs_ref = vlib_KERNEL_FAIL;                  
    1272                    ; 144 |         for( k=0; k < prm[tpi].im_size; k++ ) {                        
    1273                    ; 145 |             if( compNum[k] != prm[tpi].staticOut[counter++] ) {        
    1274                    ; 146 |                 printf("\tError in Component index: Image %d, Pixel %d\
    1275                    ;     | n", i, k % 32);                                                        
    1276                    ; 147 |                 status_nat_vs_ref = vlib_KERNEL_FAIL;                  
    1277                    ; 151 |         for( k=0; k < prm[tpi].im_size; k++ ) {                        
    1278                    ; 152 |             if(((Im_mask[0] >> k) & 0x00000001) != ((prm[tpi].staticOut
    1279                    ;     | [counter] >> k) & 0x00000001)) {                                       
    1280                    ; 153 |                 printf("\tError in Foreground Mask: Image %d, Pixel %d\
    1281                    ;     | n", i, k);                                                             
    1282                    ; 154 |                 status_nat_vs_ref = vlib_KERNEL_FAIL;                  
    1283                    ; 158 |         counter++;                                                     
    1284                    ; 167 | memset(wt, 0, prm[tpi].im_size * 3 * sizeof(int16_t));                 
    1285                    ; 168 | memset(mu, 0, prm[tpi].im_size * 3 * sizeof(int32_t));                 
    1286                    ; 169 | memset(var, 0, prm[tpi].im_size * 3 * sizeof(int32_t));                
    1287                    ; 170 | counter = 0;                                                           
    1288                    ; 172 | if( LevelOfFeedback > 0 ) {                                            
    1289                    ; 174 |     printf("Luma  FG    Mean-1   Varn-1   Wght-1        Mean-2   Varn-2
    1290                    ;     |    Wght-2       Mean-3   Varn-3   Wght-3\n");                          
    1291                    ; 175 |     printf("-----------------------------------------------------------
    1292                    ;     | ------------------------------------------\n");                        
    1293                    ; 179 | for( i=0; i < prm[tpi].num_images; i++ ) {                             
    1294                    ; 182 |     VLIB_profile_start(vlib_KERNEL_CN);                                
    1295                    ; 183 |     VLIB_mixtureOfGaussiansS32_cn(&Im[i*prm[tpi].im_size],             
    1296                    ; 184 |                                wt, mu, var, compNum, updateMask8, Im_ma
    1297                    ;     | sk_cn,                                                                 
    1298                    ; 185 |                                prm[tpi].im_size,                       
    1299                    ; 186 |                                prm[tpi].alpha,  prm[tpi].rho,          
    1300                    ; 187 |                                prm[tpi].delta,  prm[tpi].T,            
    1301                    ; 188 |                                prm[tpi].ini_wt, prm[tpi].ini_var);     
    1302                    ; 189 |     VLIB_profile_stop();                                               
    1303                    ; 192 |     mode[0] = ' ';                                                     
    1304                    ; 193 |     mode[1] = ' ';                                                     
    1305                    ; 194 |     mode[2] = ' ';                                                     
    1306                    ; 195 |     mode[compNum[0]] = '*';                                            
    1307                    ; 197 |     if( LevelOfFeedback > 0 ) {                                        
    1308                    ; 198 |         printf("%4d  %d  %c %8.4f %8.4f %8.6f   %c %8.4f %8.4f %8.6f
    1309                    ;     | %c %8.4f %8.4f %8.6f\n", Im[i*prm[tpi].im_size], (Im_mask[0] & 0x800000
    1310                    ;     | 00) >> 31,                                                             
    1311                    ; 199 |                mode[0], VLIB_getFractional32(mu[0], 15, 1), VLIB_getFra
    1312                    ;     | ctional16(var[0], 3, 1), VLIB_getFractional16(wt[0], 15, 1),           
    1313                    ; 200 |                mode[1], VLIB_getFractional32(mu[0 + (prm[tpi].im_size)]
    1314                    ;     | , 23, 1), VLIB_getFractional32(var[0 + (prm[tpi].im_size)], 15, 1), VLI
    1315                    ;     | B_getFractional16(wt[0 + (prm[tpi].im_size)], 15, 1),                  
    1316                    ; 201 |                mode[2], VLIB_getFractional32(mu[0 + 2 * (prm[tpi].im_si
    1317                    ;     | ze)], 23, 1), VLIB_getFractional16(var[0 + 2 * (prm[tpi].im_size)], 15,
    1318                    ;     |  1), VLIB_getFractional16(wt[0 + 2 * (prm[tpi].im_size)], 15, 1));     
    1319                    ; 205 |     if( prm[tpi].staticOut != NULL ) {                                 
    1320                    ; 208 |         for( k=0; k < 3 * prm[tpi].im_size; k++ ) {                    
TMS320C6x Assembler PC v7.4.2 Thu Mar 19 12:43:28 2015

Tools Copyright (c) 1996-2012 Texas Instruments Incorporated
package/lib/Regression/regress_d_c/./../packages/ti/vlib/src/VLIB_mixtureOfGaussiansS32/VLIB_mixtureOfGaussiansS32_d.se66 PAGE   25

    1321                    ; 209 |             if( mu[k] != prm[tpi].staticOut[counter++] ) {             
    1322                    ; 210 |                 printf("\tError in Mean: Image %d, Pixel %d, Mode %d\n"
    1323                    ;     | , i, k % 32, k / 32);                                                  
    1324                    ; 211 |                 status_nat_vs_ref = vlib_KERNEL_FAIL;                  
    1325                    ; 213 |             if( var[k] != prm[tpi].staticOut[counter++] ) {            
    1326                    ; 214 |                 printf("\tError in Variance: Image %d, Pixel %d, Mode %
    1327                    ;     | d\n", i, k % 32, k / 32);                                              
    1328                    ; 215 |                 status_nat_vs_ref = vlib_KERNEL_FAIL;                  
    1329                    ; 217 |             if( wt[k] != prm[tpi].staticOut[counter++] ) {             
    1330                    ; 218 |                 printf("\tError in Weight: Image %d, Pixel %d, Mode %d\
    1331                    ;     | n", i, k % 32, k / 32);                                                
    1332                    ; 219 |                 status_nat_vs_ref = vlib_KERNEL_FAIL;                  
    1333                    ; 223 |         for( k=0; k < prm[tpi].im_size; k++ ) {                        
    1334                    ; 224 |             if( compNum[k] != prm[tpi].staticOut[counter++] ) {        
    1335                    ; 225 |                 printf("\tError in Component index: Image %d, Pixel %d\
    1336                    ;     | n", i, k % 32);                                                        
    1337                    ; 226 |                 status_nat_vs_ref = vlib_KERNEL_FAIL;                  
    1338                    ; 230 |         for( k=0; k < prm[tpi].im_size; k++ ) {                        
    1339                    ; 231 |             if(((Im_mask_cn[0] >> k) & 0x00000001) != ((prm[tpi].static
    1340                    ;     | Out[counter] >> k) & 0x00000001)) {                                    
    1341                    ; 232 |                 printf("\tError in Foreground Mask: Image %d, Pixel %d\
    1342                    ;     | n", i, k);                                                             
    1343                    ; 233 |                 status_nat_vs_ref = vlib_KERNEL_FAIL;                  
    1344                    ; 237 |         counter++;                                                     
    1345                    ; 242 | status_nat_vs_int = VLIB_compare_mem((void *) Im_mask, (void *)Im_mask_
    1346                    ;     | cn, prm[tpi].im_size / 32 * sizeof(uint32_t));                         
    1347                    ; 245 | fail = ((status_nat_vs_int == vlib_KERNEL_FAIL) || (status_nat_vs_ref =
    1348                    ;     | = vlib_KERNEL_FAIL)) ? 1 : 0;                                          
    1349                    ; 247 | est_test=1;                                                            
    1350                    ; 250 | sprintf(desc, "%s generated input | Opt results compared to NatC result
    1351                    ;     | s | im_size=%d, num_images=%d",                                        
    1352                    ; 251 |         testPatternString, prm[tpi].im_size, prm[tpi].num_images);     
    1353                    ; 252 | VLIB_formula_add_test(prm[tpi].im_size*prm[tpi].num_images, prm[tpi].nu
    1354                    ;     | m_images, NULL, fail, desc, NULL);                                     
    1355                    ; 254 | } else {                                                               
    1356                    ;----------------------------------------------------------------------
    1357 000001d0 230023ec     [ B0]   LDW     .D2T1   *+SP(140),A6      ; |77| 
    1358                            .dwpsn  file "./../packages/ti/vlib/src/VLIB_mixtureOfGaussiansS32/VLIB_mixtureOfGaussiansS32_
    1359                    ;----------------------------------------------------------------------
    1360                    ; 256 | sprintf(desc, "im_size=%d, num_images=%d",                             
    1361                    ; 257 |         prm[tpi].im_size, prm[tpi].num_images);                        
    1362                    ; 258 | VLIB_skip_test(desc);                                                  
    1363                    ;----------------------------------------------------------------------
    1364 000001d4 322c82e6     [!B0]   LDW     .D2T2   *+B11(16),B4      ; |256| 
    1365                            .dwpsn  file "./../packages/ti/vlib/src/VLIB_mixtureOfGaussiansS32/VLIB_mixtureOfGaussiansS32_
    1366                               ; BRANCHCC OCCURS {$C$L34}        ; |71| 
    1367 000001d8           $C$DW$L$VLIB_mixtureOfGaussiansS32_d$7$E:
    1368                    ;** --------------------------------------------------------------------------*
    1369 000001d8           $C$DW$L$VLIB_mixtureOfGaussiansS32_d$8$B:
    1370                    ;          EXCLUSIVE CPU CYCLES: 3
    1371                    ;** 77  -----------------------    C$9 = (unsigned short)(*U$13).im_size;
    1372                    ;** 77  -----------------------    VLIB_fillBuffer((*U$13).testPattern, (unsigned char)K$65, (void *)I
    1373                    ;** 88  -----------------------    memset((void *)wt, 0, (*U$13).im_size*6u);
    1374                    ;** 89  -----------------------    memset((void *)mu, 0, (*U$13).im_size*12u);
    1375                    ;** 90  -----------------------    memset((void *)var, 0, (*U$13).im_size*12u);
TMS320C6x Assembler PC v7.4.2 Thu Mar 19 12:43:28 2015

Tools Copyright (c) 1996-2012 Texas Instruments Incorporated
package/lib/Regression/regress_d_c/./../packages/ti/vlib/src/VLIB_mixtureOfGaussiansS32/VLIB_mixtureOfGaussiansS32_d.se66 PAGE   26

    1376                    ;** 93  -----------------------    if ( !LevelOfFeedback ) goto g6;
    1377                            .dwpsn  file "./../packages/ti/vlib/src/VLIB_mixtureOfGaussiansS32/VLIB_mixtureOfGaussiansS32_
    1378 000001d8     16c6             MV      .L1X    B5,A8             ; |77| 
    1379 000001da     91c7             MV      .L2X    A3,B4             ; |77| 
    1380                    
    1381 000001e0 06000069!            MVKH    .S1     testPatternString,A12
    1382 000001e4 0504a35b  ||         MVK     .L2     0x1,B10           ; |77| 
    1383 000001ec 05141fd8  ||         MV      .L1X    B5,A10            ; |77| 
    1384 000001e8 01840163  ||         ADDKPC  .S2     $C$RL10,B3,0      ; |77| 
    1385                    
    1386 000001f0           $C$RL10:   ; CALL OCCURS {VLIB_fillBuffer} {0}  ; |77| 
    1387 000001f0           $C$DW$L$VLIB_mixtureOfGaussiansS32_d$8$E:
    1388                    ;** --------------------------------------------------------------------------*
    1389 000001f0           $C$DW$L$VLIB_mixtureOfGaussiansS32_d$9$B:
    1390                    ;          EXCLUSIVE CPU CYCLES: 40
    1391                            .dwpsn  file "./../packages/ti/vlib/src/VLIB_mixtureOfGaussiansS32/VLIB_mixtureOfGaussiansS32_
    1392 000001f0 022c62e6             LDW     .D2T2   *+B11(12),B4      ; |88| 
    1393 000001f4     6c6e             NOP             4
    1394 000001f6     563a             SHL     .S1X    B4,2,A3           ; |88| 
    1395 000001f8     9246             MV      .L1X    B4,A4             ; |88| Define a twin register
    1396                    $C$DW$197       .dwtag  DW_TAG_TI_branch
    1397                            .dwattr $C$DW$197, DW_AT_low_pc(0x00)
    1398                            .dwattr $C$DW$197, DW_AT_name("memset")
    1399                            .dwattr $C$DW$197, DW_AT_TI_call
    1400                    
    1401 00000208 10000012!            CALLP   .S2     memset,B3
    1402 00000200 030c9a41  ||         ADDAH   .D1     A3,A4,A6          ; |88| 
    1403 00000204 020024ed  ||         LDW     .D2T1   *+SP(144),A4      ; |88| 
    1404 000001fa     0627  ||         ZERO    .L2     B4                ; |88| 
    1405                    
    1406 0000020c           $C$RL11:   ; CALL OCCURS {memset} {0}        ; |88| 
    1407                            .dwpsn  file "./../packages/ti/vlib/src/VLIB_mixtureOfGaussiansS32/VLIB_mixtureOfGaussiansS32_
    1408 0000020c 022c62e6             LDW     .D2T2   *+B11(12),B4      ; |89| 
    1409 00000210     6c6e             NOP             4
    1410 00000212     763a             SHL     .S1X    B4,3,A3           ; |89| 
    1411 00000214     9246             MV      .L1X    B4,A4             ; |89| Define a twin register
    1412                    $C$DW$198       .dwtag  DW_TAG_TI_branch
    1413                            .dwattr $C$DW$198, DW_AT_low_pc(0x00)
    1414                            .dwattr $C$DW$198, DW_AT_name("memset")
    1415                            .dwattr $C$DW$198, DW_AT_TI_call
    1416                    
    1417 00000224 10000012!            CALLP   .S2     memset,B3
    1418 00000218 030c9c41  ||         ADDAW   .D1     A3,A4,A6          ; |89| 
    1419 00000220 020025ed  ||         LDW     .D2T1   *+SP(148),A4      ; |89| 
    1420 00000216     0627  ||         ZERO    .L2     B4                ; |89| 
    1421                    
    1422 00000228           $C$RL12:   ; CALL OCCURS {memset} {0}        ; |89| 
    1423                            .dwpsn  file "./../packages/ti/vlib/src/VLIB_mixtureOfGaussiansS32/VLIB_mixtureOfGaussiansS32_
    1424 00000228 022c62e6             LDW     .D2T2   *+B11(12),B4      ; |90| 
    1425 0000022c 020026ec             LDW     .D2T1   *+SP(152),A4      ; |90| 
    1426 00000230     4c6e             NOP             3
    1427 00000232     665b             SHL     .S2     B4,3,B5           ; |90| 
    1428 00000234 02149c42             ADDAW   .D2     B5,B4,B4          ; |90| 
    1429 00000238     0c6e             NOP             1
    1430                    $C$DW$199       .dwtag  DW_TAG_TI_branch
TMS320C6x Assembler PC v7.4.2 Thu Mar 19 12:43:28 2015

Tools Copyright (c) 1996-2012 Texas Instruments Incorporated
package/lib/Regression/regress_d_c/./../packages/ti/vlib/src/VLIB_mixtureOfGaussiansS32/VLIB_mixtureOfGaussiansS32_d.se66 PAGE   27

    1431                            .dwattr $C$DW$199, DW_AT_low_pc(0x08)
    1432                            .dwattr $C$DW$199, DW_AT_name("memset")
    1433                            .dwattr $C$DW$199, DW_AT_TI_call
    1434                    
    1435 0000023a     d246             MV      .L1X    B4,A6             ; |90| 
    1436 00000244 0200a35a  ||         ZERO    .L2     B4                ; |90| 
    1437 00000240 10000013! ||         CALLP   .S2     memset,B3
    1438                    
    1439 00000248           $C$RL13:   ; CALL OCCURS {memset} {0}        ; |90| 
    1440 00000248           $C$DW$L$VLIB_mixtureOfGaussiansS32_d$9$E:
    1441                    ;** --------------------------------------------------------------------------*
    1442 00000248           $C$DW$L$VLIB_mixtureOfGaussiansS32_d$10$B:
    1443                    ;          EXCLUSIVE CPU CYCLES: 11
    1444 00000248 000022ec             LDW     .D2T1   *+SP(136),A0      ; |90| 
    1445 0000024c     6c6e             NOP             4
    1446                    
    1447 0000024e     0c3a     [!A0]   B       .S1     $C$L2             ; |93| 
    1448 00000250 d22c82e6  || [!A0]   LDW     .D2T2   *+B11(16),B4      ; |100| 
    1449                    
    1450                            .dwpsn  file "./../packages/ti/vlib/src/VLIB_mixtureOfGaussiansS32/VLIB_mixtureOfGaussiansS32_
    1451                    $C$DW$200       .dwtag  DW_TAG_TI_branch
    1452                            .dwattr $C$DW$200, DW_AT_low_pc(0x00)
    1453                            .dwattr $C$DW$200, DW_AT_name("printf")
    1454                            .dwattr $C$DW$200, DW_AT_TI_call
    1455 00000254 c0000010!    [ A0]   CALL    .S1     printf            ; |95| 
    1456 00000258 c1800028!    [ A0]   MVKL    .S1     $C$SL2+0,A3
    1457 00000260 c1800068!    [ A0]   MVKH    .S1     $C$SL2+0,A3
    1458 00000264 00000000             NOP             1
    1459                            .dwpsn  file "./../packages/ti/vlib/src/VLIB_mixtureOfGaussiansS32/VLIB_mixtureOfGaussiansS32_
    1460 00000268 d0100ada     [!A0]   CMPGT   .L2     B4,0,B0           ; |100| 
    1461                            .dwpsn  file "./../packages/ti/vlib/src/VLIB_mixtureOfGaussiansS32/VLIB_mixtureOfGaussiansS32_
    1462                               ; BRANCHCC OCCURS {$C$L2}         ; |93| 
    1463 0000026c           $C$DW$L$VLIB_mixtureOfGaussiansS32_d$10$E:
    1464                    ;** --------------------------------------------------------------------------*
    1465 0000026c           $C$DW$L$VLIB_mixtureOfGaussiansS32_d$11$B:
    1466                    ;          EXCLUSIVE CPU CYCLES: 1
    1467                    ;** 95  -----------------------    printf((const char *)"Luma  FG    Mean-1   Varn-1   Wght-1        M
    1468                    ;** 96  -----------------------    printf((const char *)"---------------------------------------------
    1469                    
    1470 0000026c 01bc22f5             STW     .D2T1   A3,*+SP(4)        ; |95| 
    1471 00000270 01850162  ||         ADDKPC  .S2     $C$RL14,B3,0      ; |95| 
    1472                    
    1473                            .dwpsn  file "./../packages/ti/vlib/src/VLIB_mixtureOfGaussiansS32/VLIB_mixtureOfGaussiansS32_
    1474 00000274           $C$RL14:   ; CALL OCCURS {printf} {0}        ; |95| 
    1475 00000274           $C$DW$L$VLIB_mixtureOfGaussiansS32_d$11$E:
    1476                    ;** --------------------------------------------------------------------------*
    1477 00000274           $C$DW$L$VLIB_mixtureOfGaussiansS32_d$12$B:
    1478                    ;          EXCLUSIVE CPU CYCLES: 14
    1479 00000274 0200002a!            MVKL    .S2     $C$SL3+0,B4
    1480 00000278 0200006b!            MVKH    .S2     $C$SL3+0,B4
    1481                    $C$DW$201       .dwtag  DW_TAG_TI_branch
    1482                            .dwattr $C$DW$201, DW_AT_low_pc(0x00)
    1483                            .dwattr $C$DW$201, DW_AT_name("printf")
    1484                            .dwattr $C$DW$201, DW_AT_TI_call
    1485                    
TMS320C6x Assembler PC v7.4.2 Thu Mar 19 12:43:28 2015

Tools Copyright (c) 1996-2012 Texas Instruments Incorporated
package/lib/Regression/regress_d_c/./../packages/ti/vlib/src/VLIB_mixtureOfGaussiansS32/VLIB_mixtureOfGaussiansS32_d.se66 PAGE   28

    1486 00000280 10000013!            CALLP   .S2     printf,B3
    1487 00000284 023c22f6  ||         STW     .D2T2   B4,*+SP(4)        ; |96| 
    1488                    
    1489                            .dwpsn  file "./../packages/ti/vlib/src/VLIB_mixtureOfGaussiansS32/VLIB_mixtureOfGaussiansS32_
    1490 00000288           $C$RL15:   ; CALL OCCURS {printf} {0}        ; |96| 
    1491                            .dwpsn  file "./../packages/ti/vlib/src/VLIB_mixtureOfGaussiansS32/VLIB_mixtureOfGaussiansS32_
    1492 00000288 022c82e6             LDW     .D2T2   *+B11(16),B4      ; |100| 
    1493 0000028c     6c6e             NOP             4
    1494 0000028e     1227             CMPGT   .L2     B4,0,B0           ; |100| 
    1495 000002a0           $C$DW$L$VLIB_mixtureOfGaussiansS32_d$12$E:
    1496                    ;** --------------------------------------------------------------------------*
    1497 000002a0           $C$L2:    
    1498                            .dwpsn  file "./../packages/ti/vlib/src/VLIB_mixtureOfGaussiansS32/VLIB_mixtureOfGaussiansS32_
    1499 000002a0           $C$DW$L$VLIB_mixtureOfGaussiansS32_d$13$B:
    1500                    ;          EXCLUSIVE CPU CYCLES: 6
    1501                    ;**     -----------------------g6:
    1502                    ;** 100 -----------------------    v$1 = prm;
    1503                    ;** 55  -----------------------    status_nat_vs_ref = 1;
    1504                    ;** 100 -----------------------    if ( (*U$13).num_images <= 0 ) goto g32;
    1505                    
    1506 000002a0 317fa121     [!B0]   BNOP    .S1     $C$L17,5          ; |100| 
    1507 000002a4 053fa2e5  ||         LDW     .D2T1   *+SP(116),A10     ; |100| 
    1508 000002a8 05a81fd9  ||         MV      .L1X    B10,A11           ; |100| 
    1509 000002ac 2680a35b  || [ B0]   ZERO    .L2     B13               ; |100| 
    1510 000002b0 27000040  || [ B0]   ZERO    .D1     A14               ; |100| 
    1511                    
    1512                            .dwpsn  file "./../packages/ti/vlib/src/VLIB_mixtureOfGaussiansS32/VLIB_mixtureOfGaussiansS32_
    1513                               ; BRANCHCC OCCURS {$C$L17}        ; |100| 
    1514 000002b4           $C$DW$L$VLIB_mixtureOfGaussiansS32_d$13$E:
    1515                    ;** --------------------------------------------------------------------------*
    1516 000002b4           $C$DW$L$VLIB_mixtureOfGaussiansS32_d$14$B:
    1517                    ;**     -----------------------    K$102 = 32;
    1518                    ;**     -----------------------    K$112 = 42;
    1519                    ;**     -----------------------    K$94 = &cycles[0];
    1520                    ;** 91  -----------------------    counter = 0;
    1521                    ;** 100 -----------------------    i = 0;
    1522                    ;**     -----------------------    #pragma LOOP_FLAGS(5120u)
    1523 000002b4           $C$DW$L$VLIB_mixtureOfGaussiansS32_d$14$E:
    1524                    ;** --------------------------------------------------------------------------*
    1525                    ;**   BEGIN LOOP $C$L3
    1526                    ;** --------------------------------------------------------------------------*
    1527 000002b4           $C$L3:    
    1528                            .dwpsn  file "./../packages/ti/vlib/src/VLIB_mixtureOfGaussiansS32/VLIB_mixtureOfGaussiansS32_
    1529 000002b4           $C$DW$L$VLIB_mixtureOfGaussiansS32_d$15$B:
    1530                    ;          EXCLUSIVE CPU CYCLES: 6
    1531                    ;**     -----------------------g8:
    1532                    ;** 137 -----------------------    act_kernel = 0;  // [17]
    1533                    ;** 140 -----------------------    VLIB_cache_inval();  // [17]
    1534                    ;** 143 -----------------------    initStack(getSP());  // [17]
    1535                    ;** 146 -----------------------    beg_count = _itoll(TSCH, TSCL);  // [17]
    1536                    ;** 104 -----------------------    C$8 = (*U$13).im_size;
    1537                    ;** 104 -----------------------    VLIB_mixtureOfGaussiansS32(C$8*i+Im, wt, mu, var, compNum, updateMa
    1538                    ;** 153 -----------------------    v$2 = _itoll(TSCH, TSCL);  // [18]
    1539                    ;** 153 -----------------------    end_count = v$2;  // [18]
    1540                    ;** 156 -----------------------    C$7 = act_kernel;  // [18]
TMS320C6x Assembler PC v7.4.2 Thu Mar 19 12:43:28 2015

Tools Copyright (c) 1996-2012 Texas Instruments Incorporated
package/lib/Regression/regress_d_c/./../packages/ti/vlib/src/VLIB_mixtureOfGaussiansS32/VLIB_mixtureOfGaussiansS32_d.se66 PAGE   29

    1541                    ;** 156 -----------------------    *((C$7<<3)+K$94) = *((C$7<<3)+K$94)+(v$2-(beg_count+overhead));  //
    1542                    ;** 159 -----------------------    setStackDepth();  // [18]
    1543                    ;** 113 -----------------------    mode[0] = K$102;
    1544                    ;** 114 -----------------------    mode[1] = K$102;
    1545                    ;** 115 -----------------------    mode[2] = K$102;
    1546                    ;** 116 -----------------------    mode[*compNum] = K$112;
    1547                    ;** 118 -----------------------    if ( !LevelOfFeedback ) goto g10;
    1548                            .dwpsn  file ".\..\packages\ti\vlib\src\VLIB_mixtureOfGaussiansS32\..\common\VLIB_profile.h",l
    1549                    $C$DW$202       .dwtag  DW_TAG_TI_branch
    1550                            .dwattr $C$DW$202, DW_AT_low_pc(0x00)
    1551                            .dwattr $C$DW$202, DW_AT_name("VLIB_cache_inval")
    1552                            .dwattr $C$DW$202, DW_AT_TI_call
    1553 000002b4 00000010!            CALL    .S1     VLIB_cache_inval  ; |140| 
    1554 000002b8 07800028!            MVKL    .S1     act_kernel,A15
    1555 000002bc 07800068!            MVKH    .S1     act_kernel,A15
    1556                            .dwpsn  file ".\..\packages\ti\vlib\src\VLIB_mixtureOfGaussiansS32\..\common\VLIB_profile.h",l
    1557 000002c0 0180a358             ZERO    .L1     A3                ; |137| 
    1558 000002c4 01bc0274             STW     .D1T1   A3,*A15           ; |137| 
    1559                            .dwpsn  file ".\..\packages\ti\vlib\src\VLIB_mixtureOfGaussiansS32\..\common\VLIB_profile.h",l
    1560 000002c8 01830162             ADDKPC  .S2     $C$RL16,B3,0      ; |140| 
    1561                    $C$RL16:   ; CALL OCCURS {VLIB_cache_inval} {0}  ; |140| 
    1562                    $C$DW$L$VLIB_mixtureOfGaussiansS32_d$15$E:
    1563                    ;** --------------------------------------------------------------------------*
    1564                    $C$DW$L$VLIB_mixtureOfGaussiansS32_d$16$B:
    1565                    ;          EXCLUSIVE CPU CYCLES: 62
    1566                    $C$DW$203       .dwtag  DW_TAG_TI_branch
    1567                            .dwattr $C$DW$203, DW_AT_low_pc(0x00)
    1568                            .dwattr $C$DW$203, DW_AT_name("getSP")
    1569                            .dwattr $C$DW$203, DW_AT_TI_call
    1570 000002cc 10000012!            CALLP   .S2     getSP,B3
    1571                            .dwpsn  file ".\..\packages\ti\vlib\src\VLIB_mixtureOfGaussiansS32\..\common\VLIB_profile.h",l
    1572                    $C$RL17:   ; CALL OCCURS {getSP} {0}         ; |143| 
    1573                    $C$DW$204       .dwtag  DW_TAG_TI_branch
    1574                            .dwattr $C$DW$204, DW_AT_low_pc(0x00)
    1575                            .dwattr $C$DW$204, DW_AT_name("initStack")
    1576                            .dwattr $C$DW$204, DW_AT_TI_call
    1577 000002d0 10000012!            CALLP   .S2     initStack,B3
    1578 000002d4           $C$RL18:   ; CALL OCCURS {initStack} {0}     ; |143| 
    1579                            .dwpsn  file ".\..\packages\ti\vlib\src\VLIB_mixtureOfGaussiansS32\..\common\VLIB_profile.h",l
    1580 000002d4 032803e2             MVC     .S2     TSCL,B6           ; |146| 
    1581 000002d8 022c03e2             MVC     .S2     TSCH,B4           ; |146| 
    1582                            .dwpsn  file "./../packages/ti/vlib/src/VLIB_mixtureOfGaussiansS32/VLIB_mixtureOfGaussiansS32_
    1583 000002dc 04ae22c6             LDH     .D2T2   *+B11(34),B9      ; |104| 
    1584 000002e0 042d22e6             LDW     .D2T2   *+B11(36),B8      ; |104| 
    1585 000002e4 052c62e6             LDW     .D2T2   *+B11(12),B10     ; |104| 
    1586 000002e8 08ace2e6             LDW     .D2T2   *+B11(28),B17     ; |104| 
    1587 000002ec 082e02c6             LDH     .D2T2   *+B11(32),B16     ; |104| 
    1588 000002f0 04bca2d6             STH     .D2T2   B9,*+SP(10)       ; |104| 
    1589 000002f4 062d42c4             LDH     .D2T1   *+B11(20),A12     ; |104| 
    1590 000002f8 050029ec             LDW     .D2T1   *+SP(164),A10     ; |104| 
    1591 000002fc 040027ec             LDW     .D2T1   *+SP(156),A8      ; |104| 
    1592 00000300 030025ec             LDW     .D2T1   *+SP(148),A6      ; |104| 
    1593 00000304 062cc2e6             LDW     .D2T2   *+B11(24),B12     ; |104| 
    1594                    
    1595 00000308 048023ef             LDW     .D2T2   *+SP(140),B9      ; |104| 
TMS320C6x Assembler PC v7.4.2 Thu Mar 19 12:43:28 2015

Tools Copyright (c) 1996-2012 Texas Instruments Incorporated
package/lib/Regression/regress_d_c/./../packages/ti/vlib/src/VLIB_mixtureOfGaussiansS32/VLIB_mixtureOfGaussiansS32_d.se66 PAGE   30

    1596 0000030c 0f80002a! ||         MVKL    .S2     beg_count,B31
    1597                    
    1598 00000310 03900fdb             MV      .L2     B4,B7             ; |146| 
    1599 00000314 0229a803  ||         MPY32   .M2     B13,B10,B4        ; |104| 
    1600 00000318 0f80006b! ||         MVKH    .S2     beg_count,B31
    1601 0000031c 043c62f6  ||         STW     .D2T2   B8,*+SP(12)       ; |104| 
    1602                    
    1603                            .dwpsn  file ".\..\packages\ti\vlib\src\VLIB_mixtureOfGaussiansS32\..\common\VLIB_profile.h",l
    1604 00000320 037c03c6             STDW    .D2T2   B7:B6,*B31        ; |146| 
    1605                            .dwpsn  file "./../packages/ti/vlib/src/VLIB_mixtureOfGaussiansS32/VLIB_mixtureOfGaussiansS32_
    1606 00000324 08bc22f6             STW     .D2T2   B17,*+SP(4)       ; |104| 
    1607 00000328 083c82d6             STH     .D2T2   B16,*+SP(8)       ; |104| 
    1608                    
    1609 0000032c 0391207b             ADD     .L2     B9,B4,B7          ; |104| 
    1610 00000330 040028ee  ||         LDW     .D2T2   *+SP(160),B8      ; |104| 
    1611                    
    1612 00000334 030026ee             LDW     .D2T2   *+SP(152),B6      ; |104| 
    1613                    $C$DW$205       .dwtag  DW_TAG_TI_branch
    1614                            .dwattr $C$DW$205, DW_AT_low_pc(0x00)
    1615                            .dwattr $C$DW$205, DW_AT_name("VLIB_mixtureOfGaussiansS32")
    1616                            .dwattr $C$DW$205, DW_AT_TI_call
    1617                    
    1618 00000338 10000013!            CALLP   .S2     VLIB_mixtureOfGaussiansS32,B3
    1619 0000033c 020024ef  ||         LDW     .D2T2   *+SP(144),B4      ; |104| 
    1620 00000340 021c1fd8  ||         MV      .L1X    B7,A4             ; |104| 
    1621                    
    1622 00000344           $C$RL19:   ; CALL OCCURS {VLIB_mixtureOfGaussiansS32} {0}  ; |104| 
    1623                            .dwpsn  file ".\..\packages\ti\vlib\src\VLIB_mixtureOfGaussiansS32\..\common\VLIB_profile.h",l
    1624 00000344 032803e2             MVC     .S2     TSCL,B6           ; |153| 
    1625 00000348 03ac03e2             MVC     .S2     TSCH,B7           ; |153| 
    1626 0000034c 0200002a!            MVKL    .S2     beg_count,B4
    1627 00000350 0280002a!            MVKL    .S2     overhead,B5
    1628                    
    1629 00000354 01bc0265             LDW     .D1T1   *A15,A3           ; |156| 
    1630 00000358 0200006a! ||         MVKH    .S2     beg_count,B4
    1631                    
    1632 0000035c 0280006b!            MVKH    .S2     overhead,B5
    1633 00000360 041003e6  ||         LDDW    .D2T2   *B4,B9:B8         ; |156| 
    1634                    
    1635                            .dwpsn  file ".\..\packages\ti\vlib\src\VLIB_mixtureOfGaussiansS32\..\common\VLIB_profile.h",l
    1636 00000364 081403e6             LDDW    .D2T2   *B5,B17:B16       ; |156| 
    1637 00000368 02000028!            MVKL    .S1     cycles,A4
    1638 0000036c 02000068!            MVKH    .S1     cycles,A4
    1639 00000370 03106b64             LDDW    .D1T1   *+A4[A3],A7:A6    ; |156| 
    1640 00000374 04000028!            MVKL    .S1     end_count,A8
    1641 00000378 0222057a             ADDU    .L2     B16,B8,B5:B4      ; |156| 
    1642                    
    1643 0000037c 0444a1e3             ADD     .S2     B5,B17,B8         ; |156| 
    1644 00000380 0210c5fa  ||         SUBU    .L2     B6,B4,B5:B4       ; |156| 
    1645                    
    1646 00000384 0425007a             ADD     .L2     B8,B9,B8          ; |156| 
    1647                    
    1648 00000388 0210d579             ADDU    .L1X    A6,B4,A5:A4       ; |156| 
    1649 0000038c 0220e0fb  ||         SUB     .L2     B7,B8,B4          ; |156| 
    1650 00000390     aae3  ||         EXT     .S2     B5,24,24,B5       ; |156| 
TMS320C6x Assembler PC v7.4.2 Thu Mar 19 12:43:28 2015

Tools Copyright (c) 1996-2012 Texas Instruments Incorporated
package/lib/Regression/regress_d_c/./../packages/ti/vlib/src/VLIB_mixtureOfGaussiansS32/VLIB_mixtureOfGaussiansS32_d.se66 PAGE   31

    1651                    
    1652 00000392     82c1             ADD     .L2     B4,B5,B4          ; |156| 
    1653 00000394 04000068! ||         MVKH    .S1     end_count,A8
    1654                    
    1655 000003a0     a3d0             ADD     .L1     A5,A7,A5          ; |156| 
    1656 00000398 03000029! ||         MVKL    .S1     cycles,A6
    1657                    
    1658 000003a2     b250             ADD     .L1X    A5,B4,A5          ; |156| 
    1659 000003a4 03000069! ||         MVKH    .S1     cycles,A6
    1660 000003a8 03200346  ||         STDW    .D1T2   B7:B6,*A8         ; |153| 
    1661                    
    1662                    $C$DW$206       .dwtag  DW_TAG_TI_branch
    1663                            .dwattr $C$DW$206, DW_AT_low_pc(0x00)
    1664                            .dwattr $C$DW$206, DW_AT_name("setStackDepth")
    1665                            .dwattr $C$DW$206, DW_AT_TI_call
    1666                    
    1667 000003ac 10000013!            CALLP   .S2     setStackDepth,B3
    1668 000003b0 02186b44  ||         STDW    .D1T1   A5:A4,*+A6[A3]    ; |156| 
    1669                    
    1670                            .dwpsn  file ".\..\packages\ti\vlib\src\VLIB_mixtureOfGaussiansS32\..\common\VLIB_profile.h",l
    1671 000003b4           $C$RL20:   ; CALL OCCURS {setStackDepth} {0}  ; |159| 
    1672 000003b4           $C$DW$L$VLIB_mixtureOfGaussiansS32_d$16$E:
    1673                    ;** --------------------------------------------------------------------------*
    1674 000003b4           $C$DW$L$VLIB_mixtureOfGaussiansS32_d$17$B:
    1675                    ;          EXCLUSIVE CPU CYCLES: 23
    1676                            .dwpsn  file "./../packages/ti/vlib/src/VLIB_mixtureOfGaussiansS32/VLIB_mixtureOfGaussiansS32_
    1677 000003b4 0f8027ec             LDW     .D2T1   *+SP(156),A31     ; |115| 
    1678 000003b8 01801028             MVK     .S1     0x20,A3
    1679                            .dwpsn  file "./../packages/ti/vlib/src/VLIB_mixtureOfGaussiansS32/VLIB_mixtureOfGaussiansS32_
    1680 000003c0 018078bc             STB     .D2T1   A3,*+SP(120)      ; |113| 
    1681                            .dwpsn  file "./../packages/ti/vlib/src/VLIB_mixtureOfGaussiansS32/VLIB_mixtureOfGaussiansS32_
    1682 000003c4 018079bc             STB     .D2T1   A3,*+SP(121)      ; |114| 
    1683                            .dwpsn  file "./../packages/ti/vlib/src/VLIB_mixtureOfGaussiansS32/VLIB_mixtureOfGaussiansS32_
    1684 000003c8 01807abc             STB     .D2T1   A3,*+SP(122)      ; |115| 
    1685                            .dwpsn  file "./../packages/ti/vlib/src/VLIB_mixtureOfGaussiansS32/VLIB_mixtureOfGaussiansS32_
    1686 000003cc 01fc0214             LDBU    .D1T1   *A31,A3           ; |116| 
    1687 000003d0     4ab2             MVK     .S1     0x2a,A5
    1688 000003d2     1a72             MVK     .S1     120,A4            ; |116| 
    1689 000003d4 00002000             NOP             2
    1690 000003d8 01bc7078             ADD     .L1X    A3,SP,A3          ; |116| 
    1691 000003e0 02906a34             STB     .D1T1   A5,*+A4[A3]       ; |116| 
    1692 000003e4 000022ec             LDW     .D2T1   *+SP(136),A0      ; |116| 
    1693 000003e8 018025ec             LDW     .D2T1   *+SP(148),A3
    1694 000003ec 00004000             NOP             3
    1695                    
    1696 000003f0 d02c42e7     [!A0]   LDW     .D2T2   *+B11(8),B0       ; |126| 
    1697 000003f4 d0003990  || [!A0]   B       .S1     $C$L4             ; |118| 
    1698                    
    1699                            .dwpsn  file "./../packages/ti/vlib/src/VLIB_mixtureOfGaussiansS32/VLIB_mixtureOfGaussiansS32_
    1700                    $C$DW$207       .dwtag  DW_TAG_TI_branch
    1701                            .dwattr $C$DW$207, DW_AT_low_pc(0x00)
    1702                            .dwattr $C$DW$207, DW_AT_name("VLIB_getFractional32")
    1703                            .dwattr $C$DW$207, DW_AT_TI_call
    1704 000003f8 c0000010!    [ A0]   CALL    .S1     VLIB_getFractional32 ; |119| 
    1705 000003fc c20c0264     [ A0]   LDW     .D1T1   *A3,A4            ; |119| 
TMS320C6x Assembler PC v7.4.2 Thu Mar 19 12:43:28 2015

Tools Copyright (c) 1996-2012 Texas Instruments Incorporated
package/lib/Regression/regress_d_c/./../packages/ti/vlib/src/VLIB_mixtureOfGaussiansS32/VLIB_mixtureOfGaussiansS32_d.se66 PAGE   32

    1706                            .dwpsn  file "./../packages/ti/vlib/src/VLIB_mixtureOfGaussiansS32/VLIB_mixtureOfGaussiansS32_
    1707 00000400 c004a35a     [ A0]   MVK     .L2     0x1,B0            ; |126| nullify predicate
    1708 00000404 d53fa2e4     [!A0]   LDW     .D2T1   *+SP(116),A10     ; |126| 
    1709 00000408 30009090     [!B0]   B       .S1     $C$L16            ; |126| 
    1710                            .dwpsn  file "./../packages/ti/vlib/src/VLIB_mixtureOfGaussiansS32/VLIB_mixtureOfGaussiansS32_
    1711                               ; BRANCHCC OCCURS {$C$L4}         ; |118| 
    1712 0000040c           $C$DW$L$VLIB_mixtureOfGaussiansS32_d$17$E:
    1713                    ;** --------------------------------------------------------------------------*
    1714 0000040c           $C$DW$L$VLIB_mixtureOfGaussiansS32_d$18$B:
    1715                    ;          EXCLUSIVE CPU CYCLES: 1
    1716                    ;** 119 -----------------------    printf((const char *)"%4d  %d  %c %8.4f %8.4f %8.6f   %c %8.4f %8.4
    1717                    
    1718 0000040c     2726             MVK     .L1     0x1,A6            ; |119| 
    1719 0000040e     ee27  ||         MVK     .L2     0xf,B4            ; |119| 
    1720 00000410 01850162  ||         ADDKPC  .S2     $C$RL21,B3,0      ; |119| 
    1721                    
    1722                            .dwpsn  file "./../packages/ti/vlib/src/VLIB_mixtureOfGaussiansS32/VLIB_mixtureOfGaussiansS32_
    1723 00000414           $C$RL21:   ; CALL OCCURS {VLIB_getFractional32} {0}  ; |119| 
    1724 00000414           $C$DW$L$VLIB_mixtureOfGaussiansS32_d$18$E:
    1725                    ;** --------------------------------------------------------------------------*
    1726 00000414           $C$DW$L$VLIB_mixtureOfGaussiansS32_d$19$B:
    1727                    ;          EXCLUSIVE CPU CYCLES: 137
    1728 00000414 020026ee             LDW     .D2T2   *+SP(152),B4      ; |119| 
    1729 00000418     4646             MV      .L1     A4,A10            ; |119| 
    1730 0000041a     2726             MVK     .L1     0x1,A6            ; |119| 
    1731 00000420     2c6e             NOP             2
    1732                    $C$DW$208       .dwtag  DW_TAG_TI_branch
    1733                            .dwattr $C$DW$208, DW_AT_low_pc(0x00)
    1734                            .dwattr $C$DW$208, DW_AT_name("VLIB_getFractional16")
    1735                            .dwattr $C$DW$208, DW_AT_TI_call
    1736                    
    1737 00000428 10000012!            CALLP   .S2     VLIB_getFractional16,B3
    1738 00000424 021002c5  ||         LDH     .D2T1   *B4,A4            ; |119| 
    1739 00000422     6627  ||         MVK     .L2     0x3,B4            ; |119| 
    1740                    
    1741 0000042c           $C$RL22:   ; CALL OCCURS {VLIB_getFractional16} {0}  ; |119| 
    1742 0000042c 020024ee             LDW     .D2T2   *+SP(144),B4      ; |119| 
    1743 00000430     5647             MV      .L2X    A4,B10            ; |119| 
    1744 00000432     2726             MVK     .L1     0x1,A6            ; |119| 
    1745 00000434     2c6e             NOP             2
    1746                    $C$DW$209       .dwtag  DW_TAG_TI_branch
    1747                            .dwattr $C$DW$209, DW_AT_low_pc(0x00)
    1748                            .dwattr $C$DW$209, DW_AT_name("VLIB_getFractional16")
    1749                            .dwattr $C$DW$209, DW_AT_TI_call
    1750                    
    1751 00000440 10000012!            CALLP   .S2     VLIB_getFractional16,B3
    1752 00000438 021002c5  ||         LDH     .D2T1   *B4,A4            ; |119| 
    1753 00000436     ee27  ||         MVK     .L2     0xf,B4            ; |119| 
    1754                    
    1755 00000444           $C$RL23:   ; CALL OCCURS {VLIB_getFractional16} {0}  ; |119| 
    1756 00000444 01ac62e4             LDW     .D2T1   *+B11(12),A3      ; |119| 
    1757                    
    1758 0000044c     8646             MV      .L1     A4,A12            ; |119| 
    1759 00000448 020025ed  ||         LDW     .D2T1   *+SP(148),A4
    1760                    
TMS320C6x Assembler PC v7.4.2 Thu Mar 19 12:43:28 2015

Tools Copyright (c) 1996-2012 Texas Instruments Incorporated
package/lib/Regression/regress_d_c/./../packages/ti/vlib/src/VLIB_mixtureOfGaussiansS32/VLIB_mixtureOfGaussiansS32_d.se66 PAGE   33

    1761 0000044e     f213             MVK     .S2     0x17,B4           ; |119| 
    1762 00000450     2726             MVK     .L1     0x1,A6            ; |119| 
    1763 00000452     2c6e             NOP             2
    1764                    $C$DW$210       .dwtag  DW_TAG_TI_branch
    1765                            .dwattr $C$DW$210, DW_AT_low_pc(0x00)
    1766                            .dwattr $C$DW$210, DW_AT_name("VLIB_getFractional32")
    1767                            .dwattr $C$DW$210, DW_AT_TI_call
    1768                    
    1769 00000454 10000013!            CALLP   .S2     VLIB_getFractional32,B3
    1770 00000458 02106a64  ||         LDW     .D1T1   *+A4[A3],A4       ; |119| 
    1771                    
    1772 00000460           $C$RL24:   ; CALL OCCURS {VLIB_getFractional32} {0}  ; |119| 
    1773 00000460 022c62e6             LDW     .D2T2   *+B11(12),B4      ; |119| 
    1774 00000464 028026ee             LDW     .D2T2   *+SP(152),B5
    1775 00000468     e646             MV      .L1     A4,A15            ; |119| 
    1776 0000046a     2726             MVK     .L1     0x1,A6            ; |119| 
    1777 0000046c     2c6e             NOP             2
    1778                    $C$DW$211       .dwtag  DW_TAG_TI_branch
    1779                            .dwattr $C$DW$211, DW_AT_low_pc(0x00)
    1780                            .dwattr $C$DW$211, DW_AT_name("VLIB_getFractional32")
    1781                            .dwattr $C$DW$211, DW_AT_TI_call
    1782                    
    1783 00000470 10000013!            CALLP   .S2     VLIB_getFractional32,B3
    1784 0000046e     84cd  ||         LDW     .D2T1   *+B5[B4],A4       ; |119| 
    1785 00000474 023ca35a  ||         MVK     .L2     0xf,B4            ; |119| 
    1786                    
    1787 00000478           $C$RL25:   ; CALL OCCURS {VLIB_getFractional32} {0}  ; |119| 
    1788 00000478 028024ee             LDW     .D2T2   *+SP(144),B5
    1789 00000480 022c62e6             LDW     .D2T2   *+B11(12),B4      ; |119| 
    1790 00000484     9647             MV      .L2X    A4,B12            ; |119| 
    1791 00000486     2726             MVK     .L1     0x1,A6            ; |119| 
    1792 00000488     2c6e             NOP             2
    1793                    $C$DW$212       .dwtag  DW_TAG_TI_branch
    1794                            .dwattr $C$DW$212, DW_AT_low_pc(0x00)
    1795                            .dwattr $C$DW$212, DW_AT_name("VLIB_getFractional16")
    1796                            .dwattr $C$DW$212, DW_AT_TI_call
    1797                    
    1798 00000490 10000012!            CALLP   .S2     VLIB_getFractional16,B3
    1799 0000048c 02148ac5  ||         LDH     .D2T1   *+B5[B4],A4       ; |119| 
    1800 0000048a     ee27  ||         MVK     .L2     0xf,B4            ; |119| 
    1801                    
    1802 00000494           $C$RL26:   ; CALL OCCURS {VLIB_getFractional16} {0}  ; |119| 
    1803 00000494 02002cfc             STW     .D2T1   A4,*+SP(176)      ; |119| 
    1804 00000498 020025ec             LDW     .D2T1   *+SP(148),A4
    1805 000004a0 01ac62e4             LDW     .D2T1   *+B11(12),A3      ; |119| 
    1806 000004a4     f213             MVK     .S2     0x17,B4           ; |119| 
    1807 000004a6     2726             MVK     .L1     0x1,A6            ; |119| 
    1808 000004a8 00002000             NOP             2
    1809 000004ac 01907e40             ADDAD   .D1     A4,A3,A3          ; |119| 
    1810                    $C$DW$213       .dwtag  DW_TAG_TI_branch
    1811                            .dwattr $C$DW$213, DW_AT_low_pc(0x00)
    1812                            .dwattr $C$DW$213, DW_AT_name("VLIB_getFractional32")
    1813                            .dwattr $C$DW$213, DW_AT_TI_call
    1814                    
    1815 000004b0 10000013!            CALLP   .S2     VLIB_getFractional32,B3
TMS320C6x Assembler PC v7.4.2 Thu Mar 19 12:43:28 2015

Tools Copyright (c) 1996-2012 Texas Instruments Incorporated
package/lib/Regression/regress_d_c/./../packages/ti/vlib/src/VLIB_mixtureOfGaussiansS32/VLIB_mixtureOfGaussiansS32_d.se66 PAGE   34

    1816 000004b4 020c0264  ||         LDW     .D1T1   *A3,A4            ; |119| 
    1817                    
    1818 000004b8           $C$RL27:   ; CALL OCCURS {VLIB_getFractional32} {0}  ; |119| 
    1819 000004b8 022c62e6             LDW     .D2T2   *+B11(12),B4      ; |119| 
    1820 000004c0 028026ee             LDW     .D2T2   *+SP(152),B5
    1821 000004c4 02002bfc             STW     .D2T1   A4,*+SP(172)      ; |119| 
    1822 000004c8     2726             MVK     .L1     0x1,A6            ; |119| 
    1823 000004ca     2c6e             NOP             2
    1824 000004cc 02149e42             ADDAD   .D2     B5,B4,B4          ; |119| 
    1825                    $C$DW$214       .dwtag  DW_TAG_TI_branch
    1826                            .dwattr $C$DW$214, DW_AT_low_pc(0x00)
    1827                            .dwattr $C$DW$214, DW_AT_name("VLIB_getFractional16")
    1828                            .dwattr $C$DW$214, DW_AT_TI_call
    1829                    
    1830 000004d0 10000013!            CALLP   .S2     VLIB_getFractional16,B3
    1831 000004d4     024d  ||         LDH     .D2T1   *B4,A4            ; |119| 
    1832 000004d6     ee27  ||         MVK     .L2     0xf,B4            ; |119| 
    1833                    
    1834 000004d8           $C$RL28:   ; CALL OCCURS {VLIB_getFractional16} {0}  ; |119| 
    1835 000004d8 028024ee             LDW     .D2T2   *+SP(144),B5
    1836 000004e0 022c62e6             LDW     .D2T2   *+B11(12),B4      ; |119| 
    1837 000004e4 020021fc             STW     .D2T1   A4,*+SP(132)      ; |119| 
    1838 000004e8     2726             MVK     .L1     0x1,A6            ; |119| 
    1839 000004ea     2c6e             NOP             2
    1840 000004ec 02149c42             ADDAW   .D2     B5,B4,B4          ; |119| 
    1841                    $C$DW$215       .dwtag  DW_TAG_TI_branch
    1842                            .dwattr $C$DW$215, DW_AT_low_pc(0x00)
    1843                            .dwattr $C$DW$215, DW_AT_name("VLIB_getFractional16")
    1844                            .dwattr $C$DW$215, DW_AT_TI_call
    1845                    
    1846 000004f0 10000013!            CALLP   .S2     VLIB_getFractional16,B3
    1847 000004f4     024d  ||         LDH     .D2T1   *B4,A4            ; |119| 
    1848 000004f6     ee27  ||         MVK     .L2     0xf,B4            ; |119| 
    1849                    
    1850 000004f8           $C$RL29:   ; CALL OCCURS {VLIB_getFractional16} {0}  ; |119| 
    1851 000004f8 018029ec             LDW     .D2T1   *+SP(164),A3      ; |119| 
    1852 00000500 022c62e6             LDW     .D2T2   *+B11(12),B4      ; |119| 
    1853 00000504 02800028!            MVKL    .S1     $C$SL4+0,A5
    1854 00000508 028023ee             LDW     .D2T2   *+SP(140),B5      ; |119| 
    1855 0000050c 02800068!            MVKH    .S1     $C$SL4+0,A5
    1856 00000510 018c0264             LDW     .D1T1   *A3,A3            ; |119| 
    1857 00000514 02bc22f4             STW     .D2T1   A5,*+SP(4)        ; |119| 
    1858 00000518 048078ae             LDB     .D2T2   *+SP(120),B9      ; |119| 
    1859                    
    1860 0000051c 0211a803             MPY32   .M2     B13,B4,B4         ; |119| 
    1861 00000520 0f002bec  ||         LDW     .D2T1   *+SP(172),A30     ; |119| 
    1862                    
    1863 00000524 040079ae             LDB     .D2T2   *+SP(121),B8      ; |119| 
    1864 00000528 08807aae             LDB     .D2T2   *+SP(122),B17     ; |119| 
    1865                    
    1866 0000052c 018fe9a1             SHRU    .S1     A3,31,A3          ; |119| 
    1867 00000530 0f802cec  ||         LDW     .D2T1   *+SP(176),A31     ; |119| 
    1868                    
    1869 00000534 0810aa97             LDBU    .D2T2   *+B4[B5],B16      ; |119| 
    1870 00000538 043000a0  ||         SPDP    .S1     A12,A9:A8         ; |119| 
TMS320C6x Assembler PC v7.4.2 Thu Mar 19 12:43:28 2015

Tools Copyright (c) 1996-2012 Texas Instruments Incorporated
package/lib/Regression/regress_d_c/./../packages/ti/vlib/src/VLIB_mixtureOfGaussiansS32/VLIB_mixtureOfGaussiansS32_d.se66 PAGE   35

    1871                    
    1872 0000053c 01bc62f4             STW     .D2T1   A3,*+SP(12)       ; |119| 
    1873                    
    1874 00000540 032800a1             SPDP    .S1     A10,A7:A6         ; |119| 
    1875 00000544 043ca3c4  ||         STDW    .D2T1   A9:A8,*+SP(40)    ; |119| 
    1876                    
    1877 00000548 018021ec             LDW     .D2T1   *+SP(132),A3      ; |119| 
    1878                    
    1879 0000054c 033c63c5             STDW    .D2T1   A7:A6,*+SP(24)    ; |119| 
    1880 00000550 083c00a0  ||         SPDP    .S1     A15,A17:A16       ; |119| 
    1881                    
    1882 00000554 083c42f6             STW     .D2T2   B16,*+SP(8)       ; |119| 
    1883 00000558 083ce3c4             STDW    .D2T1   A17:A16,*+SP(56)  ; |119| 
    1884                    
    1885 0000055c 021000a1             SPDP    .S1     A4,A5:A4          ; |119| 
    1886 00000560 04bc82f6  ||         STW     .D2T2   B9,*+SP(16)       ; |119| 
    1887                    
    1888 00000564 037810a3             SPDP    .S2X    A30,B7:B6         ; |119| 
    1889 00000568 043d82f6  ||         STW     .D2T2   B8,*+SP(48)       ; |119| 
    1890                    
    1891 0000056c 023da3c4             STDW    .D2T1   A5:A4,*+SP(104)   ; |119| 
    1892                    
    1893 00000570 022800a3             SPDP    .S2     B10,B5:B4         ; |119| 
    1894 00000574 040c00a1  ||         SPDP    .S1     A3,A9:A8          ; |119| 
    1895 00000578 08be82f6  ||         STW     .D2T2   B17,*+SP(80)      ; |119| 
    1896                    
    1897 0000057c 033d63c6             STDW    .D2T2   B7:B6,*+SP(88)    ; |119| 
    1898                    
    1899 00000580 023c83c7             STDW    .D2T2   B5:B4,*+SP(32)    ; |119| 
    1900 00000584 037c00a0  ||         SPDP    .S1     A31,A7:A6         ; |119| 
    1901                    
    1902 00000588 023000a3             SPDP    .S2     B12,B5:B4         ; |119| 
    1903 0000058c 043d83c4  ||         STDW    .D2T1   A9:A8,*+SP(96)    ; |119| 
    1904                    
    1905 00000590 033d23c4             STDW    .D2T1   A7:A6,*+SP(72)    ; |119| 
    1906                    $C$DW$216       .dwtag  DW_TAG_TI_branch
    1907                            .dwattr $C$DW$216, DW_AT_low_pc(0x00)
    1908                            .dwattr $C$DW$216, DW_AT_name("printf")
    1909                            .dwattr $C$DW$216, DW_AT_TI_call
    1910                    
    1911 00000594 10000013!            CALLP   .S2     printf,B3
    1912 00000598 023d03c6  ||         STDW    .D2T2   B5:B4,*+SP(64)    ; |119| 
    1913                    
    1914 0000059c           $C$RL30:   ; CALL OCCURS {printf} {0}        ; |119| 
    1915                            .dwpsn  file "./../packages/ti/vlib/src/VLIB_mixtureOfGaussiansS32/VLIB_mixtureOfGaussiansS32_
    1916 0000059c 002c42e6             LDW     .D2T2   *+B11(8),B0       ; |126| 
    1917 000005a0 053fa2e4             LDW     .D2T1   *+SP(116),A10     ; |126| 
    1918 000005a4 00004000             NOP             3
    1919 000005a8 30005c90     [!B0]   B       .S1     $C$L16            ; |126| 
    1920 000005ac           $C$DW$L$VLIB_mixtureOfGaussiansS32_d$19$E:
    1921                    ;** --------------------------------------------------------------------------*
    1922 000005ac           $C$L4:    
    1923                            .dwpsn  file "./../packages/ti/vlib/src/VLIB_mixtureOfGaussiansS32/VLIB_mixtureOfGaussiansS32_
    1924 000005ac           $C$DW$L$VLIB_mixtureOfGaussiansS32_d$20$B:
    1925                    ;          EXCLUSIVE CPU CYCLES: 5
TMS320C6x Assembler PC v7.4.2 Thu Mar 19 12:43:28 2015

Tools Copyright (c) 1996-2012 Texas Instruments Incorporated
package/lib/Regression/regress_d_c/./../packages/ti/vlib/src/VLIB_mixtureOfGaussiansS32/VLIB_mixtureOfGaussiansS32_d.se66 PAGE   36

    1926                    ;**     -----------------------g10:
    1927                    ;** 126 -----------------------    v$1 = prm;
    1928                    ;** 126 -----------------------    if ( (*U$13).staticOut == NULL ) goto g31;
    1929                            .dwpsn  file "./../packages/ti/vlib/src/VLIB_mixtureOfGaussiansS32/VLIB_mixtureOfGaussiansS32_
    1930 000005ac 222c62e6     [ B0]   LDW     .D2T2   *+B11(12),B4      ; |129| 
    1931 000005b0 318020ec     [!B0]   LDW     .D2T1   *+SP(128),A3
    1932 000005b4 00004000             NOP             3
    1933                            .dwpsn  file "./../packages/ti/vlib/src/VLIB_mixtureOfGaussiansS32/VLIB_mixtureOfGaussiansS32_
    1934                               ; BRANCHCC OCCURS {$C$L16}        ; |126| 
    1935 000005b8           $C$DW$L$VLIB_mixtureOfGaussiansS32_d$20$E:
    1936                    ;** --------------------------------------------------------------------------*
    1937 000005b8           $C$DW$L$VLIB_mixtureOfGaussiansS32_d$21$B:
    1938                    ;          EXCLUSIVE CPU CYCLES: 7
    1939                    ;** 129 -----------------------    if ( (*U$13).im_size <= 0 ) goto g20;
    1940                    
    1941 000005b8 01b4aca1             SHL     .S1     A13,5,A3
    1942 000005bc 00100ada  ||         CMPGT   .L2     B4,0,B0           ; |129| 
    1943                    
    1944 000005c0 018dbe41             ADDAD   .D1     A3,A13,A3
    1945 000005c4 30002e11  || [!B0]   B       .S1     $C$L9             ; |129| 
    1946 000005c8 2f8026ec  || [ B0]   LDW     .D2T1   *+SP(152),A31
    1947                    
    1948 000005cc 018d4078             ADD     .L1     A10,A3,A3
    1949 000005d0 220c6264     [ B0]   LDW     .D1T1   *+A3(12),A4
    1950 000005d4 218c4264     [ B0]   LDW     .D1T1   *+A3(8),A3
    1951 000005d8 228ca358     [ B0]   MVK     .L1     3,A5
    1952 000005dc 00000000             NOP             1
    1953                            .dwpsn  file "./../packages/ti/vlib/src/VLIB_mixtureOfGaussiansS32/VLIB_mixtureOfGaussiansS32_
    1954                               ; BRANCHCC OCCURS {$C$L9}         ; |129| 
    1955 000005e0           $C$DW$L$VLIB_mixtureOfGaussiansS32_d$21$E:
    1956                    ;** --------------------------------------------------------------------------*
    1957 000005e0           $C$DW$L$VLIB_mixtureOfGaussiansS32_d$22$B:
    1958                    ;          EXCLUSIVE CPU CYCLES: 10
    1959                    ;**     -----------------------    U$152 = mu;
    1960                    ;**     -----------------------    C$6 = &v$1[tpi];
    1961                    ;**     -----------------------    U$159 = counter*4+(*C$6).staticOut-4;
    1962                    ;**     -----------------------    U$170 = var;
    1963                    ;**     -----------------------    U$178 = wt;
    1964                    ;**     -----------------------    L$1 = _lo(_mpyli(3, (*C$6).im_size));
    1965                    ;** 129 -----------------------    k = 0;
    1966                    ;**     -----------------------    #pragma MUST_ITERATE(1, 2147483647, 1)
    1967                    ;**     -----------------------    #pragma LOOP_FLAGS(5120u)
    1968 000005e0 078025ec             LDW     .D2T1   *+SP(148),A15
    1969                    
    1970 000005e4 0210a571             MPYLI   .M1     A5,A4,A5:A4
    1971 000005e8 0f802bfc  ||         STW     .D2T1   A31,*+SP(172)
    1972                    
    1973 000005ec 018ddc40             ADDAW   .D1     A3,A14,A3
    1974 000005f0 060f8058             SUB     .L1     A3,4,A12
    1975                            .dwpsn  file "./../packages/ti/vlib/src/VLIB_mixtureOfGaussiansS32/VLIB_mixtureOfGaussiansS32_
    1976 000005f4 06308058             ADD     .L1     4,A12,A12         ; |130| 
    1977 000005f8 020021fc             STW     .D2T1   A4,*+SP(132)
    1978 000005fc 023c3664             LDW     .D1T1   *A15++,A4         ; |130| 
    1979 00000600 01b03664             LDW     .D1T1   *A12++,A3         ; |130| 
    1980                            .dwpsn  file "./../packages/ti/vlib/src/VLIB_mixtureOfGaussiansS32/VLIB_mixtureOfGaussiansS32_
TMS320C6x Assembler PC v7.4.2 Thu Mar 19 12:43:28 2015

Tools Copyright (c) 1996-2012 Texas Instruments Incorporated
package/lib/Regression/regress_d_c/./../packages/ti/vlib/src/VLIB_mixtureOfGaussiansS32/VLIB_mixtureOfGaussiansS32_d.se66 PAGE   37

    1981 00000604 0600a35a             ZERO    .L2     B12               ; |129| 
    1982 00000608 050024ee             LDW     .D2T2   *+SP(144),B10
    1983 0000060c           $C$DW$L$VLIB_mixtureOfGaussiansS32_d$22$E:
    1984                    ;*----------------------------------------------------------------------------*
    1985                    ;*   SOFTWARE PIPELINE INFORMATION
    1986                    ;*      Disqualified loop: Loop contains control code
    1987                    ;*----------------------------------------------------------------------------*
    1988 0000060c           $C$L5:    
    1989 0000060c           $C$DW$L$VLIB_mixtureOfGaussiansS32_d$23$B:
    1990                    ;          EXCLUSIVE CPU CYCLES: 9
    1991                    ;**     -----------------------g13:
    1992                    ;** 130 -----------------------    ++U$159;
    1993                    ;** 130 -----------------------    if ( (unsigned)*U$152++ == *U$159++ ) goto g15;
    1994 0000060c     2c6e             NOP             2
    1995                            .dwpsn  file "./../packages/ti/vlib/src/VLIB_mixtureOfGaussiansS32/VLIB_mixtureOfGaussiansS32_
    1996 0000060e     85e8             CMPEQ   .L1     A4,A3,A0          ; |130| 
    1997                    
    1998 00000610 c2802bef     [ A0]   LDW     .D2T2   *+SP(172),B5
    1999 00000614 c0000c11  || [ A0]   B       .S1     $C$L6             ; |130| 
    2000 00000618 d280002b! || [!A0]   MVKL    .S2     $C$SL5+0,B5
    2001 00000620 c1b03664  || [ A0]   LDW     .D1T1   *A12++,A3         ; |134| 
    2002                    
    2003                            .dwpsn  file "./../packages/ti/vlib/src/VLIB_mixtureOfGaussiansS32/VLIB_mixtureOfGaussiansS32_
    2004 00000624 d1b0bda0     [!A0]   SHR     .S1X    B12,5,A3          ; |131| 
    2005 00000628 d280006a!    [!A0]   MVKH    .S2     $C$SL5+0,B5
    2006 0000062c d2337b0a     [!A0]   EXTU    .S2     B12,27,27,B4      ; |131| 
    2007                    $C$DW$217       .dwtag  DW_TAG_TI_branch
    2008                            .dwattr $C$DW$217, DW_AT_low_pc(0x00)
    2009                            .dwattr $C$DW$217, DW_AT_name("printf")
    2010                            .dwattr $C$DW$217, DW_AT_TI_call
    2011 00000630 d0000010!    [!A0]   CALL    .S1     printf            ; |131| 
    2012                            .dwpsn  file "./../packages/ti/vlib/src/VLIB_mixtureOfGaussiansS32/VLIB_mixtureOfGaussiansS32_
    2013 00000634 c21436e6     [ A0]   LDW     .D2T2   *B5++,B4          ; |134| 
    2014                            .dwpsn  file "./../packages/ti/vlib/src/VLIB_mixtureOfGaussiansS32/VLIB_mixtureOfGaussiansS32_
    2015                               ; BRANCHCC OCCURS {$C$L6}         ; |130| 
    2016 00000638           $C$DW$L$VLIB_mixtureOfGaussiansS32_d$23$E:
    2017                    ;** --------------------------------------------------------------------------*
    2018 00000638           $C$DW$L$VLIB_mixtureOfGaussiansS32_d$24$B:
    2019                    ;          EXCLUSIVE CPU CYCLES: 4
    2020                    ;** 131 -----------------------    printf((const char *)"\tError in Mean: Image %d, Pixel %d, Mode %d\
    2021                    ;** 132 -----------------------    status_nat_vs_ref = 0;
    2022                            .dwpsn  file "./../packages/ti/vlib/src/VLIB_mixtureOfGaussiansS32/VLIB_mixtureOfGaussiansS32_
    2023 00000638     bc55             STW     .D2T2   B5,*+SP(4)        ; |131| 
    2024 0000063a     8cb5             STW     .D2T1   A3,*+SP(16)       ; |131| 
    2025 00000640 023c62f6             STW     .D2T2   B4,*+SP(12)       ; |131| 
    2026                    
    2027 00000644 06bc42f7             STW     .D2T2   B13,*+SP(8)       ; |131| 
    2028 00000648 01830162  ||         ADDKPC  .S2     $C$RL31,B3,0      ; |131| 
    2029                    
    2030 0000064c           $C$RL31:   ; CALL OCCURS {printf} {0}        ; |131| 
    2031 0000064c           $C$DW$L$VLIB_mixtureOfGaussiansS32_d$24$E:
    2032                    ;** --------------------------------------------------------------------------*
    2033 0000064c           $C$DW$L$VLIB_mixtureOfGaussiansS32_d$25$B:
    2034                    ;          EXCLUSIVE CPU CYCLES: 6
    2035 0000064c 02802bee             LDW     .D2T2   *+SP(172),B5
TMS320C6x Assembler PC v7.4.2 Thu Mar 19 12:43:28 2015

Tools Copyright (c) 1996-2012 Texas Instruments Incorporated
package/lib/Regression/regress_d_c/./../packages/ti/vlib/src/VLIB_mixtureOfGaussiansS32/VLIB_mixtureOfGaussiansS32_d.se66 PAGE   38

    2036                            .dwpsn  file "./../packages/ti/vlib/src/VLIB_mixtureOfGaussiansS32/VLIB_mixtureOfGaussiansS32_
    2037 00000650 01b03664             LDW     .D1T1   *A12++,A3         ; |134| 
    2038                            .dwpsn  file "./../packages/ti/vlib/src/VLIB_mixtureOfGaussiansS32/VLIB_mixtureOfGaussiansS32_
    2039 00000654 0580a358             ZERO    .L1     A11               ; |132| 
    2040 00000658     2c6e             NOP             2
    2041                            .dwpsn  file "./../packages/ti/vlib/src/VLIB_mixtureOfGaussiansS32/VLIB_mixtureOfGaussiansS32_
    2042 0000065a     1ccd             LDW     .D2T2   *B5++,B4          ; |134| 
    2043 00000660           $C$DW$L$VLIB_mixtureOfGaussiansS32_d$25$E:
    2044                    ;** --------------------------------------------------------------------------*
    2045 00000660           $C$L6:    
    2046                            .dwpsn  file "./../packages/ti/vlib/src/VLIB_mixtureOfGaussiansS32/VLIB_mixtureOfGaussiansS32_
    2047 00000660           $C$DW$L$VLIB_mixtureOfGaussiansS32_d$26$B:
    2048                    ;          EXCLUSIVE CPU CYCLES: 11
    2049                    ;**     -----------------------g15:
    2050                    ;** 134 -----------------------    if ( (unsigned)*U$170++ == *U$159++ ) goto g17;
    2051                            .dwpsn  file "./../packages/ti/vlib/src/VLIB_mixtureOfGaussiansS32/VLIB_mixtureOfGaussiansS32_
    2052 00000660 02802bfe             STW     .D2T2   B5,*+SP(172)      ; |134| 
    2053 00000664     4c6e             NOP             3
    2054 00000666     7668             CMPEQ   .L1X    B4,A3,A0          ; |134| 
    2055                    
    2056 00000668 c1b00265     [ A0]   LDW     .D1T1   *A12,A3           ; |138| 
    2057 0000066c c22836c7  || [ A0]   LDH     .D2T2   *B10++,B4         ; |138| 
    2058 00000670 c0000c11  || [ A0]   B       .S1     $C$L7             ; |134| 
    2059 00000674 d280002a! || [!A0]   MVKL    .S2     $C$SL6+0,B5
    2060                    
    2061                            .dwpsn  file "./../packages/ti/vlib/src/VLIB_mixtureOfGaussiansS32/VLIB_mixtureOfGaussiansS32_
    2062 00000678 d1b0bda0     [!A0]   SHR     .S1X    B12,5,A3          ; |135| 
    2063 00000680 d280006a!    [!A0]   MVKH    .S2     $C$SL6+0,B5
    2064 00000684 d2337b0a     [!A0]   EXTU    .S2     B12,27,27,B4      ; |135| 
    2065                    $C$DW$218       .dwtag  DW_TAG_TI_branch
    2066                            .dwattr $C$DW$218, DW_AT_low_pc(0x00)
    2067                            .dwattr $C$DW$218, DW_AT_name("printf")
    2068                            .dwattr $C$DW$218, DW_AT_TI_call
    2069 00000688 d0000010!    [!A0]   CALL    .S1     printf            ; |135| 
    2070                            .dwpsn  file "./../packages/ti/vlib/src/VLIB_mixtureOfGaussiansS32/VLIB_mixtureOfGaussiansS32_
    2071 0000068c c0107a78     [ A0]   CMPEQ   .L1X    B4,A3,A0          ; |138| 
    2072                            .dwpsn  file "./../packages/ti/vlib/src/VLIB_mixtureOfGaussiansS32/VLIB_mixtureOfGaussiansS32_
    2073                               ; BRANCHCC OCCURS {$C$L7}         ; |134| 
    2074 00000690           $C$DW$L$VLIB_mixtureOfGaussiansS32_d$26$E:
    2075                    ;** --------------------------------------------------------------------------*
    2076 00000690           $C$DW$L$VLIB_mixtureOfGaussiansS32_d$27$B:
    2077                    ;          EXCLUSIVE CPU CYCLES: 4
    2078                    ;** 135 -----------------------    printf((const char *)"\tError in Variance: Image %d, Pixel %d, Mode
    2079                    ;** 136 -----------------------    status_nat_vs_ref = 0;
    2080                            .dwpsn  file "./../packages/ti/vlib/src/VLIB_mixtureOfGaussiansS32/VLIB_mixtureOfGaussiansS32_
    2081 00000690     bc55             STW     .D2T2   B5,*+SP(4)        ; |135| 
    2082 00000692     fc45             STW     .D2T2   B4,*+SP(12)       ; |135| 
    2083 00000694 01bc82f4             STW     .D2T1   A3,*+SP(16)       ; |135| 
    2084                    
    2085 00000698 06bc42f7             STW     .D2T2   B13,*+SP(8)       ; |135| 
    2086 000006a0 01810162  ||         ADDKPC  .S2     $C$RL32,B3,0      ; |135| 
    2087                    
    2088 000006a4           $C$RL32:   ; CALL OCCURS {printf} {0}        ; |135| 
    2089 000006a4           $C$DW$L$VLIB_mixtureOfGaussiansS32_d$27$E:
    2090                    ;** --------------------------------------------------------------------------*
TMS320C6x Assembler PC v7.4.2 Thu Mar 19 12:43:28 2015

Tools Copyright (c) 1996-2012 Texas Instruments Incorporated
package/lib/Regression/regress_d_c/./../packages/ti/vlib/src/VLIB_mixtureOfGaussiansS32/VLIB_mixtureOfGaussiansS32_d.se66 PAGE   39

    2091 000006a4           $C$DW$L$VLIB_mixtureOfGaussiansS32_d$28$B:
    2092                    ;          EXCLUSIVE CPU CYCLES: 6
    2093                    
    2094 000006a4 022836c7             LDH     .D2T2   *B10++,B4         ; |138| 
    2095 000006a8 01b00264  ||         LDW     .D1T1   *A12,A3           ; |138| 
    2096                    
    2097                            .dwpsn  file "./../packages/ti/vlib/src/VLIB_mixtureOfGaussiansS32/VLIB_mixtureOfGaussiansS32_
    2098 000006ac 0580a358             ZERO    .L1     A11               ; |136| 
    2099 000006b0     4c6e             NOP             3
    2100                            .dwpsn  file "./../packages/ti/vlib/src/VLIB_mixtureOfGaussiansS32/VLIB_mixtureOfGaussiansS32_
    2101 000006b2     7668             CMPEQ   .L1X    B4,A3,A0          ; |138| 
    2102 000006c0           $C$DW$L$VLIB_mixtureOfGaussiansS32_d$28$E:
    2103                    ;** --------------------------------------------------------------------------*
    2104 000006c0           $C$L7:    
    2105                            .dwpsn  file "./../packages/ti/vlib/src/VLIB_mixtureOfGaussiansS32/VLIB_mixtureOfGaussiansS32_
    2106 000006c0           $C$DW$L$VLIB_mixtureOfGaussiansS32_d$29$B:
    2107                    ;          EXCLUSIVE CPU CYCLES: 6
    2108                    ;**     -----------------------g17:
    2109                    ;** 138 -----------------------    if ( (unsigned)*U$178++ == *U$159 ) goto g19;
    2110                    
    2111 000006c0 c0000a11     [ A0]   B       .S1     $C$L8             ; |138| 
    2112 000006c4 c20021ef  || [ A0]   LDW     .D2T2   *+SP(132),B4
    2113 000006c8 d280002b! || [!A0]   MVKL    .S2     $C$SL7+0,B5
    2114 000006cc c7386059  || [ A0]   ADD     .L1     3,A14,A14         ; |130| 
    2115 000006d0 c630205a  || [ A0]   ADD     .L2     1,B12,B12         ; |129| 
    2116                    
    2117                            .dwpsn  file "./../packages/ti/vlib/src/VLIB_mixtureOfGaussiansS32/VLIB_mixtureOfGaussiansS32_
    2118 000006d4 d1b0bda0     [!A0]   SHR     .S1X    B12,5,A3          ; |139| 
    2119 000006d8 d280006a!    [!A0]   MVKH    .S2     $C$SL7+0,B5
    2120 000006dc d2337b0a     [!A0]   EXTU    .S2     B12,27,27,B4      ; |139| 
    2121                    $C$DW$219       .dwtag  DW_TAG_TI_branch
    2122                            .dwattr $C$DW$219, DW_AT_low_pc(0x00)
    2123                            .dwattr $C$DW$219, DW_AT_name("printf")
    2124                            .dwattr $C$DW$219, DW_AT_TI_call
    2125 000006e0 d0000010!    [!A0]   CALL    .S1     printf            ; |139| 
    2126                            .dwpsn  file "./../packages/ti/vlib/src/VLIB_mixtureOfGaussiansS32/VLIB_mixtureOfGaussiansS32_
    2127 000006e4 c013f058     [ A0]   SUB     .L1X    B4,1,A0           ; |129| 
    2128                            .dwpsn  file "./../packages/ti/vlib/src/VLIB_mixtureOfGaussiansS32/VLIB_mixtureOfGaussiansS32_
    2129                               ; BRANCHCC OCCURS {$C$L8}         ; |138| 
    2130 000006e8           $C$DW$L$VLIB_mixtureOfGaussiansS32_d$29$E:
    2131                    ;** --------------------------------------------------------------------------*
    2132 000006e8           $C$DW$L$VLIB_mixtureOfGaussiansS32_d$30$B:
    2133                    ;          EXCLUSIVE CPU CYCLES: 4
    2134                    ;** 139 -----------------------    printf((const char *)"\tError in Weight: Image %d, Pixel %d, Mode %
    2135                    ;** 140 -----------------------    status_nat_vs_ref = 0;
    2136                            .dwpsn  file "./../packages/ti/vlib/src/VLIB_mixtureOfGaussiansS32/VLIB_mixtureOfGaussiansS32_
    2137 000006e8     bc55             STW     .D2T2   B5,*+SP(4)        ; |139| 
    2138 000006ea     8cb5             STW     .D2T1   A3,*+SP(16)       ; |139| 
    2139 000006ec 023c62f6             STW     .D2T2   B4,*+SP(12)       ; |139| 
    2140                    
    2141 000006f0 06bc42f7             STW     .D2T2   B13,*+SP(8)       ; |139| 
    2142 000006f4 01860162  ||         ADDKPC  .S2     $C$RL33,B3,0      ; |139| 
    2143                    
    2144 000006f8           $C$RL33:   ; CALL OCCURS {printf} {0}        ; |139| 
    2145 000006f8           $C$DW$L$VLIB_mixtureOfGaussiansS32_d$30$E:
TMS320C6x Assembler PC v7.4.2 Thu Mar 19 12:43:28 2015

Tools Copyright (c) 1996-2012 Texas Instruments Incorporated
package/lib/Regression/regress_d_c/./../packages/ti/vlib/src/VLIB_mixtureOfGaussiansS32/VLIB_mixtureOfGaussiansS32_d.se66 PAGE   40

    2146                    ;** --------------------------------------------------------------------------*
    2147 000006f8           $C$DW$L$VLIB_mixtureOfGaussiansS32_d$31$B:
    2148                    ;          EXCLUSIVE CPU CYCLES: 6
    2149 000006f8 020021ee             LDW     .D2T2   *+SP(132),B4
    2150                            .dwpsn  file "./../packages/ti/vlib/src/VLIB_mixtureOfGaussiansS32/VLIB_mixtureOfGaussiansS32_
    2151 00000700 0580a358             ZERO    .L1     A11               ; |140| 
    2152                            .dwpsn  file "./../packages/ti/vlib/src/VLIB_mixtureOfGaussiansS32/VLIB_mixtureOfGaussiansS32_
    2153 00000704 0630205a             ADD     .L2     1,B12,B12         ; |129| 
    2154                            .dwpsn  file "./../packages/ti/vlib/src/VLIB_mixtureOfGaussiansS32/VLIB_mixtureOfGaussiansS32_
    2155 00000708 07386058             ADD     .L1     3,A14,A14         ; |130| 
    2156 0000070c     0c6e             NOP             1
    2157                            .dwpsn  file "./../packages/ti/vlib/src/VLIB_mixtureOfGaussiansS32/VLIB_mixtureOfGaussiansS32_
    2158 0000070e     fe00             SUB     .L1X    B4,1,A0           ; |129| 
    2159 00000710           $C$DW$L$VLIB_mixtureOfGaussiansS32_d$31$E:
    2160                    ;** --------------------------------------------------------------------------*
    2161 00000710           $C$L8:    
    2162                            .dwpsn  file "./../packages/ti/vlib/src/VLIB_mixtureOfGaussiansS32/VLIB_mixtureOfGaussiansS32_
    2163 00000710           $C$DW$L$VLIB_mixtureOfGaussiansS32_d$32$B:
    2164                    ;          EXCLUSIVE CPU CYCLES: 6
    2165                    ;**     -----------------------g19:
    2166                    ;** 129 -----------------------    ++k;
    2167                    ;** 130 -----------------------    counter += 3;
    2168                    ;** 129 -----------------------    if ( L$1 = L$1-1 ) goto g13;
    2169                    
    2170 00000710 cfffe191     [ A0]   B       .S1     $C$L5             ; |129| 
    2171 00000718 0213e05a  ||         SUB     .L2     B4,1,B4           ; |129| 
    2172 00000714 c6308059  || [ A0]   ADD     .L1     4,A12,A12         ; |130| 
    2173                    
    2174                            .dwpsn  file "./../packages/ti/vlib/src/VLIB_mixtureOfGaussiansS32/VLIB_mixtureOfGaussiansS32_
    2175 00000720 020021fe             STW     .D2T2   B4,*+SP(132)      ; |129| 
    2176                            .dwpsn  file "./../packages/ti/vlib/src/VLIB_mixtureOfGaussiansS32/VLIB_mixtureOfGaussiansS32_
    2177 00000724 c23c3664     [ A0]   LDW     .D1T1   *A15++,A4         ; |130| 
    2178 00000728 c1b03664     [ A0]   LDW     .D1T1   *A12++,A3         ; |130| 
    2179 0000072c 00002000             NOP             2
    2180                            .dwpsn  file "./../packages/ti/vlib/src/VLIB_mixtureOfGaussiansS32/VLIB_mixtureOfGaussiansS32_
    2181                               ; BRANCHCC OCCURS {$C$L5}         ; |129| 
    2182 00000730           $C$DW$L$VLIB_mixtureOfGaussiansS32_d$32$E:
    2183                    ;** --------------------------------------------------------------------------*
    2184 00000730           $C$L9:    
    2185 00000730           $C$DW$L$VLIB_mixtureOfGaussiansS32_d$33$B:
    2186                    ;          EXCLUSIVE CPU CYCLES: 18
    2187                    ;**     -----------------------g20:
    2188                    ;** 144 -----------------------    if ( (U$186 = (*(U$12+v$1)).im_size) <= 0 ) goto g25;
    2189 00000730 018020ec             LDW     .D2T1   *+SP(128),A3
    2190 00000734 00006000             NOP             4
    2191                            .dwpsn  file "./../packages/ti/vlib/src/VLIB_mixtureOfGaussiansS32/VLIB_mixtureOfGaussiansS32_
    2192 00000738 018d4078             ADD     .L1     A10,A3,A3         ; |144| 
    2193 0000073c 050c6266             LDW     .D1T2   *+A3(12),B10      ; |144| 
    2194 00000740 01b4aca0             SHL     .S1     A13,5,A3
    2195 00000744 018dbe40             ADDAD   .D1     A3,A13,A3
    2196 00000748 018d4078             ADD     .L1     A10,A3,A3
    2197 0000074c 00000000             NOP             1
    2198 00000750 00280ada             CMPGT   .L2     B10,0,B0          ; |144| 
    2199                    
    2200 00000754 30288121     [!B0]   BNOP    .S1     $C$L12,4          ; |144| 
TMS320C6x Assembler PC v7.4.2 Thu Mar 19 12:43:28 2015

Tools Copyright (c) 1996-2012 Texas Instruments Incorporated
package/lib/Regression/regress_d_c/./../packages/ti/vlib/src/VLIB_mixtureOfGaussiansS32/VLIB_mixtureOfGaussiansS32_d.se66 PAGE   41

    2201 00000758 218c4265  || [ B0]   LDW     .D1T1   *+A3(8),A3
    2202 0000075c 260027ee  || [ B0]   LDW     .D2T2   *+SP(156),B12     ; |145| 
    2203                    
    2204 00000760 018ddc40             ADDAW   .D1     A3,A14,A3
    2205                               ; BRANCHCC OCCURS {$C$L12}        ; |144| 
    2206 00000764           $C$DW$L$VLIB_mixtureOfGaussiansS32_d$33$E:
    2207                    ;** --------------------------------------------------------------------------*
    2208 00000764           $C$DW$L$VLIB_mixtureOfGaussiansS32_d$34$B:
    2209                    ;          EXCLUSIVE CPU CYCLES: 5
    2210                    ;**     -----------------------    U$159 = counter*4+(v$1[tpi]).staticOut-4;
    2211                    ;**     -----------------------    U$194 = compNum;
    2212                    ;** 145 -----------------------    L$2 = U$186;
    2213                    ;** 145 -----------------------    counter += L$2;
    2214                    ;** 144 -----------------------    k = 0;
    2215                    ;**     -----------------------    #pragma MUST_ITERATE(1, 18446744073709551615, 1)
    2216                    ;**     -----------------------    #pragma LOOP_FLAGS(5120u)
    2217                    
    2218 00000764 050021ff             STW     .D2T2   B10,*+SP(132)     ; |145| 
    2219 00000768 078f8058  ||         SUB     .L1     A3,4,A15
    2220                    
    2221 0000076c 01bc3265             LDW     .D1T1   *++A15,A3         ; |145| 
    2222 00000770 02303696  ||         LDBU    .D2T2   *B12++,B4         ; |145| 
    2223                    
    2224                            .dwpsn  file "./../packages/ti/vlib/src/VLIB_mixtureOfGaussiansS32/VLIB_mixtureOfGaussiansS32_
    2225 00000774 0600a358             ZERO    .L1     A12               ; |144| 
    2226                            .dwpsn  file "./../packages/ti/vlib/src/VLIB_mixtureOfGaussiansS32/VLIB_mixtureOfGaussiansS32_
    2227 00000778 0729d078             ADD     .L1X    B10,A14,A14       ; |145| 
    2228 0000077c 00000000             NOP             1
    2229 00000780           $C$DW$L$VLIB_mixtureOfGaussiansS32_d$34$E:
    2230                    ;*----------------------------------------------------------------------------*
    2231                    ;*   SOFTWARE PIPELINE INFORMATION
    2232                    ;*      Disqualified loop: Loop contains control code
    2233                    ;*----------------------------------------------------------------------------*
    2234 00000780           $C$L10:    
    2235                            .dwpsn  file "./../packages/ti/vlib/src/VLIB_mixtureOfGaussiansS32/VLIB_mixtureOfGaussiansS32_
    2236 00000780           $C$DW$L$VLIB_mixtureOfGaussiansS32_d$35$B:
    2237                    ;          EXCLUSIVE CPU CYCLES: 8
    2238                    ;**     -----------------------g22:
    2239                    ;** 145 -----------------------    if ( (unsigned)*U$194++ == *(++U$159) ) goto g24;
    2240 00000780     0c6e             NOP             1
    2241                            .dwpsn  file "./../packages/ti/vlib/src/VLIB_mixtureOfGaussiansS32/VLIB_mixtureOfGaussiansS32_
    2242 00000782     7668             CMPEQ   .L1X    B4,A3,A0          ; |145| 
    2243                    
    2244 00000784 c0242121     [ A0]   BNOP    .S1     $C$L11,1          ; |145| 
    2245 00000788 c20021ef  || [ A0]   LDW     .D2T2   *+SP(132),B4
    2246 0000078c d200002b! || [!A0]   MVKL    .S2     $C$SL8+0,B4
    2247 00000790 c6302058  || [ A0]   ADD     .L1     1,A12,A12         ; |144| 
    2248                    
    2249                            .dwpsn  file "./../packages/ti/vlib/src/VLIB_mixtureOfGaussiansS32/VLIB_mixtureOfGaussiansS32_
    2250 00000794 d1b37b08     [!A0]   EXTU    .S1     A12,27,27,A3      ; |146| 
    2251                    $C$DW$220       .dwtag  DW_TAG_TI_branch
    2252                            .dwattr $C$DW$220, DW_AT_low_pc(0x00)
    2253                            .dwattr $C$DW$220, DW_AT_name("printf")
    2254                            .dwattr $C$DW$220, DW_AT_TI_call
    2255 00000798 d0000010!    [!A0]   CALL    .S1     printf            ; |146| 
TMS320C6x Assembler PC v7.4.2 Thu Mar 19 12:43:28 2015

Tools Copyright (c) 1996-2012 Texas Instruments Incorporated
package/lib/Regression/regress_d_c/./../packages/ti/vlib/src/VLIB_mixtureOfGaussiansS32/VLIB_mixtureOfGaussiansS32_d.se66 PAGE   42

    2256 000007a0 d200006a!    [!A0]   MVKH    .S2     $C$SL8+0,B4
    2257                            .dwpsn  file "./../packages/ti/vlib/src/VLIB_mixtureOfGaussiansS32/VLIB_mixtureOfGaussiansS32_
    2258 000007a4 c013f058     [ A0]   SUB     .L1X    B4,1,A0           ; |144| 
    2259                            .dwpsn  file "./../packages/ti/vlib/src/VLIB_mixtureOfGaussiansS32/VLIB_mixtureOfGaussiansS32_
    2260                               ; BRANCHCC OCCURS {$C$L11}        ; |145| 
    2261 000007a8           $C$DW$L$VLIB_mixtureOfGaussiansS32_d$35$E:
    2262                    ;** --------------------------------------------------------------------------*
    2263 000007a8           $C$DW$L$VLIB_mixtureOfGaussiansS32_d$36$B:
    2264                    ;          EXCLUSIVE CPU CYCLES: 3
    2265                    ;** 146 -----------------------    printf((const char *)"\tError in Component index: Image %d, Pixel %
    2266                    ;** 147 -----------------------    status_nat_vs_ref = 0;
    2267                            .dwpsn  file "./../packages/ti/vlib/src/VLIB_mixtureOfGaussiansS32/VLIB_mixtureOfGaussiansS32_
    2268 000007a8     bc45             STW     .D2T2   B4,*+SP(4)        ; |146| 
    2269 000007aa     ec35             STW     .D2T1   A3,*+SP(12)       ; |146| 
    2270                    
    2271 000007ac 06bc42f7             STW     .D2T2   B13,*+SP(8)       ; |146| 
    2272 000007b0 01850162  ||         ADDKPC  .S2     $C$RL34,B3,0      ; |146| 
    2273                    
    2274 000007b4           $C$RL34:   ; CALL OCCURS {printf} {0}        ; |146| 
    2275 000007b4           $C$DW$L$VLIB_mixtureOfGaussiansS32_d$36$E:
    2276                    ;** --------------------------------------------------------------------------*
    2277 000007b4           $C$DW$L$VLIB_mixtureOfGaussiansS32_d$37$B:
    2278                    ;          EXCLUSIVE CPU CYCLES: 6
    2279 000007b4 020021ee             LDW     .D2T2   *+SP(132),B4
    2280                            .dwpsn  file "./../packages/ti/vlib/src/VLIB_mixtureOfGaussiansS32/VLIB_mixtureOfGaussiansS32_
    2281 000007b8 0580a358             ZERO    .L1     A11               ; |147| 
    2282                            .dwpsn  file "./../packages/ti/vlib/src/VLIB_mixtureOfGaussiansS32/VLIB_mixtureOfGaussiansS32_
    2283 000007c0 06302058             ADD     .L1     1,A12,A12         ; |144| 
    2284 000007c4     2c6e             NOP             2
    2285 000007c6     fe00             SUB     .L1X    B4,1,A0           ; |144| 
    2286 000007c8           $C$DW$L$VLIB_mixtureOfGaussiansS32_d$37$E:
    2287                    ;** --------------------------------------------------------------------------*
    2288 000007c8           $C$L11:    
    2289                            .dwpsn  file "./../packages/ti/vlib/src/VLIB_mixtureOfGaussiansS32/VLIB_mixtureOfGaussiansS32_
    2290 000007c8           $C$DW$L$VLIB_mixtureOfGaussiansS32_d$38$B:
    2291                    ;          EXCLUSIVE CPU CYCLES: 6
    2292                    ;**     -----------------------g24:
    2293                    ;** 144 -----------------------    ++k;
    2294                    ;** 144 -----------------------    if ( L$2 = L$2-1 ) goto g22;
    2295                    
    2296 000007c8     ee41             SUB     .L2     B4,1,B4           ; |144| 
    2297 000007ca     182a  || [ A0]   B       .S1     $C$L10            ; |144| 
    2298                    
    2299                            .dwpsn  file "./../packages/ti/vlib/src/VLIB_mixtureOfGaussiansS32/VLIB_mixtureOfGaussiansS32_
    2300 000007cc 020021fe             STW     .D2T2   B4,*+SP(132)      ; |144| 
    2301                    
    2302 000007d0 c2303697     [ A0]   LDBU    .D2T2   *B12++,B4         ; |145| 
    2303 000007d4 c1bc3264  || [ A0]   LDW     .D1T1   *++A15,A3         ; |145| 
    2304                    
    2305 000007d8 00004000             NOP             3
    2306                               ; BRANCHCC OCCURS {$C$L10}        ; |144| 
    2307 000007e0           $C$DW$L$VLIB_mixtureOfGaussiansS32_d$38$E:
    2308                    ;** --------------------------------------------------------------------------*
    2309 000007e0           $C$L12:    
    2310 000007e0           $C$DW$L$VLIB_mixtureOfGaussiansS32_d$39$B:
TMS320C6x Assembler PC v7.4.2 Thu Mar 19 12:43:28 2015

Tools Copyright (c) 1996-2012 Texas Instruments Incorporated
package/lib/Regression/regress_d_c/./../packages/ti/vlib/src/VLIB_mixtureOfGaussiansS32/VLIB_mixtureOfGaussiansS32_d.se66 PAGE   43

    2311                    ;          EXCLUSIVE CPU CYCLES: 7
    2312                    ;**     -----------------------g25:
    2313                    ;** 151 -----------------------    if ( U$186 <= 0 ) goto g30;
    2314                    
    2315 000007e0 00280adb             CMPGT   .L2     B10,0,B0          ; |151| 
    2316 000007e4 01b4aca0  ||         SHL     .S1     A13,5,A3
    2317                    
    2318 000007e8 30001291     [!B0]   B       .S1     $C$L15            ; |151| 
    2319 000007ec 018dbe41  ||         ADDAD   .D1     A3,A13,A3
    2320 000007f0 2f8029ec  || [ B0]   LDW     .D2T1   *+SP(164),A31     ; |152| 
    2321                    
    2322 000007f4 018d4078             ADD     .L1     A10,A3,A3
    2323 000007f8 220c4264     [ B0]   LDW     .D1T1   *+A3(8),A4
    2324 000007fc 00004000             NOP             3
    2325                            .dwpsn  file "./../packages/ti/vlib/src/VLIB_mixtureOfGaussiansS32/VLIB_mixtureOfGaussiansS32_
    2326                               ; BRANCHCC OCCURS {$C$L15}        ; |151| 
    2327 00000800           $C$DW$L$VLIB_mixtureOfGaussiansS32_d$39$E:
    2328                    ;** --------------------------------------------------------------------------*
    2329 00000800           $C$DW$L$VLIB_mixtureOfGaussiansS32_d$40$B:
    2330                    ;          EXCLUSIVE CPU CYCLES: 6
    2331                    ;**     -----------------------    U$138 = *Im_mask;
    2332                    ;**     -----------------------    U$205 = *(counter*4+(v$1[tpi]).staticOut);
    2333                    ;** 152 -----------------------    L$3 = U$186;
    2334                    ;** 151 -----------------------    k = 0;
    2335                    ;**     -----------------------    #pragma MUST_ITERATE(1, 18446744073709551615, 1)
    2336                    ;**     -----------------------    #pragma LOOP_FLAGS(5120u)
    2337 00000800 067c0266             LDW     .D1T2   *A31,B12
    2338 00000804 0791ca64             LDW     .D1T1   *+A4[A14],A15
    2339                            .dwpsn  file "./../packages/ti/vlib/src/VLIB_mixtureOfGaussiansS32/VLIB_mixtureOfGaussiansS32_
    2340 00000808 0600a358             ZERO    .L1     A12               ; |151| 
    2341 0000080c     4c6e             NOP             3
    2342 0000080e           $C$DW$L$VLIB_mixtureOfGaussiansS32_d$40$E:
    2343                    ;*----------------------------------------------------------------------------*
    2344                    ;*   SOFTWARE PIPELINE INFORMATION
    2345                    ;*      Disqualified loop: Loop contains control code
    2346                    ;*----------------------------------------------------------------------------*
    2347 0000080e           $C$L13:    
    2348 0000080e           $C$DW$L$VLIB_mixtureOfGaussiansS32_d$41$B:
    2349                    ;          EXCLUSIVE CPU CYCLES: 10
    2350                    ;**     -----------------------g27:
    2351                    ;** 152 -----------------------    if ( (U$138>>k&1u) == (U$205>>k&1u) ) goto g29;
    2352                    
    2353 0000080e     7606             MV      .L1X    B12,A3            ; |152| 
    2354 00000810 023d89e0  ||         SHRU    .S1     A15,A12,A4        ; |152| 
    2355                    
    2356                            .dwpsn  file "./../packages/ti/vlib/src/VLIB_mixtureOfGaussiansS32/VLIB_mixtureOfGaussiansS32_
    2357 00000814 018d89e0             SHRU    .S1     A3,A12,A3         ; |152| 
    2358                    
    2359 00000818 020c2f59             AND     .L1     1,A3,A4           ; |152| 
    2360 00000820 019027a0  ||         AND     .S1     1,A4,A3           ; |152| 
    2361                    
    2362 00000824     85e8             CMPEQ   .L1     A4,A3,A0          ; |152| 
    2363                    
    2364 00000828 c0292121     [ A0]   BNOP    .S1     $C$L14,1          ; |152| 
    2365 00000826     2046  ||         MV      .L1     A0,A1             ; guard predicate rewrite
TMS320C6x Assembler PC v7.4.2 Thu Mar 19 12:43:28 2015

Tools Copyright (c) 1996-2012 Texas Instruments Incorporated
package/lib/Regression/regress_d_c/./../packages/ti/vlib/src/VLIB_mixtureOfGaussiansS32/VLIB_mixtureOfGaussiansS32_d.se66 PAGE   44

    2366 0000082c d200002b! || [!A0]   MVKL    .S2     $C$SL9+0,B4
    2367 00000830 c6302940  || [ A0]   ADD     .D1     1,A12,A12         ; |151| 
    2368                    
    2369 00000834 d200006a!    [!A0]   MVKH    .S2     $C$SL9+0,B4
    2370                    $C$DW$221       .dwtag  DW_TAG_TI_branch
    2371                            .dwattr $C$DW$221, DW_AT_low_pc(0x00)
    2372                            .dwattr $C$DW$221, DW_AT_name("printf")
    2373                            .dwattr $C$DW$221, DW_AT_TI_call
    2374                    
    2375 00000838 d0000011!    [!A0]   CALL    .S1     printf            ; |153| 
    2376 00000840 c02bf059  || [ A0]   SUB     .L1X    B10,1,A0          ; |151| 
    2377 00000844 852be05a  || [ A1]   SUB     .L2     B10,1,B10         ; |151| 
    2378                    
    2379                            .dwpsn  file "./../packages/ti/vlib/src/VLIB_mixtureOfGaussiansS32/VLIB_mixtureOfGaussiansS32_
    2380 00000848 9000a358     [!A1]   ZERO    .L1     A0                ; |151| nullify predicate
    2381 0000084c     19ea     [ A0]   B       .S1     $C$L13            ; |151| 
    2382                            .dwpsn  file "./../packages/ti/vlib/src/VLIB_mixtureOfGaussiansS32/VLIB_mixtureOfGaussiansS32_
    2383                               ; BRANCHCC OCCURS {$C$L14}        ; |152| 
    2384 0000084e           $C$DW$L$VLIB_mixtureOfGaussiansS32_d$41$E:
    2385                    ;** --------------------------------------------------------------------------*
    2386 0000084e           $C$DW$L$VLIB_mixtureOfGaussiansS32_d$42$B:
    2387                    ;          EXCLUSIVE CPU CYCLES: 3
    2388                    ;** 153 -----------------------    printf((const char *)"\tError in Foreground Mask: Image %d, Pixel %
    2389                    ;** 154 -----------------------    status_nat_vs_ref = 0;
    2390                            .dwpsn  file "./../packages/ti/vlib/src/VLIB_mixtureOfGaussiansS32/VLIB_mixtureOfGaussiansS32_
    2391 0000084e     bc45             STW     .D2T2   B4,*+SP(4)        ; |153| 
    2392 00000850 063c62f4             STW     .D2T1   A12,*+SP(12)      ; |153| 
    2393                    
    2394 00000854 06bc42f7             STW     .D2T2   B13,*+SP(8)       ; |153| 
    2395 00000858 01880162  ||         ADDKPC  .S2     $C$RL35,B3,0      ; |153| 
    2396                    
    2397 00000860           $C$RL35:   ; CALL OCCURS {printf} {0}        ; |153| 
    2398 00000860           $C$DW$L$VLIB_mixtureOfGaussiansS32_d$42$E:
    2399                    ;** --------------------------------------------------------------------------*
    2400 00000860           $C$DW$L$VLIB_mixtureOfGaussiansS32_d$43$B:
    2401                    ;          EXCLUSIVE CPU CYCLES: 2
    2402                            .dwpsn  file "./../packages/ti/vlib/src/VLIB_mixtureOfGaussiansS32/VLIB_mixtureOfGaussiansS32_
    2403 00000860 002bf058             SUB     .L1X    B10,1,A0          ; |151| 
    2404                    
    2405 00000870     15ea     [ A0]   B       .S1     $C$L13            ; |151| 
    2406 00000868 052be05b  ||         SUB     .L2     B10,1,B10         ; |151| 
    2407 0000086c 06302059  ||         ADD     .L1     1,A12,A12         ; |151| 
    2408 00000864 05800041  ||         ZERO    .D1     A11               ; |154| 
    2409                    
    2410 00000872           $C$DW$L$VLIB_mixtureOfGaussiansS32_d$43$E:
    2411                    ;** --------------------------------------------------------------------------*
    2412 00000872           $C$L14:    
    2413                            .dwpsn  file "./../packages/ti/vlib/src/VLIB_mixtureOfGaussiansS32/VLIB_mixtureOfGaussiansS32_
    2414 00000872           $C$DW$L$VLIB_mixtureOfGaussiansS32_d$44$B:
    2415                    ;          EXCLUSIVE CPU CYCLES: 5
    2416                    ;**     -----------------------g29:
    2417                    ;** 151 -----------------------    ++k;
    2418                    ;** 151 -----------------------    if ( L$3 = L$3-1 ) goto g27;
    2419 00000872     8c6e             NOP             5
    2420                            .dwpsn  file "./../packages/ti/vlib/src/VLIB_mixtureOfGaussiansS32/VLIB_mixtureOfGaussiansS32_
TMS320C6x Assembler PC v7.4.2 Thu Mar 19 12:43:28 2015

Tools Copyright (c) 1996-2012 Texas Instruments Incorporated
package/lib/Regression/regress_d_c/./../packages/ti/vlib/src/VLIB_mixtureOfGaussiansS32/VLIB_mixtureOfGaussiansS32_d.se66 PAGE   45

    2421                               ; BRANCHCC OCCURS {$C$L13}        ; |151| 
    2422 00000874           $C$DW$L$VLIB_mixtureOfGaussiansS32_d$44$E:
    2423                    ;** --------------------------------------------------------------------------*
    2424 00000874           $C$L15:    
    2425 00000874           $C$DW$L$VLIB_mixtureOfGaussiansS32_d$45$B:
    2426                    ;          EXCLUSIVE CPU CYCLES: 1
    2427                    ;**     -----------------------g30:
    2428                    ;** 158 -----------------------    ++counter;
    2429                            .dwpsn  file "./../packages/ti/vlib/src/VLIB_mixtureOfGaussiansS32/VLIB_mixtureOfGaussiansS32_
    2430 00000874 07382058             ADD     .L1     1,A14,A14         ; |158| 
    2431 00000878           $C$DW$L$VLIB_mixtureOfGaussiansS32_d$45$E:
    2432                    ;** --------------------------------------------------------------------------*
    2433 00000878           $C$DW$L$VLIB_mixtureOfGaussiansS32_d$46$B:
    2434                    ;          EXCLUSIVE CPU CYCLES: 4
    2435 00000878 018020ec             LDW     .D2T1   *+SP(128),A3
    2436 00000880 00004000             NOP             3
    2437 00000884           $C$DW$L$VLIB_mixtureOfGaussiansS32_d$46$E:
    2438                    ;** --------------------------------------------------------------------------*
    2439 00000884           $C$L16:    
    2440                            .dwpsn  file "./../packages/ti/vlib/src/VLIB_mixtureOfGaussiansS32/VLIB_mixtureOfGaussiansS32_
    2441 00000884           $C$DW$L$VLIB_mixtureOfGaussiansS32_d$47$B:
    2442                    ;          EXCLUSIVE CPU CYCLES: 14
    2443                    ;**     -----------------------g31:
    2444                    ;** 100 -----------------------    if ( (*(U$12+v$1)).num_images > (++i) ) goto g8;
    2445                            .dwpsn  file "./../packages/ti/vlib/src/VLIB_mixtureOfGaussiansS32/VLIB_mixtureOfGaussiansS32_
    2446 00000884 06b4205a             ADD     .L2     1,B13,B13         ; |100| 
    2447 00000888 018d4078             ADD     .L1     A10,A3,A3         ; |100| 
    2448 0000088c 018c8264             LDW     .D1T1   *+A3(16),A3       ; |100| 
    2449 00000890 00006000             NOP             4
    2450 00000894 000dbafa             CMPGT   .L2X    A3,B13,B0         ; |100| 
    2451 00000898 2e8da120     [ B0]   BNOP    .S1     $C$L3,5           ; |100| 
    2452                               ; BRANCHCC OCCURS {$C$L3}         ; |100| 
    2453 0000089c           $C$DW$L$VLIB_mixtureOfGaussiansS32_d$47$E:
    2454                    ;** --------------------------------------------------------------------------*
    2455 0000089c           $C$L17:    
    2456 0000089c           $C$DW$L$VLIB_mixtureOfGaussiansS32_d$48$B:
    2457                    ;          EXCLUSIVE CPU CYCLES: 18
    2458                    ;**     -----------------------g32:
    2459                    ;** 167 -----------------------    memset((void *)wt, 0, (*(U$12+v$1)).im_size*6u);
    2460                    ;** 168 -----------------------    memset((void *)mu, 0, (*U$13).im_size*12u);
    2461                    ;** 169 -----------------------    memset((void *)var, 0, (*U$13).im_size*12u);
    2462                    ;** 172 -----------------------    if ( !LevelOfFeedback ) goto g34;
    2463 0000089c 018020ec             LDW     .D2T1   *+SP(128),A3
    2464                            .dwpsn  file "./../packages/ti/vlib/src/VLIB_mixtureOfGaussiansS32/VLIB_mixtureOfGaussiansS32_
    2465 000008a0     0627             ZERO    .L2     B4                ; |167| 
    2466 000008a2     4c6e             NOP             3
    2467 000008a4 018d4078             ADD     .L1     A10,A3,A3         ; |167| 
    2468 000008a8 018c6264             LDW     .D1T1   *+A3(12),A3       ; |167| 
    2469 000008ac     6c6e             NOP             4
    2470 000008ae     45ca             SHL     .S1     A3,2,A4           ; |167| 
    2471                    $C$DW$222       .dwtag  DW_TAG_TI_branch
    2472                            .dwattr $C$DW$222, DW_AT_low_pc(0x00)
    2473                            .dwattr $C$DW$222, DW_AT_name("memset")
    2474                            .dwattr $C$DW$222, DW_AT_TI_call
    2475                    
TMS320C6x Assembler PC v7.4.2 Thu Mar 19 12:43:28 2015

Tools Copyright (c) 1996-2012 Texas Instruments Incorporated
package/lib/Regression/regress_d_c/./../packages/ti/vlib/src/VLIB_mixtureOfGaussiansS32/VLIB_mixtureOfGaussiansS32_d.se66 PAGE   46

    2476 000008b0 10000013!            CALLP   .S2     memset,B3
    2477 000008b4 03107a41  ||         ADDAH   .D1     A4,A3,A6          ; |167| 
    2478 000008b8 020024ec  ||         LDW     .D2T1   *+SP(144),A4      ; |167| 
    2479                    
    2480 000008c0           $C$RL36:   ; CALL OCCURS {memset} {0}        ; |167| 
    2481 000008c0           $C$DW$L$VLIB_mixtureOfGaussiansS32_d$48$E:
    2482                    ;** --------------------------------------------------------------------------*
    2483 000008c0           $C$DW$L$VLIB_mixtureOfGaussiansS32_d$49$B:
    2484                    ;          EXCLUSIVE CPU CYCLES: 27
    2485                            .dwpsn  file "./../packages/ti/vlib/src/VLIB_mixtureOfGaussiansS32/VLIB_mixtureOfGaussiansS32_
    2486 000008c0 022c62e6             LDW     .D2T2   *+B11(12),B4      ; |168| 
    2487 000008c4     6c6e             NOP             4
    2488 000008c6     763a             SHL     .S1X    B4,3,A3           ; |168| 
    2489 000008c8     9246             MV      .L1X    B4,A4             ; |168| Define a twin register
    2490                    $C$DW$223       .dwtag  DW_TAG_TI_branch
    2491                            .dwattr $C$DW$223, DW_AT_low_pc(0x00)
    2492                            .dwattr $C$DW$223, DW_AT_name("memset")
    2493                            .dwattr $C$DW$223, DW_AT_TI_call
    2494                    
    2495 000008d4 10000012!            CALLP   .S2     memset,B3
    2496 000008cc 030c9c41  ||         ADDAW   .D1     A3,A4,A6          ; |168| 
    2497 000008d0 020025ed  ||         LDW     .D2T1   *+SP(148),A4      ; |168| 
    2498 000008ca     0627  ||         ZERO    .L2     B4                ; |168| 
    2499                    
    2500 000008d8           $C$RL37:   ; CALL OCCURS {memset} {0}        ; |168| 
    2501                            .dwpsn  file "./../packages/ti/vlib/src/VLIB_mixtureOfGaussiansS32/VLIB_mixtureOfGaussiansS32_
    2502 000008d8 022c62e6             LDW     .D2T2   *+B11(12),B4      ; |169| 
    2503 000008e0 020026ec             LDW     .D2T1   *+SP(152),A4      ; |169| 
    2504 000008e4     4c6e             NOP             3
    2505 000008e6     665b             SHL     .S2     B4,3,B5           ; |169| 
    2506 000008e8 02149c42             ADDAW   .D2     B5,B4,B4          ; |169| 
    2507 000008ec     0c6e             NOP             1
    2508                    $C$DW$224       .dwtag  DW_TAG_TI_branch
    2509                            .dwattr $C$DW$224, DW_AT_low_pc(0x08)
    2510                            .dwattr $C$DW$224, DW_AT_name("memset")
    2511                            .dwattr $C$DW$224, DW_AT_TI_call
    2512                    
    2513 000008ee     d246             MV      .L1X    B4,A6             ; |169| 
    2514 000008f4 0200a35a  ||         ZERO    .L2     B4                ; |169| 
    2515 000008f0 10000013! ||         CALLP   .S2     memset,B3
    2516                    
    2517 000008f8           $C$RL38:   ; CALL OCCURS {memset} {0}        ; |169| 
    2518 000008f8           $C$DW$L$VLIB_mixtureOfGaussiansS32_d$49$E:
    2519                    ;** --------------------------------------------------------------------------*
    2520 000008f8           $C$DW$L$VLIB_mixtureOfGaussiansS32_d$50$B:
    2521                    ;          EXCLUSIVE CPU CYCLES: 11
    2522 000008f8 000022ec             LDW     .D2T1   *+SP(136),A0      ; |169| 
    2523 00000900     6c6e             NOP             4
    2524                    
    2525 00000902     08ba     [!A0]   B       .S1     $C$L18            ; |172| 
    2526 00000904 d22c82e6  || [!A0]   LDW     .D2T2   *+B11(16),B4      ; |179| 
    2527                    
    2528                            .dwpsn  file "./../packages/ti/vlib/src/VLIB_mixtureOfGaussiansS32/VLIB_mixtureOfGaussiansS32_
    2529                    $C$DW$225       .dwtag  DW_TAG_TI_branch
    2530                            .dwattr $C$DW$225, DW_AT_low_pc(0x00)
TMS320C6x Assembler PC v7.4.2 Thu Mar 19 12:43:28 2015

Tools Copyright (c) 1996-2012 Texas Instruments Incorporated
package/lib/Regression/regress_d_c/./../packages/ti/vlib/src/VLIB_mixtureOfGaussiansS32/VLIB_mixtureOfGaussiansS32_d.se66 PAGE   47

    2531                            .dwattr $C$DW$225, DW_AT_name("printf")
    2532                            .dwattr $C$DW$225, DW_AT_TI_call
    2533 00000908 c0000010!    [ A0]   CALL    .S1     printf            ; |174| 
    2534 0000090c c1800028!    [ A0]   MVKL    .S1     $C$SL2+0,A3
    2535 00000910 c1800068!    [ A0]   MVKH    .S1     $C$SL2+0,A3
    2536 00000914 00000000             NOP             1
    2537                            .dwpsn  file "./../packages/ti/vlib/src/VLIB_mixtureOfGaussiansS32/VLIB_mixtureOfGaussiansS32_
    2538 00000918 d0100ada     [!A0]   CMPGT   .L2     B4,0,B0           ; |179| 
    2539                            .dwpsn  file "./../packages/ti/vlib/src/VLIB_mixtureOfGaussiansS32/VLIB_mixtureOfGaussiansS32_
    2540                               ; BRANCHCC OCCURS {$C$L18}        ; |172| 
    2541 00000920           $C$DW$L$VLIB_mixtureOfGaussiansS32_d$50$E:
    2542                    ;** --------------------------------------------------------------------------*
    2543 00000920           $C$DW$L$VLIB_mixtureOfGaussiansS32_d$51$B:
    2544                    ;          EXCLUSIVE CPU CYCLES: 1
    2545                    ;** 174 -----------------------    printf((const char *)"Luma  FG    Mean-1   Varn-1   Wght-1        M
    2546                    ;** 175 -----------------------    printf((const char *)"---------------------------------------------
    2547                    
    2548 00000920 01bc22f5             STW     .D2T1   A3,*+SP(4)        ; |174| 
    2549 00000924 01820162  ||         ADDKPC  .S2     $C$RL39,B3,0      ; |174| 
    2550                    
    2551                            .dwpsn  file "./../packages/ti/vlib/src/VLIB_mixtureOfGaussiansS32/VLIB_mixtureOfGaussiansS32_
    2552 00000928           $C$RL39:   ; CALL OCCURS {printf} {0}        ; |174| 
    2553 00000928           $C$DW$L$VLIB_mixtureOfGaussiansS32_d$51$E:
    2554                    ;** --------------------------------------------------------------------------*
    2555 00000928           $C$DW$L$VLIB_mixtureOfGaussiansS32_d$52$B:
    2556                    ;          EXCLUSIVE CPU CYCLES: 14
    2557 00000928 0200002a!            MVKL    .S2     $C$SL3+0,B4
    2558 0000092c 0200006a!            MVKH    .S2     $C$SL3+0,B4
    2559                    $C$DW$226       .dwtag  DW_TAG_TI_branch
    2560                            .dwattr $C$DW$226, DW_AT_low_pc(0x00)
    2561                            .dwattr $C$DW$226, DW_AT_name("printf")
    2562                            .dwattr $C$DW$226, DW_AT_TI_call
    2563                    
    2564 00000930 10000013!            CALLP   .S2     printf,B3
    2565 00000934 023c22f6  ||         STW     .D2T2   B4,*+SP(4)        ; |175| 
    2566                    
    2567                            .dwpsn  file "./../packages/ti/vlib/src/VLIB_mixtureOfGaussiansS32/VLIB_mixtureOfGaussiansS32_
    2568 00000938           $C$RL40:   ; CALL OCCURS {printf} {0}        ; |175| 
    2569                            .dwpsn  file "./../packages/ti/vlib/src/VLIB_mixtureOfGaussiansS32/VLIB_mixtureOfGaussiansS32_
    2570 00000938 022c82e6             LDW     .D2T2   *+B11(16),B4      ; |179| 
    2571 0000093c 00000000             NOP             4
    2572 00000940 00100ada             CMPGT   .L2     B4,0,B0           ; |179| 
    2573 00000944           $C$DW$L$VLIB_mixtureOfGaussiansS32_d$52$E:
    2574                    ;** --------------------------------------------------------------------------*
    2575 00000944           $C$L18:    
    2576                            .dwpsn  file "./../packages/ti/vlib/src/VLIB_mixtureOfGaussiansS32/VLIB_mixtureOfGaussiansS32_
    2577 00000944           $C$DW$L$VLIB_mixtureOfGaussiansS32_d$53$B:
    2578                    ;          EXCLUSIVE CPU CYCLES: 6
    2579                    ;**     -----------------------g34:
    2580                    ;** 179 -----------------------    v$1 = prm;
    2581                    ;** 179 -----------------------    if ( (*U$13).num_images <= 0 ) goto g60;
    2582                    
    2583 00000944 317fa121     [!B0]   BNOP    .S1     $C$L33,5          ; |179| 
    2584 00000948 053fa2e5  ||         LDW     .D2T1   *+SP(116),A10     ; |179| 
    2585 0000094c 2680a35b  || [ B0]   ZERO    .L2     B13               ; |179| 
TMS320C6x Assembler PC v7.4.2 Thu Mar 19 12:43:28 2015

Tools Copyright (c) 1996-2012 Texas Instruments Incorporated
package/lib/Regression/regress_d_c/./../packages/ti/vlib/src/VLIB_mixtureOfGaussiansS32/VLIB_mixtureOfGaussiansS32_d.se66 PAGE   48

    2586 00000950 2700a358  || [ B0]   ZERO    .L1     A14               ; |179| 
    2587                    
    2588                            .dwpsn  file "./../packages/ti/vlib/src/VLIB_mixtureOfGaussiansS32/VLIB_mixtureOfGaussiansS32_
    2589                               ; BRANCHCC OCCURS {$C$L33}        ; |179| 
    2590 00000954           $C$DW$L$VLIB_mixtureOfGaussiansS32_d$53$E:
    2591                    ;** --------------------------------------------------------------------------*
    2592 00000954           $C$DW$L$VLIB_mixtureOfGaussiansS32_d$54$B:
    2593                    ;**     -----------------------    K$102 = 32;
    2594                    ;**     -----------------------    K$112 = 42;
    2595                    ;**     -----------------------    K$94 = &cycles[0];
    2596                    ;** 170 -----------------------    counter = 0;
    2597                    ;** 179 -----------------------    i = 0;
    2598                    ;**     -----------------------    #pragma LOOP_FLAGS(5120u)
    2599 00000954           $C$DW$L$VLIB_mixtureOfGaussiansS32_d$54$E:
    2600                    ;** --------------------------------------------------------------------------*
    2601                    ;**   BEGIN LOOP $C$L19
    2602                    ;** --------------------------------------------------------------------------*
    2603 00000954           $C$L19:    
    2604                            .dwpsn  file "./../packages/ti/vlib/src/VLIB_mixtureOfGaussiansS32/VLIB_mixtureOfGaussiansS32_
    2605 00000954           $C$DW$L$VLIB_mixtureOfGaussiansS32_d$55$B:
    2606                    ;          EXCLUSIVE CPU CYCLES: 6
    2607                    ;**     -----------------------g36:
    2608                    ;** 137 -----------------------    act_kernel = 1;  // [17]
    2609                    ;** 140 -----------------------    VLIB_cache_inval();  // [17]
    2610                    ;** 143 -----------------------    initStack(getSP());  // [17]
    2611                    ;** 146 -----------------------    beg_count = _itoll(TSCH, TSCL);  // [17]
    2612                    ;** 183 -----------------------    C$5 = (*U$13).im_size;
    2613                    ;** 183 -----------------------    VLIB_mixtureOfGaussiansS32_cn(C$5*i+Im, wt, mu, var, compNum, updat
    2614                    ;** 153 -----------------------    v$2 = _itoll(TSCH, TSCL);  // [18]
    2615                    ;** 153 -----------------------    end_count = v$2;  // [18]
    2616                    ;** 156 -----------------------    C$4 = act_kernel;  // [18]
    2617                    ;** 156 -----------------------    *((C$4<<3)+K$94) = *((C$4<<3)+K$94)+(v$2-(beg_count+overhead));  //
    2618                    ;** 159 -----------------------    setStackDepth();  // [18]
    2619                    ;** 192 -----------------------    mode[0] = K$102;
    2620                    ;** 193 -----------------------    mode[1] = K$102;
    2621                    ;** 194 -----------------------    mode[2] = K$102;
    2622                    ;** 195 -----------------------    mode[*compNum] = K$112;
    2623                    ;** 197 -----------------------    if ( !LevelOfFeedback ) goto g38;
    2624                            .dwpsn  file ".\..\packages\ti\vlib\src\VLIB_mixtureOfGaussiansS32\..\common\VLIB_profile.h",l
    2625                    $C$DW$227       .dwtag  DW_TAG_TI_branch
    2626                            .dwattr $C$DW$227, DW_AT_low_pc(0x00)
    2627                            .dwattr $C$DW$227, DW_AT_name("VLIB_cache_inval")
    2628                            .dwattr $C$DW$227, DW_AT_TI_call
    2629 00000954 00000010!            CALL    .S1     VLIB_cache_inval  ; |140| 
    2630 00000958 07800028!            MVKL    .S1     act_kernel,A15
    2631 0000095c 07800068!            MVKH    .S1     act_kernel,A15
    2632                            .dwpsn  file ".\..\packages\ti\vlib\src\VLIB_mixtureOfGaussiansS32\..\common\VLIB_profile.h",l
    2633 00000960 0184a358             MVK     .L1     1,A3              ; |137| 
    2634 00000964 01bc0274             STW     .D1T1   A3,*A15           ; |137| 
    2635                            .dwpsn  file ".\..\packages\ti\vlib\src\VLIB_mixtureOfGaussiansS32\..\common\VLIB_profile.h",l
    2636 00000968 01830162             ADDKPC  .S2     $C$RL41,B3,0      ; |140| 
    2637                    $C$RL41:   ; CALL OCCURS {VLIB_cache_inval} {0}  ; |140| 
    2638                    $C$DW$L$VLIB_mixtureOfGaussiansS32_d$55$E:
    2639                    ;** --------------------------------------------------------------------------*
    2640                    $C$DW$L$VLIB_mixtureOfGaussiansS32_d$56$B:
TMS320C6x Assembler PC v7.4.2 Thu Mar 19 12:43:28 2015

Tools Copyright (c) 1996-2012 Texas Instruments Incorporated
package/lib/Regression/regress_d_c/./../packages/ti/vlib/src/VLIB_mixtureOfGaussiansS32/VLIB_mixtureOfGaussiansS32_d.se66 PAGE   49

    2641                    ;          EXCLUSIVE CPU CYCLES: 62
    2642                    $C$DW$228       .dwtag  DW_TAG_TI_branch
    2643                            .dwattr $C$DW$228, DW_AT_low_pc(0x00)
    2644                            .dwattr $C$DW$228, DW_AT_name("getSP")
    2645                            .dwattr $C$DW$228, DW_AT_TI_call
    2646 0000096c 10000012!            CALLP   .S2     getSP,B3
    2647                            .dwpsn  file ".\..\packages\ti\vlib\src\VLIB_mixtureOfGaussiansS32\..\common\VLIB_profile.h",l
    2648                    $C$RL42:   ; CALL OCCURS {getSP} {0}         ; |143| 
    2649                    $C$DW$229       .dwtag  DW_TAG_TI_branch
    2650                            .dwattr $C$DW$229, DW_AT_low_pc(0x00)
    2651                            .dwattr $C$DW$229, DW_AT_name("initStack")
    2652                            .dwattr $C$DW$229, DW_AT_TI_call
    2653 00000970 10000012!            CALLP   .S2     initStack,B3
    2654 00000974           $C$RL43:   ; CALL OCCURS {initStack} {0}     ; |143| 
    2655                            .dwpsn  file ".\..\packages\ti\vlib\src\VLIB_mixtureOfGaussiansS32\..\common\VLIB_profile.h",l
    2656 00000974 032803e2             MVC     .S2     TSCL,B6           ; |146| 
    2657 00000978 022c03e2             MVC     .S2     TSCH,B4           ; |146| 
    2658                            .dwpsn  file "./../packages/ti/vlib/src/VLIB_mixtureOfGaussiansS32/VLIB_mixtureOfGaussiansS32_
    2659 0000097c 042e22c6             LDH     .D2T2   *+B11(34),B8      ; |183| 
    2660 00000980 02ad22e6             LDW     .D2T2   *+B11(36),B5      ; |183| 
    2661 00000984 052c62e6             LDW     .D2T2   *+B11(12),B10     ; |183| 
    2662 00000988 08ace2e6             LDW     .D2T2   *+B11(28),B17     ; |183| 
    2663 0000098c 082e02c6             LDH     .D2T2   *+B11(32),B16     ; |183| 
    2664 00000990 0f8023ee             LDW     .D2T2   *+SP(140),B31     ; |183| 
    2665 00000994 05002aec             LDW     .D2T1   *+SP(168),A10     ; |183| 
    2666 00000998 040027ec             LDW     .D2T1   *+SP(156),A8      ; |183| 
    2667 0000099c 030025ec             LDW     .D2T1   *+SP(148),A6      ; |183| 
    2668 000009a0 062d42c4             LDH     .D2T1   *+B11(20),A12     ; |183| 
    2669 000009a4 062cc2e6             LDW     .D2T2   *+B11(24),B12     ; |183| 
    2670                    
    2671 000009a8 0f00002b!            MVKL    .S2     beg_count,B30
    2672 000009ac 043ca2d6  ||         STH     .D2T2   B8,*+SP(10)       ; |183| 
    2673                    
    2674 000009b0     e247             MV      .L2     B4,B7             ; |146| 
    2675 000009b8 0229a802  ||         MPY32   .M2     B13,B10,B4        ; |183| 
    2676 000009b4 0f00006b! ||         MVKH    .S2     beg_count,B30
    2677 000009b2     fc55  ||         STW     .D2T2   B5,*+SP(12)       ; |183| 
    2678                    
    2679                            .dwpsn  file ".\..\packages\ti\vlib\src\VLIB_mixtureOfGaussiansS32\..\common\VLIB_profile.h",l
    2680 000009c0 037803c6             STDW    .D2T2   B7:B6,*B30        ; |146| 
    2681                            .dwpsn  file "./../packages/ti/vlib/src/VLIB_mixtureOfGaussiansS32/VLIB_mixtureOfGaussiansS32_
    2682 000009c4 08bc22f6             STW     .D2T2   B17,*+SP(4)       ; |183| 
    2683 000009c8 083c82d6             STH     .D2T2   B16,*+SP(8)       ; |183| 
    2684                    
    2685 000009cc 0293e07b             ADD     .L2     B31,B4,B5         ; |183| 
    2686 000009d0 040028ee  ||         LDW     .D2T2   *+SP(160),B8      ; |183| 
    2687                    
    2688 000009d4 030026ee             LDW     .D2T2   *+SP(152),B6      ; |183| 
    2689                    $C$DW$230       .dwtag  DW_TAG_TI_branch
    2690                            .dwattr $C$DW$230, DW_AT_low_pc(0x00)
    2691                            .dwattr $C$DW$230, DW_AT_name("VLIB_mixtureOfGaussiansS32_cn")
    2692                            .dwattr $C$DW$230, DW_AT_TI_call
    2693                    
    2694 000009d8 10000013!            CALLP   .S2     VLIB_mixtureOfGaussiansS32_cn,B3
    2695 000009dc 020024ef  ||         LDW     .D2T2   *+SP(144),B4      ; |183| 
TMS320C6x Assembler PC v7.4.2 Thu Mar 19 12:43:28 2015

Tools Copyright (c) 1996-2012 Texas Instruments Incorporated
package/lib/Regression/regress_d_c/./../packages/ti/vlib/src/VLIB_mixtureOfGaussiansS32/VLIB_mixtureOfGaussiansS32_d.se66 PAGE   50

    2696 000009e0 02141fd8  ||         MV      .L1X    B5,A4             ; |183| 
    2697                    
    2698 000009e4           $C$RL44:   ; CALL OCCURS {VLIB_mixtureOfGaussiansS32_cn} {0}  ; |183| 
    2699                            .dwpsn  file ".\..\packages\ti\vlib\src\VLIB_mixtureOfGaussiansS32\..\common\VLIB_profile.h",l
    2700 000009e4 022803e2             MVC     .S2     TSCL,B4           ; |153| 
    2701 000009e8 02ac03e2             MVC     .S2     TSCH,B5           ; |153| 
    2702 000009ec 01800028!            MVKL    .S1     beg_count,A3
    2703                    
    2704 000009f0 01800069!            MVKH    .S1     beg_count,A3
    2705 000009f4 0380002a! ||         MVKL    .S2     overhead,B7
    2706                    
    2707 000009f8 043c0265             LDW     .D1T1   *A15,A8           ; |156| 
    2708 000009fc 0380006a! ||         MVKH    .S2     overhead,B7
    2709                    
    2710 00000a00 030c1fdb             MV      .L2X    A3,B6
    2711 00000a04 081c03e6  ||         LDDW    .D2T2   *B7,B17:B16       ; |156| 
    2712                    
    2713                            .dwpsn  file ".\..\packages\ti\vlib\src\VLIB_mixtureOfGaussiansS32\..\common\VLIB_profile.h",l
    2714 00000a08 041803e6             LDDW    .D2T2   *B6,B9:B8         ; |156| 
    2715 00000a0c 0f800028!            MVKL    .S1     cycles,A31
    2716 00000a10 0f800068!            MVKH    .S1     cycles,A31
    2717 00000a14 037d0b64             LDDW    .D1T1   *+A31[A8],A7:A6   ; |156| 
    2718 00000a18 0f000028!            MVKL    .S1     end_count,A30
    2719 00000a1c 0322057a             ADDU    .L2     B16,B8,B7:B6      ; |156| 
    2720                    
    2721 00000a20 0444e1e3             ADD     .S2     B7,B17,B8         ; |156| 
    2722 00000a24 031885fa  ||         SUBU    .L2     B4,B6,B7:B6       ; |156| 
    2723                    
    2724 00000a28 0425007a             ADD     .L2     B8,B9,B8          ; |156| 
    2725                    
    2726 00000a2c 0218d579             ADDU    .L1X    A6,B6,A5:A4       ; |156| 
    2727 00000a30 0320a0fb  ||         SUB     .L2     B5,B8,B6          ; |156| 
    2728 00000a34     ebe3  ||         EXT     .S2     B7,24,24,B7       ; |156| 
    2729                    
    2730 00000a36     c3e1             ADD     .L2     B6,B7,B6          ; |156| 
    2731 00000a38 0f000068! ||         MVKH    .S1     end_count,A30
    2732                    
    2733 00000a44     a3d0             ADD     .L1     A5,A7,A5          ; |156| 
    2734 00000a40 01800029! ||         MVKL    .S1     cycles,A3
    2735                    
    2736 00000a46     b350             ADD     .L1X    A5,B6,A5          ; |156| 
    2737 00000a48 01800069! ||         MVKH    .S1     cycles,A3
    2738 00000a4c 02780346  ||         STDW    .D1T2   B5:B4,*A30        ; |153| 
    2739                    
    2740                    $C$DW$231       .dwtag  DW_TAG_TI_branch
    2741                            .dwattr $C$DW$231, DW_AT_low_pc(0x00)
    2742                            .dwattr $C$DW$231, DW_AT_name("setStackDepth")
    2743                            .dwattr $C$DW$231, DW_AT_TI_call
    2744                    
    2745 00000a50 10000013!            CALLP   .S2     setStackDepth,B3
    2746 00000a54 020d0b44  ||         STDW    .D1T1   A5:A4,*+A3[A8]    ; |156| 
    2747                    
    2748                            .dwpsn  file ".\..\packages\ti\vlib\src\VLIB_mixtureOfGaussiansS32\..\common\VLIB_profile.h",l
    2749 00000a58           $C$RL45:   ; CALL OCCURS {setStackDepth} {0}  ; |159| 
    2750 00000a58           $C$DW$L$VLIB_mixtureOfGaussiansS32_d$56$E:
TMS320C6x Assembler PC v7.4.2 Thu Mar 19 12:43:28 2015

Tools Copyright (c) 1996-2012 Texas Instruments Incorporated
package/lib/Regression/regress_d_c/./../packages/ti/vlib/src/VLIB_mixtureOfGaussiansS32/VLIB_mixtureOfGaussiansS32_d.se66 PAGE   51

    2751                    ;** --------------------------------------------------------------------------*
    2752 00000a58           $C$DW$L$VLIB_mixtureOfGaussiansS32_d$57$B:
    2753                    ;          EXCLUSIVE CPU CYCLES: 23
    2754                            .dwpsn  file "./../packages/ti/vlib/src/VLIB_mixtureOfGaussiansS32/VLIB_mixtureOfGaussiansS32_
    2755 00000a58 0f8027ec             LDW     .D2T1   *+SP(156),A31     ; |194| 
    2756 00000a60 01801028             MVK     .S1     0x20,A3
    2757                            .dwpsn  file "./../packages/ti/vlib/src/VLIB_mixtureOfGaussiansS32/VLIB_mixtureOfGaussiansS32_
    2758 00000a64 018078bc             STB     .D2T1   A3,*+SP(120)      ; |192| 
    2759                            .dwpsn  file "./../packages/ti/vlib/src/VLIB_mixtureOfGaussiansS32/VLIB_mixtureOfGaussiansS32_
    2760 00000a68 018079bc             STB     .D2T1   A3,*+SP(121)      ; |193| 
    2761                            .dwpsn  file "./../packages/ti/vlib/src/VLIB_mixtureOfGaussiansS32/VLIB_mixtureOfGaussiansS32_
    2762 00000a6c 01807abc             STB     .D2T1   A3,*+SP(122)      ; |194| 
    2763                            .dwpsn  file "./../packages/ti/vlib/src/VLIB_mixtureOfGaussiansS32/VLIB_mixtureOfGaussiansS32_
    2764 00000a70 01fc0214             LDBU    .D1T1   *A31,A3           ; |195| 
    2765 00000a74 02803c28             MVK     .S1     120,A5            ; |195| 
    2766 00000a78 0f001528             MVK     .S1     0x2a,A30
    2767 00000a7c 00002000             NOP             2
    2768 00000a80 023c7078             ADD     .L1X    A3,SP,A4          ; |195| 
    2769 00000a84 0f148a34             STB     .D1T1   A30,*+A5[A4]      ; |195| 
    2770 00000a88 000022ec             LDW     .D2T1   *+SP(136),A0      ; |195| 
    2771 00000a8c 018025ec             LDW     .D2T1   *+SP(148),A3
    2772 00000a90 00004000             NOP             3
    2773                    
    2774 00000a94 d02c42e7     [!A0]   LDW     .D2T2   *+B11(8),B0       ; |205| 
    2775 00000a98 d0003a10  || [!A0]   B       .S1     $C$L20            ; |197| 
    2776                    
    2777                            .dwpsn  file "./../packages/ti/vlib/src/VLIB_mixtureOfGaussiansS32/VLIB_mixtureOfGaussiansS32_
    2778                    $C$DW$232       .dwtag  DW_TAG_TI_branch
    2779                            .dwattr $C$DW$232, DW_AT_low_pc(0x00)
    2780                            .dwattr $C$DW$232, DW_AT_name("VLIB_getFractional32")
    2781                            .dwattr $C$DW$232, DW_AT_TI_call
    2782 00000a9c c0000010!    [ A0]   CALL    .S1     VLIB_getFractional32 ; |198| 
    2783 00000aa0 c20c0264     [ A0]   LDW     .D1T1   *A3,A4            ; |198| 
    2784                            .dwpsn  file "./../packages/ti/vlib/src/VLIB_mixtureOfGaussiansS32/VLIB_mixtureOfGaussiansS32_
    2785 00000aa4 c004a35a     [ A0]   MVK     .L2     0x1,B0            ; |205| nullify predicate
    2786 00000aa8 d53fa2e4     [!A0]   LDW     .D2T1   *+SP(116),A10     ; |205| 
    2787 00000aac 30009090     [!B0]   B       .S1     $C$L32            ; |205| 
    2788                            .dwpsn  file "./../packages/ti/vlib/src/VLIB_mixtureOfGaussiansS32/VLIB_mixtureOfGaussiansS32_
    2789                               ; BRANCHCC OCCURS {$C$L20}        ; |197| 
    2790 00000ab0           $C$DW$L$VLIB_mixtureOfGaussiansS32_d$57$E:
    2791                    ;** --------------------------------------------------------------------------*
    2792 00000ab0           $C$DW$L$VLIB_mixtureOfGaussiansS32_d$58$B:
    2793                    ;          EXCLUSIVE CPU CYCLES: 1
    2794                    ;** 198 -----------------------    printf((const char *)"%4d  %d  %c %8.4f %8.4f %8.6f   %c %8.4f %8.4
    2795                    
    2796 00000ab0     2726             MVK     .L1     0x1,A6            ; |198| 
    2797 00000ab2     ee27  ||         MVK     .L2     0xf,B4            ; |198| 
    2798 00000ab4 01860162  ||         ADDKPC  .S2     $C$RL46,B3,0      ; |198| 
    2799                    
    2800                            .dwpsn  file "./../packages/ti/vlib/src/VLIB_mixtureOfGaussiansS32/VLIB_mixtureOfGaussiansS32_
    2801 00000ab8           $C$RL46:   ; CALL OCCURS {VLIB_getFractional32} {0}  ; |198| 
    2802 00000ab8           $C$DW$L$VLIB_mixtureOfGaussiansS32_d$58$E:
    2803                    ;** --------------------------------------------------------------------------*
    2804 00000ab8           $C$DW$L$VLIB_mixtureOfGaussiansS32_d$59$B:
    2805                    ;          EXCLUSIVE CPU CYCLES: 137
TMS320C6x Assembler PC v7.4.2 Thu Mar 19 12:43:28 2015

Tools Copyright (c) 1996-2012 Texas Instruments Incorporated
package/lib/Regression/regress_d_c/./../packages/ti/vlib/src/VLIB_mixtureOfGaussiansS32/VLIB_mixtureOfGaussiansS32_d.se66 PAGE   52

    2806 00000ab8 020026ee             LDW     .D2T2   *+SP(152),B4      ; |198| 
    2807 00000ac0     4646             MV      .L1     A4,A10            ; |198| 
    2808 00000ac2     2726             MVK     .L1     0x1,A6            ; |198| 
    2809 00000ac4     2c6e             NOP             2
    2810                    $C$DW$233       .dwtag  DW_TAG_TI_branch
    2811                            .dwattr $C$DW$233, DW_AT_low_pc(0x00)
    2812                            .dwattr $C$DW$233, DW_AT_name("VLIB_getFractional16")
    2813                            .dwattr $C$DW$233, DW_AT_TI_call
    2814                    
    2815 00000acc 10000012!            CALLP   .S2     VLIB_getFractional16,B3
    2816 00000ac8 021002c5  ||         LDH     .D2T1   *B4,A4            ; |198| 
    2817 00000ac6     6627  ||         MVK     .L2     0x3,B4            ; |198| 
    2818                    
    2819 00000ad0           $C$RL47:   ; CALL OCCURS {VLIB_getFractional16} {0}  ; |198| 
    2820 00000ad0 020024ee             LDW     .D2T2   *+SP(144),B4      ; |198| 
    2821 00000ad4     5647             MV      .L2X    A4,B10            ; |198| 
    2822 00000ad6     2726             MVK     .L1     0x1,A6            ; |198| 
    2823 00000ad8     2c6e             NOP             2
    2824                    $C$DW$234       .dwtag  DW_TAG_TI_branch
    2825                            .dwattr $C$DW$234, DW_AT_low_pc(0x00)
    2826                            .dwattr $C$DW$234, DW_AT_name("VLIB_getFractional16")
    2827                            .dwattr $C$DW$234, DW_AT_TI_call
    2828                    
    2829 00000ae4 10000012!            CALLP   .S2     VLIB_getFractional16,B3
    2830 00000ae0 021002c5  ||         LDH     .D2T1   *B4,A4            ; |198| 
    2831 00000ada     ee27  ||         MVK     .L2     0xf,B4            ; |198| 
    2832                    
    2833 00000ae8           $C$RL48:   ; CALL OCCURS {VLIB_getFractional16} {0}  ; |198| 
    2834 00000ae8 01ac62e4             LDW     .D2T1   *+B11(12),A3      ; |198| 
    2835                    
    2836 00000af0     8646             MV      .L1     A4,A12            ; |198| 
    2837 00000aec 020025ed  ||         LDW     .D2T1   *+SP(148),A4
    2838                    
    2839 00000af2     f213             MVK     .S2     0x17,B4           ; |198| 
    2840 00000af4     2726             MVK     .L1     0x1,A6            ; |198| 
    2841 00000af6     2c6e             NOP             2
    2842                    $C$DW$235       .dwtag  DW_TAG_TI_branch
    2843                            .dwattr $C$DW$235, DW_AT_low_pc(0x00)
    2844                            .dwattr $C$DW$235, DW_AT_name("VLIB_getFractional32")
    2845                            .dwattr $C$DW$235, DW_AT_TI_call
    2846                    
    2847 00000af8 10000013!            CALLP   .S2     VLIB_getFractional32,B3
    2848 00000b00 02106a64  ||         LDW     .D1T1   *+A4[A3],A4       ; |198| 
    2849                    
    2850 00000b04           $C$RL49:   ; CALL OCCURS {VLIB_getFractional32} {0}  ; |198| 
    2851 00000b04 022c62e6             LDW     .D2T2   *+B11(12),B4      ; |198| 
    2852 00000b08 028026ee             LDW     .D2T2   *+SP(152),B5
    2853 00000b0c     e646             MV      .L1     A4,A15            ; |198| 
    2854 00000b0e     2726             MVK     .L1     0x1,A6            ; |198| 
    2855 00000b10     2c6e             NOP             2
    2856                    $C$DW$236       .dwtag  DW_TAG_TI_branch
    2857                            .dwattr $C$DW$236, DW_AT_low_pc(0x00)
    2858                            .dwattr $C$DW$236, DW_AT_name("VLIB_getFractional32")
    2859                            .dwattr $C$DW$236, DW_AT_TI_call
    2860                    
TMS320C6x Assembler PC v7.4.2 Thu Mar 19 12:43:28 2015

Tools Copyright (c) 1996-2012 Texas Instruments Incorporated
package/lib/Regression/regress_d_c/./../packages/ti/vlib/src/VLIB_mixtureOfGaussiansS32/VLIB_mixtureOfGaussiansS32_d.se66 PAGE   53

    2861 00000b14 10000013!            CALLP   .S2     VLIB_getFractional32,B3
    2862 00000b12     84cd  ||         LDW     .D2T1   *+B5[B4],A4       ; |198| 
    2863 00000b18 023ca35a  ||         MVK     .L2     0xf,B4            ; |198| 
    2864                    
    2865 00000b20           $C$RL50:   ; CALL OCCURS {VLIB_getFractional32} {0}  ; |198| 
    2866 00000b20 028024ee             LDW     .D2T2   *+SP(144),B5
    2867 00000b24 022c62e6             LDW     .D2T2   *+B11(12),B4      ; |198| 
    2868 00000b28     9647             MV      .L2X    A4,B12            ; |198| 
    2869 00000b2a     2726             MVK     .L1     0x1,A6            ; |198| 
    2870 00000b2c     2c6e             NOP             2
    2871                    $C$DW$237       .dwtag  DW_TAG_TI_branch
    2872                            .dwattr $C$DW$237, DW_AT_low_pc(0x00)
    2873                            .dwattr $C$DW$237, DW_AT_name("VLIB_getFractional16")
    2874                            .dwattr $C$DW$237, DW_AT_TI_call
    2875                    
    2876 00000b34 10000012!            CALLP   .S2     VLIB_getFractional16,B3
    2877 00000b30 02148ac5  ||         LDH     .D2T1   *+B5[B4],A4       ; |198| 
    2878 00000b2e     ee27  ||         MVK     .L2     0xf,B4            ; |198| 
    2879                    
    2880 00000b38           $C$RL51:   ; CALL OCCURS {VLIB_getFractional16} {0}  ; |198| 
    2881 00000b38 02002cfc             STW     .D2T1   A4,*+SP(176)      ; |198| 
    2882 00000b40 020025ec             LDW     .D2T1   *+SP(148),A4
    2883 00000b44 01ac62e4             LDW     .D2T1   *+B11(12),A3      ; |198| 
    2884 00000b48     f213             MVK     .S2     0x17,B4           ; |198| 
    2885 00000b4a     2726             MVK     .L1     0x1,A6            ; |198| 
    2886 00000b4c 00002000             NOP             2
    2887 00000b50 01907e40             ADDAD   .D1     A4,A3,A3          ; |198| 
    2888                    $C$DW$238       .dwtag  DW_TAG_TI_branch
    2889                            .dwattr $C$DW$238, DW_AT_low_pc(0x00)
    2890                            .dwattr $C$DW$238, DW_AT_name("VLIB_getFractional32")
    2891                            .dwattr $C$DW$238, DW_AT_TI_call
    2892                    
    2893 00000b54 10000013!            CALLP   .S2     VLIB_getFractional32,B3
    2894 00000b58 020c0264  ||         LDW     .D1T1   *A3,A4            ; |198| 
    2895                    
    2896 00000b60           $C$RL52:   ; CALL OCCURS {VLIB_getFractional32} {0}  ; |198| 
    2897 00000b60 022c62e6             LDW     .D2T2   *+B11(12),B4      ; |198| 
    2898 00000b64 028026ee             LDW     .D2T2   *+SP(152),B5
    2899 00000b68 02002bfc             STW     .D2T1   A4,*+SP(172)      ; |198| 
    2900 00000b6c     2726             MVK     .L1     0x1,A6            ; |198| 
    2901 00000b6e     2c6e             NOP             2
    2902 00000b70 02149e42             ADDAD   .D2     B5,B4,B4          ; |198| 
    2903                    $C$DW$239       .dwtag  DW_TAG_TI_branch
    2904                            .dwattr $C$DW$239, DW_AT_low_pc(0x00)
    2905                            .dwattr $C$DW$239, DW_AT_name("VLIB_getFractional16")
    2906                            .dwattr $C$DW$239, DW_AT_TI_call
    2907                    
    2908 00000b74 10000013!            CALLP   .S2     VLIB_getFractional16,B3
    2909 00000b78     024d  ||         LDH     .D2T1   *B4,A4            ; |198| 
    2910 00000b7a     ee27  ||         MVK     .L2     0xf,B4            ; |198| 
    2911                    
    2912 00000b80           $C$RL53:   ; CALL OCCURS {VLIB_getFractional16} {0}  ; |198| 
    2913 00000b80 02ac62e6             LDW     .D2T2   *+B11(12),B5      ; |198| 
    2914 00000b84 020024ee             LDW     .D2T2   *+SP(144),B4
    2915 00000b88 020021fc             STW     .D2T1   A4,*+SP(132)      ; |198| 
TMS320C6x Assembler PC v7.4.2 Thu Mar 19 12:43:28 2015

Tools Copyright (c) 1996-2012 Texas Instruments Incorporated
package/lib/Regression/regress_d_c/./../packages/ti/vlib/src/VLIB_mixtureOfGaussiansS32/VLIB_mixtureOfGaussiansS32_d.se66 PAGE   54

    2916 00000b8c     2726             MVK     .L1     0x1,A6            ; |198| 
    2917 00000b8e     2c6e             NOP             2
    2918 00000b90 0210bc42             ADDAW   .D2     B4,B5,B4          ; |198| 
    2919                    $C$DW$240       .dwtag  DW_TAG_TI_branch
    2920                            .dwattr $C$DW$240, DW_AT_low_pc(0x00)
    2921                            .dwattr $C$DW$240, DW_AT_name("VLIB_getFractional16")
    2922                            .dwattr $C$DW$240, DW_AT_TI_call
    2923                    
    2924 00000b94 10000013!            CALLP   .S2     VLIB_getFractional16,B3
    2925 00000b98     024d  ||         LDH     .D2T1   *B4,A4            ; |198| 
    2926 00000b9a     ee27  ||         MVK     .L2     0xf,B4            ; |198| 
    2927                    
    2928 00000ba0           $C$RL54:   ; CALL OCCURS {VLIB_getFractional16} {0}  ; |198| 
    2929 00000ba0 018029ec             LDW     .D2T1   *+SP(164),A3      ; |198| 
    2930 00000ba4 022c62e6             LDW     .D2T2   *+B11(12),B4      ; |198| 
    2931 00000ba8 02800028!            MVKL    .S1     $C$SL4+0,A5
    2932 00000bac 0f8023ee             LDW     .D2T2   *+SP(140),B31     ; |198| 
    2933 00000bb0 02800068!            MVKH    .S1     $C$SL4+0,A5
    2934 00000bb4 018c0264             LDW     .D1T1   *A3,A3            ; |198| 
    2935 00000bb8 02bc22f4             STW     .D2T1   A5,*+SP(4)        ; |198| 
    2936 00000bbc 048078ae             LDB     .D2T2   *+SP(120),B9      ; |198| 
    2937                    
    2938 00000bc0 0291a803             MPY32   .M2     B13,B4,B5         ; |198| 
    2939 00000bc4 0f002bec  ||         LDW     .D2T1   *+SP(172),A30     ; |198| 
    2940                    
    2941 00000bc8 040079ae             LDB     .D2T2   *+SP(121),B8      ; |198| 
    2942 00000bcc 08807aae             LDB     .D2T2   *+SP(122),B17     ; |198| 
    2943                    
    2944 00000bd0 018fe9a1             SHRU    .S1     A3,31,A3          ; |198| 
    2945 00000bd4 0f802cec  ||         LDW     .D2T1   *+SP(176),A31     ; |198| 
    2946                    
    2947 00000bd8 0817ea97             LDBU    .D2T2   *+B5[B31],B16     ; |198| 
    2948 00000bdc 043000a0  ||         SPDP    .S1     A12,A9:A8         ; |198| 
    2949                    
    2950 00000be0 01bc62f4             STW     .D2T1   A3,*+SP(12)       ; |198| 
    2951                    
    2952 00000be4 032800a1             SPDP    .S1     A10,A7:A6         ; |198| 
    2953 00000be8 043ca3c4  ||         STDW    .D2T1   A9:A8,*+SP(40)    ; |198| 
    2954                    
    2955 00000bec 018021ec             LDW     .D2T1   *+SP(132),A3      ; |198| 
    2956                    
    2957 00000bf0 033c63c5             STDW    .D2T1   A7:A6,*+SP(24)    ; |198| 
    2958 00000bf4 083c00a0  ||         SPDP    .S1     A15,A17:A16       ; |198| 
    2959                    
    2960 00000bf8 083c42f6             STW     .D2T2   B16,*+SP(8)       ; |198| 
    2961 00000bfc 083ce3c4             STDW    .D2T1   A17:A16,*+SP(56)  ; |198| 
    2962                    
    2963 00000c00 021000a1             SPDP    .S1     A4,A5:A4          ; |198| 
    2964 00000c04 04bc82f6  ||         STW     .D2T2   B9,*+SP(16)       ; |198| 
    2965                    
    2966 00000c08 037810a3             SPDP    .S2X    A30,B7:B6         ; |198| 
    2967 00000c0c 043d82f6  ||         STW     .D2T2   B8,*+SP(48)       ; |198| 
    2968                    
    2969 00000c10 023da3c4             STDW    .D2T1   A5:A4,*+SP(104)   ; |198| 
    2970                    
TMS320C6x Assembler PC v7.4.2 Thu Mar 19 12:43:28 2015

Tools Copyright (c) 1996-2012 Texas Instruments Incorporated
package/lib/Regression/regress_d_c/./../packages/ti/vlib/src/VLIB_mixtureOfGaussiansS32/VLIB_mixtureOfGaussiansS32_d.se66 PAGE   55

    2971 00000c14 022800a3             SPDP    .S2     B10,B5:B4         ; |198| 
    2972 00000c18 040c00a1  ||         SPDP    .S1     A3,A9:A8          ; |198| 
    2973 00000c1c 08be82f6  ||         STW     .D2T2   B17,*+SP(80)      ; |198| 
    2974                    
    2975 00000c20 033d63c6             STDW    .D2T2   B7:B6,*+SP(88)    ; |198| 
    2976                    
    2977 00000c24 023c83c7             STDW    .D2T2   B5:B4,*+SP(32)    ; |198| 
    2978 00000c28 037c00a0  ||         SPDP    .S1     A31,A7:A6         ; |198| 
    2979                    
    2980 00000c2c 023000a3             SPDP    .S2     B12,B5:B4         ; |198| 
    2981 00000c30 043d83c4  ||         STDW    .D2T1   A9:A8,*+SP(96)    ; |198| 
    2982                    
    2983 00000c34 033d23c4             STDW    .D2T1   A7:A6,*+SP(72)    ; |198| 
    2984                    $C$DW$241       .dwtag  DW_TAG_TI_branch
    2985                            .dwattr $C$DW$241, DW_AT_low_pc(0x00)
    2986                            .dwattr $C$DW$241, DW_AT_name("printf")
    2987                            .dwattr $C$DW$241, DW_AT_TI_call
    2988                    
    2989 00000c38 10000013!            CALLP   .S2     printf,B3
    2990 00000c3c 023d03c6  ||         STDW    .D2T2   B5:B4,*+SP(64)    ; |198| 
    2991                    
    2992 00000c40           $C$RL55:   ; CALL OCCURS {printf} {0}        ; |198| 
    2993                            .dwpsn  file "./../packages/ti/vlib/src/VLIB_mixtureOfGaussiansS32/VLIB_mixtureOfGaussiansS32_
    2994 00000c40 002c42e6             LDW     .D2T2   *+B11(8),B0       ; |205| 
    2995 00000c44 053fa2e4             LDW     .D2T1   *+SP(116),A10     ; |205| 
    2996 00000c48 00004000             NOP             3
    2997 00000c4c 30005c90     [!B0]   B       .S1     $C$L32            ; |205| 
    2998 00000c50           $C$DW$L$VLIB_mixtureOfGaussiansS32_d$59$E:
    2999                    ;** --------------------------------------------------------------------------*
    3000 00000c50           $C$L20:    
    3001                            .dwpsn  file "./../packages/ti/vlib/src/VLIB_mixtureOfGaussiansS32/VLIB_mixtureOfGaussiansS32_
    3002 00000c50           $C$DW$L$VLIB_mixtureOfGaussiansS32_d$60$B:
    3003                    ;          EXCLUSIVE CPU CYCLES: 5
    3004                    ;**     -----------------------g38:
    3005                    ;** 205 -----------------------    v$1 = prm;
    3006                    ;** 205 -----------------------    if ( (*U$13).staticOut == NULL ) goto g59;
    3007                            .dwpsn  file "./../packages/ti/vlib/src/VLIB_mixtureOfGaussiansS32/VLIB_mixtureOfGaussiansS32_
    3008 00000c50 222c62e6     [ B0]   LDW     .D2T2   *+B11(12),B4      ; |208| 
    3009 00000c54 318020ec     [!B0]   LDW     .D2T1   *+SP(128),A3
    3010 00000c58 00004001             NOP             3
    3011                            .dwpsn  file "./../packages/ti/vlib/src/VLIB_mixtureOfGaussiansS32/VLIB_mixtureOfGaussiansS32_
    3012                               ; BRANCHCC OCCURS {$C$L32}        ; |205| 
    3013 00000c60           $C$DW$L$VLIB_mixtureOfGaussiansS32_d$60$E:
    3014                    ;** --------------------------------------------------------------------------*
    3015 00000c60           $C$DW$L$VLIB_mixtureOfGaussiansS32_d$61$B:
    3016                    ;          EXCLUSIVE CPU CYCLES: 7
    3017                    ;** 208 -----------------------    if ( (*U$13).im_size <= 0 ) goto g48;
    3018                    
    3019 00000c60 01b4aca1             SHL     .S1     A13,5,A3
    3020 00000c64 00100ada  ||         CMPGT   .L2     B4,0,B0           ; |208| 
    3021                    
    3022 00000c68 018dbe41             ADDAD   .D1     A3,A13,A3
    3023 00000c6c 30002e11  || [!B0]   B       .S1     $C$L25            ; |208| 
    3024 00000c70 2f0026ec  || [ B0]   LDW     .D2T1   *+SP(152),A30
    3025                    
TMS320C6x Assembler PC v7.4.2 Thu Mar 19 12:43:28 2015

Tools Copyright (c) 1996-2012 Texas Instruments Incorporated
package/lib/Regression/regress_d_c/./../packages/ti/vlib/src/VLIB_mixtureOfGaussiansS32/VLIB_mixtureOfGaussiansS32_d.se66 PAGE   56

    3026 00000c74 018d4078             ADD     .L1     A10,A3,A3
    3027 00000c78 220c6264     [ B0]   LDW     .D1T1   *+A3(12),A4
    3028 00000c7c 230c4264     [ B0]   LDW     .D1T1   *+A3(8),A6
    3029 00000c80 2f8ca358     [ B0]   MVK     .L1     3,A31
    3030 00000c84 00000000             NOP             1
    3031                            .dwpsn  file "./../packages/ti/vlib/src/VLIB_mixtureOfGaussiansS32/VLIB_mixtureOfGaussiansS32_
    3032                               ; BRANCHCC OCCURS {$C$L25}        ; |208| 
    3033 00000c88           $C$DW$L$VLIB_mixtureOfGaussiansS32_d$61$E:
    3034                    ;** --------------------------------------------------------------------------*
    3035 00000c88           $C$DW$L$VLIB_mixtureOfGaussiansS32_d$62$B:
    3036                    ;          EXCLUSIVE CPU CYCLES: 10
    3037                    ;**     -----------------------    U$152 = mu;
    3038                    ;**     -----------------------    C$3 = &v$1[tpi];
    3039                    ;**     -----------------------    U$159 = counter*4+(*C$3).staticOut-4;
    3040                    ;**     -----------------------    U$170 = var;
    3041                    ;**     -----------------------    U$178 = wt;
    3042                    ;**     -----------------------    L$4 = _lo(_mpyli(3, (*C$3).im_size));
    3043                    ;** 208 -----------------------    k = 0;
    3044                    ;**     -----------------------    #pragma MUST_ITERATE(1, 2147483647, 1)
    3045                    ;**     -----------------------    #pragma LOOP_FLAGS(5120u)
    3046 00000c88 078025ec             LDW     .D2T1   *+SP(148),A15
    3047                    
    3048 00000c8c 0213e571             MPYLI   .M1     A31,A4,A5:A4
    3049 00000c90 0f002bfc  ||         STW     .D2T1   A30,*+SP(172)
    3050                    
    3051 00000c94 0e99dc40             ADDAW   .D1     A6,A14,A29
    3052 00000c98 06778058             SUB     .L1     A29,4,A12
    3053                            .dwpsn  file "./../packages/ti/vlib/src/VLIB_mixtureOfGaussiansS32/VLIB_mixtureOfGaussiansS32_
    3054 00000c9c 06308058             ADD     .L1     4,A12,A12         ; |209| 
    3055 00000ca0 020021fc             STW     .D2T1   A4,*+SP(132)
    3056 00000ca4 023c3664             LDW     .D1T1   *A15++,A4         ; |209| 
    3057 00000ca8 01b03664             LDW     .D1T1   *A12++,A3         ; |209| 
    3058                            .dwpsn  file "./../packages/ti/vlib/src/VLIB_mixtureOfGaussiansS32/VLIB_mixtureOfGaussiansS32_
    3059 00000cac 0600a35a             ZERO    .L2     B12               ; |208| 
    3060 00000cb0 050024ee             LDW     .D2T2   *+SP(144),B10
    3061 00000cb4           $C$DW$L$VLIB_mixtureOfGaussiansS32_d$62$E:
    3062                    ;*----------------------------------------------------------------------------*
    3063                    ;*   SOFTWARE PIPELINE INFORMATION
    3064                    ;*      Disqualified loop: Loop contains control code
    3065                    ;*----------------------------------------------------------------------------*
    3066 00000cb4           $C$L21:    
    3067 00000cb4           $C$DW$L$VLIB_mixtureOfGaussiansS32_d$63$B:
    3068                    ;          EXCLUSIVE CPU CYCLES: 9
    3069                    ;**     -----------------------g41:
    3070                    ;** 209 -----------------------    ++U$159;
    3071                    ;** 209 -----------------------    if ( (unsigned)*U$152++ == *U$159++ ) goto g43;
    3072 00000cb4     2c6e             NOP             2
    3073                            .dwpsn  file "./../packages/ti/vlib/src/VLIB_mixtureOfGaussiansS32/VLIB_mixtureOfGaussiansS32_
    3074 00000cb6     85e8             CMPEQ   .L1     A4,A3,A0          ; |209| 
    3075                    
    3076 00000cb8 c0000c91     [ A0]   B       .S1     $C$L22            ; |209| 
    3077 00000cc0 c2002bef  || [ A0]   LDW     .D2T2   *+SP(172),B4
    3078 00000cc4 d280002b! || [!A0]   MVKL    .S2     $C$SL5+0,B5
    3079 00000cc8 c1b03664  || [ A0]   LDW     .D1T1   *A12++,A3         ; |213| 
    3080                    
TMS320C6x Assembler PC v7.4.2 Thu Mar 19 12:43:28 2015

Tools Copyright (c) 1996-2012 Texas Instruments Incorporated
package/lib/Regression/regress_d_c/./../packages/ti/vlib/src/VLIB_mixtureOfGaussiansS32/VLIB_mixtureOfGaussiansS32_d.se66 PAGE   57

    3081                            .dwpsn  file "./../packages/ti/vlib/src/VLIB_mixtureOfGaussiansS32/VLIB_mixtureOfGaussiansS32_
    3082 00000ccc d1b0bda0     [!A0]   SHR     .S1X    B12,5,A3          ; |210| 
    3083 00000cd0 d280006a!    [!A0]   MVKH    .S2     $C$SL5+0,B5
    3084 00000cd4 d2337b0a     [!A0]   EXTU    .S2     B12,27,27,B4      ; |210| 
    3085                    $C$DW$242       .dwtag  DW_TAG_TI_branch
    3086                            .dwattr $C$DW$242, DW_AT_low_pc(0x00)
    3087                            .dwattr $C$DW$242, DW_AT_name("printf")
    3088                            .dwattr $C$DW$242, DW_AT_TI_call
    3089 00000cd8 d0000010!    [!A0]   CALL    .S1     printf            ; |210| 
    3090                            .dwpsn  file "./../packages/ti/vlib/src/VLIB_mixtureOfGaussiansS32/VLIB_mixtureOfGaussiansS32_
    3091 00000cdc c29036e6     [ A0]   LDW     .D2T2   *B4++,B5          ; |213| 
    3092                            .dwpsn  file "./../packages/ti/vlib/src/VLIB_mixtureOfGaussiansS32/VLIB_mixtureOfGaussiansS32_
    3093                               ; BRANCHCC OCCURS {$C$L22}        ; |209| 
    3094 00000ce0           $C$DW$L$VLIB_mixtureOfGaussiansS32_d$63$E:
    3095                    ;** --------------------------------------------------------------------------*
    3096 00000ce0           $C$DW$L$VLIB_mixtureOfGaussiansS32_d$64$B:
    3097                    ;          EXCLUSIVE CPU CYCLES: 4
    3098                    ;** 210 -----------------------    printf((const char *)"\tError in Mean: Image %d, Pixel %d, Mode %d\
    3099                    ;** 211 -----------------------    status_nat_vs_ref = 0;
    3100                            .dwpsn  file "./../packages/ti/vlib/src/VLIB_mixtureOfGaussiansS32/VLIB_mixtureOfGaussiansS32_
    3101 00000ce0     bc55             STW     .D2T2   B5,*+SP(4)        ; |210| 
    3102 00000ce2     8cb5             STW     .D2T1   A3,*+SP(16)       ; |210| 
    3103 00000ce4 023c62f6             STW     .D2T2   B4,*+SP(12)       ; |210| 
    3104                    
    3105 00000ce8 06bc42f7             STW     .D2T2   B13,*+SP(8)       ; |210| 
    3106 00000cec 01840162  ||         ADDKPC  .S2     $C$RL56,B3,0      ; |210| 
    3107                    
    3108 00000cf0           $C$RL56:   ; CALL OCCURS {printf} {0}        ; |210| 
    3109 00000cf0           $C$DW$L$VLIB_mixtureOfGaussiansS32_d$64$E:
    3110                    ;** --------------------------------------------------------------------------*
    3111 00000cf0           $C$DW$L$VLIB_mixtureOfGaussiansS32_d$65$B:
    3112                    ;          EXCLUSIVE CPU CYCLES: 6
    3113 00000cf0 02002bee             LDW     .D2T2   *+SP(172),B4
    3114                            .dwpsn  file "./../packages/ti/vlib/src/VLIB_mixtureOfGaussiansS32/VLIB_mixtureOfGaussiansS32_
    3115 00000cf4 01b03664             LDW     .D1T1   *A12++,A3         ; |213| 
    3116                            .dwpsn  file "./../packages/ti/vlib/src/VLIB_mixtureOfGaussiansS32/VLIB_mixtureOfGaussiansS32_
    3117 00000cf8 0580a358             ZERO    .L1     A11               ; |211| 
    3118 00000d00     2c6e             NOP             2
    3119                            .dwpsn  file "./../packages/ti/vlib/src/VLIB_mixtureOfGaussiansS32/VLIB_mixtureOfGaussiansS32_
    3120 00000d02     1c5d             LDW     .D2T2   *B4++,B5          ; |213| 
    3121 00000d04           $C$DW$L$VLIB_mixtureOfGaussiansS32_d$65$E:
    3122                    ;** --------------------------------------------------------------------------*
    3123 00000d04           $C$L22:    
    3124                            .dwpsn  file "./../packages/ti/vlib/src/VLIB_mixtureOfGaussiansS32/VLIB_mixtureOfGaussiansS32_
    3125 00000d04           $C$DW$L$VLIB_mixtureOfGaussiansS32_d$66$B:
    3126                    ;          EXCLUSIVE CPU CYCLES: 11
    3127                    ;**     -----------------------g43:
    3128                    ;** 213 -----------------------    if ( (unsigned)*U$170++ == *U$159++ ) goto g45;
    3129                            .dwpsn  file "./../packages/ti/vlib/src/VLIB_mixtureOfGaussiansS32/VLIB_mixtureOfGaussiansS32_
    3130 00000d04 02002bfe             STW     .D2T2   B4,*+SP(172)      ; |213| 
    3131 00000d08     4c6e             NOP             3
    3132 00000d0a     76e8             CMPEQ   .L1X    B5,A3,A0          ; |213| 
    3133                    
    3134 00000d0c c1b00265     [ A0]   LDW     .D1T1   *A12,A3           ; |217| 
    3135 00000d10 c22836c7  || [ A0]   LDH     .D2T2   *B10++,B4         ; |217| 
TMS320C6x Assembler PC v7.4.2 Thu Mar 19 12:43:28 2015

Tools Copyright (c) 1996-2012 Texas Instruments Incorporated
package/lib/Regression/regress_d_c/./../packages/ti/vlib/src/VLIB_mixtureOfGaussiansS32/VLIB_mixtureOfGaussiansS32_d.se66 PAGE   58

    3136 00000d14 c0000c11  || [ A0]   B       .S1     $C$L23            ; |213| 
    3137 00000d18 d280002a! || [!A0]   MVKL    .S2     $C$SL6+0,B5
    3138                    
    3139                            .dwpsn  file "./../packages/ti/vlib/src/VLIB_mixtureOfGaussiansS32/VLIB_mixtureOfGaussiansS32_
    3140 00000d20 d1b0bda0     [!A0]   SHR     .S1X    B12,5,A3          ; |214| 
    3141 00000d24 d280006a!    [!A0]   MVKH    .S2     $C$SL6+0,B5
    3142 00000d28 d2337b0a     [!A0]   EXTU    .S2     B12,27,27,B4      ; |214| 
    3143                    $C$DW$243       .dwtag  DW_TAG_TI_branch
    3144                            .dwattr $C$DW$243, DW_AT_low_pc(0x00)
    3145                            .dwattr $C$DW$243, DW_AT_name("printf")
    3146                            .dwattr $C$DW$243, DW_AT_TI_call
    3147 00000d2c d0000010!    [!A0]   CALL    .S1     printf            ; |214| 
    3148                            .dwpsn  file "./../packages/ti/vlib/src/VLIB_mixtureOfGaussiansS32/VLIB_mixtureOfGaussiansS32_
    3149 00000d30 c0107a78     [ A0]   CMPEQ   .L1X    B4,A3,A0          ; |217| 
    3150                            .dwpsn  file "./../packages/ti/vlib/src/VLIB_mixtureOfGaussiansS32/VLIB_mixtureOfGaussiansS32_
    3151                               ; BRANCHCC OCCURS {$C$L23}        ; |213| 
    3152 00000d34           $C$DW$L$VLIB_mixtureOfGaussiansS32_d$66$E:
    3153                    ;** --------------------------------------------------------------------------*
    3154 00000d34           $C$DW$L$VLIB_mixtureOfGaussiansS32_d$67$B:
    3155                    ;          EXCLUSIVE CPU CYCLES: 4
    3156                    ;** 214 -----------------------    printf((const char *)"\tError in Variance: Image %d, Pixel %d, Mode
    3157                    ;** 215 -----------------------    status_nat_vs_ref = 0;
    3158                            .dwpsn  file "./../packages/ti/vlib/src/VLIB_mixtureOfGaussiansS32/VLIB_mixtureOfGaussiansS32_
    3159 00000d34     bc55             STW     .D2T2   B5,*+SP(4)        ; |214| 
    3160 00000d36     fc45             STW     .D2T2   B4,*+SP(12)       ; |214| 
    3161 00000d38 01bc82f4             STW     .D2T1   A3,*+SP(16)       ; |214| 
    3162                    
    3163 00000d40 06bc42f7             STW     .D2T2   B13,*+SP(8)       ; |214| 
    3164 00000d44 01820162  ||         ADDKPC  .S2     $C$RL57,B3,0      ; |214| 
    3165                    
    3166 00000d48           $C$RL57:   ; CALL OCCURS {printf} {0}        ; |214| 
    3167 00000d48           $C$DW$L$VLIB_mixtureOfGaussiansS32_d$67$E:
    3168                    ;** --------------------------------------------------------------------------*
    3169 00000d48           $C$DW$L$VLIB_mixtureOfGaussiansS32_d$68$B:
    3170                    ;          EXCLUSIVE CPU CYCLES: 6
    3171                    
    3172 00000d48 022836c7             LDH     .D2T2   *B10++,B4         ; |217| 
    3173 00000d4c 01b00264  ||         LDW     .D1T1   *A12,A3           ; |217| 
    3174                    
    3175                            .dwpsn  file "./../packages/ti/vlib/src/VLIB_mixtureOfGaussiansS32/VLIB_mixtureOfGaussiansS32_
    3176 00000d50 0580a358             ZERO    .L1     A11               ; |215| 
    3177 00000d54     4c6e             NOP             3
    3178                            .dwpsn  file "./../packages/ti/vlib/src/VLIB_mixtureOfGaussiansS32/VLIB_mixtureOfGaussiansS32_
    3179 00000d56     7668             CMPEQ   .L1X    B4,A3,A0          ; |217| 
    3180 00000d60           $C$DW$L$VLIB_mixtureOfGaussiansS32_d$68$E:
    3181                    ;** --------------------------------------------------------------------------*
    3182 00000d60           $C$L23:    
    3183                            .dwpsn  file "./../packages/ti/vlib/src/VLIB_mixtureOfGaussiansS32/VLIB_mixtureOfGaussiansS32_
    3184 00000d60           $C$DW$L$VLIB_mixtureOfGaussiansS32_d$69$B:
    3185                    ;          EXCLUSIVE CPU CYCLES: 6
    3186                    ;**     -----------------------g45:
    3187                    ;** 217 -----------------------    if ( (unsigned)*U$178++ == *U$159 ) goto g47;
    3188                    
    3189 00000d60 c0000a11     [ A0]   B       .S1     $C$L24            ; |217| 
    3190 00000d64 c20021ef  || [ A0]   LDW     .D2T2   *+SP(132),B4
TMS320C6x Assembler PC v7.4.2 Thu Mar 19 12:43:28 2015

Tools Copyright (c) 1996-2012 Texas Instruments Incorporated
package/lib/Regression/regress_d_c/./../packages/ti/vlib/src/VLIB_mixtureOfGaussiansS32/VLIB_mixtureOfGaussiansS32_d.se66 PAGE   59

    3191 00000d68 d280002b! || [!A0]   MVKL    .S2     $C$SL7+0,B5
    3192 00000d6c c7386059  || [ A0]   ADD     .L1     3,A14,A14         ; |209| 
    3193 00000d70 c630205a  || [ A0]   ADD     .L2     1,B12,B12         ; |208| 
    3194                    
    3195                            .dwpsn  file "./../packages/ti/vlib/src/VLIB_mixtureOfGaussiansS32/VLIB_mixtureOfGaussiansS32_
    3196 00000d74 d1b0bda0     [!A0]   SHR     .S1X    B12,5,A3          ; |218| 
    3197 00000d78 d280006a!    [!A0]   MVKH    .S2     $C$SL7+0,B5
    3198 00000d7c d2337b0a     [!A0]   EXTU    .S2     B12,27,27,B4      ; |218| 
    3199                    $C$DW$244       .dwtag  DW_TAG_TI_branch
    3200                            .dwattr $C$DW$244, DW_AT_low_pc(0x00)
    3201                            .dwattr $C$DW$244, DW_AT_name("printf")
    3202                            .dwattr $C$DW$244, DW_AT_TI_call
    3203 00000d80 d0000010!    [!A0]   CALL    .S1     printf            ; |218| 
    3204                            .dwpsn  file "./../packages/ti/vlib/src/VLIB_mixtureOfGaussiansS32/VLIB_mixtureOfGaussiansS32_
    3205 00000d84 c013f058     [ A0]   SUB     .L1X    B4,1,A0           ; |208| 
    3206                            .dwpsn  file "./../packages/ti/vlib/src/VLIB_mixtureOfGaussiansS32/VLIB_mixtureOfGaussiansS32_
    3207                               ; BRANCHCC OCCURS {$C$L24}        ; |217| 
    3208 00000d88           $C$DW$L$VLIB_mixtureOfGaussiansS32_d$69$E:
    3209                    ;** --------------------------------------------------------------------------*
    3210 00000d88           $C$DW$L$VLIB_mixtureOfGaussiansS32_d$70$B:
    3211                    ;          EXCLUSIVE CPU CYCLES: 4
    3212                    ;** 218 -----------------------    printf((const char *)"\tError in Weight: Image %d, Pixel %d, Mode %
    3213                    ;** 219 -----------------------    status_nat_vs_ref = 0;
    3214                            .dwpsn  file "./../packages/ti/vlib/src/VLIB_mixtureOfGaussiansS32/VLIB_mixtureOfGaussiansS32_
    3215 00000d88     bc55             STW     .D2T2   B5,*+SP(4)        ; |218| 
    3216 00000d8a     8cb5             STW     .D2T1   A3,*+SP(16)       ; |218| 
    3217 00000d8c 023c62f6             STW     .D2T2   B4,*+SP(12)       ; |218| 
    3218                    
    3219 00000d90 06bc42f7             STW     .D2T2   B13,*+SP(8)       ; |218| 
    3220 00000d94 01860162  ||         ADDKPC  .S2     $C$RL58,B3,0      ; |218| 
    3221                    
    3222 00000d98           $C$RL58:   ; CALL OCCURS {printf} {0}        ; |218| 
    3223 00000d98           $C$DW$L$VLIB_mixtureOfGaussiansS32_d$70$E:
    3224                    ;** --------------------------------------------------------------------------*
    3225 00000d98           $C$DW$L$VLIB_mixtureOfGaussiansS32_d$71$B:
    3226                    ;          EXCLUSIVE CPU CYCLES: 6
    3227 00000d98 020021ee             LDW     .D2T2   *+SP(132),B4
    3228                            .dwpsn  file "./../packages/ti/vlib/src/VLIB_mixtureOfGaussiansS32/VLIB_mixtureOfGaussiansS32_
    3229 00000da0 0580a358             ZERO    .L1     A11               ; |219| 
    3230                            .dwpsn  file "./../packages/ti/vlib/src/VLIB_mixtureOfGaussiansS32/VLIB_mixtureOfGaussiansS32_
    3231 00000da4 0630205a             ADD     .L2     1,B12,B12         ; |208| 
    3232                            .dwpsn  file "./../packages/ti/vlib/src/VLIB_mixtureOfGaussiansS32/VLIB_mixtureOfGaussiansS32_
    3233 00000da8 07386058             ADD     .L1     3,A14,A14         ; |209| 
    3234 00000dac     0c6e             NOP             1
    3235                            .dwpsn  file "./../packages/ti/vlib/src/VLIB_mixtureOfGaussiansS32/VLIB_mixtureOfGaussiansS32_
    3236 00000dae     fe00             SUB     .L1X    B4,1,A0           ; |208| 
    3237 00000db0           $C$DW$L$VLIB_mixtureOfGaussiansS32_d$71$E:
    3238                    ;** --------------------------------------------------------------------------*
    3239 00000db0           $C$L24:    
    3240                            .dwpsn  file "./../packages/ti/vlib/src/VLIB_mixtureOfGaussiansS32/VLIB_mixtureOfGaussiansS32_
    3241 00000db0           $C$DW$L$VLIB_mixtureOfGaussiansS32_d$72$B:
    3242                    ;          EXCLUSIVE CPU CYCLES: 6
    3243                    ;**     -----------------------g47:
    3244                    ;** 208 -----------------------    ++k;
    3245                    ;** 209 -----------------------    counter += 3;
TMS320C6x Assembler PC v7.4.2 Thu Mar 19 12:43:28 2015

Tools Copyright (c) 1996-2012 Texas Instruments Incorporated
package/lib/Regression/regress_d_c/./../packages/ti/vlib/src/VLIB_mixtureOfGaussiansS32/VLIB_mixtureOfGaussiansS32_d.se66 PAGE   60

    3246                    ;** 208 -----------------------    if ( L$4 = L$4-1 ) goto g41;
    3247                    
    3248 00000db0 cfffe291     [ A0]   B       .S1     $C$L21            ; |208| 
    3249 00000db8 0213e05a  ||         SUB     .L2     B4,1,B4           ; |208| 
    3250 00000db4 c6308059  || [ A0]   ADD     .L1     4,A12,A12         ; |209| 
    3251                    
    3252                            .dwpsn  file "./../packages/ti/vlib/src/VLIB_mixtureOfGaussiansS32/VLIB_mixtureOfGaussiansS32_
    3253 00000dc0 020021fe             STW     .D2T2   B4,*+SP(132)      ; |208| 
    3254                            .dwpsn  file "./../packages/ti/vlib/src/VLIB_mixtureOfGaussiansS32/VLIB_mixtureOfGaussiansS32_
    3255 00000dc4 c23c3664     [ A0]   LDW     .D1T1   *A15++,A4         ; |209| 
    3256 00000dc8 c1b03664     [ A0]   LDW     .D1T1   *A12++,A3         ; |209| 
    3257 00000dcc 00002000             NOP             2
    3258                            .dwpsn  file "./../packages/ti/vlib/src/VLIB_mixtureOfGaussiansS32/VLIB_mixtureOfGaussiansS32_
    3259                               ; BRANCHCC OCCURS {$C$L21}        ; |208| 
    3260 00000dd0           $C$DW$L$VLIB_mixtureOfGaussiansS32_d$72$E:
    3261                    ;** --------------------------------------------------------------------------*
    3262 00000dd0           $C$L25:    
    3263 00000dd0           $C$DW$L$VLIB_mixtureOfGaussiansS32_d$73$B:
    3264                    ;          EXCLUSIVE CPU CYCLES: 18
    3265                    ;**     -----------------------g48:
    3266                    ;** 223 -----------------------    if ( (U$186 = (*(U$12+v$1)).im_size) <= 0 ) goto g53;
    3267 00000dd0 018020ec             LDW     .D2T1   *+SP(128),A3
    3268 00000dd4 00006000             NOP             4
    3269                            .dwpsn  file "./../packages/ti/vlib/src/VLIB_mixtureOfGaussiansS32/VLIB_mixtureOfGaussiansS32_
    3270 00000dd8 018d4078             ADD     .L1     A10,A3,A3         ; |223| 
    3271 00000ddc 050c6266             LDW     .D1T2   *+A3(12),B10      ; |223| 
    3272 00000de0 01b4aca0             SHL     .S1     A13,5,A3
    3273 00000de4 018dbe40             ADDAD   .D1     A3,A13,A3
    3274 00000de8 018d4078             ADD     .L1     A10,A3,A3
    3275 00000dec 00000000             NOP             1
    3276 00000df0 00280ada             CMPGT   .L2     B10,0,B0          ; |223| 
    3277                    
    3278 00000df4 30288121     [!B0]   BNOP    .S1     $C$L28,4          ; |223| 
    3279 00000df8 218c4265  || [ B0]   LDW     .D1T1   *+A3(8),A3
    3280 00000dfc 260027ee  || [ B0]   LDW     .D2T2   *+SP(156),B12     ; |224| 
    3281                    
    3282 00000e00 018ddc40             ADDAW   .D1     A3,A14,A3
    3283                               ; BRANCHCC OCCURS {$C$L28}        ; |223| 
    3284 00000e04           $C$DW$L$VLIB_mixtureOfGaussiansS32_d$73$E:
    3285                    ;** --------------------------------------------------------------------------*
    3286 00000e04           $C$DW$L$VLIB_mixtureOfGaussiansS32_d$74$B:
    3287                    ;          EXCLUSIVE CPU CYCLES: 5
    3288                    ;**     -----------------------    U$159 = counter*4+(v$1[tpi]).staticOut-4;
    3289                    ;**     -----------------------    U$194 = compNum;
    3290                    ;** 224 -----------------------    L$5 = U$186;
    3291                    ;** 224 -----------------------    counter += L$5;
    3292                    ;** 223 -----------------------    k = 0;
    3293                    ;**     -----------------------    #pragma MUST_ITERATE(1, 18446744073709551615, 1)
    3294                    ;**     -----------------------    #pragma LOOP_FLAGS(5120u)
    3295                    
    3296 00000e04 050021ff             STW     .D2T2   B10,*+SP(132)     ; |224| 
    3297 00000e08 078f8058  ||         SUB     .L1     A3,4,A15
    3298                    
    3299 00000e0c 01bc3265             LDW     .D1T1   *++A15,A3         ; |224| 
    3300 00000e10 02303696  ||         LDBU    .D2T2   *B12++,B4         ; |224| 
TMS320C6x Assembler PC v7.4.2 Thu Mar 19 12:43:28 2015

Tools Copyright (c) 1996-2012 Texas Instruments Incorporated
package/lib/Regression/regress_d_c/./../packages/ti/vlib/src/VLIB_mixtureOfGaussiansS32/VLIB_mixtureOfGaussiansS32_d.se66 PAGE   61

    3301                    
    3302                            .dwpsn  file "./../packages/ti/vlib/src/VLIB_mixtureOfGaussiansS32/VLIB_mixtureOfGaussiansS32_
    3303 00000e14 0600a358             ZERO    .L1     A12               ; |223| 
    3304                            .dwpsn  file "./../packages/ti/vlib/src/VLIB_mixtureOfGaussiansS32/VLIB_mixtureOfGaussiansS32_
    3305 00000e18 0729d078             ADD     .L1X    B10,A14,A14       ; |224| 
    3306 00000e1c 00000000             NOP             1
    3307 00000e20           $C$DW$L$VLIB_mixtureOfGaussiansS32_d$74$E:
    3308                    ;*----------------------------------------------------------------------------*
    3309                    ;*   SOFTWARE PIPELINE INFORMATION
    3310                    ;*      Disqualified loop: Loop contains control code
    3311                    ;*----------------------------------------------------------------------------*
    3312 00000e20           $C$L26:    
    3313                            .dwpsn  file "./../packages/ti/vlib/src/VLIB_mixtureOfGaussiansS32/VLIB_mixtureOfGaussiansS32_
    3314 00000e20           $C$DW$L$VLIB_mixtureOfGaussiansS32_d$75$B:
    3315                    ;          EXCLUSIVE CPU CYCLES: 8
    3316                    ;**     -----------------------g50:
    3317                    ;** 224 -----------------------    if ( (unsigned)*U$194++ == *(++U$159) ) goto g52;
    3318 00000e20     0c6e             NOP             1
    3319                            .dwpsn  file "./../packages/ti/vlib/src/VLIB_mixtureOfGaussiansS32/VLIB_mixtureOfGaussiansS32_
    3320 00000e22     7668             CMPEQ   .L1X    B4,A3,A0          ; |224| 
    3321                    
    3322 00000e24 c0242121     [ A0]   BNOP    .S1     $C$L27,1          ; |224| 
    3323 00000e28 c20021ef  || [ A0]   LDW     .D2T2   *+SP(132),B4
    3324 00000e2c d200002b! || [!A0]   MVKL    .S2     $C$SL8+0,B4
    3325 00000e30 c6302058  || [ A0]   ADD     .L1     1,A12,A12         ; |223| 
    3326                    
    3327                            .dwpsn  file "./../packages/ti/vlib/src/VLIB_mixtureOfGaussiansS32/VLIB_mixtureOfGaussiansS32_
    3328 00000e34 d1b37b08     [!A0]   EXTU    .S1     A12,27,27,A3      ; |225| 
    3329                    $C$DW$245       .dwtag  DW_TAG_TI_branch
    3330                            .dwattr $C$DW$245, DW_AT_low_pc(0x00)
    3331                            .dwattr $C$DW$245, DW_AT_name("printf")
    3332                            .dwattr $C$DW$245, DW_AT_TI_call
    3333 00000e38 d0000010!    [!A0]   CALL    .S1     printf            ; |225| 
    3334 00000e40 d200006a!    [!A0]   MVKH    .S2     $C$SL8+0,B4
    3335                            .dwpsn  file "./../packages/ti/vlib/src/VLIB_mixtureOfGaussiansS32/VLIB_mixtureOfGaussiansS32_
    3336 00000e44 c013f058     [ A0]   SUB     .L1X    B4,1,A0           ; |223| 
    3337                            .dwpsn  file "./../packages/ti/vlib/src/VLIB_mixtureOfGaussiansS32/VLIB_mixtureOfGaussiansS32_
    3338                               ; BRANCHCC OCCURS {$C$L27}        ; |224| 
    3339 00000e48           $C$DW$L$VLIB_mixtureOfGaussiansS32_d$75$E:
    3340                    ;** --------------------------------------------------------------------------*
    3341 00000e48           $C$DW$L$VLIB_mixtureOfGaussiansS32_d$76$B:
    3342                    ;          EXCLUSIVE CPU CYCLES: 3
    3343                    ;** 225 -----------------------    printf((const char *)"\tError in Component index: Image %d, Pixel %
    3344                    ;** 226 -----------------------    status_nat_vs_ref = 0;
    3345                            .dwpsn  file "./../packages/ti/vlib/src/VLIB_mixtureOfGaussiansS32/VLIB_mixtureOfGaussiansS32_
    3346 00000e48     bc45             STW     .D2T2   B4,*+SP(4)        ; |225| 
    3347 00000e4a     ec35             STW     .D2T1   A3,*+SP(12)       ; |225| 
    3348                    
    3349 00000e4c 06bc42f7             STW     .D2T2   B13,*+SP(8)       ; |225| 
    3350 00000e50 01850162  ||         ADDKPC  .S2     $C$RL59,B3,0      ; |225| 
    3351                    
    3352 00000e54           $C$RL59:   ; CALL OCCURS {printf} {0}        ; |225| 
    3353 00000e54           $C$DW$L$VLIB_mixtureOfGaussiansS32_d$76$E:
    3354                    ;** --------------------------------------------------------------------------*
    3355 00000e54           $C$DW$L$VLIB_mixtureOfGaussiansS32_d$77$B:
TMS320C6x Assembler PC v7.4.2 Thu Mar 19 12:43:28 2015

Tools Copyright (c) 1996-2012 Texas Instruments Incorporated
package/lib/Regression/regress_d_c/./../packages/ti/vlib/src/VLIB_mixtureOfGaussiansS32/VLIB_mixtureOfGaussiansS32_d.se66 PAGE   62

    3356                    ;          EXCLUSIVE CPU CYCLES: 6
    3357 00000e54 020021ee             LDW     .D2T2   *+SP(132),B4
    3358                            .dwpsn  file "./../packages/ti/vlib/src/VLIB_mixtureOfGaussiansS32/VLIB_mixtureOfGaussiansS32_
    3359 00000e58 0580a358             ZERO    .L1     A11               ; |226| 
    3360                            .dwpsn  file "./../packages/ti/vlib/src/VLIB_mixtureOfGaussiansS32/VLIB_mixtureOfGaussiansS32_
    3361 00000e60 06302058             ADD     .L1     1,A12,A12         ; |223| 
    3362 00000e64     2c6e             NOP             2
    3363 00000e66     fe00             SUB     .L1X    B4,1,A0           ; |223| 
    3364 00000e68           $C$DW$L$VLIB_mixtureOfGaussiansS32_d$77$E:
    3365                    ;** --------------------------------------------------------------------------*
    3366 00000e68           $C$L27:    
    3367                            .dwpsn  file "./../packages/ti/vlib/src/VLIB_mixtureOfGaussiansS32/VLIB_mixtureOfGaussiansS32_
    3368 00000e68           $C$DW$L$VLIB_mixtureOfGaussiansS32_d$78$B:
    3369                    ;          EXCLUSIVE CPU CYCLES: 6
    3370                    ;**     -----------------------g52:
    3371                    ;** 223 -----------------------    ++k;
    3372                    ;** 223 -----------------------    if ( L$5 = L$5-1 ) goto g50;
    3373                    
    3374 00000e68     ee41             SUB     .L2     B4,1,B4           ; |223| 
    3375 00000e6a     182a  || [ A0]   B       .S1     $C$L26            ; |223| 
    3376                    
    3377                            .dwpsn  file "./../packages/ti/vlib/src/VLIB_mixtureOfGaussiansS32/VLIB_mixtureOfGaussiansS32_
    3378 00000e6c 020021fe             STW     .D2T2   B4,*+SP(132)      ; |223| 
    3379                    
    3380 00000e70 c2303697     [ A0]   LDBU    .D2T2   *B12++,B4         ; |224| 
    3381 00000e74 c1bc3264  || [ A0]   LDW     .D1T1   *++A15,A3         ; |224| 
    3382                    
    3383 00000e78 00004000             NOP             3
    3384                               ; BRANCHCC OCCURS {$C$L26}        ; |223| 
    3385 00000e80           $C$DW$L$VLIB_mixtureOfGaussiansS32_d$78$E:
    3386                    ;** --------------------------------------------------------------------------*
    3387 00000e80           $C$L28:    
    3388 00000e80           $C$DW$L$VLIB_mixtureOfGaussiansS32_d$79$B:
    3389                    ;          EXCLUSIVE CPU CYCLES: 7
    3390                    ;**     -----------------------g53:
    3391                    ;** 230 -----------------------    if ( U$186 <= 0 ) goto g58;
    3392                    
    3393 00000e80 00280adb             CMPGT   .L2     B10,0,B0          ; |230| 
    3394 00000e84 01b4aca0  ||         SHL     .S1     A13,5,A3
    3395                    
    3396 00000e88 30001291     [!B0]   B       .S1     $C$L31            ; |230| 
    3397 00000e8c 018dbe41  ||         ADDAD   .D1     A3,A13,A3
    3398 00000e90 2f802aec  || [ B0]   LDW     .D2T1   *+SP(168),A31     ; |231| 
    3399                    
    3400 00000e94 018d4078             ADD     .L1     A10,A3,A3
    3401 00000e98 220c4264     [ B0]   LDW     .D1T1   *+A3(8),A4
    3402 00000e9c 00004000             NOP             3
    3403                            .dwpsn  file "./../packages/ti/vlib/src/VLIB_mixtureOfGaussiansS32/VLIB_mixtureOfGaussiansS32_
    3404                               ; BRANCHCC OCCURS {$C$L31}        ; |230| 
    3405 00000ea0           $C$DW$L$VLIB_mixtureOfGaussiansS32_d$79$E:
    3406                    ;** --------------------------------------------------------------------------*
    3407 00000ea0           $C$DW$L$VLIB_mixtureOfGaussiansS32_d$80$B:
    3408                    ;          EXCLUSIVE CPU CYCLES: 6
    3409                    ;**     -----------------------    U$205 = *(counter*4+(v$1[tpi]).staticOut);
    3410                    ;**     -----------------------    U$217 = *Im_mask_cn;
TMS320C6x Assembler PC v7.4.2 Thu Mar 19 12:43:28 2015

Tools Copyright (c) 1996-2012 Texas Instruments Incorporated
package/lib/Regression/regress_d_c/./../packages/ti/vlib/src/VLIB_mixtureOfGaussiansS32/VLIB_mixtureOfGaussiansS32_d.se66 PAGE   63

    3411                    ;** 231 -----------------------    L$6 = U$186;
    3412                    ;** 230 -----------------------    k = 0;
    3413                    ;**     -----------------------    #pragma MUST_ITERATE(1, 18446744073709551615, 1)
    3414                    ;**     -----------------------    #pragma LOOP_FLAGS(5120u)
    3415 00000ea0 067c0266             LDW     .D1T2   *A31,B12
    3416 00000ea4 0791ca64             LDW     .D1T1   *+A4[A14],A15
    3417                            .dwpsn  file "./../packages/ti/vlib/src/VLIB_mixtureOfGaussiansS32/VLIB_mixtureOfGaussiansS32_
    3418 00000ea8 0600a358             ZERO    .L1     A12               ; |230| 
    3419 00000eac     4c6e             NOP             3
    3420 00000eae           $C$DW$L$VLIB_mixtureOfGaussiansS32_d$80$E:
    3421                    ;*----------------------------------------------------------------------------*
    3422                    ;*   SOFTWARE PIPELINE INFORMATION
    3423                    ;*      Disqualified loop: Loop contains control code
    3424                    ;*----------------------------------------------------------------------------*
    3425 00000eae           $C$L29:    
    3426 00000eae           $C$DW$L$VLIB_mixtureOfGaussiansS32_d$81$B:
    3427                    ;          EXCLUSIVE CPU CYCLES: 10
    3428                    ;**     -----------------------g55:
    3429                    ;** 231 -----------------------    if ( (U$217>>k&1u) == (U$205>>k&1u) ) goto g57;
    3430                    
    3431 00000eae     9606             MV      .L1X    B12,A4            ; |231| 
    3432 00000eb0 01bd89e0  ||         SHRU    .S1     A15,A12,A3        ; |231| 
    3433                    
    3434 00000eb4 021189e1             SHRU    .S1     A4,A12,A4         ; |231| 
    3435 00000eb8 018c2f58  ||         AND     .L1     1,A3,A3           ; |231| 
    3436                    
    3437                            .dwpsn  file "./../packages/ti/vlib/src/VLIB_mixtureOfGaussiansS32/VLIB_mixtureOfGaussiansS32_
    3438 00000ec0 02102f58             AND     .L1     1,A4,A4           ; |231| 
    3439 00000ec4     85e8             CMPEQ   .L1     A4,A3,A0          ; |231| 
    3440                    
    3441 00000ec8 c0292121     [ A0]   BNOP    .S1     $C$L30,1          ; |231| 
    3442 00000ec6     2046  ||         MV      .L1     A0,A1             ; guard predicate rewrite
    3443 00000ecc d200002b! || [!A0]   MVKL    .S2     $C$SL9+0,B4
    3444 00000ed0 c6302940  || [ A0]   ADD     .D1     1,A12,A12         ; |230| 
    3445                    
    3446 00000ed4 d200006a!    [!A0]   MVKH    .S2     $C$SL9+0,B4
    3447                    $C$DW$246       .dwtag  DW_TAG_TI_branch
    3448                            .dwattr $C$DW$246, DW_AT_low_pc(0x00)
    3449                            .dwattr $C$DW$246, DW_AT_name("printf")
    3450                            .dwattr $C$DW$246, DW_AT_TI_call
    3451                    
    3452 00000ed8 d0000011!    [!A0]   CALL    .S1     printf            ; |232| 
    3453 00000ee0 c02bf059  || [ A0]   SUB     .L1X    B10,1,A0          ; |230| 
    3454 00000ee4 852be05a  || [ A1]   SUB     .L2     B10,1,B10         ; |230| 
    3455                    
    3456                            .dwpsn  file "./../packages/ti/vlib/src/VLIB_mixtureOfGaussiansS32/VLIB_mixtureOfGaussiansS32_
    3457 00000ee8 9000a358     [!A1]   ZERO    .L1     A0                ; |230| nullify predicate
    3458 00000eec     19ea     [ A0]   B       .S1     $C$L29            ; |230| 
    3459                            .dwpsn  file "./../packages/ti/vlib/src/VLIB_mixtureOfGaussiansS32/VLIB_mixtureOfGaussiansS32_
    3460                               ; BRANCHCC OCCURS {$C$L30}        ; |231| 
    3461 00000eee           $C$DW$L$VLIB_mixtureOfGaussiansS32_d$81$E:
    3462                    ;** --------------------------------------------------------------------------*
    3463 00000eee           $C$DW$L$VLIB_mixtureOfGaussiansS32_d$82$B:
    3464                    ;          EXCLUSIVE CPU CYCLES: 3
    3465                    ;** 232 -----------------------    printf((const char *)"\tError in Foreground Mask: Image %d, Pixel %
TMS320C6x Assembler PC v7.4.2 Thu Mar 19 12:43:28 2015

Tools Copyright (c) 1996-2012 Texas Instruments Incorporated
package/lib/Regression/regress_d_c/./../packages/ti/vlib/src/VLIB_mixtureOfGaussiansS32/VLIB_mixtureOfGaussiansS32_d.se66 PAGE   64

    3466                    ;** 233 -----------------------    status_nat_vs_ref = 0;
    3467                            .dwpsn  file "./../packages/ti/vlib/src/VLIB_mixtureOfGaussiansS32/VLIB_mixtureOfGaussiansS32_
    3468 00000eee     bc45             STW     .D2T2   B4,*+SP(4)        ; |232| 
    3469 00000ef0 063c62f4             STW     .D2T1   A12,*+SP(12)      ; |232| 
    3470                    
    3471 00000ef4 06bc42f7             STW     .D2T2   B13,*+SP(8)       ; |232| 
    3472 00000ef8 01880162  ||         ADDKPC  .S2     $C$RL60,B3,0      ; |232| 
    3473                    
    3474 00000f00           $C$RL60:   ; CALL OCCURS {printf} {0}        ; |232| 
    3475 00000f00           $C$DW$L$VLIB_mixtureOfGaussiansS32_d$82$E:
    3476                    ;** --------------------------------------------------------------------------*
    3477 00000f00           $C$DW$L$VLIB_mixtureOfGaussiansS32_d$83$B:
    3478                    ;          EXCLUSIVE CPU CYCLES: 2
    3479                            .dwpsn  file "./../packages/ti/vlib/src/VLIB_mixtureOfGaussiansS32/VLIB_mixtureOfGaussiansS32_
    3480 00000f00 002bf058             SUB     .L1X    B10,1,A0          ; |230| 
    3481                    
    3482 00000f10     15ea     [ A0]   B       .S1     $C$L29            ; |230| 
    3483 00000f08 052be05b  ||         SUB     .L2     B10,1,B10         ; |230| 
    3484 00000f0c 06302059  ||         ADD     .L1     1,A12,A12         ; |230| 
    3485 00000f04 05800041  ||         ZERO    .D1     A11               ; |233| 
    3486                    
    3487 00000f12           $C$DW$L$VLIB_mixtureOfGaussiansS32_d$83$E:
    3488                    ;** --------------------------------------------------------------------------*
    3489 00000f12           $C$L30:    
    3490                            .dwpsn  file "./../packages/ti/vlib/src/VLIB_mixtureOfGaussiansS32/VLIB_mixtureOfGaussiansS32_
    3491 00000f12           $C$DW$L$VLIB_mixtureOfGaussiansS32_d$84$B:
    3492                    ;          EXCLUSIVE CPU CYCLES: 5
    3493                    ;**     -----------------------g57:
    3494                    ;** 230 -----------------------    ++k;
    3495                    ;** 230 -----------------------    if ( L$6 = L$6-1 ) goto g55;
    3496 00000f12     8c6e             NOP             5
    3497                            .dwpsn  file "./../packages/ti/vlib/src/VLIB_mixtureOfGaussiansS32/VLIB_mixtureOfGaussiansS32_
    3498                               ; BRANCHCC OCCURS {$C$L29}        ; |230| 
    3499 00000f14           $C$DW$L$VLIB_mixtureOfGaussiansS32_d$84$E:
    3500                    ;** --------------------------------------------------------------------------*
    3501 00000f14           $C$L31:    
    3502 00000f14           $C$DW$L$VLIB_mixtureOfGaussiansS32_d$85$B:
    3503                    ;          EXCLUSIVE CPU CYCLES: 1
    3504                    ;**     -----------------------g58:
    3505                    ;** 237 -----------------------    ++counter;
    3506                            .dwpsn  file "./../packages/ti/vlib/src/VLIB_mixtureOfGaussiansS32/VLIB_mixtureOfGaussiansS32_
    3507 00000f14 07382058             ADD     .L1     1,A14,A14         ; |237| 
    3508 00000f18           $C$DW$L$VLIB_mixtureOfGaussiansS32_d$85$E:
    3509                    ;** --------------------------------------------------------------------------*
    3510 00000f18           $C$DW$L$VLIB_mixtureOfGaussiansS32_d$86$B:
    3511                    ;          EXCLUSIVE CPU CYCLES: 4
    3512 00000f18 018020ec             LDW     .D2T1   *+SP(128),A3
    3513 00000f20 00004000             NOP             3
    3514 00000f24           $C$DW$L$VLIB_mixtureOfGaussiansS32_d$86$E:
    3515                    ;** --------------------------------------------------------------------------*
    3516 00000f24           $C$L32:    
    3517                            .dwpsn  file "./../packages/ti/vlib/src/VLIB_mixtureOfGaussiansS32/VLIB_mixtureOfGaussiansS32_
    3518 00000f24           $C$DW$L$VLIB_mixtureOfGaussiansS32_d$87$B:
    3519                    ;          EXCLUSIVE CPU CYCLES: 14
    3520                    ;**     -----------------------g59:
TMS320C6x Assembler PC v7.4.2 Thu Mar 19 12:43:28 2015

Tools Copyright (c) 1996-2012 Texas Instruments Incorporated
package/lib/Regression/regress_d_c/./../packages/ti/vlib/src/VLIB_mixtureOfGaussiansS32/VLIB_mixtureOfGaussiansS32_d.se66 PAGE   65

    3521                    ;** 179 -----------------------    if ( (*(U$12+v$1)).num_images > (++i) ) goto g36;
    3522                            .dwpsn  file "./../packages/ti/vlib/src/VLIB_mixtureOfGaussiansS32/VLIB_mixtureOfGaussiansS32_
    3523 00000f24 06b4205a             ADD     .L2     1,B13,B13         ; |179| 
    3524 00000f28 018d4078             ADD     .L1     A10,A3,A3         ; |179| 
    3525 00000f2c 018c8264             LDW     .D1T1   *+A3(16),A3       ; |179| 
    3526 00000f30 00006000             NOP             4
    3527 00000f34 000dbafa             CMPGT   .L2X    A3,B13,B0         ; |179| 
    3528 00000f38 2e8da120     [ B0]   BNOP    .S1     $C$L19,5          ; |179| 
    3529                               ; BRANCHCC OCCURS {$C$L19}        ; |179| 
    3530 00000f3c           $C$DW$L$VLIB_mixtureOfGaussiansS32_d$87$E:
    3531                    ;** --------------------------------------------------------------------------*
    3532 00000f3c           $C$L33:    
    3533 00000f3c           $C$DW$L$VLIB_mixtureOfGaussiansS32_d$88$B:
    3534                    ;          EXCLUSIVE CPU CYCLES: 21
    3535                    ;**     -----------------------g60:
    3536                    ;** 242 -----------------------    C$2 = (*(U$12+v$1)).im_size;
    3537                    ;** 242 -----------------------    status_nat_vs_int = VLIB_compare_mem((void *)Im_mask, (void *)Im_ma
    3538                    ;** 247 -----------------------    est_test = 1;
    3539                    ;** 250 -----------------------    sprintf(K$232, (const char *)"%s generated input | Opt results comp
    3540                    ;** 252 -----------------------    C$1 = (*U$13).num_images;
    3541                    ;** 252 -----------------------    VLIB_formula_add_test((*U$13).im_size*C$1, C$1, 0, (status_nat_vs_i
    3542                    ;** 254 -----------------------    goto g62;
    3543 00000f3c 018020ec             LDW     .D2T1   *+SP(128),A3
    3544                            .dwpsn  file "./../packages/ti/vlib/src/VLIB_mixtureOfGaussiansS32/VLIB_mixtureOfGaussiansS32_
    3545 00000f40 02002aee             LDW     .D2T2   *+SP(168),B4      ; |242| 
    3546 00000f44 00004000             NOP             3
    3547 00000f48 018d4078             ADD     .L1     A10,A3,A3         ; |242| 
    3548 00000f4c 018c6264             LDW     .D1T1   *+A3(12),A3       ; |242| 
    3549 00000f50     6c6e             NOP             4
    3550 00000f52     8dca             SHR     .S1     A3,4,A4           ; |242| 
    3551 00000f54     7e42             SHRU    .S1     A4,27,A4          ; |242| 
    3552 00000f56     6230             ADD     .L1     A3,A4,A3          ; |242| 
    3553 00000f58 018c6da0             SHR     .S1     A3,3,A3           ; |242| 
    3554                    $C$DW$247       .dwtag  DW_TAG_TI_branch
    3555                            .dwattr $C$DW$247, DW_AT_low_pc(0x00)
    3556                            .dwattr $C$DW$247, DW_AT_name("VLIB_compare_mem")
    3557                            .dwattr $C$DW$247, DW_AT_TI_call
    3558                    
    3559 00000f60 10000013!            CALLP   .S2     VLIB_compare_mem,B3
    3560 00000f64 020029ed  ||         LDW     .D2T1   *+SP(164),A4      ; |242| 
    3561 00000f68 030f8f58  ||         AND     .L1     -4,A3,A6          ; |242| 
    3562                    
    3563 00000f6c           $C$RL61:   ; CALL OCCURS {VLIB_compare_mem} {0}  ; |242| 
    3564 00000f6c           $C$DW$L$VLIB_mixtureOfGaussiansS32_d$88$E:
    3565                    ;** --------------------------------------------------------------------------*
    3566 00000f6c           $C$DW$L$VLIB_mixtureOfGaussiansS32_d$89$B:
    3567                    ;          EXCLUSIVE CPU CYCLES: 29
    3568                    
    3569 00000f6c 022c82e7             LDW     .D2T2   *+B11(16),B4      ; |250| 
    3570 00000f70 0380002a! ||         MVKL    .S2     testPatternString,B7
    3571                    
    3572 00000f74 02ac62e7             LDW     .D2T2   *+B11(12),B5      ; |250| 
    3573 00000f78 0300002a! ||         MVKL    .S2     $C$SL10+0,B6
    3574                    
    3575 00000f7c 0380006a!            MVKH    .S2     testPatternString,B7
TMS320C6x Assembler PC v7.4.2 Thu Mar 19 12:43:28 2015

Tools Copyright (c) 1996-2012 Texas Instruments Incorporated
package/lib/Regression/regress_d_c/./../packages/ti/vlib/src/VLIB_mixtureOfGaussiansS32/VLIB_mixtureOfGaussiansS32_d.se66 PAGE   66

    3576                    
    3577 00000f80     4646             MV      .L1     A4,A10            ; |242| 
    3578 00000f88 02000028! ||         MVKL    .S1     est_test,A4
    3579 00000f84 0300006b! ||         MVKH    .S2     $C$SL10+0,B6
    3580 00000f82     dc75  ||         STW     .D2T2   B7,*+SP(8)        ; |250| 
    3581                    
    3582 00000f8c 02000069!            MVKH    .S1     est_test,A4
    3583 00000f90     25a6  ||         MVK     .L1     1,A3              ; |247| 
    3584 00000f92     bc65  ||         STW     .D2T2   B6,*+SP(4)        ; |250| 
    3585                    
    3586 00000f94     0034             STW     .D1T1   A3,*A4            ; |247| 
    3587 00000f98 02000028! ||         MVKL    .S1     desc,A4
    3588 00000f96     9cc5  ||         STW     .D2T2   B4,*+SP(16)       ; |250| 
    3589                    
    3590                    $C$DW$248       .dwtag  DW_TAG_TI_branch
    3591                            .dwattr $C$DW$248, DW_AT_low_pc(0x00)
    3592                            .dwattr $C$DW$248, DW_AT_name("sprintf")
    3593                            .dwattr $C$DW$248, DW_AT_TI_call
    3594                    
    3595 00000fa0 10000013!            CALLP   .S2     sprintf,B3
    3596 00000fa4 02bc62f7  ||         STW     .D2T2   B5,*+SP(12)       ; |250| 
    3597 00000fa8 02000068! ||         MVKH    .S1     desc,A4
    3598                    
    3599                            .dwpsn  file "./../packages/ti/vlib/src/VLIB_mixtureOfGaussiansS32/VLIB_mixtureOfGaussiansS32_
    3600 00000fac           $C$RL62:   ; CALL OCCURS {sprintf} {0}       ; |250| 
    3601                            .dwpsn  file "./../packages/ti/vlib/src/VLIB_mixtureOfGaussiansS32/VLIB_mixtureOfGaussiansS32_
    3602 00000fac 02ac62e6             LDW     .D2T2   *+B11(12),B5      ; |252| 
    3603 00000fb0 022c82e6             LDW     .D2T2   *+B11(16),B4      ; |252| 
    3604 00000fb4 01ac0a58             CMPEQ   .L1     A11,0,A3          ; |252| 
    3605 00000fb8 02280a58             CMPEQ   .L1     A10,0,A4          ; |252| 
    3606 00000fbc 01906ff8             OR      .L1     A3,A4,A3          ; |252| 
    3607 00000fc0 04000028!            MVKL    .S1     desc,A8
    3608 00000fc4 02948802             MPY32   .M2     B4,B5,B5          ; |252| 
    3609 00000fc8 030c1fda             MV      .L2X    A3,B6             ; |252| 
    3610 00000fcc 04000068!            MVKH    .S1     desc,A8
    3611 00000fd0 0300a358             ZERO    .L1     A6                ; |252| 
    3612 00000fd4 0400a35a             ZERO    .L2     B8                ; |252| 
    3613                    $C$DW$249       .dwtag  DW_TAG_TI_branch
    3614                            .dwattr $C$DW$249, DW_AT_low_pc(0x00)
    3615                            .dwattr $C$DW$249, DW_AT_name("VLIB_formula_add_test")
    3616                            .dwattr $C$DW$249, DW_AT_TI_call
    3617                    
    3618 00000fd8 10000013!            CALLP   .S2     VLIB_formula_add_test,B3
    3619 00000fdc 02141fd8  ||         MV      .L1X    B5,A4             ; |252| 
    3620                    
    3621 00000fe0           $C$RL63:   ; CALL OCCURS {VLIB_formula_add_test} {0}  ; |252| 
    3622 00000fe0           $C$DW$L$VLIB_mixtureOfGaussiansS32_d$89$E:
    3623                    ;** --------------------------------------------------------------------------*
    3624 00000fe0           $C$DW$L$VLIB_mixtureOfGaussiansS32_d$90$B:
    3625                    ;          EXCLUSIVE CPU CYCLES: 6
    3626                            .dwpsn  file "./../packages/ti/vlib/src/VLIB_mixtureOfGaussiansS32/VLIB_mixtureOfGaussiansS32_
    3627 00000fe0 00000a10             B       .S1     $C$L35            ; |254| 
    3628                            .dwpsn  file "./../packages/ti/vlib/src/VLIB_mixtureOfGaussiansS32/VLIB_mixtureOfGaussiansS32_
    3629                    ;----------------------------------------------------------------------
    3630                    ; 262 | free(Im_mask_cn);                                                      
TMS320C6x Assembler PC v7.4.2 Thu Mar 19 12:43:28 2015

Tools Copyright (c) 1996-2012 Texas Instruments Incorporated
package/lib/Regression/regress_d_c/./../packages/ti/vlib/src/VLIB_mixtureOfGaussiansS32/VLIB_mixtureOfGaussiansS32_d.se66 PAGE   67

    3631                    ;----------------------------------------------------------------------
    3632                    $C$DW$250       .dwtag  DW_TAG_TI_branch
    3633                            .dwattr $C$DW$250, DW_AT_low_pc(0x00)
    3634                            .dwattr $C$DW$250, DW_AT_name("free")
    3635                            .dwattr $C$DW$250, DW_AT_TI_call
    3636 00000fe4 00000010!            CALL    .S1     free              ; |262| 
    3637 00000fe8 02002aec             LDW     .D2T1   *+SP(168),A4      ; |262| 
    3638 00000fec 00004000             NOP             3
    3639                            .dwpsn  file "./../packages/ti/vlib/src/VLIB_mixtureOfGaussiansS32/VLIB_mixtureOfGaussiansS32_
    3640                               ; BRANCH OCCURS {$C$L35}          ; |254| 
    3641 00000ff0           $C$DW$L$VLIB_mixtureOfGaussiansS32_d$90$E:
    3642                    ;** --------------------------------------------------------------------------*
    3643 00000ff0           $C$L34:    
    3644                            .dwpsn  file "./../packages/ti/vlib/src/VLIB_mixtureOfGaussiansS32/VLIB_mixtureOfGaussiansS32_
    3645                    $C$DW$L$VLIB_mixtureOfGaussiansS32_d$91$B:
    3646                    ;          EXCLUSIVE CPU CYCLES: 6
    3647                    ;**     -----------------------g61:
    3648                    ;** 256 -----------------------    sprintf(K$232, (const char *)"im_size=%d, num_images=%d", (*U$13).i
    3649                    ;** 258 -----------------------    VLIB_skip_test(K$232);
    3650                    $C$DW$251       .dwtag  DW_TAG_TI_branch
    3651                            .dwattr $C$DW$251, DW_AT_low_pc(0x04)
    3652                            .dwattr $C$DW$251, DW_AT_name("sprintf")
    3653                            .dwattr $C$DW$251, DW_AT_TI_call
    3654                    
    3655 00000ff0 02ac62e7             LDW     .D2T2   *+B11(12),B5      ; |256| 
    3656 00000ff4 00000011! ||         CALL    .S1     sprintf           ; |256| 
    3657 00000ff8 0300002a! ||         MVKL    .S2     $C$SL11+0,B6
    3658                    
    3659 00000ffc 0300006b!            MVKH    .S2     $C$SL11+0,B6
    3660 00001000 02000028! ||         MVKL    .S1     desc,A4
    3661                    
    3662 00001004 02000068!            MVKH    .S1     desc,A4
    3663                            .dwpsn  file "./../packages/ti/vlib/src/VLIB_mixtureOfGaussiansS32/VLIB_mixtureOfGaussiansS32_
    3664 00001008     bc65             STW     .D2T2   B6,*+SP(4)        ; |256| 
    3665 0000100a     fc45             STW     .D2T2   B4,*+SP(12)       ; |256| 
    3666                    
    3667 00001010 02bc42f6             STW     .D2T2   B5,*+SP(8)        ; |256| 
    3668 0000100c 01850163  ||         ADDKPC  .S2     $C$RL64,B3,0      ; |256| 
    3669                    
    3670 00001014           $C$RL64:   ; CALL OCCURS {sprintf} {0}       ; |256| 
    3671 00001014           $C$DW$L$VLIB_mixtureOfGaussiansS32_d$91$E:
    3672                    ;** --------------------------------------------------------------------------*
    3673 00001014           $C$DW$L$VLIB_mixtureOfGaussiansS32_d$92$B:
    3674                    ;          EXCLUSIVE CPU CYCLES: 12
    3675 00001014 02000028!            MVKL    .S1     desc,A4
    3676                    $C$DW$252       .dwtag  DW_TAG_TI_branch
    3677                            .dwattr $C$DW$252, DW_AT_low_pc(0x00)
    3678                            .dwattr $C$DW$252, DW_AT_name("VLIB_skip_test")
    3679                            .dwattr $C$DW$252, DW_AT_TI_call
    3680                    
    3681 00001018 10000013!            CALLP   .S2     VLIB_skip_test,B3
    3682 00001020 02000068! ||         MVKH    .S1     desc,A4
    3683                    
    3684                            .dwpsn  file "./../packages/ti/vlib/src/VLIB_mixtureOfGaussiansS32/VLIB_mixtureOfGaussiansS32_
    3685 00001024           $C$RL65:   ; CALL OCCURS {VLIB_skip_test} {0}  ; |258| 
TMS320C6x Assembler PC v7.4.2 Thu Mar 19 12:43:28 2015

Tools Copyright (c) 1996-2012 Texas Instruments Incorporated
package/lib/Regression/regress_d_c/./../packages/ti/vlib/src/VLIB_mixtureOfGaussiansS32/VLIB_mixtureOfGaussiansS32_d.se66 PAGE   68

    3686                            .dwpsn  file "./../packages/ti/vlib/src/VLIB_mixtureOfGaussiansS32/VLIB_mixtureOfGaussiansS32_
    3687                    $C$DW$253       .dwtag  DW_TAG_TI_branch
    3688                            .dwattr $C$DW$253, DW_AT_low_pc(0x00)
    3689                            .dwattr $C$DW$253, DW_AT_name("free")
    3690                            .dwattr $C$DW$253, DW_AT_TI_call
    3691 00001024 00000010!            CALL    .S1     free              ; |262| 
    3692 00001028 02002aec             LDW     .D2T1   *+SP(168),A4      ; |262| 
    3693 0000102c 00004000             NOP             3
    3694 00001030           $C$DW$L$VLIB_mixtureOfGaussiansS32_d$92$E:
    3695                    ;** --------------------------------------------------------------------------*
    3696 00001030           $C$L35:    
    3697                            .dwpsn  file "./../packages/ti/vlib/src/VLIB_mixtureOfGaussiansS32/VLIB_mixtureOfGaussiansS32_
    3698 00001030           $C$DW$L$VLIB_mixtureOfGaussiansS32_d$93$B:
    3699                    ;          EXCLUSIVE CPU CYCLES: 1
    3700                    ;**     -----------------------g62:
    3701                    ;** 262 -----------------------    free((void *)Im_mask_cn);
    3702                    ;** 263 -----------------------    VLIB_free((void *)Im_mask);
    3703                    ;** 264 -----------------------    VLIB_free((void *)updateMask8);
    3704                    ;** 265 -----------------------    VLIB_free((void *)compNum);
    3705                    ;** 266 -----------------------    VLIB_free((void *)var);
    3706                    ;** 267 -----------------------    VLIB_free((void *)mu);
    3707                    ;** 268 -----------------------    VLIB_free((void *)wt);
    3708                    ;** 269 -----------------------    VLIB_free((void *)Im);
    3709                    ;** 51  -----------------------    U$12 += 40;
    3710                    ;** 51  -----------------------    U$13 += 40;
    3711                    ;** 51  -----------------------    if ( test_cases > (++tpi) ) goto g3;
    3712                            .dwpsn  file "./../packages/ti/vlib/src/VLIB_mixtureOfGaussiansS32/VLIB_mixtureOfGaussiansS32_
    3713 00001030 01850162             ADDKPC  .S2     $C$RL66,B3,0      ; |262| 
    3714                    $C$RL66:   ; CALL OCCURS {free} {0}          ; |262| 
    3715                    $C$DW$L$VLIB_mixtureOfGaussiansS32_d$93$E:
    3716                    ;** --------------------------------------------------------------------------*
    3717                    $C$DW$L$VLIB_mixtureOfGaussiansS32_d$94$B:
    3718                    ;          EXCLUSIVE CPU CYCLES: 42
    3719                    $C$DW$254       .dwtag  DW_TAG_TI_branch
    3720                            .dwattr $C$DW$254, DW_AT_low_pc(0x00)
    3721                            .dwattr $C$DW$254, DW_AT_name("VLIB_free")
    3722                            .dwattr $C$DW$254, DW_AT_TI_call
    3723                    
    3724 00001034 10000013!            CALLP   .S2     VLIB_free,B3
    3725 00001038 020029ed  ||         LDW     .D2T1   *+SP(164),A4      ; |263| 
    3726                    
    3727                            .dwpsn  file "./../packages/ti/vlib/src/VLIB_mixtureOfGaussiansS32/VLIB_mixtureOfGaussiansS32_
    3728                    ;----------------------------------------------------------------------
    3729                    ; 263 | VLIB_free(Im_mask);                                                    
    3730                    ;----------------------------------------------------------------------
    3731                    $C$RL67:   ; CALL OCCURS {VLIB_free} {0}     ; |263| 
    3732                    $C$DW$255       .dwtag  DW_TAG_TI_branch
    3733                            .dwattr $C$DW$255, DW_AT_low_pc(0x00)
    3734                            .dwattr $C$DW$255, DW_AT_name("VLIB_free")
    3735                            .dwattr $C$DW$255, DW_AT_TI_call
    3736                    
    3737 00001040 10000013!            CALLP   .S2     VLIB_free,B3
    3738 00001044 020028ec  ||         LDW     .D2T1   *+SP(160),A4      ; |264| 
    3739                    
    3740                            .dwpsn  file "./../packages/ti/vlib/src/VLIB_mixtureOfGaussiansS32/VLIB_mixtureOfGaussiansS32_
TMS320C6x Assembler PC v7.4.2 Thu Mar 19 12:43:28 2015

Tools Copyright (c) 1996-2012 Texas Instruments Incorporated
package/lib/Regression/regress_d_c/./../packages/ti/vlib/src/VLIB_mixtureOfGaussiansS32/VLIB_mixtureOfGaussiansS32_d.se66 PAGE   69

    3741                    ;----------------------------------------------------------------------
    3742                    ; 264 | VLIB_free(updateMask8);                                                
    3743                    ;----------------------------------------------------------------------
    3744                    $C$RL68:   ; CALL OCCURS {VLIB_free} {0}     ; |264| 
    3745                    $C$DW$256       .dwtag  DW_TAG_TI_branch
    3746                            .dwattr $C$DW$256, DW_AT_low_pc(0x00)
    3747                            .dwattr $C$DW$256, DW_AT_name("VLIB_free")
    3748                            .dwattr $C$DW$256, DW_AT_TI_call
    3749                    
    3750 00001048 10000013!            CALLP   .S2     VLIB_free,B3
    3751 0000104c 020027ec  ||         LDW     .D2T1   *+SP(156),A4      ; |265| 
    3752                    
    3753                            .dwpsn  file "./../packages/ti/vlib/src/VLIB_mixtureOfGaussiansS32/VLIB_mixtureOfGaussiansS32_
    3754                    ;----------------------------------------------------------------------
    3755                    ; 265 | VLIB_free(compNum);                                                    
    3756                    ;----------------------------------------------------------------------
    3757                    $C$RL69:   ; CALL OCCURS {VLIB_free} {0}     ; |265| 
    3758                    $C$DW$257       .dwtag  DW_TAG_TI_branch
    3759                            .dwattr $C$DW$257, DW_AT_low_pc(0x00)
    3760                            .dwattr $C$DW$257, DW_AT_name("VLIB_free")
    3761                            .dwattr $C$DW$257, DW_AT_TI_call
    3762                    
    3763 00001050 10000013!            CALLP   .S2     VLIB_free,B3
    3764 00001054 020026ec  ||         LDW     .D2T1   *+SP(152),A4      ; |266| 
    3765                    
    3766                            .dwpsn  file "./../packages/ti/vlib/src/VLIB_mixtureOfGaussiansS32/VLIB_mixtureOfGaussiansS32_
    3767                    ;----------------------------------------------------------------------
    3768                    ; 266 | VLIB_free(var);                                                        
    3769                    ;----------------------------------------------------------------------
    3770                    $C$RL70:   ; CALL OCCURS {VLIB_free} {0}     ; |266| 
    3771                    $C$DW$258       .dwtag  DW_TAG_TI_branch
    3772                            .dwattr $C$DW$258, DW_AT_low_pc(0x00)
    3773                            .dwattr $C$DW$258, DW_AT_name("VLIB_free")
    3774                            .dwattr $C$DW$258, DW_AT_TI_call
    3775                    
    3776 00001058 10000013!            CALLP   .S2     VLIB_free,B3
    3777 0000105c 020025ec  ||         LDW     .D2T1   *+SP(148),A4      ; |267| 
    3778                    
    3779                            .dwpsn  file "./../packages/ti/vlib/src/VLIB_mixtureOfGaussiansS32/VLIB_mixtureOfGaussiansS32_
    3780                    ;----------------------------------------------------------------------
    3781                    ; 267 | VLIB_free(mu);                                                         
    3782                    ;----------------------------------------------------------------------
    3783                    $C$RL71:   ; CALL OCCURS {VLIB_free} {0}     ; |267| 
    3784                    $C$DW$259       .dwtag  DW_TAG_TI_branch
    3785                            .dwattr $C$DW$259, DW_AT_low_pc(0x00)
    3786                            .dwattr $C$DW$259, DW_AT_name("VLIB_free")
    3787                            .dwattr $C$DW$259, DW_AT_TI_call
    3788                    
    3789 00001060 10000013!            CALLP   .S2     VLIB_free,B3
    3790 00001064 020024ec  ||         LDW     .D2T1   *+SP(144),A4      ; |268| 
    3791                    
    3792                            .dwpsn  file "./../packages/ti/vlib/src/VLIB_mixtureOfGaussiansS32/VLIB_mixtureOfGaussiansS32_
    3793                    ;----------------------------------------------------------------------
    3794                    ; 268 | VLIB_free(wt);                                                         
    3795                    ;----------------------------------------------------------------------
TMS320C6x Assembler PC v7.4.2 Thu Mar 19 12:43:28 2015

Tools Copyright (c) 1996-2012 Texas Instruments Incorporated
package/lib/Regression/regress_d_c/./../packages/ti/vlib/src/VLIB_mixtureOfGaussiansS32/VLIB_mixtureOfGaussiansS32_d.se66 PAGE   70

    3796                    $C$RL72:   ; CALL OCCURS {VLIB_free} {0}     ; |268| 
    3797                    $C$DW$260       .dwtag  DW_TAG_TI_branch
    3798                            .dwattr $C$DW$260, DW_AT_low_pc(0x00)
    3799                            .dwattr $C$DW$260, DW_AT_name("VLIB_free")
    3800                            .dwattr $C$DW$260, DW_AT_TI_call
    3801                    
    3802 00001068 10000013!            CALLP   .S2     VLIB_free,B3
    3803 0000106c 020023ec  ||         LDW     .D2T1   *+SP(140),A4      ; |269| 
    3804                    
    3805                            .dwpsn  file "./../packages/ti/vlib/src/VLIB_mixtureOfGaussiansS32/VLIB_mixtureOfGaussiansS32_
    3806                    ;----------------------------------------------------------------------
    3807                    ; 269 | VLIB_free(Im);                                                         
    3808                    ;----------------------------------------------------------------------
    3809 00001070           $C$RL73:   ; CALL OCCURS {VLIB_free} {0}     ; |269| 
    3810 00001070           $C$DW$L$VLIB_mixtureOfGaussiansS32_d$94$E:
    3811                    ;** --------------------------------------------------------------------------*
    3812 00001070           $C$DW$L$VLIB_mixtureOfGaussiansS32_d$95$B:
    3813                    ;          EXCLUSIVE CPU CYCLES: 14
    3814 00001070 01800028!            MVKL    .S1     test_cases,A3
    3815 00001074 01800068!            MVKH    .S1     test_cases,A3
    3816                            .dwpsn  file "./../packages/ti/vlib/src/VLIB_mixtureOfGaussiansS32/VLIB_mixtureOfGaussiansS32_
    3817 00001078 018c0264             LDW     .D1T1   *A3,A3            ; |51| 
    3818 0000107c 05801452             ADDK    .S2     40,B11            ; |51| 
    3819 00001080 020020ec             LDW     .D2T1   *+SP(128),A4      ; |51| 
    3820 00001084 06b42058             ADD     .L1     1,A13,A13         ; |51| 
    3821 00001088 00000000             NOP             1
    3822 0000108c 003468f8             CMPGT   .L1     A3,A13,A0         ; |51| 
    3823                    
    3824 00001090 cbfc4121     [ A0]   BNOP    .S1     $C$L1,2           ; |51| 
    3825 00001094 c1ac82e4  || [ A0]   LDW     .D2T1   *+B11(16),A3      ; |61| 
    3826                    
    3827                            .dwpsn  file "./../packages/ti/vlib/src/VLIB_mixtureOfGaussiansS32/VLIB_mixtureOfGaussiansS32_
    3828 00001098 c22c62e6     [ A0]   LDW     .D2T2   *+B11(12),B4      ; |61| 
    3829                            .dwpsn  file "./../packages/ti/vlib/src/VLIB_mixtureOfGaussiansS32/VLIB_mixtureOfGaussiansS32_
    3830 0000109c 02001450             ADDK    .S1     40,A4             ; |51| 
    3831 000010a0 020020fc             STW     .D2T1   A4,*+SP(128)      ; |51| 
    3832                               ; BRANCHCC OCCURS {$C$L1}         ; |51| 
    3833 000010a4           $C$DW$L$VLIB_mixtureOfGaussiansS32_d$95$E:
    3834                    ;** --------------------------------------------------------------------------*
    3835 000010a4           $C$L36:    
    3836                    ;          EXCLUSIVE CPU CYCLES: 8
    3837                    ;**     -----------------------g63:
    3838                    ;** 272 -----------------------    VLIB_profile_cycle_report(2, "N = im_size*num_images; M = num_image
    3839                    ;** 158 -----------------------    printf((const char *)"---------------------------------------------
    3840                    ;** 165 -----------------------    VLIB_stack_memory();  // [21]
    3841                    ;**     -----------------------    return;
    3842 000010a4 0200002a!            MVKL    .S2     $C$SL13+0,B4
    3843                    
    3844 000010a8 03000029!            MVKL    .S1     $C$SL12+0,A6
    3845 000010ac 0200006a! ||         MVKH    .S2     $C$SL13+0,B4
    3846                    
    3847                    $C$DW$261       .dwtag  DW_TAG_TI_branch
    3848                            .dwattr $C$DW$261, DW_AT_low_pc(0x00)
    3849                            .dwattr $C$DW$261, DW_AT_name("VLIB_profile_cycle_report")
    3850                            .dwattr $C$DW$261, DW_AT_TI_call
TMS320C6x Assembler PC v7.4.2 Thu Mar 19 12:43:28 2015

Tools Copyright (c) 1996-2012 Texas Instruments Incorporated
package/lib/Regression/regress_d_c/./../packages/ti/vlib/src/VLIB_mixtureOfGaussiansS32/VLIB_mixtureOfGaussiansS32_d.se66 PAGE   71

    3851                    
    3852 000010b0 10000013!            CALLP   .S2     VLIB_profile_cycle_report,B3
    3853 000010b4 03000069! ||         MVKH    .S1     $C$SL12+0,A6
    3854 000010b8 0208a358  ||         MVK     .L1     0x2,A4            ; |272| 
    3855                    
    3856                            .dwpsn  file "./../packages/ti/vlib/src/VLIB_mixtureOfGaussiansS32/VLIB_mixtureOfGaussiansS32_
    3857                    ;----------------------------------------------------------------------
    3858                    ; 272 | VLIB_profile_cycle_report(vlib_PROFILE_FORMULA_RANGE,                  
    3859                    ; 273 |                           "N = im_size*num_images; M = num_images",    
    3860                    ; 274 |                           "im_size*num_images");                       
    3861                    ; 277 | VLIB_kernel_memory();                                                  
    3862                    ;----------------------------------------------------------------------
    3863 000010bc           $C$RL74:   ; CALL OCCURS {VLIB_profile_cycle_report} {0}  ; |272| 
    3864                    ;** --------------------------------------------------------------------------*
    3865                    ;          EXCLUSIVE CPU CYCLES: 14
    3866 000010bc 0200002a!            MVKL    .S2     $C$SL14+0,B4
    3867 000010c0 0200006a!            MVKH    .S2     $C$SL14+0,B4
    3868                    $C$DW$262       .dwtag  DW_TAG_TI_branch
    3869                            .dwattr $C$DW$262, DW_AT_low_pc(0x00)
    3870                            .dwattr $C$DW$262, DW_AT_name("printf")
    3871                            .dwattr $C$DW$262, DW_AT_TI_call
    3872                    
    3873 000010c4 10000013!            CALLP   .S2     printf,B3
    3874 000010c8 023c22f6  ||         STW     .D2T2   B4,*+SP(4)        ; |158| 
    3875                    
    3876                            .dwpsn  file ".\..\packages\ti\vlib\src\VLIB_mixtureOfGaussiansS32\../common/VLIB_memory.h",li
    3877                    $C$RL75:   ; CALL OCCURS {printf} {0}        ; |158| 
    3878                    $C$DW$263       .dwtag  DW_TAG_TI_branch
    3879                            .dwattr $C$DW$263, DW_AT_low_pc(0x00)
    3880                            .dwattr $C$DW$263, DW_AT_name("VLIB_stack_memory")
    3881                            .dwattr $C$DW$263, DW_AT_TI_call
    3882 000010cc 10000012!            CALLP   .S2     VLIB_stack_memory,B3
    3883                            .dwpsn  file ".\..\packages\ti\vlib\src\VLIB_mixtureOfGaussiansS32\../common/VLIB_memory.h",li
    3884 000010d0           $C$RL76:   ; CALL OCCURS {VLIB_stack_memory} {0}  ; |165| 
    3885                    ;** --------------------------------------------------------------------------*
    3886                    ;          EXCLUSIVE CPU CYCLES: 14
    3887                            .dwpsn  file "./../packages/ti/vlib/src/VLIB_mixtureOfGaussiansS32/VLIB_mixtureOfGaussiansS32_
    3888 000010d0 07805852             ADDK    .S2     176,SP            ; |278| 
    3889                            .dwcfi  cfa_offset, 56
    3890 000010d4     71f7             LDW     .D2T2   *++SP(8),B3
    3891                            .dwcfi  cfa_offset, 48
    3892                            .dwcfi  restore_reg, 19
    3893 000010d6     c677             LDDW    .D2T1   *++SP,A13:A12
    3894                            .dwcfi  cfa_offset, 40
    3895                            .dwcfi  restore_reg, 13
    3896                            .dwcfi  restore_reg, 12
    3897 000010d8     c777             LDDW    .D2T1   *++SP,A15:A14
    3898                            .dwcfi  cfa_offset, 32
    3899                            .dwcfi  restore_reg, 15
    3900                            .dwcfi  restore_reg, 14
    3901 000010da     d577             LDDW    .D2T2   *++SP,B11:B10
    3902                            .dwcfi  cfa_offset, 24
    3903                            .dwcfi  restore_reg, 27
    3904                            .dwcfi  restore_reg, 26
    3905 000010e0 063c33e6             LDDW    .D2T2   *++SP,B13:B12
TMS320C6x Assembler PC v7.4.2 Thu Mar 19 12:43:28 2015

Tools Copyright (c) 1996-2012 Texas Instruments Incorporated
package/lib/Regression/regress_d_c/./../packages/ti/vlib/src/VLIB_mixtureOfGaussiansS32/VLIB_mixtureOfGaussiansS32_d.se66 PAGE   72

    3906                            .dwcfi  cfa_offset, 16
    3907                            .dwcfi  restore_reg, 29
    3908                            .dwcfi  restore_reg, 28
    3909 000010e4 053c52e4             LDW     .D2T1   *++SP(8),A10
    3910                            .dwcfi  cfa_offset, 8
    3911                            .dwcfi  restore_reg, 10
    3912 000010e8 05bc52e4             LDW     .D2T1   *++SP(8),A11      ; |278| 
    3913                            .dwcfi  cfa_offset, 0
    3914                            .dwcfi  restore_reg, 11
    3915                            .dwcfi  cfa_offset, 0
    3916                    $C$DW$264       .dwtag  DW_TAG_TI_branch
    3917                            .dwattr $C$DW$264, DW_AT_low_pc(0x00)
    3918                            .dwattr $C$DW$264, DW_AT_TI_return
    3919 000010ec 008ca362             RETNOP  .S2     B3,5
    3920                               ; BRANCH OCCURS {B3}  
    3921                    
    3922                    $C$DW$265       .dwtag  DW_TAG_TI_loop
    3923                            .dwattr $C$DW$265, DW_AT_name("c:\nightlybuilds\vlib\ti\vlib\vlib\examples\package/lib/Regress
    3924                            .dwattr $C$DW$265, DW_AT_TI_begin_file("./../packages/ti/vlib/src/VLIB_mixtureOfGaussiansS32/V
    3925                            .dwattr $C$DW$265, DW_AT_TI_begin_line(0x33)
    3926                            .dwattr $C$DW$265, DW_AT_TI_end_line(0x10e)
    3927                    $C$DW$266       .dwtag  DW_TAG_TI_loop_range
    3928                            .dwattr $C$DW$266, DW_AT_low_pc($C$DW$L$VLIB_mixtureOfGaussiansS32_d$5$B)
    3929                            .dwattr $C$DW$266, DW_AT_high_pc($C$DW$L$VLIB_mixtureOfGaussiansS32_d$5$E)
    3930                    $C$DW$267       .dwtag  DW_TAG_TI_loop_range
    3931                            .dwattr $C$DW$267, DW_AT_low_pc($C$DW$L$VLIB_mixtureOfGaussiansS32_d$91$B)
    3932                            .dwattr $C$DW$267, DW_AT_high_pc($C$DW$L$VLIB_mixtureOfGaussiansS32_d$91$E)
    3933                    $C$DW$268       .dwtag  DW_TAG_TI_loop_range
    3934                            .dwattr $C$DW$268, DW_AT_low_pc($C$DW$L$VLIB_mixtureOfGaussiansS32_d$54$B)
    3935                            .dwattr $C$DW$268, DW_AT_high_pc($C$DW$L$VLIB_mixtureOfGaussiansS32_d$54$E)
    3936                    $C$DW$269       .dwtag  DW_TAG_TI_loop_range
    3937                            .dwattr $C$DW$269, DW_AT_low_pc($C$DW$L$VLIB_mixtureOfGaussiansS32_d$51$B)
    3938                            .dwattr $C$DW$269, DW_AT_high_pc($C$DW$L$VLIB_mixtureOfGaussiansS32_d$51$E)
    3939                    $C$DW$270       .dwtag  DW_TAG_TI_loop_range
    3940                            .dwattr $C$DW$270, DW_AT_low_pc($C$DW$L$VLIB_mixtureOfGaussiansS32_d$14$B)
    3941                            .dwattr $C$DW$270, DW_AT_high_pc($C$DW$L$VLIB_mixtureOfGaussiansS32_d$14$E)
    3942                    $C$DW$271       .dwtag  DW_TAG_TI_loop_range
    3943                            .dwattr $C$DW$271, DW_AT_low_pc($C$DW$L$VLIB_mixtureOfGaussiansS32_d$11$B)
    3944                            .dwattr $C$DW$271, DW_AT_high_pc($C$DW$L$VLIB_mixtureOfGaussiansS32_d$11$E)
    3945                    $C$DW$272       .dwtag  DW_TAG_TI_loop_range
    3946                            .dwattr $C$DW$272, DW_AT_low_pc($C$DW$L$VLIB_mixtureOfGaussiansS32_d$6$B)
    3947                            .dwattr $C$DW$272, DW_AT_high_pc($C$DW$L$VLIB_mixtureOfGaussiansS32_d$6$E)
    3948                    $C$DW$273       .dwtag  DW_TAG_TI_loop_range
    3949                            .dwattr $C$DW$273, DW_AT_low_pc($C$DW$L$VLIB_mixtureOfGaussiansS32_d$7$B)
    3950                            .dwattr $C$DW$273, DW_AT_high_pc($C$DW$L$VLIB_mixtureOfGaussiansS32_d$7$E)
    3951                    $C$DW$274       .dwtag  DW_TAG_TI_loop_range
    3952                            .dwattr $C$DW$274, DW_AT_low_pc($C$DW$L$VLIB_mixtureOfGaussiansS32_d$8$B)
    3953                            .dwattr $C$DW$274, DW_AT_high_pc($C$DW$L$VLIB_mixtureOfGaussiansS32_d$8$E)
    3954                    $C$DW$275       .dwtag  DW_TAG_TI_loop_range
    3955                            .dwattr $C$DW$275, DW_AT_low_pc($C$DW$L$VLIB_mixtureOfGaussiansS32_d$9$B)
    3956                            .dwattr $C$DW$275, DW_AT_high_pc($C$DW$L$VLIB_mixtureOfGaussiansS32_d$9$E)
    3957                    $C$DW$276       .dwtag  DW_TAG_TI_loop_range
    3958                            .dwattr $C$DW$276, DW_AT_low_pc($C$DW$L$VLIB_mixtureOfGaussiansS32_d$10$B)
    3959                            .dwattr $C$DW$276, DW_AT_high_pc($C$DW$L$VLIB_mixtureOfGaussiansS32_d$10$E)
    3960                    $C$DW$277       .dwtag  DW_TAG_TI_loop_range
TMS320C6x Assembler PC v7.4.2 Thu Mar 19 12:43:28 2015

Tools Copyright (c) 1996-2012 Texas Instruments Incorporated
package/lib/Regression/regress_d_c/./../packages/ti/vlib/src/VLIB_mixtureOfGaussiansS32/VLIB_mixtureOfGaussiansS32_d.se66 PAGE   73

    3961                            .dwattr $C$DW$277, DW_AT_low_pc($C$DW$L$VLIB_mixtureOfGaussiansS32_d$12$B)
    3962                            .dwattr $C$DW$277, DW_AT_high_pc($C$DW$L$VLIB_mixtureOfGaussiansS32_d$12$E)
    3963                    $C$DW$278       .dwtag  DW_TAG_TI_loop_range
    3964                            .dwattr $C$DW$278, DW_AT_low_pc($C$DW$L$VLIB_mixtureOfGaussiansS32_d$13$B)
    3965                            .dwattr $C$DW$278, DW_AT_high_pc($C$DW$L$VLIB_mixtureOfGaussiansS32_d$13$E)
    3966                    $C$DW$279       .dwtag  DW_TAG_TI_loop_range
    3967                            .dwattr $C$DW$279, DW_AT_low_pc($C$DW$L$VLIB_mixtureOfGaussiansS32_d$48$B)
    3968                            .dwattr $C$DW$279, DW_AT_high_pc($C$DW$L$VLIB_mixtureOfGaussiansS32_d$48$E)
    3969                    $C$DW$280       .dwtag  DW_TAG_TI_loop_range
    3970                            .dwattr $C$DW$280, DW_AT_low_pc($C$DW$L$VLIB_mixtureOfGaussiansS32_d$49$B)
    3971                            .dwattr $C$DW$280, DW_AT_high_pc($C$DW$L$VLIB_mixtureOfGaussiansS32_d$49$E)
    3972                    $C$DW$281       .dwtag  DW_TAG_TI_loop_range
    3973                            .dwattr $C$DW$281, DW_AT_low_pc($C$DW$L$VLIB_mixtureOfGaussiansS32_d$50$B)
    3974                            .dwattr $C$DW$281, DW_AT_high_pc($C$DW$L$VLIB_mixtureOfGaussiansS32_d$50$E)
    3975                    $C$DW$282       .dwtag  DW_TAG_TI_loop_range
    3976                            .dwattr $C$DW$282, DW_AT_low_pc($C$DW$L$VLIB_mixtureOfGaussiansS32_d$52$B)
    3977                            .dwattr $C$DW$282, DW_AT_high_pc($C$DW$L$VLIB_mixtureOfGaussiansS32_d$52$E)
    3978                    $C$DW$283       .dwtag  DW_TAG_TI_loop_range
    3979                            .dwattr $C$DW$283, DW_AT_low_pc($C$DW$L$VLIB_mixtureOfGaussiansS32_d$53$B)
    3980                            .dwattr $C$DW$283, DW_AT_high_pc($C$DW$L$VLIB_mixtureOfGaussiansS32_d$53$E)
    3981                    $C$DW$284       .dwtag  DW_TAG_TI_loop_range
    3982                            .dwattr $C$DW$284, DW_AT_low_pc($C$DW$L$VLIB_mixtureOfGaussiansS32_d$88$B)
    3983                            .dwattr $C$DW$284, DW_AT_high_pc($C$DW$L$VLIB_mixtureOfGaussiansS32_d$88$E)
    3984                    $C$DW$285       .dwtag  DW_TAG_TI_loop_range
    3985                            .dwattr $C$DW$285, DW_AT_low_pc($C$DW$L$VLIB_mixtureOfGaussiansS32_d$89$B)
    3986                            .dwattr $C$DW$285, DW_AT_high_pc($C$DW$L$VLIB_mixtureOfGaussiansS32_d$89$E)
    3987                    $C$DW$286       .dwtag  DW_TAG_TI_loop_range
    3988                            .dwattr $C$DW$286, DW_AT_low_pc($C$DW$L$VLIB_mixtureOfGaussiansS32_d$90$B)
    3989                            .dwattr $C$DW$286, DW_AT_high_pc($C$DW$L$VLIB_mixtureOfGaussiansS32_d$90$E)
    3990                    $C$DW$287       .dwtag  DW_TAG_TI_loop_range
    3991                            .dwattr $C$DW$287, DW_AT_low_pc($C$DW$L$VLIB_mixtureOfGaussiansS32_d$92$B)
    3992                            .dwattr $C$DW$287, DW_AT_high_pc($C$DW$L$VLIB_mixtureOfGaussiansS32_d$92$E)
    3993                    $C$DW$288       .dwtag  DW_TAG_TI_loop_range
    3994                            .dwattr $C$DW$288, DW_AT_low_pc($C$DW$L$VLIB_mixtureOfGaussiansS32_d$93$B)
    3995                            .dwattr $C$DW$288, DW_AT_high_pc($C$DW$L$VLIB_mixtureOfGaussiansS32_d$93$E)
    3996                    $C$DW$289       .dwtag  DW_TAG_TI_loop_range
    3997                            .dwattr $C$DW$289, DW_AT_low_pc($C$DW$L$VLIB_mixtureOfGaussiansS32_d$94$B)
    3998                            .dwattr $C$DW$289, DW_AT_high_pc($C$DW$L$VLIB_mixtureOfGaussiansS32_d$94$E)
    3999                    $C$DW$290       .dwtag  DW_TAG_TI_loop_range
    4000                            .dwattr $C$DW$290, DW_AT_low_pc($C$DW$L$VLIB_mixtureOfGaussiansS32_d$95$B)
    4001                            .dwattr $C$DW$290, DW_AT_high_pc($C$DW$L$VLIB_mixtureOfGaussiansS32_d$95$E)
    4002                    
    4003                    $C$DW$291       .dwtag  DW_TAG_TI_loop
    4004                            .dwattr $C$DW$291, DW_AT_name("c:\nightlybuilds\vlib\ti\vlib\vlib\examples\package/lib/Regress
    4005                            .dwattr $C$DW$291, DW_AT_TI_begin_file("./../packages/ti/vlib/src/VLIB_mixtureOfGaussiansS32/V
    4006                            .dwattr $C$DW$291, DW_AT_TI_begin_line(0x64)
    4007                            .dwattr $C$DW$291, DW_AT_TI_end_line(0xa0)
    4008                    $C$DW$292       .dwtag  DW_TAG_TI_loop_range
    4009                            .dwattr $C$DW$292, DW_AT_low_pc($C$DW$L$VLIB_mixtureOfGaussiansS32_d$15$B)
    4010                            .dwattr $C$DW$292, DW_AT_high_pc($C$DW$L$VLIB_mixtureOfGaussiansS32_d$15$E)
    4011                    $C$DW$293       .dwtag  DW_TAG_TI_loop_range
    4012                            .dwattr $C$DW$293, DW_AT_low_pc($C$DW$L$VLIB_mixtureOfGaussiansS32_d$40$B)
    4013                            .dwattr $C$DW$293, DW_AT_high_pc($C$DW$L$VLIB_mixtureOfGaussiansS32_d$40$E)
    4014                    $C$DW$294       .dwtag  DW_TAG_TI_loop_range
    4015                            .dwattr $C$DW$294, DW_AT_low_pc($C$DW$L$VLIB_mixtureOfGaussiansS32_d$34$B)
TMS320C6x Assembler PC v7.4.2 Thu Mar 19 12:43:28 2015

Tools Copyright (c) 1996-2012 Texas Instruments Incorporated
package/lib/Regression/regress_d_c/./../packages/ti/vlib/src/VLIB_mixtureOfGaussiansS32/VLIB_mixtureOfGaussiansS32_d.se66 PAGE   74

    4016                            .dwattr $C$DW$294, DW_AT_high_pc($C$DW$L$VLIB_mixtureOfGaussiansS32_d$34$E)
    4017                    $C$DW$295       .dwtag  DW_TAG_TI_loop_range
    4018                            .dwattr $C$DW$295, DW_AT_low_pc($C$DW$L$VLIB_mixtureOfGaussiansS32_d$22$B)
    4019                            .dwattr $C$DW$295, DW_AT_high_pc($C$DW$L$VLIB_mixtureOfGaussiansS32_d$22$E)
    4020                    $C$DW$296       .dwtag  DW_TAG_TI_loop_range
    4021                            .dwattr $C$DW$296, DW_AT_low_pc($C$DW$L$VLIB_mixtureOfGaussiansS32_d$21$B)
    4022                            .dwattr $C$DW$296, DW_AT_high_pc($C$DW$L$VLIB_mixtureOfGaussiansS32_d$21$E)
    4023                    $C$DW$297       .dwtag  DW_TAG_TI_loop_range
    4024                            .dwattr $C$DW$297, DW_AT_low_pc($C$DW$L$VLIB_mixtureOfGaussiansS32_d$33$B)
    4025                            .dwattr $C$DW$297, DW_AT_high_pc($C$DW$L$VLIB_mixtureOfGaussiansS32_d$33$E)
    4026                    $C$DW$298       .dwtag  DW_TAG_TI_loop_range
    4027                            .dwattr $C$DW$298, DW_AT_low_pc($C$DW$L$VLIB_mixtureOfGaussiansS32_d$39$B)
    4028                            .dwattr $C$DW$298, DW_AT_high_pc($C$DW$L$VLIB_mixtureOfGaussiansS32_d$39$E)
    4029                    $C$DW$299       .dwtag  DW_TAG_TI_loop_range
    4030                            .dwattr $C$DW$299, DW_AT_low_pc($C$DW$L$VLIB_mixtureOfGaussiansS32_d$45$B)
    4031                            .dwattr $C$DW$299, DW_AT_high_pc($C$DW$L$VLIB_mixtureOfGaussiansS32_d$45$E)
    4032                    $C$DW$300       .dwtag  DW_TAG_TI_loop_range
    4033                            .dwattr $C$DW$300, DW_AT_low_pc($C$DW$L$VLIB_mixtureOfGaussiansS32_d$18$B)
    4034                            .dwattr $C$DW$300, DW_AT_high_pc($C$DW$L$VLIB_mixtureOfGaussiansS32_d$18$E)
    4035                    $C$DW$301       .dwtag  DW_TAG_TI_loop_range
    4036                            .dwattr $C$DW$301, DW_AT_low_pc($C$DW$L$VLIB_mixtureOfGaussiansS32_d$16$B)
    4037                            .dwattr $C$DW$301, DW_AT_high_pc($C$DW$L$VLIB_mixtureOfGaussiansS32_d$16$E)
    4038                    $C$DW$302       .dwtag  DW_TAG_TI_loop_range
    4039                            .dwattr $C$DW$302, DW_AT_low_pc($C$DW$L$VLIB_mixtureOfGaussiansS32_d$17$B)
    4040                            .dwattr $C$DW$302, DW_AT_high_pc($C$DW$L$VLIB_mixtureOfGaussiansS32_d$17$E)
    4041                    $C$DW$303       .dwtag  DW_TAG_TI_loop_range
    4042                            .dwattr $C$DW$303, DW_AT_low_pc($C$DW$L$VLIB_mixtureOfGaussiansS32_d$19$B)
    4043                            .dwattr $C$DW$303, DW_AT_high_pc($C$DW$L$VLIB_mixtureOfGaussiansS32_d$19$E)
    4044                    $C$DW$304       .dwtag  DW_TAG_TI_loop_range
    4045                            .dwattr $C$DW$304, DW_AT_low_pc($C$DW$L$VLIB_mixtureOfGaussiansS32_d$20$B)
    4046                            .dwattr $C$DW$304, DW_AT_high_pc($C$DW$L$VLIB_mixtureOfGaussiansS32_d$20$E)
    4047                    $C$DW$305       .dwtag  DW_TAG_TI_loop_range
    4048                            .dwattr $C$DW$305, DW_AT_low_pc($C$DW$L$VLIB_mixtureOfGaussiansS32_d$46$B)
    4049                            .dwattr $C$DW$305, DW_AT_high_pc($C$DW$L$VLIB_mixtureOfGaussiansS32_d$46$E)
    4050                    $C$DW$306       .dwtag  DW_TAG_TI_loop_range
    4051                            .dwattr $C$DW$306, DW_AT_low_pc($C$DW$L$VLIB_mixtureOfGaussiansS32_d$47$B)
    4052                            .dwattr $C$DW$306, DW_AT_high_pc($C$DW$L$VLIB_mixtureOfGaussiansS32_d$47$E)
    4053                    
    4054                    $C$DW$307       .dwtag  DW_TAG_TI_loop
    4055                            .dwattr $C$DW$307, DW_AT_name("c:\nightlybuilds\vlib\ti\vlib\vlib\examples\package/lib/Regress
    4056                            .dwattr $C$DW$307, DW_AT_TI_begin_file("./../packages/ti/vlib/src/VLIB_mixtureOfGaussiansS32/V
    4057                            .dwattr $C$DW$307, DW_AT_TI_begin_line(0x81)
    4058                            .dwattr $C$DW$307, DW_AT_TI_end_line(0x8e)
    4059                    $C$DW$308       .dwtag  DW_TAG_TI_loop_range
    4060                            .dwattr $C$DW$308, DW_AT_low_pc($C$DW$L$VLIB_mixtureOfGaussiansS32_d$23$B)
    4061                            .dwattr $C$DW$308, DW_AT_high_pc($C$DW$L$VLIB_mixtureOfGaussiansS32_d$23$E)
    4062                    $C$DW$309       .dwtag  DW_TAG_TI_loop_range
    4063                            .dwattr $C$DW$309, DW_AT_low_pc($C$DW$L$VLIB_mixtureOfGaussiansS32_d$30$B)
    4064                            .dwattr $C$DW$309, DW_AT_high_pc($C$DW$L$VLIB_mixtureOfGaussiansS32_d$30$E)
    4065                    $C$DW$310       .dwtag  DW_TAG_TI_loop_range
    4066                            .dwattr $C$DW$310, DW_AT_low_pc($C$DW$L$VLIB_mixtureOfGaussiansS32_d$27$B)
    4067                            .dwattr $C$DW$310, DW_AT_high_pc($C$DW$L$VLIB_mixtureOfGaussiansS32_d$27$E)
    4068                    $C$DW$311       .dwtag  DW_TAG_TI_loop_range
    4069                            .dwattr $C$DW$311, DW_AT_low_pc($C$DW$L$VLIB_mixtureOfGaussiansS32_d$24$B)
    4070                            .dwattr $C$DW$311, DW_AT_high_pc($C$DW$L$VLIB_mixtureOfGaussiansS32_d$24$E)
TMS320C6x Assembler PC v7.4.2 Thu Mar 19 12:43:28 2015

Tools Copyright (c) 1996-2012 Texas Instruments Incorporated
package/lib/Regression/regress_d_c/./../packages/ti/vlib/src/VLIB_mixtureOfGaussiansS32/VLIB_mixtureOfGaussiansS32_d.se66 PAGE   75

    4071                    $C$DW$312       .dwtag  DW_TAG_TI_loop_range
    4072                            .dwattr $C$DW$312, DW_AT_low_pc($C$DW$L$VLIB_mixtureOfGaussiansS32_d$25$B)
    4073                            .dwattr $C$DW$312, DW_AT_high_pc($C$DW$L$VLIB_mixtureOfGaussiansS32_d$25$E)
    4074                    $C$DW$313       .dwtag  DW_TAG_TI_loop_range
    4075                            .dwattr $C$DW$313, DW_AT_low_pc($C$DW$L$VLIB_mixtureOfGaussiansS32_d$26$B)
    4076                            .dwattr $C$DW$313, DW_AT_high_pc($C$DW$L$VLIB_mixtureOfGaussiansS32_d$26$E)
    4077                    $C$DW$314       .dwtag  DW_TAG_TI_loop_range
    4078                            .dwattr $C$DW$314, DW_AT_low_pc($C$DW$L$VLIB_mixtureOfGaussiansS32_d$28$B)
    4079                            .dwattr $C$DW$314, DW_AT_high_pc($C$DW$L$VLIB_mixtureOfGaussiansS32_d$28$E)
    4080                    $C$DW$315       .dwtag  DW_TAG_TI_loop_range
    4081                            .dwattr $C$DW$315, DW_AT_low_pc($C$DW$L$VLIB_mixtureOfGaussiansS32_d$29$B)
    4082                            .dwattr $C$DW$315, DW_AT_high_pc($C$DW$L$VLIB_mixtureOfGaussiansS32_d$29$E)
    4083                    $C$DW$316       .dwtag  DW_TAG_TI_loop_range
    4084                            .dwattr $C$DW$316, DW_AT_low_pc($C$DW$L$VLIB_mixtureOfGaussiansS32_d$31$B)
    4085                            .dwattr $C$DW$316, DW_AT_high_pc($C$DW$L$VLIB_mixtureOfGaussiansS32_d$31$E)
    4086                    $C$DW$317       .dwtag  DW_TAG_TI_loop_range
    4087                            .dwattr $C$DW$317, DW_AT_low_pc($C$DW$L$VLIB_mixtureOfGaussiansS32_d$32$B)
    4088                            .dwattr $C$DW$317, DW_AT_high_pc($C$DW$L$VLIB_mixtureOfGaussiansS32_d$32$E)
    4089                            .dwendtag $C$DW$307
    4090                    
    4091                    
    4092                    $C$DW$318       .dwtag  DW_TAG_TI_loop
    4093                            .dwattr $C$DW$318, DW_AT_name("c:\nightlybuilds\vlib\ti\vlib\vlib\examples\package/lib/Regress
    4094                            .dwattr $C$DW$318, DW_AT_TI_begin_file("./../packages/ti/vlib/src/VLIB_mixtureOfGaussiansS32/V
    4095                            .dwattr $C$DW$318, DW_AT_TI_begin_line(0x90)
    4096                            .dwattr $C$DW$318, DW_AT_TI_end_line(0x95)
    4097                    $C$DW$319       .dwtag  DW_TAG_TI_loop_range
    4098                            .dwattr $C$DW$319, DW_AT_low_pc($C$DW$L$VLIB_mixtureOfGaussiansS32_d$35$B)
    4099                            .dwattr $C$DW$319, DW_AT_high_pc($C$DW$L$VLIB_mixtureOfGaussiansS32_d$35$E)
    4100                    $C$DW$320       .dwtag  DW_TAG_TI_loop_range
    4101                            .dwattr $C$DW$320, DW_AT_low_pc($C$DW$L$VLIB_mixtureOfGaussiansS32_d$36$B)
    4102                            .dwattr $C$DW$320, DW_AT_high_pc($C$DW$L$VLIB_mixtureOfGaussiansS32_d$36$E)
    4103                    $C$DW$321       .dwtag  DW_TAG_TI_loop_range
    4104                            .dwattr $C$DW$321, DW_AT_low_pc($C$DW$L$VLIB_mixtureOfGaussiansS32_d$37$B)
    4105                            .dwattr $C$DW$321, DW_AT_high_pc($C$DW$L$VLIB_mixtureOfGaussiansS32_d$37$E)
    4106                    $C$DW$322       .dwtag  DW_TAG_TI_loop_range
    4107                            .dwattr $C$DW$322, DW_AT_low_pc($C$DW$L$VLIB_mixtureOfGaussiansS32_d$38$B)
    4108                            .dwattr $C$DW$322, DW_AT_high_pc($C$DW$L$VLIB_mixtureOfGaussiansS32_d$38$E)
    4109                            .dwendtag $C$DW$318
    4110                    
    4111                    
    4112                    $C$DW$323       .dwtag  DW_TAG_TI_loop
    4113                            .dwattr $C$DW$323, DW_AT_name("c:\nightlybuilds\vlib\ti\vlib\vlib\examples\package/lib/Regress
    4114                            .dwattr $C$DW$323, DW_AT_TI_begin_file("./../packages/ti/vlib/src/VLIB_mixtureOfGaussiansS32/V
    4115                            .dwattr $C$DW$323, DW_AT_TI_begin_line(0x97)
    4116                            .dwattr $C$DW$323, DW_AT_TI_end_line(0x9c)
    4117                    $C$DW$324       .dwtag  DW_TAG_TI_loop_range
    4118                            .dwattr $C$DW$324, DW_AT_low_pc($C$DW$L$VLIB_mixtureOfGaussiansS32_d$41$B)
    4119                            .dwattr $C$DW$324, DW_AT_high_pc($C$DW$L$VLIB_mixtureOfGaussiansS32_d$41$E)
    4120                    $C$DW$325       .dwtag  DW_TAG_TI_loop_range
    4121                            .dwattr $C$DW$325, DW_AT_low_pc($C$DW$L$VLIB_mixtureOfGaussiansS32_d$42$B)
    4122                            .dwattr $C$DW$325, DW_AT_high_pc($C$DW$L$VLIB_mixtureOfGaussiansS32_d$42$E)
    4123                    $C$DW$326       .dwtag  DW_TAG_TI_loop_range
    4124                            .dwattr $C$DW$326, DW_AT_low_pc($C$DW$L$VLIB_mixtureOfGaussiansS32_d$43$B)
    4125                            .dwattr $C$DW$326, DW_AT_high_pc($C$DW$L$VLIB_mixtureOfGaussiansS32_d$43$E)
TMS320C6x Assembler PC v7.4.2 Thu Mar 19 12:43:28 2015

Tools Copyright (c) 1996-2012 Texas Instruments Incorporated
package/lib/Regression/regress_d_c/./../packages/ti/vlib/src/VLIB_mixtureOfGaussiansS32/VLIB_mixtureOfGaussiansS32_d.se66 PAGE   76

    4126                    $C$DW$327       .dwtag  DW_TAG_TI_loop_range
    4127                            .dwattr $C$DW$327, DW_AT_low_pc($C$DW$L$VLIB_mixtureOfGaussiansS32_d$44$B)
    4128                            .dwattr $C$DW$327, DW_AT_high_pc($C$DW$L$VLIB_mixtureOfGaussiansS32_d$44$E)
    4129                            .dwendtag $C$DW$323
    4130                    
    4131                            .dwendtag $C$DW$291
    4132                    
    4133                    
    4134                    $C$DW$328       .dwtag  DW_TAG_TI_loop
    4135                            .dwattr $C$DW$328, DW_AT_name("c:\nightlybuilds\vlib\ti\vlib\vlib\examples\package/lib/Regress
    4136                            .dwattr $C$DW$328, DW_AT_TI_begin_file("./../packages/ti/vlib/src/VLIB_mixtureOfGaussiansS32/V
    4137                            .dwattr $C$DW$328, DW_AT_TI_begin_line(0xb3)
    4138                            .dwattr $C$DW$328, DW_AT_TI_end_line(0xef)
    4139                    $C$DW$329       .dwtag  DW_TAG_TI_loop_range
    4140                            .dwattr $C$DW$329, DW_AT_low_pc($C$DW$L$VLIB_mixtureOfGaussiansS32_d$55$B)
    4141                            .dwattr $C$DW$329, DW_AT_high_pc($C$DW$L$VLIB_mixtureOfGaussiansS32_d$55$E)
    4142                    $C$DW$330       .dwtag  DW_TAG_TI_loop_range
    4143                            .dwattr $C$DW$330, DW_AT_low_pc($C$DW$L$VLIB_mixtureOfGaussiansS32_d$80$B)
    4144                            .dwattr $C$DW$330, DW_AT_high_pc($C$DW$L$VLIB_mixtureOfGaussiansS32_d$80$E)
    4145                    $C$DW$331       .dwtag  DW_TAG_TI_loop_range
    4146                            .dwattr $C$DW$331, DW_AT_low_pc($C$DW$L$VLIB_mixtureOfGaussiansS32_d$74$B)
    4147                            .dwattr $C$DW$331, DW_AT_high_pc($C$DW$L$VLIB_mixtureOfGaussiansS32_d$74$E)
    4148                    $C$DW$332       .dwtag  DW_TAG_TI_loop_range
    4149                            .dwattr $C$DW$332, DW_AT_low_pc($C$DW$L$VLIB_mixtureOfGaussiansS32_d$62$B)
    4150                            .dwattr $C$DW$332, DW_AT_high_pc($C$DW$L$VLIB_mixtureOfGaussiansS32_d$62$E)
    4151                    $C$DW$333       .dwtag  DW_TAG_TI_loop_range
    4152                            .dwattr $C$DW$333, DW_AT_low_pc($C$DW$L$VLIB_mixtureOfGaussiansS32_d$61$B)
    4153                            .dwattr $C$DW$333, DW_AT_high_pc($C$DW$L$VLIB_mixtureOfGaussiansS32_d$61$E)
    4154                    $C$DW$334       .dwtag  DW_TAG_TI_loop_range
    4155                            .dwattr $C$DW$334, DW_AT_low_pc($C$DW$L$VLIB_mixtureOfGaussiansS32_d$73$B)
    4156                            .dwattr $C$DW$334, DW_AT_high_pc($C$DW$L$VLIB_mixtureOfGaussiansS32_d$73$E)
    4157                    $C$DW$335       .dwtag  DW_TAG_TI_loop_range
    4158                            .dwattr $C$DW$335, DW_AT_low_pc($C$DW$L$VLIB_mixtureOfGaussiansS32_d$79$B)
    4159                            .dwattr $C$DW$335, DW_AT_high_pc($C$DW$L$VLIB_mixtureOfGaussiansS32_d$79$E)
    4160                    $C$DW$336       .dwtag  DW_TAG_TI_loop_range
    4161                            .dwattr $C$DW$336, DW_AT_low_pc($C$DW$L$VLIB_mixtureOfGaussiansS32_d$85$B)
    4162                            .dwattr $C$DW$336, DW_AT_high_pc($C$DW$L$VLIB_mixtureOfGaussiansS32_d$85$E)
    4163                    $C$DW$337       .dwtag  DW_TAG_TI_loop_range
    4164                            .dwattr $C$DW$337, DW_AT_low_pc($C$DW$L$VLIB_mixtureOfGaussiansS32_d$58$B)
    4165                            .dwattr $C$DW$337, DW_AT_high_pc($C$DW$L$VLIB_mixtureOfGaussiansS32_d$58$E)
    4166                    $C$DW$338       .dwtag  DW_TAG_TI_loop_range
    4167                            .dwattr $C$DW$338, DW_AT_low_pc($C$DW$L$VLIB_mixtureOfGaussiansS32_d$56$B)
    4168                            .dwattr $C$DW$338, DW_AT_high_pc($C$DW$L$VLIB_mixtureOfGaussiansS32_d$56$E)
    4169                    $C$DW$339       .dwtag  DW_TAG_TI_loop_range
    4170                            .dwattr $C$DW$339, DW_AT_low_pc($C$DW$L$VLIB_mixtureOfGaussiansS32_d$57$B)
    4171                            .dwattr $C$DW$339, DW_AT_high_pc($C$DW$L$VLIB_mixtureOfGaussiansS32_d$57$E)
    4172                    $C$DW$340       .dwtag  DW_TAG_TI_loop_range
    4173                            .dwattr $C$DW$340, DW_AT_low_pc($C$DW$L$VLIB_mixtureOfGaussiansS32_d$59$B)
    4174                            .dwattr $C$DW$340, DW_AT_high_pc($C$DW$L$VLIB_mixtureOfGaussiansS32_d$59$E)
    4175                    $C$DW$341       .dwtag  DW_TAG_TI_loop_range
    4176                            .dwattr $C$DW$341, DW_AT_low_pc($C$DW$L$VLIB_mixtureOfGaussiansS32_d$60$B)
    4177                            .dwattr $C$DW$341, DW_AT_high_pc($C$DW$L$VLIB_mixtureOfGaussiansS32_d$60$E)
    4178                    $C$DW$342       .dwtag  DW_TAG_TI_loop_range
    4179                            .dwattr $C$DW$342, DW_AT_low_pc($C$DW$L$VLIB_mixtureOfGaussiansS32_d$86$B)
    4180                            .dwattr $C$DW$342, DW_AT_high_pc($C$DW$L$VLIB_mixtureOfGaussiansS32_d$86$E)
TMS320C6x Assembler PC v7.4.2 Thu Mar 19 12:43:28 2015

Tools Copyright (c) 1996-2012 Texas Instruments Incorporated
package/lib/Regression/regress_d_c/./../packages/ti/vlib/src/VLIB_mixtureOfGaussiansS32/VLIB_mixtureOfGaussiansS32_d.se66 PAGE   77

    4181                    $C$DW$343       .dwtag  DW_TAG_TI_loop_range
    4182                            .dwattr $C$DW$343, DW_AT_low_pc($C$DW$L$VLIB_mixtureOfGaussiansS32_d$87$B)
    4183                            .dwattr $C$DW$343, DW_AT_high_pc($C$DW$L$VLIB_mixtureOfGaussiansS32_d$87$E)
    4184                    
    4185                    $C$DW$344       .dwtag  DW_TAG_TI_loop
    4186                            .dwattr $C$DW$344, DW_AT_name("c:\nightlybuilds\vlib\ti\vlib\vlib\examples\package/lib/Regress
    4187                            .dwattr $C$DW$344, DW_AT_TI_begin_file("./../packages/ti/vlib/src/VLIB_mixtureOfGaussiansS32/V
    4188                            .dwattr $C$DW$344, DW_AT_TI_begin_line(0xd0)
    4189                            .dwattr $C$DW$344, DW_AT_TI_end_line(0xdd)
    4190                    $C$DW$345       .dwtag  DW_TAG_TI_loop_range
    4191                            .dwattr $C$DW$345, DW_AT_low_pc($C$DW$L$VLIB_mixtureOfGaussiansS32_d$63$B)
    4192                            .dwattr $C$DW$345, DW_AT_high_pc($C$DW$L$VLIB_mixtureOfGaussiansS32_d$63$E)
    4193                    $C$DW$346       .dwtag  DW_TAG_TI_loop_range
    4194                            .dwattr $C$DW$346, DW_AT_low_pc($C$DW$L$VLIB_mixtureOfGaussiansS32_d$70$B)
    4195                            .dwattr $C$DW$346, DW_AT_high_pc($C$DW$L$VLIB_mixtureOfGaussiansS32_d$70$E)
    4196                    $C$DW$347       .dwtag  DW_TAG_TI_loop_range
    4197                            .dwattr $C$DW$347, DW_AT_low_pc($C$DW$L$VLIB_mixtureOfGaussiansS32_d$67$B)
    4198                            .dwattr $C$DW$347, DW_AT_high_pc($C$DW$L$VLIB_mixtureOfGaussiansS32_d$67$E)
    4199                    $C$DW$348       .dwtag  DW_TAG_TI_loop_range
    4200                            .dwattr $C$DW$348, DW_AT_low_pc($C$DW$L$VLIB_mixtureOfGaussiansS32_d$64$B)
    4201                            .dwattr $C$DW$348, DW_AT_high_pc($C$DW$L$VLIB_mixtureOfGaussiansS32_d$64$E)
    4202                    $C$DW$349       .dwtag  DW_TAG_TI_loop_range
    4203                            .dwattr $C$DW$349, DW_AT_low_pc($C$DW$L$VLIB_mixtureOfGaussiansS32_d$65$B)
    4204                            .dwattr $C$DW$349, DW_AT_high_pc($C$DW$L$VLIB_mixtureOfGaussiansS32_d$65$E)
    4205                    $C$DW$350       .dwtag  DW_TAG_TI_loop_range
    4206                            .dwattr $C$DW$350, DW_AT_low_pc($C$DW$L$VLIB_mixtureOfGaussiansS32_d$66$B)
    4207                            .dwattr $C$DW$350, DW_AT_high_pc($C$DW$L$VLIB_mixtureOfGaussiansS32_d$66$E)
    4208                    $C$DW$351       .dwtag  DW_TAG_TI_loop_range
    4209                            .dwattr $C$DW$351, DW_AT_low_pc($C$DW$L$VLIB_mixtureOfGaussiansS32_d$68$B)
    4210                            .dwattr $C$DW$351, DW_AT_high_pc($C$DW$L$VLIB_mixtureOfGaussiansS32_d$68$E)
    4211                    $C$DW$352       .dwtag  DW_TAG_TI_loop_range
    4212                            .dwattr $C$DW$352, DW_AT_low_pc($C$DW$L$VLIB_mixtureOfGaussiansS32_d$69$B)
    4213                            .dwattr $C$DW$352, DW_AT_high_pc($C$DW$L$VLIB_mixtureOfGaussiansS32_d$69$E)
    4214                    $C$DW$353       .dwtag  DW_TAG_TI_loop_range
    4215                            .dwattr $C$DW$353, DW_AT_low_pc($C$DW$L$VLIB_mixtureOfGaussiansS32_d$71$B)
    4216                            .dwattr $C$DW$353, DW_AT_high_pc($C$DW$L$VLIB_mixtureOfGaussiansS32_d$71$E)
    4217                    $C$DW$354       .dwtag  DW_TAG_TI_loop_range
    4218                            .dwattr $C$DW$354, DW_AT_low_pc($C$DW$L$VLIB_mixtureOfGaussiansS32_d$72$B)
    4219                            .dwattr $C$DW$354, DW_AT_high_pc($C$DW$L$VLIB_mixtureOfGaussiansS32_d$72$E)
    4220                            .dwendtag $C$DW$344
    4221                    
    4222                    
    4223                    $C$DW$355       .dwtag  DW_TAG_TI_loop
    4224                            .dwattr $C$DW$355, DW_AT_name("c:\nightlybuilds\vlib\ti\vlib\vlib\examples\package/lib/Regress
    4225                            .dwattr $C$DW$355, DW_AT_TI_begin_file("./../packages/ti/vlib/src/VLIB_mixtureOfGaussiansS32/V
    4226                            .dwattr $C$DW$355, DW_AT_TI_begin_line(0xdf)
    4227                            .dwattr $C$DW$355, DW_AT_TI_end_line(0xe4)
    4228                    $C$DW$356       .dwtag  DW_TAG_TI_loop_range
    4229                            .dwattr $C$DW$356, DW_AT_low_pc($C$DW$L$VLIB_mixtureOfGaussiansS32_d$75$B)
    4230                            .dwattr $C$DW$356, DW_AT_high_pc($C$DW$L$VLIB_mixtureOfGaussiansS32_d$75$E)
    4231                    $C$DW$357       .dwtag  DW_TAG_TI_loop_range
    4232                            .dwattr $C$DW$357, DW_AT_low_pc($C$DW$L$VLIB_mixtureOfGaussiansS32_d$76$B)
    4233                            .dwattr $C$DW$357, DW_AT_high_pc($C$DW$L$VLIB_mixtureOfGaussiansS32_d$76$E)
    4234                    $C$DW$358       .dwtag  DW_TAG_TI_loop_range
    4235                            .dwattr $C$DW$358, DW_AT_low_pc($C$DW$L$VLIB_mixtureOfGaussiansS32_d$77$B)
TMS320C6x Assembler PC v7.4.2 Thu Mar 19 12:43:28 2015

Tools Copyright (c) 1996-2012 Texas Instruments Incorporated
package/lib/Regression/regress_d_c/./../packages/ti/vlib/src/VLIB_mixtureOfGaussiansS32/VLIB_mixtureOfGaussiansS32_d.se66 PAGE   78

    4236                            .dwattr $C$DW$358, DW_AT_high_pc($C$DW$L$VLIB_mixtureOfGaussiansS32_d$77$E)
    4237                    $C$DW$359       .dwtag  DW_TAG_TI_loop_range
    4238                            .dwattr $C$DW$359, DW_AT_low_pc($C$DW$L$VLIB_mixtureOfGaussiansS32_d$78$B)
    4239                            .dwattr $C$DW$359, DW_AT_high_pc($C$DW$L$VLIB_mixtureOfGaussiansS32_d$78$E)
    4240                            .dwendtag $C$DW$355
    4241                    
    4242                    
    4243                    $C$DW$360       .dwtag  DW_TAG_TI_loop
    4244                            .dwattr $C$DW$360, DW_AT_name("c:\nightlybuilds\vlib\ti\vlib\vlib\examples\package/lib/Regress
    4245                            .dwattr $C$DW$360, DW_AT_TI_begin_file("./../packages/ti/vlib/src/VLIB_mixtureOfGaussiansS32/V
    4246                            .dwattr $C$DW$360, DW_AT_TI_begin_line(0xe6)
    4247                            .dwattr $C$DW$360, DW_AT_TI_end_line(0xeb)
    4248                    $C$DW$361       .dwtag  DW_TAG_TI_loop_range
    4249                            .dwattr $C$DW$361, DW_AT_low_pc($C$DW$L$VLIB_mixtureOfGaussiansS32_d$81$B)
    4250                            .dwattr $C$DW$361, DW_AT_high_pc($C$DW$L$VLIB_mixtureOfGaussiansS32_d$81$E)
    4251                    $C$DW$362       .dwtag  DW_TAG_TI_loop_range
    4252                            .dwattr $C$DW$362, DW_AT_low_pc($C$DW$L$VLIB_mixtureOfGaussiansS32_d$82$B)
    4253                            .dwattr $C$DW$362, DW_AT_high_pc($C$DW$L$VLIB_mixtureOfGaussiansS32_d$82$E)
    4254                    $C$DW$363       .dwtag  DW_TAG_TI_loop_range
    4255                            .dwattr $C$DW$363, DW_AT_low_pc($C$DW$L$VLIB_mixtureOfGaussiansS32_d$83$B)
    4256                            .dwattr $C$DW$363, DW_AT_high_pc($C$DW$L$VLIB_mixtureOfGaussiansS32_d$83$E)
    4257                    $C$DW$364       .dwtag  DW_TAG_TI_loop_range
    4258                            .dwattr $C$DW$364, DW_AT_low_pc($C$DW$L$VLIB_mixtureOfGaussiansS32_d$84$B)
    4259                            .dwattr $C$DW$364, DW_AT_high_pc($C$DW$L$VLIB_mixtureOfGaussiansS32_d$84$E)
    4260                            .dwendtag $C$DW$360
    4261                    
    4262                            .dwendtag $C$DW$328
    4263                    
    4264                            .dwendtag $C$DW$265
    4265                    
    4266                            .dwattr $C$DW$109, DW_AT_TI_end_file("./../packages/ti/vlib/src/VLIB_mixtureOfGaussiansS32/VLI
    4267                            .dwattr $C$DW$109, DW_AT_TI_end_line(0x116)
    4268                            .dwattr $C$DW$109, DW_AT_TI_end_column(0x01)
    4269                            .dwendentry
    4270                            .dwendtag $C$DW$109
    4271                    
    4272                    ;; Inlined function references:
    4273                    ;; [ 17] VLIB_profile_start
    4274                    ;; [ 18] VLIB_profile_stop
    4275                    ;; [ 21] VLIB_kernel_memory
    4276                    ;******************************************************************************
    4277                    ;* STRINGS                                                                    *
    4278                    ;******************************************************************************
    4279 00000000                   .sect   ".const:.string"
    4280 00000000 00000056  $C$SL1: .string "VLIB_mixtureOfGaussiansS32",0
         00000001 0000004C 
         00000002 00000049 
         00000003 00000042 
         00000004 0000005F 
         00000005 0000006D 
         00000006 00000069 
         00000007 00000078 
         00000008 00000074 
         00000009 00000075 
         0000000a 00000072 
TMS320C6x Assembler PC v7.4.2 Thu Mar 19 12:43:28 2015

Tools Copyright (c) 1996-2012 Texas Instruments Incorporated
package/lib/Regression/regress_d_c/./../packages/ti/vlib/src/VLIB_mixtureOfGaussiansS32/VLIB_mixtureOfGaussiansS32_d.se66 PAGE   79

         0000000b 00000065 
         0000000c 0000004F 
         0000000d 00000066 
         0000000e 00000047 
         0000000f 00000061 
         00000010 00000075 
         00000011 00000073 
         00000012 00000073 
         00000013 00000069 
         00000014 00000061 
         00000015 0000006E 
         00000016 00000073 
         00000017 00000053 
         00000018 00000033 
         00000019 00000032 
         0000001a 00000000 
    4281 0000001b 0000004C  $C$SL2: .string "Luma  FG    Mean-1   Varn-1   Wght-1        Mean-2   Varn-2"
         0000001c 00000075 
         0000001d 0000006D 
         0000001e 00000061 
         0000001f 00000020 
         00000020 00000020 
         00000021 00000046 
         00000022 00000047 
         00000023 00000020 
         00000024 00000020 
         00000025 00000020 
         00000026 00000020 
         00000027 0000004D 
         00000028 00000065 
         00000029 00000061 
         0000002a 0000006E 
         0000002b 0000002D 
         0000002c 00000031 
         0000002d 00000020 
         0000002e 00000020 
         0000002f 00000020 
         00000030 00000056 
         00000031 00000061 
         00000032 00000072 
         00000033 0000006E 
         00000034 0000002D 
         00000035 00000031 
         00000036 00000020 
         00000037 00000020 
         00000038 00000020 
         00000039 00000057 
         0000003a 00000067 
         0000003b 00000068 
         0000003c 00000074 
         0000003d 0000002D 
         0000003e 00000031 
         0000003f 00000020 
         00000040 00000020 
         00000041 00000020 
TMS320C6x Assembler PC v7.4.2 Thu Mar 19 12:43:28 2015

Tools Copyright (c) 1996-2012 Texas Instruments Incorporated
package/lib/Regression/regress_d_c/./../packages/ti/vlib/src/VLIB_mixtureOfGaussiansS32/VLIB_mixtureOfGaussiansS32_d.se66 PAGE   80

         00000042 00000020 
         00000043 00000020 
         00000044 00000020 
         00000045 00000020 
         00000046 00000020 
         00000047 0000004D 
         00000048 00000065 
         00000049 00000061 
         0000004a 0000006E 
         0000004b 0000002D 
         0000004c 00000032 
         0000004d 00000020 
         0000004e 00000020 
         0000004f 00000020 
         00000050 00000056 
         00000051 00000061 
         00000052 00000072 
         00000053 0000006E 
         00000054 0000002D 
         00000055 00000032 
    4282 00000056 00000020          .string "   Wght-2       Mean-3   Varn-3   Wght-3",10,0
         00000057 00000020 
         00000058 00000020 
         00000059 00000057 
         0000005a 00000067 
         0000005b 00000068 
         0000005c 00000074 
         0000005d 0000002D 
         0000005e 00000032 
         0000005f 00000020 
         00000060 00000020 
         00000061 00000020 
         00000062 00000020 
         00000063 00000020 
         00000064 00000020 
         00000065 00000020 
         00000066 0000004D 
         00000067 00000065 
         00000068 00000061 
         00000069 0000006E 
         0000006a 0000002D 
         0000006b 00000033 
         0000006c 00000020 
         0000006d 00000020 
         0000006e 00000020 
         0000006f 00000056 
         00000070 00000061 
         00000071 00000072 
         00000072 0000006E 
         00000073 0000002D 
         00000074 00000033 
         00000075 00000020 
         00000076 00000020 
         00000077 00000020 
         00000078 00000057 
TMS320C6x Assembler PC v7.4.2 Thu Mar 19 12:43:28 2015

Tools Copyright (c) 1996-2012 Texas Instruments Incorporated
package/lib/Regression/regress_d_c/./../packages/ti/vlib/src/VLIB_mixtureOfGaussiansS32/VLIB_mixtureOfGaussiansS32_d.se66 PAGE   81

         00000079 00000067 
         0000007a 00000068 
         0000007b 00000074 
         0000007c 0000002D 
         0000007d 00000033 
         0000007e 0000000A 
         0000007f 00000000 
    4283 00000080 0000002D  $C$SL3: .string "-----------------------------------------------------------"
         00000081 0000002D 
         00000082 0000002D 
         00000083 0000002D 
         00000084 0000002D 
         00000085 0000002D 
         00000086 0000002D 
         00000087 0000002D 
         00000088 0000002D 
         00000089 0000002D 
         0000008a 0000002D 
         0000008b 0000002D 
         0000008c 0000002D 
         0000008d 0000002D 
         0000008e 0000002D 
         0000008f 0000002D 
         00000090 0000002D 
         00000091 0000002D 
         00000092 0000002D 
         00000093 0000002D 
         00000094 0000002D 
         00000095 0000002D 
         00000096 0000002D 
         00000097 0000002D 
         00000098 0000002D 
         00000099 0000002D 
         0000009a 0000002D 
         0000009b 0000002D 
         0000009c 0000002D 
         0000009d 0000002D 
         0000009e 0000002D 
         0000009f 0000002D 
         000000a0 0000002D 
         000000a1 0000002D 
         000000a2 0000002D 
         000000a3 0000002D 
         000000a4 0000002D 
         000000a5 0000002D 
         000000a6 0000002D 
         000000a7 0000002D 
         000000a8 0000002D 
         000000a9 0000002D 
         000000aa 0000002D 
         000000ab 0000002D 
         000000ac 0000002D 
         000000ad 0000002D 
         000000ae 0000002D 
         000000af 0000002D 
TMS320C6x Assembler PC v7.4.2 Thu Mar 19 12:43:28 2015

Tools Copyright (c) 1996-2012 Texas Instruments Incorporated
package/lib/Regression/regress_d_c/./../packages/ti/vlib/src/VLIB_mixtureOfGaussiansS32/VLIB_mixtureOfGaussiansS32_d.se66 PAGE   82

         000000b0 0000002D 
         000000b1 0000002D 
         000000b2 0000002D 
         000000b3 0000002D 
         000000b4 0000002D 
         000000b5 0000002D 
         000000b6 0000002D 
         000000b7 0000002D 
         000000b8 0000002D 
         000000b9 0000002D 
         000000ba 0000002D 
    4284 000000bb 0000002D          .string "------------------------------------------",10,0
         000000bc 0000002D 
         000000bd 0000002D 
         000000be 0000002D 
         000000bf 0000002D 
         000000c0 0000002D 
         000000c1 0000002D 
         000000c2 0000002D 
         000000c3 0000002D 
         000000c4 0000002D 
         000000c5 0000002D 
         000000c6 0000002D 
         000000c7 0000002D 
         000000c8 0000002D 
         000000c9 0000002D 
         000000ca 0000002D 
         000000cb 0000002D 
         000000cc 0000002D 
         000000cd 0000002D 
         000000ce 0000002D 
         000000cf 0000002D 
         000000d0 0000002D 
         000000d1 0000002D 
         000000d2 0000002D 
         000000d3 0000002D 
         000000d4 0000002D 
         000000d5 0000002D 
         000000d6 0000002D 
         000000d7 0000002D 
         000000d8 0000002D 
         000000d9 0000002D 
         000000da 0000002D 
         000000db 0000002D 
         000000dc 0000002D 
         000000dd 0000002D 
         000000de 0000002D 
         000000df 0000002D 
         000000e0 0000002D 
         000000e1 0000002D 
         000000e2 0000002D 
         000000e3 0000002D 
         000000e4 0000002D 
         000000e5 0000000A 
         000000e6 00000000 
TMS320C6x Assembler PC v7.4.2 Thu Mar 19 12:43:28 2015

Tools Copyright (c) 1996-2012 Texas Instruments Incorporated
package/lib/Regression/regress_d_c/./../packages/ti/vlib/src/VLIB_mixtureOfGaussiansS32/VLIB_mixtureOfGaussiansS32_d.se66 PAGE   83

    4285 000000e7 00000025  $C$SL4: .string "%4d  %d  %c %8.4f %8.4f %8.6f   %c %8.4f %8.4f %8.6f   %c %"
         000000e8 00000034 
         000000e9 00000064 
         000000ea 00000020 
         000000eb 00000020 
         000000ec 00000025 
         000000ed 00000064 
         000000ee 00000020 
         000000ef 00000020 
         000000f0 00000025 
         000000f1 00000063 
         000000f2 00000020 
         000000f3 00000025 
         000000f4 00000038 
         000000f5 0000002E 
         000000f6 00000034 
         000000f7 00000066 
         000000f8 00000020 
         000000f9 00000025 
         000000fa 00000038 
         000000fb 0000002E 
         000000fc 00000034 
         000000fd 00000066 
         000000fe 00000020 
         000000ff 00000025 
         00000100 00000038 
         00000101 0000002E 
         00000102 00000036 
         00000103 00000066 
         00000104 00000020 
         00000105 00000020 
         00000106 00000020 
         00000107 00000025 
         00000108 00000063 
         00000109 00000020 
         0000010a 00000025 
         0000010b 00000038 
         0000010c 0000002E 
         0000010d 00000034 
         0000010e 00000066 
         0000010f 00000020 
         00000110 00000025 
         00000111 00000038 
         00000112 0000002E 
         00000113 00000034 
         00000114 00000066 
         00000115 00000020 
         00000116 00000025 
         00000117 00000038 
         00000118 0000002E 
         00000119 00000036 
         0000011a 00000066 
         0000011b 00000020 
         0000011c 00000020 
         0000011d 00000020 
TMS320C6x Assembler PC v7.4.2 Thu Mar 19 12:43:28 2015

Tools Copyright (c) 1996-2012 Texas Instruments Incorporated
package/lib/Regression/regress_d_c/./../packages/ti/vlib/src/VLIB_mixtureOfGaussiansS32/VLIB_mixtureOfGaussiansS32_d.se66 PAGE   84

         0000011e 00000025 
         0000011f 00000063 
         00000120 00000020 
         00000121 00000025 
    4286 00000122 00000038          .string "8.4f %8.4f %8.6f",10,0
         00000123 0000002E 
         00000124 00000034 
         00000125 00000066 
         00000126 00000020 
         00000127 00000025 
         00000128 00000038 
         00000129 0000002E 
         0000012a 00000034 
         0000012b 00000066 
         0000012c 00000020 
         0000012d 00000025 
         0000012e 00000038 
         0000012f 0000002E 
         00000130 00000036 
         00000131 00000066 
         00000132 0000000A 
         00000133 00000000 
    4287 00000134 00000009  $C$SL5: .string 9,"Error in Mean: Image %d, Pixel %d, Mode %d",10,0
         00000135 00000045 
         00000136 00000072 
         00000137 00000072 
         00000138 0000006F 
         00000139 00000072 
         0000013a 00000020 
         0000013b 00000069 
         0000013c 0000006E 
         0000013d 00000020 
         0000013e 0000004D 
         0000013f 00000065 
         00000140 00000061 
         00000141 0000006E 
         00000142 0000003A 
         00000143 00000020 
         00000144 00000049 
         00000145 0000006D 
         00000146 00000061 
         00000147 00000067 
         00000148 00000065 
         00000149 00000020 
         0000014a 00000025 
         0000014b 00000064 
         0000014c 0000002C 
         0000014d 00000020 
         0000014e 00000050 
         0000014f 00000069 
         00000150 00000078 
         00000151 00000065 
         00000152 0000006C 
         00000153 00000020 
         00000154 00000025 
TMS320C6x Assembler PC v7.4.2 Thu Mar 19 12:43:28 2015

Tools Copyright (c) 1996-2012 Texas Instruments Incorporated
package/lib/Regression/regress_d_c/./../packages/ti/vlib/src/VLIB_mixtureOfGaussiansS32/VLIB_mixtureOfGaussiansS32_d.se66 PAGE   85

         00000155 00000064 
         00000156 0000002C 
         00000157 00000020 
         00000158 0000004D 
         00000159 0000006F 
         0000015a 00000064 
         0000015b 00000065 
         0000015c 00000020 
         0000015d 00000025 
         0000015e 00000064 
         0000015f 0000000A 
         00000160 00000000 
    4288 00000161 00000009  $C$SL6: .string 9,"Error in Variance: Image %d, Pixel %d, Mode %d",10,0
         00000162 00000045 
         00000163 00000072 
         00000164 00000072 
         00000165 0000006F 
         00000166 00000072 
         00000167 00000020 
         00000168 00000069 
         00000169 0000006E 
         0000016a 00000020 
         0000016b 00000056 
         0000016c 00000061 
         0000016d 00000072 
         0000016e 00000069 
         0000016f 00000061 
         00000170 0000006E 
         00000171 00000063 
         00000172 00000065 
         00000173 0000003A 
         00000174 00000020 
         00000175 00000049 
         00000176 0000006D 
         00000177 00000061 
         00000178 00000067 
         00000179 00000065 
         0000017a 00000020 
         0000017b 00000025 
         0000017c 00000064 
         0000017d 0000002C 
         0000017e 00000020 
         0000017f 00000050 
         00000180 00000069 
         00000181 00000078 
         00000182 00000065 
         00000183 0000006C 
         00000184 00000020 
         00000185 00000025 
         00000186 00000064 
         00000187 0000002C 
         00000188 00000020 
         00000189 0000004D 
         0000018a 0000006F 
         0000018b 00000064 
TMS320C6x Assembler PC v7.4.2 Thu Mar 19 12:43:28 2015

Tools Copyright (c) 1996-2012 Texas Instruments Incorporated
package/lib/Regression/regress_d_c/./../packages/ti/vlib/src/VLIB_mixtureOfGaussiansS32/VLIB_mixtureOfGaussiansS32_d.se66 PAGE   86

         0000018c 00000065 
         0000018d 00000020 
         0000018e 00000025 
         0000018f 00000064 
         00000190 0000000A 
         00000191 00000000 
    4289 00000192 00000009  $C$SL7: .string 9,"Error in Weight: Image %d, Pixel %d, Mode %d",10,0
         00000193 00000045 
         00000194 00000072 
         00000195 00000072 
         00000196 0000006F 
         00000197 00000072 
         00000198 00000020 
         00000199 00000069 
         0000019a 0000006E 
         0000019b 00000020 
         0000019c 00000057 
         0000019d 00000065 
         0000019e 00000069 
         0000019f 00000067 
         000001a0 00000068 
         000001a1 00000074 
         000001a2 0000003A 
         000001a3 00000020 
         000001a4 00000049 
         000001a5 0000006D 
         000001a6 00000061 
         000001a7 00000067 
         000001a8 00000065 
         000001a9 00000020 
         000001aa 00000025 
         000001ab 00000064 
         000001ac 0000002C 
         000001ad 00000020 
         000001ae 00000050 
         000001af 00000069 
         000001b0 00000078 
         000001b1 00000065 
         000001b2 0000006C 
         000001b3 00000020 
         000001b4 00000025 
         000001b5 00000064 
         000001b6 0000002C 
         000001b7 00000020 
         000001b8 0000004D 
         000001b9 0000006F 
         000001ba 00000064 
         000001bb 00000065 
         000001bc 00000020 
         000001bd 00000025 
         000001be 00000064 
         000001bf 0000000A 
         000001c0 00000000 
    4290 000001c1 00000009  $C$SL8: .string 9,"Error in Component index: Image %d, Pixel %d",10,0
         000001c2 00000045 
TMS320C6x Assembler PC v7.4.2 Thu Mar 19 12:43:28 2015

Tools Copyright (c) 1996-2012 Texas Instruments Incorporated
package/lib/Regression/regress_d_c/./../packages/ti/vlib/src/VLIB_mixtureOfGaussiansS32/VLIB_mixtureOfGaussiansS32_d.se66 PAGE   87

         000001c3 00000072 
         000001c4 00000072 
         000001c5 0000006F 
         000001c6 00000072 
         000001c7 00000020 
         000001c8 00000069 
         000001c9 0000006E 
         000001ca 00000020 
         000001cb 00000043 
         000001cc 0000006F 
         000001cd 0000006D 
         000001ce 00000070 
         000001cf 0000006F 
         000001d0 0000006E 
         000001d1 00000065 
         000001d2 0000006E 
         000001d3 00000074 
         000001d4 00000020 
         000001d5 00000069 
         000001d6 0000006E 
         000001d7 00000064 
         000001d8 00000065 
         000001d9 00000078 
         000001da 0000003A 
         000001db 00000020 
         000001dc 00000049 
         000001dd 0000006D 
         000001de 00000061 
         000001df 00000067 
         000001e0 00000065 
         000001e1 00000020 
         000001e2 00000025 
         000001e3 00000064 
         000001e4 0000002C 
         000001e5 00000020 
         000001e6 00000050 
         000001e7 00000069 
         000001e8 00000078 
         000001e9 00000065 
         000001ea 0000006C 
         000001eb 00000020 
         000001ec 00000025 
         000001ed 00000064 
         000001ee 0000000A 
         000001ef 00000000 
    4291 000001f0 00000009  $C$SL9: .string 9,"Error in Foreground Mask: Image %d, Pixel %d",10,0
         000001f1 00000045 
         000001f2 00000072 
         000001f3 00000072 
         000001f4 0000006F 
         000001f5 00000072 
         000001f6 00000020 
         000001f7 00000069 
         000001f8 0000006E 
         000001f9 00000020 
TMS320C6x Assembler PC v7.4.2 Thu Mar 19 12:43:28 2015

Tools Copyright (c) 1996-2012 Texas Instruments Incorporated
package/lib/Regression/regress_d_c/./../packages/ti/vlib/src/VLIB_mixtureOfGaussiansS32/VLIB_mixtureOfGaussiansS32_d.se66 PAGE   88

         000001fa 00000046 
         000001fb 0000006F 
         000001fc 00000072 
         000001fd 00000065 
         000001fe 00000067 
         000001ff 00000072 
         00000200 0000006F 
         00000201 00000075 
         00000202 0000006E 
         00000203 00000064 
         00000204 00000020 
         00000205 0000004D 
         00000206 00000061 
         00000207 00000073 
         00000208 0000006B 
         00000209 0000003A 
         0000020a 00000020 
         0000020b 00000049 
         0000020c 0000006D 
         0000020d 00000061 
         0000020e 00000067 
         0000020f 00000065 
         00000210 00000020 
         00000211 00000025 
         00000212 00000064 
         00000213 0000002C 
         00000214 00000020 
         00000215 00000050 
         00000216 00000069 
         00000217 00000078 
         00000218 00000065 
         00000219 0000006C 
         0000021a 00000020 
         0000021b 00000025 
         0000021c 00000064 
         0000021d 0000000A 
         0000021e 00000000 
    4292 0000021f 00000025  $C$SL10:        .string "%s generated input | Opt results compared to NatC results |"
         00000220 00000073 
         00000221 00000020 
         00000222 00000067 
         00000223 00000065 
         00000224 0000006E 
         00000225 00000065 
         00000226 00000072 
         00000227 00000061 
         00000228 00000074 
         00000229 00000065 
         0000022a 00000064 
         0000022b 00000020 
         0000022c 00000069 
         0000022d 0000006E 
         0000022e 00000070 
         0000022f 00000075 
         00000230 00000074 
TMS320C6x Assembler PC v7.4.2 Thu Mar 19 12:43:28 2015

Tools Copyright (c) 1996-2012 Texas Instruments Incorporated
package/lib/Regression/regress_d_c/./../packages/ti/vlib/src/VLIB_mixtureOfGaussiansS32/VLIB_mixtureOfGaussiansS32_d.se66 PAGE   89

         00000231 00000020 
         00000232 0000007C 
         00000233 00000020 
         00000234 0000004F 
         00000235 00000070 
         00000236 00000074 
         00000237 00000020 
         00000238 00000072 
         00000239 00000065 
         0000023a 00000073 
         0000023b 00000075 
         0000023c 0000006C 
         0000023d 00000074 
         0000023e 00000073 
         0000023f 00000020 
         00000240 00000063 
         00000241 0000006F 
         00000242 0000006D 
         00000243 00000070 
         00000244 00000061 
         00000245 00000072 
         00000246 00000065 
         00000247 00000064 
         00000248 00000020 
         00000249 00000074 
         0000024a 0000006F 
         0000024b 00000020 
         0000024c 0000004E 
         0000024d 00000061 
         0000024e 00000074 
         0000024f 00000043 
         00000250 00000020 
         00000251 00000072 
         00000252 00000065 
         00000253 00000073 
         00000254 00000075 
         00000255 0000006C 
         00000256 00000074 
         00000257 00000073 
         00000258 00000020 
         00000259 0000007C 
    4293 0000025a 00000020          .string " im_size=%d, num_images=%d",0
         0000025b 00000069 
         0000025c 0000006D 
         0000025d 0000005F 
         0000025e 00000073 
         0000025f 00000069 
         00000260 0000007A 
         00000261 00000065 
         00000262 0000003D 
         00000263 00000025 
         00000264 00000064 
         00000265 0000002C 
         00000266 00000020 
         00000267 0000006E 
TMS320C6x Assembler PC v7.4.2 Thu Mar 19 12:43:28 2015

Tools Copyright (c) 1996-2012 Texas Instruments Incorporated
package/lib/Regression/regress_d_c/./../packages/ti/vlib/src/VLIB_mixtureOfGaussiansS32/VLIB_mixtureOfGaussiansS32_d.se66 PAGE   90

         00000268 00000075 
         00000269 0000006D 
         0000026a 0000005F 
         0000026b 00000069 
         0000026c 0000006D 
         0000026d 00000061 
         0000026e 00000067 
         0000026f 00000065 
         00000270 00000073 
         00000271 0000003D 
         00000272 00000025 
         00000273 00000064 
         00000274 00000000 
    4294 00000275 00000069  $C$SL11:        .string "im_size=%d, num_images=%d",0
         00000276 0000006D 
         00000277 0000005F 
         00000278 00000073 
         00000279 00000069 
         0000027a 0000007A 
         0000027b 00000065 
         0000027c 0000003D 
         0000027d 00000025 
         0000027e 00000064 
         0000027f 0000002C 
         00000280 00000020 
         00000281 0000006E 
         00000282 00000075 
         00000283 0000006D 
         00000284 0000005F 
         00000285 00000069 
         00000286 0000006D 
         00000287 00000061 
         00000288 00000067 
         00000289 00000065 
         0000028a 00000073 
         0000028b 0000003D 
         0000028c 00000025 
         0000028d 00000064 
         0000028e 00000000 
    4295 0000028f 00000069  $C$SL12:        .string "im_size*num_images",0
         00000290 0000006D 
         00000291 0000005F 
         00000292 00000073 
         00000293 00000069 
         00000294 0000007A 
         00000295 00000065 
         00000296 0000002A 
         00000297 0000006E 
         00000298 00000075 
         00000299 0000006D 
         0000029a 0000005F 
         0000029b 00000069 
         0000029c 0000006D 
         0000029d 00000061 
         0000029e 00000067 
TMS320C6x Assembler PC v7.4.2 Thu Mar 19 12:43:28 2015

Tools Copyright (c) 1996-2012 Texas Instruments Incorporated
package/lib/Regression/regress_d_c/./../packages/ti/vlib/src/VLIB_mixtureOfGaussiansS32/VLIB_mixtureOfGaussiansS32_d.se66 PAGE   91

         0000029f 00000065 
         000002a0 00000073 
         000002a1 00000000 
    4296 000002a2 0000004E  $C$SL13:        .string "N = im_size*num_images; M = num_images",0
         000002a3 00000020 
         000002a4 0000003D 
         000002a5 00000020 
         000002a6 00000069 
         000002a7 0000006D 
         000002a8 0000005F 
         000002a9 00000073 
         000002aa 00000069 
         000002ab 0000007A 
         000002ac 00000065 
         000002ad 0000002A 
         000002ae 0000006E 
         000002af 00000075 
         000002b0 0000006D 
         000002b1 0000005F 
         000002b2 00000069 
         000002b3 0000006D 
         000002b4 00000061 
         000002b5 00000067 
         000002b6 00000065 
         000002b7 00000073 
         000002b8 0000003B 
         000002b9 00000020 
         000002ba 0000004D 
         000002bb 00000020 
         000002bc 0000003D 
         000002bd 00000020 
         000002be 0000006E 
         000002bf 00000075 
         000002c0 0000006D 
         000002c1 0000005F 
         000002c2 00000069 
         000002c3 0000006D 
         000002c4 00000061 
         000002c5 00000067 
         000002c6 00000065 
         000002c7 00000073 
         000002c8 00000000 
    4297 000002c9 0000002D  $C$SL14:        .string "-----------------------------------------------------------"
         000002ca 0000002D 
         000002cb 0000002D 
         000002cc 0000002D 
         000002cd 0000002D 
         000002ce 0000002D 
         000002cf 0000002D 
         000002d0 0000002D 
         000002d1 0000002D 
         000002d2 0000002D 
         000002d3 0000002D 
         000002d4 0000002D 
         000002d5 0000002D 
TMS320C6x Assembler PC v7.4.2 Thu Mar 19 12:43:28 2015

Tools Copyright (c) 1996-2012 Texas Instruments Incorporated
package/lib/Regression/regress_d_c/./../packages/ti/vlib/src/VLIB_mixtureOfGaussiansS32/VLIB_mixtureOfGaussiansS32_d.se66 PAGE   92

         000002d6 0000002D 
         000002d7 0000002D 
         000002d8 0000002D 
         000002d9 0000002D 
         000002da 0000002D 
         000002db 0000002D 
         000002dc 0000002D 
         000002dd 0000002D 
         000002de 0000002D 
         000002df 0000002D 
         000002e0 0000002D 
         000002e1 0000002D 
         000002e2 0000002D 
         000002e3 0000002D 
         000002e4 0000002D 
         000002e5 0000002D 
         000002e6 0000002D 
         000002e7 0000002D 
         000002e8 0000002D 
         000002e9 0000002D 
         000002ea 0000002D 
         000002eb 0000002D 
         000002ec 0000002D 
         000002ed 0000002D 
         000002ee 0000002D 
         000002ef 0000002D 
         000002f0 0000002D 
         000002f1 0000002D 
         000002f2 0000002D 
         000002f3 0000002D 
         000002f4 0000002D 
         000002f5 0000002D 
         000002f6 0000002D 
         000002f7 0000002D 
         000002f8 0000002D 
         000002f9 0000002D 
         000002fa 0000002D 
         000002fb 0000002D 
         000002fc 0000002D 
         000002fd 0000002D 
         000002fe 0000002D 
         000002ff 0000002D 
         00000300 0000002D 
         00000301 0000002D 
         00000302 0000002D 
         00000303 0000002D 
    4298 00000304 0000002D          .string "-----------------------------------------------------------"
         00000305 0000002D 
         00000306 0000002D 
         00000307 0000002D 
         00000308 0000002D 
         00000309 0000002D 
         0000030a 0000002D 
         0000030b 0000002D 
         0000030c 0000002D 
TMS320C6x Assembler PC v7.4.2 Thu Mar 19 12:43:28 2015

Tools Copyright (c) 1996-2012 Texas Instruments Incorporated
package/lib/Regression/regress_d_c/./../packages/ti/vlib/src/VLIB_mixtureOfGaussiansS32/VLIB_mixtureOfGaussiansS32_d.se66 PAGE   93

         0000030d 0000002D 
         0000030e 0000002D 
         0000030f 0000002D 
         00000310 0000002D 
         00000311 0000002D 
         00000312 0000002D 
         00000313 0000002D 
         00000314 0000002D 
         00000315 0000002D 
         00000316 0000002D 
         00000317 0000002D 
         00000318 0000002D 
         00000319 0000002D 
         0000031a 0000002D 
         0000031b 0000002D 
         0000031c 0000002D 
         0000031d 0000002D 
         0000031e 0000002D 
         0000031f 0000002D 
         00000320 0000002D 
         00000321 0000002D 
         00000322 0000002D 
         00000323 0000002D 
         00000324 0000002D 
         00000325 0000002D 
         00000326 0000002D 
         00000327 0000002D 
         00000328 0000002D 
         00000329 0000002D 
         0000032a 0000002D 
         0000032b 0000002D 
         0000032c 0000002D 
         0000032d 0000002D 
         0000032e 0000002D 
         0000032f 0000002D 
         00000330 0000002D 
         00000331 0000002D 
         00000332 0000002D 
         00000333 0000002D 
         00000334 0000002D 
         00000335 0000002D 
         00000336 0000002D 
         00000337 0000002D 
         00000338 0000002D 
         00000339 0000002D 
         0000033a 0000002D 
         0000033b 0000002D 
         0000033c 0000002D 
         0000033d 0000002D 
         0000033e 0000002D 
    4299 0000033f 0000002D          .string "-----------------------",10,0
         00000340 0000002D 
         00000341 0000002D 
         00000342 0000002D 
         00000343 0000002D 
TMS320C6x Assembler PC v7.4.2 Thu Mar 19 12:43:28 2015

Tools Copyright (c) 1996-2012 Texas Instruments Incorporated
package/lib/Regression/regress_d_c/./../packages/ti/vlib/src/VLIB_mixtureOfGaussiansS32/VLIB_mixtureOfGaussiansS32_d.se66 PAGE   94

         00000344 0000002D 
         00000345 0000002D 
         00000346 0000002D 
         00000347 0000002D 
         00000348 0000002D 
         00000349 0000002D 
         0000034a 0000002D 
         0000034b 0000002D 
         0000034c 0000002D 
         0000034d 0000002D 
         0000034e 0000002D 
         0000034f 0000002D 
         00000350 0000002D 
         00000351 0000002D 
         00000352 0000002D 
         00000353 0000002D 
         00000354 0000002D 
         00000355 0000002D 
         00000356 0000000A 
         00000357 00000000 
    4300                    ;*****************************************************************************
    4301                    ;* UNDEFINED EXTERNAL REFERENCES                                             *
    4302                    ;*****************************************************************************
    4303                            .global printf
    4304                            .global sprintf
    4305                            .global memset
    4306                            .global malloc
    4307                            .global free
    4308                            .global VLIB_cache_inval
    4309                            .global VLIB_getFractional32
    4310                            .global VLIB_getFractional16
    4311                            .global VLIB_profile_init
    4312                            .global VLIB_formula_add_test
    4313                            .global VLIB_skip_test
    4314                            .global VLIB_profile_cycle_report
    4315                            .global initStack
    4316                            .global setStackDepth
    4317                            .global getSP
    4318                            .global VLIB_stack_memory
    4319                            .global VLIB_compare_mem
    4320                            .global VLIB_fillBuffer
    4321                            .global VLIB_malloc
    4322                            .global VLIB_free
    4323                            .global VLIB_mixtureOfGaussiansS32
    4324                            .global VLIB_mixtureOfGaussiansS32_cn
    4325                            .global mixtureOfGaussiansS32_getTestParams
    4326                            .global test_cases
    4327                            .global act_kernel
    4328                            .global desc
    4329                            .global testPatternString
    4330                            .global est_test
    4331                            .global beg_count
    4332                            .global end_count
    4333                            .global overhead
    4334                            .global cycles
TMS320C6x Assembler PC v7.4.2 Thu Mar 19 12:43:28 2015

Tools Copyright (c) 1996-2012 Texas Instruments Incorporated
package/lib/Regression/regress_d_c/./../packages/ti/vlib/src/VLIB_mixtureOfGaussiansS32/VLIB_mixtureOfGaussiansS32_d.se66 PAGE   95

    4335                    
    4336                    ;******************************************************************************
    4337                    ;* BUILD ATTRIBUTES                                                           *
    4338                    ;******************************************************************************
    4339                            .battr "TI", Tag_File, 1, Tag_Long_Precision_Bits(2)
    4340                            .battr "TI", Tag_File, 1, Tag_Bitfield_layout(2)
    4341                            .battr "TI", Tag_File, 1, Tag_ABI_enum_size(2)
    4342                            .battr "c6xabi", Tag_File, 1, Tag_ABI_wchar_t(1)
    4343                            .battr "c6xabi", Tag_File, 1, Tag_ABI_array_object_alignment(0)
    4344                            .battr "c6xabi", Tag_File, 1, Tag_ABI_array_object_align_expected(0)
    4345                            .battr "c6xabi", Tag_File, 1, Tag_ABI_PIC(0)
    4346                            .battr "c6xabi", Tag_File, 1, Tag_ABI_PID(0)
    4347                            .battr "c6xabi", Tag_File, 1, Tag_ABI_DSBT(0)
    4348                            .battr "c6xabi", Tag_File, 1, Tag_ABI_stack_align_needed(0)
    4349                            .battr "c6xabi", Tag_File, 1, Tag_ABI_stack_align_preserved(0)
    4350                            .battr "TI", Tag_File, 1, Tag_Tramps_Use_SOC(1)
    4351                    
    4352                    ;******************************************************************************
    4353                    ;* TYPE INFORMATION                                                           *
    4354                    ;******************************************************************************
    4355                    
    4356                    $C$DW$T$38      .dwtag  DW_TAG_enumeration_type
    4357                            .dwattr $C$DW$T$38, DW_AT_byte_size(0x04)
    4358                    $C$DW$365       .dwtag  DW_TAG_enumerator, DW_AT_name("VLIB_NO_ERROR"), DW_AT_const_value(0x00)
    4359                            .dwattr $C$DW$365, DW_AT_decl_file(".\..\packages\ti\vlib\src\VLIB_mixtureOfGaussiansS32\..\co
    4360                            .dwattr $C$DW$365, DW_AT_decl_line(0x7a)
    4361                            .dwattr $C$DW$365, DW_AT_decl_column(0x05)
    4362                    $C$DW$366       .dwtag  DW_TAG_enumerator, DW_AT_name("VLIB_ERR_INPUT_INVALID"), DW_AT_const_value(0x0
    4363                            .dwattr $C$DW$366, DW_AT_decl_file(".\..\packages\ti\vlib\src\VLIB_mixtureOfGaussiansS32\..\co
    4364                            .dwattr $C$DW$366, DW_AT_decl_line(0x7b)
    4365                            .dwattr $C$DW$366, DW_AT_decl_column(0x05)
    4366                    $C$DW$367       .dwtag  DW_TAG_enumerator, DW_AT_name("VLIB_ERR_INPUT_NEGATIVE"), DW_AT_const_value(0x
    4367                            .dwattr $C$DW$367, DW_AT_decl_file(".\..\packages\ti\vlib\src\VLIB_mixtureOfGaussiansS32\..\co
    4368                            .dwattr $C$DW$367, DW_AT_decl_line(0x7c)
    4369                            .dwattr $C$DW$367, DW_AT_decl_column(0x05)
    4370                    $C$DW$368       .dwtag  DW_TAG_enumerator, DW_AT_name("VLIB_ERR_INPUT_EXCEEDED_RANGE"), DW_AT_const_va
    4371                            .dwattr $C$DW$368, DW_AT_decl_file(".\..\packages\ti\vlib\src\VLIB_mixtureOfGaussiansS32\..\co
    4372                            .dwattr $C$DW$368, DW_AT_decl_line(0x7d)
    4373                            .dwattr $C$DW$368, DW_AT_decl_column(0x05)
    4374                    $C$DW$369       .dwtag  DW_TAG_enumerator, DW_AT_name("VLIB_ERR_MEMORY_EXCEEDED_BOUNDARY"), DW_AT_cons
    4375                            .dwattr $C$DW$369, DW_AT_decl_file(".\..\packages\ti\vlib\src\VLIB_mixtureOfGaussiansS32\..\co
    4376                            .dwattr $C$DW$369, DW_AT_decl_line(0x7e)
    4377                            .dwattr $C$DW$369, DW_AT_decl_column(0x05)
    4378                    $C$DW$370       .dwtag  DW_TAG_enumerator, DW_AT_name("VLIB_ERR_MEMORY_ALLOCATION_FAILURE"), DW_AT_con
    4379                            .dwattr $C$DW$370, DW_AT_decl_file(".\..\packages\ti\vlib\src\VLIB_mixtureOfGaussiansS32\..\co
    4380                            .dwattr $C$DW$370, DW_AT_decl_line(0x7f)
    4381                            .dwattr $C$DW$370, DW_AT_decl_column(0x05)
    4382                    $C$DW$371       .dwtag  DW_TAG_enumerator, DW_AT_name("VLIB_ERR_MEMORY_POINTER_NULL"), DW_AT_const_val
    4383                            .dwattr $C$DW$371, DW_AT_decl_file(".\..\packages\ti\vlib\src\VLIB_mixtureOfGaussiansS32\..\co
    4384                            .dwattr $C$DW$371, DW_AT_decl_line(0x80)
    4385                            .dwattr $C$DW$371, DW_AT_decl_column(0x05)
    4386                    $C$DW$372       .dwtag  DW_TAG_enumerator, DW_AT_name("VLIB_ERR_DMA_FAILURE"), DW_AT_const_value(0x07)
    4387                            .dwattr $C$DW$372, DW_AT_decl_file(".\..\packages\ti\vlib\src\VLIB_mixtureOfGaussiansS32\..\co
    4388                            .dwattr $C$DW$372, DW_AT_decl_line(0x81)
    4389                            .dwattr $C$DW$372, DW_AT_decl_column(0x05)
TMS320C6x Assembler PC v7.4.2 Thu Mar 19 12:43:28 2015

Tools Copyright (c) 1996-2012 Texas Instruments Incorporated
package/lib/Regression/regress_d_c/./../packages/ti/vlib/src/VLIB_mixtureOfGaussiansS32/VLIB_mixtureOfGaussiansS32_d.se66 PAGE   96

    4390                    $C$DW$373       .dwtag  DW_TAG_enumerator, DW_AT_name("VLIB_ERR_FILE_OPEN_FAILURE"), DW_AT_const_value
    4391                            .dwattr $C$DW$373, DW_AT_decl_file(".\..\packages\ti\vlib\src\VLIB_mixtureOfGaussiansS32\..\co
    4392                            .dwattr $C$DW$373, DW_AT_decl_line(0x82)
    4393                            .dwattr $C$DW$373, DW_AT_decl_column(0x05)
    4394                    $C$DW$374       .dwtag  DW_TAG_enumerator, DW_AT_name("VLIB_ERR_FILE_READ_FAILURE"), DW_AT_const_value
    4395                            .dwattr $C$DW$374, DW_AT_decl_file(".\..\packages\ti\vlib\src\VLIB_mixtureOfGaussiansS32\..\co
    4396                            .dwattr $C$DW$374, DW_AT_decl_line(0x83)
    4397                            .dwattr $C$DW$374, DW_AT_decl_column(0x05)
    4398                    $C$DW$375       .dwtag  DW_TAG_enumerator, DW_AT_name("VLIB_ERR_FILE_WRITE_FAILURE"), DW_AT_const_valu
    4399                            .dwattr $C$DW$375, DW_AT_decl_file(".\..\packages\ti\vlib\src\VLIB_mixtureOfGaussiansS32\..\co
    4400                            .dwattr $C$DW$375, DW_AT_decl_line(0x84)
    4401                            .dwattr $C$DW$375, DW_AT_decl_column(0x05)
    4402                    $C$DW$376       .dwtag  DW_TAG_enumerator, DW_AT_name("VLIB_ERR_FILE_CLOSE_FAILURE"), DW_AT_const_valu
    4403                            .dwattr $C$DW$376, DW_AT_decl_file(".\..\packages\ti\vlib\src\VLIB_mixtureOfGaussiansS32\..\co
    4404                            .dwattr $C$DW$376, DW_AT_decl_line(0x85)
    4405                            .dwattr $C$DW$376, DW_AT_decl_column(0x05)
    4406                    $C$DW$377       .dwtag  DW_TAG_enumerator, DW_AT_name("VLIB_ERR_FILE_FORMAT_FAILURE"), DW_AT_const_val
    4407                            .dwattr $C$DW$377, DW_AT_decl_file(".\..\packages\ti\vlib\src\VLIB_mixtureOfGaussiansS32\..\co
    4408                            .dwattr $C$DW$377, DW_AT_decl_line(0x86)
    4409                            .dwattr $C$DW$377, DW_AT_decl_column(0x05)
    4410                    $C$DW$378       .dwtag  DW_TAG_enumerator, DW_AT_name("VLIB_WARNING_LOW_MEMORY"), DW_AT_const_value(0x
    4411                            .dwattr $C$DW$378, DW_AT_decl_file(".\..\packages\ti\vlib\src\VLIB_mixtureOfGaussiansS32\..\co
    4412                            .dwattr $C$DW$378, DW_AT_decl_line(0x87)
    4413                            .dwattr $C$DW$378, DW_AT_decl_column(0x05)
    4414                    $C$DW$379       .dwtag  DW_TAG_enumerator, DW_AT_name("VLIB_ERR_NOT_IMPLEMENTED"), DW_AT_const_value(0
    4415                            .dwattr $C$DW$379, DW_AT_decl_file(".\..\packages\ti\vlib\src\VLIB_mixtureOfGaussiansS32\..\co
    4416                            .dwattr $C$DW$379, DW_AT_decl_line(0x88)
    4417                            .dwattr $C$DW$379, DW_AT_decl_column(0x05)
    4418                    $C$DW$380       .dwtag  DW_TAG_enumerator, DW_AT_name("VLIB_ERROR_MAX"), DW_AT_const_value(0x0f)
    4419                            .dwattr $C$DW$380, DW_AT_decl_file(".\..\packages\ti\vlib\src\VLIB_mixtureOfGaussiansS32\..\co
    4420                            .dwattr $C$DW$380, DW_AT_decl_line(0x89)
    4421                            .dwattr $C$DW$380, DW_AT_decl_column(0x05)
    4422                            .dwendtag $C$DW$T$38
    4423                    
    4424                            .dwattr $C$DW$T$38, DW_AT_decl_file(".\..\packages\ti\vlib\src\VLIB_mixtureOfGaussiansS32\..\c
    4425                            .dwattr $C$DW$T$38, DW_AT_decl_line(0x79)
    4426                            .dwattr $C$DW$T$38, DW_AT_decl_column(0x0e)
    4427                    $C$DW$T$39      .dwtag  DW_TAG_typedef, DW_AT_name("VLIB_STATUS")
    4428                            .dwattr $C$DW$T$39, DW_AT_type(*$C$DW$T$38)
    4429                            .dwattr $C$DW$T$39, DW_AT_language(DW_LANG_C)
    4430                            .dwattr $C$DW$T$39, DW_AT_decl_file(".\..\packages\ti\vlib\src\VLIB_mixtureOfGaussiansS32\..\c
    4431                            .dwattr $C$DW$T$39, DW_AT_decl_line(0x8a)
    4432                            .dwattr $C$DW$T$39, DW_AT_decl_column(0x03)
    4433                    
    4434                    $C$DW$T$40      .dwtag  DW_TAG_enumeration_type
    4435                            .dwattr $C$DW$T$40, DW_AT_byte_size(0x04)
    4436                    $C$DW$381       .dwtag  DW_TAG_enumerator, DW_AT_name("vlib_KERNEL_OPT"), DW_AT_const_value(0x00)
    4437                            .dwattr $C$DW$381, DW_AT_decl_file(".\..\packages\ti\vlib\src\VLIB_mixtureOfGaussiansS32\../co
    4438                            .dwattr $C$DW$381, DW_AT_decl_line(0x6a)
    4439                            .dwattr $C$DW$381, DW_AT_decl_column(0x05)
    4440                    $C$DW$382       .dwtag  DW_TAG_enumerator, DW_AT_name("vlib_KERNEL_CN"), DW_AT_const_value(0x01)
    4441                            .dwattr $C$DW$382, DW_AT_decl_file(".\..\packages\ti\vlib\src\VLIB_mixtureOfGaussiansS32\../co
    4442                            .dwattr $C$DW$382, DW_AT_decl_line(0x6b)
    4443                            .dwattr $C$DW$382, DW_AT_decl_column(0x05)
    4444                    $C$DW$383       .dwtag  DW_TAG_enumerator, DW_AT_name("vlib_KERNEL_CNT"), DW_AT_const_value(0x02)
TMS320C6x Assembler PC v7.4.2 Thu Mar 19 12:43:28 2015

Tools Copyright (c) 1996-2012 Texas Instruments Incorporated
package/lib/Regression/regress_d_c/./../packages/ti/vlib/src/VLIB_mixtureOfGaussiansS32/VLIB_mixtureOfGaussiansS32_d.se66 PAGE   97

    4445                            .dwattr $C$DW$383, DW_AT_decl_file(".\..\packages\ti\vlib\src\VLIB_mixtureOfGaussiansS32\../co
    4446                            .dwattr $C$DW$383, DW_AT_decl_line(0x6c)
    4447                            .dwattr $C$DW$383, DW_AT_decl_column(0x05)
    4448                            .dwendtag $C$DW$T$40
    4449                    
    4450                            .dwattr $C$DW$T$40, DW_AT_decl_file(".\..\packages\ti\vlib\src\VLIB_mixtureOfGaussiansS32\../c
    4451                            .dwattr $C$DW$T$40, DW_AT_decl_line(0x69)
    4452                            .dwattr $C$DW$T$40, DW_AT_decl_column(0x06)
    4453                    
    4454                    $C$DW$T$41      .dwtag  DW_TAG_enumeration_type
    4455                            .dwattr $C$DW$T$41, DW_AT_byte_size(0x04)
    4456                    $C$DW$384       .dwtag  DW_TAG_enumerator, DW_AT_name("vlib_KERNEL_FAIL"), DW_AT_const_value(0x00)
    4457                            .dwattr $C$DW$384, DW_AT_decl_file(".\..\packages\ti\vlib\src\VLIB_mixtureOfGaussiansS32\../co
    4458                            .dwattr $C$DW$384, DW_AT_decl_line(0x72)
    4459                            .dwattr $C$DW$384, DW_AT_decl_column(0x05)
    4460                    $C$DW$385       .dwtag  DW_TAG_enumerator, DW_AT_name("vlib_KERNEL_PASS"), DW_AT_const_value(0x01)
    4461                            .dwattr $C$DW$385, DW_AT_decl_file(".\..\packages\ti\vlib\src\VLIB_mixtureOfGaussiansS32\../co
    4462                            .dwattr $C$DW$385, DW_AT_decl_line(0x73)
    4463                            .dwattr $C$DW$385, DW_AT_decl_column(0x05)
    4464                            .dwendtag $C$DW$T$41
    4465                    
    4466                            .dwattr $C$DW$T$41, DW_AT_decl_file(".\..\packages\ti\vlib\src\VLIB_mixtureOfGaussiansS32\../c
    4467                            .dwattr $C$DW$T$41, DW_AT_decl_line(0x71)
    4468                            .dwattr $C$DW$T$41, DW_AT_decl_column(0x06)
    4469                    
    4470                    $C$DW$T$25      .dwtag  DW_TAG_structure_type
    4471                            .dwattr $C$DW$T$25, DW_AT_byte_size(0x28)
    4472                    $C$DW$386       .dwtag  DW_TAG_member
    4473                            .dwattr $C$DW$386, DW_AT_type(*$C$DW$T$19)
    4474                            .dwattr $C$DW$386, DW_AT_name("testPattern")
    4475                            .dwattr $C$DW$386, DW_AT_TI_symbol_name("testPattern")
    4476                            .dwattr $C$DW$386, DW_AT_data_member_location[DW_OP_plus_uconst 0x0]
    4477                            .dwattr $C$DW$386, DW_AT_accessibility(DW_ACCESS_public)
    4478                            .dwattr $C$DW$386, DW_AT_decl_file(".\..\packages\ti\vlib\src\VLIB_mixtureOfGaussiansS32\VLIB_
    4479                            .dwattr $C$DW$386, DW_AT_decl_line(0x24)
    4480                            .dwattr $C$DW$386, DW_AT_decl_column(0x0e)
    4481                    $C$DW$387       .dwtag  DW_TAG_member
    4482                            .dwattr $C$DW$387, DW_AT_type(*$C$DW$T$20)
    4483                            .dwattr $C$DW$387, DW_AT_name("staticIn")
    4484                            .dwattr $C$DW$387, DW_AT_TI_symbol_name("staticIn")
    4485                            .dwattr $C$DW$387, DW_AT_data_member_location[DW_OP_plus_uconst 0x4]
    4486                            .dwattr $C$DW$387, DW_AT_accessibility(DW_ACCESS_public)
    4487                            .dwattr $C$DW$387, DW_AT_decl_file(".\..\packages\ti\vlib\src\VLIB_mixtureOfGaussiansS32\VLIB_
    4488                            .dwattr $C$DW$387, DW_AT_decl_line(0x25)
    4489                            .dwattr $C$DW$387, DW_AT_decl_column(0x0f)
    4490                    $C$DW$388       .dwtag  DW_TAG_member
    4491                            .dwattr $C$DW$388, DW_AT_type(*$C$DW$T$22)
    4492                            .dwattr $C$DW$388, DW_AT_name("staticOut")
    4493                            .dwattr $C$DW$388, DW_AT_TI_symbol_name("staticOut")
    4494                            .dwattr $C$DW$388, DW_AT_data_member_location[DW_OP_plus_uconst 0x8]
    4495                            .dwattr $C$DW$388, DW_AT_accessibility(DW_ACCESS_public)
    4496                            .dwattr $C$DW$388, DW_AT_decl_file(".\..\packages\ti\vlib\src\VLIB_mixtureOfGaussiansS32\VLIB_
    4497                            .dwattr $C$DW$388, DW_AT_decl_line(0x26)
    4498                            .dwattr $C$DW$388, DW_AT_decl_column(0x0f)
    4499                    $C$DW$389       .dwtag  DW_TAG_member
TMS320C6x Assembler PC v7.4.2 Thu Mar 19 12:43:28 2015

Tools Copyright (c) 1996-2012 Texas Instruments Incorporated
package/lib/Regression/regress_d_c/./../packages/ti/vlib/src/VLIB_mixtureOfGaussiansS32/VLIB_mixtureOfGaussiansS32_d.se66 PAGE   98

    4500                            .dwattr $C$DW$389, DW_AT_type(*$C$DW$T$23)
    4501                            .dwattr $C$DW$389, DW_AT_name("im_size")
    4502                            .dwattr $C$DW$389, DW_AT_TI_symbol_name("im_size")
    4503                            .dwattr $C$DW$389, DW_AT_data_member_location[DW_OP_plus_uconst 0xc]
    4504                            .dwattr $C$DW$389, DW_AT_accessibility(DW_ACCESS_public)
    4505                            .dwattr $C$DW$389, DW_AT_decl_file(".\..\packages\ti\vlib\src\VLIB_mixtureOfGaussiansS32\VLIB_
    4506                            .dwattr $C$DW$389, DW_AT_decl_line(0x27)
    4507                            .dwattr $C$DW$389, DW_AT_decl_column(0x0e)
    4508                    $C$DW$390       .dwtag  DW_TAG_member
    4509                            .dwattr $C$DW$390, DW_AT_type(*$C$DW$T$23)
    4510                            .dwattr $C$DW$390, DW_AT_name("num_images")
    4511                            .dwattr $C$DW$390, DW_AT_TI_symbol_name("num_images")
    4512                            .dwattr $C$DW$390, DW_AT_data_member_location[DW_OP_plus_uconst 0x10]
    4513                            .dwattr $C$DW$390, DW_AT_accessibility(DW_ACCESS_public)
    4514                            .dwattr $C$DW$390, DW_AT_decl_file(".\..\packages\ti\vlib\src\VLIB_mixtureOfGaussiansS32\VLIB_
    4515                            .dwattr $C$DW$390, DW_AT_decl_line(0x28)
    4516                            .dwattr $C$DW$390, DW_AT_decl_column(0x0e)
    4517                    $C$DW$391       .dwtag  DW_TAG_member
    4518                            .dwattr $C$DW$391, DW_AT_type(*$C$DW$T$24)
    4519                            .dwattr $C$DW$391, DW_AT_name("alpha")
    4520                            .dwattr $C$DW$391, DW_AT_TI_symbol_name("alpha")
    4521                            .dwattr $C$DW$391, DW_AT_data_member_location[DW_OP_plus_uconst 0x14]
    4522                            .dwattr $C$DW$391, DW_AT_accessibility(DW_ACCESS_public)
    4523                            .dwattr $C$DW$391, DW_AT_decl_file(".\..\packages\ti\vlib\src\VLIB_mixtureOfGaussiansS32\VLIB_
    4524                            .dwattr $C$DW$391, DW_AT_decl_line(0x29)
    4525                            .dwattr $C$DW$391, DW_AT_decl_column(0x0e)
    4526                    $C$DW$392       .dwtag  DW_TAG_member
    4527                            .dwattr $C$DW$392, DW_AT_type(*$C$DW$T$23)
    4528                            .dwattr $C$DW$392, DW_AT_name("rho")
    4529                            .dwattr $C$DW$392, DW_AT_TI_symbol_name("rho")
    4530                            .dwattr $C$DW$392, DW_AT_data_member_location[DW_OP_plus_uconst 0x18]
    4531                            .dwattr $C$DW$392, DW_AT_accessibility(DW_ACCESS_public)
    4532                            .dwattr $C$DW$392, DW_AT_decl_file(".\..\packages\ti\vlib\src\VLIB_mixtureOfGaussiansS32\VLIB_
    4533                            .dwattr $C$DW$392, DW_AT_decl_line(0x2a)
    4534                            .dwattr $C$DW$392, DW_AT_decl_column(0x0e)
    4535                    $C$DW$393       .dwtag  DW_TAG_member
    4536                            .dwattr $C$DW$393, DW_AT_type(*$C$DW$T$23)
    4537                            .dwattr $C$DW$393, DW_AT_name("delta")
    4538                            .dwattr $C$DW$393, DW_AT_TI_symbol_name("delta")
    4539                            .dwattr $C$DW$393, DW_AT_data_member_location[DW_OP_plus_uconst 0x1c]
    4540                            .dwattr $C$DW$393, DW_AT_accessibility(DW_ACCESS_public)
    4541                            .dwattr $C$DW$393, DW_AT_decl_file(".\..\packages\ti\vlib\src\VLIB_mixtureOfGaussiansS32\VLIB_
    4542                            .dwattr $C$DW$393, DW_AT_decl_line(0x2b)
    4543                            .dwattr $C$DW$393, DW_AT_decl_column(0x0e)
    4544                    $C$DW$394       .dwtag  DW_TAG_member
    4545                            .dwattr $C$DW$394, DW_AT_type(*$C$DW$T$24)
    4546                            .dwattr $C$DW$394, DW_AT_name("T")
    4547                            .dwattr $C$DW$394, DW_AT_TI_symbol_name("T")
    4548                            .dwattr $C$DW$394, DW_AT_data_member_location[DW_OP_plus_uconst 0x20]
    4549                            .dwattr $C$DW$394, DW_AT_accessibility(DW_ACCESS_public)
    4550                            .dwattr $C$DW$394, DW_AT_decl_file(".\..\packages\ti\vlib\src\VLIB_mixtureOfGaussiansS32\VLIB_
    4551                            .dwattr $C$DW$394, DW_AT_decl_line(0x2c)
    4552                            .dwattr $C$DW$394, DW_AT_decl_column(0x0e)
    4553                    $C$DW$395       .dwtag  DW_TAG_member
    4554                            .dwattr $C$DW$395, DW_AT_type(*$C$DW$T$24)
TMS320C6x Assembler PC v7.4.2 Thu Mar 19 12:43:28 2015

Tools Copyright (c) 1996-2012 Texas Instruments Incorporated
package/lib/Regression/regress_d_c/./../packages/ti/vlib/src/VLIB_mixtureOfGaussiansS32/VLIB_mixtureOfGaussiansS32_d.se66 PAGE   99

    4555                            .dwattr $C$DW$395, DW_AT_name("ini_wt")
    4556                            .dwattr $C$DW$395, DW_AT_TI_symbol_name("ini_wt")
    4557                            .dwattr $C$DW$395, DW_AT_data_member_location[DW_OP_plus_uconst 0x22]
    4558                            .dwattr $C$DW$395, DW_AT_accessibility(DW_ACCESS_public)
    4559                            .dwattr $C$DW$395, DW_AT_decl_file(".\..\packages\ti\vlib\src\VLIB_mixtureOfGaussiansS32\VLIB_
    4560                            .dwattr $C$DW$395, DW_AT_decl_line(0x2d)
    4561                            .dwattr $C$DW$395, DW_AT_decl_column(0x0e)
    4562                    $C$DW$396       .dwtag  DW_TAG_member
    4563                            .dwattr $C$DW$396, DW_AT_type(*$C$DW$T$23)
    4564                            .dwattr $C$DW$396, DW_AT_name("ini_var")
    4565                            .dwattr $C$DW$396, DW_AT_TI_symbol_name("ini_var")
    4566                            .dwattr $C$DW$396, DW_AT_data_member_location[DW_OP_plus_uconst 0x24]
    4567                            .dwattr $C$DW$396, DW_AT_accessibility(DW_ACCESS_public)
    4568                            .dwattr $C$DW$396, DW_AT_decl_file(".\..\packages\ti\vlib\src\VLIB_mixtureOfGaussiansS32\VLIB_
    4569                            .dwattr $C$DW$396, DW_AT_decl_line(0x2e)
    4570                            .dwattr $C$DW$396, DW_AT_decl_column(0x0e)
    4571                            .dwendtag $C$DW$T$25
    4572                    
    4573                            .dwattr $C$DW$T$25, DW_AT_decl_file(".\..\packages\ti\vlib\src\VLIB_mixtureOfGaussiansS32\VLIB
    4574                            .dwattr $C$DW$T$25, DW_AT_decl_line(0x23)
    4575                            .dwattr $C$DW$T$25, DW_AT_decl_column(0x10)
    4576                    $C$DW$T$42      .dwtag  DW_TAG_pointer_type
    4577                            .dwattr $C$DW$T$42, DW_AT_type(*$C$DW$T$25)
    4578                            .dwattr $C$DW$T$42, DW_AT_address_class(0x20)
    4579                    $C$DW$T$44      .dwtag  DW_TAG_typedef, DW_AT_name("mixtureOfGaussiansS32_testParams_t")
    4580                            .dwattr $C$DW$T$44, DW_AT_type(*$C$DW$T$25)
    4581                            .dwattr $C$DW$T$44, DW_AT_language(DW_LANG_C)
    4582                            .dwattr $C$DW$T$44, DW_AT_decl_file(".\..\packages\ti\vlib\src\VLIB_mixtureOfGaussiansS32\VLIB
    4583                            .dwattr $C$DW$T$44, DW_AT_decl_line(0x2f)
    4584                            .dwattr $C$DW$T$44, DW_AT_decl_column(0x03)
    4585                    $C$DW$T$45      .dwtag  DW_TAG_pointer_type
    4586                            .dwattr $C$DW$T$45, DW_AT_type(*$C$DW$T$44)
    4587                            .dwattr $C$DW$T$45, DW_AT_address_class(0x20)
    4588                    $C$DW$T$46      .dwtag  DW_TAG_pointer_type
    4589                            .dwattr $C$DW$T$46, DW_AT_type(*$C$DW$T$45)
    4590                            .dwattr $C$DW$T$46, DW_AT_address_class(0x20)
    4591                    
    4592                    $C$DW$T$27      .dwtag  DW_TAG_structure_type
    4593                            .dwattr $C$DW$T$27, DW_AT_byte_size(0x18)
    4594                    $C$DW$397       .dwtag  DW_TAG_member
    4595                            .dwattr $C$DW$397, DW_AT_type(*$C$DW$T$10)
    4596                            .dwattr $C$DW$397, DW_AT_name("fd")
    4597                            .dwattr $C$DW$397, DW_AT_TI_symbol_name("fd")
    4598                            .dwattr $C$DW$397, DW_AT_data_member_location[DW_OP_plus_uconst 0x0]
    4599                            .dwattr $C$DW$397, DW_AT_accessibility(DW_ACCESS_public)
    4600                            .dwattr $C$DW$397, DW_AT_decl_file("C:/VLIB_Tools/CCSV5_4_0/ccsv5/tools/compiler/C6000/include
    4601                            .dwattr $C$DW$397, DW_AT_decl_line(0x49)
    4602                            .dwattr $C$DW$397, DW_AT_decl_column(0x0b)
    4603                    $C$DW$398       .dwtag  DW_TAG_member
    4604                            .dwattr $C$DW$398, DW_AT_type(*$C$DW$T$26)
    4605                            .dwattr $C$DW$398, DW_AT_name("buf")
    4606                            .dwattr $C$DW$398, DW_AT_TI_symbol_name("buf")
    4607                            .dwattr $C$DW$398, DW_AT_data_member_location[DW_OP_plus_uconst 0x4]
    4608                            .dwattr $C$DW$398, DW_AT_accessibility(DW_ACCESS_public)
    4609                            .dwattr $C$DW$398, DW_AT_decl_file("C:/VLIB_Tools/CCSV5_4_0/ccsv5/tools/compiler/C6000/include
TMS320C6x Assembler PC v7.4.2 Thu Mar 19 12:43:28 2015

Tools Copyright (c) 1996-2012 Texas Instruments Incorporated
package/lib/Regression/regress_d_c/./../packages/ti/vlib/src/VLIB_mixtureOfGaussiansS32/VLIB_mixtureOfGaussiansS32_d.se66 PAGE  100

    4610                            .dwattr $C$DW$398, DW_AT_decl_line(0x4a)
    4611                            .dwattr $C$DW$398, DW_AT_decl_column(0x16)
    4612                    $C$DW$399       .dwtag  DW_TAG_member
    4613                            .dwattr $C$DW$399, DW_AT_type(*$C$DW$T$26)
    4614                            .dwattr $C$DW$399, DW_AT_name("pos")
    4615                            .dwattr $C$DW$399, DW_AT_TI_symbol_name("pos")
    4616                            .dwattr $C$DW$399, DW_AT_data_member_location[DW_OP_plus_uconst 0x8]
    4617                            .dwattr $C$DW$399, DW_AT_accessibility(DW_ACCESS_public)
    4618                            .dwattr $C$DW$399, DW_AT_decl_file("C:/VLIB_Tools/CCSV5_4_0/ccsv5/tools/compiler/C6000/include
    4619                            .dwattr $C$DW$399, DW_AT_decl_line(0x4b)
    4620                            .dwattr $C$DW$399, DW_AT_decl_column(0x16)
    4621                    $C$DW$400       .dwtag  DW_TAG_member
    4622                            .dwattr $C$DW$400, DW_AT_type(*$C$DW$T$26)
    4623                            .dwattr $C$DW$400, DW_AT_name("bufend")
    4624                            .dwattr $C$DW$400, DW_AT_TI_symbol_name("bufend")
    4625                            .dwattr $C$DW$400, DW_AT_data_member_location[DW_OP_plus_uconst 0xc]
    4626                            .dwattr $C$DW$400, DW_AT_accessibility(DW_ACCESS_public)
    4627                            .dwattr $C$DW$400, DW_AT_decl_file("C:/VLIB_Tools/CCSV5_4_0/ccsv5/tools/compiler/C6000/include
    4628                            .dwattr $C$DW$400, DW_AT_decl_line(0x4c)
    4629                            .dwattr $C$DW$400, DW_AT_decl_column(0x16)
    4630                    $C$DW$401       .dwtag  DW_TAG_member
    4631                            .dwattr $C$DW$401, DW_AT_type(*$C$DW$T$26)
    4632                            .dwattr $C$DW$401, DW_AT_name("buff_stop")
    4633                            .dwattr $C$DW$401, DW_AT_TI_symbol_name("buff_stop")
    4634                            .dwattr $C$DW$401, DW_AT_data_member_location[DW_OP_plus_uconst 0x10]
    4635                            .dwattr $C$DW$401, DW_AT_accessibility(DW_ACCESS_public)
    4636                            .dwattr $C$DW$401, DW_AT_decl_file("C:/VLIB_Tools/CCSV5_4_0/ccsv5/tools/compiler/C6000/include
    4637                            .dwattr $C$DW$401, DW_AT_decl_line(0x4d)
    4638                            .dwattr $C$DW$401, DW_AT_decl_column(0x16)
    4639                    $C$DW$402       .dwtag  DW_TAG_member
    4640                            .dwattr $C$DW$402, DW_AT_type(*$C$DW$T$11)
    4641                            .dwattr $C$DW$402, DW_AT_name("flags")
    4642                            .dwattr $C$DW$402, DW_AT_TI_symbol_name("flags")
    4643                            .dwattr $C$DW$402, DW_AT_data_member_location[DW_OP_plus_uconst 0x14]
    4644                            .dwattr $C$DW$402, DW_AT_accessibility(DW_ACCESS_public)
    4645                            .dwattr $C$DW$402, DW_AT_decl_file("C:/VLIB_Tools/CCSV5_4_0/ccsv5/tools/compiler/C6000/include
    4646                            .dwattr $C$DW$402, DW_AT_decl_line(0x4e)
    4647                            .dwattr $C$DW$402, DW_AT_decl_column(0x16)
    4648                            .dwendtag $C$DW$T$27
    4649                    
    4650                            .dwattr $C$DW$T$27, DW_AT_decl_file("C:/VLIB_Tools/CCSV5_4_0/ccsv5/tools/compiler/C6000/includ
    4651                            .dwattr $C$DW$T$27, DW_AT_decl_line(0x48)
    4652                            .dwattr $C$DW$T$27, DW_AT_decl_column(0x10)
    4653                    $C$DW$T$47      .dwtag  DW_TAG_typedef, DW_AT_name("FILE")
    4654                            .dwattr $C$DW$T$47, DW_AT_type(*$C$DW$T$27)
    4655                            .dwattr $C$DW$T$47, DW_AT_language(DW_LANG_C)
    4656                            .dwattr $C$DW$T$47, DW_AT_decl_file("C:/VLIB_Tools/CCSV5_4_0/ccsv5/tools/compiler/C6000/includ
    4657                            .dwattr $C$DW$T$47, DW_AT_decl_line(0x4f)
    4658                            .dwattr $C$DW$T$47, DW_AT_decl_column(0x03)
    4659                    
    4660                    $C$DW$T$28      .dwtag  DW_TAG_structure_type
    4661                            .dwattr $C$DW$T$28, DW_AT_byte_size(0x08)
    4662                    $C$DW$403       .dwtag  DW_TAG_member
    4663                            .dwattr $C$DW$403, DW_AT_type(*$C$DW$T$10)
    4664                            .dwattr $C$DW$403, DW_AT_name("quot")
TMS320C6x Assembler PC v7.4.2 Thu Mar 19 12:43:28 2015

Tools Copyright (c) 1996-2012 Texas Instruments Incorporated
package/lib/Regression/regress_d_c/./../packages/ti/vlib/src/VLIB_mixtureOfGaussiansS32/VLIB_mixtureOfGaussiansS32_d.se66 PAGE  101

    4665                            .dwattr $C$DW$403, DW_AT_TI_symbol_name("quot")
    4666                            .dwattr $C$DW$403, DW_AT_data_member_location[DW_OP_plus_uconst 0x0]
    4667                            .dwattr $C$DW$403, DW_AT_accessibility(DW_ACCESS_public)
    4668                            .dwattr $C$DW$403, DW_AT_decl_file("C:/VLIB_Tools/CCSV5_4_0/ccsv5/tools/compiler/C6000/include
    4669                            .dwattr $C$DW$403, DW_AT_decl_line(0x3e)
    4670                            .dwattr $C$DW$403, DW_AT_decl_column(0x16)
    4671                    $C$DW$404       .dwtag  DW_TAG_member
    4672                            .dwattr $C$DW$404, DW_AT_type(*$C$DW$T$10)
    4673                            .dwattr $C$DW$404, DW_AT_name("rem")
    4674                            .dwattr $C$DW$404, DW_AT_TI_symbol_name("rem")
    4675                            .dwattr $C$DW$404, DW_AT_data_member_location[DW_OP_plus_uconst 0x4]
    4676                            .dwattr $C$DW$404, DW_AT_accessibility(DW_ACCESS_public)
    4677                            .dwattr $C$DW$404, DW_AT_decl_file("C:/VLIB_Tools/CCSV5_4_0/ccsv5/tools/compiler/C6000/include
    4678                            .dwattr $C$DW$404, DW_AT_decl_line(0x3e)
    4679                            .dwattr $C$DW$404, DW_AT_decl_column(0x1c)
    4680                            .dwendtag $C$DW$T$28
    4681                    
    4682                            .dwattr $C$DW$T$28, DW_AT_decl_file("C:/VLIB_Tools/CCSV5_4_0/ccsv5/tools/compiler/C6000/includ
    4683                            .dwattr $C$DW$T$28, DW_AT_decl_line(0x3e)
    4684                            .dwattr $C$DW$T$28, DW_AT_decl_column(0x10)
    4685                    $C$DW$T$48      .dwtag  DW_TAG_typedef, DW_AT_name("div_t")
    4686                            .dwattr $C$DW$T$48, DW_AT_type(*$C$DW$T$28)
    4687                            .dwattr $C$DW$T$48, DW_AT_language(DW_LANG_C)
    4688                            .dwattr $C$DW$T$48, DW_AT_decl_file("C:/VLIB_Tools/CCSV5_4_0/ccsv5/tools/compiler/C6000/includ
    4689                            .dwattr $C$DW$T$48, DW_AT_decl_line(0x3e)
    4690                            .dwattr $C$DW$T$48, DW_AT_decl_column(0x23)
    4691                    
    4692                    $C$DW$T$29      .dwtag  DW_TAG_structure_type
    4693                            .dwattr $C$DW$T$29, DW_AT_byte_size(0x08)
    4694                    $C$DW$405       .dwtag  DW_TAG_member
    4695                            .dwattr $C$DW$405, DW_AT_type(*$C$DW$T$10)
    4696                            .dwattr $C$DW$405, DW_AT_name("quot")
    4697                            .dwattr $C$DW$405, DW_AT_TI_symbol_name("quot")
    4698                            .dwattr $C$DW$405, DW_AT_data_member_location[DW_OP_plus_uconst 0x0]
    4699                            .dwattr $C$DW$405, DW_AT_accessibility(DW_ACCESS_public)
    4700                            .dwattr $C$DW$405, DW_AT_decl_file("C:/VLIB_Tools/CCSV5_4_0/ccsv5/tools/compiler/C6000/include
    4701                            .dwattr $C$DW$405, DW_AT_decl_line(0x40)
    4702                            .dwattr $C$DW$405, DW_AT_decl_column(0x17)
    4703                    $C$DW$406       .dwtag  DW_TAG_member
    4704                            .dwattr $C$DW$406, DW_AT_type(*$C$DW$T$10)
    4705                            .dwattr $C$DW$406, DW_AT_name("rem")
    4706                            .dwattr $C$DW$406, DW_AT_TI_symbol_name("rem")
    4707                            .dwattr $C$DW$406, DW_AT_data_member_location[DW_OP_plus_uconst 0x4]
    4708                            .dwattr $C$DW$406, DW_AT_accessibility(DW_ACCESS_public)
    4709                            .dwattr $C$DW$406, DW_AT_decl_file("C:/VLIB_Tools/CCSV5_4_0/ccsv5/tools/compiler/C6000/include
    4710                            .dwattr $C$DW$406, DW_AT_decl_line(0x40)
    4711                            .dwattr $C$DW$406, DW_AT_decl_column(0x1d)
    4712                            .dwendtag $C$DW$T$29
    4713                    
    4714                            .dwattr $C$DW$T$29, DW_AT_decl_file("C:/VLIB_Tools/CCSV5_4_0/ccsv5/tools/compiler/C6000/includ
    4715                            .dwattr $C$DW$T$29, DW_AT_decl_line(0x40)
    4716                            .dwattr $C$DW$T$29, DW_AT_decl_column(0x10)
    4717                    $C$DW$T$49      .dwtag  DW_TAG_typedef, DW_AT_name("ldiv_t")
    4718                            .dwattr $C$DW$T$49, DW_AT_type(*$C$DW$T$29)
    4719                            .dwattr $C$DW$T$49, DW_AT_language(DW_LANG_C)
TMS320C6x Assembler PC v7.4.2 Thu Mar 19 12:43:28 2015

Tools Copyright (c) 1996-2012 Texas Instruments Incorporated
package/lib/Regression/regress_d_c/./../packages/ti/vlib/src/VLIB_mixtureOfGaussiansS32/VLIB_mixtureOfGaussiansS32_d.se66 PAGE  102

    4720                            .dwattr $C$DW$T$49, DW_AT_decl_file("C:/VLIB_Tools/CCSV5_4_0/ccsv5/tools/compiler/C6000/includ
    4721                            .dwattr $C$DW$T$49, DW_AT_decl_line(0x40)
    4722                            .dwattr $C$DW$T$49, DW_AT_decl_column(0x24)
    4723                    
    4724                    $C$DW$T$30      .dwtag  DW_TAG_structure_type
    4725                            .dwattr $C$DW$T$30, DW_AT_byte_size(0x10)
    4726                    $C$DW$407       .dwtag  DW_TAG_member
    4727                            .dwattr $C$DW$407, DW_AT_type(*$C$DW$T$14)
    4728                            .dwattr $C$DW$407, DW_AT_name("quot")
    4729                            .dwattr $C$DW$407, DW_AT_TI_symbol_name("quot")
    4730                            .dwattr $C$DW$407, DW_AT_data_member_location[DW_OP_plus_uconst 0x0]
    4731                            .dwattr $C$DW$407, DW_AT_accessibility(DW_ACCESS_public)
    4732                            .dwattr $C$DW$407, DW_AT_decl_file("C:/VLIB_Tools/CCSV5_4_0/ccsv5/tools/compiler/C6000/include
    4733                            .dwattr $C$DW$407, DW_AT_decl_line(0x43)
    4734                            .dwattr $C$DW$407, DW_AT_decl_column(0x1c)
    4735                    $C$DW$408       .dwtag  DW_TAG_member
    4736                            .dwattr $C$DW$408, DW_AT_type(*$C$DW$T$14)
    4737                            .dwattr $C$DW$408, DW_AT_name("rem")
    4738                            .dwattr $C$DW$408, DW_AT_TI_symbol_name("rem")
    4739                            .dwattr $C$DW$408, DW_AT_data_member_location[DW_OP_plus_uconst 0x8]
    4740                            .dwattr $C$DW$408, DW_AT_accessibility(DW_ACCESS_public)
    4741                            .dwattr $C$DW$408, DW_AT_decl_file("C:/VLIB_Tools/CCSV5_4_0/ccsv5/tools/compiler/C6000/include
    4742                            .dwattr $C$DW$408, DW_AT_decl_line(0x43)
    4743                            .dwattr $C$DW$408, DW_AT_decl_column(0x22)
    4744                            .dwendtag $C$DW$T$30
    4745                    
    4746                            .dwattr $C$DW$T$30, DW_AT_decl_file("C:/VLIB_Tools/CCSV5_4_0/ccsv5/tools/compiler/C6000/includ
    4747                            .dwattr $C$DW$T$30, DW_AT_decl_line(0x43)
    4748                            .dwattr $C$DW$T$30, DW_AT_decl_column(0x10)
    4749                    $C$DW$T$50      .dwtag  DW_TAG_typedef, DW_AT_name("lldiv_t")
    4750                            .dwattr $C$DW$T$50, DW_AT_type(*$C$DW$T$30)
    4751                            .dwattr $C$DW$T$50, DW_AT_language(DW_LANG_C)
    4752                            .dwattr $C$DW$T$50, DW_AT_decl_file("C:/VLIB_Tools/CCSV5_4_0/ccsv5/tools/compiler/C6000/includ
    4753                            .dwattr $C$DW$T$50, DW_AT_decl_line(0x43)
    4754                            .dwattr $C$DW$T$50, DW_AT_decl_column(0x29)
    4755                    
    4756                    $C$DW$T$31      .dwtag  DW_TAG_structure_type
    4757                            .dwattr $C$DW$T$31, DW_AT_byte_size(0x24)
    4758                    $C$DW$409       .dwtag  DW_TAG_member
    4759                            .dwattr $C$DW$409, DW_AT_type(*$C$DW$T$23)
    4760                            .dwattr $C$DW$409, DW_AT_name("area")
    4761                            .dwattr $C$DW$409, DW_AT_TI_symbol_name("area")
    4762                            .dwattr $C$DW$409, DW_AT_data_member_location[DW_OP_plus_uconst 0x0]
    4763                            .dwattr $C$DW$409, DW_AT_accessibility(DW_ACCESS_public)
    4764                            .dwattr $C$DW$409, DW_AT_decl_file(".\..\packages\ti\vlib\src\VLIB_mixtureOfGaussiansS32\..\co
    4765                            .dwattr $C$DW$409, DW_AT_decl_line(0x69)
    4766                            .dwattr $C$DW$409, DW_AT_decl_column(0x0d)
    4767                    $C$DW$410       .dwtag  DW_TAG_member
    4768                            .dwattr $C$DW$410, DW_AT_type(*$C$DW$T$23)
    4769                            .dwattr $C$DW$410, DW_AT_name("xsum")
    4770                            .dwattr $C$DW$410, DW_AT_TI_symbol_name("xsum")
    4771                            .dwattr $C$DW$410, DW_AT_data_member_location[DW_OP_plus_uconst 0x4]
    4772                            .dwattr $C$DW$410, DW_AT_accessibility(DW_ACCESS_public)
    4773                            .dwattr $C$DW$410, DW_AT_decl_file(".\..\packages\ti\vlib\src\VLIB_mixtureOfGaussiansS32\..\co
    4774                            .dwattr $C$DW$410, DW_AT_decl_line(0x6a)
TMS320C6x Assembler PC v7.4.2 Thu Mar 19 12:43:28 2015

Tools Copyright (c) 1996-2012 Texas Instruments Incorporated
package/lib/Regression/regress_d_c/./../packages/ti/vlib/src/VLIB_mixtureOfGaussiansS32/VLIB_mixtureOfGaussiansS32_d.se66 PAGE  103

    4775                            .dwattr $C$DW$410, DW_AT_decl_column(0x0d)
    4776                    $C$DW$411       .dwtag  DW_TAG_member
    4777                            .dwattr $C$DW$411, DW_AT_type(*$C$DW$T$23)
    4778                            .dwattr $C$DW$411, DW_AT_name("ysum")
    4779                            .dwattr $C$DW$411, DW_AT_TI_symbol_name("ysum")
    4780                            .dwattr $C$DW$411, DW_AT_data_member_location[DW_OP_plus_uconst 0x8]
    4781                            .dwattr $C$DW$411, DW_AT_accessibility(DW_ACCESS_public)
    4782                            .dwattr $C$DW$411, DW_AT_decl_file(".\..\packages\ti\vlib\src\VLIB_mixtureOfGaussiansS32\..\co
    4783                            .dwattr $C$DW$411, DW_AT_decl_line(0x6b)
    4784                            .dwattr $C$DW$411, DW_AT_decl_column(0x0d)
    4785                    $C$DW$412       .dwtag  DW_TAG_member
    4786                            .dwattr $C$DW$412, DW_AT_type(*$C$DW$T$23)
    4787                            .dwattr $C$DW$412, DW_AT_name("xmin")
    4788                            .dwattr $C$DW$412, DW_AT_TI_symbol_name("xmin")
    4789                            .dwattr $C$DW$412, DW_AT_data_member_location[DW_OP_plus_uconst 0xc]
    4790                            .dwattr $C$DW$412, DW_AT_accessibility(DW_ACCESS_public)
    4791                            .dwattr $C$DW$412, DW_AT_decl_file(".\..\packages\ti\vlib\src\VLIB_mixtureOfGaussiansS32\..\co
    4792                            .dwattr $C$DW$412, DW_AT_decl_line(0x6d)
    4793                            .dwattr $C$DW$412, DW_AT_decl_column(0x0d)
    4794                    $C$DW$413       .dwtag  DW_TAG_member
    4795                            .dwattr $C$DW$413, DW_AT_type(*$C$DW$T$23)
    4796                            .dwattr $C$DW$413, DW_AT_name("ymin")
    4797                            .dwattr $C$DW$413, DW_AT_TI_symbol_name("ymin")
    4798                            .dwattr $C$DW$413, DW_AT_data_member_location[DW_OP_plus_uconst 0x10]
    4799                            .dwattr $C$DW$413, DW_AT_accessibility(DW_ACCESS_public)
    4800                            .dwattr $C$DW$413, DW_AT_decl_file(".\..\packages\ti\vlib\src\VLIB_mixtureOfGaussiansS32\..\co
    4801                            .dwattr $C$DW$413, DW_AT_decl_line(0x6e)
    4802                            .dwattr $C$DW$413, DW_AT_decl_column(0x0d)
    4803                    $C$DW$414       .dwtag  DW_TAG_member
    4804                            .dwattr $C$DW$414, DW_AT_type(*$C$DW$T$23)
    4805                            .dwattr $C$DW$414, DW_AT_name("xmax")
    4806                            .dwattr $C$DW$414, DW_AT_TI_symbol_name("xmax")
    4807                            .dwattr $C$DW$414, DW_AT_data_member_location[DW_OP_plus_uconst 0x14]
    4808                            .dwattr $C$DW$414, DW_AT_accessibility(DW_ACCESS_public)
    4809                            .dwattr $C$DW$414, DW_AT_decl_file(".\..\packages\ti\vlib\src\VLIB_mixtureOfGaussiansS32\..\co
    4810                            .dwattr $C$DW$414, DW_AT_decl_line(0x6f)
    4811                            .dwattr $C$DW$414, DW_AT_decl_column(0x0d)
    4812                    $C$DW$415       .dwtag  DW_TAG_member
    4813                            .dwattr $C$DW$415, DW_AT_type(*$C$DW$T$23)
    4814                            .dwattr $C$DW$415, DW_AT_name("ymax")
    4815                            .dwattr $C$DW$415, DW_AT_TI_symbol_name("ymax")
    4816                            .dwattr $C$DW$415, DW_AT_data_member_location[DW_OP_plus_uconst 0x18]
    4817                            .dwattr $C$DW$415, DW_AT_accessibility(DW_ACCESS_public)
    4818                            .dwattr $C$DW$415, DW_AT_decl_file(".\..\packages\ti\vlib\src\VLIB_mixtureOfGaussiansS32\..\co
    4819                            .dwattr $C$DW$415, DW_AT_decl_line(0x70)
    4820                            .dwattr $C$DW$415, DW_AT_decl_column(0x0d)
    4821                    $C$DW$416       .dwtag  DW_TAG_member
    4822                            .dwattr $C$DW$416, DW_AT_type(*$C$DW$T$23)
    4823                            .dwattr $C$DW$416, DW_AT_name("seedx")
    4824                            .dwattr $C$DW$416, DW_AT_TI_symbol_name("seedx")
    4825                            .dwattr $C$DW$416, DW_AT_data_member_location[DW_OP_plus_uconst 0x1c]
    4826                            .dwattr $C$DW$416, DW_AT_accessibility(DW_ACCESS_public)
    4827                            .dwattr $C$DW$416, DW_AT_decl_file(".\..\packages\ti\vlib\src\VLIB_mixtureOfGaussiansS32\..\co
    4828                            .dwattr $C$DW$416, DW_AT_decl_line(0x72)
    4829                            .dwattr $C$DW$416, DW_AT_decl_column(0x0d)
TMS320C6x Assembler PC v7.4.2 Thu Mar 19 12:43:28 2015

Tools Copyright (c) 1996-2012 Texas Instruments Incorporated
package/lib/Regression/regress_d_c/./../packages/ti/vlib/src/VLIB_mixtureOfGaussiansS32/VLIB_mixtureOfGaussiansS32_d.se66 PAGE  104

    4830                    $C$DW$417       .dwtag  DW_TAG_member
    4831                            .dwattr $C$DW$417, DW_AT_type(*$C$DW$T$23)
    4832                            .dwattr $C$DW$417, DW_AT_name("seedy")
    4833                            .dwattr $C$DW$417, DW_AT_TI_symbol_name("seedy")
    4834                            .dwattr $C$DW$417, DW_AT_data_member_location[DW_OP_plus_uconst 0x20]
    4835                            .dwattr $C$DW$417, DW_AT_accessibility(DW_ACCESS_public)
    4836                            .dwattr $C$DW$417, DW_AT_decl_file(".\..\packages\ti\vlib\src\VLIB_mixtureOfGaussiansS32\..\co
    4837                            .dwattr $C$DW$417, DW_AT_decl_line(0x73)
    4838                            .dwattr $C$DW$417, DW_AT_decl_column(0x0d)
    4839                            .dwendtag $C$DW$T$31
    4840                    
    4841                            .dwattr $C$DW$T$31, DW_AT_decl_file(".\..\packages\ti\vlib\src\VLIB_mixtureOfGaussiansS32\..\c
    4842                            .dwattr $C$DW$T$31, DW_AT_decl_line(0x68)
    4843                            .dwattr $C$DW$T$31, DW_AT_decl_column(0x10)
    4844                    $C$DW$T$51      .dwtag  DW_TAG_typedef, DW_AT_name("VLIB_CC")
    4845                            .dwattr $C$DW$T$51, DW_AT_type(*$C$DW$T$31)
    4846                            .dwattr $C$DW$T$51, DW_AT_language(DW_LANG_C)
    4847                            .dwattr $C$DW$T$51, DW_AT_decl_file(".\..\packages\ti\vlib\src\VLIB_mixtureOfGaussiansS32\..\c
    4848                            .dwattr $C$DW$T$51, DW_AT_decl_line(0x75)
    4849                            .dwattr $C$DW$T$51, DW_AT_decl_column(0x03)
    4850                    
    4851                    $C$DW$T$34      .dwtag  DW_TAG_structure_type
    4852                            .dwattr $C$DW$T$34, DW_AT_byte_size(0x10)
    4853                    $C$DW$418       .dwtag  DW_TAG_member
    4854                            .dwattr $C$DW$418, DW_AT_type(*$C$DW$T$8)
    4855                            .dwattr $C$DW$418, DW_AT_name("daylight")
    4856                            .dwattr $C$DW$418, DW_AT_TI_symbol_name("daylight")
    4857                            .dwattr $C$DW$418, DW_AT_data_member_location[DW_OP_plus_uconst 0x0]
    4858                            .dwattr $C$DW$418, DW_AT_accessibility(DW_ACCESS_public)
    4859                            .dwattr $C$DW$418, DW_AT_decl_file("C:/VLIB_Tools/CCSV5_4_0/ccsv5/tools/compiler/C6000/include
    4860                            .dwattr $C$DW$418, DW_AT_decl_line(0x52)
    4861                            .dwattr $C$DW$418, DW_AT_decl_column(0x0b)
    4862                    $C$DW$419       .dwtag  DW_TAG_member
    4863                            .dwattr $C$DW$419, DW_AT_type(*$C$DW$T$10)
    4864                            .dwattr $C$DW$419, DW_AT_name("timezone")
    4865                            .dwattr $C$DW$419, DW_AT_TI_symbol_name("timezone")
    4866                            .dwattr $C$DW$419, DW_AT_data_member_location[DW_OP_plus_uconst 0x4]
    4867                            .dwattr $C$DW$419, DW_AT_accessibility(DW_ACCESS_public)
    4868                            .dwattr $C$DW$419, DW_AT_decl_file("C:/VLIB_Tools/CCSV5_4_0/ccsv5/tools/compiler/C6000/include
    4869                            .dwattr $C$DW$419, DW_AT_decl_line(0x53)
    4870                            .dwattr $C$DW$419, DW_AT_decl_column(0x0b)
    4871                    $C$DW$420       .dwtag  DW_TAG_member
    4872                            .dwattr $C$DW$420, DW_AT_type(*$C$DW$T$33)
    4873                            .dwattr $C$DW$420, DW_AT_name("tzname")
    4874                            .dwattr $C$DW$420, DW_AT_TI_symbol_name("tzname")
    4875                            .dwattr $C$DW$420, DW_AT_data_member_location[DW_OP_plus_uconst 0x8]
    4876                            .dwattr $C$DW$420, DW_AT_accessibility(DW_ACCESS_public)
    4877                            .dwattr $C$DW$420, DW_AT_decl_file("C:/VLIB_Tools/CCSV5_4_0/ccsv5/tools/compiler/C6000/include
    4878                            .dwattr $C$DW$420, DW_AT_decl_line(0x54)
    4879                            .dwattr $C$DW$420, DW_AT_decl_column(0x0b)
    4880                    $C$DW$421       .dwtag  DW_TAG_member
    4881                            .dwattr $C$DW$421, DW_AT_type(*$C$DW$T$33)
    4882                            .dwattr $C$DW$421, DW_AT_name("dstname")
    4883                            .dwattr $C$DW$421, DW_AT_TI_symbol_name("dstname")
    4884                            .dwattr $C$DW$421, DW_AT_data_member_location[DW_OP_plus_uconst 0xc]
TMS320C6x Assembler PC v7.4.2 Thu Mar 19 12:43:28 2015

Tools Copyright (c) 1996-2012 Texas Instruments Incorporated
package/lib/Regression/regress_d_c/./../packages/ti/vlib/src/VLIB_mixtureOfGaussiansS32/VLIB_mixtureOfGaussiansS32_d.se66 PAGE  105

    4885                            .dwattr $C$DW$421, DW_AT_accessibility(DW_ACCESS_public)
    4886                            .dwattr $C$DW$421, DW_AT_decl_file("C:/VLIB_Tools/CCSV5_4_0/ccsv5/tools/compiler/C6000/include
    4887                            .dwattr $C$DW$421, DW_AT_decl_line(0x55)
    4888                            .dwattr $C$DW$421, DW_AT_decl_column(0x0b)
    4889                            .dwendtag $C$DW$T$34
    4890                    
    4891                            .dwattr $C$DW$T$34, DW_AT_decl_file("C:/VLIB_Tools/CCSV5_4_0/ccsv5/tools/compiler/C6000/includ
    4892                            .dwattr $C$DW$T$34, DW_AT_decl_line(0x51)
    4893                            .dwattr $C$DW$T$34, DW_AT_decl_column(0x01)
    4894                    $C$DW$T$52      .dwtag  DW_TAG_typedef, DW_AT_name("TZ")
    4895                            .dwattr $C$DW$T$52, DW_AT_type(*$C$DW$T$34)
    4896                            .dwattr $C$DW$T$52, DW_AT_language(DW_LANG_C)
    4897                            .dwattr $C$DW$T$52, DW_AT_decl_file("C:/VLIB_Tools/CCSV5_4_0/ccsv5/tools/compiler/C6000/includ
    4898                            .dwattr $C$DW$T$52, DW_AT_decl_line(0x56)
    4899                            .dwattr $C$DW$T$52, DW_AT_decl_column(0x03)
    4900                    $C$DW$T$2       .dwtag  DW_TAG_unspecified_type
    4901                            .dwattr $C$DW$T$2, DW_AT_name("void")
    4902                    $C$DW$T$3       .dwtag  DW_TAG_pointer_type
    4903                            .dwattr $C$DW$T$3, DW_AT_type(*$C$DW$T$2)
    4904                            .dwattr $C$DW$T$3, DW_AT_address_class(0x20)
    4905                    $C$DW$T$53      .dwtag  DW_TAG_typedef, DW_AT_name("VLIB_PTR")
    4906                            .dwattr $C$DW$T$53, DW_AT_type(*$C$DW$T$3)
    4907                            .dwattr $C$DW$T$53, DW_AT_language(DW_LANG_C)
    4908                            .dwattr $C$DW$T$53, DW_AT_decl_file(".\..\packages\ti\vlib\src\VLIB_mixtureOfGaussiansS32\..\c
    4909                            .dwattr $C$DW$T$53, DW_AT_decl_line(0x5c)
    4910                            .dwattr $C$DW$T$53, DW_AT_decl_column(0x19)
    4911                    $C$DW$T$4       .dwtag  DW_TAG_base_type
    4912                            .dwattr $C$DW$T$4, DW_AT_encoding(DW_ATE_boolean)
    4913                            .dwattr $C$DW$T$4, DW_AT_name("bool")
    4914                            .dwattr $C$DW$T$4, DW_AT_byte_size(0x01)
    4915                    $C$DW$T$5       .dwtag  DW_TAG_base_type
    4916                            .dwattr $C$DW$T$5, DW_AT_encoding(DW_ATE_signed_char)
    4917                            .dwattr $C$DW$T$5, DW_AT_name("signed char")
    4918                            .dwattr $C$DW$T$5, DW_AT_byte_size(0x01)
    4919                    $C$DW$T$82      .dwtag  DW_TAG_pointer_type
    4920                            .dwattr $C$DW$T$82, DW_AT_type(*$C$DW$T$5)
    4921                            .dwattr $C$DW$T$82, DW_AT_address_class(0x20)
    4922                    $C$DW$T$105     .dwtag  DW_TAG_typedef, DW_AT_name("int8_t")
    4923                            .dwattr $C$DW$T$105, DW_AT_type(*$C$DW$T$5)
    4924                            .dwattr $C$DW$T$105, DW_AT_language(DW_LANG_C)
    4925                            .dwattr $C$DW$T$105, DW_AT_decl_file("C:/VLIB_Tools/CCSV5_4_0/ccsv5/tools/compiler/C6000/inclu
    4926                            .dwattr $C$DW$T$105, DW_AT_decl_line(0x2a)
    4927                            .dwattr $C$DW$T$105, DW_AT_decl_column(0x1d)
    4928                    
    4929                    $C$DW$T$106     .dwtag  DW_TAG_array_type
    4930                            .dwattr $C$DW$T$106, DW_AT_type(*$C$DW$T$105)
    4931                            .dwattr $C$DW$T$106, DW_AT_language(DW_LANG_C)
    4932                            .dwattr $C$DW$T$106, DW_AT_byte_size(0x03)
    4933                    $C$DW$422       .dwtag  DW_TAG_subrange_type
    4934                            .dwattr $C$DW$422, DW_AT_upper_bound(0x02)
    4935                            .dwendtag $C$DW$T$106
    4936                    
    4937                    $C$DW$T$107     .dwtag  DW_TAG_typedef, DW_AT_name("int_least8_t")
    4938                            .dwattr $C$DW$T$107, DW_AT_type(*$C$DW$T$105)
    4939                            .dwattr $C$DW$T$107, DW_AT_language(DW_LANG_C)
TMS320C6x Assembler PC v7.4.2 Thu Mar 19 12:43:28 2015

Tools Copyright (c) 1996-2012 Texas Instruments Incorporated
package/lib/Regression/regress_d_c/./../packages/ti/vlib/src/VLIB_mixtureOfGaussiansS32/VLIB_mixtureOfGaussiansS32_d.se66 PAGE  106

    4940                            .dwattr $C$DW$T$107, DW_AT_decl_file("C:/VLIB_Tools/CCSV5_4_0/ccsv5/tools/compiler/C6000/inclu
    4941                            .dwattr $C$DW$T$107, DW_AT_decl_line(0x39)
    4942                            .dwattr $C$DW$T$107, DW_AT_decl_column(0x17)
    4943                    $C$DW$T$6       .dwtag  DW_TAG_base_type
    4944                            .dwattr $C$DW$T$6, DW_AT_encoding(DW_ATE_unsigned_char)
    4945                            .dwattr $C$DW$T$6, DW_AT_name("unsigned char")
    4946                            .dwattr $C$DW$T$6, DW_AT_byte_size(0x01)
    4947                    $C$DW$T$26      .dwtag  DW_TAG_pointer_type
    4948                            .dwattr $C$DW$T$26, DW_AT_type(*$C$DW$T$6)
    4949                            .dwattr $C$DW$T$26, DW_AT_address_class(0x20)
    4950                    $C$DW$T$19      .dwtag  DW_TAG_typedef, DW_AT_name("uint8_t")
    4951                            .dwattr $C$DW$T$19, DW_AT_type(*$C$DW$T$6)
    4952                            .dwattr $C$DW$T$19, DW_AT_language(DW_LANG_C)
    4953                            .dwattr $C$DW$T$19, DW_AT_decl_file("C:/VLIB_Tools/CCSV5_4_0/ccsv5/tools/compiler/C6000/includ
    4954                            .dwattr $C$DW$T$19, DW_AT_decl_line(0x2b)
    4955                            .dwattr $C$DW$T$19, DW_AT_decl_column(0x1c)
    4956                    $C$DW$T$20      .dwtag  DW_TAG_pointer_type
    4957                            .dwattr $C$DW$T$20, DW_AT_type(*$C$DW$T$19)
    4958                            .dwattr $C$DW$T$20, DW_AT_address_class(0x20)
    4959                    $C$DW$T$109     .dwtag  DW_TAG_restrict_type
    4960                            .dwattr $C$DW$T$109, DW_AT_type(*$C$DW$T$20)
    4961                    $C$DW$T$110     .dwtag  DW_TAG_const_type
    4962                            .dwattr $C$DW$T$110, DW_AT_type(*$C$DW$T$19)
    4963                    $C$DW$T$111     .dwtag  DW_TAG_pointer_type
    4964                            .dwattr $C$DW$T$111, DW_AT_type(*$C$DW$T$110)
    4965                            .dwattr $C$DW$T$111, DW_AT_address_class(0x20)
    4966                    $C$DW$T$112     .dwtag  DW_TAG_restrict_type
    4967                            .dwattr $C$DW$T$112, DW_AT_type(*$C$DW$T$111)
    4968                    $C$DW$T$113     .dwtag  DW_TAG_typedef, DW_AT_name("uint_least8_t")
    4969                            .dwattr $C$DW$T$113, DW_AT_type(*$C$DW$T$19)
    4970                            .dwattr $C$DW$T$113, DW_AT_language(DW_LANG_C)
    4971                            .dwattr $C$DW$T$113, DW_AT_decl_file("C:/VLIB_Tools/CCSV5_4_0/ccsv5/tools/compiler/C6000/inclu
    4972                            .dwattr $C$DW$T$113, DW_AT_decl_line(0x3a)
    4973                            .dwattr $C$DW$T$113, DW_AT_decl_column(0x16)
    4974                    $C$DW$T$7       .dwtag  DW_TAG_base_type
    4975                            .dwattr $C$DW$T$7, DW_AT_encoding(DW_ATE_signed_char)
    4976                            .dwattr $C$DW$T$7, DW_AT_name("wchar_t")
    4977                            .dwattr $C$DW$T$7, DW_AT_byte_size(0x02)
    4978                    $C$DW$T$8       .dwtag  DW_TAG_base_type
    4979                            .dwattr $C$DW$T$8, DW_AT_encoding(DW_ATE_signed)
    4980                            .dwattr $C$DW$T$8, DW_AT_name("short")
    4981                            .dwattr $C$DW$T$8, DW_AT_byte_size(0x02)
    4982                    $C$DW$T$114     .dwtag  DW_TAG_pointer_type
    4983                            .dwattr $C$DW$T$114, DW_AT_type(*$C$DW$T$8)
    4984                            .dwattr $C$DW$T$114, DW_AT_address_class(0x20)
    4985                    $C$DW$T$24      .dwtag  DW_TAG_typedef, DW_AT_name("int16_t")
    4986                            .dwattr $C$DW$T$24, DW_AT_type(*$C$DW$T$8)
    4987                            .dwattr $C$DW$T$24, DW_AT_language(DW_LANG_C)
    4988                            .dwattr $C$DW$T$24, DW_AT_decl_file("C:/VLIB_Tools/CCSV5_4_0/ccsv5/tools/compiler/C6000/includ
    4989                            .dwattr $C$DW$T$24, DW_AT_decl_line(0x2c)
    4990                            .dwattr $C$DW$T$24, DW_AT_decl_column(0x1d)
    4991                    $C$DW$T$115     .dwtag  DW_TAG_pointer_type
    4992                            .dwattr $C$DW$T$115, DW_AT_type(*$C$DW$T$24)
    4993                            .dwattr $C$DW$T$115, DW_AT_address_class(0x20)
    4994                    $C$DW$T$116     .dwtag  DW_TAG_restrict_type
TMS320C6x Assembler PC v7.4.2 Thu Mar 19 12:43:28 2015

Tools Copyright (c) 1996-2012 Texas Instruments Incorporated
package/lib/Regression/regress_d_c/./../packages/ti/vlib/src/VLIB_mixtureOfGaussiansS32/VLIB_mixtureOfGaussiansS32_d.se66 PAGE  107

    4995                            .dwattr $C$DW$T$116, DW_AT_type(*$C$DW$T$115)
    4996                    $C$DW$T$117     .dwtag  DW_TAG_const_type
    4997                            .dwattr $C$DW$T$117, DW_AT_type(*$C$DW$T$24)
    4998                    $C$DW$T$118     .dwtag  DW_TAG_typedef, DW_AT_name("int_least16_t")
    4999                            .dwattr $C$DW$T$118, DW_AT_type(*$C$DW$T$24)
    5000                            .dwattr $C$DW$T$118, DW_AT_language(DW_LANG_C)
    5001                            .dwattr $C$DW$T$118, DW_AT_decl_file("C:/VLIB_Tools/CCSV5_4_0/ccsv5/tools/compiler/C6000/inclu
    5002                            .dwattr $C$DW$T$118, DW_AT_decl_line(0x3c)
    5003                            .dwattr $C$DW$T$118, DW_AT_decl_column(0x17)
    5004                    $C$DW$T$9       .dwtag  DW_TAG_base_type
    5005                            .dwattr $C$DW$T$9, DW_AT_encoding(DW_ATE_unsigned)
    5006                            .dwattr $C$DW$T$9, DW_AT_name("unsigned short")
    5007                            .dwattr $C$DW$T$9, DW_AT_byte_size(0x02)
    5008                    $C$DW$T$75      .dwtag  DW_TAG_typedef, DW_AT_name("uint16_t")
    5009                            .dwattr $C$DW$T$75, DW_AT_type(*$C$DW$T$9)
    5010                            .dwattr $C$DW$T$75, DW_AT_language(DW_LANG_C)
    5011                            .dwattr $C$DW$T$75, DW_AT_decl_file("C:/VLIB_Tools/CCSV5_4_0/ccsv5/tools/compiler/C6000/includ
    5012                            .dwattr $C$DW$T$75, DW_AT_decl_line(0x2d)
    5013                            .dwattr $C$DW$T$75, DW_AT_decl_column(0x1c)
    5014                    $C$DW$T$120     .dwtag  DW_TAG_typedef, DW_AT_name("uint_least16_t")
    5015                            .dwattr $C$DW$T$120, DW_AT_type(*$C$DW$T$75)
    5016                            .dwattr $C$DW$T$120, DW_AT_language(DW_LANG_C)
    5017                            .dwattr $C$DW$T$120, DW_AT_decl_file("C:/VLIB_Tools/CCSV5_4_0/ccsv5/tools/compiler/C6000/inclu
    5018                            .dwattr $C$DW$T$120, DW_AT_decl_line(0x3d)
    5019                            .dwattr $C$DW$T$120, DW_AT_decl_column(0x16)
    5020                    $C$DW$T$119     .dwtag  DW_TAG_typedef, DW_AT_name("wchar_t")
    5021                            .dwattr $C$DW$T$119, DW_AT_type(*$C$DW$T$9)
    5022                            .dwattr $C$DW$T$119, DW_AT_language(DW_LANG_C)
    5023                            .dwattr $C$DW$T$119, DW_AT_decl_file("C:/VLIB_Tools/CCSV5_4_0/ccsv5/tools/compiler/C6000/inclu
    5024                            .dwattr $C$DW$T$119, DW_AT_decl_line(0x53)
    5025                            .dwattr $C$DW$T$119, DW_AT_decl_column(0x1a)
    5026                    $C$DW$T$10      .dwtag  DW_TAG_base_type
    5027                            .dwattr $C$DW$T$10, DW_AT_encoding(DW_ATE_signed)
    5028                            .dwattr $C$DW$T$10, DW_AT_name("int")
    5029                            .dwattr $C$DW$T$10, DW_AT_byte_size(0x04)
    5030                    $C$DW$T$136     .dwtag  DW_TAG_pointer_type
    5031                            .dwattr $C$DW$T$136, DW_AT_type(*$C$DW$T$10)
    5032                            .dwattr $C$DW$T$136, DW_AT_address_class(0x20)
    5033                    $C$DW$T$145     .dwtag  DW_TAG_typedef, DW_AT_name("fpos_t")
    5034                            .dwattr $C$DW$T$145, DW_AT_type(*$C$DW$T$10)
    5035                            .dwattr $C$DW$T$145, DW_AT_language(DW_LANG_C)
    5036                            .dwattr $C$DW$T$145, DW_AT_decl_file("C:/VLIB_Tools/CCSV5_4_0/ccsv5/tools/compiler/C6000/inclu
    5037                            .dwattr $C$DW$T$145, DW_AT_decl_line(0x53)
    5038                            .dwattr $C$DW$T$145, DW_AT_decl_column(0x0d)
    5039                    $C$DW$T$23      .dwtag  DW_TAG_typedef, DW_AT_name("int32_t")
    5040                            .dwattr $C$DW$T$23, DW_AT_type(*$C$DW$T$10)
    5041                            .dwattr $C$DW$T$23, DW_AT_language(DW_LANG_C)
    5042                            .dwattr $C$DW$T$23, DW_AT_decl_file("C:/VLIB_Tools/CCSV5_4_0/ccsv5/tools/compiler/C6000/includ
    5043                            .dwattr $C$DW$T$23, DW_AT_decl_line(0x2e)
    5044                            .dwattr $C$DW$T$23, DW_AT_decl_column(0x1d)
    5045                    $C$DW$T$137     .dwtag  DW_TAG_typedef, DW_AT_name("VLIB_CCHandle")
    5046                            .dwattr $C$DW$T$137, DW_AT_type(*$C$DW$T$23)
    5047                            .dwattr $C$DW$T$137, DW_AT_language(DW_LANG_C)
    5048                            .dwattr $C$DW$T$137, DW_AT_decl_file(".\..\packages\ti\vlib\src\VLIB_mixtureOfGaussiansS32\..\
    5049                            .dwattr $C$DW$T$137, DW_AT_decl_line(0x77)
TMS320C6x Assembler PC v7.4.2 Thu Mar 19 12:43:28 2015

Tools Copyright (c) 1996-2012 Texas Instruments Incorporated
package/lib/Regression/regress_d_c/./../packages/ti/vlib/src/VLIB_mixtureOfGaussiansS32/VLIB_mixtureOfGaussiansS32_d.se66 PAGE  108

    5050                            .dwattr $C$DW$T$137, DW_AT_decl_column(0x11)
    5051                    
    5052                    $C$DW$T$35      .dwtag  DW_TAG_array_type
    5053                            .dwattr $C$DW$T$35, DW_AT_type(*$C$DW$T$23)
    5054                            .dwattr $C$DW$T$35, DW_AT_language(DW_LANG_C)
    5055                            .dwattr $C$DW$T$35, DW_AT_byte_size(0x10)
    5056                    $C$DW$423       .dwtag  DW_TAG_subrange_type
    5057                            .dwattr $C$DW$423, DW_AT_upper_bound(0x03)
    5058                            .dwendtag $C$DW$T$35
    5059                    
    5060                    $C$DW$T$78      .dwtag  DW_TAG_pointer_type
    5061                            .dwattr $C$DW$T$78, DW_AT_type(*$C$DW$T$23)
    5062                            .dwattr $C$DW$T$78, DW_AT_address_class(0x20)
    5063                    $C$DW$T$131     .dwtag  DW_TAG_restrict_type
    5064                            .dwattr $C$DW$T$131, DW_AT_type(*$C$DW$T$78)
    5065                    $C$DW$T$133     .dwtag  DW_TAG_const_type
    5066                            .dwattr $C$DW$T$133, DW_AT_type(*$C$DW$T$23)
    5067                    $C$DW$T$140     .dwtag  DW_TAG_typedef, DW_AT_name("int_fast16_t")
    5068                            .dwattr $C$DW$T$140, DW_AT_type(*$C$DW$T$23)
    5069                            .dwattr $C$DW$T$140, DW_AT_language(DW_LANG_C)
    5070                            .dwattr $C$DW$T$140, DW_AT_decl_file("C:/VLIB_Tools/CCSV5_4_0/ccsv5/tools/compiler/C6000/inclu
    5071                            .dwattr $C$DW$T$140, DW_AT_decl_line(0x4b)
    5072                            .dwattr $C$DW$T$140, DW_AT_decl_column(0x17)
    5073                    $C$DW$T$141     .dwtag  DW_TAG_typedef, DW_AT_name("int_fast32_t")
    5074                            .dwattr $C$DW$T$141, DW_AT_type(*$C$DW$T$23)
    5075                            .dwattr $C$DW$T$141, DW_AT_language(DW_LANG_C)
    5076                            .dwattr $C$DW$T$141, DW_AT_decl_file("C:/VLIB_Tools/CCSV5_4_0/ccsv5/tools/compiler/C6000/inclu
    5077                            .dwattr $C$DW$T$141, DW_AT_decl_line(0x4e)
    5078                            .dwattr $C$DW$T$141, DW_AT_decl_column(0x17)
    5079                    $C$DW$T$142     .dwtag  DW_TAG_typedef, DW_AT_name("int_fast8_t")
    5080                            .dwattr $C$DW$T$142, DW_AT_type(*$C$DW$T$23)
    5081                            .dwattr $C$DW$T$142, DW_AT_language(DW_LANG_C)
    5082                            .dwattr $C$DW$T$142, DW_AT_decl_file("C:/VLIB_Tools/CCSV5_4_0/ccsv5/tools/compiler/C6000/inclu
    5083                            .dwattr $C$DW$T$142, DW_AT_decl_line(0x49)
    5084                            .dwattr $C$DW$T$142, DW_AT_decl_column(0x17)
    5085                    $C$DW$T$143     .dwtag  DW_TAG_typedef, DW_AT_name("int_least32_t")
    5086                            .dwattr $C$DW$T$143, DW_AT_type(*$C$DW$T$23)
    5087                            .dwattr $C$DW$T$143, DW_AT_language(DW_LANG_C)
    5088                            .dwattr $C$DW$T$143, DW_AT_decl_file("C:/VLIB_Tools/CCSV5_4_0/ccsv5/tools/compiler/C6000/inclu
    5089                            .dwattr $C$DW$T$143, DW_AT_decl_line(0x3e)
    5090                            .dwattr $C$DW$T$143, DW_AT_decl_column(0x17)
    5091                    $C$DW$T$144     .dwtag  DW_TAG_typedef, DW_AT_name("intptr_t")
    5092                            .dwattr $C$DW$T$144, DW_AT_type(*$C$DW$T$10)
    5093                            .dwattr $C$DW$T$144, DW_AT_language(DW_LANG_C)
    5094                            .dwattr $C$DW$T$144, DW_AT_decl_file("C:/VLIB_Tools/CCSV5_4_0/ccsv5/tools/compiler/C6000/inclu
    5095                            .dwattr $C$DW$T$144, DW_AT_decl_line(0x58)
    5096                            .dwattr $C$DW$T$144, DW_AT_decl_column(0x1a)
    5097                    $C$DW$T$11      .dwtag  DW_TAG_base_type
    5098                            .dwattr $C$DW$T$11, DW_AT_encoding(DW_ATE_unsigned)
    5099                            .dwattr $C$DW$T$11, DW_AT_name("unsigned int")
    5100                            .dwattr $C$DW$T$11, DW_AT_byte_size(0x04)
    5101                    $C$DW$T$146     .dwtag  DW_TAG_typedef, DW_AT_name("VLIB_VAL")
    5102                            .dwattr $C$DW$T$146, DW_AT_type(*$C$DW$T$11)
    5103                            .dwattr $C$DW$T$146, DW_AT_language(DW_LANG_C)
    5104                            .dwattr $C$DW$T$146, DW_AT_decl_file(".\..\packages\ti\vlib\src\VLIB_mixtureOfGaussiansS32\..\
TMS320C6x Assembler PC v7.4.2 Thu Mar 19 12:43:28 2015

Tools Copyright (c) 1996-2012 Texas Instruments Incorporated
package/lib/Regression/regress_d_c/./../packages/ti/vlib/src/VLIB_mixtureOfGaussiansS32/VLIB_mixtureOfGaussiansS32_d.se66 PAGE  109

    5105                            .dwattr $C$DW$T$146, DW_AT_decl_line(0x5d)
    5106                            .dwattr $C$DW$T$146, DW_AT_decl_column(0x17)
    5107                    $C$DW$T$147     .dwtag  DW_TAG_pointer_type
    5108                            .dwattr $C$DW$T$147, DW_AT_type(*$C$DW$T$11)
    5109                            .dwattr $C$DW$T$147, DW_AT_address_class(0x20)
    5110                    $C$DW$T$158     .dwtag  DW_TAG_typedef, DW_AT_name("clock_t")
    5111                            .dwattr $C$DW$T$158, DW_AT_type(*$C$DW$T$11)
    5112                            .dwattr $C$DW$T$158, DW_AT_language(DW_LANG_C)
    5113                            .dwattr $C$DW$T$158, DW_AT_decl_file("C:/VLIB_Tools/CCSV5_4_0/ccsv5/tools/compiler/C6000/inclu
    5114                            .dwattr $C$DW$T$158, DW_AT_decl_line(0x37)
    5115                            .dwattr $C$DW$T$158, DW_AT_decl_column(0x16)
    5116                    $C$DW$T$54      .dwtag  DW_TAG_typedef, DW_AT_name("size_t")
    5117                            .dwattr $C$DW$T$54, DW_AT_type(*$C$DW$T$11)
    5118                            .dwattr $C$DW$T$54, DW_AT_language(DW_LANG_C)
    5119                            .dwattr $C$DW$T$54, DW_AT_decl_file("C:/VLIB_Tools/CCSV5_4_0/ccsv5/tools/compiler/C6000/includ
    5120                            .dwattr $C$DW$T$54, DW_AT_decl_line(0x45)
    5121                            .dwattr $C$DW$T$54, DW_AT_decl_column(0x19)
    5122                    $C$DW$T$151     .dwtag  DW_TAG_typedef, DW_AT_name("time_t")
    5123                            .dwattr $C$DW$T$151, DW_AT_type(*$C$DW$T$11)
    5124                            .dwattr $C$DW$T$151, DW_AT_language(DW_LANG_C)
    5125                            .dwattr $C$DW$T$151, DW_AT_decl_file("C:/VLIB_Tools/CCSV5_4_0/ccsv5/tools/compiler/C6000/inclu
    5126                            .dwattr $C$DW$T$151, DW_AT_decl_line(0x38)
    5127                            .dwattr $C$DW$T$151, DW_AT_decl_column(0x16)
    5128                    $C$DW$T$21      .dwtag  DW_TAG_typedef, DW_AT_name("uint32_t")
    5129                            .dwattr $C$DW$T$21, DW_AT_type(*$C$DW$T$11)
    5130                            .dwattr $C$DW$T$21, DW_AT_language(DW_LANG_C)
    5131                            .dwattr $C$DW$T$21, DW_AT_decl_file("C:/VLIB_Tools/CCSV5_4_0/ccsv5/tools/compiler/C6000/includ
    5132                            .dwattr $C$DW$T$21, DW_AT_decl_line(0x2f)
    5133                            .dwattr $C$DW$T$21, DW_AT_decl_column(0x1c)
    5134                    $C$DW$T$22      .dwtag  DW_TAG_pointer_type
    5135                            .dwattr $C$DW$T$22, DW_AT_type(*$C$DW$T$21)
    5136                            .dwattr $C$DW$T$22, DW_AT_address_class(0x20)
    5137                    $C$DW$T$132     .dwtag  DW_TAG_restrict_type
    5138                            .dwattr $C$DW$T$132, DW_AT_type(*$C$DW$T$22)
    5139                    $C$DW$T$153     .dwtag  DW_TAG_typedef, DW_AT_name("uint_fast16_t")
    5140                            .dwattr $C$DW$T$153, DW_AT_type(*$C$DW$T$21)
    5141                            .dwattr $C$DW$T$153, DW_AT_language(DW_LANG_C)
    5142                            .dwattr $C$DW$T$153, DW_AT_decl_file("C:/VLIB_Tools/CCSV5_4_0/ccsv5/tools/compiler/C6000/inclu
    5143                            .dwattr $C$DW$T$153, DW_AT_decl_line(0x4c)
    5144                            .dwattr $C$DW$T$153, DW_AT_decl_column(0x16)
    5145                    $C$DW$T$154     .dwtag  DW_TAG_typedef, DW_AT_name("uint_fast32_t")
    5146                            .dwattr $C$DW$T$154, DW_AT_type(*$C$DW$T$21)
    5147                            .dwattr $C$DW$T$154, DW_AT_language(DW_LANG_C)
    5148                            .dwattr $C$DW$T$154, DW_AT_decl_file("C:/VLIB_Tools/CCSV5_4_0/ccsv5/tools/compiler/C6000/inclu
    5149                            .dwattr $C$DW$T$154, DW_AT_decl_line(0x4f)
    5150                            .dwattr $C$DW$T$154, DW_AT_decl_column(0x16)
    5151                    $C$DW$T$155     .dwtag  DW_TAG_typedef, DW_AT_name("uint_fast8_t")
    5152                            .dwattr $C$DW$T$155, DW_AT_type(*$C$DW$T$21)
    5153                            .dwattr $C$DW$T$155, DW_AT_language(DW_LANG_C)
    5154                            .dwattr $C$DW$T$155, DW_AT_decl_file("C:/VLIB_Tools/CCSV5_4_0/ccsv5/tools/compiler/C6000/inclu
    5155                            .dwattr $C$DW$T$155, DW_AT_decl_line(0x4a)
    5156                            .dwattr $C$DW$T$155, DW_AT_decl_column(0x16)
    5157                    $C$DW$T$156     .dwtag  DW_TAG_typedef, DW_AT_name("uint_least32_t")
    5158                            .dwattr $C$DW$T$156, DW_AT_type(*$C$DW$T$21)
    5159                            .dwattr $C$DW$T$156, DW_AT_language(DW_LANG_C)
TMS320C6x Assembler PC v7.4.2 Thu Mar 19 12:43:28 2015

Tools Copyright (c) 1996-2012 Texas Instruments Incorporated
package/lib/Regression/regress_d_c/./../packages/ti/vlib/src/VLIB_mixtureOfGaussiansS32/VLIB_mixtureOfGaussiansS32_d.se66 PAGE  110

    5160                            .dwattr $C$DW$T$156, DW_AT_decl_file("C:/VLIB_Tools/CCSV5_4_0/ccsv5/tools/compiler/C6000/inclu
    5161                            .dwattr $C$DW$T$156, DW_AT_decl_line(0x3f)
    5162                            .dwattr $C$DW$T$156, DW_AT_decl_column(0x16)
    5163                    $C$DW$T$157     .dwtag  DW_TAG_typedef, DW_AT_name("uintptr_t")
    5164                            .dwattr $C$DW$T$157, DW_AT_type(*$C$DW$T$11)
    5165                            .dwattr $C$DW$T$157, DW_AT_language(DW_LANG_C)
    5166                            .dwattr $C$DW$T$157, DW_AT_decl_file("C:/VLIB_Tools/CCSV5_4_0/ccsv5/tools/compiler/C6000/inclu
    5167                            .dwattr $C$DW$T$157, DW_AT_decl_line(0x59)
    5168                            .dwattr $C$DW$T$157, DW_AT_decl_column(0x1a)
    5169                    $C$DW$T$12      .dwtag  DW_TAG_base_type
    5170                            .dwattr $C$DW$T$12, DW_AT_encoding(DW_ATE_signed)
    5171                            .dwattr $C$DW$T$12, DW_AT_name("__int40_t")
    5172                            .dwattr $C$DW$T$12, DW_AT_byte_size(0x08)
    5173                            .dwattr $C$DW$T$12, DW_AT_bit_size(0x28)
    5174                            .dwattr $C$DW$T$12, DW_AT_bit_offset(0x18)
    5175                    $C$DW$T$159     .dwtag  DW_TAG_typedef, DW_AT_name("int40_t")
    5176                            .dwattr $C$DW$T$159, DW_AT_type(*$C$DW$T$12)
    5177                            .dwattr $C$DW$T$159, DW_AT_language(DW_LANG_C)
    5178                            .dwattr $C$DW$T$159, DW_AT_decl_file("C:/VLIB_Tools/CCSV5_4_0/ccsv5/tools/compiler/C6000/inclu
    5179                            .dwattr $C$DW$T$159, DW_AT_decl_line(0x31)
    5180                            .dwattr $C$DW$T$159, DW_AT_decl_column(0x21)
    5181                    $C$DW$T$160     .dwtag  DW_TAG_typedef, DW_AT_name("int_fast40_t")
    5182                            .dwattr $C$DW$T$160, DW_AT_type(*$C$DW$T$159)
    5183                            .dwattr $C$DW$T$160, DW_AT_language(DW_LANG_C)
    5184                            .dwattr $C$DW$T$160, DW_AT_decl_file("C:/VLIB_Tools/CCSV5_4_0/ccsv5/tools/compiler/C6000/inclu
    5185                            .dwattr $C$DW$T$160, DW_AT_decl_line(0x51)
    5186                            .dwattr $C$DW$T$160, DW_AT_decl_column(0x17)
    5187                    $C$DW$T$161     .dwtag  DW_TAG_typedef, DW_AT_name("int_least40_t")
    5188                            .dwattr $C$DW$T$161, DW_AT_type(*$C$DW$T$159)
    5189                            .dwattr $C$DW$T$161, DW_AT_language(DW_LANG_C)
    5190                            .dwattr $C$DW$T$161, DW_AT_decl_file("C:/VLIB_Tools/CCSV5_4_0/ccsv5/tools/compiler/C6000/inclu
    5191                            .dwattr $C$DW$T$161, DW_AT_decl_line(0x41)
    5192                            .dwattr $C$DW$T$161, DW_AT_decl_column(0x17)
    5193                    $C$DW$T$13      .dwtag  DW_TAG_base_type
    5194                            .dwattr $C$DW$T$13, DW_AT_encoding(DW_ATE_unsigned)
    5195                            .dwattr $C$DW$T$13, DW_AT_name("unsigned __int40_t")
    5196                            .dwattr $C$DW$T$13, DW_AT_byte_size(0x08)
    5197                            .dwattr $C$DW$T$13, DW_AT_bit_size(0x28)
    5198                            .dwattr $C$DW$T$13, DW_AT_bit_offset(0x18)
    5199                    $C$DW$T$162     .dwtag  DW_TAG_typedef, DW_AT_name("uint40_t")
    5200                            .dwattr $C$DW$T$162, DW_AT_type(*$C$DW$T$13)
    5201                            .dwattr $C$DW$T$162, DW_AT_language(DW_LANG_C)
    5202                            .dwattr $C$DW$T$162, DW_AT_decl_file("C:/VLIB_Tools/CCSV5_4_0/ccsv5/tools/compiler/C6000/inclu
    5203                            .dwattr $C$DW$T$162, DW_AT_decl_line(0x32)
    5204                            .dwattr $C$DW$T$162, DW_AT_decl_column(0x20)
    5205                    $C$DW$T$163     .dwtag  DW_TAG_typedef, DW_AT_name("uint_fast40_t")
    5206                            .dwattr $C$DW$T$163, DW_AT_type(*$C$DW$T$162)
    5207                            .dwattr $C$DW$T$163, DW_AT_language(DW_LANG_C)
    5208                            .dwattr $C$DW$T$163, DW_AT_decl_file("C:/VLIB_Tools/CCSV5_4_0/ccsv5/tools/compiler/C6000/inclu
    5209                            .dwattr $C$DW$T$163, DW_AT_decl_line(0x52)
    5210                            .dwattr $C$DW$T$163, DW_AT_decl_column(0x16)
    5211                    $C$DW$T$164     .dwtag  DW_TAG_typedef, DW_AT_name("uint_least40_t")
    5212                            .dwattr $C$DW$T$164, DW_AT_type(*$C$DW$T$162)
    5213                            .dwattr $C$DW$T$164, DW_AT_language(DW_LANG_C)
    5214                            .dwattr $C$DW$T$164, DW_AT_decl_file("C:/VLIB_Tools/CCSV5_4_0/ccsv5/tools/compiler/C6000/inclu
TMS320C6x Assembler PC v7.4.2 Thu Mar 19 12:43:28 2015

Tools Copyright (c) 1996-2012 Texas Instruments Incorporated
package/lib/Regression/regress_d_c/./../packages/ti/vlib/src/VLIB_mixtureOfGaussiansS32/VLIB_mixtureOfGaussiansS32_d.se66 PAGE  111

    5215                            .dwattr $C$DW$T$164, DW_AT_decl_line(0x42)
    5216                            .dwattr $C$DW$T$164, DW_AT_decl_column(0x16)
    5217                    $C$DW$T$14      .dwtag  DW_TAG_base_type
    5218                            .dwattr $C$DW$T$14, DW_AT_encoding(DW_ATE_signed)
    5219                            .dwattr $C$DW$T$14, DW_AT_name("long long")
    5220                            .dwattr $C$DW$T$14, DW_AT_byte_size(0x08)
    5221                    $C$DW$T$166     .dwtag  DW_TAG_typedef, DW_AT_name("int64_t")
    5222                            .dwattr $C$DW$T$166, DW_AT_type(*$C$DW$T$14)
    5223                            .dwattr $C$DW$T$166, DW_AT_language(DW_LANG_C)
    5224                            .dwattr $C$DW$T$166, DW_AT_decl_file("C:/VLIB_Tools/CCSV5_4_0/ccsv5/tools/compiler/C6000/inclu
    5225                            .dwattr $C$DW$T$166, DW_AT_decl_line(0x34)
    5226                            .dwattr $C$DW$T$166, DW_AT_decl_column(0x21)
    5227                    $C$DW$T$167     .dwtag  DW_TAG_typedef, DW_AT_name("int_fast64_t")
    5228                            .dwattr $C$DW$T$167, DW_AT_type(*$C$DW$T$166)
    5229                            .dwattr $C$DW$T$167, DW_AT_language(DW_LANG_C)
    5230                            .dwattr $C$DW$T$167, DW_AT_decl_file("C:/VLIB_Tools/CCSV5_4_0/ccsv5/tools/compiler/C6000/inclu
    5231                            .dwattr $C$DW$T$167, DW_AT_decl_line(0x54)
    5232                            .dwattr $C$DW$T$167, DW_AT_decl_column(0x17)
    5233                    $C$DW$T$168     .dwtag  DW_TAG_typedef, DW_AT_name("int_least64_t")
    5234                            .dwattr $C$DW$T$168, DW_AT_type(*$C$DW$T$166)
    5235                            .dwattr $C$DW$T$168, DW_AT_language(DW_LANG_C)
    5236                            .dwattr $C$DW$T$168, DW_AT_decl_file("C:/VLIB_Tools/CCSV5_4_0/ccsv5/tools/compiler/C6000/inclu
    5237                            .dwattr $C$DW$T$168, DW_AT_decl_line(0x44)
    5238                            .dwattr $C$DW$T$168, DW_AT_decl_column(0x17)
    5239                    $C$DW$T$169     .dwtag  DW_TAG_typedef, DW_AT_name("intmax_t")
    5240                            .dwattr $C$DW$T$169, DW_AT_type(*$C$DW$T$14)
    5241                            .dwattr $C$DW$T$169, DW_AT_language(DW_LANG_C)
    5242                            .dwattr $C$DW$T$169, DW_AT_decl_file("C:/VLIB_Tools/CCSV5_4_0/ccsv5/tools/compiler/C6000/inclu
    5243                            .dwattr $C$DW$T$169, DW_AT_decl_line(0x5c)
    5244                            .dwattr $C$DW$T$169, DW_AT_decl_column(0x20)
    5245                    $C$DW$T$15      .dwtag  DW_TAG_base_type
    5246                            .dwattr $C$DW$T$15, DW_AT_encoding(DW_ATE_unsigned)
    5247                            .dwattr $C$DW$T$15, DW_AT_name("unsigned long long")
    5248                            .dwattr $C$DW$T$15, DW_AT_byte_size(0x08)
    5249                    $C$DW$T$171     .dwtag  DW_TAG_pointer_type
    5250                            .dwattr $C$DW$T$171, DW_AT_type(*$C$DW$T$15)
    5251                            .dwattr $C$DW$T$171, DW_AT_address_class(0x20)
    5252                    $C$DW$T$172     .dwtag  DW_TAG_typedef, DW_AT_name("uint64_t")
    5253                            .dwattr $C$DW$T$172, DW_AT_type(*$C$DW$T$15)
    5254                            .dwattr $C$DW$T$172, DW_AT_language(DW_LANG_C)
    5255                            .dwattr $C$DW$T$172, DW_AT_decl_file("C:/VLIB_Tools/CCSV5_4_0/ccsv5/tools/compiler/C6000/inclu
    5256                            .dwattr $C$DW$T$172, DW_AT_decl_line(0x35)
    5257                            .dwattr $C$DW$T$172, DW_AT_decl_column(0x20)
    5258                    
    5259                    $C$DW$T$173     .dwtag  DW_TAG_array_type
    5260                            .dwattr $C$DW$T$173, DW_AT_type(*$C$DW$T$172)
    5261                            .dwattr $C$DW$T$173, DW_AT_language(DW_LANG_C)
    5262                            .dwattr $C$DW$T$173, DW_AT_byte_size(0x10)
    5263                    $C$DW$424       .dwtag  DW_TAG_subrange_type
    5264                            .dwattr $C$DW$424, DW_AT_upper_bound(0x01)
    5265                            .dwendtag $C$DW$T$173
    5266                    
    5267                    $C$DW$T$174     .dwtag  DW_TAG_typedef, DW_AT_name("uint_fast64_t")
    5268                            .dwattr $C$DW$T$174, DW_AT_type(*$C$DW$T$172)
    5269                            .dwattr $C$DW$T$174, DW_AT_language(DW_LANG_C)
TMS320C6x Assembler PC v7.4.2 Thu Mar 19 12:43:28 2015

Tools Copyright (c) 1996-2012 Texas Instruments Incorporated
package/lib/Regression/regress_d_c/./../packages/ti/vlib/src/VLIB_mixtureOfGaussiansS32/VLIB_mixtureOfGaussiansS32_d.se66 PAGE  112

    5270                            .dwattr $C$DW$T$174, DW_AT_decl_file("C:/VLIB_Tools/CCSV5_4_0/ccsv5/tools/compiler/C6000/inclu
    5271                            .dwattr $C$DW$T$174, DW_AT_decl_line(0x55)
    5272                            .dwattr $C$DW$T$174, DW_AT_decl_column(0x16)
    5273                    $C$DW$T$175     .dwtag  DW_TAG_typedef, DW_AT_name("uint_least64_t")
    5274                            .dwattr $C$DW$T$175, DW_AT_type(*$C$DW$T$172)
    5275                            .dwattr $C$DW$T$175, DW_AT_language(DW_LANG_C)
    5276                            .dwattr $C$DW$T$175, DW_AT_decl_file("C:/VLIB_Tools/CCSV5_4_0/ccsv5/tools/compiler/C6000/inclu
    5277                            .dwattr $C$DW$T$175, DW_AT_decl_line(0x45)
    5278                            .dwattr $C$DW$T$175, DW_AT_decl_column(0x16)
    5279                    $C$DW$T$176     .dwtag  DW_TAG_typedef, DW_AT_name("uintmax_t")
    5280                            .dwattr $C$DW$T$176, DW_AT_type(*$C$DW$T$15)
    5281                            .dwattr $C$DW$T$176, DW_AT_language(DW_LANG_C)
    5282                            .dwattr $C$DW$T$176, DW_AT_decl_file("C:/VLIB_Tools/CCSV5_4_0/ccsv5/tools/compiler/C6000/inclu
    5283                            .dwattr $C$DW$T$176, DW_AT_decl_line(0x5d)
    5284                            .dwattr $C$DW$T$176, DW_AT_decl_column(0x20)
    5285                    $C$DW$T$16      .dwtag  DW_TAG_base_type
    5286                            .dwattr $C$DW$T$16, DW_AT_encoding(DW_ATE_float)
    5287                            .dwattr $C$DW$T$16, DW_AT_name("float")
    5288                            .dwattr $C$DW$T$16, DW_AT_byte_size(0x04)
    5289                    $C$DW$T$177     .dwtag  DW_TAG_typedef, DW_AT_name("VLIB_F32")
    5290                            .dwattr $C$DW$T$177, DW_AT_type(*$C$DW$T$16)
    5291                            .dwattr $C$DW$T$177, DW_AT_language(DW_LANG_C)
    5292                            .dwattr $C$DW$T$177, DW_AT_decl_file(".\..\packages\ti\vlib\src\VLIB_mixtureOfGaussiansS32\..\
    5293                            .dwattr $C$DW$T$177, DW_AT_decl_line(0x5b)
    5294                            .dwattr $C$DW$T$177, DW_AT_decl_column(0x0f)
    5295                    $C$DW$T$184     .dwtag  DW_TAG_typedef, DW_AT_name("float32_t")
    5296                            .dwattr $C$DW$T$184, DW_AT_type(*$C$DW$T$16)
    5297                            .dwattr $C$DW$T$184, DW_AT_language(DW_LANG_C)
    5298                            .dwattr $C$DW$T$184, DW_AT_decl_file("C:\VLIB_Tools\CCSV5_4_0\ccsv5\tools\compiler\C6000\inclu
    5299                            .dwattr $C$DW$T$184, DW_AT_decl_line(0x30)
    5300                            .dwattr $C$DW$T$184, DW_AT_decl_column(0x0f)
    5301                    $C$DW$T$17      .dwtag  DW_TAG_base_type
    5302                            .dwattr $C$DW$T$17, DW_AT_encoding(DW_ATE_float)
    5303                            .dwattr $C$DW$T$17, DW_AT_name("double")
    5304                            .dwattr $C$DW$T$17, DW_AT_byte_size(0x08)
    5305                    $C$DW$T$185     .dwtag  DW_TAG_typedef, DW_AT_name("VLIB_D64")
    5306                            .dwattr $C$DW$T$185, DW_AT_type(*$C$DW$T$17)
    5307                            .dwattr $C$DW$T$185, DW_AT_language(DW_LANG_C)
    5308                            .dwattr $C$DW$T$185, DW_AT_decl_file(".\..\packages\ti\vlib\src\VLIB_mixtureOfGaussiansS32\..\
    5309                            .dwattr $C$DW$T$185, DW_AT_decl_line(0x5a)
    5310                            .dwattr $C$DW$T$185, DW_AT_decl_column(0x10)
    5311                    $C$DW$T$186     .dwtag  DW_TAG_typedef, DW_AT_name("__float2_t")
    5312                            .dwattr $C$DW$T$186, DW_AT_type(*$C$DW$T$17)
    5313                            .dwattr $C$DW$T$186, DW_AT_language(DW_LANG_C)
    5314                            .dwattr $C$DW$T$186, DW_AT_decl_file("C:/VLIB_Tools/CCSV5_4_0/ccsv5/tools/compiler/C6000/inclu
    5315                            .dwattr $C$DW$T$186, DW_AT_decl_line(0x5f)
    5316                            .dwattr $C$DW$T$186, DW_AT_decl_column(0x14)
    5317                    $C$DW$T$18      .dwtag  DW_TAG_base_type
    5318                            .dwattr $C$DW$T$18, DW_AT_encoding(DW_ATE_float)
    5319                            .dwattr $C$DW$T$18, DW_AT_name("long double")
    5320                            .dwattr $C$DW$T$18, DW_AT_byte_size(0x08)
    5321                    $C$DW$T$32      .dwtag  DW_TAG_base_type
    5322                            .dwattr $C$DW$T$32, DW_AT_encoding(DW_ATE_signed_char)
    5323                            .dwattr $C$DW$T$32, DW_AT_name("signed char")
    5324                            .dwattr $C$DW$T$32, DW_AT_byte_size(0x01)
TMS320C6x Assembler PC v7.4.2 Thu Mar 19 12:43:28 2015

Tools Copyright (c) 1996-2012 Texas Instruments Incorporated
package/lib/Regression/regress_d_c/./../packages/ti/vlib/src/VLIB_mixtureOfGaussiansS32/VLIB_mixtureOfGaussiansS32_d.se66 PAGE  113

    5325                    
    5326                    $C$DW$T$33      .dwtag  DW_TAG_array_type
    5327                            .dwattr $C$DW$T$33, DW_AT_type(*$C$DW$T$32)
    5328                            .dwattr $C$DW$T$33, DW_AT_language(DW_LANG_C)
    5329                            .dwattr $C$DW$T$33, DW_AT_byte_size(0x04)
    5330                    $C$DW$425       .dwtag  DW_TAG_subrange_type
    5331                            .dwattr $C$DW$425, DW_AT_upper_bound(0x03)
    5332                            .dwendtag $C$DW$T$33
    5333                    
    5334                    $C$DW$T$61      .dwtag  DW_TAG_pointer_type
    5335                            .dwattr $C$DW$T$61, DW_AT_type(*$C$DW$T$32)
    5336                            .dwattr $C$DW$T$61, DW_AT_address_class(0x20)
    5337                    $C$DW$T$187     .dwtag  DW_TAG_typedef, DW_AT_name("va_list")
    5338                            .dwattr $C$DW$T$187, DW_AT_type(*$C$DW$T$61)
    5339                            .dwattr $C$DW$T$187, DW_AT_language(DW_LANG_C)
    5340                            .dwattr $C$DW$T$187, DW_AT_decl_file("C:/VLIB_Tools/CCSV5_4_0/ccsv5/tools/compiler/C6000/inclu
    5341                            .dwattr $C$DW$T$187, DW_AT_decl_line(0x2f)
    5342                            .dwattr $C$DW$T$187, DW_AT_decl_column(0x12)
    5343                    $C$DW$T$121     .dwtag  DW_TAG_const_type
    5344                            .dwattr $C$DW$T$121, DW_AT_type(*$C$DW$T$32)
    5345                    $C$DW$T$122     .dwtag  DW_TAG_pointer_type
    5346                            .dwattr $C$DW$T$122, DW_AT_type(*$C$DW$T$121)
    5347                            .dwattr $C$DW$T$122, DW_AT_address_class(0x20)
    5348                    
    5349                    $C$DW$T$188     .dwtag  DW_TAG_array_type
    5350                            .dwattr $C$DW$T$188, DW_AT_type(*$C$DW$T$32)
    5351                            .dwattr $C$DW$T$188, DW_AT_language(DW_LANG_C)
    5352                    $C$DW$426       .dwtag  DW_TAG_subrange_type
    5353                            .dwendtag $C$DW$T$188
    5354                    
    5355                    
    5356                    $C$DW$T$36      .dwtag  DW_TAG_structure_type
    5357                            .dwattr $C$DW$T$36, DW_AT_name("__simd128_int32_t")
    5358                            .dwattr $C$DW$T$36, DW_AT_byte_size(0x10)
    5359                    $C$DW$427       .dwtag  DW_TAG_member
    5360                            .dwattr $C$DW$427, DW_AT_type(*$C$DW$T$35)
    5361                            .dwattr $C$DW$427, DW_AT_name("_v")
    5362                            .dwattr $C$DW$427, DW_AT_TI_symbol_name("_v")
    5363                            .dwattr $C$DW$427, DW_AT_data_member_location[DW_OP_plus_uconst 0x0]
    5364                            .dwattr $C$DW$427, DW_AT_accessibility(DW_ACCESS_public)
    5365                            .dwattr $C$DW$427, DW_AT_decl_file("C:\VLIB_Tools\CCSV5_4_0\ccsv5\tools\compiler\C6000\include
    5366                            .dwattr $C$DW$427, DW_AT_decl_line(0x44)
    5367                            .dwattr $C$DW$427, DW_AT_decl_column(0x01)
    5368                            .dwendtag $C$DW$T$36
    5369                    
    5370                            .dwattr $C$DW$T$36, DW_AT_decl_file("C:\VLIB_Tools\CCSV5_4_0\ccsv5\tools\compiler\C6000\includ
    5371                            .dwattr $C$DW$T$36, DW_AT_decl_line(0x44)
    5372                            .dwattr $C$DW$T$36, DW_AT_decl_column(0x01)
    5373                    $C$DW$T$189     .dwtag  DW_TAG_typedef, DW_AT_name("int32x4_t")
    5374                            .dwattr $C$DW$T$189, DW_AT_type(*$C$DW$T$36)
    5375                            .dwattr $C$DW$T$189, DW_AT_language(DW_LANG_C)
    5376                            .dwattr $C$DW$T$189, DW_AT_decl_file("C:\VLIB_Tools\CCSV5_4_0\ccsv5\tools\compiler\C6000\inclu
    5377                            .dwattr $C$DW$T$189, DW_AT_decl_line(0x44)
    5378                            .dwattr $C$DW$T$189, DW_AT_decl_column(0x01)
    5379                    $C$DW$T$190     .dwtag  DW_TAG_typedef, DW_AT_name("__x128_t")
TMS320C6x Assembler PC v7.4.2 Thu Mar 19 12:43:28 2015

Tools Copyright (c) 1996-2012 Texas Instruments Incorporated
package/lib/Regression/regress_d_c/./../packages/ti/vlib/src/VLIB_mixtureOfGaussiansS32/VLIB_mixtureOfGaussiansS32_d.se66 PAGE  114

    5380                            .dwattr $C$DW$T$190, DW_AT_type(*$C$DW$T$189)
    5381                            .dwattr $C$DW$T$190, DW_AT_language(DW_LANG_C)
    5382                            .dwattr $C$DW$T$190, DW_AT_decl_file("C:\VLIB_Tools\CCSV5_4_0\ccsv5\tools\compiler\C6000\inclu
    5383                            .dwattr $C$DW$T$190, DW_AT_decl_line(0x46)
    5384                            .dwattr $C$DW$T$190, DW_AT_decl_column(0x13)
    5385                    
    5386                    $C$DW$T$37      .dwtag  DW_TAG_structure_type
    5387                            .dwattr $C$DW$T$37, DW_AT_name("tm")
    5388                            .dwattr $C$DW$T$37, DW_AT_byte_size(0x24)
    5389                    $C$DW$428       .dwtag  DW_TAG_member
    5390                            .dwattr $C$DW$428, DW_AT_type(*$C$DW$T$10)
    5391                            .dwattr $C$DW$428, DW_AT_name("tm_sec")
    5392                            .dwattr $C$DW$428, DW_AT_TI_symbol_name("tm_sec")
    5393                            .dwattr $C$DW$428, DW_AT_data_member_location[DW_OP_plus_uconst 0x0]
    5394                            .dwattr $C$DW$428, DW_AT_accessibility(DW_ACCESS_public)
    5395                            .dwattr $C$DW$428, DW_AT_decl_file("C:/VLIB_Tools/CCSV5_4_0/ccsv5/tools/compiler/C6000/include
    5396                            .dwattr $C$DW$428, DW_AT_decl_line(0x41)
    5397                            .dwattr $C$DW$428, DW_AT_decl_column(0x09)
    5398                    $C$DW$429       .dwtag  DW_TAG_member
    5399                            .dwattr $C$DW$429, DW_AT_type(*$C$DW$T$10)
    5400                            .dwattr $C$DW$429, DW_AT_name("tm_min")
    5401                            .dwattr $C$DW$429, DW_AT_TI_symbol_name("tm_min")
    5402                            .dwattr $C$DW$429, DW_AT_data_member_location[DW_OP_plus_uconst 0x4]
    5403                            .dwattr $C$DW$429, DW_AT_accessibility(DW_ACCESS_public)
    5404                            .dwattr $C$DW$429, DW_AT_decl_file("C:/VLIB_Tools/CCSV5_4_0/ccsv5/tools/compiler/C6000/include
    5405                            .dwattr $C$DW$429, DW_AT_decl_line(0x42)
    5406                            .dwattr $C$DW$429, DW_AT_decl_column(0x09)
    5407                    $C$DW$430       .dwtag  DW_TAG_member
    5408                            .dwattr $C$DW$430, DW_AT_type(*$C$DW$T$10)
    5409                            .dwattr $C$DW$430, DW_AT_name("tm_hour")
    5410                            .dwattr $C$DW$430, DW_AT_TI_symbol_name("tm_hour")
    5411                            .dwattr $C$DW$430, DW_AT_data_member_location[DW_OP_plus_uconst 0x8]
    5412                            .dwattr $C$DW$430, DW_AT_accessibility(DW_ACCESS_public)
    5413                            .dwattr $C$DW$430, DW_AT_decl_file("C:/VLIB_Tools/CCSV5_4_0/ccsv5/tools/compiler/C6000/include
    5414                            .dwattr $C$DW$430, DW_AT_decl_line(0x43)
    5415                            .dwattr $C$DW$430, DW_AT_decl_column(0x09)
    5416                    $C$DW$431       .dwtag  DW_TAG_member
    5417                            .dwattr $C$DW$431, DW_AT_type(*$C$DW$T$10)
    5418                            .dwattr $C$DW$431, DW_AT_name("tm_mday")
    5419                            .dwattr $C$DW$431, DW_AT_TI_symbol_name("tm_mday")
    5420                            .dwattr $C$DW$431, DW_AT_data_member_location[DW_OP_plus_uconst 0xc]
    5421                            .dwattr $C$DW$431, DW_AT_accessibility(DW_ACCESS_public)
    5422                            .dwattr $C$DW$431, DW_AT_decl_file("C:/VLIB_Tools/CCSV5_4_0/ccsv5/tools/compiler/C6000/include
    5423                            .dwattr $C$DW$431, DW_AT_decl_line(0x44)
    5424                            .dwattr $C$DW$431, DW_AT_decl_column(0x09)
    5425                    $C$DW$432       .dwtag  DW_TAG_member
    5426                            .dwattr $C$DW$432, DW_AT_type(*$C$DW$T$10)
    5427                            .dwattr $C$DW$432, DW_AT_name("tm_mon")
    5428                            .dwattr $C$DW$432, DW_AT_TI_symbol_name("tm_mon")
    5429                            .dwattr $C$DW$432, DW_AT_data_member_location[DW_OP_plus_uconst 0x10]
    5430                            .dwattr $C$DW$432, DW_AT_accessibility(DW_ACCESS_public)
    5431                            .dwattr $C$DW$432, DW_AT_decl_file("C:/VLIB_Tools/CCSV5_4_0/ccsv5/tools/compiler/C6000/include
    5432                            .dwattr $C$DW$432, DW_AT_decl_line(0x45)
    5433                            .dwattr $C$DW$432, DW_AT_decl_column(0x09)
    5434                    $C$DW$433       .dwtag  DW_TAG_member
TMS320C6x Assembler PC v7.4.2 Thu Mar 19 12:43:28 2015

Tools Copyright (c) 1996-2012 Texas Instruments Incorporated
package/lib/Regression/regress_d_c/./../packages/ti/vlib/src/VLIB_mixtureOfGaussiansS32/VLIB_mixtureOfGaussiansS32_d.se66 PAGE  115

    5435                            .dwattr $C$DW$433, DW_AT_type(*$C$DW$T$10)
    5436                            .dwattr $C$DW$433, DW_AT_name("tm_year")
    5437                            .dwattr $C$DW$433, DW_AT_TI_symbol_name("tm_year")
    5438                            .dwattr $C$DW$433, DW_AT_data_member_location[DW_OP_plus_uconst 0x14]
    5439                            .dwattr $C$DW$433, DW_AT_accessibility(DW_ACCESS_public)
    5440                            .dwattr $C$DW$433, DW_AT_decl_file("C:/VLIB_Tools/CCSV5_4_0/ccsv5/tools/compiler/C6000/include
    5441                            .dwattr $C$DW$433, DW_AT_decl_line(0x46)
    5442                            .dwattr $C$DW$433, DW_AT_decl_column(0x09)
    5443                    $C$DW$434       .dwtag  DW_TAG_member
    5444                            .dwattr $C$DW$434, DW_AT_type(*$C$DW$T$10)
    5445                            .dwattr $C$DW$434, DW_AT_name("tm_wday")
    5446                            .dwattr $C$DW$434, DW_AT_TI_symbol_name("tm_wday")
    5447                            .dwattr $C$DW$434, DW_AT_data_member_location[DW_OP_plus_uconst 0x18]
    5448                            .dwattr $C$DW$434, DW_AT_accessibility(DW_ACCESS_public)
    5449                            .dwattr $C$DW$434, DW_AT_decl_file("C:/VLIB_Tools/CCSV5_4_0/ccsv5/tools/compiler/C6000/include
    5450                            .dwattr $C$DW$434, DW_AT_decl_line(0x47)
    5451                            .dwattr $C$DW$434, DW_AT_decl_column(0x09)
    5452                    $C$DW$435       .dwtag  DW_TAG_member
    5453                            .dwattr $C$DW$435, DW_AT_type(*$C$DW$T$10)
    5454                            .dwattr $C$DW$435, DW_AT_name("tm_yday")
    5455                            .dwattr $C$DW$435, DW_AT_TI_symbol_name("tm_yday")
    5456                            .dwattr $C$DW$435, DW_AT_data_member_location[DW_OP_plus_uconst 0x1c]
    5457                            .dwattr $C$DW$435, DW_AT_accessibility(DW_ACCESS_public)
    5458                            .dwattr $C$DW$435, DW_AT_decl_file("C:/VLIB_Tools/CCSV5_4_0/ccsv5/tools/compiler/C6000/include
    5459                            .dwattr $C$DW$435, DW_AT_decl_line(0x48)
    5460                            .dwattr $C$DW$435, DW_AT_decl_column(0x09)
    5461                    $C$DW$436       .dwtag  DW_TAG_member
    5462                            .dwattr $C$DW$436, DW_AT_type(*$C$DW$T$10)
    5463                            .dwattr $C$DW$436, DW_AT_name("tm_isdst")
    5464                            .dwattr $C$DW$436, DW_AT_TI_symbol_name("tm_isdst")
    5465                            .dwattr $C$DW$436, DW_AT_data_member_location[DW_OP_plus_uconst 0x20]
    5466                            .dwattr $C$DW$436, DW_AT_accessibility(DW_ACCESS_public)
    5467                            .dwattr $C$DW$436, DW_AT_decl_file("C:/VLIB_Tools/CCSV5_4_0/ccsv5/tools/compiler/C6000/include
    5468                            .dwattr $C$DW$436, DW_AT_decl_line(0x49)
    5469                            .dwattr $C$DW$436, DW_AT_decl_column(0x09)
    5470                            .dwendtag $C$DW$T$37
    5471                    
    5472                            .dwattr $C$DW$T$37, DW_AT_decl_file("C:/VLIB_Tools/CCSV5_4_0/ccsv5/tools/compiler/C6000/includ
    5473                            .dwattr $C$DW$T$37, DW_AT_decl_line(0x3f)
    5474                            .dwattr $C$DW$T$37, DW_AT_decl_column(0x08)
    5475                            .dwattr $C$DW$CU, DW_AT_language(DW_LANG_C)
    5476                    
    5477                    ;***************************************************************
    5478                    ;* DWARF CIE ENTRIES                                           *
    5479                    ;***************************************************************
    5480                    
    5481                    $C$DW$CIE       .dwcie 19
    5482                            .dwcfi  cfa_register, 31
    5483                            .dwcfi  cfa_offset, 0
    5484                            .dwcfi  undefined, 0
    5485                            .dwcfi  undefined, 1
    5486                            .dwcfi  undefined, 2
    5487                            .dwcfi  undefined, 3
    5488                            .dwcfi  undefined, 4
    5489                            .dwcfi  undefined, 5
TMS320C6x Assembler PC v7.4.2 Thu Mar 19 12:43:28 2015

Tools Copyright (c) 1996-2012 Texas Instruments Incorporated
package/lib/Regression/regress_d_c/./../packages/ti/vlib/src/VLIB_mixtureOfGaussiansS32/VLIB_mixtureOfGaussiansS32_d.se66 PAGE  116

    5490                            .dwcfi  undefined, 6
    5491                            .dwcfi  undefined, 7
    5492                            .dwcfi  undefined, 8
    5493                            .dwcfi  undefined, 9
    5494                            .dwcfi  same_value, 10
    5495                            .dwcfi  same_value, 11
    5496                            .dwcfi  same_value, 12
    5497                            .dwcfi  same_value, 13
    5498                            .dwcfi  same_value, 14
    5499                            .dwcfi  same_value, 15
    5500                            .dwcfi  undefined, 16
    5501                            .dwcfi  undefined, 17
    5502                            .dwcfi  undefined, 18
    5503                            .dwcfi  undefined, 19
    5504                            .dwcfi  undefined, 20
    5505                            .dwcfi  undefined, 21
    5506                            .dwcfi  undefined, 22
    5507                            .dwcfi  undefined, 23
    5508                            .dwcfi  undefined, 24
    5509                            .dwcfi  undefined, 25
    5510                            .dwcfi  same_value, 26
    5511                            .dwcfi  same_value, 27
    5512                            .dwcfi  same_value, 28
    5513                            .dwcfi  same_value, 29
    5514                            .dwcfi  same_value, 30
    5515                            .dwcfi  same_value, 31
    5516                            .dwcfi  same_value, 32
    5517                            .dwcfi  undefined, 33
    5518                            .dwcfi  undefined, 34
    5519                            .dwcfi  undefined, 35
    5520                            .dwcfi  undefined, 36
    5521                            .dwcfi  undefined, 37
    5522                            .dwcfi  undefined, 38
    5523                            .dwcfi  undefined, 39
    5524                            .dwcfi  undefined, 40
    5525                            .dwcfi  undefined, 41
    5526                            .dwcfi  undefined, 42
    5527                            .dwcfi  undefined, 43
    5528                            .dwcfi  undefined, 44
    5529                            .dwcfi  undefined, 45
    5530                            .dwcfi  undefined, 46
    5531                            .dwcfi  undefined, 47
    5532                            .dwcfi  undefined, 48
    5533                            .dwcfi  undefined, 49
    5534                            .dwcfi  undefined, 50
    5535                            .dwcfi  undefined, 51
    5536                            .dwcfi  undefined, 52
    5537                            .dwcfi  undefined, 53
    5538                            .dwcfi  undefined, 54
    5539                            .dwcfi  undefined, 55
    5540                            .dwcfi  undefined, 56
    5541                            .dwcfi  undefined, 57
    5542                            .dwcfi  undefined, 58
    5543                            .dwcfi  undefined, 59
    5544                            .dwcfi  undefined, 60
TMS320C6x Assembler PC v7.4.2 Thu Mar 19 12:43:28 2015

Tools Copyright (c) 1996-2012 Texas Instruments Incorporated
package/lib/Regression/regress_d_c/./../packages/ti/vlib/src/VLIB_mixtureOfGaussiansS32/VLIB_mixtureOfGaussiansS32_d.se66 PAGE  117

    5545                            .dwcfi  undefined, 61
    5546                            .dwcfi  undefined, 62
    5547                            .dwcfi  undefined, 63
    5548                            .dwcfi  undefined, 64
    5549                            .dwcfi  undefined, 65
    5550                            .dwcfi  undefined, 66
    5551                            .dwcfi  undefined, 67
    5552                            .dwcfi  undefined, 68
    5553                            .dwcfi  undefined, 69
    5554                            .dwcfi  undefined, 70
    5555                            .dwcfi  undefined, 71
    5556                            .dwcfi  undefined, 72
    5557                            .dwcfi  undefined, 73
    5558                            .dwcfi  undefined, 74
    5559                            .dwcfi  undefined, 75
    5560                            .dwcfi  undefined, 76
    5561                            .dwcfi  undefined, 77
    5562                            .dwcfi  undefined, 78
    5563                            .dwcfi  undefined, 79
    5564                            .dwcfi  undefined, 80
    5565                            .dwcfi  undefined, 81
    5566                            .dwcfi  undefined, 82
    5567                            .dwcfi  undefined, 83
    5568                            .dwcfi  undefined, 84
    5569                            .dwcfi  undefined, 85
    5570                            .dwcfi  undefined, 86
    5571                            .dwcfi  undefined, 87
    5572                            .dwcfi  undefined, 88
    5573                            .dwcfi  undefined, 89
    5574                            .dwcfi  undefined, 90
    5575                            .dwcfi  undefined, 91
    5576                            .dwcfi  undefined, 92
    5577                            .dwcfi  undefined, 93
    5578                            .dwcfi  undefined, 94
    5579                            .dwcfi  undefined, 95
    5580                            .dwcfi  undefined, 96
    5581                            .dwcfi  undefined, 97
    5582                            .dwcfi  undefined, 98
    5583                            .dwcfi  undefined, 99
    5584                            .dwcfi  undefined, 100
    5585                            .dwcfi  undefined, 101
    5586                            .dwcfi  undefined, 102
    5587                            .dwcfi  undefined, 103
    5588                            .dwcfi  undefined, 104
    5589                            .dwcfi  undefined, 105
    5590                            .dwcfi  undefined, 106
    5591                            .dwcfi  undefined, 107
    5592                            .dwcfi  undefined, 108
    5593                            .dwcfi  undefined, 109
    5594                            .dwcfi  undefined, 110
    5595                            .dwcfi  undefined, 111
    5596                            .dwcfi  undefined, 112
    5597                            .dwcfi  undefined, 113
    5598                            .dwcfi  undefined, 114
    5599                            .dwcfi  undefined, 115
TMS320C6x Assembler PC v7.4.2 Thu Mar 19 12:43:28 2015

Tools Copyright (c) 1996-2012 Texas Instruments Incorporated
package/lib/Regression/regress_d_c/./../packages/ti/vlib/src/VLIB_mixtureOfGaussiansS32/VLIB_mixtureOfGaussiansS32_d.se66 PAGE  118

    5600                            .dwcfi  undefined, 116
    5601                            .dwcfi  undefined, 117
    5602                            .dwcfi  undefined, 118
    5603                            .dwcfi  undefined, 119
    5604                            .dwcfi  undefined, 120
    5605                            .dwcfi  undefined, 121
    5606                            .dwcfi  undefined, 122
    5607                            .dwcfi  undefined, 123
    5608                            .dwcfi  undefined, 124
    5609                            .dwcfi  undefined, 125
    5610                            .dwcfi  undefined, 126
    5611                            .dwcfi  undefined, 127
    5612                            .dwendentry
    5613                            .dwendtag $C$DW$CU
    5614                    

No Assembly Errors, No Assembly Warnings
