TMS320C6x Assembler PC v7.4.2 Thu Mar 19 12:43:28 2015

Tools Copyright (c) 1996-2012 Texas Instruments Incorporated
package/lib/Regression/regress_d_c/./../packages/ti/vlib/src/VLIB_mixtureOfGaussiansS32/VLIB_mixtureOfGaussiansS32_d.se66 PAGE    1

       1                    ;******************************************************************************
       2                    ;* TMS320C6x C/C++ Codegen                                          PC v7.4.2 *
       3                    ;* Date/Time created: Thu Mar 19 12:43:26 2015                                *
       4                    ;******************************************************************************
       5                            .compiler_opts --abi=eabi --c64p_l1d_workaround=off --endian=little --hll_source=on --long_pre
       6                    
       7                    ;******************************************************************************
       8                    ;* GLOBAL FILE PARAMETERS                                                     *
       9                    ;*                                                                            *
      10                    ;*   Architecture      : TMS320C66xx                                          *
      11                    ;*   Optimization      : Enabled at level 3                                   *
      12                    ;*   Optimizing for    : Speed                                                *
      13                    ;*                       Based on options: -o3, no -ms                        *
      14                    ;*   Endian            : Little                                               *
      15                    ;*   Interrupt Thrshld : 10000                                                *
      16                    ;*   Data Access Model : Far                                                  *
      17                    ;*   Pipelining        : Enabled                                              *
      18                    ;*   Speculate Loads   : Enabled with threshold = 0                           *
      19                    ;*   Memory Aliases    : Presume are aliases (pessimistic)                    *
      20                    ;*   Debug Info        : DWARF Debug w/Optimization                           *
      21                    ;*                                                                            *
      22                    ;******************************************************************************
      23                    
      24                            .asg    A15, FP
      25                            .asg    B14, DP
      26                            .asg    B15, SP
      27                            .global $bss
      28                    
      29                    
      30                    $C$DW$CU        .dwtag  DW_TAG_compile_unit
      31                            .dwattr $C$DW$CU, DW_AT_name("./../packages/ti/vlib/src/VLIB_mixtureOfGaussiansS32/VLIB_mixtur
      32                            .dwattr $C$DW$CU, DW_AT_producer("TI TMS320C6x C/C++ Codegen PC v7.4.2 Copyright (c) 1996-2012
      33                            .dwattr $C$DW$CU, DW_AT_TI_version(0x01)
      34                            .dwattr $C$DW$CU, DW_AT_comp_dir("c:\nightlybuilds\vlib\ti\vlib\vlib\examples")
      35                    
      36                    $C$DW$1 .dwtag  DW_TAG_subprogram, DW_AT_name("_itoll")
      37                            .dwattr $C$DW$1, DW_AT_TI_symbol_name("_itoll")
      38                            .dwattr $C$DW$1, DW_AT_type(*$C$DW$T$14)
      39                            .dwattr $C$DW$1, DW_AT_declaration
      40                            .dwattr $C$DW$1, DW_AT_external
      41                            .dwattr $C$DW$1, DW_AT_decl_file("C:/VLIB_Tools/CCSV5_4_0/ccsv5/tools/compiler/C6000/include/c
      42                            .dwattr $C$DW$1, DW_AT_decl_line(0xdf)
      43                            .dwattr $C$DW$1, DW_AT_decl_column(0x0b)
      44                    $C$DW$2 .dwtag  DW_TAG_formal_parameter
      45                            .dwattr $C$DW$2, DW_AT_type(*$C$DW$T$11)
      46                    $C$DW$3 .dwtag  DW_TAG_formal_parameter
      47                            .dwattr $C$DW$3, DW_AT_type(*$C$DW$T$11)
      48                            .dwendtag $C$DW$1
      49                    
      50                    
      51                    $C$DW$4 .dwtag  DW_TAG_subprogram, DW_AT_name("printf")
      52                            .dwattr $C$DW$4, DW_AT_TI_symbol_name("printf")
      53                            .dwattr $C$DW$4, DW_AT_type(*$C$DW$T$10)
      54                            .dwattr $C$DW$4, DW_AT_declaration
      55                            .dwattr $C$DW$4, DW_AT_external
TMS320C6x Assembler PC v7.4.2 Thu Mar 19 12:43:28 2015

Tools Copyright (c) 1996-2012 Texas Instruments Incorporated
package/lib/Regression/regress_d_c/./../packages/ti/vlib/src/VLIB_mixtureOfGaussiansS32/VLIB_mixtureOfGaussiansS32_d.se66 PAGE    2

      56                            .dwattr $C$DW$4, DW_AT_decl_file("C:/VLIB_Tools/CCSV5_4_0/ccsv5/tools/compiler/C6000/include/s
      57                            .dwattr $C$DW$4, DW_AT_decl_line(0xb8)
      58                            .dwattr $C$DW$4, DW_AT_decl_column(0x19)
      59                    $C$DW$5 .dwtag  DW_TAG_formal_parameter
      60                            .dwattr $C$DW$5, DW_AT_type(*$C$DW$T$122)
      61                    $C$DW$6 .dwtag  DW_TAG_unspecified_parameters
      62                            .dwendtag $C$DW$4
      63                    
      64                    
      65                    $C$DW$7 .dwtag  DW_TAG_subprogram, DW_AT_name("sprintf")
      66                            .dwattr $C$DW$7, DW_AT_TI_symbol_name("sprintf")
      67                            .dwattr $C$DW$7, DW_AT_type(*$C$DW$T$10)
      68                            .dwattr $C$DW$7, DW_AT_declaration
      69                            .dwattr $C$DW$7, DW_AT_external
      70                            .dwattr $C$DW$7, DW_AT_decl_file("C:/VLIB_Tools/CCSV5_4_0/ccsv5/tools/compiler/C6000/include/s
      71                            .dwattr $C$DW$7, DW_AT_decl_line(0xbc)
      72                            .dwattr $C$DW$7, DW_AT_decl_column(0x19)
      73                    $C$DW$8 .dwtag  DW_TAG_formal_parameter
      74                            .dwattr $C$DW$8, DW_AT_type(*$C$DW$T$61)
      75                    $C$DW$9 .dwtag  DW_TAG_formal_parameter
      76                            .dwattr $C$DW$9, DW_AT_type(*$C$DW$T$122)
      77                    $C$DW$10        .dwtag  DW_TAG_unspecified_parameters
      78                            .dwendtag $C$DW$7
      79                    
      80                    
      81                    $C$DW$11        .dwtag  DW_TAG_subprogram, DW_AT_name("memset")
      82                            .dwattr $C$DW$11, DW_AT_TI_symbol_name("memset")
      83                            .dwattr $C$DW$11, DW_AT_type(*$C$DW$T$3)
      84                            .dwattr $C$DW$11, DW_AT_declaration
      85                            .dwattr $C$DW$11, DW_AT_external
      86                            .dwattr $C$DW$11, DW_AT_decl_file("C:/VLIB_Tools/CCSV5_4_0/ccsv5/tools/compiler/C6000/include/
      87                            .dwattr $C$DW$11, DW_AT_decl_line(0x5b)
      88                            .dwattr $C$DW$11, DW_AT_decl_column(0x16)
      89                    $C$DW$12        .dwtag  DW_TAG_formal_parameter
      90                            .dwattr $C$DW$12, DW_AT_type(*$C$DW$T$3)
      91                    $C$DW$13        .dwtag  DW_TAG_formal_parameter
      92                            .dwattr $C$DW$13, DW_AT_type(*$C$DW$T$10)
      93                    $C$DW$14        .dwtag  DW_TAG_formal_parameter
      94                            .dwattr $C$DW$14, DW_AT_type(*$C$DW$T$54)
      95                            .dwendtag $C$DW$11
      96                    
      97                    
      98                    $C$DW$15        .dwtag  DW_TAG_subprogram, DW_AT_name("malloc")
      99                            .dwattr $C$DW$15, DW_AT_TI_symbol_name("malloc")
     100                            .dwattr $C$DW$15, DW_AT_type(*$C$DW$T$3)
     101                            .dwattr $C$DW$15, DW_AT_declaration
     102                            .dwattr $C$DW$15, DW_AT_external
     103                            .dwattr $C$DW$15, DW_AT_decl_file("C:/VLIB_Tools/CCSV5_4_0/ccsv5/tools/compiler/C6000/include/
     104                            .dwattr $C$DW$15, DW_AT_decl_line(0x82)
     105                            .dwattr $C$DW$15, DW_AT_decl_column(0x19)
     106                    $C$DW$16        .dwtag  DW_TAG_formal_parameter
     107                            .dwattr $C$DW$16, DW_AT_type(*$C$DW$T$54)
     108                            .dwendtag $C$DW$15
     109                    
     110                    
TMS320C6x Assembler PC v7.4.2 Thu Mar 19 12:43:28 2015

Tools Copyright (c) 1996-2012 Texas Instruments Incorporated
package/lib/Regression/regress_d_c/./../packages/ti/vlib/src/VLIB_mixtureOfGaussiansS32/VLIB_mixtureOfGaussiansS32_d.se66 PAGE    3

     111                    $C$DW$17        .dwtag  DW_TAG_subprogram, DW_AT_name("free")
     112                            .dwattr $C$DW$17, DW_AT_TI_symbol_name("free")
     113                            .dwattr $C$DW$17, DW_AT_declaration
     114                            .dwattr $C$DW$17, DW_AT_external
     115                            .dwattr $C$DW$17, DW_AT_decl_file("C:/VLIB_Tools/CCSV5_4_0/ccsv5/tools/compiler/C6000/include/
     116                            .dwattr $C$DW$17, DW_AT_decl_line(0x86)
     117                            .dwattr $C$DW$17, DW_AT_decl_column(0x19)
     118                    $C$DW$18        .dwtag  DW_TAG_formal_parameter
     119                            .dwattr $C$DW$18, DW_AT_type(*$C$DW$T$3)
     120                            .dwendtag $C$DW$17
     121                    
     122                    
     123                    $C$DW$19        .dwtag  DW_TAG_subprogram, DW_AT_name("VLIB_cache_inval")
     124                            .dwattr $C$DW$19, DW_AT_TI_symbol_name("VLIB_cache_inval")
     125                            .dwattr $C$DW$19, DW_AT_type(*$C$DW$T$10)
     126                            .dwattr $C$DW$19, DW_AT_declaration
     127                            .dwattr $C$DW$19, DW_AT_external
     128                            .dwattr $C$DW$19, DW_AT_decl_file(".\..\packages\ti\vlib\src\VLIB_mixtureOfGaussiansS32\..\com
     129                            .dwattr $C$DW$19, DW_AT_decl_line(0x58)
     130                            .dwattr $C$DW$19, DW_AT_decl_column(0x05)
     131                    
     132                    $C$DW$20        .dwtag  DW_TAG_subprogram, DW_AT_name("VLIB_getFractional32")
     133                            .dwattr $C$DW$20, DW_AT_TI_symbol_name("VLIB_getFractional32")
     134                            .dwattr $C$DW$20, DW_AT_type(*$C$DW$T$177)
     135                            .dwattr $C$DW$20, DW_AT_declaration
     136                            .dwattr $C$DW$20, DW_AT_external
     137                            .dwattr $C$DW$20, DW_AT_decl_file(".\..\packages\ti\vlib\src\VLIB_mixtureOfGaussiansS32\../com
     138                            .dwattr $C$DW$20, DW_AT_decl_line(0x7c)
     139                            .dwattr $C$DW$20, DW_AT_decl_column(0x0a)
     140                    $C$DW$21        .dwtag  DW_TAG_formal_parameter
     141                            .dwattr $C$DW$21, DW_AT_type(*$C$DW$T$23)
     142                    $C$DW$22        .dwtag  DW_TAG_formal_parameter
     143                            .dwattr $C$DW$22, DW_AT_type(*$C$DW$T$23)
     144                    $C$DW$23        .dwtag  DW_TAG_formal_parameter
     145                            .dwattr $C$DW$23, DW_AT_type(*$C$DW$T$23)
     146                            .dwendtag $C$DW$20
     147                    
     148                    
     149                    $C$DW$24        .dwtag  DW_TAG_subprogram, DW_AT_name("VLIB_getFractional16")
     150                            .dwattr $C$DW$24, DW_AT_TI_symbol_name("VLIB_getFractional16")
     151                            .dwattr $C$DW$24, DW_AT_type(*$C$DW$T$177)
     152                            .dwattr $C$DW$24, DW_AT_declaration
     153                            .dwattr $C$DW$24, DW_AT_external
     154                            .dwattr $C$DW$24, DW_AT_decl_file(".\..\packages\ti\vlib\src\VLIB_mixtureOfGaussiansS32\../com
     155                            .dwattr $C$DW$24, DW_AT_decl_line(0x7d)
     156                            .dwattr $C$DW$24, DW_AT_decl_column(0x0a)
     157                    $C$DW$25        .dwtag  DW_TAG_formal_parameter
     158                            .dwattr $C$DW$25, DW_AT_type(*$C$DW$T$24)
     159                    $C$DW$26        .dwtag  DW_TAG_formal_parameter
     160                            .dwattr $C$DW$26, DW_AT_type(*$C$DW$T$23)
     161                    $C$DW$27        .dwtag  DW_TAG_formal_parameter
     162                            .dwattr $C$DW$27, DW_AT_type(*$C$DW$T$23)
     163                            .dwendtag $C$DW$24
     164                    
     165                    
TMS320C6x Assembler PC v7.4.2 Thu Mar 19 12:43:28 2015

Tools Copyright (c) 1996-2012 Texas Instruments Incorporated
package/lib/Regression/regress_d_c/./../packages/ti/vlib/src/VLIB_mixtureOfGaussiansS32/VLIB_mixtureOfGaussiansS32_d.se66 PAGE    4

     166                    $C$DW$28        .dwtag  DW_TAG_subprogram, DW_AT_name("VLIB_profile_init")
     167                            .dwattr $C$DW$28, DW_AT_TI_symbol_name("VLIB_profile_init")
     168                            .dwattr $C$DW$28, DW_AT_declaration
     169                            .dwattr $C$DW$28, DW_AT_external
     170                            .dwattr $C$DW$28, DW_AT_decl_file(".\..\packages\ti\vlib\src\VLIB_mixtureOfGaussiansS32\..\com
     171                            .dwattr $C$DW$28, DW_AT_decl_line(0x7b)
     172                            .dwattr $C$DW$28, DW_AT_decl_column(0x06)
     173                    $C$DW$29        .dwtag  DW_TAG_formal_parameter
     174                            .dwattr $C$DW$29, DW_AT_type(*$C$DW$T$10)
     175                    $C$DW$30        .dwtag  DW_TAG_formal_parameter
     176                            .dwattr $C$DW$30, DW_AT_type(*$C$DW$T$61)
     177                            .dwendtag $C$DW$28
     178                    
     179                    
     180                    $C$DW$31        .dwtag  DW_TAG_subprogram, DW_AT_name("VLIB_formula_add_test")
     181                            .dwattr $C$DW$31, DW_AT_TI_symbol_name("VLIB_formula_add_test")
     182                            .dwattr $C$DW$31, DW_AT_declaration
     183                            .dwattr $C$DW$31, DW_AT_external
     184                            .dwattr $C$DW$31, DW_AT_decl_file(".\..\packages\ti\vlib\src\VLIB_mixtureOfGaussiansS32\..\com
     185                            .dwattr $C$DW$31, DW_AT_decl_line(0x7d)
     186                            .dwattr $C$DW$31, DW_AT_decl_column(0x06)
     187                    $C$DW$32        .dwtag  DW_TAG_formal_parameter
     188                            .dwattr $C$DW$32, DW_AT_type(*$C$DW$T$10)
     189                    $C$DW$33        .dwtag  DW_TAG_formal_parameter
     190                            .dwattr $C$DW$33, DW_AT_type(*$C$DW$T$10)
     191                    $C$DW$34        .dwtag  DW_TAG_formal_parameter
     192                            .dwattr $C$DW$34, DW_AT_type(*$C$DW$T$10)
     193                    $C$DW$35        .dwtag  DW_TAG_formal_parameter
     194                            .dwattr $C$DW$35, DW_AT_type(*$C$DW$T$10)
     195                    $C$DW$36        .dwtag  DW_TAG_formal_parameter
     196                            .dwattr $C$DW$36, DW_AT_type(*$C$DW$T$61)
     197                    $C$DW$37        .dwtag  DW_TAG_formal_parameter
     198                            .dwattr $C$DW$37, DW_AT_type(*$C$DW$T$10)
     199                            .dwendtag $C$DW$31
     200                    
     201                    
     202                    $C$DW$38        .dwtag  DW_TAG_subprogram, DW_AT_name("VLIB_skip_test")
     203                            .dwattr $C$DW$38, DW_AT_TI_symbol_name("VLIB_skip_test")
     204                            .dwattr $C$DW$38, DW_AT_declaration
     205                            .dwattr $C$DW$38, DW_AT_external
     206                            .dwattr $C$DW$38, DW_AT_decl_file(".\..\packages\ti\vlib\src\VLIB_mixtureOfGaussiansS32\..\com
     207                            .dwattr $C$DW$38, DW_AT_decl_line(0x7e)
     208                            .dwattr $C$DW$38, DW_AT_decl_column(0x06)
     209                    $C$DW$39        .dwtag  DW_TAG_formal_parameter
     210                            .dwattr $C$DW$39, DW_AT_type(*$C$DW$T$61)
     211                            .dwendtag $C$DW$38
     212                    
     213                    
     214                    $C$DW$40        .dwtag  DW_TAG_subprogram, DW_AT_name("VLIB_profile_cycle_report")
     215                            .dwattr $C$DW$40, DW_AT_TI_symbol_name("VLIB_profile_cycle_report")
     216                            .dwattr $C$DW$40, DW_AT_declaration
     217                            .dwattr $C$DW$40, DW_AT_external
     218                            .dwattr $C$DW$40, DW_AT_decl_file(".\..\packages\ti\vlib\src\VLIB_mixtureOfGaussiansS32\..\com
     219                            .dwattr $C$DW$40, DW_AT_decl_line(0x7f)
     220                            .dwattr $C$DW$40, DW_AT_decl_column(0x06)
TMS320C6x Assembler PC v7.4.2 Thu Mar 19 12:43:28 2015

Tools Copyright (c) 1996-2012 Texas Instruments Incorporated
package/lib/Regression/regress_d_c/./../packages/ti/vlib/src/VLIB_mixtureOfGaussiansS32/VLIB_mixtureOfGaussiansS32_d.se66 PAGE    5

     221                    $C$DW$41        .dwtag  DW_TAG_formal_parameter
     222                            .dwattr $C$DW$41, DW_AT_type(*$C$DW$T$10)
     223                    $C$DW$42        .dwtag  DW_TAG_formal_parameter
     224                            .dwattr $C$DW$42, DW_AT_type(*$C$DW$T$61)
     225                    $C$DW$43        .dwtag  DW_TAG_formal_parameter
     226                            .dwattr $C$DW$43, DW_AT_type(*$C$DW$T$61)
     227                            .dwendtag $C$DW$40
     228                    
     229                    
     230                    $C$DW$44        .dwtag  DW_TAG_subprogram, DW_AT_name("initStack")
     231                            .dwattr $C$DW$44, DW_AT_TI_symbol_name("initStack")
     232                            .dwattr $C$DW$44, DW_AT_declaration
     233                            .dwattr $C$DW$44, DW_AT_external
     234                            .dwattr $C$DW$44, DW_AT_decl_file(".\..\packages\ti\vlib\src\VLIB_mixtureOfGaussiansS32\..\com
     235                            .dwattr $C$DW$44, DW_AT_decl_line(0x80)
     236                            .dwattr $C$DW$44, DW_AT_decl_column(0x06)
     237                    $C$DW$45        .dwtag  DW_TAG_formal_parameter
     238                            .dwattr $C$DW$45, DW_AT_type(*$C$DW$T$21)
     239                            .dwendtag $C$DW$44
     240                    
     241                    
     242                    $C$DW$46        .dwtag  DW_TAG_subprogram, DW_AT_name("setStackDepth")
     243                            .dwattr $C$DW$46, DW_AT_TI_symbol_name("setStackDepth")
     244                            .dwattr $C$DW$46, DW_AT_declaration
     245                            .dwattr $C$DW$46, DW_AT_external
     246                            .dwattr $C$DW$46, DW_AT_decl_file(".\..\packages\ti\vlib\src\VLIB_mixtureOfGaussiansS32\..\com
     247                            .dwattr $C$DW$46, DW_AT_decl_line(0x81)
     248                            .dwattr $C$DW$46, DW_AT_decl_column(0x06)
     249                    
     250                    $C$DW$47        .dwtag  DW_TAG_subprogram, DW_AT_name("getSP")
     251                            .dwattr $C$DW$47, DW_AT_TI_symbol_name("getSP")
     252                            .dwattr $C$DW$47, DW_AT_type(*$C$DW$T$21)
     253                            .dwattr $C$DW$47, DW_AT_declaration
     254                            .dwattr $C$DW$47, DW_AT_external
     255                            .dwattr $C$DW$47, DW_AT_decl_file(".\..\packages\ti\vlib\src\VLIB_mixtureOfGaussiansS32\..\com
     256                            .dwattr $C$DW$47, DW_AT_decl_line(0x82)
     257                            .dwattr $C$DW$47, DW_AT_decl_column(0x0a)
     258                    
     259                    $C$DW$48        .dwtag  DW_TAG_subprogram, DW_AT_name("VLIB_stack_memory")
     260                            .dwattr $C$DW$48, DW_AT_TI_symbol_name("VLIB_stack_memory")
     261                            .dwattr $C$DW$48, DW_AT_declaration
     262                            .dwattr $C$DW$48, DW_AT_external
     263                            .dwattr $C$DW$48, DW_AT_decl_file(".\..\packages\ti\vlib\src\VLIB_mixtureOfGaussiansS32\..\com
     264                            .dwattr $C$DW$48, DW_AT_decl_line(0x83)
     265                            .dwattr $C$DW$48, DW_AT_decl_column(0x06)
     266                    
     267                    $C$DW$49        .dwtag  DW_TAG_subprogram, DW_AT_name("VLIB_compare_mem")
     268                            .dwattr $C$DW$49, DW_AT_TI_symbol_name("VLIB_compare_mem")
     269                            .dwattr $C$DW$49, DW_AT_type(*$C$DW$T$23)
     270                            .dwattr $C$DW$49, DW_AT_declaration
     271                            .dwattr $C$DW$49, DW_AT_external
     272                            .dwattr $C$DW$49, DW_AT_decl_file(".\..\packages\ti\vlib\src\VLIB_mixtureOfGaussiansS32\../com
     273                            .dwattr $C$DW$49, DW_AT_decl_line(0x6f)
     274                            .dwattr $C$DW$49, DW_AT_decl_column(0x11)
     275                    $C$DW$50        .dwtag  DW_TAG_formal_parameter
TMS320C6x Assembler PC v7.4.2 Thu Mar 19 12:43:28 2015

Tools Copyright (c) 1996-2012 Texas Instruments Incorporated
package/lib/Regression/regress_d_c/./../packages/ti/vlib/src/VLIB_mixtureOfGaussiansS32/VLIB_mixtureOfGaussiansS32_d.se66 PAGE    6

     276                            .dwattr $C$DW$50, DW_AT_type(*$C$DW$T$53)
     277                    $C$DW$51        .dwtag  DW_TAG_formal_parameter
     278                            .dwattr $C$DW$51, DW_AT_type(*$C$DW$T$53)
     279                    $C$DW$52        .dwtag  DW_TAG_formal_parameter
     280                            .dwattr $C$DW$52, DW_AT_type(*$C$DW$T$23)
     281                            .dwendtag $C$DW$49
     282                    
     283                    
     284                    $C$DW$53        .dwtag  DW_TAG_subprogram, DW_AT_name("VLIB_fillBuffer")
     285                            .dwattr $C$DW$53, DW_AT_TI_symbol_name("VLIB_fillBuffer")
     286                            .dwattr $C$DW$53, DW_AT_declaration
     287                            .dwattr $C$DW$53, DW_AT_external
     288                            .dwattr $C$DW$53, DW_AT_decl_file(".\..\packages\ti\vlib\src\VLIB_mixtureOfGaussiansS32\../com
     289                            .dwattr $C$DW$53, DW_AT_decl_line(0x77)
     290                            .dwattr $C$DW$53, DW_AT_decl_column(0x06)
     291                    $C$DW$54        .dwtag  DW_TAG_formal_parameter
     292                            .dwattr $C$DW$54, DW_AT_type(*$C$DW$T$19)
     293                    $C$DW$55        .dwtag  DW_TAG_formal_parameter
     294                            .dwattr $C$DW$55, DW_AT_type(*$C$DW$T$19)
     295                    $C$DW$56        .dwtag  DW_TAG_formal_parameter
     296                            .dwattr $C$DW$56, DW_AT_type(*$C$DW$T$3)
     297                    $C$DW$57        .dwtag  DW_TAG_formal_parameter
     298                            .dwattr $C$DW$57, DW_AT_type(*$C$DW$T$3)
     299                    $C$DW$58        .dwtag  DW_TAG_formal_parameter
     300                            .dwattr $C$DW$58, DW_AT_type(*$C$DW$T$75)
     301                    $C$DW$59        .dwtag  DW_TAG_formal_parameter
     302                            .dwattr $C$DW$59, DW_AT_type(*$C$DW$T$75)
     303                    $C$DW$60        .dwtag  DW_TAG_formal_parameter
     304                            .dwattr $C$DW$60, DW_AT_type(*$C$DW$T$75)
     305                    $C$DW$61        .dwtag  DW_TAG_formal_parameter
     306                            .dwattr $C$DW$61, DW_AT_type(*$C$DW$T$19)
     307                    $C$DW$62        .dwtag  DW_TAG_formal_parameter
     308                            .dwattr $C$DW$62, DW_AT_type(*$C$DW$T$61)
     309                            .dwendtag $C$DW$53
     310                    
     311                    
     312                    $C$DW$63        .dwtag  DW_TAG_subprogram, DW_AT_name("VLIB_malloc")
     313                            .dwattr $C$DW$63, DW_AT_TI_symbol_name("VLIB_malloc")
     314                            .dwattr $C$DW$63, DW_AT_type(*$C$DW$T$3)
     315                            .dwattr $C$DW$63, DW_AT_declaration
     316                            .dwattr $C$DW$63, DW_AT_external
     317                            .dwattr $C$DW$63, DW_AT_decl_file(".\..\packages\ti\vlib\src\VLIB_mixtureOfGaussiansS32\../com
     318                            .dwattr $C$DW$63, DW_AT_decl_line(0xaf)
     319                            .dwattr $C$DW$63, DW_AT_decl_column(0x07)
     320                    $C$DW$64        .dwtag  DW_TAG_formal_parameter
     321                            .dwattr $C$DW$64, DW_AT_type(*$C$DW$T$54)
     322                            .dwendtag $C$DW$63
     323                    
     324                    
     325                    $C$DW$65        .dwtag  DW_TAG_subprogram, DW_AT_name("VLIB_free")
     326                            .dwattr $C$DW$65, DW_AT_TI_symbol_name("VLIB_free")
     327                            .dwattr $C$DW$65, DW_AT_declaration
     328                            .dwattr $C$DW$65, DW_AT_external
     329                            .dwattr $C$DW$65, DW_AT_decl_file(".\..\packages\ti\vlib\src\VLIB_mixtureOfGaussiansS32\../com
     330                            .dwattr $C$DW$65, DW_AT_decl_line(0xb4)
TMS320C6x Assembler PC v7.4.2 Thu Mar 19 12:43:28 2015

Tools Copyright (c) 1996-2012 Texas Instruments Incorporated
package/lib/Regression/regress_d_c/./../packages/ti/vlib/src/VLIB_mixtureOfGaussiansS32/VLIB_mixtureOfGaussiansS32_d.se66 PAGE    7

     331                            .dwattr $C$DW$65, DW_AT_decl_column(0x07)
     332                    $C$DW$66        .dwtag  DW_TAG_formal_parameter
     333                            .dwattr $C$DW$66, DW_AT_type(*$C$DW$T$3)
     334                            .dwendtag $C$DW$65
     335                    
     336                    
     337                    $C$DW$67        .dwtag  DW_TAG_subprogram, DW_AT_name("VLIB_mixtureOfGaussiansS32")
     338                            .dwattr $C$DW$67, DW_AT_TI_symbol_name("VLIB_mixtureOfGaussiansS32")
     339                            .dwattr $C$DW$67, DW_AT_type(*$C$DW$T$23)
     340                            .dwattr $C$DW$67, DW_AT_declaration
     341                            .dwattr $C$DW$67, DW_AT_external
     342                            .dwattr $C$DW$67, DW_AT_decl_file(".\..\packages\ti\vlib\src\VLIB_mixtureOfGaussiansS32\c66/VL
     343                            .dwattr $C$DW$67, DW_AT_decl_line(0x80)
     344                            .dwattr $C$DW$67, DW_AT_decl_column(0x09)
     345                    $C$DW$68        .dwtag  DW_TAG_formal_parameter
     346                            .dwattr $C$DW$68, DW_AT_type(*$C$DW$T$112)
     347                    $C$DW$69        .dwtag  DW_TAG_formal_parameter
     348                            .dwattr $C$DW$69, DW_AT_type(*$C$DW$T$116)
     349                    $C$DW$70        .dwtag  DW_TAG_formal_parameter
     350                            .dwattr $C$DW$70, DW_AT_type(*$C$DW$T$131)
     351                    $C$DW$71        .dwtag  DW_TAG_formal_parameter
     352                            .dwattr $C$DW$71, DW_AT_type(*$C$DW$T$131)
     353                    $C$DW$72        .dwtag  DW_TAG_formal_parameter
     354                            .dwattr $C$DW$72, DW_AT_type(*$C$DW$T$109)
     355                    $C$DW$73        .dwtag  DW_TAG_formal_parameter
     356                            .dwattr $C$DW$73, DW_AT_type(*$C$DW$T$109)
     357                    $C$DW$74        .dwtag  DW_TAG_formal_parameter
     358                            .dwattr $C$DW$74, DW_AT_type(*$C$DW$T$132)
     359                    $C$DW$75        .dwtag  DW_TAG_formal_parameter
     360                            .dwattr $C$DW$75, DW_AT_type(*$C$DW$T$133)
     361                    $C$DW$76        .dwtag  DW_TAG_formal_parameter
     362                            .dwattr $C$DW$76, DW_AT_type(*$C$DW$T$117)
     363                    $C$DW$77        .dwtag  DW_TAG_formal_parameter
     364                            .dwattr $C$DW$77, DW_AT_type(*$C$DW$T$133)
     365                    $C$DW$78        .dwtag  DW_TAG_formal_parameter
     366                            .dwattr $C$DW$78, DW_AT_type(*$C$DW$T$133)
     367                    $C$DW$79        .dwtag  DW_TAG_formal_parameter
     368                            .dwattr $C$DW$79, DW_AT_type(*$C$DW$T$117)
     369                    $C$DW$80        .dwtag  DW_TAG_formal_parameter
     370                            .dwattr $C$DW$80, DW_AT_type(*$C$DW$T$117)
     371                    $C$DW$81        .dwtag  DW_TAG_formal_parameter
     372                            .dwattr $C$DW$81, DW_AT_type(*$C$DW$T$133)
     373                            .dwendtag $C$DW$67
     374                    
     375                    
     376                    $C$DW$82        .dwtag  DW_TAG_subprogram, DW_AT_name("VLIB_mixtureOfGaussiansS32_cn")
     377                            .dwattr $C$DW$82, DW_AT_TI_symbol_name("VLIB_mixtureOfGaussiansS32_cn")
     378                            .dwattr $C$DW$82, DW_AT_type(*$C$DW$T$23)
     379                            .dwattr $C$DW$82, DW_AT_declaration
     380                            .dwattr $C$DW$82, DW_AT_external
     381                            .dwattr $C$DW$82, DW_AT_decl_file(".\..\packages\ti\vlib\src\VLIB_mixtureOfGaussiansS32\VLIB_m
     382                            .dwattr $C$DW$82, DW_AT_decl_line(0x20)
     383                            .dwattr $C$DW$82, DW_AT_decl_column(0x09)
     384                    $C$DW$83        .dwtag  DW_TAG_formal_parameter
     385                            .dwattr $C$DW$83, DW_AT_type(*$C$DW$T$112)
TMS320C6x Assembler PC v7.4.2 Thu Mar 19 12:43:28 2015

Tools Copyright (c) 1996-2012 Texas Instruments Incorporated
package/lib/Regression/regress_d_c/./../packages/ti/vlib/src/VLIB_mixtureOfGaussiansS32/VLIB_mixtureOfGaussiansS32_d.se66 PAGE    8

     386                    $C$DW$84        .dwtag  DW_TAG_formal_parameter
     387                            .dwattr $C$DW$84, DW_AT_type(*$C$DW$T$116)
     388                    $C$DW$85        .dwtag  DW_TAG_formal_parameter
     389                            .dwattr $C$DW$85, DW_AT_type(*$C$DW$T$131)
     390                    $C$DW$86        .dwtag  DW_TAG_formal_parameter
     391                            .dwattr $C$DW$86, DW_AT_type(*$C$DW$T$131)
     392                    $C$DW$87        .dwtag  DW_TAG_formal_parameter
     393                            .dwattr $C$DW$87, DW_AT_type(*$C$DW$T$109)
     394                    $C$DW$88        .dwtag  DW_TAG_formal_parameter
     395                            .dwattr $C$DW$88, DW_AT_type(*$C$DW$T$109)
     396                    $C$DW$89        .dwtag  DW_TAG_formal_parameter
     397                            .dwattr $C$DW$89, DW_AT_type(*$C$DW$T$132)
     398                    $C$DW$90        .dwtag  DW_TAG_formal_parameter
     399                            .dwattr $C$DW$90, DW_AT_type(*$C$DW$T$133)
     400                    $C$DW$91        .dwtag  DW_TAG_formal_parameter
     401                            .dwattr $C$DW$91, DW_AT_type(*$C$DW$T$117)
     402                    $C$DW$92        .dwtag  DW_TAG_formal_parameter
     403                            .dwattr $C$DW$92, DW_AT_type(*$C$DW$T$133)
     404                    $C$DW$93        .dwtag  DW_TAG_formal_parameter
     405                            .dwattr $C$DW$93, DW_AT_type(*$C$DW$T$133)
     406                    $C$DW$94        .dwtag  DW_TAG_formal_parameter
     407                            .dwattr $C$DW$94, DW_AT_type(*$C$DW$T$117)
     408                    $C$DW$95        .dwtag  DW_TAG_formal_parameter
     409                            .dwattr $C$DW$95, DW_AT_type(*$C$DW$T$117)
     410                    $C$DW$96        .dwtag  DW_TAG_formal_parameter
     411                            .dwattr $C$DW$96, DW_AT_type(*$C$DW$T$133)
     412                            .dwendtag $C$DW$82
     413                    
     414                    
     415                    $C$DW$97        .dwtag  DW_TAG_subprogram, DW_AT_name("mixtureOfGaussiansS32_getTestParams")
     416                            .dwattr $C$DW$97, DW_AT_TI_symbol_name("mixtureOfGaussiansS32_getTestParams")
     417                            .dwattr $C$DW$97, DW_AT_declaration
     418                            .dwattr $C$DW$97, DW_AT_external
     419                            .dwattr $C$DW$97, DW_AT_decl_file(".\..\packages\ti\vlib\src\VLIB_mixtureOfGaussiansS32\VLIB_m
     420                            .dwattr $C$DW$97, DW_AT_decl_line(0x31)
     421                            .dwattr $C$DW$97, DW_AT_decl_column(0x06)
     422                    $C$DW$98        .dwtag  DW_TAG_formal_parameter
     423                            .dwattr $C$DW$98, DW_AT_type(*$C$DW$T$46)
     424                    $C$DW$99        .dwtag  DW_TAG_formal_parameter
     425                            .dwattr $C$DW$99, DW_AT_type(*$C$DW$T$78)
     426                            .dwendtag $C$DW$97
     427                    
     428                    $C$DW$100       .dwtag  DW_TAG_variable, DW_AT_name("test_cases")
     429                            .dwattr $C$DW$100, DW_AT_TI_symbol_name("test_cases")
     430                            .dwattr $C$DW$100, DW_AT_type(*$C$DW$T$23)
     431                            .dwattr $C$DW$100, DW_AT_declaration
     432                            .dwattr $C$DW$100, DW_AT_external
     433                            .dwattr $C$DW$100, DW_AT_decl_file(".\..\packages\ti\vlib\src\VLIB_mixtureOfGaussiansS32\../co
     434                            .dwattr $C$DW$100, DW_AT_decl_line(0x60)
     435                            .dwattr $C$DW$100, DW_AT_decl_column(0x13)
     436                    $C$DW$101       .dwtag  DW_TAG_variable, DW_AT_name("act_kernel")
     437                            .dwattr $C$DW$101, DW_AT_TI_symbol_name("act_kernel")
     438                            .dwattr $C$DW$101, DW_AT_type(*$C$DW$T$10)
     439                            .dwattr $C$DW$101, DW_AT_declaration
     440                            .dwattr $C$DW$101, DW_AT_external
TMS320C6x Assembler PC v7.4.2 Thu Mar 19 12:43:28 2015

Tools Copyright (c) 1996-2012 Texas Instruments Incorporated
package/lib/Regression/regress_d_c/./../packages/ti/vlib/src/VLIB_mixtureOfGaussiansS32/VLIB_mixtureOfGaussiansS32_d.se66 PAGE    9

     441                            .dwattr $C$DW$101, DW_AT_decl_file(".\..\packages\ti\vlib\src\VLIB_mixtureOfGaussiansS32\../co
     442                            .dwattr $C$DW$101, DW_AT_decl_line(0x62)
     443                            .dwattr $C$DW$101, DW_AT_decl_column(0x13)
     444                    $C$DW$102       .dwtag  DW_TAG_variable, DW_AT_name("desc")
     445                            .dwattr $C$DW$102, DW_AT_TI_symbol_name("desc")
     446                            .dwattr $C$DW$102, DW_AT_type(*$C$DW$T$188)
     447                            .dwattr $C$DW$102, DW_AT_declaration
     448                            .dwattr $C$DW$102, DW_AT_external
     449                            .dwattr $C$DW$102, DW_AT_decl_file(".\..\packages\ti\vlib\src\VLIB_mixtureOfGaussiansS32\../co
     450                            .dwattr $C$DW$102, DW_AT_decl_line(0x63)
     451                            .dwattr $C$DW$102, DW_AT_decl_column(0x13)
     452                    $C$DW$103       .dwtag  DW_TAG_variable, DW_AT_name("testPatternString")
     453                            .dwattr $C$DW$103, DW_AT_TI_symbol_name("testPatternString")
     454                            .dwattr $C$DW$103, DW_AT_type(*$C$DW$T$188)
     455                            .dwattr $C$DW$103, DW_AT_declaration
     456                            .dwattr $C$DW$103, DW_AT_external
     457                            .dwattr $C$DW$103, DW_AT_decl_file(".\..\packages\ti\vlib\src\VLIB_mixtureOfGaussiansS32\../co
     458                            .dwattr $C$DW$103, DW_AT_decl_line(0x64)
     459                            .dwattr $C$DW$103, DW_AT_decl_column(0x13)
     460                    $C$DW$104       .dwtag  DW_TAG_variable, DW_AT_name("est_test")
     461                            .dwattr $C$DW$104, DW_AT_TI_symbol_name("est_test")
     462                            .dwattr $C$DW$104, DW_AT_type(*$C$DW$T$10)
     463                            .dwattr $C$DW$104, DW_AT_declaration
     464                            .dwattr $C$DW$104, DW_AT_external
     465                            .dwattr $C$DW$104, DW_AT_decl_file(".\..\packages\ti\vlib\src\VLIB_mixtureOfGaussiansS32\..\co
     466                            .dwattr $C$DW$104, DW_AT_decl_line(0x75)
     467                            .dwattr $C$DW$104, DW_AT_decl_column(0x14)
     468                    $C$DW$105       .dwtag  DW_TAG_variable, DW_AT_name("beg_count")
     469                            .dwattr $C$DW$105, DW_AT_TI_symbol_name("beg_count")
     470                            .dwattr $C$DW$105, DW_AT_type(*$C$DW$T$172)
     471                            .dwattr $C$DW$105, DW_AT_declaration
     472                            .dwattr $C$DW$105, DW_AT_external
     473                            .dwattr $C$DW$105, DW_AT_decl_file(".\..\packages\ti\vlib\src\VLIB_mixtureOfGaussiansS32\..\co
     474                            .dwattr $C$DW$105, DW_AT_decl_line(0x76)
     475                            .dwattr $C$DW$105, DW_AT_decl_column(0x14)
     476                    $C$DW$106       .dwtag  DW_TAG_variable, DW_AT_name("end_count")
     477                            .dwattr $C$DW$106, DW_AT_TI_symbol_name("end_count")
     478                            .dwattr $C$DW$106, DW_AT_type(*$C$DW$T$172)
     479                            .dwattr $C$DW$106, DW_AT_declaration
     480                            .dwattr $C$DW$106, DW_AT_external
     481                            .dwattr $C$DW$106, DW_AT_decl_file(".\..\packages\ti\vlib\src\VLIB_mixtureOfGaussiansS32\..\co
     482                            .dwattr $C$DW$106, DW_AT_decl_line(0x77)
     483                            .dwattr $C$DW$106, DW_AT_decl_column(0x14)
     484                    $C$DW$107       .dwtag  DW_TAG_variable, DW_AT_name("overhead")
     485                            .dwattr $C$DW$107, DW_AT_TI_symbol_name("overhead")
     486                            .dwattr $C$DW$107, DW_AT_type(*$C$DW$T$172)
     487                            .dwattr $C$DW$107, DW_AT_declaration
     488                            .dwattr $C$DW$107, DW_AT_external
     489                            .dwattr $C$DW$107, DW_AT_decl_file(".\..\packages\ti\vlib\src\VLIB_mixtureOfGaussiansS32\..\co
     490                            .dwattr $C$DW$107, DW_AT_decl_line(0x78)
     491                            .dwattr $C$DW$107, DW_AT_decl_column(0x14)
     492                    $C$DW$108       .dwtag  DW_TAG_variable, DW_AT_name("cycles")
     493                            .dwattr $C$DW$108, DW_AT_TI_symbol_name("cycles")
     494                            .dwattr $C$DW$108, DW_AT_type(*$C$DW$T$173)
     495                            .dwattr $C$DW$108, DW_AT_declaration
TMS320C6x Assembler PC v7.4.2 Thu Mar 19 12:43:28 2015

Tools Copyright (c) 1996-2012 Texas Instruments Incorporated
package/lib/Regression/regress_d_c/./../packages/ti/vlib/src/VLIB_mixtureOfGaussiansS32/VLIB_mixtureOfGaussiansS32_d.se66 PAGE   10

     496                            .dwattr $C$DW$108, DW_AT_external
     497                            .dwattr $C$DW$108, DW_AT_decl_file(".\..\packages\ti\vlib\src\VLIB_mixtureOfGaussiansS32\..\co
     498                            .dwattr $C$DW$108, DW_AT_decl_line(0x79)
     499                            .dwattr $C$DW$108, DW_AT_decl_column(0x14)
     500                    ;       C:\VLIB_Tools\CCSV5_4_0\ccsv5\tools\compiler\C6000\bin\opt6x.exe C:\\Users\\gtbldadm\\AppData\
     501 00000000                   .sect   ".text"
     502                            .clink
     503                            .global VLIB_mixtureOfGaussiansS32_d
     504                    
     505                    $C$DW$109       .dwtag  DW_TAG_subprogram, DW_AT_name("VLIB_mixtureOfGaussiansS32_d")
     506                            .dwattr $C$DW$109, DW_AT_low_pc(VLIB_mixtureOfGaussiansS32_d)
     507                            .dwattr $C$DW$109, DW_AT_high_pc(0x00)
     508                            .dwattr $C$DW$109, DW_AT_TI_symbol_name("VLIB_mixtureOfGaussiansS32_d")
     509                            .dwattr $C$DW$109, DW_AT_external
     510                            .dwattr $C$DW$109, DW_AT_TI_begin_file("./../packages/ti/vlib/src/VLIB_mixtureOfGaussiansS32/V
     511                            .dwattr $C$DW$109, DW_AT_TI_begin_line(0x26)
     512                            .dwattr $C$DW$109, DW_AT_TI_begin_column(0x06)
     513                            .dwattr $C$DW$109, DW_AT_decl_file("./../packages/ti/vlib/src/VLIB_mixtureOfGaussiansS32/VLIB_
     514                            .dwattr $C$DW$109, DW_AT_decl_line(0x26)
     515                            .dwattr $C$DW$109, DW_AT_decl_column(0x06)
     516                            .dwattr $C$DW$109, DW_AT_TI_max_frame_size(0xe8)
     517                            .dwpsn  file "./../packages/ti/vlib/src/VLIB_mixtureOfGaussiansS32/VLIB_mixtureOfGaussiansS32_
     518                    
     519                            .dwfde $C$DW$CIE, VLIB_mixtureOfGaussiansS32_d
     520                    $C$DW$110       .dwtag  DW_TAG_formal_parameter, DW_AT_name("LevelOfFeedback")
     521                            .dwattr $C$DW$110, DW_AT_TI_symbol_name("LevelOfFeedback")
     522                            .dwattr $C$DW$110, DW_AT_type(*$C$DW$T$19)
     523                            .dwattr $C$DW$110, DW_AT_location[DW_OP_reg4]
     524                    ;----------------------------------------------------------------------
     525                    ;  38 | void VLIB_mixtureOfGaussiansS32_d (uint8_t LevelOfFeedback)            
     526                    ;----------------------------------------------------------------------
     527                    
     528                    ;******************************************************************************
     529                    ;* FUNCTION NAME: VLIB_mixtureOfGaussiansS32_d                                *
     530                    ;*                                                                            *
     531                    ;*   Regs Modified     : A0,A1,A2,A3,A4,A5,A6,A7,A8,A9,A10,A11,A12,A13,A14,   *
     532                    ;*                           A15,B0,B1,B2,B3,B4,B5,B6,B7,B8,B9,B10,B11,B12,   *
     533                    ;*                           B13,SP,A16,A17,A18,A19,A20,A21,A22,A23,A24,A25,  *
     534                    ;*                           A26,A27,A28,A29,A30,A31,B16,B17,B18,B19,B20,B21, *
     535                    ;*                           B22,B23,B24,B25,B26,B27,B28,B29,B30,B31          *
     536                    ;*   Regs Used         : A0,A1,A2,A3,A4,A5,A6,A7,A8,A9,A10,A11,A12,A13,A14,   *
     537                    ;*                           A15,B0,B1,B2,B3,B4,B5,B6,B7,B8,B9,B10,B11,B12,   *
     538                    ;*                           B13,DP,SP,A16,A17,A18,A19,A20,A21,A22,A23,A24,   *
     539                    ;*                           A25,A26,A27,A28,A29,A30,A31,B16,B17,B18,B19,B20, *
     540                    ;*                           B21,B22,B23,B24,B25,B26,B27,B28,B29,B30,B31      *
     541                    ;*   Local Frame Size  : 112 Args + 64 Auto + 56 Save = 232 byte              *
     542                    ;******************************************************************************
     543                    
     544                    ;******************************************************************************
     545                    ;*                                                                            *
     546                    ;* Using -g (debug) with optimization (-o3) may disable key optimizations!    *
     547                    ;*                                                                            *
     548                    ;******************************************************************************
     549 00000000           VLIB_mixtureOfGaussiansS32_d:
     550                    ;** --------------------------------------------------------------------------*
TMS320C6x Assembler PC v7.4.2 Thu Mar 19 12:43:28 2015

Tools Copyright (c) 1996-2012 Texas Instruments Incorporated
package/lib/Regression/regress_d_c/./../packages/ti/vlib/src/VLIB_mixtureOfGaussiansS32/VLIB_mixtureOfGaussiansS32_d.se66 PAGE   11

     551                    ;          EXCLUSIVE CPU CYCLES: 16
     552                    ;** 45  -----------------------    mixtureOfGaussiansS32_getTestParams(&prm, &test_cases);
     553                    ;** 48  -----------------------    VLIB_profile_init(3, "VLIB_mixtureOfGaussiansS32");
     554                    ;** 51  -----------------------    if ( test_cases <= 0 ) goto g63;
     555                            .dwcfi  cfa_offset, 0
     556                    ;----------------------------------------------------------------------
     557                    ;  40 | int32_t    tpi;  /* test parameter index */                            
     558                    ;  43 | mixtureOfGaussiansS32_testParams_t   *prm;                             
     559                    ;----------------------------------------------------------------------
     560 00000000     25f7             STW     .D2T1   A11,*SP--(8)      ; |39| 
     561                            .dwcfi  cfa_offset, 8
     562                            .dwcfi  save_reg_to_mem, 11, 0
     563 00000002     2577             STW     .D2T1   A10,*SP--(8)      ; |39| 
     564                            .dwcfi  cfa_offset, 16
     565                            .dwcfi  save_reg_to_mem, 10, -8
     566 00000004     9677             STDW    .D2T2   B13:B12,*SP--     ; |39| 
     567                            .dwcfi  cfa_offset, 24
     568                            .dwcfi  save_reg_to_mem, 29, -12
     569                            .dwcfi  save_reg_to_mem, 28, -16
     570 00000006     9577             STDW    .D2T2   B11:B10,*SP--     ; |39| 
     571                            .dwcfi  cfa_offset, 32
     572                            .dwcfi  save_reg_to_mem, 27, -20
     573                            .dwcfi  save_reg_to_mem, 26, -24
     574 00000008     8777             STDW    .D2T1   A15:A14,*SP--     ; |39| 
     575                            .dwcfi  cfa_offset, 40
     576                            .dwcfi  save_reg_to_mem, 15, -28
     577                            .dwcfi  save_reg_to_mem, 14, -32
     578 0000000a     8677             STDW    .D2T1   A13:A12,*SP--     ; |39| 
     579                            .dwcfi  cfa_offset, 48
     580                            .dwcfi  save_reg_to_mem, 13, -36
     581                            .dwcfi  save_reg_to_mem, 12, -40
     582 0000000c 01bc54f6             STW     .D2T2   B3,*SP--(8)       ; |39| 
     583                            .dwcfi  cfa_offset, 56
     584                            .dwcfi  save_reg_to_mem, 19, -48
     585 00000010 07ffa852             ADDK    .S2     -176,SP           ; |39| 
     586                            .dwcfi  cfa_offset, 232
     587                    $C$DW$111       .dwtag  DW_TAG_variable, DW_AT_name("$O$C1")
     588                            .dwattr $C$DW$111, DW_AT_TI_symbol_name("$O$C1")
     589                            .dwattr $C$DW$111, DW_AT_type(*$C$DW$T$10)
     590                            .dwattr $C$DW$111, DW_AT_location[DW_OP_reg20]
     591                    $C$DW$112       .dwtag  DW_TAG_variable, DW_AT_name("$O$C2")
     592                            .dwattr $C$DW$112, DW_AT_TI_symbol_name("$O$C2")
     593                            .dwattr $C$DW$112, DW_AT_type(*$C$DW$T$10)
     594                            .dwattr $C$DW$112, DW_AT_location[DW_OP_reg3]
     595                    $C$DW$113       .dwtag  DW_TAG_variable, DW_AT_name("$O$C3")
     596                            .dwattr $C$DW$113, DW_AT_TI_symbol_name("$O$C3")
     597                            .dwattr $C$DW$113, DW_AT_type(*$C$DW$T$42)
     598                            .dwattr $C$DW$113, DW_AT_location[DW_OP_reg3]
     599                    $C$DW$114       .dwtag  DW_TAG_variable, DW_AT_name("$O$C4")
     600                            .dwattr $C$DW$114, DW_AT_TI_symbol_name("$O$C4")
     601                            .dwattr $C$DW$114, DW_AT_type(*$C$DW$T$10)
     602                            .dwattr $C$DW$114, DW_AT_location[DW_OP_reg8]
     603                    $C$DW$115       .dwtag  DW_TAG_variable, DW_AT_name("$O$C5")
     604                            .dwattr $C$DW$115, DW_AT_TI_symbol_name("$O$C5")
     605                            .dwattr $C$DW$115, DW_AT_type(*$C$DW$T$10)
TMS320C6x Assembler PC v7.4.2 Thu Mar 19 12:43:28 2015

Tools Copyright (c) 1996-2012 Texas Instruments Incorporated
package/lib/Regression/regress_d_c/./../packages/ti/vlib/src/VLIB_mixtureOfGaussiansS32/VLIB_mixtureOfGaussiansS32_d.se66 PAGE   12

     606                            .dwattr $C$DW$115, DW_AT_location[DW_OP_reg26]
     607                    $C$DW$116       .dwtag  DW_TAG_variable, DW_AT_name("$O$C6")
     608                            .dwattr $C$DW$116, DW_AT_TI_symbol_name("$O$C6")
     609                            .dwattr $C$DW$116, DW_AT_type(*$C$DW$T$42)
     610                            .dwattr $C$DW$116, DW_AT_location[DW_OP_reg3]
     611                    $C$DW$117       .dwtag  DW_TAG_variable, DW_AT_name("$O$C7")
     612                            .dwattr $C$DW$117, DW_AT_TI_symbol_name("$O$C7")
     613                            .dwattr $C$DW$117, DW_AT_type(*$C$DW$T$10)
     614                            .dwattr $C$DW$117, DW_AT_location[DW_OP_reg3]
     615                    $C$DW$118       .dwtag  DW_TAG_variable, DW_AT_name("$O$C8")
     616                            .dwattr $C$DW$118, DW_AT_TI_symbol_name("$O$C8")
     617                            .dwattr $C$DW$118, DW_AT_type(*$C$DW$T$10)
     618                            .dwattr $C$DW$118, DW_AT_location[DW_OP_reg26]
     619                    $C$DW$119       .dwtag  DW_TAG_variable, DW_AT_name("$O$C9")
     620                            .dwattr $C$DW$119, DW_AT_TI_symbol_name("$O$C9")
     621                            .dwattr $C$DW$119, DW_AT_type(*$C$DW$T$9)
     622                            .dwattr $C$DW$119, DW_AT_location[DW_OP_reg21]
     623                    $C$DW$120       .dwtag  DW_TAG_variable, DW_AT_name("$O$C10")
     624                            .dwattr $C$DW$120, DW_AT_TI_symbol_name("$O$C10")
     625                            .dwattr $C$DW$120, DW_AT_type(*$C$DW$T$10)
     626                            .dwattr $C$DW$120, DW_AT_location[DW_OP_reg20]
     627                    $C$DW$121       .dwtag  DW_TAG_variable, DW_AT_name("$O$C11")
     628                            .dwattr $C$DW$121, DW_AT_TI_symbol_name("$O$C11")
     629                            .dwattr $C$DW$121, DW_AT_type(*$C$DW$T$10)
     630                            .dwattr $C$DW$121, DW_AT_location[DW_OP_reg20]
     631                    $C$DW$122       .dwtag  DW_TAG_variable, DW_AT_name("$O$U13")
     632                            .dwattr $C$DW$122, DW_AT_TI_symbol_name("$O$U13")
     633                            .dwattr $C$DW$122, DW_AT_type(*$C$DW$T$42)
     634                            .dwattr $C$DW$122, DW_AT_location[DW_OP_reg27]
     635                    $C$DW$123       .dwtag  DW_TAG_variable, DW_AT_name("$O$K36")
     636                            .dwattr $C$DW$123, DW_AT_TI_symbol_name("$O$K36")
     637                            .dwattr $C$DW$123, DW_AT_type(*$C$DW$T$11)
     638                            .dwattr $C$DW$123, DW_AT_location[DW_OP_reg3]
     639                    $C$DW$124       .dwtag  DW_TAG_variable, DW_AT_name("$O$K59")
     640                            .dwattr $C$DW$124, DW_AT_TI_symbol_name("$O$K59")
     641                            .dwattr $C$DW$124, DW_AT_type(*$C$DW$T$82)
     642                            .dwattr $C$DW$124, DW_AT_location[DW_OP_reg12]
     643                    $C$DW$125       .dwtag  DW_TAG_variable, DW_AT_name("$O$K65")
     644                            .dwattr $C$DW$125, DW_AT_TI_symbol_name("$O$K65")
     645                            .dwattr $C$DW$125, DW_AT_type(*$C$DW$T$10)
     646                            .dwattr $C$DW$125, DW_AT_location[DW_OP_reg3]
     647                    $C$DW$126       .dwtag  DW_TAG_variable, DW_AT_name("$O$U12")
     648                            .dwattr $C$DW$126, DW_AT_TI_symbol_name("$O$U12")
     649                            .dwattr $C$DW$126, DW_AT_type(*$C$DW$T$10)
     650                            .dwattr $C$DW$126, DW_AT_location[DW_OP_breg31 128]
     651                    $C$DW$127       .dwtag  DW_TAG_variable, DW_AT_name("$O$U138")
     652                            .dwattr $C$DW$127, DW_AT_TI_symbol_name("$O$U138")
     653                            .dwattr $C$DW$127, DW_AT_type(*$C$DW$T$11)
     654                            .dwattr $C$DW$127, DW_AT_location[DW_OP_reg28]
     655                    $C$DW$128       .dwtag  DW_TAG_variable, DW_AT_name("$O$U217")
     656                            .dwattr $C$DW$128, DW_AT_TI_symbol_name("$O$U217")
     657                            .dwattr $C$DW$128, DW_AT_type(*$C$DW$T$11)
     658                            .dwattr $C$DW$128, DW_AT_location[DW_OP_reg28]
     659                    $C$DW$129       .dwtag  DW_TAG_variable, DW_AT_name("$O$K232")
     660                            .dwattr $C$DW$129, DW_AT_TI_symbol_name("$O$K232")
TMS320C6x Assembler PC v7.4.2 Thu Mar 19 12:43:28 2015

Tools Copyright (c) 1996-2012 Texas Instruments Incorporated
package/lib/Regression/regress_d_c/./../packages/ti/vlib/src/VLIB_mixtureOfGaussiansS32/VLIB_mixtureOfGaussiansS32_d.se66 PAGE   13

     661                            .dwattr $C$DW$129, DW_AT_type(*$C$DW$T$82)
     662                            .dwattr $C$DW$129, DW_AT_location[DW_OP_reg8]
     663                    $C$DW$130       .dwtag  DW_TAG_variable, DW_AT_name("$O$L1")
     664                            .dwattr $C$DW$130, DW_AT_TI_symbol_name("$O$L1")
     665                            .dwattr $C$DW$130, DW_AT_type(*$C$DW$T$10)
     666                            .dwattr $C$DW$130, DW_AT_location[DW_OP_breg31 132]
     667                    $C$DW$131       .dwtag  DW_TAG_variable, DW_AT_name("$O$L2")
     668                            .dwattr $C$DW$131, DW_AT_TI_symbol_name("$O$L2")
     669                            .dwattr $C$DW$131, DW_AT_type(*$C$DW$T$10)
     670                            .dwattr $C$DW$131, DW_AT_location[DW_OP_breg31 132]
     671                    $C$DW$132       .dwtag  DW_TAG_variable, DW_AT_name("$O$L3")
     672                            .dwattr $C$DW$132, DW_AT_TI_symbol_name("$O$L3")
     673                            .dwattr $C$DW$132, DW_AT_type(*$C$DW$T$10)
     674                            .dwattr $C$DW$132, DW_AT_location[DW_OP_reg0]
     675                    $C$DW$133       .dwtag  DW_TAG_variable, DW_AT_name("$O$L4")
     676                            .dwattr $C$DW$133, DW_AT_TI_symbol_name("$O$L4")
     677                            .dwattr $C$DW$133, DW_AT_type(*$C$DW$T$10)
     678                            .dwattr $C$DW$133, DW_AT_location[DW_OP_breg31 132]
     679                    $C$DW$134       .dwtag  DW_TAG_variable, DW_AT_name("$O$L5")
     680                            .dwattr $C$DW$134, DW_AT_TI_symbol_name("$O$L5")
     681                            .dwattr $C$DW$134, DW_AT_type(*$C$DW$T$10)
     682                            .dwattr $C$DW$134, DW_AT_location[DW_OP_breg31 132]
     683                    $C$DW$135       .dwtag  DW_TAG_variable, DW_AT_name("$O$L6")
     684                            .dwattr $C$DW$135, DW_AT_TI_symbol_name("$O$L6")
     685                            .dwattr $C$DW$135, DW_AT_type(*$C$DW$T$10)
     686                            .dwattr $C$DW$135, DW_AT_location[DW_OP_reg0]
     687                    $C$DW$136       .dwtag  DW_TAG_variable, DW_AT_name("LevelOfFeedback")
     688                            .dwattr $C$DW$136, DW_AT_TI_symbol_name("LevelOfFeedback")
     689                            .dwattr $C$DW$136, DW_AT_type(*$C$DW$T$110)
     690                            .dwattr $C$DW$136, DW_AT_location[DW_OP_breg31 136]
     691                    $C$DW$137       .dwtag  DW_TAG_variable, DW_AT_name("tpi")
     692                            .dwattr $C$DW$137, DW_AT_TI_symbol_name("tpi")
     693                            .dwattr $C$DW$137, DW_AT_type(*$C$DW$T$23)
     694                            .dwattr $C$DW$137, DW_AT_location[DW_OP_reg13]
     695                    $C$DW$138       .dwtag  DW_TAG_variable, DW_AT_name("prm")
     696                            .dwattr $C$DW$138, DW_AT_TI_symbol_name("prm")
     697                            .dwattr $C$DW$138, DW_AT_type(*$C$DW$T$45)
     698                            .dwattr $C$DW$138, DW_AT_location[DW_OP_breg31 116]
     699                    $C$DW$139       .dwtag  DW_TAG_variable, DW_AT_name("status_nat_vs_int")
     700                            .dwattr $C$DW$139, DW_AT_TI_symbol_name("status_nat_vs_int")
     701                            .dwattr $C$DW$139, DW_AT_type(*$C$DW$T$23)
     702                            .dwattr $C$DW$139, DW_AT_location[DW_OP_reg10]
     703                    $C$DW$140       .dwtag  DW_TAG_variable, DW_AT_name("status_nat_vs_ref")
     704                            .dwattr $C$DW$140, DW_AT_TI_symbol_name("status_nat_vs_ref")
     705                            .dwattr $C$DW$140, DW_AT_type(*$C$DW$T$23)
     706                            .dwattr $C$DW$140, DW_AT_location[DW_OP_reg11]
     707                    $C$DW$141       .dwtag  DW_TAG_variable, DW_AT_name("Im")
     708                            .dwattr $C$DW$141, DW_AT_TI_symbol_name("Im")
     709                            .dwattr $C$DW$141, DW_AT_type(*$C$DW$T$20)
     710                            .dwattr $C$DW$141, DW_AT_location[DW_OP_breg31 140]
     711                    $C$DW$142       .dwtag  DW_TAG_variable, DW_AT_name("wt")
     712                            .dwattr $C$DW$142, DW_AT_TI_symbol_name("wt")
     713                            .dwattr $C$DW$142, DW_AT_type(*$C$DW$T$115)
     714                            .dwattr $C$DW$142, DW_AT_location[DW_OP_breg31 144]
     715                    $C$DW$143       .dwtag  DW_TAG_variable, DW_AT_name("mu")
TMS320C6x Assembler PC v7.4.2 Thu Mar 19 12:43:28 2015

Tools Copyright (c) 1996-2012 Texas Instruments Incorporated
package/lib/Regression/regress_d_c/./../packages/ti/vlib/src/VLIB_mixtureOfGaussiansS32/VLIB_mixtureOfGaussiansS32_d.se66 PAGE   14

     716                            .dwattr $C$DW$143, DW_AT_TI_symbol_name("mu")
     717                            .dwattr $C$DW$143, DW_AT_type(*$C$DW$T$78)
     718                            .dwattr $C$DW$143, DW_AT_location[DW_OP_breg31 148]
     719                    $C$DW$144       .dwtag  DW_TAG_variable, DW_AT_name("var")
     720                            .dwattr $C$DW$144, DW_AT_TI_symbol_name("var")
     721                            .dwattr $C$DW$144, DW_AT_type(*$C$DW$T$78)
     722                            .dwattr $C$DW$144, DW_AT_location[DW_OP_breg31 152]
     723                    $C$DW$145       .dwtag  DW_TAG_variable, DW_AT_name("compNum")
     724                            .dwattr $C$DW$145, DW_AT_TI_symbol_name("compNum")
     725                            .dwattr $C$DW$145, DW_AT_type(*$C$DW$T$20)
     726                            .dwattr $C$DW$145, DW_AT_location[DW_OP_breg31 156]
     727                    $C$DW$146       .dwtag  DW_TAG_variable, DW_AT_name("updateMask8")
     728                            .dwattr $C$DW$146, DW_AT_TI_symbol_name("updateMask8")
     729                            .dwattr $C$DW$146, DW_AT_type(*$C$DW$T$20)
     730                            .dwattr $C$DW$146, DW_AT_location[DW_OP_breg31 160]
     731                    $C$DW$147       .dwtag  DW_TAG_variable, DW_AT_name("Im_mask")
     732                            .dwattr $C$DW$147, DW_AT_TI_symbol_name("Im_mask")
     733                            .dwattr $C$DW$147, DW_AT_type(*$C$DW$T$22)
     734                            .dwattr $C$DW$147, DW_AT_location[DW_OP_breg31 164]
     735                    $C$DW$148       .dwtag  DW_TAG_variable, DW_AT_name("Im_mask_cn")
     736                            .dwattr $C$DW$148, DW_AT_TI_symbol_name("Im_mask_cn")
     737                            .dwattr $C$DW$148, DW_AT_type(*$C$DW$T$22)
     738                            .dwattr $C$DW$148, DW_AT_location[DW_OP_breg31 168]
     739                    $C$DW$149       .dwtag  DW_TAG_variable, DW_AT_name("$O$K94")
     740                            .dwattr $C$DW$149, DW_AT_TI_symbol_name("$O$K94")
     741                            .dwattr $C$DW$149, DW_AT_type(*$C$DW$T$171)
     742                            .dwattr $C$DW$149, DW_AT_location[DW_OP_reg6]
     743                    $C$DW$150       .dwtag  DW_TAG_variable, DW_AT_name("$O$K94")
     744                            .dwattr $C$DW$150, DW_AT_TI_symbol_name("$O$K94")
     745                            .dwattr $C$DW$150, DW_AT_type(*$C$DW$T$171)
     746                            .dwattr $C$DW$150, DW_AT_location[DW_OP_reg3]
     747                    $C$DW$151       .dwtag  DW_TAG_variable, DW_AT_name("$O$K102")
     748                            .dwattr $C$DW$151, DW_AT_TI_symbol_name("$O$K102")
     749                            .dwattr $C$DW$151, DW_AT_type(*$C$DW$T$10)
     750                            .dwattr $C$DW$151, DW_AT_location[DW_OP_reg3]
     751                    $C$DW$152       .dwtag  DW_TAG_variable, DW_AT_name("$O$K102")
     752                            .dwattr $C$DW$152, DW_AT_TI_symbol_name("$O$K102")
     753                            .dwattr $C$DW$152, DW_AT_type(*$C$DW$T$10)
     754                            .dwattr $C$DW$152, DW_AT_location[DW_OP_reg3]
     755                    $C$DW$153       .dwtag  DW_TAG_variable, DW_AT_name("$O$K112")
     756                            .dwattr $C$DW$153, DW_AT_TI_symbol_name("$O$K112")
     757                            .dwattr $C$DW$153, DW_AT_type(*$C$DW$T$10)
     758                            .dwattr $C$DW$153, DW_AT_location[DW_OP_reg5]
     759                    $C$DW$154       .dwtag  DW_TAG_variable, DW_AT_name("$O$K112")
     760                            .dwattr $C$DW$154, DW_AT_TI_symbol_name("$O$K112")
     761                            .dwattr $C$DW$154, DW_AT_type(*$C$DW$T$10)
     762                            .dwattr $C$DW$154, DW_AT_location[DW_OP_regx 0x33]
     763                    $C$DW$155       .dwtag  DW_TAG_variable, DW_AT_name("$O$U159")
     764                            .dwattr $C$DW$155, DW_AT_TI_symbol_name("$O$U159")
     765                            .dwattr $C$DW$155, DW_AT_type(*$C$DW$T$147)
     766                            .dwattr $C$DW$155, DW_AT_location[DW_OP_reg12]
     767                    $C$DW$156       .dwtag  DW_TAG_variable, DW_AT_name("$O$U159")
     768                            .dwattr $C$DW$156, DW_AT_TI_symbol_name("$O$U159")
     769                            .dwattr $C$DW$156, DW_AT_type(*$C$DW$T$147)
     770                            .dwattr $C$DW$156, DW_AT_location[DW_OP_reg15]
TMS320C6x Assembler PC v7.4.2 Thu Mar 19 12:43:28 2015

Tools Copyright (c) 1996-2012 Texas Instruments Incorporated
package/lib/Regression/regress_d_c/./../packages/ti/vlib/src/VLIB_mixtureOfGaussiansS32/VLIB_mixtureOfGaussiansS32_d.se66 PAGE   15

     771                    $C$DW$157       .dwtag  DW_TAG_variable, DW_AT_name("$O$U159")
     772                            .dwattr $C$DW$157, DW_AT_TI_symbol_name("$O$U159")
     773                            .dwattr $C$DW$157, DW_AT_type(*$C$DW$T$147)
     774                            .dwattr $C$DW$157, DW_AT_location[DW_OP_reg12]
     775                    $C$DW$158       .dwtag  DW_TAG_variable, DW_AT_name("$O$U159")
     776                            .dwattr $C$DW$158, DW_AT_TI_symbol_name("$O$U159")
     777                            .dwattr $C$DW$158, DW_AT_type(*$C$DW$T$147)
     778                            .dwattr $C$DW$158, DW_AT_location[DW_OP_reg15]
     779                    $C$DW$159       .dwtag  DW_TAG_variable, DW_AT_name("$O$U152")
     780                            .dwattr $C$DW$159, DW_AT_TI_symbol_name("$O$U152")
     781                            .dwattr $C$DW$159, DW_AT_type(*$C$DW$T$136)
     782                            .dwattr $C$DW$159, DW_AT_location[DW_OP_reg15]
     783                    $C$DW$160       .dwtag  DW_TAG_variable, DW_AT_name("$O$U152")
     784                            .dwattr $C$DW$160, DW_AT_TI_symbol_name("$O$U152")
     785                            .dwattr $C$DW$160, DW_AT_type(*$C$DW$T$136)
     786                            .dwattr $C$DW$160, DW_AT_location[DW_OP_reg15]
     787                    $C$DW$161       .dwtag  DW_TAG_variable, DW_AT_name("$O$U170")
     788                            .dwattr $C$DW$161, DW_AT_TI_symbol_name("$O$U170")
     789                            .dwattr $C$DW$161, DW_AT_type(*$C$DW$T$136)
     790                            .dwattr $C$DW$161, DW_AT_location[DW_OP_breg31 172]
     791                    $C$DW$162       .dwtag  DW_TAG_variable, DW_AT_name("$O$U170")
     792                            .dwattr $C$DW$162, DW_AT_TI_symbol_name("$O$U170")
     793                            .dwattr $C$DW$162, DW_AT_type(*$C$DW$T$136)
     794                            .dwattr $C$DW$162, DW_AT_location[DW_OP_breg31 172]
     795                    $C$DW$163       .dwtag  DW_TAG_variable, DW_AT_name("$O$U178")
     796                            .dwattr $C$DW$163, DW_AT_TI_symbol_name("$O$U178")
     797                            .dwattr $C$DW$163, DW_AT_type(*$C$DW$T$114)
     798                            .dwattr $C$DW$163, DW_AT_location[DW_OP_reg26]
     799                    $C$DW$164       .dwtag  DW_TAG_variable, DW_AT_name("$O$U178")
     800                            .dwattr $C$DW$164, DW_AT_TI_symbol_name("$O$U178")
     801                            .dwattr $C$DW$164, DW_AT_type(*$C$DW$T$114)
     802                            .dwattr $C$DW$164, DW_AT_location[DW_OP_reg26]
     803                    $C$DW$165       .dwtag  DW_TAG_variable, DW_AT_name("$O$U194")
     804                            .dwattr $C$DW$165, DW_AT_TI_symbol_name("$O$U194")
     805                            .dwattr $C$DW$165, DW_AT_type(*$C$DW$T$26)
     806                            .dwattr $C$DW$165, DW_AT_location[DW_OP_reg28]
     807                    $C$DW$166       .dwtag  DW_TAG_variable, DW_AT_name("$O$U194")
     808                            .dwattr $C$DW$166, DW_AT_TI_symbol_name("$O$U194")
     809                            .dwattr $C$DW$166, DW_AT_type(*$C$DW$T$26)
     810                            .dwattr $C$DW$166, DW_AT_location[DW_OP_reg28]
     811                    $C$DW$167       .dwtag  DW_TAG_variable, DW_AT_name("$O$U186")
     812                            .dwattr $C$DW$167, DW_AT_TI_symbol_name("$O$U186")
     813                            .dwattr $C$DW$167, DW_AT_type(*$C$DW$T$10)
     814                            .dwattr $C$DW$167, DW_AT_location[DW_OP_reg26]
     815                    $C$DW$168       .dwtag  DW_TAG_variable, DW_AT_name("$O$U186")
     816                            .dwattr $C$DW$168, DW_AT_TI_symbol_name("$O$U186")
     817                            .dwattr $C$DW$168, DW_AT_type(*$C$DW$T$10)
     818                            .dwattr $C$DW$168, DW_AT_location[DW_OP_reg26]
     819                    $C$DW$169       .dwtag  DW_TAG_variable, DW_AT_name("$O$U205")
     820                            .dwattr $C$DW$169, DW_AT_TI_symbol_name("$O$U205")
     821                            .dwattr $C$DW$169, DW_AT_type(*$C$DW$T$11)
     822                            .dwattr $C$DW$169, DW_AT_location[DW_OP_reg15]
     823                    $C$DW$170       .dwtag  DW_TAG_variable, DW_AT_name("$O$U205")
     824                            .dwattr $C$DW$170, DW_AT_TI_symbol_name("$O$U205")
     825                            .dwattr $C$DW$170, DW_AT_type(*$C$DW$T$11)
TMS320C6x Assembler PC v7.4.2 Thu Mar 19 12:43:28 2015

Tools Copyright (c) 1996-2012 Texas Instruments Incorporated
package/lib/Regression/regress_d_c/./../packages/ti/vlib/src/VLIB_mixtureOfGaussiansS32/VLIB_mixtureOfGaussiansS32_d.se66 PAGE   16

     826                            .dwattr $C$DW$170, DW_AT_location[DW_OP_reg15]
     827                    $C$DW$171       .dwtag  DW_TAG_variable, DW_AT_name("i")
     828                            .dwattr $C$DW$171, DW_AT_TI_symbol_name("i")
     829                            .dwattr $C$DW$171, DW_AT_type(*$C$DW$T$23)
     830                            .dwattr $C$DW$171, DW_AT_location[DW_OP_reg29]
     831                    $C$DW$172       .dwtag  DW_TAG_variable, DW_AT_name("i")
     832                            .dwattr $C$DW$172, DW_AT_TI_symbol_name("i")
     833                            .dwattr $C$DW$172, DW_AT_type(*$C$DW$T$23)
     834                            .dwattr $C$DW$172, DW_AT_location[DW_OP_reg29]
     835                    $C$DW$173       .dwtag  DW_TAG_variable, DW_AT_name("k")
     836                            .dwattr $C$DW$173, DW_AT_TI_symbol_name("k")
     837                            .dwattr $C$DW$173, DW_AT_type(*$C$DW$T$23)
     838                            .dwattr $C$DW$173, DW_AT_location[DW_OP_reg28]
     839                    $C$DW$174       .dwtag  DW_TAG_variable, DW_AT_name("k")
     840                            .dwattr $C$DW$174, DW_AT_TI_symbol_name("k")
     841                            .dwattr $C$DW$174, DW_AT_type(*$C$DW$T$23)
     842                            .dwattr $C$DW$174, DW_AT_location[DW_OP_reg12]
     843                    $C$DW$175       .dwtag  DW_TAG_variable, DW_AT_name("k")
     844                            .dwattr $C$DW$175, DW_AT_TI_symbol_name("k")
     845                            .dwattr $C$DW$175, DW_AT_type(*$C$DW$T$23)
     846                            .dwattr $C$DW$175, DW_AT_location[DW_OP_reg12]
     847                    $C$DW$176       .dwtag  DW_TAG_variable, DW_AT_name("k")
     848                            .dwattr $C$DW$176, DW_AT_TI_symbol_name("k")
     849                            .dwattr $C$DW$176, DW_AT_type(*$C$DW$T$23)
     850                            .dwattr $C$DW$176, DW_AT_location[DW_OP_reg28]
     851                    $C$DW$177       .dwtag  DW_TAG_variable, DW_AT_name("k")
     852                            .dwattr $C$DW$177, DW_AT_TI_symbol_name("k")
     853                            .dwattr $C$DW$177, DW_AT_type(*$C$DW$T$23)
     854                            .dwattr $C$DW$177, DW_AT_location[DW_OP_reg12]
     855                    $C$DW$178       .dwtag  DW_TAG_variable, DW_AT_name("k")
     856                            .dwattr $C$DW$178, DW_AT_TI_symbol_name("k")
     857                            .dwattr $C$DW$178, DW_AT_type(*$C$DW$T$23)
     858                            .dwattr $C$DW$178, DW_AT_location[DW_OP_reg12]
     859                    $C$DW$179       .dwtag  DW_TAG_variable, DW_AT_name("counter")
     860                            .dwattr $C$DW$179, DW_AT_TI_symbol_name("counter")
     861                            .dwattr $C$DW$179, DW_AT_type(*$C$DW$T$23)
     862                            .dwattr $C$DW$179, DW_AT_location[DW_OP_reg14]
     863                    $C$DW$180       .dwtag  DW_TAG_variable, DW_AT_name("counter")
     864                            .dwattr $C$DW$180, DW_AT_TI_symbol_name("counter")
     865                            .dwattr $C$DW$180, DW_AT_type(*$C$DW$T$23)
     866                            .dwattr $C$DW$180, DW_AT_location[DW_OP_reg14]
     867                    $C$DW$181       .dwtag  DW_TAG_variable, DW_AT_name("$O$v1")
     868                            .dwattr $C$DW$181, DW_AT_TI_symbol_name("$O$v1")
     869                            .dwattr $C$DW$181, DW_AT_type(*$C$DW$T$45)
     870                            .dwattr $C$DW$181, DW_AT_location[DW_OP_reg10]
     871                    $C$DW$182       .dwtag  DW_TAG_variable, DW_AT_name("$O$v1")
     872                            .dwattr $C$DW$182, DW_AT_TI_symbol_name("$O$v1")
     873                            .dwattr $C$DW$182, DW_AT_type(*$C$DW$T$45)
     874                            .dwattr $C$DW$182, DW_AT_location[DW_OP_reg10]
     875                    $C$DW$183       .dwtag  DW_TAG_variable, DW_AT_name("$O$v2")
     876                            .dwattr $C$DW$183, DW_AT_TI_symbol_name("$O$v2")
     877                            .dwattr $C$DW$183, DW_AT_type(*$C$DW$T$172)
     878                            .dwattr $C$DW$183, DW_AT_location[DW_OP_reg22]
     879                    $C$DW$184       .dwtag  DW_TAG_variable, DW_AT_name("$O$v2")
     880                            .dwattr $C$DW$184, DW_AT_TI_symbol_name("$O$v2")
TMS320C6x Assembler PC v7.4.2 Thu Mar 19 12:43:28 2015

Tools Copyright (c) 1996-2012 Texas Instruments Incorporated
package/lib/Regression/regress_d_c/./../packages/ti/vlib/src/VLIB_mixtureOfGaussiansS32/VLIB_mixtureOfGaussiansS32_d.se66 PAGE   17

     881                            .dwattr $C$DW$184, DW_AT_type(*$C$DW$T$172)
     882                            .dwattr $C$DW$184, DW_AT_location[DW_OP_reg20]
     883                    $C$DW$185       .dwtag  DW_TAG_variable, DW_AT_name("mode")
     884                            .dwattr $C$DW$185, DW_AT_TI_symbol_name("mode")
     885                            .dwattr $C$DW$185, DW_AT_type(*$C$DW$T$106)
     886                            .dwattr $C$DW$185, DW_AT_location[DW_OP_breg31 120]
     887 00000014 0200002a!            MVKL    .S2     test_cases,B4
     888 00000018 0200006a!            MVKH    .S2     test_cases,B4
     889                    $C$DW$186       .dwtag  DW_TAG_TI_branch
     890                            .dwattr $C$DW$186, DW_AT_low_pc(0x00)
     891                            .dwattr $C$DW$186, DW_AT_name("mixtureOfGaussiansS32_getTestParams")
     892                            .dwattr $C$DW$186, DW_AT_TI_call
     893                    
     894 00000020 10000013!            CALLP   .S2     mixtureOfGaussiansS32_getTestParams,B3
     895 00000024 020022fd  ||         STW     .D2T1   A4,*+SP(136)      ; |39| 
     896 00000028 12001dfc  ||         ADDAW   .D1X    SP,29,A4          ; |45| 
     897                    
     898                            .dwpsn  file "./../packages/ti/vlib/src/VLIB_mixtureOfGaussiansS32/VLIB_mixtureOfGaussiansS32_
     899                    ;----------------------------------------------------------------------
     900                    ;  45 | mixtureOfGaussiansS32_getTestParams(&prm, &test_cases);                
     901                    ;----------------------------------------------------------------------
     902 0000002c           $C$RL0:    ; CALL OCCURS {mixtureOfGaussiansS32_getTestParams} {0}  ; |45| 
     903                    ;** --------------------------------------------------------------------------*
     904                    ;          EXCLUSIVE CPU CYCLES: 8
     905 0000002c 0200002a!            MVKL    .S2     $C$SL1+0,B4
     906 00000030 0200006a!            MVKH    .S2     $C$SL1+0,B4
     907                    $C$DW$187       .dwtag  DW_TAG_TI_branch
     908                            .dwattr $C$DW$187, DW_AT_low_pc(0x00)
     909                            .dwattr $C$DW$187, DW_AT_name("VLIB_profile_init")
     910                            .dwattr $C$DW$187, DW_AT_TI_call
     911                    
     912 00000034 10000013!            CALLP   .S2     VLIB_profile_init,B3
     913 00000038 020ca358  ||         MVK     .L1     0x3,A4            ; |48| 
     914                    
     915                            .dwpsn  file "./../packages/ti/vlib/src/VLIB_mixtureOfGaussiansS32/VLIB_mixtureOfGaussiansS32_
     916                    ;----------------------------------------------------------------------
     917                    ;  48 | VLIB_profile_init(3, "VLIB_mixtureOfGaussiansS32");                    
     918                    ;----------------------------------------------------------------------
     919 0000003c           $C$RL1:    ; CALL OCCURS {VLIB_profile_init} {0}  ; |48| 
     920                    ;** --------------------------------------------------------------------------*
     921                    ;          EXCLUSIVE CPU CYCLES: 14
     922 0000003c 01800028!            MVKL    .S1     test_cases,A3
     923 00000040 01800068!            MVKH    .S1     test_cases,A3
     924                            .dwpsn  file "./../packages/ti/vlib/src/VLIB_mixtureOfGaussiansS32/VLIB_mixtureOfGaussiansS32_
     925                    ;----------------------------------------------------------------------
     926                    ;  51 | for( tpi=0; tpi < test_cases; tpi++ ) {                                
     927                    ;  54 |     int32_t    status_nat_vs_int = vlib_KERNEL_PASS; /* Test status : N
     928                    ;     | atural c vs. Optimized */                                              
     929                    ;  55 |     int32_t    status_nat_vs_ref = vlib_KERNEL_PASS; /* Test status : N
     930                    ;     | atural c vs. Static Reference */                                       
     931                    ;  58 |     uint32_t    inp_size     =   prm[tpi].im_size * prm[tpi].num_images
     932                    ;     | ; // Allocate all frames into a single buffer for this test            
     933                    ;----------------------------------------------------------------------
     934 00000044 018c0264             LDW     .D1T1   *A3,A3            ; |51| 
     935 00000048 05bfa2e6             LDW     .D2T2   *+SP(116),B11
TMS320C6x Assembler PC v7.4.2 Thu Mar 19 12:43:28 2015

Tools Copyright (c) 1996-2012 Texas Instruments Incorporated
package/lib/Regression/regress_d_c/./../packages/ti/vlib/src/VLIB_mixtureOfGaussiansS32/VLIB_mixtureOfGaussiansS32_d.se66 PAGE   18

     936 0000004c 0680a358             ZERO    .L1     A13
     937 00000050 00002000             NOP             2
     938                    
     939 00000054 000c0ad9             CMPGT   .L1     A3,0,A0           ; |51| 
     940 00000058 01800028  ||         ZERO    .S1     A3
     941                    
     942 0000005c d4192121     [!A0]   BNOP    .S1     $C$L36,1          ; |51| 
     943 00000060 018020fc  ||         STW     .D2T1   A3,*+SP(128)
     944                    
     945                            .dwpsn  file "./../packages/ti/vlib/src/VLIB_mixtureOfGaussiansS32/VLIB_mixtureOfGaussiansS32_
     946                    ;----------------------------------------------------------------------
     947                    ;  61 | uint8_t    *Im          =  (uint8_t *) VLIB_malloc(inp_size*sizeof(uint
     948                    ;     | 8_t));                                                                 
     949                    ;----------------------------------------------------------------------
     950 00000064 c1ac82e4     [ A0]   LDW     .D2T1   *+B11(16),A3      ; |61| 
     951 00000068 c22c62e6     [ A0]   LDW     .D2T2   *+B11(12),B4      ; |61| 
     952 0000006c 00002000             NOP             2
     953                            .dwpsn  file "./../packages/ti/vlib/src/VLIB_mixtureOfGaussiansS32/VLIB_mixtureOfGaussiansS32_
     954                               ; BRANCHCC OCCURS {$C$L36}        ; |51| 
     955                    ;** --------------------------------------------------------------------------*
     956                    ;**     -----------------------    K$59 = &testPatternString[0];
     957                    ;**     -----------------------    K$65 = 255;
     958                    ;**     -----------------------    K$232 = &desc[0];
     959                    ;**     -----------------------    U$13 = prm;
     960                    ;**     -----------------------    K$36 = 0xfffffffcu;
     961                    ;**     -----------------------    U$12 = 0;
     962                    ;** 51  -----------------------    tpi = 0;
     963                    ;**     -----------------------    #pragma LOOP_FLAGS(5120u)
     964                    ;** --------------------------------------------------------------------------*
     965                    ;**   BEGIN LOOP $C$L1
     966                    ;** --------------------------------------------------------------------------*
     967 00000070           $C$L1:    
     968                            .dwpsn  file "./../packages/ti/vlib/src/VLIB_mixtureOfGaussiansS32/VLIB_mixtureOfGaussiansS32_
     969 00000070           $C$DW$L$VLIB_mixtureOfGaussiansS32_d$5$B:
     970                    ;          EXCLUSIVE CPU CYCLES: 6
     971                    ;**     -----------------------g3:
     972                    ;** 61  -----------------------    Im = VLIB_malloc((unsigned)((*U$13).im_size*(*U$13).num_images));
     973                    ;** 62  -----------------------    wt = VLIB_malloc((*U$13).im_size*6u);
     974                    ;** 63  -----------------------    mu = VLIB_malloc((*U$13).im_size*12u);
     975                    ;** 64  -----------------------    var = VLIB_malloc((*U$13).im_size*12u);
     976                    ;** 65  -----------------------    compNum = VLIB_malloc((unsigned)(*U$13).im_size);
     977                    ;** 66  -----------------------    updateMask8 = VLIB_malloc((unsigned)(*U$13).im_size);
     978                    ;** 67  -----------------------    C$11 = (*U$13).im_size;
     979                    ;** 67  -----------------------    Im_mask = VLIB_malloc((C$11>>4>>27)+C$11>>3&K$36);
     980                    ;** 68  -----------------------    C$10 = (*U$13).im_size;
     981                    ;** 68  -----------------------    Im_mask_cn = malloc((C$10>>4>>27)+C$10>>3&K$36);
     982                    ;** 71  -----------------------    if ( !((Im != NULL)&(wt != NULL)&(mu != NULL)&(var != NULL)&(compNu
     983                            .dwpsn  file "./../packages/ti/vlib/src/VLIB_mixtureOfGaussiansS32/VLIB_mixtureOfGaussiansS32_
     984                    $C$DW$188       .dwtag  DW_TAG_TI_branch
     985                            .dwattr $C$DW$188, DW_AT_low_pc(0x00)
     986                            .dwattr $C$DW$188, DW_AT_name("VLIB_malloc")
     987                            .dwattr $C$DW$188, DW_AT_TI_call
     988 00000070 00000010!            CALL    .S1     VLIB_malloc       ; |61| 
     989 00000074 01880162             ADDKPC  .S2     $C$RL2,B3,0       ; |61| 
     990 00000078 02107800             MPY32   .M1X    A3,B4,A4          ; |61| 
TMS320C6x Assembler PC v7.4.2 Thu Mar 19 12:43:28 2015

Tools Copyright (c) 1996-2012 Texas Instruments Incorporated
package/lib/Regression/regress_d_c/./../packages/ti/vlib/src/VLIB_mixtureOfGaussiansS32/VLIB_mixtureOfGaussiansS32_d.se66 PAGE   19

     991 0000007c 00004000             NOP             3
     992 00000080           $C$RL2:    ; CALL OCCURS {VLIB_malloc} {0}   ; |61| 
     993 00000080           $C$DW$L$VLIB_mixtureOfGaussiansS32_d$5$E:
     994                    ;** --------------------------------------------------------------------------*
     995 00000080           $C$DW$L$VLIB_mixtureOfGaussiansS32_d$6$B:
     996                    ;          EXCLUSIVE CPU CYCLES: 87
     997                            .dwpsn  file "./../packages/ti/vlib/src/VLIB_mixtureOfGaussiansS32/VLIB_mixtureOfGaussiansS32_
     998                    ;----------------------------------------------------------------------
     999                    ;  62 | int16_t    *wt          =  (int16_t *) VLIB_malloc(prm[tpi].im_size * 3
    1000                    ;     |  * sizeof(int16_t));                                                   
    1001                    ;----------------------------------------------------------------------
    1002 00000080 022c62e6             LDW     .D2T2   *+B11(12),B4      ; |62| 
    1003                            .dwpsn  file "./../packages/ti/vlib/src/VLIB_mixtureOfGaussiansS32/VLIB_mixtureOfGaussiansS32_
    1004 00000084 020023fc             STW     .D2T1   A4,*+SP(140)      ; |61| 
    1005 00000088     4c6e             NOP             3
    1006                            .dwpsn  file "./../packages/ti/vlib/src/VLIB_mixtureOfGaussiansS32/VLIB_mixtureOfGaussiansS32_
    1007 0000008a     465b             SHL     .S2     B4,2,B5           ; |62| 
    1008 0000008c 02149a42             ADDAH   .D2     B5,B4,B4          ; |62| 
    1009 00000090     0c6e             NOP             1
    1010                    $C$DW$189       .dwtag  DW_TAG_TI_branch
    1011                            .dwattr $C$DW$189, DW_AT_low_pc(0x04)
    1012                            .dwattr $C$DW$189, DW_AT_name("VLIB_malloc")
    1013                            .dwattr $C$DW$189, DW_AT_TI_call
    1014                    
    1015 00000092     9246             MV      .L1X    B4,A4             ; |62| 
    1016 00000094 10000012! ||         CALLP   .S2     VLIB_malloc,B3
    1017                    
    1018 00000098           $C$RL3:    ; CALL OCCURS {VLIB_malloc} {0}   ; |62| 
    1019                            .dwpsn  file "./../packages/ti/vlib/src/VLIB_mixtureOfGaussiansS32/VLIB_mixtureOfGaussiansS32_
    1020                    ;----------------------------------------------------------------------
    1021                    ;  63 | int32_t    *mu          =  (int32_t *) VLIB_malloc(prm[tpi].im_size * 3
    1022                    ;     |  * sizeof(int32_t));                                                   
    1023                    ;----------------------------------------------------------------------
    1024 00000098 022c62e6             LDW     .D2T2   *+B11(12),B4      ; |63| 
    1025                            .dwpsn  file "./../packages/ti/vlib/src/VLIB_mixtureOfGaussiansS32/VLIB_mixtureOfGaussiansS32_
    1026 000000a0 020024fc             STW     .D2T1   A4,*+SP(144)      ; |62| 
    1027 000000a4     4c6e             NOP             3
    1028                            .dwpsn  file "./../packages/ti/vlib/src/VLIB_mixtureOfGaussiansS32/VLIB_mixtureOfGaussiansS32_
    1029 000000a6     665b             SHL     .S2     B4,3,B5           ; |63| 
    1030 000000a8 02149c42             ADDAW   .D2     B5,B4,B4          ; |63| 
    1031 000000ac     0c6e             NOP             1
    1032                    $C$DW$190       .dwtag  DW_TAG_TI_branch
    1033                            .dwattr $C$DW$190, DW_AT_low_pc(0x04)
    1034                            .dwattr $C$DW$190, DW_AT_name("VLIB_malloc")
    1035                            .dwattr $C$DW$190, DW_AT_TI_call
    1036                    
    1037 000000ae     9246             MV      .L1X    B4,A4             ; |63| 
    1038 000000b0 10000012! ||         CALLP   .S2     VLIB_malloc,B3
    1039                    
    1040 000000b4           $C$RL4:    ; CALL OCCURS {VLIB_malloc} {0}   ; |63| 
    1041                            .dwpsn  file "./../packages/ti/vlib/src/VLIB_mixtureOfGaussiansS32/VLIB_mixtureOfGaussiansS32_
    1042                    ;----------------------------------------------------------------------
    1043                    ;  64 | int32_t    *var         =  (int32_t *) VLIB_malloc(prm[tpi].im_size * 3
    1044                    ;     |  * sizeof(int32_t));                                                   
    1045                    ;----------------------------------------------------------------------
TMS320C6x Assembler PC v7.4.2 Thu Mar 19 12:43:28 2015

Tools Copyright (c) 1996-2012 Texas Instruments Incorporated
package/lib/Regression/regress_d_c/./../packages/ti/vlib/src/VLIB_mixtureOfGaussiansS32/VLIB_mixtureOfGaussiansS32_d.se66 PAGE   20

    1046 000000b4 022c62e6             LDW     .D2T2   *+B11(12),B4      ; |64| 
    1047                            .dwpsn  file "./../packages/ti/vlib/src/VLIB_mixtureOfGaussiansS32/VLIB_mixtureOfGaussiansS32_
    1048 000000b8 020025fc             STW     .D2T1   A4,*+SP(148)      ; |63| 
    1049 000000c0     4c6e             NOP             3
    1050                            .dwpsn  file "./../packages/ti/vlib/src/VLIB_mixtureOfGaussiansS32/VLIB_mixtureOfGaussiansS32_
    1051 000000c2     665b             SHL     .S2     B4,3,B5           ; |64| 
    1052 000000c4 02149c42             ADDAW   .D2     B5,B4,B4          ; |64| 
    1053 000000c8     0c6e             NOP             1
    1054                    $C$DW$191       .dwtag  DW_TAG_TI_branch
    1055                            .dwattr $C$DW$191, DW_AT_low_pc(0x04)
    1056                            .dwattr $C$DW$191, DW_AT_name("VLIB_malloc")
    1057                            .dwattr $C$DW$191, DW_AT_TI_call
    1058                    
    1059 000000ca     9246             MV      .L1X    B4,A4             ; |64| 
    1060 000000cc 10000012! ||         CALLP   .S2     VLIB_malloc,B3
    1061                    
    1062 000000d0           $C$RL5:    ; CALL OCCURS {VLIB_malloc} {0}   ; |64| 
    1063 000000d0 020026fc             STW     .D2T1   A4,*+SP(152)      ; |64| 
    1064                    $C$DW$192       .dwtag  DW_TAG_TI_branch
    1065                            .dwattr $C$DW$192, DW_AT_low_pc(0x00)
    1066                            .dwattr $C$DW$192, DW_AT_name("VLIB_malloc")
    1067                            .dwattr $C$DW$192, DW_AT_TI_call
    1068                    
    1069 000000d4 10000013!            CALLP   .S2     VLIB_malloc,B3
    1070 000000d8 022c62e4  ||         LDW     .D2T1   *+B11(12),A4      ; |65| 
    1071                    
    1072                            .dwpsn  file "./../packages/ti/vlib/src/VLIB_mixtureOfGaussiansS32/VLIB_mixtureOfGaussiansS32_
    1073                    ;----------------------------------------------------------------------
    1074                    ;  65 | uint8_t    *compNum     =  (uint8_t *) VLIB_malloc(prm[tpi].im_size * s
    1075                    ;     | izeof(uint8_t));                                                       
    1076                    ;----------------------------------------------------------------------
    1077 000000e0           $C$RL6:    ; CALL OCCURS {VLIB_malloc} {0}   ; |65| 
    1078 000000e0 020027fc             STW     .D2T1   A4,*+SP(156)      ; |65| 
    1079                    $C$DW$193       .dwtag  DW_TAG_TI_branch
    1080                            .dwattr $C$DW$193, DW_AT_low_pc(0x00)
    1081                            .dwattr $C$DW$193, DW_AT_name("VLIB_malloc")
    1082                            .dwattr $C$DW$193, DW_AT_TI_call
    1083                    
    1084 000000e4 10000013!            CALLP   .S2     VLIB_malloc,B3
    1085 000000e8 022c62e4  ||         LDW     .D2T1   *+B11(12),A4      ; |66| 
    1086                    
    1087                            .dwpsn  file "./../packages/ti/vlib/src/VLIB_mixtureOfGaussiansS32/VLIB_mixtureOfGaussiansS32_
    1088                    ;----------------------------------------------------------------------
    1089                    ;  66 | uint8_t    *updateMask8 =  (uint8_t *) VLIB_malloc(prm[tpi].im_size * s
    1090                    ;     | izeof(uint8_t));                                                       
    1091                    ;----------------------------------------------------------------------
    1092 000000ec           $C$RL7:    ; CALL OCCURS {VLIB_malloc} {0}   ; |66| 
    1093                            .dwpsn  file "./../packages/ti/vlib/src/VLIB_mixtureOfGaussiansS32/VLIB_mixtureOfGaussiansS32_
    1094                    ;----------------------------------------------------------------------
    1095                    ;  67 | uint32_t   *Im_mask     =  (uint32_t *) VLIB_malloc(prm[tpi].im_size /
    1096                    ;     | 32 * sizeof(uint32_t));                                                
    1097                    ;----------------------------------------------------------------------
    1098 000000ec 022c62e6             LDW     .D2T2   *+B11(12),B4      ; |67| 
    1099                            .dwpsn  file "./../packages/ti/vlib/src/VLIB_mixtureOfGaussiansS32/VLIB_mixtureOfGaussiansS32_
    1100 000000f0 020028fc             STW     .D2T1   A4,*+SP(160)      ; |66| 
TMS320C6x Assembler PC v7.4.2 Thu Mar 19 12:43:28 2015

Tools Copyright (c) 1996-2012 Texas Instruments Incorporated
package/lib/Regression/regress_d_c/./../packages/ti/vlib/src/VLIB_mixtureOfGaussiansS32/VLIB_mixtureOfGaussiansS32_d.se66 PAGE   21

    1101 000000f4     9e26             MVK     .L1     0xfffffffc,A4
    1102 000000f6     2c6e             NOP             2
    1103                            .dwpsn  file "./../packages/ti/vlib/src/VLIB_mixtureOfGaussiansS32/VLIB_mixtureOfGaussiansS32_
    1104 000000f8     9e3a             SHR     .S1X    B4,4,A3           ; |67| 
    1105 000000fa     7dc2             SHRU    .S1     A3,27,A3          ; |67| 
    1106 00000100     7230             ADD     .L1X    B4,A3,A3          ; |67| 
    1107 00000102     65a2             SHR     .S1     A3,3,A3           ; |67| 
    1108                    $C$DW$194       .dwtag  DW_TAG_TI_branch
    1109                            .dwattr $C$DW$194, DW_AT_low_pc(0x00)
    1110                            .dwattr $C$DW$194, DW_AT_name("VLIB_malloc")
    1111                            .dwattr $C$DW$194, DW_AT_TI_call
    1112                    
    1113 00000104 10000013!            CALLP   .S2     VLIB_malloc,B3
    1114 00000108 020c8f78  ||         AND     .L1     A4,A3,A4          ; |67| 
    1115                    
    1116 0000010c           $C$RL8:    ; CALL OCCURS {VLIB_malloc} {0}   ; |67| 
    1117                            .dwpsn  file "./../packages/ti/vlib/src/VLIB_mixtureOfGaussiansS32/VLIB_mixtureOfGaussiansS32_
    1118                    ;----------------------------------------------------------------------
    1119                    ;  68 | uint32_t   *Im_mask_cn  =  (uint32_t *) malloc(prm[tpi].im_size / 32 *
    1120                    ;     | sizeof(uint32_t));                                                     
    1121                    ;----------------------------------------------------------------------
    1122 0000010c 022c62e6             LDW     .D2T2   *+B11(12),B4      ; |68| 
    1123 00000110 01f0a358             MVK     .L1     0xfffffffc,A3
    1124                            .dwpsn  file "./../packages/ti/vlib/src/VLIB_mixtureOfGaussiansS32/VLIB_mixtureOfGaussiansS32_
    1125 00000114 020029fc             STW     .D2T1   A4,*+SP(164)      ; |67| 
    1126 00000118     2c6e             NOP             2
    1127                            .dwpsn  file "./../packages/ti/vlib/src/VLIB_mixtureOfGaussiansS32/VLIB_mixtureOfGaussiansS32_
    1128 0000011a     8e5b             SHR     .S2     B4,4,B5           ; |68| 
    1129 00000120     7ec3             SHRU    .S2     B5,27,B5          ; |68| 
    1130 00000122     82c1             ADD     .L2     B4,B5,B4          ; |68| 
    1131 00000124     6623             SHR     .S2     B4,3,B4           ; |68| 
    1132 00000126     0c6e             NOP             1
    1133                    $C$DW$195       .dwtag  DW_TAG_TI_branch
    1134                            .dwattr $C$DW$195, DW_AT_low_pc(0x04)
    1135                            .dwattr $C$DW$195, DW_AT_name("malloc")
    1136                            .dwattr $C$DW$195, DW_AT_TI_call
    1137                    
    1138 00000128 02107f79             AND     .L1X    A3,B4,A4          ; |68| 
    1139 0000012c 10000012! ||         CALLP   .S2     malloc,B3
    1140                    
    1141 00000130           $C$RL9:    ; CALL OCCURS {malloc} {0}        ; |68| 
    1142 00000130           $C$DW$L$VLIB_mixtureOfGaussiansS32_d$6$E:
    1143                    ;** --------------------------------------------------------------------------*
    1144 00000130           $C$DW$L$VLIB_mixtureOfGaussiansS32_d$7$B:
    1145                    ;          EXCLUSIVE CPU CYCLES: 22
    1146                    
    1147 00000130 000023ed             LDW     .D2T1   *+SP(140),A0      ; |71| 
    1148 00000134     05a6  ||         ZERO    .L1     A3                ; |71| 
    1149 00000136     06a7  ||         ZERO    .L2     B5                ; |71| 
    1150 00000138 0200002a  ||         ZERO    .S2     B4                ; |71| 
    1151                    
    1152                            .dwpsn  file "./../packages/ti/vlib/src/VLIB_mixtureOfGaussiansS32/VLIB_mixtureOfGaussiansS32_
    1153                    ;----------------------------------------------------------------------
    1154                    ;  71 | if( Im && wt && mu && var && compNum && updateMask8 && Im_mask && Im_ma
    1155                    ;     | sk_cn) {                                                               
TMS320C6x Assembler PC v7.4.2 Thu Mar 19 12:43:28 2015

Tools Copyright (c) 1996-2012 Texas Instruments Incorporated
package/lib/Regression/regress_d_c/./../packages/ti/vlib/src/VLIB_mixtureOfGaussiansS32/VLIB_mixtureOfGaussiansS32_d.se66 PAGE   22

    1156                    ;  73 |     int32_t    fail, i, k, counter;                                    
    1157                    ;  74 |     int8_t     mode[3];                                                
    1158                    ;----------------------------------------------------------------------
    1159 00000140 000024ee             LDW     .D2T2   *+SP(144),B0      ; |71| 
    1160 00000144 008025ec             LDW     .D2T1   *+SP(148),A1      ; |71| 
    1161 00000148 010026ec             LDW     .D2T1   *+SP(152),A2      ; |71| 
    1162 0000014c 010027ee             LDW     .D2T2   *+SP(156),B2      ; |71| 
    1163                    
    1164 00000150 02002afd             STW     .D2T1   A4,*+SP(168)      ; |68| 
    1165 00000154     0626  ||         ZERO    .L1     A4                ; |71| 
    1166                    
    1167 00000156     2a66     [ A0]   MVK     .L1     0x1,A4            ; |71| 
    1168 00000158 000028ed  ||         LDW     .D2T1   *+SP(160),A0      ; |71| 
    1169 00000160     a9ee  || [ B0]   MVK     .S1     0x1,A3            ; |71| 
    1170                    
    1171 00000164 02106f79             AND     .L1     A3,A4,A4          ; |71| 
    1172 00000162     0192  ||         ZERO    .S1     A3                ; |71| 
    1173 00000168 8284a35b  || [ A1]   MVK     .L2     0x1,B5            ; |71| 
    1174 0000016c 00802aec  ||         LDW     .D2T1   *+SP(168),A1      ; |71| 
    1175                    
    1176 00000170 a184a359     [ A2]   MVK     .L1     0x1,A3            ; |71| 
    1177 00000174 010029ec  ||         LDW     .D2T1   *+SP(164),A2      ; |71| 
    1178                    
    1179 00000178 02149f79             AND     .L1X    B5,A4,A4          ; |71| 
    1180 00000180 6204a35b  || [ B2]   MVK     .L2     0x1,B4            ; |71| 
    1181 00000184     0293  ||         ZERO    .S2     B5                ; |71| 
    1182                    
    1183 00000188 02106f78             AND     .L1     A3,A4,A4          ; |71| 
    1184 00000186     0192  ||         ZERO    .S1     A3                ; |71| 
    1185                    
    1186 0000018c     29e6     [ A0]   MVK     .L1     0x1,A3            ; |71| 
    1187 00000190 021097e0  ||         AND     .S1X    B4,A4,A4          ; |71| 
    1188 0000018e     0627  ||         ZERO    .L2     B4                ; |71| 
    1189                    
    1190 00000194 01906f79             AND     .L1     A3,A4,A3          ; |71| 
    1191 00000198 8204a35a  || [ A1]   MVK     .L2     0x1,B4            ; |71| 
    1192                    
    1193 000001a0 a284a35a     [ A2]   MVK     .L2     0x1,B5            ; |71| 
    1194 000001a4 028cbf7a             AND     .L2X    B5,A3,B5          ; |71| 
    1195 000001a8 00148f7a             AND     .L2     B4,B5,B0          ; |71| 
    1196                    
    1197 000001ac 21807fa9     [ B0]   MVK     .S1     0xff,A3
    1198 000001b0 3001ca13  || [!B0]   B       .S2     $C$L34            ; |71| 
    1199 000001b4 22acc286  || [ B0]   LDHU    .D2T2   *+B11(12),B5      ; |77| 
    1200                    
    1201 000001b8 218f1809     [ B0]   EXTU    .S1     A3,24,24,A3       ; |77| 
    1202 000001bc 222c0294  || [ B0]   LDBU    .D2T1   *B11,A4           ; |77| 
    1203                    
    1204 000001c0 26000029!    [ B0]   MVKL    .S1     testPatternString,A12
    1205 000001c4 242d0286  || [ B0]   LDHU    .D2T2   *+B11(16),B8      ; |77| 
    1206                    
    1207                    $C$DW$196       .dwtag  DW_TAG_TI_branch
    1208                            .dwattr $C$DW$196, DW_AT_low_pc(0x00)
    1209                            .dwattr $C$DW$196, DW_AT_name("VLIB_fillBuffer")
    1210                            .dwattr $C$DW$196, DW_AT_TI_call
TMS320C6x Assembler PC v7.4.2 Thu Mar 19 12:43:28 2015

Tools Copyright (c) 1996-2012 Texas Instruments Incorporated
package/lib/Regression/regress_d_c/./../packages/ti/vlib/src/VLIB_mixtureOfGaussiansS32/VLIB_mixtureOfGaussiansS32_d.se66 PAGE   23

    1211                    
    1212 000001c8 20000011!    [ B0]   CALL    .S1     VLIB_fillBuffer   ; |77| 
    1213 000001cc 232c22e6  || [ B0]   LDW     .D2T2   *+B11(4),B6       ; |77| 
    1214                    
    1215                            .dwpsn  file "./../packages/ti/vlib/src/VLIB_mixtureOfGaussiansS32/VLIB_mixtureOfGaussiansS32_
    1216                    ;----------------------------------------------------------------------
    1217                    ;  77 | VLIB_fillBuffer(prm[tpi].testPattern,                                  
    1218                    ;  78 |                 (uint8_t)255,                                          
    1219                    ;  79 |                 Im, prm[tpi].staticIn,                                 
    1220                    ;  80 |                 prm[tpi].im_size, prm[tpi].num_images, prm[tpi].im_size
    1221                    ;     | *sizeof(uint8_t),                                                      
    1222                    ;  81 |                 sizeof(uint8_t), testPatternString);                   
    1223                    ;  88 | memset(wt, 0, prm[tpi].im_size * 3 * sizeof(int16_t));                 
    1224                    ;  89 | memset(mu, 0, prm[tpi].im_size * 3 * sizeof(int32_t));                 
    1225                    ;  90 | memset(var, 0, prm[tpi].im_size * 3 * sizeof(int32_t));                
    1226                    ;  91 | counter = 0;                                                           
    1227                    ;  93 | if( LevelOfFeedback > 0 ) {                                            
    1228                    ;  95 |     printf("Luma  FG    Mean-1   Varn-1   Wght-1        Mean-2   Varn-2
    1229                    ;     |    Wght-2       Mean-3   Varn-3   Wght-3\n");                          
    1230                    ;  96 |     printf("-----------------------------------------------------------
    1231                    ;     | ------------------------------------------\n");                        
    1232                    ; 100 | for( i=0; i < prm[tpi].num_images; i++ ) {                             
    1233                    ; 103 |     VLIB_profile_start(vlib_KERNEL_OPT);                               
    1234                    ; 104 |     VLIB_mixtureOfGaussiansS32(&Im[i*prm[tpi].im_size],                
    1235                    ; 105 |                                wt, mu, var, compNum, updateMask8, Im_ma
    1236                    ;     | sk,                                                                    
    1237                    ; 106 |                                prm[tpi].im_size,                       
    1238                    ; 107 |                                prm[tpi].alpha,  prm[tpi].rho,          
    1239                    ; 108 |                                prm[tpi].delta,  prm[tpi].T,            
    1240                    ; 109 |                                prm[tpi].ini_wt, prm[tpi].ini_var);     
    1241                    ; 110 |     VLIB_profile_stop();                                               
    1242                    ; 113 |     mode[0] = ' ';                                                     
    1243                    ; 114 |     mode[1] = ' ';                                                     
    1244                    ; 115 |     mode[2] = ' ';                                                     
    1245                    ; 116 |     mode[compNum[0]] = '*';                                            
    1246                    ; 118 |     if( LevelOfFeedback > 0 ) {                                        
    1247                    ; 119 |         printf("%4d  %d  %c %8.4f %8.4f %8.6f   %c %8.4f %8.4f %8.6f
    1248                    ;     | %c %8.4f %8.4f %8.6f\n", Im[i*prm[tpi].im_size], (Im_mask[0] & 0x800000
    1249                    ;     | 00) >> 31,                                                             
    1250                    ; 120 |                mode[0], VLIB_getFractional32(mu[0], 15, 1), VLIB_getFra
    1251                    ;     | ctional16(var[0], 3, 1), VLIB_getFractional16(wt[0], 15, 1),           
    1252                    ; 121 |                mode[1], VLIB_getFractional32(mu[0 + (prm[tpi].im_size)]
    1253                    ;     | , 23, 1), VLIB_getFractional32(var[0 + (prm[tpi].im_size)], 15, 1), VLI
    1254                    ;     | B_getFractional16(wt[0 + (prm[tpi].im_size)], 15, 1),                  
    1255                    ; 122 |                mode[2], VLIB_getFractional32(mu[0 + 2 * (prm[tpi].im_si
    1256                    ;     | ze)], 23, 1), VLIB_getFractional16(var[0 + 2 * (prm[tpi].im_size)], 15,
    1257                    ;     |  1), VLIB_getFractional16(wt[0 + 2 * (prm[tpi].im_size)], 15, 1));     
    1258                    ; 126 |     if( prm[tpi].staticOut != NULL ) {                                 
    1259                    ; 129 |         for( k=0; k < 3 * prm[tpi].im_size; k++ ) {                    
    1260                    ; 130 |             if( mu[k] != prm[tpi].staticOut[counter++] ) {             
    1261                    ; 131 |                 printf("\tError in Mean: Image %d, Pixel %d, Mode %d\n"
    1262                    ;     | , i, k % 32, k / 32);                                                  
    1263                    ; 132 |                 status_nat_vs_ref = vlib_KERNEL_FAIL;                  
    1264                    ; 134 |             if( var[k] != prm[tpi].staticOut[counter++] ) {            
    1265                    ; 135 |                 printf("\tError in Variance: Image %d, Pixel %d, Mode %
TMS320C6x Assembler PC v7.4.2 Thu Mar 19 12:43:28 2015

Tools Copyright (c) 1996-2012 Texas Instruments Incorporated
package/lib/Regression/regress_d_c/./../packages/ti/vlib/src/VLIB_mixtureOfGaussiansS32/VLIB_mixtureOfGaussiansS32_d.se66 PAGE   24

    1266                    ;     | d\n", i, k % 32, k / 32);                                              
    1267                    ; 136 |                 status_nat_vs_ref = vlib_KERNEL_FAIL;                  
    1268                    ; 138 |             if( wt[k] != prm[tpi].staticOut[counter++] ) {             
    1269                    ; 139 |                 printf("\tError in Weight: Image %d, Pixel %d, Mode %d\
    1270                    ;     | n", i, k % 32, k / 32);                                                
    1271                    ; 140 |                 status_nat_vs_ref = vlib_KERNEL_FAIL;                  
    1272                    ; 144 |         for( k=0; k < prm[tpi].im_size; k++ ) {                        
    1273                    ; 145 |             if( compNum[k] != prm[tpi].staticOut[counter++] ) {        
    1274                    ; 146 |                 printf("\tError in Component index: Image %d, Pixel %d\
    1275                    ;     | n", i, k % 32);                                                        
    1276                    ; 147 |                 status_nat_vs_ref = vlib_KERNEL_FAIL;                  
    1277                    ; 151 |         for( k=0; k < prm[tpi].im_size; k++ ) {                        
    1278                    ; 152 |             if(((Im_mask[0] >> k) & 0x00000001) != ((prm[tpi].staticOut
    1279                    ;     | [counter] >> k) & 0x00000001)) {                                       
    1280                    ; 153 |                 printf("\tError in Foreground Mask: Image %d, Pixel %d\
    1281                    ;     | n", i, k);                                                             
    1282                    ; 154 |                 status_nat_vs_ref = vlib_KERNEL_FAIL;                  
    1283                    ; 158 |         counter++;                                                     
    1284                    ; 167 | memset(wt, 0, prm[tpi].im_size * 3 * sizeof(int16_t));                 
    1285                    ; 168 | memset(mu, 0, prm[tpi].im_size * 3 * sizeof(int32_t));                 
    1286                    ; 169 | memset(var, 0, prm[tpi].im_size * 3 * sizeof(int32_t));                
    1287                    ; 170 | counter = 0;                                                           
    1288                    ; 172 | if( LevelOfFeedback > 0 ) {                                            
    1289                    ; 174 |     printf("Luma  FG    Mean-1   Varn-1   Wght-1        Mean-2   Varn-2
    1290                    ;     |    Wght-2       Mean-3   Varn-3   Wght-3\n");                          
    1291                    ; 175 |     printf("-----------------------------------------------------------
    1292                    ;     | ------------------------------------------\n");                        
    1293                    ; 179 | for( i=0; i < prm[tpi].num_images; i++ ) {                             
    1294                    ; 182 |     VLIB_profile_start(vlib_KERNEL_CN);                                
    1295                    ; 183 |     VLIB_mixtureOfGaussiansS32_cn(&Im[i*prm[tpi].im_size],             
    1296                    ; 184 |                                wt, mu, var, compNum, updateMask8, Im_ma
    1297                    ;     | sk_cn,                                                                 
    1298                    ; 185 |                                prm[tpi].im_size,                       
    1299                    ; 186 |                                prm[tpi].alpha,  prm[tpi].rho,          
    1300                    ; 187 |                                prm[tpi].delta,  prm[tpi].T,            
    1301                    ; 188 |                                prm[tpi].ini_wt, prm[tpi].ini_var);     
    1302                    ; 189 |     VLIB_profile_stop();                                               
    1303                    ; 192 |     mode[0] = ' ';                                                     
    1304                    ; 193 |     mode[1] = ' ';                                                     
    1305                    ; 194 |     mode[2] = ' ';                                                     
    1306                    ; 195 |     mode[compNum[0]] = '*';                                            
    1307                    ; 197 |     if( LevelOfFeedback > 0 ) {                                        
    1308                    ; 198 |         printf("%4d  %d  %c %8.4f %8.4f %8.6f   %c %8.4f %8.4f %8.6f
    1309                    ;     | %c %8.4f %8.4f %8.6f\n", Im[i*prm[tpi].im_size], (Im_mask[0] & 0x800000
    1310                    ;     | 00) >> 31,                                                             
    1311                    ; 199 |                mode[0], VLIB_getFractional32(mu[0], 15, 1), VLIB_getFra
    1312                    ;     | ctional16(var[0], 3, 1), VLIB_getFractional16(wt[0], 15, 1),           
    1313                    ; 200 |                mode[1], VLIB_getFractional32(mu[0 + (prm[tpi].im_size)]
    1314                    ;     | , 23, 1), VLIB_getFractional32(var[0 + (prm[tpi].im_size)], 15, 1), VLI
    1315                    ;     | B_getFractional16(wt[0 + (prm[tpi].im_size)], 15, 1),                  
    1316                    ; 201 |                mode[2], VLIB_getFractional32(mu[0 + 2 * (prm[tpi].im_si
    1317                    ;     | ze)], 23, 1), VLIB_getFractional16(var[0 + 2 * (prm[tpi].im_size)], 15,
    1318                    ;     |  1), VLIB_getFractional16(wt[0 + 2 * (prm[tpi].im_size)], 15, 1));     
    1319                    ; 205 |     if( prm[tpi].staticOut != NULL ) {                                 
    1320                    ; 208 |         for( k=0; k < 3 * prm[tpi].im_size; k++ ) {                    
TMS320C6x Assembler PC v7.4.2 Thu Mar 19 12:43:28 2015

Tools Copyright (c) 1996-2012 Texas Instruments Incorporated
package/lib/Regression/regress_d_c/./../packages/ti/vlib/src/VLIB_mixtureOfGaussiansS32/VLIB_mixtureOfGaussiansS32_d.se66 PAGE   25

    1321                    ; 209 |             if( mu[k] != prm[tpi].staticOut[counter++] ) {             
    1322                    ; 210 |                 printf("\tError in Mean: Image %d, Pixel %d, Mode %d\n"
    1323                    ;     | , i, k % 32, k / 32);                                                  
    1324                    ; 211 |                 status_nat_vs_ref = vlib_KERNEL_FAIL;                  
    1325                    ; 213 |             if( var[k] != prm[tpi].staticOut[counter++] ) {            
    1326                    ; 214 |                 printf("\tError in Variance: Image %d, Pixel %d, Mode %
    1327                    ;     | d\n", i, k % 32, k / 32);                                              
    1328                    ; 215 |                 status_nat_vs_ref = vlib_KERNEL_FAIL;                  
    1329                    ; 217 |             if( wt[k] != prm[tpi].staticOut[counter++] ) {             
    1330                    ; 218 |                 printf("\tError in Weight: Image %d, Pixel %d, Mode %d\
    1331                    ;     | n", i, k % 32, k / 32);                                                
    1332                    ; 219 |                 status_nat_vs_ref = vlib_KERNEL_FAIL;                  
    1333                    ; 223 |         for( k=0; k < prm[tpi].im_size; k++ ) {                        
    1334                    ; 224 |             if( compNum[k] != prm[tpi].staticOut[counter++] ) {        
    1335                    ; 225 |                 printf("\tError in Component index: Image %d, Pixel %d\
    1336                    ;     | n", i, k % 32);                                                        
    1337                    ; 226 |                 status_nat_vs_ref = vlib_KERNEL_FAIL;                  
    1338                    ; 230 |         for( k=0; k < prm[tpi].im_size; k++ ) {                        
    1339                    ; 231 |             if(((Im_mask_cn[0] >> k) & 0x00000001) != ((prm[tpi].static
    1340                    ;     | Out[counter] >> k) & 0x00000001)) {                                    
    1341                    ; 232 |                 printf("\tError in Foreground Mask: Image %d, Pixel %d\
    1342                    ;     | n", i, k);                                                             
    1343                    ; 233 |                 status_nat_vs_ref = vlib_KERNEL_FAIL;                  
    1344                    ; 237 |         counter++;                                                     
    1345                    ; 242 | status_nat_vs_int = VLIB_compare_mem((void *) Im_mask, (void *)Im_mask_
    1346                    ;     | cn, prm[tpi].im_size / 32 * sizeof(uint32_t));                         
    1347                    ; 245 | fail = ((status_nat_vs_int == vlib_KERNEL_FAIL) || (status_nat_vs_ref =
    1348                    ;     | = vlib_KERNEL_FAIL)) ? 1 : 0;                                          
    1349                    ; 247 | est_test=1;                                                            
    1350                    ; 250 | sprintf(desc, "%s generated input | Opt results compared to NatC result
    1351                    ;     | s | im_size=%d, num_images=%d",                                        
    1352                    ; 251 |         testPatternString, prm[tpi].im_size, prm[tpi].num_images);     
    1353                    ; 252 | VLIB_formula_add_test(prm[tpi].im_size*prm[tpi].num_images, prm[tpi].nu
    1354                    ;     | m_images, NULL, fail, desc, NULL);                                     
    1355                    ; 254 | } else {                                                               
    1356                    ;----------------------------------------------------------------------
    1357 000001d0 230023ec     [ B0]   LDW     .D2T1   *+SP(140),A6      ; |77| 
    1358                            .dwpsn  file "./../packages/ti/vlib/src/VLIB_mixtureOfGaussiansS32/VLIB_mixtureOfGaussiansS32_
    1359                    ;----------------------------------------------------------------------
    1360                    ; 256 | sprintf(desc, "im_size=%d, num_images=%d",                             
    1361                    ; 257 |         prm[tpi].im_size, prm[tpi].num_images);                        
    1362                    ; 258 | VLIB_skip_test(desc);                                                  
    1363                    ;----------------------------------------------------------------------
    1364 000001d4 322c82e6     [!B0]   LDW     .D2T2   *+B11(16),B4      ; |256| 
    1365                            .dwpsn  file "./../packages/ti/vlib/src/VLIB_mixtureOfGaussiansS32/VLIB_mixtureOfGaussiansS32_
    1366                               ; BRANCHCC OCCURS {$C$L34}        ; |71| 
    1367 000001d8           $C$DW$L$VLIB_mixtureOfGaussiansS32_d$7$E:
    1368                    ;** --------------------------------------------------------------------------*
    1369 000001d8           $C$DW$L$VLIB_mixtureOfGaussiansS32_d$8$B:
    1370                    ;          EXCLUSIVE CPU CYCLES: 3
    1371                    ;** 77  -----------------------    C$9 = (unsigned short)(*U$13).im_size;
    1372                    ;** 77  -----------------------    VLIB_fillBuffer((*U$13).testPattern, (unsigned char)K$65, (void *)I
    1373                    ;** 88  -----------------------    memset((void *)wt, 0, (*U$13).im_size*6u);
    1374                    ;** 89  -----------------------    memset((void *)mu, 0, (*U$13).im_size*12u);
    1375                    ;** 90  -----------------------    memset((void *)var, 0, (*U$13).im_size*12u);
TMS320C6x Assembler PC v7.4.2 Thu Mar 19 12:43:28 2015

Tools Copyright (c) 1996-2012 Texas Instruments Incorporated
package/lib/Regression/regress_d_c/./../packages/ti/vlib/src/VLIB_mixtureOfGaussiansS32/VLIB_mixtureOfGaussiansS32_d.se66 PAGE   26

    1376                    ;** 93  -----------------------    if ( !LevelOfFeedback ) goto g6;
    1377                            .dwpsn  file "./../packages/ti/vlib/src/VLIB_mixtureOfGaussiansS32/VLIB_mixtureOfGaussiansS32_
    1378 000001d8     16c6             MV      .L1X    B5,A8             ; |77| 
    1379 000001da     91c7             MV      .L2X    A3,B4             ; |77| 
    1380                    
    1381 000001e0 06000069!            MVKH    .S1     testPatternString,A12
    1382 000001e4 0504a35b  ||         MVK     .L2     0x1,B10           ; |77| 
    1383 000001ec 05141fd8  ||         MV      .L1X    B5,A10            ; |77| 
    1384 000001e8 01840163  ||         ADDKPC  .S2     $C$RL10,B3,0      ; |77| 
    1385                    
    1386 000001f0           $C$RL10:   ; CALL OCCURS {VLIB_fillBuffer} {0}  ; |77| 
    1387 000001f0           $C$DW$L$VLIB_mixtureOfGaussiansS32_d$8$E:
    1388                    ;** --------------------------------------------------------------------------*
    1389 000001f0           $C$DW$L$VLIB_mixtureOfGaussiansS32_d$9$B:
    1390                    ;          EXCLUSIVE CPU CYCLES: 40
    1391                            .dwpsn  file "./../packages/ti/vlib/src/VLIB_mixtureOfGaussiansS32/VLIB_mixtureOfGaussiansS32_
    1392 000001f0 022c62e6             LDW     .D2T2   *+B11(12),B4      ; |88| 
    1393 000001f4     6c6e             NOP             4
    1394 000001f6     563a             SHL     .S1X    B4,2,A3           ; |88| 
    1395 000001f8     9246             MV      .L1X    B4,A4             ; |88| Define a twin register
    1396                    $C$DW$197       .dwtag  DW_TAG_TI_branch
    1397                            .dwattr $C$DW$197, DW_AT_low_pc(0x00)
    1398                            .dwattr $C$DW$197, DW_AT_name("memset")
    1399                            .dwattr $C$DW$197, DW_AT_TI_call
    1400                    
    1401 00000208 10000012!            CALLP   .S2     memset,B3
    1402 00000200 030c9a41  ||         ADDAH   .D1     A3,A4,A6          ; |88| 
    1403 00000204 020024ed  ||         LDW     .D2T1   *+SP(144),A4      ; |88| 
    1404 000001fa     0627  ||         ZERO    .L2     B4                ; |88| 
    1405                    
    1406 0000020c           $C$RL11:   ; CALL OCCURS {memset} {0}        ; |88| 
    1407                            .dwpsn  file "./../packages/ti/vlib/src/VLIB_mixtureOfGaussiansS32/VLIB_mixtureOfGaussiansS32_
    1408 0000020c 022c62e6             LDW     .D2T2   *+B11(12),B4      ; |89| 
    1409 00000210     6c6e             NOP             4
    1410 00000212     763a             SHL     .S1X    B4,3,A3           ; |89| 
    1411 00000214     9246             MV      .L1X    B4,A4             ; |89| Define a twin register
    1412                    $C$DW$198       .dwtag  DW_TAG_TI_branch
    1413                            .dwattr $C$DW$198, DW_AT_low_pc(0x00)
    1414                            .dwattr $C$DW$198, DW_AT_name("memset")
    1415                            .dwattr $C$DW$198, DW_AT_TI_call
    1416                    
    1417 00000224 10000012!            CALLP   .S2     memset,B3
    1418 00000218 030c9c41  ||         ADDAW   .D1     A3,A4,A6          ; |89| 
    1419 00000220 020025ed  ||         LDW     .D2T1   *+SP(148),A4      ; |89| 
    1420 00000216     0627  ||         ZERO    .L2     B4                ; |89| 
    1421                    
    1422 00000228           $C$RL12:   ; CALL OCCURS {memset} {0}        ; |89| 
    1423                            .dwpsn  file "./../packages/ti/vlib/src/VLIB_mixtureOfGaussiansS32/VLIB_mixtureOfGaussiansS32_
    1424 00000228 022c62e6             LDW     .D2T2   *+B11(12),B4      ; |90| 
    1425 0000022c 020026ec             LDW     .D2T1   *+SP(152),A4      ; |90| 
    1426 00000230     4c6e             NOP             3
    1427 00000232     665b             SHL     .S2     B4,3,B5           ; |90| 
    1428 00000234 02149c42             ADDAW   .D2     B5,B4,B4          ; |90| 
    1429 00000238     0c6e             NOP             1
    1430                    $C$DW$199       .dwtag  DW_TAG_TI_branch
TMS320C6x Assembler PC v7.4.2 Thu Mar 19 12:43:28 2015

Tools Copyright (c) 1996-2012 Texas Instruments Incorporated
package/lib/Regression/regress_d_c/./../packages/ti/vlib/src/VLIB_mixtureOfGaussiansS32/VLIB_mixtureOfGaussiansS32_d.se66 PAGE   27

    1431                            .dwattr $C$DW$199, DW_AT_low_pc(0x08)
    1432                            .dwattr $C$DW$199, DW_AT_name("memset")
    1433                            .dwattr $C$DW$199, DW_AT_TI_call
    1434                    
    1435 0000023a     d246             MV      .L1X    B4,A6             ; |90| 
    1436 00000244 0200a35a  ||         ZERO    .L2     B4                ; |90| 
    1437 00000240 10000013! ||         CALLP   .S2     memset,B3
    1438                    
    1439 00000248           $C$RL13:   ; CALL OCCURS {memset} {0}        ; |90| 
    1440 00000248           $C$DW$L$VLIB_mixtureOfGaussiansS32_d$9$E:
    1441                    ;** --------------------------------------------------------------------------*
    1442 00000248           $C$DW$L$VLIB_mixtureOfGaussiansS32_d$10$B:
    1443                    ;          EXCLUSIVE CPU CYCLES: 11
    1444 00000248 000022ec             LDW     .D2T1   *+SP(136),A0      ; |90| 
    1445 0000024c     6c6e             NOP             4
    1446                    
    1447 0000024e     0c3a     [!A0]   B       .S1     $C$L2             ; |93| 
    1448 00000250 d22c82e6  || [!A0]   LDW     .D2T2   *+B11(16),B4      ; |100| 
    1449                    
    1450                            .dwpsn  file "./../packages/ti/vlib/src/VLIB_mixtureOfGaussiansS32/VLIB_mixtureOfGaussiansS32_
    1451                    $C$DW$200       .dwtag  DW_TAG_TI_branch
    1452                            .dwattr $C$DW$200, DW_AT_low_pc(0x00)
    1453                            .dwattr $C$DW$200, DW_AT_name("printf")
    1454                            .dwattr $C$DW$200, DW_AT_TI_call
    1455 00000254 c0000010!    [ A0]   CALL    .S1     printf            ; |95| 
    1456 00000258 c1800028!    [ A0]   MVKL    .S1     $C$SL2+0,A3
    1457 00000260 c1800068!    [ A0]   MVKH    .S1     $C$SL2+0,A3
    1458 00000264 00000000             NOP             1
    1459                            .dwpsn  file "./../packages/ti/vlib/src/VLIB_mixtureOfGaussiansS32/VLIB_mixtureOfGaussiansS32_
    1460 00000268 d0100ada     [!A0]   CMPGT   .L2     B4,0,B0           ; |100| 
    1461                            .dwpsn  file "./../packages/ti/vlib/src/VLIB_mixtureOfGaussiansS32/VLIB_mixtureOfGaussiansS32_
    1462                               ; BRANCHCC OCCURS {$C$L2}         ; |93| 
    1463 0000026c           $C$DW$L$VLIB_mixtureOfGaussiansS32_d$10$E:
    1464                    ;** --------------------------------------------------------------------------*
    1465 0000026c           $C$DW$L$VLIB_mixtureOfGaussiansS32_d$11$B:
    1466                    ;          EXCLUSIVE CPU CYCLES: 1
    1467                    ;** 95  -----------------------    printf((const char *)"Luma  FG    Mean-1   Varn-1   Wght-1        M
    1468                    ;** 96  -----------------------    printf((const char *)"---------------------------------------------
    1469                    
    1470 0000026c 01bc22f5             STW     .D2T1   A3,*+SP(4)        ; |95| 
    1471 00000270 01850162  ||         ADDKPC  .S2     $C$RL14,B3,0      ; |95| 
    1472                    
    1473                            .dwpsn  file "./../packages/ti/vlib/src/VLIB_mixtureOfGaussiansS32/VLIB_mixtureOfGaussiansS32_
    1474 00000274           $C$RL14:   ; CALL OCCURS {printf} {0}        ; |95| 
    1475 00000274           $C$DW$L$VLIB_mixtureOfGaussiansS32_d$11$E:
    1476                    ;** --------------------------------------------------------------------------*
    1477 00000274           $C$DW$L$VLIB_mixtureOfGaussiansS32_d$12$B:
    1478                    ;          EXCLUSIVE CPU CYCLES: 14
    1479 00000274 0200002a!            MVKL    .S2     $C$SL3+0,B4
    1480 00000278 0200006b!            MVKH    .S2     $C$SL3+0,B4
    1481                    $C$DW$201       .dwtag  DW_TAG_TI_branch
    1482                            .dwattr $C$DW$201, DW_AT_low_pc(0x00)
    1483                            .dwattr $C$DW$201, DW_AT_name("printf")
    1484                            .dwattr $C$DW$201, DW_AT_TI_call
    1485                    
TMS320C6x Assembler PC v7.4.2 Thu Mar 19 12:43:28 2015

Tools Copyright (c) 1996-2012 Texas Instruments Incorporated
package/lib/Regression/regress_d_c/./../packages/ti/vlib/src/VLIB_mixtureOfGaussiansS32/VLIB_mixtureOfGaussiansS32_d.se66 PAGE   28

    1486 00000280 10000013!            CALLP   .S2     printf,B3
    1487 00000284 023c22f6  ||         STW     .D2T2   B4,*+SP(4)        ; |96| 
    1488                    
    1489                            .dwpsn  file "./../packages/ti/vlib/src/VLIB_mixtureOfGaussiansS32/VLIB_mixtureOfGaussiansS32_
    1490 00000288           $C$RL15:   ; CALL OCCURS {printf} {0}        ; |96| 
    1491                            .dwpsn  file "./../packages/ti/vlib/src/VLIB_mixtureOfGaussiansS32/VLIB_mixtureOfGaussiansS32_
    1492 00000288 022c82e6             LDW     .D2T2   *+B11(16),B4      ; |100| 
    1493 0000028c     6c6e             NOP             4
    1494 0000028e     1227             CMPGT   .L2     B4,0,B0           ; |100| 
    1495 000002a0           $C$DW$L$VLIB_mixtureOfGaussiansS32_d$12$E:
    1496                    ;** --------------------------------------------------------------------------*
    1497 000002a0           $C$L2:    
    1498                            .dwpsn  file "./../packages/ti/vlib/src/VLIB_mixtureOfGaussiansS32/VLIB_mixtureOfGaussiansS32_
    1499 000002a0           $C$DW$L$VLIB_mixtureOfGaussiansS32_d$13$B:
    1500                    ;          EXCLUSIVE CPU CYCLES: 6
    1501                    ;**     -----------------------g6:
    1502                    ;** 100 -----------------------    v$1 = prm;
    1503                    ;** 55  -----------------------    status_nat_vs_ref = 1;
    1504                    ;** 100 -----------------------    if ( (*U$13).num_images <= 0 ) goto g32;
    1505                    
    1506 000002a0 317fa121     [!B0]   BNOP    .S1     $C$L17,5          ; |100| 
    1507 000002a4 053fa2e5  ||         LDW     .D2T1   *+SP(116),A10     ; |100| 
    1508 000002a8 05a81fd9  ||         MV      .L1X    B10,A11           ; |100| 
    1509 000002ac 2680a35b  || [ B0]   ZERO    .L2     B13               ; |100| 
    1510 000002b0 27000040  || [ B0]   ZERO    .D1     A14               ; |100| 
    1511                    
    1512                            .dwpsn  file "./../packages/ti/vlib/src/VLIB_mixtureOfGaussiansS32/VLIB_mixtureOfGaussiansS32_
    1513                               ; BRANCHCC OCCURS {$C$L17}        ; |100| 
    1514 000002b4           $C$DW$L$VLIB_mixtureOfGaussiansS32_d$13$E:
    1515                    ;** --------------------------------------------------------------------------*
    1516 000002b4           $C$DW$L$VLIB_mixtureOfGaussiansS32_d$14$B:
    1517                    ;**     -----------------------    K$102 = 32;
    1518                    ;**     -----------------------    K$112 = 42;
    1519                    ;**     -----------------------    K$94 = &cycles[0];
    1520                    ;** 91  -----------------------    counter = 0;
    1521                    ;** 100 -----------------------    i = 0;
    1522                    ;**     -----------------------    #pragma LOOP_FLAGS(5120u)
    1523 000002b4           $C$DW$L$VLIB_mixtureOfGaussiansS32_d$14$E:
    1524                    ;** --------------------------------------------------------------------------*
    1525                    ;**   BEGIN LOOP $C$L3
    1526                    ;** --------------------------------------------------------------------------*
    1527 000002b4           $C$L3:    
    1528                            .dwpsn  file "./../packages/ti/vlib/src/VLIB_mixtureOfGaussiansS32/VLIB_mixtureOfGaussiansS32_
    1529 000002b4           $C$DW$L$VLIB_mixtureOfGaussiansS32_d$15$B:
    1530                    ;          EXCLUSIVE CPU CYCLES: 6
    1531                    ;**     -----------------------g8:
    1532                    ;** 137 -----------------------    act_kernel = 0;  // [17]
    1533                    ;** 140 -----------------------    VLIB_cache_inval();  // [17]
    1534                    ;** 143 -----------------------    initStack(getSP());  // [17]
    1535                    ;** 146 -----------------------    beg_count = _itoll(TSCH, TSCL);  // [17]
    1536                    ;** 104 -----------------------    C$8 = (*U$13).im_size;
    1537                    ;** 104 -----------------------    VLIB_mixtureOfGaussiansS32(C$8*i+Im, wt, mu, var, compNum, updateMa
    1538                    ;** 153 -----------------------    v$2 = _itoll(TSCH, TSCL);  // [18]
    1539                    ;** 153 -----------------------    end_count = v$2;  // [18]
    1540                    ;** 156 -----------------------    C$7 = act_kernel;  // [18]
TMS320C6x Assembler PC v7.4.2 Thu Mar 19 12:43:28 2015

Tools Copyright (c) 1996-2012 Texas Instruments Incorporated
package/lib/Regression/regress_d_c/./../packages/ti/vlib/src/VLIB_mixtureOfGaussiansS32/VLIB_mixtureOfGaussiansS32_d.se66 PAGE   29

    1541                    ;** 156 -----------------------    *((C$7<<3)+K$94) = *((C$7<<3)+K$94)+(v$2-(beg_count+overhead));  //
    1542                    ;** 159 -----------------------    setStackDepth();  // [18]
    1543                    ;** 113 -----------------------    mode[0] = K$102;
    1544                    ;** 114 -----------------------    mode[1] = K$102;
    1545                    ;** 115 -----------------------    mode[2] = K$102;
    1546                    ;** 116 -----------------------    mode[*compNum] = K$112;
    1547                    ;** 118 -----------------------    if ( !LevelOfFeedback ) goto g10;
    1548                            .dwpsn  file ".\..\packages\ti\vlib\src\VLIB_mixtureOfGaussiansS32\..\common\VLIB_profile.h",l
    1549                    $C$DW$202       .dwtag  DW_TAG_TI_branch
    1550                            .dwattr $C$DW$202, DW_AT_low_pc(0x00)
    1551                            .dwattr $C$DW$202, DW_AT_name("VLIB_cache_inval")
    1552                            .dwattr $C$DW$202, DW_AT_TI_call
    1553 000002b4 00000010!            CALL    .S1     VLIB_cache_inval  ; |140| 
    1554 000002b8 07800028!            MVKL    .S1     act_kernel,A15
    1555 000002bc 07800068!            MVKH    .S1     act_kernel,A15
    1556                            .dwpsn  file ".\..\packages\ti\vlib\src\VLIB_mixtureOfGaussiansS32\..\common\VLIB_profile.h",l
    1557 000002c0 0180a358             ZERO    .L1     A3                ; |137| 
    1558 000002c4 01bc0274             STW     .D1T1   A3,*A15           ; |137| 
    1559                            .dwpsn  file ".\..\packages\ti\vlib\src\VLIB_mixtureOfGaussiansS32\..\common\VLIB_profile.h",l
    1560 000002c8 01830162             ADDKPC  .S2     $C$RL16,B3,0      ; |140| 
    1561                    $C$RL16:   ; CALL OCCURS {VLIB_cache_inval} {0}  ; |140| 
    1562                    $C$DW$L$VLIB_mixtureOfGaussiansS32_d$15$E:
    1563                    ;** --------------------------------------------------------------------------*
    1564                    $C$DW$L$VLIB_mixtureOfGaussiansS32_d$16$B:
    1565                    ;          EXCLUSIVE CPU CYCLES: 62
    1566                    $C$DW$203       .dwtag  DW_TAG_TI_branch
    1567                            .dwattr $C$DW$203, DW_AT_low_pc(0x00)
    1568                            .dwattr $C$DW$203, DW_AT_name("getSP")
    1569                            .dwattr $C$DW$203, DW_AT_TI_call
    1570 000002cc 10000012!            CALLP   .S2     getSP,B3
    1571                            .dwpsn  file ".\..\packages\ti\vlib\src\VLIB_mixtureOfGaussiansS32\..\common\VLIB_profile.h",l
    1572                    $C$RL17:   ; CALL OCCURS {getSP} {0}         ; |143| 
    1573                    $C$DW$204       .dwtag  DW_TAG_TI_branch
    1574                            .dwattr $C$DW$204, DW_AT_low_pc(0x00)
    1575                            .dwattr $C$DW$204, DW_AT_name("initStack")
    1576                            .dwattr $C$DW$204, DW_AT_TI_call
    1577 000002d0 10000012!            CALLP   .S2     initStack,B3
    1578 000002d4           $C$RL18:   ; CALL OCCURS {initStack} {0}     ; |143| 
    1579                            .dwpsn  file ".\..\packages\ti\vlib\src\VLIB_mixtureOfGaussiansS32\..\common\VLIB_profile.h",l
    1580 000002d4 032803e2             MVC     .S2     TSCL,B6           ; |146| 
    1581 000002d8 022c03e2             MVC     .S2     TSCH,B4           ; |146| 
    1582                            .dwpsn  file "./../packages/ti/vlib/src/VLIB_mixtureOfGaussiansS32/VLIB_mixtureOfGaussiansS32_
    1583 000002dc 04ae22c6             LDH     .D2T2   *+B11(34),B9      ; |104| 
    1584 000002e0 042d22e6             LDW     .D2T2   *+B11(36),B8      ; |104| 
    1585 000002e4 052c62e6             LDW     .D2T2   *+B11(12),B10     ; |104| 
    1586 000002e8 08ace2e6             LDW     .D2T2   *+B11(28),B17     ; |104| 
    1587 000002ec 082e02c6             LDH     .D2T2   *+B11(32),B16     ; |104| 
    1588 000002f0 04bca2d6             STH     .D2T2   B9,*+SP(10)       ; |104| 
    1589 000002f4 062d42c4             LDH     .D2T1   *+B11(20),A12     ; |104| 
    1590 000002f8 050029ec             LDW     .D2T1   *+SP(164),A10     ; |104| 
    1591 000002fc 040027ec             LDW     .D2T1   *+SP(156),A8      ; |104| 
    1592 00000300 030025ec             LDW     .D2T1   *+SP(148),A6      ; |104| 
    1593 00000304 062cc2e6             LDW     .D2T2   *+B11(24),B12     ; |104| 
    1594                    
    1595 00000308 048023ef             LDW     .D2T2   *+SP(140),B9      ; |104| 
TMS320C6x Assembler PC v7.4.2 Thu Mar 19 12:43:28 2015

Tools Copyright (c) 1996-2012 Texas Instruments Incorporated
package/lib/Regression/regress_d_c/./../packages/ti/vlib/src/VLIB_mixtureOfGaussiansS32/VLIB_mixtureOfGaussiansS32_d.se66 PAGE   30

    1596 0000030c 0f80002a! ||         MVKL    .S2     beg_count,B31
    1597                    
    1598 00000310 03900fdb             MV      .L2     B4,B7             ; |146| 
    1599 00000314 0229a803  ||         MPY32   .M2     B13,B10,B4        ; |104| 
    1600 00000318 0f80006b! ||         MVKH    .S2     beg_count,B31
    1601 0000031c 043c62f6  ||         STW     .D2T2   B8,*+SP(12)       ; |104| 
    1602                    
    1603                            .dwpsn  file ".\..\packages\ti\vlib\src\VLIB_mixtureOfGaussiansS32\..\common\VLIB_profile.h",l
    1604 00000320 037c03c6             STDW    .D2T2   B7:B6,*B31        ; |146| 
    1605                            .dwpsn  file "./../packages/ti/vlib/src/VLIB_mixtureOfGaussiansS32/VLIB_mixtureOfGaussiansS32_
    1606 00000324 08bc22f6             STW     .D2T2   B17,*+SP(4)       ; |104| 
    1607 00000328 083c82d6             STH     .D2T2   B16,*+SP(8)       ; |104| 
    1608                    
    1609 0000032c 0391207b             ADD     .L2     B9,B4,B7          ; |104| 
    1610 00000330 040028ee  ||         LDW     .D2T2   *+SP(160),B8      ; |104| 
    1611                    
    1612 00000334 030026ee             LDW     .D2T2   *+SP(152),B6      ; |104| 
    1613                    $C$DW$205       .dwtag  DW_TAG_TI_branch
    1614                            .dwattr $C$DW$205, DW_AT_low_pc(0x00)
    1615                            .dwattr $C$DW$205, DW_AT_name("VLIB_mixtureOfGaussiansS32")
    1616                            .dwattr $C$DW$205, DW_AT_TI_call
    1617                    
    1618 00000338 10000013!            CALLP   .S2     VLIB_mixtureOfGaussiansS32,B3
    1619 0000033c 020024ef  ||         LDW     .D2T2   *+SP(144),B4      ; |104| 
    1620 00000340 021c1fd8  ||         MV      .L1X    B7,A4             ; |104| 
    1621                    
    1622 00000344           $C$RL19:   ; CALL OCCURS {VLIB_mixtureOfGaussiansS32} {0}  ; |104| 
    1623                            .dwpsn  file ".\..\packages\ti\vlib\src\VLIB_mixtureOfGaussiansS32\..\common\VLIB_profile.h",l
    1624 00000344 032803e2             MVC     .S2     TSCL,B6           ; |153| 
    1625 00000348 03ac03e2             MVC     .S2     TSCH,B7           ; |153| 
    1626 0000034c 0200002a!            MVKL    .S2     beg_count,B4
    1627 00000350 0280002a!            MVKL    .S2     overhead,B5
    1628                    
    1629 00000354 01bc0265             LDW     .D1T1   *A15,A3           ; |156| 
    1630 00000358 0200006a! ||         MVKH    .S2     beg_count,B4
    1631                    
    1632 0000035c 0280006b!            MVKH    .S2     overhead,B5
    1633 00000360 041003e6  ||         LDDW    .D2T2   *B4,B9:B8         ; |156| 
    1634                    
    1635                            .dwpsn  file ".\..\packages\ti\vlib\src\VLIB_mixtureOfGaussiansS32\..\common\VLIB_profile.h",l
    1636 00000364 081403e6             LDDW    .D2T2   *B5,B17:B16       ; |156| 
    1637 00000368 02000028!            MVKL    .S1     cycles,A4
    1638 0000036c 02000068!            MVKH    .S1     cycles,A4
    1639 00000370 03106b64             LDDW    .D1T1   *+A4[A3],A7:A6    ; |156| 
    1640 00000374 04000028!            MVKL    .S1     end_count,A8
    1641 00000378 0222057a             ADDU    .L2     B16,B8,B5:B4      ; |156| 
    1642                    
    1643 0000037c 0444a1e3             ADD     .S2     B5,B17,B8         ; |156| 
    1644 00000380 0210c5fa  ||         SUBU    .L2     B6,B4,B5:B4       ; |156| 
    1645                    
    1646 00000384 0425007a             ADD     .L2     B8,B9,B8          ; |156| 
    1647                    
    1648 00000388 0210d579             ADDU    .L1X    A6,B4,A5:A4       ; |156| 
    1649 0000038c 0220e0fb  ||         SUB     .L2     B7,B8,B4          ; |156| 
    1650 00000390     aae3  ||         EXT     .S2     B5,24,24,B5       ; |156| 
TMS320C6x Assembler PC v7.4.2 Thu Mar 19 12:43:28 2015

Tools Copyright (c) 1996-2012 Texas Instruments Incorporated
package/lib/Regression/regress_d_c/./../packages/ti/vlib/src/VLIB_mixtureOfGaussiansS32/VLIB_mixtureOfGaussiansS32_d.se66 PAGE   31

    1651                    
    1652 00000392     82c1             ADD     .L2     B4,B5,B4          ; |156| 
    1653 00000394 04000068! ||         MVKH    .S1     end_count,A8
    1654                    
    1655 000003a0     a3d0             ADD     .L1     A5,A7,A5          ; |156| 
    1656 00000398 03000029! ||         MVKL    .S1     cycles,A6
    1657                    
    1658 000003a2     b250             ADD     .L1X    A5,B4,A5          ; |156| 
    1659 000003a4 03000069! ||         MVKH    .S1     cycles,A6
    1660 000003a8 03200346  ||         STDW    .D1T2   B7:B6,*A8         ; |153| 
    1661                    
    1662                    $C$DW$206       .dwtag  DW_TAG_TI_branch
    1663                            .dwattr $C$DW$206, DW_AT_low_pc(0x00)
    1664                            .dwattr $C$DW$206, DW_AT_name("setStackDepth")
    1665                            .dwattr $C$DW$206, DW_AT_TI_call
    1666                    
    1667 000003ac 10000013!            CALLP   .S2     setStackDepth,B3
    1668 000003b0 02186b44  ||         STDW    .D1T1   A5:A4,*+A6[A3]    ; |156| 
    1669                    
    1670                            .dwpsn  file ".\..\packages\ti\vlib\src\VLIB_mixtureOfGaussiansS32\..\common\VLIB_profile.h",l
    1671 000003b4           $C$RL20:   ; CALL OCCURS {setStackDepth} {0}  ; |159| 
    1672 000003b4           $C$DW$L$VLIB_mixtureOfGaussiansS32_d$16$E:
    1673                    ;** --------------------------------------------------------------------------*
    1674 000003b4           $C$DW$L$VLIB_mixtureOfGaussiansS32_d$17$B:
    1675                    ;          EXCLUSIVE CPU CYCLES: 23
    1676                            .dwpsn  file "./../packages/ti/vlib/src/VLIB_mixtureOfGaussiansS32/VLIB_mixtureOfGaussiansS32_
    1677 000003b4 0f8027ec             LDW     .D2T1   *+SP(156),A31     ; |115| 
    1678 000003b8 01801028             MVK     .S1     0x20,A3
    1679                            .dwpsn  file "./../packages/ti/vlib/src/VLIB_mixtureOfGaussiansS32/VLIB_mixtureOfGaussiansS32_
    1680 000003c0 018078bc             STB     .D2T1   A3,*+SP(120)      ; |113| 
    1681                            .dwpsn  file "./../packages/ti/vlib/src/VLIB_mixtureOfGaussiansS32/VLIB_mixtureOfGaussiansS32_
    1682 000003c4 018079bc             STB     .D2T1   A3,*+SP(121)      ; |114| 
    1683                            .dwpsn  file "./../packages/ti/vlib/src/VLIB_mixtureOfGaussiansS32/VLIB_mixtureOfGaussiansS32_
    1684 000003c8 01807abc             STB     .D2T1   A3,*+SP(122)      ; |115| 
    1685                            .dwpsn  file "./../packages/ti/vlib/src/VLIB_mixtureOfGaussiansS32/VLIB_mixtureOfGaussiansS32_
    1686 000003cc 01fc0214             LDBU    .D1T1   *A31,A3           ; |116| 
    1687 000003d0     4ab2             MVK     .S1     0x2a,A5
    1688 000003d2     1a72             MVK     .S1     120,A4            ; |116| 
    1689 000003d4 00002000             NOP             2
    1690 000003d8 01bc7078             ADD     .L1X    A3,SP,A3          ; |116| 
    1691 000003e0 02906a34             STB     .D1T1   A5,*+A4[A3]       ; |116| 
    1692 000003e4 000022ec             LDW     .D2T1   *+SP(136),A0      ; |116| 
    1693 000003e8 018025ec             LDW     .D2T1   *+SP(148),A3
    1694 000003ec 00004000             NOP             3
    1695                    
    1696 000003f0 d02c42e7     [!A0]   LDW     .D2T2   *+B11(8),B0       ; |126| 
    1697 000003f4 d0003990  || [!A0]   B       .S1     $C$L4             ; |118| 
    1698                    
    1699                            .dwpsn  file "./../packages/ti/vlib/src/VLIB_mixtureOfGaussiansS32/VLIB_mixtureOfGaussiansS32_
    1700                    $C$DW$207       .dwtag  DW_TAG_TI_branch
    1701                            .dwattr $C$DW$207, DW_AT_low_pc(0x00)
    1702                            .dwattr $C$DW$207, DW_AT_name("VLIB_getFractional32")
    1703                            .dwattr $C$DW$207, DW_AT_TI_call
    1704 000003f8 c0000010!    [ A0]   CALL    .S1     VLIB_getFractional32 ; |119| 
    1705 000003fc c20c0264     [ A0]   LDW     .D1T1   *A3,A4            ; |119| 
TMS320C6x Assembler PC v7.4.2 Thu Mar 19 12:43:28 2015

Tools Copyright (c) 1996-2012 Texas Instruments Incorporated
package/lib/Regression/regress_d_c/./../packages/ti/vlib/src/VLIB_mixtureOfGaussiansS32/VLIB_mixtureOfGaussiansS32_d.se66 PAGE   32

    1706                            .dwpsn  file "./../packages/ti/vlib/src/VLIB_mixtureOfGaussiansS32/VLIB_mixtureOfGaussiansS32_
    1707 00000400 c004a35a     [ A0]   MVK     .L2     0x1,B0            ; |126| nullify predicate
    1708 00000404 d53fa2e4     [!A0]   LDW     .D2T1   *+SP(116),A10     ; |126| 
    1709 00000408 30009090     [!B0]   B       .S1     $C$L16            ; |126| 
    1710                            .dwpsn  file "./../packages/ti/vlib/src/VLIB_mixtureOfGaussiansS32/VLIB_mixtureOfGaussiansS32_
    1711                               ; BRANCHCC OCCURS {$C$L4}         ; |118| 
    1712 0000040c           $C$DW$L$VLIB_mixtureOfGaussiansS32_d$17$E:
    1713                    ;** --------------------------------------------------------------------------*
    1714 0000040c           $C$DW$L$VLIB_mixtureOfGaussiansS32_d$18$B:
    1715                    ;          EXCLUSIVE CPU CYCLES: 1
    1716                    ;** 119 -----------------------    printf((const char *)"%4d  %d  %c %8.4f %8.4f %8.6f   %c %8.4f %8.4
    1717                    
    1718 0000040c     2726             MVK     .L1     0x1,A6            ; |119| 
    1719 0000040e     ee27  ||         MVK     .L2     0xf,B4            ; |119| 
    1720 00000410 01850162  ||         ADDKPC  .S2     $C$RL21,B3,0      ; |119| 
    1721                    
    1722                            .dwpsn  file "./../packages/ti/vlib/src/VLIB_mixtureOfGaussiansS32/VLIB_mixtureOfGaussiansS32_
    1723 00000414           $C$RL21:   ; CALL OCCURS {VLIB_getFractional32} {0}  ; |119| 
    1724 00000414           $C$DW$L$VLIB_mixtureOfGaussiansS32_d$18$E:
    1725                    ;** --------------------------------------------------------------------------*
    1726 00000414           $C$DW$L$VLIB_mixtureOfGaussiansS32_d$19$B:
    1727                    ;          EXCLUSIVE CPU CYCLES: 137
    1728 00000414 020026ee             LDW     .D2T2   *+SP(152),B4      ; |119| 
    1729 00000418     4646             MV      .L1     A4,A10            ; |119| 
    1730 0000041a     2726             MVK     .L1     0x1,A6            ; |119| 
    1731 00000420     2c6e             NOP             2
    1732                    $C$DW$208       .dwtag  DW_TAG_TI_branch
    1733                            .dwattr $C$DW$208, DW_AT_low_pc(0x00)
    1734                            .dwattr $C$DW$208, DW_AT_name("VLIB_getFractional16")
    1735                            .dwattr $C$DW$208, DW_AT_TI_call
    1736                    
    1737 00000428 10000012!            CALLP   .S2     VLIB_getFractional16,B3
    1738 00000424 021002c5  ||         LDH     .D2T1   *B4,A4            ; |119| 
    1739 00000422     6627  ||         MVK     .L2     0x3,B4            ; |119| 
    1740                    
    1741 0000042c           $C$RL22:   ; CALL OCCURS {VLIB_getFractional16} {0}  ; |119| 
    1742 0000042c 020024ee             LDW     .D2T2   *+SP(144),B4      ; |119| 
    1743 00000430     5647             MV      .L2X    A4,B10            ; |119| 
    1744 00000432     2726             MVK     .L1     0x1,A6            ; |119| 
    1745 00000434     2c6e             NOP             2
    1746                    $C$DW$209       .dwtag  DW_TAG_TI_branch
    1747                            .dwattr $C$DW$209, DW_AT_low_pc(0x00)
    1748                            .dwattr $C$DW$209, DW_AT_name("VLIB_getFractional16")
    1749                            .dwattr $C$DW$209, DW_AT_TI_call
    1750                    
    1751 00000440 10000012!            CALLP   .S2     VLIB_getFractional16,B3
    1752 00000438 021002c5  ||         LDH     .D2T1   *B4,A4            ; |119| 
    1753 00000436     ee27  ||         MVK     .L2     0xf,B4            ; |119| 
    1754                    
    1755 00000444           $C$RL23:   ; CALL OCCURS {VLIB_getFractional16} {0}  ; |119| 
    1756 00000444 01ac62e4             LDW     .D2T1   *+B11(12),A3      ; |119| 
    1757                    
    1758 0000044c     8646             MV      .L1     A4,A12            ; |119| 
    1759 00000448 020025ed  ||         LDW     .D2T1   *+SP(148),A4
    1760                    
TMS320C6x Assembler PC v7.4.2 Thu Mar 19 12:43:28 2015

Tools Copyright (c) 1996-2012 Texas Instruments Incorporated
package/lib/Regression/regress_d_c/./../packages/ti/vlib/src/VLIB_mixtureOfGaussiansS32/VLIB_mixtureOfGaussiansS32_d.se66 PAGE   33

    1761 0000044e     f213             MVK     .S2     0x17,B4           ; |119| 
    1762 00000450     2726             MVK     .L1     0x1,A6            ; |119| 
    1763 00000452     2c6e             NOP             2
    1764                    $C$DW$210       .dwtag  DW_TAG_TI_branch
    1765                            .dwattr $C$DW$210, DW_AT_low_pc(0x00)
    1766                            .dwattr $C$DW$210, DW_AT_name("VLIB_getFractional32")
    1767                            .dwattr $C$DW$210, DW_AT_TI_call
    1768                    
    1769 00000454 10000013!            CALLP   .S2     VLIB_getFractional32,B3
    1770 00000458 02106a64  ||         LDW     .D1T1   *+A4[A3],A4       ; |119| 
    1771                    
    1772 00000460           $C$RL24:   ; CALL OCCURS {VLIB_getFractional32} {0}  ; |119| 
    1773 00000460 022c62e6             LDW     .D2T2   *+B11(12),B4      ; |119| 
    1774 00000464 028026ee             LDW     .D2T2   *+SP(152),B5
    1775 00000468     e646             MV      .L1     A4,A15            ; |119| 
    1776 0000046a     2726             MVK     .L1     0x1,A6            ; |119| 
    1777 0000046c     2c6e             NOP             2
    1778                    $C$DW$211       .dwtag  DW_TAG_TI_branch
    1779                            .dwattr $C$DW$211, DW_AT_low_pc(0x00)
    1780                            .dwattr $C$DW$211, DW_AT_name("VLIB_getFractional32")
    1781                            .dwattr $C$DW$211, DW_AT_TI_call
    1782                    
    1783 00000470 10000013!            CALLP   .S2     VLIB_getFractional32,B3
    1784 0000046e     84cd  ||         LDW     .D2T1   *+B5[B4],A4       ; |119| 
    1785 00000474 023ca35a  ||         MVK     .L2     0xf,B4            ; |119| 
    1786                    
    1787 00000478           $C$RL25:   ; CALL OCCURS {VLIB_getFractional32} {0}  ; |119| 
    1788 00000478 028024ee             LDW     .D2T2   *+SP(144),B5
    1789 00000480 022c62e6             LDW     .D2T2   *+B11(12),B4      ; |119| 
    1790 00000484     9647             MV      .L2X    A4,B12            ; |119| 
    1791 00000486     2726             MVK     .L1     0x1,A6            ; |119| 
    1792 00000488     2c6e             NOP             2
    1793                    $C$DW$212       .dwtag  DW_TAG_TI_branch
    1794                            .dwattr $C$DW$212, DW_AT_low_pc(0x00)
    1795                            .dwattr $C$DW$212, DW_AT_name("VLIB_getFractional16")
    1796                            .dwattr $C$DW$212, DW_AT_TI_call
    1797                    
    1798 00000490 10000012!            CALLP   .S2     VLIB_getFractional16,B3
    1799 0000048c 02148ac5  ||         LDH     .D2T1   *+B5[B4],A4       ; |119| 
    1800 0000048a     ee27  ||         MVK     .L2     0xf,B4            ; |119| 
    1801                    
    1802 00000494           $C$RL26:   ; CALL OCCURS {VLIB_getFractional16} {0}  ; |119| 
    1803 00000494 02002cfc             STW     .D2T1   A4,*+SP(176)      ; |119| 
    1804 00000498 020025ec             LDW     .D2T1   *+SP(148),A4
    1805 000004a0 01ac62e4             LDW     .D2T1   *+B11(12),A3      ; |119| 
    1806 000004a4     f213             MVK     .S2     0x17,B4           ; |119| 
    1807 000004a6     2726             MVK     .L1     0x1,A6            ; |119| 
    1808 000004a8 00002000             NOP             2
    1809 000004ac 01907e40             ADDAD   .D1     A4,A3,A3          ; |119| 
    1810                    $C$DW$213       .dwtag  DW_TAG_TI_branch
    1811                            .dwattr $C$DW$213, DW_AT_low_pc(0x00)
    1812                            .dwattr $C$DW$213, DW_AT_name("VLIB_getFractional32")
    1813                            .dwattr $C$DW$213, DW_AT_TI_call
    1814                    
    1815 000004b0 10000013!            CALLP   .S2     VLIB_getFractional32,B3
TMS320C6x Assembler PC v7.4.2 Thu Mar 19 12:43:28 2015

Tools Copyright (c) 1996-2012 Texas Instruments Incorporated
package/lib/Regression/regress_d_c/./../packages/ti/vlib/src/VLIB_mixtureOfGaussiansS32/VLIB_mixtureOfGaussiansS32_d.se66 PAGE   34

    1816 000004b4 020c0264  ||         LDW     .D1T1   *A3,A4            ; |119| 
    1817                    
    1818 000004b8           $C$RL27:   ; CALL OCCURS {VLIB_getFractional32} {0}  ; |119| 
    1819 000004b8 022c62e6             LDW     .D2T2   *+B11(12),B4      ; |119| 
    1820 000004c0 028026ee             LDW     .D2T2   *+SP(152),B5
    1821 000004c4 02002bfc             STW     .D2T1   A4,*+SP(172)      ; |119| 
    1822 000004c8     2726             MVK     .L1     0x1,A6            ; |119| 
    1823 000004ca     2c6e             NOP             2
    1824 000004cc 02149e42             ADDAD   .D2     B5,B4,B4          ; |119| 
    1825                    $C$DW$214       .dwtag  DW_TAG_TI_branch
    1826                            .dwattr $C$DW$214, DW_AT_low_pc(0x00)
    1827                            .dwattr $C$DW$214, DW_AT_name("VLIB_getFractional16")
    1828                            .dwattr $C$DW$214, DW_AT_TI_call
    1829                    
    1830 000004d0 10000013!            CALLP   .S2     VLIB_getFractional16,B3
    1831 000004d4     024d  ||         LDH     .D2T1   *B4,A4            ; |119| 
    1832 000004d6     ee27  ||         MVK     .L2     0xf,B4            ; |119| 
    1833                    
    1834 000004d8           $C$RL28:   ; CALL OCCURS {VLIB_getFractional16} {0}  ; |119| 
    1835 000004d8 028024ee             LDW     .D2T2   *+SP(144),B5
    1836 000004e0 022c62e6             LDW     .D2T2   *+B11(12),B4      ; |119| 
    1837 000004e4 020021fc             STW     .D2T1   A4,*+SP(132)      ; |119| 
    1838 000004e8     2726             MVK     .L1     0x1,A6            ; |119| 
    1839 000004ea     2c6e             NOP             2
    1840 000004ec 02149c42             ADDAW   .D2     B5,B4,B4          ; |119| 
    1841                    $C$DW$215       .dwtag  DW_TAG_TI_branch
    1842                            .dwattr $C$DW$215, DW_AT_low_pc(0x00)
    1843                            .dwattr $C$DW$215, DW_AT_name("VLIB_getFractional16")
    1844                            .dwattr $C$DW$215, DW_AT_TI_call
    1845                    
    1846 000004f0 10000013!            CALLP   .S2     VLIB_getFractional16,B3
    1847 000004f4     024d  ||         LDH     .D2T1   *B4,A4            ; |119| 
    1848 000004f6     ee27  ||         MVK     .L2     0xf,B4            ; |119| 
    1849                    
    1850 000004f8           $C$RL29:   ; CALL OCCURS {VLIB_getFractional16} {0}  ; |119| 
    1851 000004f8 018029ec             LDW     .D2T1   *+SP(164),A3      ; |119| 
    1852 00000500 022c62e6             LDW     .D2T2   *+B11(12),B4      ; |119| 
    1853 00000504 02800028!            MVKL    .S1     $C$SL4+0,A5
    1854 00000508 028023ee             LDW     .D2T2   *+SP(140),B5      ; |119| 
    1855 0000050c 02800068!            MVKH    .S1     $C$SL4+0,A5
    1856 00000510 018c0264             LDW     .D1T1   *A3,A3            ; |119| 
    1857 00000514 02bc22f4             STW     .D2T1   A5,*+SP(4)        ; |119| 
    1858 00000518 048078ae             LDB     .D2T2   *+SP(120),B9      ; |119| 
    1859                    
    1860 0000051c 0211a803             MPY32   .M2     B13,B4,B4         ; |119| 
    1861 00000520 0f002bec  ||         LDW     .D2T1   *+SP(172),A30     ; |119| 
    1862                    
    1863 00000524 040079ae             LDB     .D2T2   *+SP(121),B8      ; |119| 
    1864 00000528 08807aae             LDB     .D2T2   *+SP(122),B17     ; |119| 
    1865                    
    1866 0000052c 018fe9a1             SHRU    .S1     A3,31,A3          ; |119| 
    1867 00000530 0f802cec  ||         LDW     .D2T1   *+SP(176),A31     ; |119| 
    1868                    
    1869 00000534 0810aa97             LDBU    .D2T2   *+B4[B5],B16      ; |119| 
    1870 00000538 043000a0  ||         SPDP    .S1     A12,A9:A8         ; |119| 
TMS320C6x Assembler PC v7.4.2 Thu Mar 19 12:43:28 2015

Tools Copyright (c) 1996-2012 Texas Instruments Incorporated
package/lib/Regression/regress_d_c/./../packages/ti/vlib/src/VLIB_mixtureOfGaussiansS32/VLIB_mixtureOfGaussiansS32_d.se66 PAGE   35

    1871                    
    1872 0000053c 01bc62f4             STW     .D2T1   A3,*+SP(12)       ; |119| 
    1873                    
    1874 00000540 032800a1             SPDP    .S1     A10,A7:A6         ; |119| 
    1875 00000544 043ca3c4  ||         STDW    .D2T1   A9:A8,*+SP(40)    ; |119| 
    1876                    
    1877 00000548 018021ec             LDW     .D2T1   *+SP(132),A3      ; |119| 
    1878                    
    1879 0000054c 033c63c5             STDW    .D2T1   A7:A6,*+SP(24)    ; |119| 
    1880 00000550 083c00a0  ||         SPDP    .S1     A15,A17:A16       ; |119| 
    1881                    
    1882 00000554 083c42f6             STW     .D2T2   B16,*+SP(8)       ; |119| 
    1883 00000558 083ce3c4             STDW    .D2T1   A17:A16,*+SP(56)  ; |119| 
    1884                    
    1885 0000055c 021000a1             SPDP    .S1     A4,A5:A4          ; |119| 
    1886 00000560 04bc82f6  ||         STW     .D2T2   B9,*+SP(16)       ; |119| 
    1887                    
    1888 00000564 037810a3             SPDP    .S2X    A30,B7:B6         ; |119| 
    1889 00000568 043d82f6  ||         STW     .D2T2   B8,*+SP(48)       ; |119| 
    1890                    
    1891 0000056c 023da3c4             STDW    .D2T1   A5:A4,*+SP(104)   ; |119| 
    1892                    
    1893 00000570 022800a3             SPDP    .S2     B10,B5:B4         ; |119| 
    1894 00000574 040c00a1  ||         SPDP    .S1     A3,A9:A8          ; |119| 
    1895 00000578 08be82f6  ||         STW     .D2T2   B17,*+SP(80)      ; |119| 
    1896                    
    1897 0000057c 033d63c6             STDW    .D2T2   B7:B6,*+SP(88)    ; |119| 
    1898                    
    1899 00000580 023c83c7             STDW    .D2T2   B5:B4,*+SP(32)    ; |119| 
    1900 00000584 037c00a0  ||         SPDP    .S1     A31,A7:A6         ; |119| 
    1901                    
    1902 00000588 023000a3             SPDP    .S2     B12,B5:B4         ; |119| 
    1903 0000058c 043d83c4  ||         STDW    .D2T1   A9:A8,*+SP(96)    ; |119| 
    1904                    
    1905 00000590 033d23c4             STDW    .D2T1   A7:A6,*+SP(72)    ; |119| 
    1906                    $C$DW$216       .dwtag  DW_TAG_TI_branch
    1907                            .dwattr $C$DW$216, DW_AT_low_pc(0x00)
    1908                            .dwattr $C$DW$216, DW_AT_name("printf")
    1909                            .dwattr $C$DW$216, DW_AT_TI_call
    1910                    
    1911 00000594 10000013!            CALLP   .S2     printf,B3
    1912 00000598 023d03c6  ||         STDW    .D2T2   B5:B4,*+SP(64)    ; |119| 
    1913                    
    1914 0000059c           $C$RL30:   ; CALL OCCURS {printf} {0}        ; |119| 
    1915                            .dwpsn  file "./../packages/ti/vlib/src/VLIB_mixtureOfGaussiansS32/VLIB_mixtureOfGaussiansS32_
    1916 0000059c 002c42e6             LDW     .D2T2   *+B11(8),B0       ; |126| 
    1917 000005a0 053fa2e4             LDW     .D2T1   *+SP(116),A10     ; |126| 
    1918 000005a4 00004000             NOP             3
    1919 000005a8 30005c90     [!B0]   B       .S1     $C$L16            ; |126| 
    1920 000005ac           $C$DW$L$VLIB_mixtureOfGaussiansS32_d$19$E:
    1921                    ;** --------------------------------------------------------------------------*
    1922 000005ac           $C$L4:    
    1923                            .dwpsn  file "./../packages/ti/vlib/src/VLIB_mixtureOfGaussiansS32/VLIB_mixtureOfGaussiansS32_
    1924 000005ac           $C$DW$L$VLIB_mixtureOfGaussiansS32_d$20$B:
    1925                    ;          EXCLUSIVE CPU CYCLES: 5
TMS320C6x Assembler PC v7.4.2 Thu Mar 19 12:43:28 2015

Tools Copyright (c) 1996-2012 Texas Instruments Incorporated
package/lib/Regression/regress_d_c/./../packages/ti/vlib/src/VLIB_mixtureOfGaussiansS32/VLIB_mixtureOfGaussiansS32_d.se66 PAGE   36

    1926                    ;**     -----------------------g10:
    1927                    ;** 126 -----------------------    v$1 = prm;
    1928                    ;** 126 -----------------------    if ( (*U$13).staticOut == NULL ) goto g31;
    1929                            .dwpsn  file "./../packages/ti/vlib/src/VLIB_mixtureOfGaussiansS32/VLIB_mixtureOfGaussiansS32_
    1930 000005ac 222c62e6     [ B0]   LDW     .D2T2   *+B11(12),B4      ; |129| 
    1931 000005b0 318020ec     [!B0]   LDW     .D2T1   *+SP(128),A3
    1932 000005b4 00004000             NOP             3
    1933                            .dwpsn  file "./../packages/ti/vlib/src/VLIB_mixtureOfGaussiansS32/VLIB_mixtureOfGaussiansS32_
    1934                               ; BRANCHCC OCCURS {$C$L16}        ; |126| 
    1935 000005b8           $C$DW$L$VLIB_mixtureOfGaussiansS32_d$20$E:
    1936                    ;** --------------------------------------------------------------------------*
    1937 000005b8           $C$DW$L$VLIB_mixtureOfGaussiansS32_d$21$B:
    1938                    ;          EXCLUSIVE CPU CYCLES: 7
    1939                    ;** 129 -----------------------    if ( (*U$13).im_size <= 0 ) goto g20;
    1940                    
    1941 000005b8 01b4aca1             SHL     .S1     A13,5,A3
    1942 000005bc 00100ada  ||         CMPGT   .L2     B4,0,B0           ; |129| 
    1943                    
    1944 000005c0 018dbe41             ADDAD   .D1     A3,A13,A3
    1945 000005c4 30002e11  || [!B0]   B       .S1     $C$L9             ; |129| 
    1946 000005c8 2f8026ec  || [ B0]   LDW     .D2T1   *+SP(152),A31
    1947                    
    1948 000005cc 018d4078             ADD     .L1     A10,A3,A3
    1949 000005d0 220c6264     [ B0]   LDW     .D1T1   *+A3(12),A4
    1950 000005d4 218c4264     [ B0]   LDW     .D1T1   *+A3(8),A3
    1951 000005d8 228ca358     [ B0]   MVK     .L1     3,A5
    1952 000005dc 00000000             NOP             1
    1953                            .dwpsn  file "./../packages/ti/vlib/src/VLIB_mixtureOfGaussiansS32/VLIB_mixtureOfGaussiansS32_
    1954                               ; BRANCHCC OCCURS {$C$L9}         ; |129| 
    1955 000005e0           $C$DW$L$VLIB_mixtureOfGaussiansS32_d$21$E:
    1956                    ;** --------------------------------------------------------------------------*
    1957 000005e0           $C$DW$L$VLIB_mixtureOfGaussiansS32_d$22$B:
    1958                    ;          EXCLUSIVE CPU CYCLES: 10
    1959                    ;**     -----------------------    U$152 = mu;
    1960                    ;**     -----------------------    C$6 = &v$1[tpi];
    1961                    ;**     -----------------------    U$159 = counter*4+(*C$6).staticOut-4;
    1962                    ;**     -----------------------    U$170 = var;
    1963                    ;**     -----------------------    U$178 = wt;
    1964                    ;**     -----------------------    L$1 = _lo(_mpyli(3, (*C$6).im_size));
    1965                    ;** 129 -----------------------    k = 0;
    1966                    ;**     -----------------------    #pragma MUST_ITERATE(1, 2147483647, 1)
    1967                    ;**     -----------------------    #pragma LOOP_FLAGS(5120u)
    1968 000005e0 078025ec             LDW     .D2T1   *+SP(148),A15
    1969                    
    1970 000005e4 0210a571             MPYLI   .M1     A5,A4,A5:A4
    1971 000005e8 0f802bfc  ||         STW     .D2T1   A31,*+SP(172)
    1972                    
    1973 000005ec 018ddc40             ADDAW   .D1     A3,A14,A3
    1974 000005f0 060f8058             SUB     .L1     A3,4,A12
    1975                            .dwpsn  file "./../packages/ti/vlib/src/VLIB_mixtureOfGaussiansS32/VLIB_mixtureOfGaussiansS32_
    1976 000005f4 06308058             ADD     .L1     4,A12,A12         ; |130| 
    1977 000005f8 020021fc             STW     .D2T1   A4,*+SP(132)
    1978 000005fc 023c3664             LDW     .D1T1   *A15++,A4         ; |130| 
    1979 00000600 01b03664             LDW     .D1T1   *A12++,A3         ; |130| 
    1980                            .dwpsn  file "./../packages/ti/vlib/src/VLIB_mixtureOfGaussiansS32/VLIB_mixtureOfGaussiansS32_
TMS320C6x Assembler PC v7.4.2 Thu Mar 19 12:43:28 2015

Tools Copyright (c) 1996-2012 Texas Instruments Incorporated
package/lib/Regression/regress_d_c/./../packages/ti/vlib/src/VLIB_mixtureOfGaussiansS32/VLIB_mixtureOfGaussiansS32_d.se66 PAGE   37

    1981 00000604 0600a35a             ZERO    .L2     B12               ; |129| 
    1982 00000608 050024ee             LDW     .D2T2   *+SP(144),B10
    1983 0000060c           $C$DW$L$VLIB_mixtureOfGaussiansS32_d$22$E:
    1984                    ;*----------------------------------------------------------------------------*
    1985                    ;*   SOFTWARE PIPELINE INFORMATION
    1986                    ;*      Disqualified loop: Loop contains control code
    1987                    ;*----------------------------------------------------------------------------*
    1988 0000060c           $C$L5:    
    1989 0000060c           $C$DW$L$VLIB_mixtureOfGaussiansS32_d$23$B:
    1990                    ;          EXCLUSIVE CPU CYCLES: 9
    1991                    ;**     -----------------------g13:
    1992                    ;** 130 -----------------------    ++U$159;
    1993                    ;** 130 -----------------------    if ( (unsigned)*U$152++ == *U$159++ ) goto g15;
    1994 0000060c     2c6e             NOP             2
    1995                            .dwpsn  file "./../packages/ti/vlib/src/VLIB_mixtureOfGaussiansS32/VLIB_mixtureOfGaussiansS32_
    1996 0000060e     85e8             CMPEQ   .L1     A4,A3,A0          ; |130| 
    1997                    
    1998 00000610 c2802bef     [ A0]   LDW     .D2T2   *+SP(172),B5
    1999 00000614 c0000c11  || [ A0]   B       .S1     $C$L6             ; |130| 
    2000 00000618 d280002b! || [!A0]   MVKL    .S2     $C$SL5+0,B5
    2001 00000620 c1b03664  || [ A0]   LDW     .D1T1   *A12++,A3         ; |134| 
    2002                    
    2003                            .dwpsn  file "./../packages/ti/vlib/src/VLIB_mixtureOfGaussiansS32/VLIB_mixtureOfGaussiansS32_
    2004 00000624 d1b0bda0     [!A0]   SHR     .S1X    B12,5,A3          ; |131| 
    2005 00000628 d280006a!    [!A0]   MVKH    .S2     $C$SL5+0,B5
    2006 0000062c d2337b0a     [!A0]   EXTU    .S2     B12,27,27,B4      ; |131| 
    2007                    $C$DW$217       .dwtag  DW_TAG_TI_branch
    2008                            .dwattr $C$DW$217, DW_AT_low_pc(0x00)
    2009                            .dwattr $C$DW$217, DW_AT_name("printf")
    2010                            .dwattr $C$DW$217, DW_AT_TI_call
    2011 00000630 d0000010!    [!A0]   CALL    .S1     printf            ; |131| 
    2012                            .dwpsn  file "./../packages/ti/vlib/src/VLIB_mixtureOfGaussiansS32/VLIB_mixtureOfGaussiansS32_
    2013 00000634 c21436e6     [ A0]   LDW     .D2T2   *B5++,B4          ; |134| 
    2014                            .dwpsn  file "./../packages/ti/vlib/src/VLIB_mixtureOfGaussiansS32/VLIB_mixtureOfGaussiansS32_
    2015                               ; BRANCHCC OCCURS {$C$L6}         ; |130| 
    2016 00000638           $C$DW$L$VLIB_mixtureOfGaussiansS32_d$23$E:
    2017                    ;** --------------------------------------------------------------------------*
    2018 00000638           $C$DW$L$VLIB_mixtureOfGaussiansS32_d$24$B:
    2019                    ;          EXCLUSIVE CPU CYCLES: 4
    2020                    ;** 131 -----------------------    printf((const char *)"\tError in Mean: Image %d, Pixel %d, Mode %d\
    2021                    ;** 132 -----------------------    status_nat_vs_ref = 0;
    2022                            .dwpsn  file "./../packages/ti/vlib/src/VLIB_mixtureOfGaussiansS32/VLIB_mixtureOfGaussiansS32_
    2023 00000638     bc55             STW     .D2T2   B5,*+SP(4)        ; |131| 
    2024 0000063a     8cb5             STW     .D2T1   A3,*+SP(16)       ; |131| 
    2025 00000640 023c62f6             STW     .D2T2   B4,*+SP(12)       ; |131| 
    2026                    
    2027 00000644 06bc42f7             STW     .D2T2   B13,*+SP(8)       ; |131| 
    2028 00000648 01830162  ||         ADDKPC  .S2     $C$RL31,B3,0      ; |131| 
    2029                    
    2030 0000064c           $C$RL31:   ; CALL OCCURS {printf} {0}        ; |131| 
    2031 0000064c           $C$DW$L$VLIB_mixtureOfGaussiansS32_d$24$E:
    2032                    ;** --------------------------------------------------------------------------*
    2033 0000064c           $C$DW$L$VLIB_mixtureOfGaussiansS32_d$25$B:
    2034                    ;          EXCLUSIVE CPU CYCLES: 6
    2035 0000064c 02802bee             LDW     .D2T2   *+SP(172),B5
TMS320C6x Assembler PC v7.4.2 Thu Mar 19 12:43:28 2015

Tools Copyright (c) 1996-2012 Texas Instruments Incorporated
package/lib/Regression/regress_d_c/./../packages/ti/vlib/src/VLIB_mixtureOfGaussiansS32/VLIB_mixtureOfGaussiansS32_d.se66 PAGE   38

    2036                            .dwpsn  file "./../packages/ti/vlib/src/VLIB_mixtureOfGaussiansS32/VLIB_mixtureOfGaussiansS32_
    2037 00000650 01b03664             LDW     .D1T1   *A12++,A3         ; |134| 
    2038                            .dwpsn  file "./../packages/ti/vlib/src/VLIB_mixtureOfGaussiansS32/VLIB_mixtureOfGaussiansS32_
    2039 00000654 0580a358             ZERO    .L1     A11               ; |132| 
    2040 00000658     2c6e             NOP             2
    2041                            .dwpsn  file "./../packages/ti/vlib/src/VLIB_mixtureOfGaussiansS32/VLIB_mixtureOfGaussiansS32_
    2042 0000065a     1ccd             LDW     .D2T2   *B5++,B4          ; |134| 
    2043 00000660           $C$DW$L$VLIB_mixtureOfGaussiansS32_d$25$E:
    2044                    ;** --------------------------------------------------------------------------*
    2045 00000660           $C$L6:    
    2046                            .dwpsn  file "./../packages/ti/vlib/src/VLIB_mixtureOfGaussiansS32/VLIB_mixtureOfGaussiansS32_
    2047 00000660           $C$DW$L$VLIB_mixtureOfGaussiansS32_d$26$B:
    2048                    ;          EXCLUSIVE CPU CYCLES: 11
    2049                    ;**     -----------------------g15:
    2050                    ;** 134 -----------------------    if ( (unsigned)*U$170++ == *U$159++ ) goto g17;
    2051                            .dwpsn  file "./../packages/ti/vlib/src/VLIB_mixtureOfGaussiansS32/VLIB_mixtureOfGaussiansS32_
    2052 00000660 02802bfe             STW     .D2T2   B5,*+SP(172)      ; |134| 
    2053 00000664     4c6e             NOP             3
    2054 00000666     7668             CMPEQ   .L1X    B4,A3,A0          ; |134| 
    2055                    
    2056 00000668 c1b00265     [ A0]   LDW     .D1T1   *A12,A3           ; |138| 
    2057 0000066c c22836c7  || [ A0]   LDH     .D2T2   *B10++,B4         ; |138| 
    2058 00000670 c0000c11  || [ A0]   B       .S1     $C$L7             ; |134| 
    2059 00000674 d280002a! || [!A0]   MVKL    .S2     $C$SL6+0,B5
    2060                    
    2061                            .dwpsn  file "./../packages/ti/vlib/src/VLIB_mixtureOfGaussiansS32/VLIB_mixtureOfGaussiansS32_
    2062 00000678 d1b0bda0     [!A0]   SHR     .S1X    B12,5,A3          ; |135| 
    2063 00000680 d280006a!    [!A0]   MVKH    .S2     $C$SL6+0,B5
    2064 00000684 d2337b0a     [!A0]   EXTU    .S2     B12,27,27,B4      ; |135| 
    2065                    $C$DW$218       .dwtag  DW_TAG_TI_branch
    2066                            .dwattr $C$DW$218, DW_AT_low_pc(0x00)
    2067                            .dwattr $C$DW$218, DW_AT_name("printf")
    2068                            .dwattr $C$DW$218, DW_AT_TI_call
    2069 00000688 d0000010!    [!A0]   CALL    .S1     printf            ; |135| 
    2070                            .dwpsn  file "./../packages/ti/vlib/src/VLIB_mixtureOfGaussiansS32/VLIB_mixtureOfGaussiansS32_
    2071 0000068c c0107a78     [ A0]   CMPEQ   .L1X    B4,A3,A0          ; |138| 
    2072                            .dwpsn  file "./../packages/ti/vlib/src/VLIB_mixtureOfGaussiansS32/VLIB_mixtureOfGaussiansS32_
    2073                               ; BRANCHCC OCCURS {$C$L7}         ; |134| 
    2074 00000690           $C$DW$L$VLIB_mixtureOfGaussiansS32_d$26$E:
    2075                    ;** --------------------------------------------------------------------------*
    2076 00000690           $C$DW$L$VLIB_mixtureOfGaussiansS32_d$27$B:
    2077                    ;          EXCLUSIVE CPU CYCLES: 4
    2078                    ;** 135 -----------------------    printf((const char *)"\tError in Variance: Image %d, Pixel %d, Mode
    2079                    ;** 136 -----------------------    status_nat_vs_ref = 0;
    2080                            .dwpsn  file "./../packages/ti/vlib/src/VLIB_mixtureOfGaussiansS32/VLIB_mixtureOfGaussiansS32_
    2081 00000690     bc55             STW     .D2T2   B5,*+SP(4)        ; |135| 
    2082 00000692     fc45             STW     .D2T2   B4,*+SP(12)       ; |135| 
    2083 00000694 01bc82f4             STW     .D2T1   A3,*+SP(16)       ; |135| 
    2084                    
    2085 00000698 06bc42f7             STW     .D2T2   B13,*+SP(8)       ; |135| 
    2086 000006a0 01810162  ||         ADDKPC  .S2     $C$RL32,B3,0      ; |135| 
    2087                    
    2088 000006a4           $C$RL32:   ; CALL OCCURS {printf} {0}        ; |135| 
    2089 000006a4           $C$DW$L$VLIB_mixtureOfGaussiansS32_d$27$E:
    2090                    ;** --------------------------------------------------------------------------*
TMS320C6x Assembler PC v7.4.2 Thu Mar 19 12:43:28 2015

Tools Copyright (c) 1996-2012 Texas Instruments Incorporated
package/lib/Regression/regress_d_c/./../packages/ti/vlib/src/VLIB_mixtureOfGaussiansS32/VLIB_mixtureOfGaussiansS32_d.se66 PAGE   39

    2091 000006a4           $C$DW$L$VLIB_mixtureOfGaussiansS32_d$28$B:
    2092                    ;          EXCLUSIVE CPU CYCLES: 6
    2093                    
    2094 000006a4 022836c7             LDH     .D2T2   *B10++,B4         ; |138| 
    2095 000006a8 01b00264  ||         LDW     .D1T1   *A12,A3           ; |138| 
    2096                    
    2097                            .dwpsn  file "./../packages/ti/vlib/src/VLIB_mixtureOfGaussiansS32/VLIB_mixtureOfGaussiansS32_
    2098 000006ac 0580a358             ZERO    .L1     A11               ; |136| 
    2099 000006b0     4c6e             NOP             3
    2100                            .dwpsn  file "./../packages/ti/vlib/src/VLIB_mixtureOfGaussiansS32/VLIB_mixtureOfGaussiansS32_
    2101 000006b2     7668             CMPEQ   .L1X    B4,A3,A0          ; |138| 
    2102 000006c0           $C$DW$L$VLIB_mixtureOfGaussiansS32_d$28$E:
    2103                    ;** --------------------------------------------------------------------------*
    2104 000006c0           $C$L7:    
    2105                            .dwpsn  file "./../packages/ti/vlib/src/VLIB_mixtureOfGaussiansS32/VLIB_mixtureOfGaussiansS32_
    2106 000006c0           $C$DW$L$VLIB_mixtureOfGaussiansS32_d$29$B:
    2107                    ;          EXCLUSIVE CPU CYCLES: 6
    2108                    ;**     -----------------------g17:
    2109                    ;** 138 -----------------------    if ( (unsigned)*U$178++ == *U$159 ) goto g19;
    2110                    
    2111 000006c0 c0000a11     [ A0]   B       .S1     $C$L8             ; |138| 
    2112 000006c4 c20021ef  || [ A0]   LDW     .D2T2   *+SP(132),B4
    2113 000006c8 d280002b! || [!A0]   MVKL    .S2     $C$SL7+0,B5
    2114 000006cc c7386059  || [ A0]   ADD     .L1     3,A14,A14         ; |130| 
    2115 000006d0 c630205a  || [ A0]   ADD     .L2     1,B12,B12         ; |129| 
    2116                    
    2117                            .dwpsn  file "./../packages/ti/vlib/src/VLIB_mixtureOfGaussiansS32/VLIB_mixtureOfGaussiansS32_
    2118 000006d4 d1b0bda0     [!A0]   SHR     .S1X    B12,5,A3          ; |139| 
    2119 000006d8 d280006a!    [!A0]   MVKH    .S2     $C$SL7+0,B5
    2120 000006dc d2337b0a     [!A0]   EXTU    .S2     B12,27,27,B4      ; |139| 
    2121                    $C$DW$219       .dwtag  DW_TAG_TI_branch
    2122                            .dwattr $C$DW$219, DW_AT_low_pc(0x00)
    2123                            .dwattr $C$DW$219, DW_AT_name("printf")
    2124                            .dwattr $C$DW$219, DW_AT_TI_call
    2125 000006e0 d0000010!    [!A0]   CALL    .S1     printf            ; |139| 
    2126                            .dwpsn  file "./../packages/ti/vlib/src/VLIB_mixtureOfGaussiansS32/VLIB_mixtureOfGaussiansS32_
    2127 000006e4 c013f058     [ A0]   SUB     .L1X    B4,1,A0           ; |129| 
    2128                            .dwpsn  file "./../packages/ti/vlib/src/VLIB_mixtureOfGaussiansS32/VLIB_mixtureOfGaussiansS32_
    2129                               ; BRANCHCC OCCURS {$C$L8}         ; |138| 
    2130 000006e8           $C$DW$L$VLIB_mixtureOfGaussiansS32_d$29$E:
    2131                    ;** --------------------------------------------------------------------------*
    2132 000006e8           $C$DW$L$VLIB_mixtureOfGaussiansS32_d$30$B:
    2133                    ;          EXCLUSIVE CPU CYCLES: 4
    2134                    ;** 139 -----------------------    printf((const char *)"\tError in Weight: Image %d, Pixel %d, Mode %
    2135                    ;** 140 -----------------------    status_nat_vs_ref = 0;
    2136                            .dwpsn  file "./../packages/ti/vlib/src/VLIB_mixtureOfGaussiansS32/VLIB_mixtureOfGaussiansS32_
    2137 000006e8     bc55             STW     .D2T2   B5,*+SP(4)        ; |139| 
    2138 000006ea     8cb5             STW     .D2T1   A3,*+SP(16)       ; |139| 
    2139 000006ec 023c62f6             STW     .D2T2   B4,*+SP(12)       ; |139| 
    2140                    
    2141 000006f0 06bc42f7             STW     .D2T2   B13,*+SP(8)       ; |139| 
    2142 000006f4 01860162  ||         ADDKPC  .S2     $C$RL33,B3,0      ; |139| 
    2143                    
    2144 000006f8           $C$RL33:   ; CALL OCCURS {printf} {0}        ; |139| 
    2145 000006f8           $C$DW$L$VLIB_mixtureOfGaussiansS32_d$30$E:
TMS320C6x Assembler PC v7.4.2 Thu Mar 19 12:43:28 2015

Tools Copyright (c) 1996-2012 Texas Instruments Incorporated
package/lib/Regression/regress_d_c/./../packages/ti/vlib/src/VLIB_mixtureOfGaussiansS32/VLIB_mixtureOfGaussiansS32_d.se66 PAGE   40

    2146                    ;** --------------------------------------------------------------------------*
    2147 000006f8           $C$DW$L$VLIB_mixtureOfGaussiansS32_d$31$B:
    2148                    ;          EXCLUSIVE CPU CYCLES: 6
    2149 000006f8 020021ee             LDW     .D2T2   *+SP(132),B4
    2150                            .dwpsn  file "./../packages/ti/vlib/src/VLIB_mixtureOfGaussiansS32/VLIB_mixtureOfGaussiansS32_
    2151 00000700 0580a358             ZERO    .L1     A11               ; |140| 
    2152                            .dwpsn  file "./../packages/ti/vlib/src/VLIB_mixtureOfGaussiansS32/VLIB_mixtureOfGaussiansS32_
    2153 00000704 0630205a             ADD     .L2     1,B12,B12         ; |129| 
    2154                            .dwpsn  file "./../packages/ti/vlib/src/VLIB_mixtureOfGaussiansS32/VLIB_mixtureOfGaussiansS32_
    2155 00000708 07386058             ADD     .L1     3,A14,A14         ; |130| 
    2156 0000070c     0c6e             NOP             1
    2157                            .dwpsn  file "./../packages/ti/vlib/src/VLIB_mixtureOfGaussiansS32/VLIB_mixtureOfGaussiansS32_
    2158 0000070e     fe00             SUB     .L1X    B4,1,A0           ; |129| 
    2159 00000710           $C$DW$L$VLIB_mixtureOfGaussiansS32_d$31$E:
    2160                    ;** --------------------------------------------------------------------------*
    2161 00000710           $C$L8:    
    2162                            .dwpsn  file "./../packages/ti/vlib/src/VLIB_mixtureOfGaussiansS32/VLIB_mixtureOfGaussiansS32_
    2163 00000710           $C$DW$L$VLIB_mixtureOfGaussiansS32_d$32$B:
    2164                    ;          EXCLUSIVE CPU CYCLES: 6
    2165                    ;**     -----------------------g19:
    2166                    ;** 129 -----------------------    ++k;
    2167                    ;** 130 -----------------------    counter += 3;
    2168                    ;** 129 -----------------------    if ( L$1 = L$1-1 ) goto g13;
    2169                    
    2170 00000710 cfffe191     [ A0]   B       .S1     $C$L5             ; |129| 
    2171 00000718 0213e05a  ||         SUB     .L2     B4,1,B4           ; |129| 
    2172 00000714 c6308059  || [ A0]   ADD     .L1     4,A12,A12         ; |130| 
    2173                    
    2174                            .dwpsn  file "./../packages/ti/vlib/src/VLIB_mixtureOfGaussiansS32/VLIB_mixtureOfGaussiansS32_
    2175 00000720 020021fe             STW     .D2T2   B4,*+SP(132)      ; |129| 
    2176                            .dwpsn  file "./../packages/ti/vlib/src/VLIB_mixtureOfGaussiansS32/VLIB_mixtureOfGaussiansS32_
    2177 00000724 c23c3664     [ A0]   LDW     .D1T1   *A15++,A4         ; |130| 
    2178 00000728 c1b03664     [ A0]   LDW     .D1T1   *A12++,A3         ; |130| 
    2179 0000072c 00002000             NOP             2
    2180                            .dwpsn  file "./../packages/ti/vlib/src/VLIB_mixtureOfGaussiansS32/VLIB_mixtureOfGaussiansS32_
    2181                               ; BRANCHCC OCCURS {$C$L5}         ; |129| 
    2182 00000730           $C$DW$L$VLIB_mixtureOfGaussiansS32_d$32$E:
    2183                    ;** --------------------------------------------------------------------------*
    2184 00000730           $C$L9:    
    2185 00000730           $C$DW$L$VLIB_mixtureOfGaussiansS32_d$33$B:
    2186                    ;          EXCLUSIVE CPU CYCLES: 18
    2187                    ;**     -----------------------g20:
    2188                    ;** 144 -----------------------    if ( (U$186 = (*(U$12+v$1)).im_size) <= 0 ) goto g25;
    2189 00000730 018020ec             LDW     .D2T1   *+SP(128),A3
    2190 00000734 00006000             NOP             4
    2191                            .dwpsn  file "./../packages/ti/vlib/src/VLIB_mixtureOfGaussiansS32/VLIB_mixtureOfGaussiansS32_
    2192 00000738 018d4078             ADD     .L1     A10,A3,A3         ; |144| 
    2193 0000073c 050c6266             LDW     .D1T2   *+A3(12),B10      ; |144| 
    2194 00000740 01b4aca0             SHL     .S1     A13,5,A3
    2195 00000744 018dbe40             ADDAD   .D1     A3,A13,A3
    2196 00000748 018d4078             ADD     .L1     A10,A3,A3
    2197 0000074c 00000000             NOP             1
    2198 00000750 00280ada             CMPGT   .L2     B10,0,B0          ; |144| 
    2199                    
    2200 00000754 30288121     [!B0]   BNOP    .S1     $C$L12,4          ; |144| 
TMS320C6x Assembler PC v7.4.2 Thu Mar 19 12:43:28 2015

Tools Copyright (c) 1996-2012 Texas Instruments Incorporated
package/lib/Regression/regress_d_c/./../packages/ti/vlib/src/VLIB_mixtureOfGaussiansS32/VLIB_mixtureOfGaussiansS32_d.se66 PAGE   41

    2201 00000758 218c4265  || [ B0]   LDW     .D1T1   *+A3(8),A3
    2202 0000075c 260027ee  || [ B0]   LDW     .D2T2   *+SP(156),B12     ; |145| 
    2203                    
    2204 00000760 018ddc40             ADDAW   .D1     A3,A14,A3
    2205                               ; BRANCHCC OCCURS {$C$L12}        ; |144| 
    2206 00000764           $C$DW$L$VLIB_mixtureOfGaussiansS32_d$33$E:
    2207                    ;** --------------------------------------------------------------------------*
    2208 00000764           $C$DW$L$VLIB_mixtureOfGaussiansS32_d$34$B:
    2209                    ;          EXCLUSIVE CPU CYCLES: 5
    2210                    ;**     -----------------------    U$159 = counter*4+(v$1[tpi]).staticOut-4;
    2211                    ;**     -----------------------    U$194 = compNum;
    2212                    ;** 145 -----------------------    L$2 = U$186;
    2213                    ;** 145 -----------------------    counter += L$2;
    2214                    ;** 144 -----------------------    k = 0;
    2215                    ;**     -----------------------    #pragma MUST_ITERATE(1, 18446744073709551615, 1)
    2216                    ;**     -----------------------    #pragma LOOP_FLAGS(5120u)
    2217                    
    2218 00000764 050021ff             STW     .D2T2   B10,*+SP(132)     ; |145| 
    2219 00000768 078f8058  ||         SUB     .L1     A3,4,A15
    2220                    
    2221 0000076c 01bc3265             LDW     .D1T1   *++A15,A3         ; |145| 
    2222 00000770 02303696  ||         LDBU    .D2T2   *B12++,B4         ; |145| 
    2223                    
    2224                            .dwpsn  file "./../packages/ti/vlib/src/VLIB_mixtureOfGaussiansS32/VLIB_mixtureOfGaussiansS32_
    2225 00000774 0600a358             ZERO    .L1     A12               ; |144| 
    2226                            .dwpsn  file "./../packages/ti/vlib/src/VLIB_mixtureOfGaussiansS32/VLIB_mixtureOfGaussiansS32_
    2227 00000778 0729d078             ADD     .L1X    B10,A14,A14       ; |145| 
    2228 0000077c 00000000             NOP             1
    2229 00000780           $C$DW$L$VLIB_mixtureOfGaussiansS32_d$34$E:
    2230                    ;*----------------------------------------------------------------------------*
    2231                    ;*   SOFTWARE PIPELINE INFORMATION
    2232                    ;*      Disqualified loop: Loop contains control code
    2233                    ;*----------------------------------------------------------------------------*
    2234 00000780           $C$L10:    
    2235                            .dwpsn  file "./../packages/ti/vlib/src/VLIB_mixtureOfGaussiansS32/VLIB_mixtureOfGaussiansS32_
    2236 00000780           $C$DW$L$VLIB_mixtureOfGaussiansS32_d$35$B:
    2237                    ;          EXCLUSIVE CPU CYCLES: 8
    2238                    ;**     -----------------------g22:
    2239                    ;** 145 -----------------------    if ( (unsigned)*U$194++ == *(++U$159) ) goto g24;
    2240 00000780     0c6e             NOP             1
    2241                            .dwpsn  file "./../packages/ti/vlib/src/VLIB_mixtureOfGaussiansS32/VLIB_mixtureOfGaussiansS32_
    2242 00000782     7668             CMPEQ   .L1X    B4,A3,A0          ; |145| 
    2243                    
    2244 00000784 c0242121     [ A0]   BNOP    .S1     $C$L11,1          ; |145| 
    2245 00000788 c20021ef  || [ A0]   LDW     .D2T2   *+SP(132),B4
    2246 0000078c d200002b! || [!A0]   MVKL    .S2     $C$SL8+0,B4
    2247 00000790 c6302058  || [ A0]   ADD     .L1     1,A12,A12         ; |144| 
    2248                    
    2249                            .dwpsn  file "./../packages/ti/vlib/src/VLIB_mixtureOfGaussiansS32/VLIB_mixtureOfGaussiansS32_
    2250 00000794 d1b37b08     [!A0]   EXTU    .S1     A12,27,27,A3      ; |146| 
    2251                    $C$DW$220       .dwtag  DW_TAG_TI_branch
    2252                            .dwattr $C$DW$220, DW_AT_low_pc(0x00)
    2253                            .dwattr $C$DW$220, DW_AT_name("printf")
    2254                            .dwattr $C$DW$220, DW_AT_TI_call
    2255 00000798 d0000010!    [!A0]   CALL    .S1     printf            ; |146| 
TMS320C6x Assembler PC v7.4.2 Thu Mar 19 12:43:28 2015

Tools Copyright (c) 1996-2012 Texas Instruments Incorporated
package/lib/Regression/regress_d_c/./../packages/ti/vlib/src/VLIB_mixtureOfGaussiansS32/VLIB_mixtureOfGaussiansS32_d.se66 PAGE   42

    2256 000007a0 d200006a!    [!A0]   MVKH    .S2     $C$SL8+0,B4
    2257                            .dwpsn  file "./../packages/ti/vlib/src/VLIB_mixtureOfGaussiansS32/VLIB_mixtureOfGaussiansS32_
    2258 000007a4 c013f058     [ A0]   SUB     .L1X    B4,1,A0           ; |144| 
    2259                            .dwpsn  file "./../packages/ti/vlib/src/VLIB_mixtureOfGaussiansS32/VLIB_mixtureOfGaussiansS32_
    2260                               ; BRANCHCC OCCURS {$C$L11}        ; |145| 
    2261 000007a8           $C$DW$L$VLIB_mixtureOfGaussiansS32_d$35$E:
    2262                    ;** --------------------------------------------------------------------------*
    2263 000007a8           $C$DW$L$VLIB_mixtureOfGaussiansS32_d$36$B:
    2264                    ;          EXCLUSIVE CPU CYCLES: 3
    2265                    ;** 146 -----------------------    printf((const char *)"\tError in Component index: Image %d, Pixel %
    2266                    ;** 147 -----------------------    status_nat_vs_ref = 0;
    2267                            .dwpsn  file "./../packages/ti/vlib/src/VLIB_mixtureOfGaussiansS32/VLIB_mixtureOfGaussiansS32_
    2268 000007a8     bc45             STW     .D2T2   B4,*+SP(4)        ; |146| 
    2269 000007aa     ec35             STW     .D2T1   A3,*+SP(12)       ; |146| 
    2270                    
    2271 000007ac 06bc42f7             STW     .D2T2   B13,*+SP(8)       ; |146| 
    2272 000007b0 01850162  ||         ADDKPC  .S2     $C$RL34,B3,0      ; |146| 
    2273                    
    2274 000007b4           $C$RL34:   ; CALL OCCURS {printf} {0}        ; |146| 
    2275 000007b4           $C$DW$L$VLIB_mixtureOfGaussiansS32_d$36$E:
    2276                    ;** --------------------------------------------------------------------------*
    2277 000007b4           $C$DW$L$VLIB_mixtureOfGaussiansS32_d$37$B:
    2278                    ;          EXCLUSIVE CPU CYCLES: 6
    2279 000007b4 020021ee             LDW     .D2T2   *+SP(132),B4
    2280                            .dwpsn  file "./../packages/ti/vlib/src/VLIB_mixtureOfGaussiansS32/VLIB_mixtureOfGaussiansS32_
    2281 000007b8 0580a358             ZERO    .L1     A11               ; |147| 
    2282                            .dwpsn  file "./../packages/ti/vlib/src/VLIB_mixtureOfGaussiansS32/VLIB_mixtureOfGaussiansS32_
    2283 000007c0 06302058             ADD     .L1     1,A12,A12         ; |144| 
    2284 000007c4     2c6e             NOP             2
    2285 000007c6     fe00             SUB     .L1X    B4,1,A0           ; |144| 
    2286 000007c8           $C$DW$L$VLIB_mixtureOfGaussiansS32_d$37$E:
    2287                    ;** --------------------------------------------------------------------------*
    2288 000007c8           $C$L11:    
    2289                            .dwpsn  file "./../packages/ti/vlib/src/VLIB_mixtureOfGaussiansS32/VLIB_mixtureOfGaussiansS32_
    2290 000007c8           $C$DW$L$VLIB_mixtureOfGaussiansS32_d$38$B:
    2291                    ;          EXCLUSIVE CPU CYCLES: 6
    2292                    ;**     -----------------------g24:
    2293                    ;** 144 -----------------------    ++k;
    2294                    ;** 144 -----------------------    if ( L$2 = L$2-1 ) goto g22;
    2295                    
    2296 000007c8     ee41             SUB     .L2     B4,1,B4           ; |144| 
    2297 000007ca     182a  || [ A0]   B       .S1     $C$L10            ; |144| 
    2298                    
    2299                            .dwpsn  file "./../packages/ti/vlib/src/VLIB_mixtureOfGaussiansS32/VLIB_mixtureOfGaussiansS32_
    2300 000007cc 020021fe             STW     .D2T2   B4,*+SP(132)      ; |144| 
    2301                    
    2302 000007d0 c2303697     [ A0]   LDBU    .D2T2   *B12++,B4         ; |145| 
    2303 000007d4 c1bc3264  || [ A0]   LDW     .D1T1   *++A15,A3         ; |145| 
    2304                    
    2305 000007d8 00004000             NOP             3
    2306                               ; BRANCHCC OCCURS {$C$L10}        ; |144| 
    2307 000007e0           $C$DW$L$VLIB_mixtureOfGaussiansS32_d$38$E:
    2308                    ;** --------------------------------------------------------------------------*
    2309 000007e0           $C$L12:    
    2310 000007e0           $C$DW$L$VLIB_mixtureOfGaussiansS32_d$39$B:
TMS320C6x Assembler PC v7.4.2 Thu Mar 19 12:43:28 2015

Tools Copyright (c) 1996-2012 Texas Instruments Incorporated
package/lib/Regression/regress_d_c/./../packages/ti/vlib/src/VLIB_mixtureOfGaussiansS32/VLIB_mixtureOfGaussiansS32_d.se66 PAGE   43

    2311                    ;          EXCLUSIVE CPU CYCLES: 7
    2312                    ;**     -----------------------g25:
    2313                    ;** 151 -----------------------    if ( U$186 <= 0 ) goto g30;
    2314                    
    2315 000007e0 00280adb             CMPGT   .L2     B10,0,B0          ; |151| 
    2316 000007e4 01b4aca0  ||         SHL     .S1     A13,5,A3
    2317                    
    2318 000007e8 30001291     [!B0]   B       .S1     $C$L15            ; |151| 
    2319 000007ec 018dbe41  ||         ADDAD   .D1     A3,A13,A3
    2320 000007f0 2f8029ec  || [ B0]   LDW     .D2T1   *+SP(164),A31     ; |152| 
    2321                    
    2322 000007f4 018d4078             ADD     .L1     A10,A3,A3
    2323 000007f8 220c4264     [ B0]   LDW     .D1T1   *+A3(8),A4
    2324 000007fc 00004000             NOP             3
    2325                            .dwpsn  file "./../packages/ti/vlib/src/VLIB_mixtureOfGaussiansS32/VLIB_mixtureOfGaussiansS32_
    2326                               ; BRANCHCC OCCURS {$C$L15}        ; |151| 
    2327 00000800           $C$DW$L$VLIB_mixtureOfGaussiansS32_d$39$E:
    2328                    ;** --------------------------------------------------------------------------*
    2329 00000800           $C$DW$L$VLIB_mixtureOfGaussiansS32_d$40$B:
    2330                    ;          EXCLUSIVE CPU CYCLES: 6
    2331                    ;**     -----------------------    U$138 = *Im_mask;
    2332                    ;**     -----------------------    U$205 = *(counter*4+(v$1[tpi]).staticOut);
    2333                    ;** 152 -----------------------    L$3 = U$186;
    2334                    ;** 151 -----------------------    k = 0;
    2335                    ;**     -----------------------    #pragma MUST_ITERATE(1, 18446744073709551615, 1)
    2336                    ;**     -----------------------    #pragma LOOP_FLAGS(5120u)
    2337 00000800 067c0266             LDW     .D1T2   *A31,B12
    2338 00000804 0791ca64             LDW     .D1T1   *+A4[A14],A15
    2339                            .dwpsn  file "./../packages/ti/vlib/src/VLIB_mixtureOfGaussiansS32/VLIB_mixtureOfGaussiansS32_
    2340 00000808 0600a358             ZERO    .L1     A12               ; |151| 
    2341 0000080c     4c6e             NOP             3
    2342 0000080e           $C$DW$L$VLIB_mixtureOfGaussiansS32_d$40$E:
    2343                    ;*----------------------------------------------------------------------------*
    2344                    ;*   SOFTWARE PIPELINE INFORMATION
    2345                    ;*      Disqualified loop: Loop contains control code
    2346                    ;*----------------------------------------------------------------------------*
    2347 0000080e           $C$L13:    
    2348 0000080e           $C$DW$L$VLIB_mixtureOfGaussiansS32_d$41$B:
    2349                    ;          EXCLUSIVE CPU CYCLES: 10
    2350                    ;**     -----------------------g27:
    2351                    ;** 152 -----------------------    if ( (U$138>>k&1u) == (U$205>>k&1u) ) goto g29;
    2352                    
    2353 0000080e     7606             MV      .L1X    B12,A3            ; |152| 
    2354 00000810 023d89e0  ||         SHRU    .S1     A15,A12,A4        ; |152| 
    2355                    
    2356                            .dwpsn  file "./../packages/ti/vlib/src/VLIB_mixtureOfGaussiansS32/VLIB_mixtureOfGaussiansS32_
    2357 00000814 018d89e0             SHRU    .S1     A3,A12,A3         ; |152| 
    2358                    
    2359 00000818 020c2f59             AND     .L1     1,A3,A4           ; |152| 
    2360 00000820 019027a0  ||         AND     .S1     1,A4,A3           ; |152| 
    2361                    
    2362 00000824     85e8             CMPEQ   .L1     A4,A3,A0          ; |152| 
    2363                    
    2364 00000828 c0292121     [ A0]   BNOP    .S1     $C$L14,1          ; |152| 
    2365 00000826     2046  ||         MV      .L1     A0,A1             ; guard predicate rewrite
TMS320C6x Assembler PC v7.4.2 Thu Mar 19 12:43:28 2015

Tools Copyright (c) 1996-2012 Texas Instruments Incorporated
package/lib/Regression/regress_d_c/./../packages/ti/vlib/src/VLIB_mixtureOfGaussiansS32/VLIB_mixtureOfGaussiansS32_d.se66 PAGE   44

    2366 0000082c d200002b! || [!A0]   MVKL    .S2     $C$SL9+0,B4
    2367 00000830 c6302940  || [ A0]   ADD     .D1     1,A12,A12         ; |151| 
    2368                    
    2369 00000834 d200006a!    [!A0]   MVKH    .S2     $C$SL9+0,B4
    2370                    $C$DW$221       .dwtag  DW_TAG_TI_branch
    2371                            .dwattr $C$DW$221, DW_AT_low_pc(0x00)
    2372                            .dwattr $C$DW$221, DW_AT_name("printf")
    2373                            .dwattr $C$DW$221, DW_AT_TI_call
    2374                    
    2375 00000838 d0000011!    [!A0]   CALL    .S1     printf            ; |153| 
    2376 00000840 c02bf059  || [ A0]   SUB     .L1X    B10,1,A0          ; |151| 
    2377 00000844 852be05a  || [ A1]   SUB     .L2     B10,1,B10         ; |151| 
    2378                    
    2379                            .dwpsn  file "./../packages/ti/vlib/src/VLIB_mixtureOfGaussiansS32/VLIB_mixtureOfGaussiansS32_
    2380 00000848 9000a358     [!A1]   ZERO    .L1     A0                ; |151| nullify predicate
    2381 0000084c     19ea     [ A0]   B       .S1     $C$L13            ; |151| 
    2382                            .dwpsn  file "./../packages/ti/vlib/src/VLIB_mixtureOfGaussiansS32/VLIB_mixtureOfGaussiansS32_
    2383                               ; BRANCHCC OCCURS {$C$L14}        ; |152| 
    2384 0000084e           $C$DW$L$VLIB_mixtureOfGaussiansS32_d$41$E:
    2385                    ;** --------------------------------------------------------------------------*
    2386 0000084e           $C$DW$L$VLIB_mixtureOfGaussiansS32_d$42$B:
    2387                    ;          EXCLUSIVE CPU CYCLES: 3
    2388                    ;** 153 -----------------------    printf((const char *)"\tError in Foreground Mask: Image %d, Pixel %
    2389                    ;** 154 -----------------------    status_nat_vs_ref = 0;
    2390                            .dwpsn  file "./../packages/ti/vlib/src/VLIB_mixtureOfGaussiansS32/VLIB_mixtureOfGaussiansS32_
    2391 0000084e     bc45             STW     .D2T2   B4,*+SP(4)        ; |153| 
    2392 00000850 063c62f4             STW     .D2T1   A12,*+SP(12)      ; |153| 
    2393                    
    2394 00000854 06bc42f7             STW     .D2T2   B13,*+SP(8)       ; |153| 
    2395 00000858 01880162  ||         ADDKPC  .S2     $C$RL35,B3,0      ; |153| 
    2396                    
    2397 00000860           $C$RL35:   ; CALL OCCURS {printf} {0}        ; |153| 
    2398 00000860           $C$DW$L$VLIB_mixtureOfGaussiansS32_d$42$E:
    2399                    ;** --------------------------------------------------------------------------*
    2400 00000860           $C$DW$L$VLIB_mixtureOfGaussiansS32_d$43$B:
    2401                    ;          EXCLUSIVE CPU CYCLES: 2
    2402                            .dwpsn  file "./../packages/ti/vlib/src/VLIB_mixtureOfGaussiansS32/VLIB_mixtureOfGaussiansS32_
    2403 00000860 002bf058             SUB     .L1X    B10,1,A0          ; |151| 
    2404                    
    2405 00000870     15ea     [ A0]   B       .S1     $C$L13            ; |151| 
    2406 00000868 052be05b  ||         SUB     .L2     B10,1,B10         ; |151| 
    2407 0000086c 06302059  ||         ADD     .L1     1,A12,A12         ; |151| 
    2408 00000864 05800041  ||         ZERO    .D1     A11               ; |154| 
    2409                    
    2410 00000872           $C$DW$L$VLIB_mixtureOfGaussiansS32_d$43$E:
    2411                    ;** --------------------------------------------------------------------------*
    2412 00000872           $C$L14:    
    2413                            .dwpsn  file "./../packages/ti/vlib/src/VLIB_mixtureOfGaussiansS32/VLIB_mixtureOfGaussiansS32_
    2414 00000872           $C$DW$L$VLIB_mixtureOfGaussiansS32_d$44$B:
    2415                    ;          EXCLUSIVE CPU CYCLES: 5
    2416                    ;**     -----------------------g29:
    2417                    ;** 151 -----------------------    ++k;
    2418                    ;** 151 -----------------------    if ( L$3 = L$3-1 ) goto g27;
    2419 00000872     8c6e             NOP             5
    2420                            .dwpsn  file "./../packages/ti/vlib/src/VLIB_mixtureOfGaussiansS32/VLIB_mixtureOfGaussiansS32_
TMS320C6x Assembler PC v7.4.2 Thu Mar 19 12:43:28 2015

Tools Copyright (c) 1996-2012 Texas Instruments Incorporated
package/lib/Regression/regress_d_c/./../packages/ti/vlib/src/VLIB_mixtureOfGaussiansS32/VLIB_mixtureOfGaussiansS32_d.se66 PAGE   45

    2421                               ; BRANCHCC OCCURS {$C$L13}        ; |151| 
    2422 00000874           $C$DW$L$VLIB_mixtureOfGaussiansS32_d$44$E:
    2423                    ;** --------------------------------------------------------------------------*
    2424 00000874           $C$L15:    
    2425 00000874           $C$DW$L$VLIB_mixtureOfGaussiansS32_d$45$B:
    2426                    ;          EXCLUSIVE CPU CYCLES: 1
    2427                    ;**     -----------------------g30:
    2428                    ;** 158 -----------------------    ++counter;
    2429                            .dwpsn  file "./../packages/ti/vlib/src/VLIB_mixtureOfGaussiansS32/VLIB_mixtureOfGaussiansS32_
    2430 00000874 07382058             ADD     .L1     1,A14,A14         ; |158| 
    2431 00000878           $C$DW$L$VLIB_mixtureOfGaussiansS32_d$45$E:
    2432                    ;** --------------------------------------------------------------------------*
    2433 00000878           $C$DW$L$VLIB_mixtureOfGaussiansS32_d$46$B:
    2434                    ;          EXCLUSIVE CPU CYCLES: 4
    2435 00000878 018020ec             LDW     .D2T1   *+SP(128),A3
    2436 00000880 00004000             NOP             3
    2437 00000884           $C$DW$L$VLIB_mixtureOfGaussiansS32_d$46$E:
    2438                    ;** --------------------------------------------------------------------------*
    2439 00000884           $C$L16:    
    2440                            .dwpsn  file "./../packages/ti/vlib/src/VLIB_mixtureOfGaussiansS32/VLIB_mixtureOfGaussiansS32_
    2441 00000884           $C$DW$L$VLIB_mixtureOfGaussiansS32_d$47$B:
    2442                    ;          EXCLUSIVE CPU CYCLES: 14
    2443                    ;**     -----------------------g31:
    2444                    ;** 100 -----------------------    if ( (*(U$12+v$1)).num_images > (++i) ) goto g8;
    2445                            .dwpsn  file "./../packages/ti/vlib/src/VLIB_mixtureOfGaussiansS32/VLIB_mixtureOfGaussiansS32_
    2446 00000884 06b4205a             ADD     .L2     1,B13,B13         ; |100| 
    2447 00000888 018d4078             ADD     .L1     A10,A3,A3         ; |100| 
    2448 0000088c 018c8264             LDW     .D1T1   *+A3(16),A3       ; |100| 
    2449 00000890 00006000             NOP             4
    2450 00000894 000dbafa             CMPGT   .L2X    A3,B13,B0         ; |100| 
    2451 00000898 2e8da120     [ B0]   BNOP    .S1     $C$L3,5           ; |100| 
    2452                               ; BRANCHCC OCCURS {$C$L3}         ; |100| 
    2453 0000089c           $C$DW$L$VLIB_mixtureOfGaussiansS32_d$47$E:
    2454                    ;** --------------------------------------------------------------------------*
    2455 0000089c           $C$L17:    
    2456 0000089c           $C$DW$L$VLIB_mixtureOfGaussiansS32_d$48$B:
    2457                    ;          EXCLUSIVE CPU CYCLES: 18
    2458                    ;**     -----------------------g32:
    2459                    ;** 167 -----------------------    memset((void *)wt, 0, (*(U$12+v$1)).im_size*6u);
    2460                    ;** 168 -----------------------    memset((void *)mu, 0, (*U$13).im_size*12u);
    2461                    ;** 169 -----------------------    memset((void *)var, 0, (*U$13).im_size*12u);
    2462                    ;** 172 -----------------------    if ( !LevelOfFeedback ) goto g34;
    2463 0000089c 018020ec             LDW     .D2T1   *+SP(128),A3
    2464                            .dwpsn  file "./../packages/ti/vlib/src/VLIB_mixtureOfGaussiansS32/VLIB_mixtureOfGaussiansS32_
    2465 000008a0     0627             ZERO    .L2     B4                ; |167| 
    2466 000008a2     4c6e             NOP             3
    2467 000008a4 018d4078             ADD     .L1     A10,A3,A3         ; |167| 
    2468 000008a8 018c6264             LDW     .D1T1   *+A3(12),A3       ; |167| 
    2469 000008ac     6c6e             NOP             4
    2470 000008ae     45ca             SHL     .S1     A3,2,A4           ; |167| 
    2471                    $C$DW$222       .dwtag  DW_TAG_TI_branch
    2472                            .dwattr $C$DW$222, DW_AT_low_pc(0x00)
    2473                            .dwattr $C$DW$222, DW_AT_name("memset")
    2474                            .dwattr $C$DW$222, DW_AT_TI_call
    2475                    
TMS320C6x Assembler PC v7.4.2 Thu Mar 19 12:43:28 2015

Tools Copyright (c) 1996-2012 Texas Instruments Incorporated
package/lib/Regression/regress_d_c/./../packages/ti/vlib/src/VLIB_mixtureOfGaussiansS32/VLIB_mixtureOfGaussiansS32_d.se66 PAGE   46

    2476 000008b0 10000013!            CALLP   .S2     memset,B3
    2477 000008b4 03107a41  ||         ADDAH   .D1     A4,A3,A6          ; |167| 
    2478 000008b8 020024ec  ||         LDW     .D2T1   *+SP(144),A4      ; |167| 
    2479                    
    2480 000008c0           $C$RL36:   ; CALL OCCURS {memset} {0}        ; |167| 
    2481 000008c0           $C$DW$L$VLIB_mixtureOfGaussiansS32_d$48$E:
    2482                    ;** --------------------------------------------------------------------------*
    2483 000008c0           $C$DW$L$VLIB_mixtureOfGaussiansS32_d$49$B:
    2484                    ;          EXCLUSIVE CPU CYCLES: 27
    2485                            .dwpsn  file "./../packages/ti/vlib/src/VLIB_mixtureOfGaussiansS32/VLIB_mixtureOfGaussiansS32_
    2486 000008c0 022c62e6             LDW     .D2T2   *+B11(12),B4      ; |168| 
    2487 000008c4     6c6e             NOP             4
    2488 000008c6     763a             SHL     .S1X    B4,3,A3           ; |168| 
    2489 000008c8     9246             MV      .L1X    B4,A4             ; |168| Define a twin register
    2490                    $C$DW$223       .dwtag  DW_TAG_TI_branch
    2491                            .dwattr $C$DW$223, DW_AT_low_pc(0x00)
    2492                            .dwattr $C$DW$223, DW_AT_name("memset")
    2493                            .dwattr $C$DW$223, DW_AT_TI_call
    2494                    
    2495 000008d4 10000012!            CALLP   .S2     memset,B3
    2496 000008cc 030c9c41  ||         ADDAW   .D1     A3,A4,A6          ; |168| 
    2497 000008d0 020025ed  ||         LDW     .D2T1   *+SP(148),A4      ; |168| 
    2498 000008ca     0627  ||         ZERO    .L2     B4                ; |168| 
    2499                    
    2500 000008d8           $C$RL37:   ; CALL OCCURS {memset} {0}        ; |168| 
    2501                            .dwpsn  file "./../packages/ti/vlib/src/VLIB_mixtureOfGaussiansS32/VLIB_mixtureOfGaussiansS32_
    2502 000008d8 022c62e6             LDW     .D2T2   *+B11(12),B4      ; |169| 
    2503 000008e0 020026ec             LDW     .D2T1   *+SP(152),A4      ; |169| 
    2504 000008e4     4c6e             NOP             3
    2505 000008e6     665b             SHL     .S2     B4,3,B5           ; |169| 
    2506 000008e8 02149c42             ADDAW   .D2     B5,B4,B4          ; |169| 
    2507 000008ec     0c6e             NOP             1
    2508                    $C$DW$224       .dwtag  DW_TAG_TI_branch
    2509                            .dwattr $C$DW$224, DW_AT_low_pc(0x08)
    2510                            .dwattr $C$DW$224, DW_AT_name("memset")
    2511                            .dwattr $C$DW$224, DW_AT_TI_call
    2512                    
    2513 000008ee     d246             MV      .L1X    B4,A6             ; |169| 
    2514 000008f4 0200a35a  ||         ZERO    .L2     B4                ; |169| 
    2515 000008f0 10000013! ||         CALLP   .S2     memset,B3
    2516                    
    2517 000008f8           $C$RL38:   ; CALL OCCURS {memset} {0}        ; |169| 
    2518 000008f8           $C$DW$L$VLIB_mixtureOfGaussiansS32_d$49$E:
    2519                    ;** --------------------------------------------------------------------------*
    2520 000008f8           $C$DW$L$VLIB_mixtureOfGaussiansS32_d$50$B:
    2521                    ;          EXCLUSIVE CPU CYCLES: 11
    2522 000008f8 000022ec             LDW     .D2T1   *+SP(136),A0      ; |169| 
    2523 00000900     6c6e             NOP             4
    2524                    
    2525 00000902     08ba     [!A0]   B       .S1     $C$L18            ; |172| 
    2526 00000904 d22c82e6  || [!A0]   LDW     .D2T2   *+B11(16),B4      ; |179| 
    2527                    
    2528                            .dwpsn  file "./../packages/ti/vlib/src/VLIB_mixtureOfGaussiansS32/VLIB_mixtureOfGaussiansS32_
    2529                    $C$DW$225       .dwtag  DW_TAG_TI_branch
    2530                            .dwattr $C$DW$225, DW_AT_low_pc(0x00)
TMS320C6x Assembler PC v7.4.2 Thu Mar 19 12:43:28 2015

Tools Copyright (c) 1996-2012 Texas Instruments Incorporated
package/lib/Regression/regress_d_c/./../packages/ti/vlib/src/VLIB_mixtureOfGaussiansS32/VLIB_mixtureOfGaussiansS32_d.se66 PAGE   47

    2531                            .dwattr $C$DW$225, DW_AT_name("printf")
    2532                            .dwattr $C$DW$225, DW_AT_TI_call
    2533 00000908 c0000010!    [ A0]   CALL    .S1     printf            ; |174| 
    2534 0000090c c1800028!    [ A0]   MVKL    .S1     $C$SL2+0,A3
    2535 00000910 c1800068!    [ A0]   MVKH    .S1     $C$SL2+0,A3
    2536 00000914 00000000             NOP             1
    2537                            .dwpsn  file "./../packages/ti/vlib/src/VLIB_mixtureOfGaussiansS32/VLIB_mixtureOfGaussiansS32_
    2538 00000918 d0100ada     [!A0]   CMPGT   .L2     B4,0,B0           ; |179| 
    2539                            .dwpsn  file "./../packages/ti/vlib/src/VLIB_mixtureOfGaussiansS32/VLIB_mixtureOfGaussiansS32_
    2540                               ; BRANCHCC OCCURS {$C$L18}        ; |172| 
    2541 00000920           $C$DW$L$VLIB_mixtureOfGaussiansS32_d$50$E:
    2542                    ;** --------------------------------------------------------------------------*
    2543 00000920           $C$DW$L$VLIB_mixtureOfGaussiansS32_d$51$B:
    2544                    ;          EXCLUSIVE CPU CYCLES: 1
    2545                    ;** 174 -----------------------    printf((const char *)"Luma  FG    Mean-1   Varn-1   Wght-1        M
    2546                    ;** 175 -----------------------    printf((const char *)"---------------------------------------------
    2547                    
    2548 00000920 01bc22f5             STW     .D2T1   A3,*+SP(4)        ; |174| 
    2549 00000924 01820162  ||         ADDKPC  .S2     $C$RL39,B3,0      ; |174| 
    2550                    
    2551                            .dwpsn  file "./../packages/ti/vlib/src/VLIB_mixtureOfGaussiansS32/VLIB_mixtureOfGaussiansS32_
    2552 00000928           $C$RL39:   ; CALL OCCURS {printf} {0}        ; |174| 
    2553 00000928           $C$DW$L$VLIB_mixtureOfGaussiansS32_d$51$E:
    2554                    ;** --------------------------------------------------------------------------*
    2555 00000928           $C$DW$L$VLIB_mixtureOfGaussiansS32_d$52$B:
    2556                    ;          EXCLUSIVE CPU CYCLES: 14
    2557 00000928 0200002a!            MVKL    .S2     $C$SL3+0,B4
    2558 0000092c 0200006a!            MVKH    .S2     $C$SL3+0,B4
    2559                    $C$DW$226       .dwtag  DW_TAG_TI_branch
    2560                            .dwattr $C$DW$226, DW_AT_low_pc(0x00)
    2561                            .dwattr $C$DW$226, DW_AT_name("printf")
    2562                            .dwattr $C$DW$226, DW_AT_TI_call
    2563                    
    2564 00000930 10000013!            CALLP   .S2     printf,B3
    2565 00000934 023c22f6  ||         STW     .D2T2   B4,*+SP(4)        ; |175| 
    2566                    
    2567                            .dwpsn  file "./../packages/ti/vlib/src/VLIB_mixtureOfGaussiansS32/VLIB_mixtureOfGaussiansS32_
    2568 00000938           $C$RL40:   ; CALL OCCURS {printf} {0}        ; |175| 
    2569                            .dwpsn  file "./../packages/ti/vlib/src/VLIB_mixtureOfGaussiansS32/VLIB_mixtureOfGaussiansS32_
    2570 00000938 022c82e6             LDW     .D2T2   *+B11(16),B4      ; |179| 
    2571 0000093c 00000000             NOP             4
    2572 00000940 00100ada             CMPGT   .L2     B4,0,B0           ; |179| 
    2573 00000944           $C$DW$L$VLIB_mixtureOfGaussiansS32_d$52$E:
    2574                    ;** --------------------------------------------------------------------------*
    2575 00000944           $C$L18:    
    2576                            .dwpsn  file "./../packages/ti/vlib/src/VLIB_mixtureOfGaussiansS32/VLIB_mixtureOfGaussiansS32_
    2577 00000944           $C$DW$L$VLIB_mixtureOfGaussiansS32_d$53$B:
    2578                    ;          EXCLUSIVE CPU CYCLES: 6
    2579                    ;**     -----------------------g34:
    2580                    ;** 179 -----------------------    v$1 = prm;
    2581                    ;** 179 -----------------------    if ( (*U$13).num_images <= 0 ) goto g60;
    2582                    
    2583 00000944 317fa121     [!B0]   BNOP    .S1     $C$L33,5          ; |179| 
    2584 00000948 053fa2e5  ||         LDW     .D2T1   *+SP(116),A10     ; |179| 
    2585 0000094c 2680a35b  || [ B0]   ZERO    .L2     B13               ; |179| 
TMS320C6x Assembler PC v7.4.2 Thu Mar 19 12:43:28 2015

Tools Copyright (c) 1996-2012 Texas Instruments Incorporated
package/lib/Regression/regress_d_c/./../packages/ti/vlib/src/VLIB_mixtureOfGaussiansS32/VLIB_mixtureOfGaussiansS32_d.se66 PAGE   48

    2586 00000950 2700a358  || [ B0]   ZERO    .L1     A14               ; |179| 
    2587                    
    2588                            .dwpsn  file "./../packages/ti/vlib/src/VLIB_mixtureOfGaussiansS32/VLIB_mixtureOfGaussiansS32_
    2589                               ; BRANCHCC OCCURS {$C$L33}        ; |179| 
    2590 00000954           $C$DW$L$VLIB_mixtureOfGaussiansS32_d$53$E:
    2591                    ;** --------------------------------------------------------------------------*
    2592 00000954           $C$DW$L$VLIB_mixtureOfGaussiansS32_d$54$B:
    2593                    ;**     -----------------------    K$102 = 32;
    2594                    ;**     -----------------------    K$112 = 42;
    2595                    ;**     -----------------------    K$94 = &cycles[0];
    2596                    ;** 170 -----------------------    counter = 0;
    2597                    ;** 179 -----------------------    i = 0;
    2598                    ;**     -----------------------    #pragma LOOP_FLAGS(5120u)
    2599 00000954           $C$DW$L$VLIB_mixtureOfGaussiansS32_d$54$E:
    2600                    ;** --------------------------------------------------------------------------*
    2601                    ;**   BEGIN LOOP $C$L19
    2602                    ;** --------------------------------------------------------------------------*
    2603 00000954           $C$L19:    
    2604                            .dwpsn  file "./../packages/ti/vlib/src/VLIB_mixtureOfGaussiansS32/VLIB_mixtureOfGaussiansS32_
    2605 00000954           $C$DW$L$VLIB_mixtureOfGaussiansS32_d$55$B:
    2606                    ;          EXCLUSIVE CPU CYCLES: 6
    2607                    ;**     -----------------------g36:
    2608                    ;** 137 -----------------------    act_kernel = 1;  // [17]
    2609                    ;** 140 -----------------------    VLIB_cache_inval();  // [17]
    2610                    ;** 143 -----------------------    initStack(getSP());  // [17]
    2611                    ;** 146 -----------------------    beg_count = _itoll(TSCH, TSCL);  // [17]
    2612                    ;** 183 -----------------------    C$5 = (*U$13).im_size;
    2613                    ;** 183 -----------------------    VLIB_mixtureOfGaussiansS32_cn(C$5*i+Im, wt, mu, var, compNum, updat
    2614                    ;** 153 -----------------------    v$2 = _itoll(TSCH, TSCL);  // [18]
    2615                    ;** 153 -----------------------    end_count = v$2;  // [18]
    2616                    ;** 156 -----------------------    C$4 = act_kernel;  // [18]
    2617                    ;** 156 -----------------------    *((C$4<<3)+K$94) = *((C$4<<3)+K$94)+(v$2-(beg_count+overhead));  //
    2618                    ;** 159 -----------------------    setStackDepth();  // [18]
    2619                    ;** 192 -----------------------    mode[0] = K$102;
    2620                    ;** 193 -----------------------    mode[1] = K$102;
    2621                    ;** 194 -----------------------    mode[2] = K$102;
    2622                    ;** 195 -----------------------    mode[*compNum] = K$112;
    2623                    ;** 197 -----------------------    if ( !LevelOfFeedback ) goto g38;
    2624                            .dwpsn  file ".\..\packages\ti\vlib\src\VLIB_mixtureOfGaussiansS32\..\common\VLIB_profile.h",l
    2625                    $C$DW$227       .dwtag  DW_TAG_TI_branch
    2626                            .dwattr $C$DW$227, DW_AT_low_pc(0x00)
    2627                            .dwattr $C$DW$227, DW_AT_name("VLIB_cache_inval")
    2628                            .dwattr $C$DW$227, DW_AT_TI_call
    2629 00000954 00000010!            CALL    .S1     VLIB_cache_inval  ; |140| 
    2630 00000958 07800028!            MVKL    .S1     act_kernel,A15
    2631 0000095c 07800068!            MVKH    .S1     act_kernel,A15
    2632                            .dwpsn  file ".\..\packages\ti\vlib\src\VLIB_mixtureOfGaussiansS32\..\common\VLIB_profile.h",l
    2633 00000960 0184a358             MVK     .L1     1,A3              ; |137| 
    2634 00000964 01bc0274             STW     .D1T1   A3,*A15           ; |137| 
    2635                            .dwpsn  file ".\..\packages\ti\vlib\src\VLIB_mixtureOfGaussiansS32\..\common\VLIB_profile.h",l
    2636 00000968 01830162             ADDKPC  .S2     $C$RL41,B3,0      ; |140| 
    2637                    $C$RL41:   ; CALL OCCURS {VLIB_cache_inval} {0}  ; |140| 
    2638                    $C$DW$L$VLIB_mixtureOfGaussiansS32_d$55$E:
    2639                    ;** --------------------------------------------------------------------------*
    2640                    $C$DW$L$VLIB_mixtureOfGaussiansS32_d$56$B:
TMS320C6x Assembler PC v7.4.2 Thu Mar 19 12:43:28 2015

Tools Copyright (c) 1996-2012 Texas Instruments Incorporated
package/lib/Regression/regress_d_c/./../packages/ti/vlib/src/VLIB_mixtureOfGaussiansS32/VLIB_mixtureOfGaussiansS32_d.se66 PAGE   49

    2641                    ;          EXCLUSIVE CPU CYCLES: 62
    2642                    $C$DW$228       .dwtag  DW_TAG_TI_branch
    2643                            .dwattr $C$DW$228, DW_AT_low_pc(0x00)
    2644                            .dwattr $C$DW$228, DW_AT_name("getSP")
    2645                            .dwattr $C$DW$228, DW_AT_TI_call
    2646 0000096c 10000012!            CALLP   .S2     getSP,B3
    2647                            .dwpsn  file ".\..\packages\ti\vlib\src\VLIB_mixtureOfGaussiansS32\..\common\VLIB_profile.h",l
    2648                    $C$RL42:   ; CALL OCCURS {getSP} {0}         ; |143| 
    2649                    $C$DW$229       .dwtag  DW_TAG_TI_branch
    2650                            .dwattr $C$DW$229, DW_AT_low_pc(0x00)
    2651                            .dwattr $C$DW$229, DW_AT_name("initStack")
    2652                            .dwattr $C$DW$229, DW_AT_TI_call
    2653 00000970 10000012!            CALLP   .S2     initStack,B3
    2654 00000974           $C$RL43:   ; CALL OCCURS {initStack} {0}     ; |143| 
    2655                            .dwpsn  file ".\..\packages\ti\vlib\src\VLIB_mixtureOfGaussiansS32\..\common\VLIB_profile.h",l
    2656 00000974 032803e2             MVC     .S2     TSCL,B6           ; |146| 
    2657 00000978 022c03e2             MVC     .S2     TSCH,B4           ; |146| 
    2658                            .dwpsn  file "./../packages/ti/vlib/src/VLIB_mixtureOfGaussiansS32/VLIB_mixtureOfGaussiansS32_
    2659 0000097c 042e22c6             LDH     .D2T2   *+B11(34),B8      ; |183| 
    2660 00000980 02ad22e6             LDW     .D2T2   *+B11(36),B5      ; |183| 
    2661 00000984 052c62e6             LDW     .D2T2   *+B11(12),B10     ; |183| 
    2662 00000988 08ace2e6             LDW     .D2T2   *+B11(28),B17     ; |183| 
    2663 0000098c 082e02c6             LDH     .D2T2   *+B11(32),B16     ; |183| 
    2664 00000990 0f8023ee             LDW     .D2T2   *+SP(140),B31     ; |183| 
    2665 00000994 05002aec             LDW     .D2T1   *+SP(168),A10     ; |183| 
    2666 00000998 040027ec             LDW     .D2T1   *+SP(156),A8      ; |183| 
    2667 0000099c 030025ec             LDW     .D2T1   *+SP(148),A6      ; |183| 
    2668 000009a0 062d42c4             LDH     .D2T1   *+B11(20),A12     ; |183| 
    2669 000009a4 062cc2e6             LDW     .D2T2   *+B11(24),B12     ; |183| 
    2670                    
    2671 000009a8 0f00002b!            MVKL    .S2     beg_count,B30
    2672 000009ac 043ca2d6  ||         STH     .D2T2   B8,*+SP(10)       ; |183| 
    2673                    
    2674 000009b0     e247             MV      .L2     B4,B7             ; |146| 
    2675 000009b8 0229a802  ||         MPY32   .M2     B13,B10,B4        ; |183| 
    2676 000009b4 0f00006b! ||         MVKH    .S2     beg_count,B30
    2677 000009b2     fc55  ||         STW     .D2T2   B5,*+SP(12)       ; |183| 
    2678                    
    2679                            .dwpsn  file ".\..\packages\ti\vlib\src\VLIB_mixtureOfGaussiansS32\..\common\VLIB_profile.h",l
    2680 000009c0 037803c6             STDW    .D2T2   B7:B6,*B30        ; |146| 
    2681                            .dwpsn  file "./../packages/ti/vlib/src/VLIB_mixtureOfGaussiansS32/VLIB_mixtureOfGaussiansS32_
    2682 000009c4 08bc22f6             STW     .D2T2   B17,*+SP(4)       ; |183| 
    2683 000009c8 083c82d6             STH     .D2T2   B16,*+SP(8)       ; |183| 
    2684                    
    2685 000009cc 0293e07b             ADD     .L2     B31,B4,B5         ; |183| 
    2686 000009d0 040028ee  ||         LDW     .D2T2   *+SP(160),B8      ; |183| 
    2687                    
    2688 000009d4 030026ee             LDW     .D2T2   *+SP(152),B6      ; |183| 
    2689                    $C$DW$230       .dwtag  DW_TAG_TI_branch
    2690                            .dwattr $C$DW$230, DW_AT_low_pc(0x00)
    2691                            .dwattr $C$DW$230, DW_AT_name("VLIB_mixtureOfGaussiansS32_cn")
    2692                            .dwattr $C$DW$230, DW_AT_TI_call
    2693                    
    2694 000009d8 10000013!            CALLP   .S2     VLIB_mixtureOfGaussiansS32_cn,B3
    2695 000009dc 020024ef  ||         LDW     .D2T2   *+SP(144),B4      ; |183| 
TMS320C6x Assembler PC v7.4.2 Thu Mar 19 12:43:28 2015

Tools Copyright (c) 1996-2012 Texas Instruments Incorporated
package/lib/Regression/regress_d_c/./../packages/ti/vlib/src/VLIB_mixtureOfGaussiansS32/VLIB_mixtureOfGaussiansS32_d.se66 PAGE   50

    2696 000009e0 02141fd8  ||         MV      .L1X    B5,A4             ; |183| 
    2697                    
    2698 000009e4           $C$RL44:   ; CALL OCCURS {VLIB_mixtureOfGaussiansS32_cn} {0}  ; |183| 
    2699                            .dwpsn  file ".\..\packages\ti\vlib\src\VLIB_mixtureOfGaussiansS32\..\common\VLIB_profile.h",l
    2700 000009e4 022803e2             MVC     .S2     TSCL,B4           ; |153| 
    2701 000009e8 02ac03e2             MVC     .S2     TSCH,B5           ; |153| 
    2702 000009ec 01800028!            MVKL    .S1     beg_count,A3
    2703                    
    2704 000009f0 01800069!            MVKH    .S1     beg_count,A3
    2705 000009f4 0380002a! ||         MVKL    .S2     overhead,B7
    2706                    
    2707 000009f8 043c0265             LDW     .D1T1   *A15,A8           ; |156| 
    2708 000009fc 0380006a! ||         MVKH    .S2     overhead,B7
    2709                    
    2710 00000a00 030c1fdb             MV      .L2X    A3,B6
    2711 00000a04 081c03e6  ||         LDDW    .D2T2   *B7,B17:B16       ; |156| 
    2712                    
    2713                            .dwpsn  file ".\..\packages\ti\vlib\src\VLIB_mixtureOfGaussiansS32\..\common\VLIB_profile.h",l
    2714 00000a08 041803e6             LDDW    .D2T2   *B6,B9:B8         ; |156| 
    2715 00000a0c 0f800028!            MVKL    .S1     cycles,A31
    2716 00000a10 0f800068!            MVKH    .S1     cycles,A31
    2717 00000a14 037d0b64             LDDW    .D1T1   *+A31[A8],A7:A6   ; |156| 
    2718 00000a18 0f000028!            MVKL    .S1     end_count,A30
    2719 00000a1c 0322057a             ADDU    .L2     B16,B8,B7:B6      ; |156| 
    2720                    
    2721 00000a20 0444e1e3             ADD     .S2     B7,B17,B8         ; |156| 
    2722 00000a24 031885fa  ||         SUBU    .L2     B4,B6,B7:B6       ; |156| 
    2723                    
    2724 00000a28 0425007a             ADD     .L2     B8,B9,B8          ; |156| 
    2725                    
    2726 00000a2c 0218d579             ADDU    .L1X    A6,B6,A5:A4       ; |156| 
    2727 00000a30 0320a0fb  ||         SUB     .L2     B5,B8,B6          ; |156| 
    2728 00000a34     ebe3  ||         EXT     .S2     B7,24,24,B7       ; |156| 
    2729                    
    2730 00000a36     c3e1             ADD     .L2     B6,B7,B6          ; |156| 
    2731 00000a38 0f000068! ||         MVKH    .S1     end_count,A30
    2732                    
    2733 00000a44     a3d0             ADD     .L1     A5,A7,A5          ; |156| 
    2734 00000a40 01800029! ||         MVKL    .S1     cycles,A3
    2735                    
    2736 00000a46     b350             ADD     .L1X    A5,B6,A5          ; |156| 
    2737 00000a48 01800069! ||         MVKH    .S1     cycles,A3
    2738 00000a4c 02780346  ||         STDW    .D1T2   B5:B4,*A30        ; |153| 
    2739                    
    2740                    $C$DW$231       .dwtag  DW_TAG_TI_branch
    2741                            .dwattr $C$DW$231, DW_AT_low_pc(0x00)
    2742                            .dwattr $C$DW$231, DW_AT_name("setStackDepth")
    2743                            .dwattr $C$DW$231, DW_AT_TI_call
    2744                    
    2745 00000a50 10000013!            CALLP   .S2     setStackDepth,B3
    2746 00000a54 020d0b44  ||         STDW    .D1T1   A5:A4,*+A3[A8]    ; |156| 
    2747                    
    2748                            .dwpsn  file ".\..\packages\ti\vlib\src\VLIB_mixtureOfGaussiansS32\..\common\VLIB_profile.h",l
    2749 00000a58           $C$RL45:   ; CALL OCCURS {setStackDepth} {0}  ; |159| 
    2750 00000a58           $C$DW$L$VLIB_mixtureOfGaussiansS32_d$56$E:
TMS320C6x Assembler PC v7.4.2 Thu Mar 19 12:43:28 2015

Tools Copyright (c) 1996-2012 Texas Instruments Incorporated
package/lib/Regression/regress_d_c/./../packages/ti/vlib/src/VLIB_mixtureOfGaussiansS32/VLIB_mixtureOfGaussiansS32_d.se66 PAGE   51

    2751                    ;** --------------------------------------------------------------------------*
    2752 00000a58           $C$DW$L$VLIB_mixtureOfGaussiansS32_d$57$B:
    2753                    ;          EXCLUSIVE CPU CYCLES: 23
    2754                            .dwpsn  file "./../packages/ti/vlib/src/VLIB_mixtureOfGaussiansS32/VLIB_mixtureOfGaussiansS32_
    2755 00000a58 0f8027ec             LDW     .D2T1   *+SP(156),A31     ; |194| 
    2756 00000a60 01801028             MVK     .S1     0x20,A3
    2757                            .dwpsn  file "./../packages/ti/vlib/src/VLIB_mixtureOfGaussiansS32/VLIB_mixtureOfGaussiansS32_
    2758 00000a64 018078bc             STB     .D2T1   A3,*+SP(120)      ; |192| 
    2759                            .dwpsn  file "./../packages/ti/vlib/src/VLIB_mixtureOfGaussiansS32/VLIB_mixtureOfGaussiansS32_
    2760 00000a68 018079bc             STB     .D2T1   A3,*+SP(121)      ; |193| 
    2761                            .dwpsn  file "./../packages/ti/vlib/src/VLIB_mixtureOfGaussiansS32/VLIB_mixtureOfGaussiansS32_
    2762 00000a6c 01807abc             STB     .D2T1   A3,*+SP(122)      ; |194| 
    2763                            .dwpsn  file "./../packages/ti/vlib/src/VLIB_mixtureOfGaussiansS32/VLIB_mixtureOfGaussiansS32_
    2764 00000a70 01fc0214             LDBU    .D1T1   *A31,A3           ; |195| 
    2765 00000a74 02803c28             MVK     .S1     120,A5            ; |195| 
    2766 00000a78 0f001528             MVK     .S1     0x2a,A30
    2767 00000a7c 00002000             NOP             2
    2768 00000a80 023c7078             ADD     .L1X    A3,SP,A4          ; |195| 
    2769 00000a84 0f148a34             STB     .D1T1   A30,*+A5[A4]      ; |195| 
    2770 00000a88 000022ec             LDW     .D2T1   *+SP(136),A0      ; |195| 
    2771 00000a8c 018025ec             LDW     .D2T1   *+SP(148),A3
    2772 00000a90 00004000             NOP             3
    2773                    
    2774 00000a94 d02c42e7     [!A0]   LDW     .D2T2   *+B11(8),B0       ; |205| 
    2775 00000a98 d0003a10  || [!A0]   B       .S1     $C$L20            ; |197| 
    2776                    
    2777                            .dwpsn  file "./../packages/ti/vlib/src/VLIB_mixtureOfGaussiansS32/VLIB_mixtureOfGaussiansS32_
    2778                    $C$DW$232       .dwtag  DW_TAG_TI_branch
    2779                            .dwattr $C$DW$232, DW_AT_low_pc(0x00)
    2780                            .dwattr $C$DW$232, DW_AT_name("VLIB_getFractional32")
    2781                            .dwattr $C$DW$232, DW_AT_TI_call
    2782 00000a9c c0000010!    [ A0]   CALL    .S1     VLIB_getFractional32 ; |198| 
    2783 00000aa0 c20c0264     [ A0]   LDW     .D1T1   *A3,A4            ; |198| 
    2784                            .dwpsn  file "./../packages/ti/vlib/src/VLIB_mixtureOfGaussiansS32/VLIB_mixtureOfGaussiansS32_
    2785 00000aa4 c004a35a     [ A0]   MVK     .L2     0x1,B0            ; |205| nullify predicate
    2786 00000aa8 d53fa2e4     [!A0]   LDW     .D2T1   *+SP(116),A10     ; |205| 
    2787 00000aac 30009090     [!B0]   B       .S1     $C$L32            ; |205| 
    2788                            .dwpsn  file "./../packages/ti/vlib/src/VLIB_mixtureOfGaussiansS32/VLIB_mixtureOfGaussiansS32_
    2789                               ; BRANCHCC OCCURS {$C$L20}        ; |197| 
    2790 00000ab0           $C$DW$L$VLIB_mixtureOfGaussiansS32_d$57$E:
    2791                    ;** --------------------------------------------------------------------------*
    2792 00000ab0           $C$DW$L$VLIB_mixtureOfGaussiansS32_d$58$B:
    2793                    ;          EXCLUSIVE CPU CYCLES: 1
    2794                    ;** 198 -----------------------    printf((const char *)"%4d  %d  %c %8.4f %8.4f %8.6f   %c %8.4f %8.4
    2795                    
    2796 00000ab0     2726             MVK     .L1     0x1,A6            ; |198| 
    2797 00000ab2     ee27  ||         MVK     .L2     0xf,B4            ; |198| 
    2798 00000ab4 01860162  ||         ADDKPC  .S2     $C$RL46,B3,0      ; |198| 
    2799                    
    2800                            .dwpsn  file "./../packages/ti/vlib/src/VLIB_mixtureOfGaussiansS32/VLIB_mixtureOfGaussiansS32_
    2801 00000ab8           $C$RL46:   ; CALL OCCURS {VLIB_getFractional32} {0}  ; |198| 
    2802 00000ab8           $C$DW$L$VLIB_mixtureOfGaussiansS32_d$58$E:
    2803                    ;** --------------------------------------------------------------------------*
    2804 00000ab8           $C$DW$L$VLIB_mixtureOfGaussiansS32_d$59$B:
    2805                    ;          EXCLUSIVE CPU CYCLES: 137
TMS320C6x Assembler PC v7.4.2 Thu Mar 19 12:43:28 2015

Tools Copyright (c) 1996-2012 Texas Instruments Incorporated
package/lib/Regression/regress_d_c/./../packages/ti/vlib/src/VLIB_mixtureOfGaussiansS32/VLIB_mixtureOfGaussiansS32_d.se66 PAGE   52

    2806 00000ab8 020026ee             LDW     .D2T2   *+SP(152),B4      ; |198| 
    2807 00000ac0     4646             MV      .L1     A4,A10            ; |198| 
    2808 00000ac2     2726             MVK     .L1     0x1,A6            ; |198| 
    2809 00000ac4     2c6e             NOP             2
    2810                    $C$DW$233       .dwtag  DW_TAG_TI_branch
    2811                            .dwattr $C$DW$233, DW_AT_low_pc(0x00)
    2812                            .dwattr $C$DW$233, DW_AT_name("VLIB_getFractional16")
    2813                            .dwattr $C$DW$233, DW_AT_TI_call
    2814                    
    2815 00000acc 10000012!            CALLP   .S2     VLIB_getFractional16,B3
    2816 00000ac8 021002c5  ||         LDH     .D2T1   *B4,A4            ; |198| 
    2817 00000ac6     6627  ||         MVK     .L2     0x3,B4            ; |198| 
    2818                    
    2819 00000ad0           $C$RL47:   ; CALL OCCURS {VLIB_getFractional16} {0}  ; |198| 
    2820 00000ad0 020024ee             LDW     .D2T2   *+SP(144),B4      ; |198| 
    2821 00000ad4     5647             MV      .L2X    A4,B10            ; |198| 
    2822 00000ad6     2726             MVK     .L1     0x1,A6            ; |198| 
    2823 00000ad8     2c6e             NOP             2
    2824                    $C$DW$234       .dwtag  DW_TAG_TI_branch
    2825                            .dwattr $C$DW$234, DW_AT_low_pc(0x00)
    2826                            .dwattr $C$DW$234, DW_AT_name("VLIB_getFractional16")
    2827                            .dwattr $C$DW$234, DW_AT_TI_call
    2828                    
    2829 00000ae4 10000012!            CALLP   .S2     VLIB_getFractional16,B3
    2830 00000ae0 021002c5  ||         LDH     .D2T1   *B4,A4            ; |198| 
    2831 00000ada     ee27  ||         MVK     .L2     0xf,B4            ; |198| 
    2832                    
    2833 00000ae8           $C$RL48:   ; CALL OCCURS {VLIB_getFractional16} {0}  ; |198| 
    2834 00000ae8 01ac62e4             LDW     .D2T1   *+B11(12),A3      ; |198| 
    2835                    
    2836 00000af0     8646             MV      .L1     A4,A12            ; |198| 
    2837 00000aec 020025ed  ||         LDW     .D2T1   *+SP(148),A4
    2838                    
    2839 00000af2     f213             MVK     .S2     0x17,B4           ; |198| 
    2840 00000af4     2726             MVK     .L1     0x1,A6            ; |198| 
    2841 00000af6     2c6e             NOP             2
    2842                    $C$DW$235       .dwtag  DW_TAG_TI_branch
    2843                            .dwattr $C$DW$235, DW_AT_low_pc(0x00)
    2844                            .dwattr $C$DW$235, DW_AT_name("VLIB_getFractional32")
    2845                            .dwattr $C$DW$235, DW_AT_TI_call
    2846                    
    2847 00000af8 10000013!            CALLP   .S2     VLIB_getFractional32,B3
    2848 00000b00 02106a64  ||         LDW     .D1T1   *+A4[A3],A4       ; |198| 
    2849                    
    2850 00000b04           $C$RL49:   ; CALL OCCURS {VLIB_getFractional32} {0}  ; |198| 
    2851 00000b04 022c62e6             LDW     .D2T2   *+B11(12),B4      ; |198| 
    2852 00000b08 028026ee             LDW     .D2T2   *+SP(152),B5
    2853 00000b0c     e646             MV      .L1     A4,A15            ; |198| 
    2854 00000b0e     2726             MVK     .L1     0x1,A6            ; |198| 
    2855 00000b10     2c6e             NOP             2
    2856                    $C$DW$236       .dwtag  DW_TAG_TI_branch
    2857                            .dwattr $C$DW$236, DW_AT_low_pc(0x00)
    2858                            .dwattr $C$DW$236, DW_AT_name("VLIB_getFractional32")
    2859                            .dwattr $C$DW$236, DW_AT_TI_call
    2860                    
TMS320C6x Assembler PC v7.4.2 Thu Mar 19 12:43:28 2015

Tools Copyright (c) 1996-2012 Texas Instruments Incorporated
package/lib/Regression/regress_d_c/./../packages/ti/vlib/src/VLIB_mixtureOfGaussiansS32/VLIB_mixtureOfGaussiansS32_d.se66 PAGE   53

    2861 00000b14 10000013!            CALLP   .S2     VLIB_getFractional32,B3
    2862 00000b12     84cd  ||         LDW     .D2T1   *+B5[B4],A4       ; |198| 
    2863 00000b18 023ca35a  ||         MVK     .L2     0xf,B4            ; |198| 
    2864                    
    2865 00000b20           $C$RL50:   ; CALL OCCURS {VLIB_getFractional32} {0}  ; |198| 
    2866 00000b20 028024ee             LDW     .D2T2   *+SP(144),B5
    2867 00000b24 022c62e6             LDW     .D2T2   *+B11(12),B4      ; |198| 
    2868 00000b28     9647             MV      .L2X    A4,B12            ; |198| 
    2869 00000b2a     2726             MVK     .L1     0x1,A6            ; |198| 
    2870 00000b2c     2c6e             NOP             2
    2871                    $C$DW$237       .dwtag  DW_TAG_TI_branch
    2872                            .dwattr $C$DW$237, DW_AT_low_pc(0x00)
    2873                            .dwattr $C$DW$237, DW_AT_name("VLIB_getFractional16")
    2874                            .dwattr $C$DW$237, DW_AT_TI_call
    2875                    
    2876 00000b34 10000012!            CALLP   .S2     VLIB_getFractional16,B3
    2877 00000b30 02148ac5  ||         LDH     .D2T1   *+B5[B4],A4       ; |198| 
    2878 00000b2e     ee27  ||         MVK     .L2     0xf,B4            ; |198| 
    2879                    
    2880 00000b38           $C$RL51:   ; CALL OCCURS {VLIB_getFractional16} {0}  ; |198| 
    2881 00000b38 02002cfc             STW     .D2T1   A4,*+SP(176)      ; |198| 
    2882 00000b40 020025ec             LDW     .D2T1   *+SP(148),A4
    2883 00000b44 01ac62e4             LDW     .D2T1   *+B11(12),A3      ; |198| 
    2884 00000b48     f213             MVK     .S2     0x17,B4           ; |198| 
    2885 00000b4a     2726             MVK     .L1     0x1,A6            ; |198| 
    2886 00000b4c 00002000             NOP             2
    2887 00000b50 01907e40             ADDAD   .D1     A4,A3,A3          ; |198| 
    2888                    $C$DW$238       .dwtag  DW_TAG_TI_branch
    2889                            .dwattr $C$DW$238, DW_AT_low_pc(0x00)
    2890                            .dwattr $C$DW$238, DW_AT_name("VLIB_getFractional32")
    2891                            .dwattr $C$DW$238, DW_AT_TI_call
    2892                    
    2893 00000b54 10000013!            CALLP   .S2     VLIB_getFractional32,B3
    2894 00000b58 020c0264  ||         LDW     .D1T1   *A3,A4            ; |198| 
    2895                    
    2896 00000b60           $C$RL52:   ; CALL OCCURS {VLIB_getFractional32} {0}  ; |198| 
    2897 00000b60 022c62e6             LDW     .D2T2   *+B11(12),B4      ; |198| 
    2898 00000b64 028026ee             LDW     .D2T2   *+SP(152),B5
    2899 00000b68 02002bfc             STW     .D2T1   A4,*+SP(172)      ; |198| 
    2900 00000b6c     2726             MVK     .L1     0x1,A6            ; |198| 
    2901 00000b6e     2c6e             NOP             2
    2902 00000b70 02149e42             ADDAD   .D2     B5,B4,B4          ; |198| 
    2903                    $C$DW$239       .dwtag  DW_TAG_TI_branch
    2904                            .dwattr $C$DW$239, DW_AT_low_pc(0x00)
    2905                            .dwattr $C$DW$239, DW_AT_name("VLIB_getFractional16")
    2906                            .dwattr $C$DW$239, DW_AT_TI_call
    2907                    
    2908 00000b74 10000013!            CALLP   .S2     VLIB_getFractional16,B3
    2909 00000b78     024d  ||         LDH     .D2T1   *B4,A4            ; |198| 
