TMS320C6x Assembler PC v7.4.2 Thu Mar 19 12:45:04 2015

Tools Copyright (c) 1996-2012 Texas Instruments Incorporated
package/lib/Regression/regress_d_c/./../packages/ti/vlib/src/VLIB_updateEWRVarianceS32/VLIB_updateEWRVarianceS32_d.se66 PAGE    1

       1                    ;******************************************************************************
       2                    ;* TMS320C6x C/C++ Codegen                                          PC v7.4.2 *
       3                    ;* Date/Time created: Thu Mar 19 12:45:04 2015                                *
       4                    ;******************************************************************************
       5                            .compiler_opts --abi=eabi --c64p_l1d_workaround=off --endian=little --hll_source=on --long_pre
       6                    
       7                    ;******************************************************************************
       8                    ;* GLOBAL FILE PARAMETERS                                                     *
       9                    ;*                                                                            *
      10                    ;*   Architecture      : TMS320C66xx                                          *
      11                    ;*   Optimization      : Enabled at level 3                                   *
      12                    ;*   Optimizing for    : Speed                                                *
      13                    ;*                       Based on options: -o3, no -ms                        *
      14                    ;*   Endian            : Little                                               *
      15                    ;*   Interrupt Thrshld : 10000                                                *
      16                    ;*   Data Access Model : Far                                                  *
      17                    ;*   Pipelining        : Enabled                                              *
      18                    ;*   Speculate Loads   : Enabled with threshold = 0                           *
      19                    ;*   Memory Aliases    : Presume are aliases (pessimistic)                    *
      20                    ;*   Debug Info        : DWARF Debug w/Optimization                           *
      21                    ;*                                                                            *
      22                    ;******************************************************************************
      23                    
      24                            .asg    A15, FP
      25                            .asg    B14, DP
      26                            .asg    B15, SP
      27                            .global $bss
      28                    
      29                    
      30                    $C$DW$CU        .dwtag  DW_TAG_compile_unit
      31                            .dwattr $C$DW$CU, DW_AT_name("./../packages/ti/vlib/src/VLIB_updateEWRVarianceS32/VLIB_updateE
      32                            .dwattr $C$DW$CU, DW_AT_producer("TI TMS320C6x C/C++ Codegen PC v7.4.2 Copyright (c) 1996-2012
      33                            .dwattr $C$DW$CU, DW_AT_TI_version(0x01)
      34                            .dwattr $C$DW$CU, DW_AT_comp_dir("c:\nightlybuilds\vlib\ti\vlib\vlib\examples")
      35                    
      36                    $C$DW$1 .dwtag  DW_TAG_subprogram, DW_AT_name("memcpy")
      37                            .dwattr $C$DW$1, DW_AT_TI_symbol_name("memcpy")
      38                            .dwattr $C$DW$1, DW_AT_type(*$C$DW$T$3)
      39                            .dwattr $C$DW$1, DW_AT_declaration
      40                            .dwattr $C$DW$1, DW_AT_external
      41                            .dwattr $C$DW$1, DW_AT_decl_file("C:/VLIB_Tools/CCSV5_4_0/ccsv5/tools/compiler/C6000/include/s
      42                            .dwattr $C$DW$1, DW_AT_decl_line(0x56)
      43                            .dwattr $C$DW$1, DW_AT_decl_column(0x16)
      44                    $C$DW$2 .dwtag  DW_TAG_formal_parameter
      45                            .dwattr $C$DW$2, DW_AT_type(*$C$DW$T$3)
      46                    $C$DW$3 .dwtag  DW_TAG_formal_parameter
      47                            .dwattr $C$DW$3, DW_AT_type(*$C$DW$T$55)
      48                    $C$DW$4 .dwtag  DW_TAG_formal_parameter
      49                            .dwattr $C$DW$4, DW_AT_type(*$C$DW$T$56)
      50                            .dwendtag $C$DW$1
      51                    
      52                    
      53                    $C$DW$5 .dwtag  DW_TAG_subprogram, DW_AT_name("_itoll")
      54                            .dwattr $C$DW$5, DW_AT_TI_symbol_name("_itoll")
      55                            .dwattr $C$DW$5, DW_AT_type(*$C$DW$T$14)
TMS320C6x Assembler PC v7.4.2 Thu Mar 19 12:45:04 2015

Tools Copyright (c) 1996-2012 Texas Instruments Incorporated
package/lib/Regression/regress_d_c/./../packages/ti/vlib/src/VLIB_updateEWRVarianceS32/VLIB_updateEWRVarianceS32_d.se66 PAGE    2

      56                            .dwattr $C$DW$5, DW_AT_declaration
      57                            .dwattr $C$DW$5, DW_AT_external
      58                            .dwattr $C$DW$5, DW_AT_decl_file("C:/VLIB_Tools/CCSV5_4_0/ccsv5/tools/compiler/C6000/include/c
      59                            .dwattr $C$DW$5, DW_AT_decl_line(0xdf)
      60                            .dwattr $C$DW$5, DW_AT_decl_column(0x0b)
      61                    $C$DW$6 .dwtag  DW_TAG_formal_parameter
      62                            .dwattr $C$DW$6, DW_AT_type(*$C$DW$T$11)
      63                    $C$DW$7 .dwtag  DW_TAG_formal_parameter
      64                            .dwattr $C$DW$7, DW_AT_type(*$C$DW$T$11)
      65                            .dwendtag $C$DW$5
      66                    
      67                    
      68                    $C$DW$8 .dwtag  DW_TAG_subprogram, DW_AT_name("printf")
      69                            .dwattr $C$DW$8, DW_AT_TI_symbol_name("printf")
      70                            .dwattr $C$DW$8, DW_AT_type(*$C$DW$T$10)
      71                            .dwattr $C$DW$8, DW_AT_declaration
      72                            .dwattr $C$DW$8, DW_AT_external
      73                            .dwattr $C$DW$8, DW_AT_decl_file("C:/VLIB_Tools/CCSV5_4_0/ccsv5/tools/compiler/C6000/include/s
      74                            .dwattr $C$DW$8, DW_AT_decl_line(0xb8)
      75                            .dwattr $C$DW$8, DW_AT_decl_column(0x19)
      76                    $C$DW$9 .dwtag  DW_TAG_formal_parameter
      77                            .dwattr $C$DW$9, DW_AT_type(*$C$DW$T$103)
      78                    $C$DW$10        .dwtag  DW_TAG_unspecified_parameters
      79                            .dwendtag $C$DW$8
      80                    
      81                    
      82                    $C$DW$11        .dwtag  DW_TAG_subprogram, DW_AT_name("sprintf")
      83                            .dwattr $C$DW$11, DW_AT_TI_symbol_name("sprintf")
      84                            .dwattr $C$DW$11, DW_AT_type(*$C$DW$T$10)
      85                            .dwattr $C$DW$11, DW_AT_declaration
      86                            .dwattr $C$DW$11, DW_AT_external
      87                            .dwattr $C$DW$11, DW_AT_decl_file("C:/VLIB_Tools/CCSV5_4_0/ccsv5/tools/compiler/C6000/include/
      88                            .dwattr $C$DW$11, DW_AT_decl_line(0xbc)
      89                            .dwattr $C$DW$11, DW_AT_decl_column(0x19)
      90                    $C$DW$12        .dwtag  DW_TAG_formal_parameter
      91                            .dwattr $C$DW$12, DW_AT_type(*$C$DW$T$62)
      92                    $C$DW$13        .dwtag  DW_TAG_formal_parameter
      93                            .dwattr $C$DW$13, DW_AT_type(*$C$DW$T$103)
      94                    $C$DW$14        .dwtag  DW_TAG_unspecified_parameters
      95                            .dwendtag $C$DW$11
      96                    
      97                    
      98                    $C$DW$15        .dwtag  DW_TAG_subprogram, DW_AT_name("malloc")
      99                            .dwattr $C$DW$15, DW_AT_TI_symbol_name("malloc")
     100                            .dwattr $C$DW$15, DW_AT_type(*$C$DW$T$3)
     101                            .dwattr $C$DW$15, DW_AT_declaration
     102                            .dwattr $C$DW$15, DW_AT_external
     103                            .dwattr $C$DW$15, DW_AT_decl_file("C:/VLIB_Tools/CCSV5_4_0/ccsv5/tools/compiler/C6000/include/
     104                            .dwattr $C$DW$15, DW_AT_decl_line(0x82)
     105                            .dwattr $C$DW$15, DW_AT_decl_column(0x19)
     106                    $C$DW$16        .dwtag  DW_TAG_formal_parameter
     107                            .dwattr $C$DW$16, DW_AT_type(*$C$DW$T$56)
     108                            .dwendtag $C$DW$15
     109                    
     110                    
TMS320C6x Assembler PC v7.4.2 Thu Mar 19 12:45:04 2015

Tools Copyright (c) 1996-2012 Texas Instruments Incorporated
package/lib/Regression/regress_d_c/./../packages/ti/vlib/src/VLIB_updateEWRVarianceS32/VLIB_updateEWRVarianceS32_d.se66 PAGE    3

     111                    $C$DW$17        .dwtag  DW_TAG_subprogram, DW_AT_name("free")
     112                            .dwattr $C$DW$17, DW_AT_TI_symbol_name("free")
     113                            .dwattr $C$DW$17, DW_AT_declaration
     114                            .dwattr $C$DW$17, DW_AT_external
     115                            .dwattr $C$DW$17, DW_AT_decl_file("C:/VLIB_Tools/CCSV5_4_0/ccsv5/tools/compiler/C6000/include/
     116                            .dwattr $C$DW$17, DW_AT_decl_line(0x86)
     117                            .dwattr $C$DW$17, DW_AT_decl_column(0x19)
     118                    $C$DW$18        .dwtag  DW_TAG_formal_parameter
     119                            .dwattr $C$DW$18, DW_AT_type(*$C$DW$T$3)
     120                            .dwendtag $C$DW$17
     121                    
     122                    
     123                    $C$DW$19        .dwtag  DW_TAG_subprogram, DW_AT_name("VLIB_cache_inval")
     124                            .dwattr $C$DW$19, DW_AT_TI_symbol_name("VLIB_cache_inval")
     125                            .dwattr $C$DW$19, DW_AT_type(*$C$DW$T$10)
     126                            .dwattr $C$DW$19, DW_AT_declaration
     127                            .dwattr $C$DW$19, DW_AT_external
     128                            .dwattr $C$DW$19, DW_AT_decl_file(".\..\packages\ti\vlib\src\VLIB_updateEWRVarianceS32\..\comm
     129                            .dwattr $C$DW$19, DW_AT_decl_line(0x58)
     130                            .dwattr $C$DW$19, DW_AT_decl_column(0x05)
     131                    
     132                    $C$DW$20        .dwtag  DW_TAG_subprogram, DW_AT_name("VLIB_profile_init")
     133                            .dwattr $C$DW$20, DW_AT_TI_symbol_name("VLIB_profile_init")
     134                            .dwattr $C$DW$20, DW_AT_declaration
     135                            .dwattr $C$DW$20, DW_AT_external
     136                            .dwattr $C$DW$20, DW_AT_decl_file(".\..\packages\ti\vlib\src\VLIB_updateEWRVarianceS32\..\comm
     137                            .dwattr $C$DW$20, DW_AT_decl_line(0x7b)
     138                            .dwattr $C$DW$20, DW_AT_decl_column(0x06)
     139                    $C$DW$21        .dwtag  DW_TAG_formal_parameter
     140                            .dwattr $C$DW$21, DW_AT_type(*$C$DW$T$10)
     141                    $C$DW$22        .dwtag  DW_TAG_formal_parameter
     142                            .dwattr $C$DW$22, DW_AT_type(*$C$DW$T$62)
     143                            .dwendtag $C$DW$20
     144                    
     145                    
     146                    $C$DW$23        .dwtag  DW_TAG_subprogram, DW_AT_name("VLIB_formula_add_test")
     147                            .dwattr $C$DW$23, DW_AT_TI_symbol_name("VLIB_formula_add_test")
     148                            .dwattr $C$DW$23, DW_AT_declaration
     149                            .dwattr $C$DW$23, DW_AT_external
     150                            .dwattr $C$DW$23, DW_AT_decl_file(".\..\packages\ti\vlib\src\VLIB_updateEWRVarianceS32\..\comm
     151                            .dwattr $C$DW$23, DW_AT_decl_line(0x7d)
     152                            .dwattr $C$DW$23, DW_AT_decl_column(0x06)
     153                    $C$DW$24        .dwtag  DW_TAG_formal_parameter
     154                            .dwattr $C$DW$24, DW_AT_type(*$C$DW$T$10)
     155                    $C$DW$25        .dwtag  DW_TAG_formal_parameter
     156                            .dwattr $C$DW$25, DW_AT_type(*$C$DW$T$10)
     157                    $C$DW$26        .dwtag  DW_TAG_formal_parameter
     158                            .dwattr $C$DW$26, DW_AT_type(*$C$DW$T$10)
     159                    $C$DW$27        .dwtag  DW_TAG_formal_parameter
     160                            .dwattr $C$DW$27, DW_AT_type(*$C$DW$T$10)
     161                    $C$DW$28        .dwtag  DW_TAG_formal_parameter
     162                            .dwattr $C$DW$28, DW_AT_type(*$C$DW$T$62)
     163                    $C$DW$29        .dwtag  DW_TAG_formal_parameter
     164                            .dwattr $C$DW$29, DW_AT_type(*$C$DW$T$10)
     165                            .dwendtag $C$DW$23
TMS320C6x Assembler PC v7.4.2 Thu Mar 19 12:45:04 2015

Tools Copyright (c) 1996-2012 Texas Instruments Incorporated
package/lib/Regression/regress_d_c/./../packages/ti/vlib/src/VLIB_updateEWRVarianceS32/VLIB_updateEWRVarianceS32_d.se66 PAGE    4

     166                    
     167                    
     168                    $C$DW$30        .dwtag  DW_TAG_subprogram, DW_AT_name("VLIB_skip_test")
     169                            .dwattr $C$DW$30, DW_AT_TI_symbol_name("VLIB_skip_test")
     170                            .dwattr $C$DW$30, DW_AT_declaration
     171                            .dwattr $C$DW$30, DW_AT_external
     172                            .dwattr $C$DW$30, DW_AT_decl_file(".\..\packages\ti\vlib\src\VLIB_updateEWRVarianceS32\..\comm
     173                            .dwattr $C$DW$30, DW_AT_decl_line(0x7e)
     174                            .dwattr $C$DW$30, DW_AT_decl_column(0x06)
     175                    $C$DW$31        .dwtag  DW_TAG_formal_parameter
     176                            .dwattr $C$DW$31, DW_AT_type(*$C$DW$T$62)
     177                            .dwendtag $C$DW$30
     178                    
     179                    
     180                    $C$DW$32        .dwtag  DW_TAG_subprogram, DW_AT_name("VLIB_profile_cycle_report")
     181                            .dwattr $C$DW$32, DW_AT_TI_symbol_name("VLIB_profile_cycle_report")
     182                            .dwattr $C$DW$32, DW_AT_declaration
     183                            .dwattr $C$DW$32, DW_AT_external
     184                            .dwattr $C$DW$32, DW_AT_decl_file(".\..\packages\ti\vlib\src\VLIB_updateEWRVarianceS32\..\comm
     185                            .dwattr $C$DW$32, DW_AT_decl_line(0x7f)
     186                            .dwattr $C$DW$32, DW_AT_decl_column(0x06)
     187                    $C$DW$33        .dwtag  DW_TAG_formal_parameter
     188                            .dwattr $C$DW$33, DW_AT_type(*$C$DW$T$10)
     189                    $C$DW$34        .dwtag  DW_TAG_formal_parameter
     190                            .dwattr $C$DW$34, DW_AT_type(*$C$DW$T$62)
     191                    $C$DW$35        .dwtag  DW_TAG_formal_parameter
     192                            .dwattr $C$DW$35, DW_AT_type(*$C$DW$T$62)
     193                            .dwendtag $C$DW$32
     194                    
     195                    
     196                    $C$DW$36        .dwtag  DW_TAG_subprogram, DW_AT_name("initStack")
     197                            .dwattr $C$DW$36, DW_AT_TI_symbol_name("initStack")
     198                            .dwattr $C$DW$36, DW_AT_declaration
     199                            .dwattr $C$DW$36, DW_AT_external
     200                            .dwattr $C$DW$36, DW_AT_decl_file(".\..\packages\ti\vlib\src\VLIB_updateEWRVarianceS32\..\comm
     201                            .dwattr $C$DW$36, DW_AT_decl_line(0x80)
     202                            .dwattr $C$DW$36, DW_AT_decl_column(0x06)
     203                    $C$DW$37        .dwtag  DW_TAG_formal_parameter
     204                            .dwattr $C$DW$37, DW_AT_type(*$C$DW$T$21)
     205                            .dwendtag $C$DW$36
     206                    
     207                    
     208                    $C$DW$38        .dwtag  DW_TAG_subprogram, DW_AT_name("setStackDepth")
     209                            .dwattr $C$DW$38, DW_AT_TI_symbol_name("setStackDepth")
     210                            .dwattr $C$DW$38, DW_AT_declaration
     211                            .dwattr $C$DW$38, DW_AT_external
     212                            .dwattr $C$DW$38, DW_AT_decl_file(".\..\packages\ti\vlib\src\VLIB_updateEWRVarianceS32\..\comm
     213                            .dwattr $C$DW$38, DW_AT_decl_line(0x81)
     214                            .dwattr $C$DW$38, DW_AT_decl_column(0x06)
     215                    
     216                    $C$DW$39        .dwtag  DW_TAG_subprogram, DW_AT_name("getSP")
     217                            .dwattr $C$DW$39, DW_AT_TI_symbol_name("getSP")
     218                            .dwattr $C$DW$39, DW_AT_type(*$C$DW$T$21)
     219                            .dwattr $C$DW$39, DW_AT_declaration
     220                            .dwattr $C$DW$39, DW_AT_external
TMS320C6x Assembler PC v7.4.2 Thu Mar 19 12:45:04 2015

Tools Copyright (c) 1996-2012 Texas Instruments Incorporated
package/lib/Regression/regress_d_c/./../packages/ti/vlib/src/VLIB_updateEWRVarianceS32/VLIB_updateEWRVarianceS32_d.se66 PAGE    5

     221                            .dwattr $C$DW$39, DW_AT_decl_file(".\..\packages\ti\vlib\src\VLIB_updateEWRVarianceS32\..\comm
     222                            .dwattr $C$DW$39, DW_AT_decl_line(0x82)
     223                            .dwattr $C$DW$39, DW_AT_decl_column(0x0a)
     224                    
     225                    $C$DW$40        .dwtag  DW_TAG_subprogram, DW_AT_name("VLIB_stack_memory")
     226                            .dwattr $C$DW$40, DW_AT_TI_symbol_name("VLIB_stack_memory")
     227                            .dwattr $C$DW$40, DW_AT_declaration
     228                            .dwattr $C$DW$40, DW_AT_external
     229                            .dwattr $C$DW$40, DW_AT_decl_file(".\..\packages\ti\vlib\src\VLIB_updateEWRVarianceS32\..\comm
     230                            .dwattr $C$DW$40, DW_AT_decl_line(0x83)
     231                            .dwattr $C$DW$40, DW_AT_decl_column(0x06)
     232                    
     233                    $C$DW$41        .dwtag  DW_TAG_subprogram, DW_AT_name("VLIB_compare_mem")
     234                            .dwattr $C$DW$41, DW_AT_TI_symbol_name("VLIB_compare_mem")
     235                            .dwattr $C$DW$41, DW_AT_type(*$C$DW$T$23)
     236                            .dwattr $C$DW$41, DW_AT_declaration
     237                            .dwattr $C$DW$41, DW_AT_external
     238                            .dwattr $C$DW$41, DW_AT_decl_file(".\..\packages\ti\vlib\src\VLIB_updateEWRVarianceS32\../comm
     239                            .dwattr $C$DW$41, DW_AT_decl_line(0x6f)
     240                            .dwattr $C$DW$41, DW_AT_decl_column(0x11)
     241                    $C$DW$42        .dwtag  DW_TAG_formal_parameter
     242                            .dwattr $C$DW$42, DW_AT_type(*$C$DW$T$53)
     243                    $C$DW$43        .dwtag  DW_TAG_formal_parameter
     244                            .dwattr $C$DW$43, DW_AT_type(*$C$DW$T$53)
     245                    $C$DW$44        .dwtag  DW_TAG_formal_parameter
     246                            .dwattr $C$DW$44, DW_AT_type(*$C$DW$T$23)
     247                            .dwendtag $C$DW$41
     248                    
     249                    
     250                    $C$DW$45        .dwtag  DW_TAG_subprogram, DW_AT_name("VLIB_fillBuffer")
     251                            .dwattr $C$DW$45, DW_AT_TI_symbol_name("VLIB_fillBuffer")
     252                            .dwattr $C$DW$45, DW_AT_declaration
     253                            .dwattr $C$DW$45, DW_AT_external
     254                            .dwattr $C$DW$45, DW_AT_decl_file(".\..\packages\ti\vlib\src\VLIB_updateEWRVarianceS32\../comm
     255                            .dwattr $C$DW$45, DW_AT_decl_line(0x77)
     256                            .dwattr $C$DW$45, DW_AT_decl_column(0x06)
     257                    $C$DW$46        .dwtag  DW_TAG_formal_parameter
     258                            .dwattr $C$DW$46, DW_AT_type(*$C$DW$T$19)
     259                    $C$DW$47        .dwtag  DW_TAG_formal_parameter
     260                            .dwattr $C$DW$47, DW_AT_type(*$C$DW$T$19)
     261                    $C$DW$48        .dwtag  DW_TAG_formal_parameter
     262                            .dwattr $C$DW$48, DW_AT_type(*$C$DW$T$3)
     263                    $C$DW$49        .dwtag  DW_TAG_formal_parameter
     264                            .dwattr $C$DW$49, DW_AT_type(*$C$DW$T$3)
     265                    $C$DW$50        .dwtag  DW_TAG_formal_parameter
     266                            .dwattr $C$DW$50, DW_AT_type(*$C$DW$T$76)
     267                    $C$DW$51        .dwtag  DW_TAG_formal_parameter
     268                            .dwattr $C$DW$51, DW_AT_type(*$C$DW$T$76)
     269                    $C$DW$52        .dwtag  DW_TAG_formal_parameter
     270                            .dwattr $C$DW$52, DW_AT_type(*$C$DW$T$76)
     271                    $C$DW$53        .dwtag  DW_TAG_formal_parameter
     272                            .dwattr $C$DW$53, DW_AT_type(*$C$DW$T$19)
     273                    $C$DW$54        .dwtag  DW_TAG_formal_parameter
     274                            .dwattr $C$DW$54, DW_AT_type(*$C$DW$T$62)
     275                            .dwendtag $C$DW$45
TMS320C6x Assembler PC v7.4.2 Thu Mar 19 12:45:04 2015

Tools Copyright (c) 1996-2012 Texas Instruments Incorporated
package/lib/Regression/regress_d_c/./../packages/ti/vlib/src/VLIB_updateEWRVarianceS32/VLIB_updateEWRVarianceS32_d.se66 PAGE    6

     276                    
     277                    
     278                    $C$DW$55        .dwtag  DW_TAG_subprogram, DW_AT_name("VLIB_malloc")
     279                            .dwattr $C$DW$55, DW_AT_TI_symbol_name("VLIB_malloc")
     280                            .dwattr $C$DW$55, DW_AT_type(*$C$DW$T$3)
     281                            .dwattr $C$DW$55, DW_AT_declaration
     282                            .dwattr $C$DW$55, DW_AT_external
     283                            .dwattr $C$DW$55, DW_AT_decl_file(".\..\packages\ti\vlib\src\VLIB_updateEWRVarianceS32\../comm
     284                            .dwattr $C$DW$55, DW_AT_decl_line(0xaf)
     285                            .dwattr $C$DW$55, DW_AT_decl_column(0x07)
     286                    $C$DW$56        .dwtag  DW_TAG_formal_parameter
     287                            .dwattr $C$DW$56, DW_AT_type(*$C$DW$T$56)
     288                            .dwendtag $C$DW$55
     289                    
     290                    
     291                    $C$DW$57        .dwtag  DW_TAG_subprogram, DW_AT_name("VLIB_free")
     292                            .dwattr $C$DW$57, DW_AT_TI_symbol_name("VLIB_free")
     293                            .dwattr $C$DW$57, DW_AT_declaration
     294                            .dwattr $C$DW$57, DW_AT_external
     295                            .dwattr $C$DW$57, DW_AT_decl_file(".\..\packages\ti\vlib\src\VLIB_updateEWRVarianceS32\../comm
     296                            .dwattr $C$DW$57, DW_AT_decl_line(0xb4)
     297                            .dwattr $C$DW$57, DW_AT_decl_column(0x07)
     298                    $C$DW$58        .dwtag  DW_TAG_formal_parameter
     299                            .dwattr $C$DW$58, DW_AT_type(*$C$DW$T$3)
     300                            .dwendtag $C$DW$57
     301                    
     302                    
     303                    $C$DW$59        .dwtag  DW_TAG_subprogram, DW_AT_name("VLIB_initMeanWithLumaS32_cn")
     304                            .dwattr $C$DW$59, DW_AT_TI_symbol_name("VLIB_initMeanWithLumaS32_cn")
     305                            .dwattr $C$DW$59, DW_AT_type(*$C$DW$T$23)
     306                            .dwattr $C$DW$59, DW_AT_declaration
     307                            .dwattr $C$DW$59, DW_AT_external
     308                            .dwattr $C$DW$59, DW_AT_decl_file(".\..\packages\ti\vlib\src\VLIB_updateEWRVarianceS32\../VLIB
     309                            .dwattr $C$DW$59, DW_AT_decl_line(0x20)
     310                            .dwattr $C$DW$59, DW_AT_decl_column(0x09)
     311                    $C$DW$60        .dwtag  DW_TAG_formal_parameter
     312                            .dwattr $C$DW$60, DW_AT_type(*$C$DW$T$112)
     313                    $C$DW$61        .dwtag  DW_TAG_formal_parameter
     314                            .dwattr $C$DW$61, DW_AT_type(*$C$DW$T$96)
     315                    $C$DW$62        .dwtag  DW_TAG_formal_parameter
     316                            .dwattr $C$DW$62, DW_AT_type(*$C$DW$T$113)
     317                            .dwendtag $C$DW$59
     318                    
     319                    
     320                    $C$DW$63        .dwtag  DW_TAG_subprogram, DW_AT_name("VLIB_initVarWithConstS32_cn")
     321                            .dwattr $C$DW$63, DW_AT_TI_symbol_name("VLIB_initVarWithConstS32_cn")
     322                            .dwattr $C$DW$63, DW_AT_type(*$C$DW$T$23)
     323                            .dwattr $C$DW$63, DW_AT_declaration
     324                            .dwattr $C$DW$63, DW_AT_external
     325                            .dwattr $C$DW$63, DW_AT_decl_file(".\..\packages\ti\vlib\src\VLIB_updateEWRVarianceS32\../VLIB
     326                            .dwattr $C$DW$63, DW_AT_decl_line(0x21)
     327                            .dwattr $C$DW$63, DW_AT_decl_column(0x09)
     328                    $C$DW$64        .dwtag  DW_TAG_formal_parameter
     329                            .dwattr $C$DW$64, DW_AT_type(*$C$DW$T$112)
     330                    $C$DW$65        .dwtag  DW_TAG_formal_parameter
TMS320C6x Assembler PC v7.4.2 Thu Mar 19 12:45:04 2015

Tools Copyright (c) 1996-2012 Texas Instruments Incorporated
package/lib/Regression/regress_d_c/./../packages/ti/vlib/src/VLIB_updateEWRVarianceS32/VLIB_updateEWRVarianceS32_d.se66 PAGE    7

     331                            .dwattr $C$DW$65, DW_AT_type(*$C$DW$T$116)
     332                    $C$DW$66        .dwtag  DW_TAG_formal_parameter
     333                            .dwattr $C$DW$66, DW_AT_type(*$C$DW$T$113)
     334                            .dwendtag $C$DW$63
     335                    
     336                    
     337                    $C$DW$67        .dwtag  DW_TAG_subprogram, DW_AT_name("VLIB_updateEWRVarianceS32")
     338                            .dwattr $C$DW$67, DW_AT_TI_symbol_name("VLIB_updateEWRVarianceS32")
     339                            .dwattr $C$DW$67, DW_AT_type(*$C$DW$T$23)
     340                            .dwattr $C$DW$67, DW_AT_declaration
     341                            .dwattr $C$DW$67, DW_AT_external
     342                            .dwattr $C$DW$67, DW_AT_decl_file(".\..\packages\ti\vlib\src\VLIB_updateEWRVarianceS32\c66/VLI
     343                            .dwattr $C$DW$67, DW_AT_decl_line(0x77)
     344                            .dwattr $C$DW$67, DW_AT_decl_column(0x09)
     345                    $C$DW$68        .dwtag  DW_TAG_formal_parameter
     346                            .dwattr $C$DW$68, DW_AT_type(*$C$DW$T$112)
     347                    $C$DW$69        .dwtag  DW_TAG_formal_parameter
     348                            .dwattr $C$DW$69, DW_AT_type(*$C$DW$T$120)
     349                    $C$DW$70        .dwtag  DW_TAG_formal_parameter
     350                            .dwattr $C$DW$70, DW_AT_type(*$C$DW$T$96)
     351                    $C$DW$71        .dwtag  DW_TAG_formal_parameter
     352                            .dwattr $C$DW$71, DW_AT_type(*$C$DW$T$122)
     353                    $C$DW$72        .dwtag  DW_TAG_formal_parameter
     354                            .dwattr $C$DW$72, DW_AT_type(*$C$DW$T$116)
     355                    $C$DW$73        .dwtag  DW_TAG_formal_parameter
     356                            .dwattr $C$DW$73, DW_AT_type(*$C$DW$T$113)
     357                            .dwendtag $C$DW$67
     358                    
     359                    
     360                    $C$DW$74        .dwtag  DW_TAG_subprogram, DW_AT_name("VLIB_updateEWRVarianceS32_cn")
     361                            .dwattr $C$DW$74, DW_AT_TI_symbol_name("VLIB_updateEWRVarianceS32_cn")
     362                            .dwattr $C$DW$74, DW_AT_type(*$C$DW$T$23)
     363                            .dwattr $C$DW$74, DW_AT_declaration
     364                            .dwattr $C$DW$74, DW_AT_external
     365                            .dwattr $C$DW$74, DW_AT_decl_file(".\..\packages\ti\vlib\src\VLIB_updateEWRVarianceS32\VLIB_up
     366                            .dwattr $C$DW$74, DW_AT_decl_line(0x22)
     367                            .dwattr $C$DW$74, DW_AT_decl_column(0x09)
     368                    $C$DW$75        .dwtag  DW_TAG_formal_parameter
     369                            .dwattr $C$DW$75, DW_AT_type(*$C$DW$T$112)
     370                    $C$DW$76        .dwtag  DW_TAG_formal_parameter
     371                            .dwattr $C$DW$76, DW_AT_type(*$C$DW$T$120)
     372                    $C$DW$77        .dwtag  DW_TAG_formal_parameter
     373                            .dwattr $C$DW$77, DW_AT_type(*$C$DW$T$96)
     374                    $C$DW$78        .dwtag  DW_TAG_formal_parameter
     375                            .dwattr $C$DW$78, DW_AT_type(*$C$DW$T$122)
     376                    $C$DW$79        .dwtag  DW_TAG_formal_parameter
     377                            .dwattr $C$DW$79, DW_AT_type(*$C$DW$T$116)
     378                    $C$DW$80        .dwtag  DW_TAG_formal_parameter
     379                            .dwattr $C$DW$80, DW_AT_type(*$C$DW$T$113)
     380                            .dwendtag $C$DW$74
     381                    
     382                    
     383                    $C$DW$81        .dwtag  DW_TAG_subprogram, DW_AT_name("updateEWRVarianceS32_getTestParams")
     384                            .dwattr $C$DW$81, DW_AT_TI_symbol_name("updateEWRVarianceS32_getTestParams")
     385                            .dwattr $C$DW$81, DW_AT_declaration
TMS320C6x Assembler PC v7.4.2 Thu Mar 19 12:45:04 2015

Tools Copyright (c) 1996-2012 Texas Instruments Incorporated
package/lib/Regression/regress_d_c/./../packages/ti/vlib/src/VLIB_updateEWRVarianceS32/VLIB_updateEWRVarianceS32_d.se66 PAGE    8

     386                            .dwattr $C$DW$81, DW_AT_external
     387                            .dwattr $C$DW$81, DW_AT_decl_file(".\..\packages\ti\vlib\src\VLIB_updateEWRVarianceS32\VLIB_up
     388                            .dwattr $C$DW$81, DW_AT_decl_line(0x2e)
     389                            .dwattr $C$DW$81, DW_AT_decl_column(0x06)
     390                    $C$DW$82        .dwtag  DW_TAG_formal_parameter
     391                            .dwattr $C$DW$82, DW_AT_type(*$C$DW$T$46)
     392                    $C$DW$83        .dwtag  DW_TAG_formal_parameter
     393                            .dwattr $C$DW$83, DW_AT_type(*$C$DW$T$24)
     394                            .dwendtag $C$DW$81
     395                    
     396                    $C$DW$84        .dwtag  DW_TAG_variable, DW_AT_name("test_cases")
     397                            .dwattr $C$DW$84, DW_AT_TI_symbol_name("test_cases")
     398                            .dwattr $C$DW$84, DW_AT_type(*$C$DW$T$23)
     399                            .dwattr $C$DW$84, DW_AT_declaration
     400                            .dwattr $C$DW$84, DW_AT_external
     401                            .dwattr $C$DW$84, DW_AT_decl_file(".\..\packages\ti\vlib\src\VLIB_updateEWRVarianceS32\../comm
     402                            .dwattr $C$DW$84, DW_AT_decl_line(0x60)
     403                            .dwattr $C$DW$84, DW_AT_decl_column(0x13)
     404                    $C$DW$85        .dwtag  DW_TAG_variable, DW_AT_name("act_kernel")
     405                            .dwattr $C$DW$85, DW_AT_TI_symbol_name("act_kernel")
     406                            .dwattr $C$DW$85, DW_AT_type(*$C$DW$T$10)
     407                            .dwattr $C$DW$85, DW_AT_declaration
     408                            .dwattr $C$DW$85, DW_AT_external
     409                            .dwattr $C$DW$85, DW_AT_decl_file(".\..\packages\ti\vlib\src\VLIB_updateEWRVarianceS32\../comm
     410                            .dwattr $C$DW$85, DW_AT_decl_line(0x62)
     411                            .dwattr $C$DW$85, DW_AT_decl_column(0x13)
     412                    $C$DW$86        .dwtag  DW_TAG_variable, DW_AT_name("desc")
     413                            .dwattr $C$DW$86, DW_AT_TI_symbol_name("desc")
     414                            .dwattr $C$DW$86, DW_AT_type(*$C$DW$T$173)
     415                            .dwattr $C$DW$86, DW_AT_declaration
     416                            .dwattr $C$DW$86, DW_AT_external
     417                            .dwattr $C$DW$86, DW_AT_decl_file(".\..\packages\ti\vlib\src\VLIB_updateEWRVarianceS32\../comm
     418                            .dwattr $C$DW$86, DW_AT_decl_line(0x63)
     419                            .dwattr $C$DW$86, DW_AT_decl_column(0x13)
     420                    $C$DW$87        .dwtag  DW_TAG_variable, DW_AT_name("testPatternString")
     421                            .dwattr $C$DW$87, DW_AT_TI_symbol_name("testPatternString")
     422                            .dwattr $C$DW$87, DW_AT_type(*$C$DW$T$173)
     423                            .dwattr $C$DW$87, DW_AT_declaration
     424                            .dwattr $C$DW$87, DW_AT_external
     425                            .dwattr $C$DW$87, DW_AT_decl_file(".\..\packages\ti\vlib\src\VLIB_updateEWRVarianceS32\../comm
     426                            .dwattr $C$DW$87, DW_AT_decl_line(0x64)
     427                            .dwattr $C$DW$87, DW_AT_decl_column(0x13)
     428                    $C$DW$88        .dwtag  DW_TAG_variable, DW_AT_name("est_test")
     429                            .dwattr $C$DW$88, DW_AT_TI_symbol_name("est_test")
     430                            .dwattr $C$DW$88, DW_AT_type(*$C$DW$T$10)
     431                            .dwattr $C$DW$88, DW_AT_declaration
     432                            .dwattr $C$DW$88, DW_AT_external
     433                            .dwattr $C$DW$88, DW_AT_decl_file(".\..\packages\ti\vlib\src\VLIB_updateEWRVarianceS32\..\comm
     434                            .dwattr $C$DW$88, DW_AT_decl_line(0x75)
     435                            .dwattr $C$DW$88, DW_AT_decl_column(0x14)
     436                    $C$DW$89        .dwtag  DW_TAG_variable, DW_AT_name("beg_count")
     437                            .dwattr $C$DW$89, DW_AT_TI_symbol_name("beg_count")
     438                            .dwattr $C$DW$89, DW_AT_type(*$C$DW$T$163)
     439                            .dwattr $C$DW$89, DW_AT_declaration
     440                            .dwattr $C$DW$89, DW_AT_external
TMS320C6x Assembler PC v7.4.2 Thu Mar 19 12:45:04 2015

Tools Copyright (c) 1996-2012 Texas Instruments Incorporated
package/lib/Regression/regress_d_c/./../packages/ti/vlib/src/VLIB_updateEWRVarianceS32/VLIB_updateEWRVarianceS32_d.se66 PAGE    9

     441                            .dwattr $C$DW$89, DW_AT_decl_file(".\..\packages\ti\vlib\src\VLIB_updateEWRVarianceS32\..\comm
     442                            .dwattr $C$DW$89, DW_AT_decl_line(0x76)
     443                            .dwattr $C$DW$89, DW_AT_decl_column(0x14)
     444                    $C$DW$90        .dwtag  DW_TAG_variable, DW_AT_name("end_count")
     445                            .dwattr $C$DW$90, DW_AT_TI_symbol_name("end_count")
     446                            .dwattr $C$DW$90, DW_AT_type(*$C$DW$T$163)
     447                            .dwattr $C$DW$90, DW_AT_declaration
     448                            .dwattr $C$DW$90, DW_AT_external
     449                            .dwattr $C$DW$90, DW_AT_decl_file(".\..\packages\ti\vlib\src\VLIB_updateEWRVarianceS32\..\comm
     450                            .dwattr $C$DW$90, DW_AT_decl_line(0x77)
     451                            .dwattr $C$DW$90, DW_AT_decl_column(0x14)
     452                    $C$DW$91        .dwtag  DW_TAG_variable, DW_AT_name("overhead")
     453                            .dwattr $C$DW$91, DW_AT_TI_symbol_name("overhead")
     454                            .dwattr $C$DW$91, DW_AT_type(*$C$DW$T$163)
     455                            .dwattr $C$DW$91, DW_AT_declaration
     456                            .dwattr $C$DW$91, DW_AT_external
     457                            .dwattr $C$DW$91, DW_AT_decl_file(".\..\packages\ti\vlib\src\VLIB_updateEWRVarianceS32\..\comm
     458                            .dwattr $C$DW$91, DW_AT_decl_line(0x78)
     459                            .dwattr $C$DW$91, DW_AT_decl_column(0x14)
     460                    $C$DW$92        .dwtag  DW_TAG_variable, DW_AT_name("cycles")
     461                            .dwattr $C$DW$92, DW_AT_TI_symbol_name("cycles")
     462                            .dwattr $C$DW$92, DW_AT_type(*$C$DW$T$164)
     463                            .dwattr $C$DW$92, DW_AT_declaration
     464                            .dwattr $C$DW$92, DW_AT_external
     465                            .dwattr $C$DW$92, DW_AT_decl_file(".\..\packages\ti\vlib\src\VLIB_updateEWRVarianceS32\..\comm
     466                            .dwattr $C$DW$92, DW_AT_decl_line(0x79)
     467                            .dwattr $C$DW$92, DW_AT_decl_column(0x14)
     468                    ;       C:\VLIB_Tools\CCSV5_4_0\ccsv5\tools\compiler\C6000\bin\opt6x.exe C:\\Users\\gtbldadm\\AppData\
     469 00000000                   .sect   ".text"
     470                            .clink
     471                            .global VLIB_updateEWRVarianceS32_d
     472                    
     473                    $C$DW$93        .dwtag  DW_TAG_subprogram, DW_AT_name("VLIB_updateEWRVarianceS32_d")
     474                            .dwattr $C$DW$93, DW_AT_low_pc(VLIB_updateEWRVarianceS32_d)
     475                            .dwattr $C$DW$93, DW_AT_high_pc(0x00)
     476                            .dwattr $C$DW$93, DW_AT_TI_symbol_name("VLIB_updateEWRVarianceS32_d")
     477                            .dwattr $C$DW$93, DW_AT_external
     478                            .dwattr $C$DW$93, DW_AT_TI_begin_file("./../packages/ti/vlib/src/VLIB_updateEWRVarianceS32/VLI
     479                            .dwattr $C$DW$93, DW_AT_TI_begin_line(0x29)
     480                            .dwattr $C$DW$93, DW_AT_TI_begin_column(0x06)
     481                            .dwattr $C$DW$93, DW_AT_decl_file("./../packages/ti/vlib/src/VLIB_updateEWRVarianceS32/VLIB_up
     482                            .dwattr $C$DW$93, DW_AT_decl_line(0x29)
     483                            .dwattr $C$DW$93, DW_AT_decl_column(0x06)
     484                            .dwattr $C$DW$93, DW_AT_TI_max_frame_size(0x60)
     485                            .dwpsn  file "./../packages/ti/vlib/src/VLIB_updateEWRVarianceS32/VLIB_updateEWRVarianceS32_d.
     486                    
     487                            .dwfde $C$DW$CIE, VLIB_updateEWRVarianceS32_d
     488                    $C$DW$94        .dwtag  DW_TAG_formal_parameter, DW_AT_name("LevelOfFeedback")
     489                            .dwattr $C$DW$94, DW_AT_TI_symbol_name("LevelOfFeedback")
     490                            .dwattr $C$DW$94, DW_AT_type(*$C$DW$T$19)
     491                            .dwattr $C$DW$94, DW_AT_location[DW_OP_reg4]
     492                    ;----------------------------------------------------------------------
     493                    ;  41 | void VLIB_updateEWRVarianceS32_d (uint8_t LevelOfFeedback)             
     494                    ;----------------------------------------------------------------------
     495                    
TMS320C6x Assembler PC v7.4.2 Thu Mar 19 12:45:04 2015

Tools Copyright (c) 1996-2012 Texas Instruments Incorporated
package/lib/Regression/regress_d_c/./../packages/ti/vlib/src/VLIB_updateEWRVarianceS32/VLIB_updateEWRVarianceS32_d.se66 PAGE   10

     496                    ;******************************************************************************
     497                    ;* FUNCTION NAME: VLIB_updateEWRVarianceS32_d                                 *
     498                    ;*                                                                            *
     499                    ;*   Regs Modified     : A0,A1,A2,A3,A4,A5,A6,A7,A8,A9,A10,A11,A12,A13,A14,   *
     500                    ;*                           A15,B0,B1,B2,B3,B4,B5,B6,B7,B8,B9,B10,B11,B12,   *
     501                    ;*                           B13,SP,A16,A17,A18,A19,A20,A21,A22,A23,A24,A25,  *
     502                    ;*                           A26,A27,A28,A29,A30,A31,B16,B17,B18,B19,B20,B21, *
     503                    ;*                           B22,B23,B24,B25,B26,B27,B28,B29,B30,B31          *
     504                    ;*   Regs Used         : A0,A1,A2,A3,A4,A5,A6,A7,A8,A9,A10,A11,A12,A13,A14,   *
     505                    ;*                           A15,B0,B1,B2,B3,B4,B5,B6,B7,B8,B9,B10,B11,B12,   *
     506                    ;*                           B13,DP,SP,A16,A17,A18,A19,A20,A21,A22,A23,A24,   *
     507                    ;*                           A25,A26,A27,A28,A29,A30,A31,B16,B17,B18,B19,B20, *
     508                    ;*                           B21,B22,B23,B24,B25,B26,B27,B28,B29,B30,B31      *
     509                    ;*   Local Frame Size  : 16 Args + 24 Auto + 56 Save = 96 byte                *
     510                    ;******************************************************************************
     511                    
     512                    ;******************************************************************************
     513                    ;*                                                                            *
     514                    ;* Using -g (debug) with optimization (-o3) may disable key optimizations!    *
     515                    ;*                                                                            *
     516                    ;******************************************************************************
     517 00000000           VLIB_updateEWRVarianceS32_d:
     518                    ;** --------------------------------------------------------------------------*
     519                    ;          EXCLUSIVE CPU CYCLES: 16
     520                    ;** 48  -----------------------    updateEWRVarianceS32_getTestParams(&prm, &test_cases);
     521                    ;** 51  -----------------------    VLIB_profile_init(2, "VLIB_updateEWRVarianceS32");
     522                    ;** 54  -----------------------    if ( test_cases <= 0 ) goto g16;
     523                            .dwcfi  cfa_offset, 0
     524                    ;----------------------------------------------------------------------
     525                    ;  43 | int32_t    tpi;  /* test parameter index */                            
     526                    ;  46 | updateEWRVarianceS32_testParams_t   *prm;                              
     527                    ;----------------------------------------------------------------------
     528 00000000     25f7             STW     .D2T1   A11,*SP--(8)      ; |42| 
     529                            .dwcfi  cfa_offset, 8
     530                            .dwcfi  save_reg_to_mem, 11, 0
     531 00000002     2577             STW     .D2T1   A10,*SP--(8)      ; |42| 
     532                            .dwcfi  cfa_offset, 16
     533                            .dwcfi  save_reg_to_mem, 10, -8
     534 00000004     9677             STDW    .D2T2   B13:B12,*SP--     ; |42| 
     535                            .dwcfi  cfa_offset, 24
     536                            .dwcfi  save_reg_to_mem, 29, -12
     537                            .dwcfi  save_reg_to_mem, 28, -16
     538 00000006     9577             STDW    .D2T2   B11:B10,*SP--     ; |42| 
     539                            .dwcfi  cfa_offset, 32
     540                            .dwcfi  save_reg_to_mem, 27, -20
     541                            .dwcfi  save_reg_to_mem, 26, -24
     542 00000008     8777             STDW    .D2T1   A15:A14,*SP--     ; |42| 
     543                            .dwcfi  cfa_offset, 40
     544                            .dwcfi  save_reg_to_mem, 15, -28
     545                            .dwcfi  save_reg_to_mem, 14, -32
     546 0000000a     8677             STDW    .D2T1   A13:A12,*SP--     ; |42| 
     547                            .dwcfi  cfa_offset, 48
     548                            .dwcfi  save_reg_to_mem, 13, -36
     549                            .dwcfi  save_reg_to_mem, 12, -40
     550 0000000c 01bd94f6             STW     .D2T2   B3,*SP--(48)      ; |42| 
TMS320C6x Assembler PC v7.4.2 Thu Mar 19 12:45:04 2015

Tools Copyright (c) 1996-2012 Texas Instruments Incorporated
package/lib/Regression/regress_d_c/./../packages/ti/vlib/src/VLIB_updateEWRVarianceS32/VLIB_updateEWRVarianceS32_d.se66 PAGE   11

     551                            .dwcfi  cfa_offset, 96
     552                            .dwcfi  save_reg_to_mem, 19, 0
     553                    $C$DW$95        .dwtag  DW_TAG_variable, DW_AT_name("$O$C1")
     554                            .dwattr $C$DW$95, DW_AT_TI_symbol_name("$O$C1")
     555                            .dwattr $C$DW$95, DW_AT_type(*$C$DW$T$10)
     556                            .dwattr $C$DW$95, DW_AT_location[DW_OP_reg6]
     557                    $C$DW$96        .dwtag  DW_TAG_variable, DW_AT_name("$O$C2")
     558                            .dwattr $C$DW$96, DW_AT_TI_symbol_name("$O$C2")
     559                            .dwattr $C$DW$96, DW_AT_type(*$C$DW$T$10)
     560                            .dwattr $C$DW$96, DW_AT_location[DW_OP_reg3]
     561                    $C$DW$97        .dwtag  DW_TAG_variable, DW_AT_name("$O$C3")
     562                            .dwattr $C$DW$97, DW_AT_TI_symbol_name("$O$C3")
     563                            .dwattr $C$DW$97, DW_AT_type(*$C$DW$T$9)
     564                            .dwattr $C$DW$97, DW_AT_location[DW_OP_reg8]
     565                    $C$DW$98        .dwtag  DW_TAG_variable, DW_AT_name("$O$C4")
     566                            .dwattr $C$DW$98, DW_AT_TI_symbol_name("$O$C4")
     567                            .dwattr $C$DW$98, DW_AT_type(*$C$DW$T$42)
     568                            .dwattr $C$DW$98, DW_AT_location[DW_OP_reg20]
     569                    $C$DW$99        .dwtag  DW_TAG_variable, DW_AT_name("$O$C5")
     570                            .dwattr $C$DW$99, DW_AT_TI_symbol_name("$O$C5")
     571                            .dwattr $C$DW$99, DW_AT_type(*$C$DW$T$26)
     572                            .dwattr $C$DW$99, DW_AT_location[DW_OP_reg0]
     573                    $C$DW$100       .dwtag  DW_TAG_variable, DW_AT_name("$O$C6")
     574                            .dwattr $C$DW$100, DW_AT_TI_symbol_name("$O$C6")
     575                            .dwattr $C$DW$100, DW_AT_type(*$C$DW$T$9)
     576                            .dwattr $C$DW$100, DW_AT_location[DW_OP_reg8]
     577                    $C$DW$101       .dwtag  DW_TAG_variable, DW_AT_name("$O$C7")
     578                            .dwattr $C$DW$101, DW_AT_TI_symbol_name("$O$C7")
     579                            .dwattr $C$DW$101, DW_AT_type(*$C$DW$T$138)
     580                            .dwattr $C$DW$101, DW_AT_location[DW_OP_reg0]
     581                    $C$DW$102       .dwtag  DW_TAG_variable, DW_AT_name("$O$C8")
     582                            .dwattr $C$DW$102, DW_AT_TI_symbol_name("$O$C8")
     583                            .dwattr $C$DW$102, DW_AT_type(*$C$DW$T$11)
     584                            .dwattr $C$DW$102, DW_AT_location[DW_OP_reg10]
     585                    $C$DW$103       .dwtag  DW_TAG_variable, DW_AT_name("$O$U12")
     586                            .dwattr $C$DW$103, DW_AT_TI_symbol_name("$O$U12")
     587                            .dwattr $C$DW$103, DW_AT_type(*$C$DW$T$42)
     588                            .dwattr $C$DW$103, DW_AT_location[DW_OP_reg11]
     589                    $C$DW$104       .dwtag  DW_TAG_variable, DW_AT_name("$O$K48")
     590                            .dwattr $C$DW$104, DW_AT_TI_symbol_name("$O$K48")
     591                            .dwattr $C$DW$104, DW_AT_type(*$C$DW$T$82)
     592                            .dwattr $C$DW$104, DW_AT_location[DW_OP_reg27]
     593                    $C$DW$105       .dwtag  DW_TAG_variable, DW_AT_name("$O$U23")
     594                            .dwattr $C$DW$105, DW_AT_TI_symbol_name("$O$U23")
     595                            .dwattr $C$DW$105, DW_AT_type(*$C$DW$T$11)
     596                            .dwattr $C$DW$105, DW_AT_location[DW_OP_reg10]
     597                    $C$DW$106       .dwtag  DW_TAG_variable, DW_AT_name("$O$U11")
     598                            .dwattr $C$DW$106, DW_AT_TI_symbol_name("$O$U11")
     599                            .dwattr $C$DW$106, DW_AT_type(*$C$DW$T$10)
     600                            .dwattr $C$DW$106, DW_AT_location[DW_OP_reg28]
     601                    $C$DW$107       .dwtag  DW_TAG_variable, DW_AT_name("$O$K78")
     602                            .dwattr $C$DW$107, DW_AT_TI_symbol_name("$O$K78")
     603                            .dwattr $C$DW$107, DW_AT_type(*$C$DW$T$162)
     604                            .dwattr $C$DW$107, DW_AT_location[DW_OP_reg10]
     605                    $C$DW$108       .dwtag  DW_TAG_variable, DW_AT_name("$O$U87")
TMS320C6x Assembler PC v7.4.2 Thu Mar 19 12:45:04 2015

Tools Copyright (c) 1996-2012 Texas Instruments Incorporated
package/lib/Regression/regress_d_c/./../packages/ti/vlib/src/VLIB_updateEWRVarianceS32/VLIB_updateEWRVarianceS32_d.se66 PAGE   12

     606                            .dwattr $C$DW$108, DW_AT_TI_symbol_name("$O$U87")
     607                            .dwattr $C$DW$108, DW_AT_type(*$C$DW$T$125)
     608                            .dwattr $C$DW$108, DW_AT_location[DW_OP_reg0]
     609                    $C$DW$109       .dwtag  DW_TAG_variable, DW_AT_name("$O$K96")
     610                            .dwattr $C$DW$109, DW_AT_TI_symbol_name("$O$K96")
     611                            .dwattr $C$DW$109, DW_AT_type(*$C$DW$T$82)
     612                            .dwattr $C$DW$109, DW_AT_location[DW_OP_reg15]
     613                    $C$DW$110       .dwtag  DW_TAG_variable, DW_AT_name("tpi")
     614                            .dwattr $C$DW$110, DW_AT_TI_symbol_name("tpi")
     615                            .dwattr $C$DW$110, DW_AT_type(*$C$DW$T$23)
     616                            .dwattr $C$DW$110, DW_AT_location[DW_OP_reg13]
     617                    $C$DW$111       .dwtag  DW_TAG_variable, DW_AT_name("prm")
     618                            .dwattr $C$DW$111, DW_AT_TI_symbol_name("prm")
     619                            .dwattr $C$DW$111, DW_AT_type(*$C$DW$T$45)
     620                            .dwattr $C$DW$111, DW_AT_location[DW_OP_breg31 20]
     621                    $C$DW$112       .dwtag  DW_TAG_variable, DW_AT_name("status_nat_vs_int")
     622                            .dwattr $C$DW$112, DW_AT_TI_symbol_name("status_nat_vs_int")
     623                            .dwattr $C$DW$112, DW_AT_type(*$C$DW$T$23)
     624                            .dwattr $C$DW$112, DW_AT_location[DW_OP_reg26]
     625                    $C$DW$113       .dwtag  DW_TAG_variable, DW_AT_name("status_nat_vs_ref")
     626                            .dwattr $C$DW$113, DW_AT_TI_symbol_name("status_nat_vs_ref")
     627                            .dwattr $C$DW$113, DW_AT_type(*$C$DW$T$23)
     628                            .dwattr $C$DW$113, DW_AT_location[DW_OP_reg14]
     629                    $C$DW$114       .dwtag  DW_TAG_variable, DW_AT_name("packed_size")
     630                            .dwattr $C$DW$114, DW_AT_TI_symbol_name("packed_size")
     631                            .dwattr $C$DW$114, DW_AT_type(*$C$DW$T$21)
     632                            .dwattr $C$DW$114, DW_AT_location[DW_OP_reg12]
     633                    $C$DW$115       .dwtag  DW_TAG_variable, DW_AT_name("newLuma")
     634                            .dwattr $C$DW$115, DW_AT_TI_symbol_name("newLuma")
     635                            .dwattr $C$DW$115, DW_AT_type(*$C$DW$T$20)
     636                            .dwattr $C$DW$115, DW_AT_location[DW_OP_breg31 24]
     637                    $C$DW$116       .dwtag  DW_TAG_variable, DW_AT_name("prevLuma")
     638                            .dwattr $C$DW$116, DW_AT_TI_symbol_name("prevLuma")
     639                            .dwattr $C$DW$116, DW_AT_type(*$C$DW$T$20)
     640                            .dwattr $C$DW$116, DW_AT_location[DW_OP_breg31 28]
     641                    $C$DW$117       .dwtag  DW_TAG_variable, DW_AT_name("mask32packed")
     642                            .dwattr $C$DW$117, DW_AT_TI_symbol_name("mask32packed")
     643                            .dwattr $C$DW$117, DW_AT_type(*$C$DW$T$22)
     644                            .dwattr $C$DW$117, DW_AT_location[DW_OP_breg31 32]
     645                    $C$DW$118       .dwtag  DW_TAG_variable, DW_AT_name("runningMean")
     646                            .dwattr $C$DW$118, DW_AT_TI_symbol_name("runningMean")
     647                            .dwattr $C$DW$118, DW_AT_type(*$C$DW$T$24)
     648                            .dwattr $C$DW$118, DW_AT_location[DW_OP_breg31 36]
     649                    $C$DW$119       .dwtag  DW_TAG_variable, DW_AT_name("runningVar")
     650                            .dwattr $C$DW$119, DW_AT_TI_symbol_name("runningVar")
     651                            .dwattr $C$DW$119, DW_AT_type(*$C$DW$T$24)
     652                            .dwattr $C$DW$119, DW_AT_location[DW_OP_breg31 40]
     653                    $C$DW$120       .dwtag  DW_TAG_variable, DW_AT_name("runningVar_cn")
     654                            .dwattr $C$DW$120, DW_AT_TI_symbol_name("runningVar_cn")
     655                            .dwattr $C$DW$120, DW_AT_type(*$C$DW$T$24)
     656                            .dwattr $C$DW$120, DW_AT_location[DW_OP_reg29]
     657                    $C$DW$121       .dwtag  DW_TAG_variable, DW_AT_name("$O$v1")
     658                            .dwattr $C$DW$121, DW_AT_TI_symbol_name("$O$v1")
     659                            .dwattr $C$DW$121, DW_AT_type(*$C$DW$T$45)
     660                            .dwattr $C$DW$121, DW_AT_location[DW_OP_reg20]
TMS320C6x Assembler PC v7.4.2 Thu Mar 19 12:45:04 2015

Tools Copyright (c) 1996-2012 Texas Instruments Incorporated
package/lib/Regression/regress_d_c/./../packages/ti/vlib/src/VLIB_updateEWRVarianceS32/VLIB_updateEWRVarianceS32_d.se66 PAGE   13

     661                    $C$DW$122       .dwtag  DW_TAG_variable, DW_AT_name("$O$v1")
     662                            .dwattr $C$DW$122, DW_AT_TI_symbol_name("$O$v1")
     663                            .dwattr $C$DW$122, DW_AT_type(*$C$DW$T$45)
     664                            .dwattr $C$DW$122, DW_AT_location[DW_OP_reg20]
     665                    $C$DW$123       .dwtag  DW_TAG_variable, DW_AT_name("$O$v1")
     666                            .dwattr $C$DW$123, DW_AT_TI_symbol_name("$O$v1")
     667                            .dwattr $C$DW$123, DW_AT_type(*$C$DW$T$45)
     668                            .dwattr $C$DW$123, DW_AT_location[DW_OP_reg20]
     669                    $C$DW$124       .dwtag  DW_TAG_variable, DW_AT_name("$O$v2")
     670                            .dwattr $C$DW$124, DW_AT_TI_symbol_name("$O$v2")
     671                            .dwattr $C$DW$124, DW_AT_type(*$C$DW$T$163)
     672                            .dwattr $C$DW$124, DW_AT_location[DW_OP_reg22]
     673                    $C$DW$125       .dwtag  DW_TAG_variable, DW_AT_name("$O$v2")
     674                            .dwattr $C$DW$125, DW_AT_TI_symbol_name("$O$v2")
     675                            .dwattr $C$DW$125, DW_AT_type(*$C$DW$T$163)
     676                            .dwattr $C$DW$125, DW_AT_location[DW_OP_reg22]
     677 00000010 05000028!            MVKL    .S1     test_cases,A10
     678 00000014 05000068!            MVKH    .S1     test_cases,A10
     679                            .dwpsn  file "./../packages/ti/vlib/src/VLIB_updateEWRVarianceS32/VLIB_updateEWRVarianceS32_d.
     680                    ;----------------------------------------------------------------------
     681                    ;  48 | updateEWRVarianceS32_getTestParams(&prm, &test_cases);                 
     682                    ;----------------------------------------------------------------------
     683 00000018     a636             ADDAW   .D1X    SP,5,A4           ; |48| 
     684                    $C$DW$126       .dwtag  DW_TAG_TI_branch
     685                            .dwattr $C$DW$126, DW_AT_low_pc(0x00)
     686                            .dwattr $C$DW$126, DW_AT_name("updateEWRVarianceS32_getTestParams")
     687                            .dwattr $C$DW$126, DW_AT_TI_call
     688                    
     689 00000020 10000012!            CALLP   .S2     updateEWRVarianceS32_getTestParams,B3
     690 0000001a     9507  ||         MV      .L2X    A10,B4            ; |48| 
     691                    
     692 00000024           $C$RL0:    ; CALL OCCURS {updateEWRVarianceS32_getTestParams} {0}  ; |48| 
     693                    ;** --------------------------------------------------------------------------*
     694                    ;          EXCLUSIVE CPU CYCLES: 8
     695 00000024 0200002a!            MVKL    .S2     $C$SL1+0,B4
     696 00000028 0200006a!            MVKH    .S2     $C$SL1+0,B4
     697                    $C$DW$127       .dwtag  DW_TAG_TI_branch
     698                            .dwattr $C$DW$127, DW_AT_low_pc(0x00)
     699                            .dwattr $C$DW$127, DW_AT_name("VLIB_profile_init")
     700                            .dwattr $C$DW$127, DW_AT_TI_call
     701                    
     702 0000002c 10000013!            CALLP   .S2     VLIB_profile_init,B3
     703 00000030     4626  ||         MVK     .L1     0x2,A4            ; |51| 
     704                    
     705                            .dwpsn  file "./../packages/ti/vlib/src/VLIB_updateEWRVarianceS32/VLIB_updateEWRVarianceS32_d.
     706                    ;----------------------------------------------------------------------
     707                    ;  51 | VLIB_profile_init(2, "VLIB_updateEWRVarianceS32");                     
     708                    ;----------------------------------------------------------------------
     709 00000032           $C$RL1:    ; CALL OCCURS {VLIB_profile_init} {0}  ; |51| 
     710                    ;** --------------------------------------------------------------------------*
     711                    ;          EXCLUSIVE CPU CYCLES: 12
     712                    
     713 00000032     bcdd             LDW     .D2T2   *+SP(20),B5
     714 00000034 01a80264  ||         LDW     .D1T1   *A10,A3           ; |54| 
     715                    
TMS320C6x Assembler PC v7.4.2 Thu Mar 19 12:45:04 2015

Tools Copyright (c) 1996-2012 Texas Instruments Incorporated
package/lib/Regression/regress_d_c/./../packages/ti/vlib/src/VLIB_updateEWRVarianceS32/VLIB_updateEWRVarianceS32_d.se66 PAGE   14

     716 00000038 0200002a!            MVKL    .S2     desc,B4
     717 00000040 02001028             MVK     .S1     32,A4
     718                            .dwpsn  file "./../packages/ti/vlib/src/VLIB_updateEWRVarianceS32/VLIB_updateEWRVarianceS32_d.
     719                    ;----------------------------------------------------------------------
     720                    ;  54 | for( tpi=0; tpi < test_cases; tpi++ ) {                                
     721                    ;  57 |     int32_t    status_nat_vs_int = vlib_KERNEL_PASS; /* Test status : N
     722                    ;     | atural c vs. Optimized */                                              
     723                    ;  58 |     int32_t    status_nat_vs_ref = vlib_KERNEL_PASS; /* Test status : N
     724                    ;     | atural c vs. Static Reference */                                       
     725                    ;----------------------------------------------------------------------
     726 00000044 0600a35a             ZERO    .L2     B12               ; |54| 
     727 00000048 0200006a!            MVKH    .S2     desc,B4
     728                    
     729 0000004c 05949d71             SUB     .S1X    B5,A4,A11
     730 00000050 000c0ad8  ||         CMPGT   .L1     A3,0,A0           ; |54| 
     731                    
     732 00000054 d0009d93     [!A0]   B       .S2     $C$L9             ; |54| 
     733 00000058 05801050  ||         ADDK    .S1     32,A11            ; |61| 
     734                    
     735                            .dwpsn  file "./../packages/ti/vlib/src/VLIB_updateEWRVarianceS32/VLIB_updateEWRVarianceS32_d.
     736                    ;----------------------------------------------------------------------
     737                    ;  61 | uint32_t    packed_size =   (prm[tpi].pixelCount + 31) / 32;           
     738                    ;----------------------------------------------------------------------
     739 0000005c c52ce264     [ A0]   LDW     .D1T1   *+A11(28),A10     ; |61| 
     740                            .dwpsn  file "./../packages/ti/vlib/src/VLIB_updateEWRVarianceS32/VLIB_updateEWRVarianceS32_d.
     741 00000060 0680a358             ZERO    .L1     A13               ; |54| 
     742 00000064     f646             MV      .L1X    B4,A15
     743 00000066     2c6e             NOP             2
     744                            .dwpsn  file "./../packages/ti/vlib/src/VLIB_updateEWRVarianceS32/VLIB_updateEWRVarianceS32_d.
     745                               ; BRANCHCC OCCURS {$C$L9}         ; |54| 
     746                    ;** --------------------------------------------------------------------------*
     747                    ;          EXCLUSIVE CPU CYCLES: 1
     748                    ;**     -----------------------    K$96 = &desc[0];
     749                    ;**     -----------------------    U$12 = prm-32;
     750                    ;**     -----------------------    U$11 = 0;
     751                    ;** 54  -----------------------    tpi = 0;
     752                    ;**     -----------------------    #pragma LOOP_FLAGS(5120u)
     753                            .dwpsn  file "./../packages/ti/vlib/src/VLIB_updateEWRVarianceS32/VLIB_updateEWRVarianceS32_d.
     754                    ;----------------------------------------------------------------------
     755                    ;  64 | uint8_t    *newLuma         =  (uint8_t *) VLIB_malloc(prm[tpi].pixelCo
     756                    ;     | unt * sizeof(uint8_t));                                                
     757                    ;----------------------------------------------------------------------
     758 00000068 02280fd8             MV      .L1     A10,A4            ; |64| 
     759                    ;*----------------------------------------------------------------------------*
     760                    ;*   SOFTWARE PIPELINE INFORMATION
     761                    ;*      Disqualified loop: Loop contains a call
     762                    ;*      Disqualified loop: Loop contains non-pipelinable instructions
     763                    ;*      Disqualified loop: Loop contains a call
     764                    ;*      Disqualified loop: Loop contains non-pipelinable instructions
     765                    ;*      Disqualified loop: Loop contains a call
     766                    ;*      Disqualified loop: Loop contains non-pipelinable instructions
     767                    ;*      Disqualified loop: Loop contains a call
     768                    ;*      Disqualified loop: Loop contains non-pipelinable instructions
     769                    ;*      Disqualified loop: Loop contains a call
     770                    ;*      Disqualified loop: Loop contains non-pipelinable instructions
TMS320C6x Assembler PC v7.4.2 Thu Mar 19 12:45:04 2015

Tools Copyright (c) 1996-2012 Texas Instruments Incorporated
package/lib/Regression/regress_d_c/./../packages/ti/vlib/src/VLIB_updateEWRVarianceS32/VLIB_updateEWRVarianceS32_d.se66 PAGE   15

     771                    ;*      Disqualified loop: Loop contains a call
     772                    ;*      Disqualified loop: Loop contains non-pipelinable instructions
     773                    ;*      Disqualified loop: Loop contains control code
     774                    ;*----------------------------------------------------------------------------*
     775 0000006c           $C$L1:    
     776                            .dwpsn  file "./../packages/ti/vlib/src/VLIB_updateEWRVarianceS32/VLIB_updateEWRVarianceS32_d.
     777 0000006c           $C$DW$L$VLIB_updateEWRVarianceS32_d$5$B:
     778                    ;          EXCLUSIVE CPU CYCLES: 6
     779                    ;**     -----------------------g3:
     780                    ;** 61  -----------------------    C$8 = (*(U$12 += 32)).pixelCount;
     781                    ;** 61  -----------------------    packed_size = C$8+31u>>5;
     782                    ;** 64  -----------------------    newLuma = VLIB_malloc(C$8);
     783                    ;** 65  -----------------------    prevLuma = malloc((*U$12).pixelCount);
     784                    ;** 66  -----------------------    U$23 = packed_size*4u;
     785                    ;** 66  -----------------------    mask32packed = VLIB_malloc(U$23);
     786                    ;** 67  -----------------------    runningMean = VLIB_malloc((*U$12).pixelCount*4u);
     787                    ;** 68  -----------------------    runningVar = VLIB_malloc((*U$12).pixelCount*4u);
     788                    ;** 69  -----------------------    runningVar_cn = malloc((*U$12).pixelCount*4u);
     789                    ;** 72  -----------------------    if ( !((newLuma != NULL)&(prevLuma != NULL)&(mask32packed != NULL)&
     790                            .dwpsn  file "./../packages/ti/vlib/src/VLIB_updateEWRVarianceS32/VLIB_updateEWRVarianceS32_d.
     791                    $C$DW$128       .dwtag  DW_TAG_TI_branch
     792                            .dwattr $C$DW$128, DW_AT_low_pc(0x00)
     793                            .dwattr $C$DW$128, DW_AT_name("VLIB_malloc")
     794                            .dwattr $C$DW$128, DW_AT_TI_call
     795 0000006c 00000010!            CALL    .S1     VLIB_malloc       ; |64| 
     796 00000070 01858162             ADDKPC  .S2     $C$RL2,B3,4       ; |64| 
     797 00000074           $C$RL2:    ; CALL OCCURS {VLIB_malloc} {0}   ; |64| 
     798 00000074           $C$DW$L$VLIB_updateEWRVarianceS32_d$5$E:
     799                    ;** --------------------------------------------------------------------------*
     800 00000074           $C$DW$L$VLIB_updateEWRVarianceS32_d$6$B:
     801                    ;          EXCLUSIVE CPU CYCLES: 49
     802 00000074 023cc2f4             STW     .D2T1   A4,*+SP(24)       ; |64| 
     803                    $C$DW$129       .dwtag  DW_TAG_TI_branch
     804                            .dwattr $C$DW$129, DW_AT_low_pc(0x00)
     805                            .dwattr $C$DW$129, DW_AT_name("malloc")
     806                            .dwattr $C$DW$129, DW_AT_TI_call
     807                    
     808 00000078 10000013!            CALLP   .S2     malloc,B3
     809 00000080 022ce264  ||         LDW     .D1T1   *+A11(28),A4      ; |65| 
     810                    
     811                            .dwpsn  file "./../packages/ti/vlib/src/VLIB_updateEWRVarianceS32/VLIB_updateEWRVarianceS32_d.
     812                    ;----------------------------------------------------------------------
     813                    ;  65 | uint8_t    *prevLuma        =  (uint8_t *) malloc(prm[tpi].pixelCount *
     814                    ;     |  sizeof(uint8_t));                                                     
     815                    ;----------------------------------------------------------------------
     816 00000084           $C$RL3:    ; CALL OCCURS {malloc} {0}        ; |65| 
     817                            .dwpsn  file "./../packages/ti/vlib/src/VLIB_updateEWRVarianceS32/VLIB_updateEWRVarianceS32_d.
     818 00000084 01abe940             ADD     .D1     A10,31,A3         ; |61| 
     819 00000088 060ca9a0             SHRU    .S1     A3,5,A12          ; |61| 
     820                            .dwpsn  file "./../packages/ti/vlib/src/VLIB_updateEWRVarianceS32/VLIB_updateEWRVarianceS32_d.
     821                    ;----------------------------------------------------------------------
     822                    ;  66 | uint32_t   *mask32packed    =  (uint32_t *) VLIB_malloc(packed_size * 4
     823                    ;     | );                                                                     
     824                    ;----------------------------------------------------------------------
     825 0000008c 05304ca0             SHL     .S1     A12,2,A10         ; |66| 
TMS320C6x Assembler PC v7.4.2 Thu Mar 19 12:45:04 2015

Tools Copyright (c) 1996-2012 Texas Instruments Incorporated
package/lib/Regression/regress_d_c/./../packages/ti/vlib/src/VLIB_updateEWRVarianceS32/VLIB_updateEWRVarianceS32_d.se66 PAGE   16

     826                    $C$DW$130       .dwtag  DW_TAG_TI_branch
     827                            .dwattr $C$DW$130, DW_AT_low_pc(0x00)
     828                            .dwattr $C$DW$130, DW_AT_name("VLIB_malloc")
     829                            .dwattr $C$DW$130, DW_AT_TI_call
     830                    
     831 00000090 10000013!            CALLP   .S2     VLIB_malloc,B3
     832 00000094     ecc5  ||         STW     .D2T1   A4,*+SP(28)       ; |65| 
     833 00000096     8506  ||         MV      .L1     A10,A4            ; |66| 
     834                    
     835 00000098           $C$RL4:    ; CALL OCCURS {VLIB_malloc} {0}   ; |66| 
     836                            .dwpsn  file "./../packages/ti/vlib/src/VLIB_updateEWRVarianceS32/VLIB_updateEWRVarianceS32_d.
     837                    ;----------------------------------------------------------------------
     838                    ;  67 | int32_t    *runningMean     =  (int32_t *) VLIB_malloc(prm[tpi].pixelCo
     839                    ;     | unt * sizeof(int32_t));                                                
     840                    ;----------------------------------------------------------------------
     841 00000098 01ace264             LDW     .D1T1   *+A11(28),A3      ; |67| 
     842                            .dwpsn  file "./../packages/ti/vlib/src/VLIB_updateEWRVarianceS32/VLIB_updateEWRVarianceS32_d.
     843 000000a0     8d45             STW     .D2T1   A4,*+SP(32)       ; |66| 
     844 000000a2     4c6e             NOP             3
     845                    $C$DW$131       .dwtag  DW_TAG_TI_branch
     846                            .dwattr $C$DW$131, DW_AT_low_pc(0x04)
     847                            .dwattr $C$DW$131, DW_AT_name("VLIB_malloc")
     848                            .dwattr $C$DW$131, DW_AT_TI_call
     849                    
     850 000000a8 020c4ca0             SHL     .S1     A3,2,A4           ; |67| 
     851 000000a4 10000013! ||         CALLP   .S2     VLIB_malloc,B3
     852                    
     853                            .dwpsn  file "./../packages/ti/vlib/src/VLIB_updateEWRVarianceS32/VLIB_updateEWRVarianceS32_d.
     854 000000ac           $C$RL5:    ; CALL OCCURS {VLIB_malloc} {0}   ; |67| 
     855                            .dwpsn  file "./../packages/ti/vlib/src/VLIB_updateEWRVarianceS32/VLIB_updateEWRVarianceS32_d.
     856                    ;----------------------------------------------------------------------
     857                    ;  68 | int32_t    *runningVar      =  (int32_t *) VLIB_malloc(prm[tpi].pixelCo
     858                    ;     | unt * sizeof(int32_t));                                                
     859                    ;----------------------------------------------------------------------
     860 000000ac 01ace264             LDW     .D1T1   *+A11(28),A3      ; |68| 
     861                            .dwpsn  file "./../packages/ti/vlib/src/VLIB_updateEWRVarianceS32/VLIB_updateEWRVarianceS32_d.
     862 000000b0     ad45             STW     .D2T1   A4,*+SP(36)       ; |67| 
     863 000000b2     4c6e             NOP             3
     864                    $C$DW$132       .dwtag  DW_TAG_TI_branch
     865                            .dwattr $C$DW$132, DW_AT_low_pc(0x04)
     866                            .dwattr $C$DW$132, DW_AT_name("VLIB_malloc")
     867                            .dwattr $C$DW$132, DW_AT_TI_call
     868                    
     869 000000b8 020c4ca0             SHL     .S1     A3,2,A4           ; |68| 
     870 000000b4 10000013! ||         CALLP   .S2     VLIB_malloc,B3
     871                    
     872                            .dwpsn  file "./../packages/ti/vlib/src/VLIB_updateEWRVarianceS32/VLIB_updateEWRVarianceS32_d.
     873 000000c0           $C$RL6:    ; CALL OCCURS {VLIB_malloc} {0}   ; |68| 
     874                            .dwpsn  file "./../packages/ti/vlib/src/VLIB_updateEWRVarianceS32/VLIB_updateEWRVarianceS32_d.
     875                    ;----------------------------------------------------------------------
     876                    ;  69 | int32_t    *runningVar_cn   =  (int32_t *) malloc(prm[tpi].pixelCount *
     877                    ;     |  sizeof(int32_t));                                                     
     878                    ;----------------------------------------------------------------------
     879 000000c0 01ace264             LDW     .D1T1   *+A11(28),A3      ; |69| 
     880                            .dwpsn  file "./../packages/ti/vlib/src/VLIB_updateEWRVarianceS32/VLIB_updateEWRVarianceS32_d.
TMS320C6x Assembler PC v7.4.2 Thu Mar 19 12:45:04 2015

Tools Copyright (c) 1996-2012 Texas Instruments Incorporated
package/lib/Regression/regress_d_c/./../packages/ti/vlib/src/VLIB_updateEWRVarianceS32/VLIB_updateEWRVarianceS32_d.se66 PAGE   17

     881 000000c4     cd45             STW     .D2T1   A4,*+SP(40)       ; |68| 
     882 000000c6     4c6e             NOP             3
     883                    $C$DW$133       .dwtag  DW_TAG_TI_branch
     884                            .dwattr $C$DW$133, DW_AT_low_pc(0x04)
     885                            .dwattr $C$DW$133, DW_AT_name("malloc")
     886                            .dwattr $C$DW$133, DW_AT_TI_call
     887                    
     888 000000cc     45ca             SHL     .S1     A3,2,A4           ; |69| 
     889 000000c8 10000013! ||         CALLP   .S2     malloc,B3
     890                    
     891                            .dwpsn  file "./../packages/ti/vlib/src/VLIB_updateEWRVarianceS32/VLIB_updateEWRVarianceS32_d.
     892 000000ce           $C$RL7:    ; CALL OCCURS {malloc} {0}        ; |69| 
     893 000000ce           $C$DW$L$VLIB_updateEWRVarianceS32_d$6$E:
     894                    ;** --------------------------------------------------------------------------*
     895 000000ce           $C$DW$L$VLIB_updateEWRVarianceS32_d$7$B:
     896                    ;          EXCLUSIVE CPU CYCLES: 19
     897                    
     898 000000ce     fc8d             LDW     .D2T2   *+SP(28),B0       ; |72| 
     899 000000d0     05a6  ||         ZERO    .L1     A3                ; |72| 
     900 000000d2     06a7  ||         ZERO    .L2     B5                ; |72| 
     901 000000d4     0213  ||         ZERO    .S2     B4                ; |72| 
     902                    
     903 000000d6     cc8d             LDW     .D2T1   *+SP(24),A0       ; |72| 
     904 000000d8     b647  ||         MV      .L2X    A4,B13            ; |69| 
     905 000000da     0626  ||         ZERO    .L1     A4                ; |72| 
     906                    
     907                            .dwpsn  file "./../packages/ti/vlib/src/VLIB_updateEWRVarianceS32/VLIB_updateEWRVarianceS32_d.
     908                    ;----------------------------------------------------------------------
     909                    ;  72 | if( newLuma && prevLuma && mask32packed && runningMean && runningVar &&
     910                    ;     |  runningVar_cn ) {                                                     
     911                    ;  74 |     int32_t    fail;                                                   
     912                    ;----------------------------------------------------------------------
     913 000000e0     8d1d             LDW     .D2T1   *+SP(32),A1       ; |72| 
     914 000000e2     dd2d             LDW     .D2T2   *+SP(40),B2       ; |72| 
     915 000000e4     ad2d             LDW     .D2T1   *+SP(36),A2       ; |72| 
     916 000000e6     aa67     [ B0]   MVK     .L2     0x1,B4            ; |72| 
     917 000000e8     2ae7     [ A0]   MVK     .L2     0x1,B5            ; |72| 
     918                    
     919 000000f0 8184a358     [ A1]   MVK     .L1     0x1,A3            ; |72| 
     920 000000ec 02948f7b  ||         AND     .L2     B4,B5,B5          ; |72| 
     921 000000ea     0213  ||         ZERO    .S2     B4                ; |72| 
     922                    
     923 000000f4 6204a358     [ B2]   MVK     .L1     0x1,A4            ; |72| 
     924                    
     925 000000f8 a204a35b     [ A2]   MVK     .L2     0x1,B4            ; |72| 
     926 00000100 028cb7e3  ||         AND     .S2X    A3,B5,B5          ; |72| 
     927 00000104     5686  ||         MV      .L1X    B13,A2            ; |72| 
     928                    
     929 00000108 02948f7a             AND     .L2     B4,B5,B5          ; |72| 
     930 00000106     0213  ||         ZERO    .S2     B4                ; |72| 
     931                    
     932 0000010c 0290bf7b             AND     .L2X    A4,B5,B5          ; |72| 
     933 00000110 a20000aa  || [ A2]   MVK     .S2     0x1,B4            ; |72| 
     934                    
     935 00000114     8689             AND     .L2     B4,B5,B0          ; |72| 
TMS320C6x Assembler PC v7.4.2 Thu Mar 19 12:45:04 2015

Tools Copyright (c) 1996-2012 Texas Instruments Incorporated
package/lib/Regression/regress_d_c/./../packages/ti/vlib/src/VLIB_updateEWRVarianceS32/VLIB_updateEWRVarianceS32_d.se66 PAGE   18

     936                    
     937 00000128 30e06120     [!B0]   BNOP    .S1     $C$L7,3           ; |72| 
     938 00000118 202c4265  || [ B0]   LDW     .D1T1   *+A11(8),A0       ; |77| 
     939 00000120 223ca2e7  || [ B0]   LDW     .D2T2   *+SP(20),B4       ; |77| 
     940 00000124 2580002b! || [ B0]   MVKL    .S2     testPatternString,B11
     941 00000116     c866  || [!B0]   ZERO    .L1     A0                ; |77| nullify predicate
     942                    
     943 0000012c 2580006a!    [ B0]   MVKH    .S2     testPatternString,B11
     944                            .dwpsn  file "./../packages/ti/vlib/src/VLIB_updateEWRVarianceS32/VLIB_updateEWRVarianceS32_d.
     945                    ;----------------------------------------------------------------------
     946                    ;  77 | if( prm[tpi].staticInMask ) {                                          
     947                    ;  78 |     memcpy(mask32packed, prm[tpi].staticInMask, packed_size * 4);      
     948                    ;  79 | } else {                                                               
     949                    ;----------------------------------------------------------------------
     950 00000130 c0000a90     [ A0]   B       .S1     $C$L2             ; |77| 
     951                            .dwpsn  file "./../packages/ti/vlib/src/VLIB_updateEWRVarianceS32/VLIB_updateEWRVarianceS32_d.
     952                               ; BRANCHCC OCCURS {$C$L7}         ; |72| 
     953                    $C$DW$L$VLIB_updateEWRVarianceS32_d$7$E:
     954                    ;** --------------------------------------------------------------------------*
     955                    $C$DW$L$VLIB_updateEWRVarianceS32_d$8$B:
     956                    ;          EXCLUSIVE CPU CYCLES: 5
     957                    ;** 77  -----------------------    v$1 = prm;
     958                    ;**     -----------------------    K$48 = &testPatternString[0];
     959                    ;** 77  -----------------------    C$7 = (*U$12).staticInMask;
     960                    ;** 77  -----------------------    if ( C$7 ) goto g6;
     961                    $C$DW$134       .dwtag  DW_TAG_TI_branch
     962                            .dwattr $C$DW$134, DW_AT_low_pc(0x00)
     963                            .dwattr $C$DW$134, DW_AT_name("memcpy")
     964                            .dwattr $C$DW$134, DW_AT_TI_call
     965                    
     966 00000134 c0000011!    [ A0]   CALL    .S1     memcpy            ; |78| 
     967 00000138 c230807a  || [ A0]   ADD     .L2     B4,B12,B4         ; |78| 
     968                    
     969                    $C$DW$135       .dwtag  DW_TAG_TI_branch
     970                            .dwattr $C$DW$135, DW_AT_low_pc(0x00)
     971                            .dwattr $C$DW$135, DW_AT_name("VLIB_fillBuffer")
     972                            .dwattr $C$DW$135, DW_AT_TI_call
     973                    
     974 0000013c d0000011!    [!A0]   CALL    .S1     VLIB_fillBuffer   ; |80| 
     975 00000140 c21042e6  || [ A0]   LDW     .D2T2   *+B4(8),B4        ; |78| 
     976                    
     977                            .dwpsn  file "./../packages/ti/vlib/src/VLIB_updateEWRVarianceS32/VLIB_updateEWRVarianceS32_d.
     978                    ;----------------------------------------------------------------------
     979                    ;  80 | VLIB_fillBuffer(RANDOM,                                                
     980                    ;----------------------------------------------------------------------
     981 00000144     6a67     [!A0]   MVK     .L2     0x1,B4            ; |80| 
     982 00000146     2c6e             NOP             2
     983                            .dwpsn  file "./../packages/ti/vlib/src/VLIB_updateEWRVarianceS32/VLIB_updateEWRVarianceS32_d.
     984                               ; BRANCHCC OCCURS {$C$L2}         ; |77| 
     985 00000148           $C$DW$L$VLIB_updateEWRVarianceS32_d$8$E:
     986                    ;** --------------------------------------------------------------------------*
     987 00000148           $C$DW$L$VLIB_updateEWRVarianceS32_d$9$B:
     988                    ;          EXCLUSIVE CPU CYCLES: 2
     989                    ;** 80  -----------------------    VLIB_fillBuffer(3u, 1u, (void *)mask32packed, (void *)C$7, (unsigne
     990                    ;** 80  -----------------------    goto g7;
TMS320C6x Assembler PC v7.4.2 Thu Mar 19 12:45:04 2015

Tools Copyright (c) 1996-2012 Texas Instruments Incorporated
package/lib/Regression/regress_d_c/./../packages/ti/vlib/src/VLIB_updateEWRVarianceS32/VLIB_updateEWRVarianceS32_d.se66 PAGE   19

     991                    
     992 00000148 052a1009             EXTU    .S1     A10,16,16,A10     ; |80| 
     993 0000014c     6626  ||         MVK     .L1     0x3,A4            ; |80| 
     994 0000014e     0647  ||         MV      .L2     B4,B8             ; |80| 
     995                    
     996 00000150 04321009             EXTU    .S1     A12,16,16,A8      ; |80| 
     997 00000154 062c1fd9  ||         MV      .L1X    B11,A12           ; |80| 
     998 00000158     d047  ||         MV      .L2X    A0,B6             ; |80| 
     999 0000015a     c0d6  ||         MV      .D1     A1,A6             ; |80| 
    1000 00000160 05008043  ||         MVK     .D2     0x4,B10           ; |80| 
    1001 00000164 01820162  ||         ADDKPC  .S2     $C$RL8,B3,0       ; |80| 
    1002                    
    1003                            .dwpsn  file "./../packages/ti/vlib/src/VLIB_updateEWRVarianceS32/VLIB_updateEWRVarianceS32_d.
    1004                    ;----------------------------------------------------------------------
    1005                    ;  81 | (uint32_t)1,                                                           
    1006                    ;  82 | mask32packed, prm[tpi].staticInMask,                                   
    1007                    ;  83 | packed_size, 1, packed_size * sizeof(mask32packed[0]),                 
    1008                    ;  84 | sizeof(mask32packed[0]), testPatternString);                           
    1009                    ;----------------------------------------------------------------------
    1010 00000168           $C$RL8:    ; CALL OCCURS {VLIB_fillBuffer} {0}  ; |80| 
    1011 00000168           $C$DW$L$VLIB_updateEWRVarianceS32_d$9$E:
    1012                    ;** --------------------------------------------------------------------------*
    1013 00000168           $C$DW$L$VLIB_updateEWRVarianceS32_d$10$B:
    1014                    ;          EXCLUSIVE CPU CYCLES: 6
    1015                    
    1016 00000168     858a             BNOP    .S1     $C$L3,4           ; |80| 
    1017 0000016c 002c6264  ||         LDW     .D1T1   *+A11(12),A0      ; |87| 
    1018 0000016a     bccd  ||         LDW     .D2T2   *+SP(20),B4       ; |87| 
    1019                    
    1020                            .dwpsn  file "./../packages/ti/vlib/src/VLIB_updateEWRVarianceS32/VLIB_updateEWRVarianceS32_d.
    1021                    ;----------------------------------------------------------------------
    1022                    ;  87 | if( prm[tpi].staticInPrevLuma ) {                                      
    1023                    ;----------------------------------------------------------------------
    1024 00000170 c0001210     [ A0]   B       .S1     $C$L4             ; |87| 
    1025                            .dwpsn  file "./../packages/ti/vlib/src/VLIB_updateEWRVarianceS32/VLIB_updateEWRVarianceS32_d.
    1026                               ; BRANCH OCCURS {$C$L3}           ; |80| 
    1027 00000174           $C$DW$L$VLIB_updateEWRVarianceS32_d$10$E:
    1028                    ;** --------------------------------------------------------------------------*
    1029 00000174           $C$L2:    
    1030                            .dwpsn  file "./../packages/ti/vlib/src/VLIB_updateEWRVarianceS32/VLIB_updateEWRVarianceS32_d.
    1031 00000174           $C$DW$L$VLIB_updateEWRVarianceS32_d$11$B:
    1032                    ;          EXCLUSIVE CPU CYCLES: 7
    1033                    ;**     -----------------------g6:
    1034                    ;** 78  -----------------------    memcpy((void *)mask32packed, (*(U$11+v$1)).staticInMask, U$23);
    1035                    
    1036 00000174     c506             MV      .L1     A10,A6            ; |78| 
    1037 00000176     80ce  ||         MV      .S1     A1,A4             ; |78| 
    1038 00000178 01880162  ||         ADDKPC  .S2     $C$RL9,B3,0       ; |78| 
    1039                    
    1040                            .dwpsn  file "./../packages/ti/vlib/src/VLIB_updateEWRVarianceS32/VLIB_updateEWRVarianceS32_d.
    1041 00000180           $C$RL9:    ; CALL OCCURS {memcpy} {0}        ; |78| 
    1042                            .dwpsn  file "./../packages/ti/vlib/src/VLIB_updateEWRVarianceS32/VLIB_updateEWRVarianceS32_d.
    1043 00000180 002c6264             LDW     .D1T1   *+A11(12),A0      ; |87| 
    1044 00000184     bccd             LDW     .D2T2   *+SP(20),B4       ; |87| 
    1045 00000186     4c6e             NOP             3
TMS320C6x Assembler PC v7.4.2 Thu Mar 19 12:45:04 2015

Tools Copyright (c) 1996-2012 Texas Instruments Incorporated
package/lib/Regression/regress_d_c/./../packages/ti/vlib/src/VLIB_updateEWRVarianceS32/VLIB_updateEWRVarianceS32_d.se66 PAGE   20

    1046 00000188 c0000e10     [ A0]   B       .S1     $C$L4             ; |87| 
    1047 0000018c           $C$DW$L$VLIB_updateEWRVarianceS32_d$11$E:
    1048                    ;** --------------------------------------------------------------------------*
    1049 0000018c           $C$L3:    
    1050                            .dwpsn  file "./../packages/ti/vlib/src/VLIB_updateEWRVarianceS32/VLIB_updateEWRVarianceS32_d.
    1051 0000018c           $C$DW$L$VLIB_updateEWRVarianceS32_d$12$B:
    1052                    ;          EXCLUSIVE CPU CYCLES: 5
    1053                    ;**     -----------------------g7:
    1054                    ;** 87  -----------------------    v$1 = prm;
    1055                    ;** 87  -----------------------    C$5 = (*U$12).staticInPrevLuma;
    1056                    ;** 87  -----------------------    if ( C$5 ) goto g9;
    1057                    
    1058 0000018c d42dc205     [!A0]   LDHU    .D1T1   *+A11(28),A8      ; |90| 
    1059 00000194 d204a35a  || [!A0]   MVK     .L2     0x1,B4            ; |90| 
    1060 00000190 c23081e3  || [ A0]   ADD     .S2     B4,B12,B4         ; |88| 
    1061                    
    1062                    $C$DW$136       .dwtag  DW_TAG_TI_branch
    1063                            .dwattr $C$DW$136, DW_AT_low_pc(0x00)
    1064                            .dwattr $C$DW$136, DW_AT_name("VLIB_fillBuffer")
    1065                            .dwattr $C$DW$136, DW_AT_TI_call
    1066                    
    1067 00000198 d0000011!    [!A0]   CALL    .S1     VLIB_fillBuffer   ; |90| 
    1068 000001a0 d33ce2e4  || [!A0]   LDW     .D2T1   *+SP(28),A6       ; |90| 
    1069                    
    1070                            .dwpsn  file "./../packages/ti/vlib/src/VLIB_updateEWRVarianceS32/VLIB_updateEWRVarianceS32_d.
    1071                    ;----------------------------------------------------------------------
    1072                    ;  88 | memcpy(prevLuma, prm[tpi].staticInPrevLuma, prm[tpi].pixelCount);      
    1073                    ;  89 | } else {                                                               
    1074                    ;----------------------------------------------------------------------
    1075 000001a4 c310e2e4     [ A0]   LDW     .D2T1   *+B4(28),A6       ; |88| 
    1076                    $C$DW$137       .dwtag  DW_TAG_TI_branch
    1077                            .dwattr $C$DW$137, DW_AT_low_pc(0x04)
    1078                            .dwattr $C$DW$137, DW_AT_name("memcpy")
    1079                            .dwattr $C$DW$137, DW_AT_TI_call
    1080                    
    1081 000001a8 c21062e7     [ A0]   LDW     .D2T2   *+B4(12),B4       ; |88| 
    1082 000001ac c0000010! || [ A0]   CALL    .S1     memcpy            ; |88| 
    1083                    
    1084 000001b0 c23ce2e4     [ A0]   LDW     .D2T1   *+SP(28),A4       ; |88| 
    1085                            .dwpsn  file "./../packages/ti/vlib/src/VLIB_updateEWRVarianceS32/VLIB_updateEWRVarianceS32_d.
    1086                               ; BRANCHCC OCCURS {$C$L4}         ; |87| 
    1087 000001b4           $C$DW$L$VLIB_updateEWRVarianceS32_d$12$E:
    1088                    ;** --------------------------------------------------------------------------*
    1089 000001b4           $C$DW$L$VLIB_updateEWRVarianceS32_d$13$B:
    1090                    ;          EXCLUSIVE CPU CYCLES: 2
    1091                    ;** 90  -----------------------    C$6 = (unsigned short)(*U$12).pixelCount;
    1092                    ;** 90  -----------------------    VLIB_fillBuffer(3u, 1u, (void *)prevLuma, (void *)C$5, C$6, 1u, C$6
    1093                    ;** 90  -----------------------    goto g10;
    1094                            .dwpsn  file "./../packages/ti/vlib/src/VLIB_updateEWRVarianceS32/VLIB_updateEWRVarianceS32_d.
    1095                    ;----------------------------------------------------------------------
    1096                    ;  90 | VLIB_fillBuffer(RANDOM,                                                
    1097                    ;  91 |                 (uint8_t)1,                                            
    1098                    ;  92 |                 prevLuma, prm[tpi].staticInPrevLuma,                   
    1099                    ;  93 |                 prm[tpi].pixelCount, 1, prm[tpi].pixelCount * sizeof(pr
    1100                    ;     | evLuma[0]),                                                            
TMS320C6x Assembler PC v7.4.2 Thu Mar 19 12:45:04 2015

Tools Copyright (c) 1996-2012 Texas Instruments Incorporated
package/lib/Regression/regress_d_c/./../packages/ti/vlib/src/VLIB_updateEWRVarianceS32/VLIB_updateEWRVarianceS32_d.se66 PAGE   21

    1101                    ;  94 |                 sizeof(prevLuma[0]), testPatternString);               
    1102                    ;----------------------------------------------------------------------
    1103 000001b4     0647             MV      .L2     B4,B8             ; |90| 
    1104                    
    1105 000001b8 062c1fd9             MV      .L1X    B11,A12           ; |90| 
    1106 000001b6     d047  ||         MV      .L2X    A0,B6             ; |90| 
    1107 000001c0 01830163  ||         ADDKPC  .S2     $C$RL10,B3,0      ; |90| 
    1108 000001c4     6212  ||         MVK     .S1     0x3,A4            ; |90| 
    1109 000001c6     4657  ||         MV      .D2     B4,B10            ; |90| 
    1110 000001c8 052008f0  ||         MV      .D1     A8,A10            ; |90| 
    1111                    
    1112 000001cc           $C$RL10:   ; CALL OCCURS {VLIB_fillBuffer} {0}  ; |90| 
    1113 000001cc           $C$DW$L$VLIB_updateEWRVarianceS32_d$13$E:
    1114                    ;** --------------------------------------------------------------------------*
    1115 000001cc           $C$DW$L$VLIB_updateEWRVarianceS32_d$14$B:
    1116                    ;          EXCLUSIVE CPU CYCLES: 6
    1117                    
    1118 000001cc 00000c11             B       .S1     $C$L5             ; |90| 
    1119 000001d0 022c0214  ||         LDBU    .D1T1   *A11,A4           ; |97| 
    1120                    
    1121                    $C$DW$138       .dwtag  DW_TAG_TI_branch
    1122                            .dwattr $C$DW$138, DW_AT_low_pc(0x00)
    1123                            .dwattr $C$DW$138, DW_AT_name("VLIB_fillBuffer")
    1124                            .dwattr $C$DW$138, DW_AT_TI_call
    1125                    
    1126 000001d4 00000011!            CALL    .S1     VLIB_fillBuffer   ; |97| 
    1127 000001d8 042dc204  ||         LDHU    .D1T1   *+A11(28),A8      ; |97| 
    1128                    
    1129 000001e0 033cc2e5             LDW     .D2T1   *+SP(24),A6       ; |97| 
    1130 000001e4 032c2266  ||         LDW     .D1T2   *+A11(4),B6       ; |97| 
    1131                    
    1132                            .dwpsn  file "./../packages/ti/vlib/src/VLIB_updateEWRVarianceS32/VLIB_updateEWRVarianceS32_d.
    1133                    ;----------------------------------------------------------------------
    1134                    ;  97 | VLIB_fillBuffer(prm[tpi].testPattern,                                  
    1135                    ;----------------------------------------------------------------------
    1136 000001e8 0404a35a             MVK     .L2     0x1,B8            ; |97| 
    1137 000001ec 00002000             NOP             2
    1138                            .dwpsn  file "./../packages/ti/vlib/src/VLIB_updateEWRVarianceS32/VLIB_updateEWRVarianceS32_d.
    1139                               ; BRANCH OCCURS {$C$L5}           ; |90| 
    1140 000001f0           $C$DW$L$VLIB_updateEWRVarianceS32_d$14$E:
    1141                    ;** --------------------------------------------------------------------------*
    1142 000001f0           $C$L4:    
    1143                            .dwpsn  file "./../packages/ti/vlib/src/VLIB_updateEWRVarianceS32/VLIB_updateEWRVarianceS32_d.
    1144 000001f0           $C$DW$L$VLIB_updateEWRVarianceS32_d$15$B:
    1145                    ;          EXCLUSIVE CPU CYCLES: 10
    1146                    ;**     -----------------------g9:
    1147                    ;** 88  -----------------------    C$4 = U$11+v$1;
    1148                    ;** 88  -----------------------    memcpy((void *)prevLuma, (*C$4).staticInPrevLuma, (*C$4).pixelCount
    1149                            .dwpsn  file "./../packages/ti/vlib/src/VLIB_updateEWRVarianceS32/VLIB_updateEWRVarianceS32_d.
    1150 000001f0 01856162             ADDKPC  .S2     $C$RL11,B3,3      ; |88| 
    1151 000001f4           $C$RL11:   ; CALL OCCURS {memcpy} {0}        ; |88| 
    1152                            .dwpsn  file "./../packages/ti/vlib/src/VLIB_updateEWRVarianceS32/VLIB_updateEWRVarianceS32_d.
    1153                    ;----------------------------------------------------------------------
    1154                    ;  98 | (uint8_t)1,                                                            
    1155                    ;  99 | newLuma, prm[tpi].staticInLuma,                                        
TMS320C6x Assembler PC v7.4.2 Thu Mar 19 12:45:04 2015

Tools Copyright (c) 1996-2012 Texas Instruments Incorporated
package/lib/Regression/regress_d_c/./../packages/ti/vlib/src/VLIB_updateEWRVarianceS32/VLIB_updateEWRVarianceS32_d.se66 PAGE   22

    1156                    ; 100 | prm[tpi].pixelCount, 1, prm[tpi].pixelCount * sizeof(newLuma[0]),      
    1157                    ; 101 | sizeof(newLuma[0]), testPatternString);                                
    1158                    ;----------------------------------------------------------------------
    1159 000001f4 042dc204             LDHU    .D1T1   *+A11(28),A8      ; |97| 
    1160                    $C$DW$139       .dwtag  DW_TAG_TI_branch
    1161                            .dwattr $C$DW$139, DW_AT_low_pc(0x00)
    1162                            .dwattr $C$DW$139, DW_AT_name("VLIB_fillBuffer")
    1163                            .dwattr $C$DW$139, DW_AT_TI_call
    1164                    
    1165 000001f8 00000011!            CALL    .S1     VLIB_fillBuffer   ; |97| 
    1166 000001fc 033cc2e5  ||         LDW     .D2T1   *+SP(24),A6       ; |97| 
    1167 00000200 032c2266  ||         LDW     .D1T2   *+A11(4),B6       ; |97| 
    1168                    
    1169 00000204 022c0214             LDBU    .D1T1   *A11,A4           ; |97| 
    1170 00000208 0404a35a             MVK     .L2     0x1,B8            ; |97| 
    1171 0000020c 00002001             NOP             2
    1172 00000220           $C$DW$L$VLIB_updateEWRVarianceS32_d$15$E:
    1173                    ;** --------------------------------------------------------------------------*
    1174 00000220           $C$L5:    
    1175                            .dwpsn  file "./../packages/ti/vlib/src/VLIB_updateEWRVarianceS32/VLIB_updateEWRVarianceS32_d.
    1176 00000220           $C$DW$L$VLIB_updateEWRVarianceS32_d$16$B:
    1177                    ;          EXCLUSIVE CPU CYCLES: 1
    1178                    ;**     -----------------------g10:
    1179                    ;** 97  -----------------------    C$3 = (unsigned short)(*U$12).pixelCount;
    1180                    ;** 97  -----------------------    VLIB_fillBuffer((*U$12).testPattern, 1u, (void *)newLuma, (*U$12).s
    1181                    ;** 105 -----------------------    VLIB_initMeanWithLumaS32_cn(runningMean, prevLuma, (*U$12).pixelCou
    1182                    ;** 109 -----------------------    VLIB_initVarWithConstS32_cn(runningVar, (*U$12).constant, (*U$12).p
    1183                    ;** 110 -----------------------    VLIB_initVarWithConstS32_cn(runningVar_cn, (*U$12).constant, (*U$12
    1184                    ;** 137 -----------------------    act_kernel = 0;  // [15]
    1185                    ;** 140 -----------------------    VLIB_cache_inval();  // [15]
    1186                    ;** 143 -----------------------    initStack(getSP());  // [15]
    1187                    ;** 146 -----------------------    beg_count = _itoll(TSCH, TSCL);  // [15]
    1188                    ;** 114 -----------------------    VLIB_updateEWRVarianceS32(runningVar, runningMean, newLuma, mask32p
    1189                    ;** 153 -----------------------    v$2 = _itoll(TSCH, TSCL);  // [16]
    1190                    ;** 153 -----------------------    end_count = v$2;  // [16]
    1191                    ;**     -----------------------    K$78 = &cycles[0];
    1192                    ;** 156 -----------------------    C$2 = act_kernel;  // [16]
    1193                    ;** 156 -----------------------    *((C$2<<3)+K$78) = *((C$2<<3)+K$78)+(v$2-(beg_count+overhead));  //
    1194                    ;** 159 -----------------------    setStackDepth();  // [16]
    1195                    ;** 137 -----------------------    act_kernel = 1;  // [15]
    1196                    ;** 140 -----------------------    VLIB_cache_inval();  // [15]
    1197                    ;** 143 -----------------------    initStack(getSP());  // [15]
    1198                    
    1199 00000220 062c1fd9             MV      .L1X    B11,A12           ; |97| 
    1200 00000224 01850163  ||         ADDKPC  .S2     $C$RL12,B3,0      ; |97| 
    1201 00000230 02200fda  ||         MV      .L2     B8,B4             ; |97| 
    1202 0000022c 052008f3  ||         MV      .D2     B8,B10            ; |97| 
    1203 00000228 052006a1  ||         MV      .S1     A8,A10            ; |97| 
    1204                    
    1205                            .dwpsn  file "./../packages/ti/vlib/src/VLIB_updateEWRVarianceS32/VLIB_updateEWRVarianceS32_d.
    1206 00000234           $C$RL12:   ; CALL OCCURS {VLIB_fillBuffer} {0}  ; |97| 
    1207 00000234           $C$DW$L$VLIB_updateEWRVarianceS32_d$16$E:
    1208                    ;** --------------------------------------------------------------------------*
    1209 00000234           $C$DW$L$VLIB_updateEWRVarianceS32_d$17$B:
    1210                    ;          EXCLUSIVE CPU CYCLES: 91
TMS320C6x Assembler PC v7.4.2 Thu Mar 19 12:45:04 2015

Tools Copyright (c) 1996-2012 Texas Instruments Incorporated
package/lib/Regression/regress_d_c/./../packages/ti/vlib/src/VLIB_updateEWRVarianceS32/VLIB_updateEWRVarianceS32_d.se66 PAGE   23

    1211                            .dwpsn  file "./../packages/ti/vlib/src/VLIB_updateEWRVarianceS32/VLIB_updateEWRVarianceS32_d.
    1212                    ;----------------------------------------------------------------------
    1213                    ; 105 | VLIB_initMeanWithLumaS32_cn(runningMean, prevLuma, prm[tpi].pixelCount)
    1214                    ;     | ;                                                                      
    1215                    ;----------------------------------------------------------------------
    1216 00000234     ad4d             LDW     .D2T1   *+SP(36),A4       ; |105| 
    1217                    $C$DW$140       .dwtag  DW_TAG_TI_branch
    1218                            .dwattr $C$DW$140, DW_AT_low_pc(0x00)
    1219                            .dwattr $C$DW$140, DW_AT_name("VLIB_initMeanWithLumaS32_cn")
    1220                            .dwattr $C$DW$140, DW_AT_TI_call
    1221                    
    1222 00000238 10000013!            CALLP   .S2     VLIB_initMeanWithLumaS32_cn,B3
    1223 00000236     fccd  ||         LDW     .D2T2   *+SP(28),B4       ; |105| 
    1224 00000240 032ce264  ||         LDW     .D1T1   *+A11(28),A6      ; |105| 
    1225                    
    1226 00000244           $C$RL13:   ; CALL OCCURS {VLIB_initMeanWithLumaS32_cn} {0}  ; |105| 
    1227                    
    1228 00000244 023d42e5             LDW     .D2T1   *+SP(40),A4       ; |109| 
    1229 00000248 022cc266  ||         LDW     .D1T2   *+A11(24),B4      ; |109| 
    1230                    
    1231                    $C$DW$141       .dwtag  DW_TAG_TI_branch
    1232                            .dwattr $C$DW$141, DW_AT_low_pc(0x00)
    1233                            .dwattr $C$DW$141, DW_AT_name("VLIB_initVarWithConstS32_cn")
    1234                            .dwattr $C$DW$141, DW_AT_TI_call
    1235                    
    1236 0000024c 10000013!            CALLP   .S2     VLIB_initVarWithConstS32_cn,B3
    1237 00000250 032ce264  ||         LDW     .D1T1   *+A11(28),A6      ; |109| 
    1238                    
    1239                            .dwpsn  file "./../packages/ti/vlib/src/VLIB_updateEWRVarianceS32/VLIB_updateEWRVarianceS32_d.
    1240                    ;----------------------------------------------------------------------
    1241                    ; 109 | VLIB_initVarWithConstS32_cn(runningVar, prm[tpi].constant, prm[tpi].pix
    1242                    ;     | elCount);                                                              
    1243                    ;----------------------------------------------------------------------
    1244 00000254           $C$RL14:   ; CALL OCCURS {VLIB_initVarWithConstS32_cn} {0}  ; |109| 
    1245                            .dwpsn  file "./../packages/ti/vlib/src/VLIB_updateEWRVarianceS32/VLIB_updateEWRVarianceS32_d.
    1246                    ;----------------------------------------------------------------------
    1247                    ; 110 | VLIB_initVarWithConstS32_cn(runningVar_cn, prm[tpi].constant, prm[tpi].
    1248                    ;     | pixelCount);                                                           
    1249                    ; 113 | VLIB_profile_start(vlib_KERNEL_OPT);                                   
    1250                    ; 114 | VLIB_updateEWRVarianceS32(runningVar, runningMean, newLuma, mask32packe
    1251                    ;     | d, prm[tpi].weight, prm[tpi].pixelCount);                              
    1252                    ; 115 | VLIB_profile_stop();                                                   
    1253                    ; 119 | VLIB_profile_start(vlib_KERNEL_CN);                                    
    1254                    ; 120 | VLIB_updateEWRVarianceS32_cn(runningVar_cn, runningMean, newLuma, mask3
    1255                    ;     | 2packed, prm[tpi].weight, prm[tpi].pixelCount);                        
    1256                    ; 121 | VLIB_profile_stop();                                                   
    1257                    ; 125 | status_nat_vs_int = VLIB_compare_mem((void *) runningVar, (void *)runni
    1258                    ;     | ngVar_cn, prm[tpi].pixelCount * sizeof(runningVar_cn[0]));             
    1259                    ; 128 | if( prm[tpi].staticOutVar != NULL ) {                                  
    1260                    ; 129 |     status_nat_vs_ref = VLIB_compare_mem((void *) prm[tpi].staticOutVar
    1261                    ;     | , (void *)runningVar_cn, prm[tpi].pixelCount * sizeof(runningVar_cn[0])
    1262                    ;     | );                                                                     
    1263                    ; 133 | fail = ((status_nat_vs_int == vlib_KERNEL_FAIL) || (status_nat_vs_ref =
    1264                    ;     | = vlib_KERNEL_FAIL)) ? 1 : 0;                                          
    1265                    ; 135 | est_test=1;                                                            
TMS320C6x Assembler PC v7.4.2 Thu Mar 19 12:45:04 2015

Tools Copyright (c) 1996-2012 Texas Instruments Incorporated
package/lib/Regression/regress_d_c/./../packages/ti/vlib/src/VLIB_updateEWRVarianceS32/VLIB_updateEWRVarianceS32_d.se66 PAGE   24

    1266                    ; 138 | sprintf(desc, "%s generated input | Opt results compared to NatC result
    1267                    ;     | s | pixelCount=%d",                                                    
    1268                    ; 139 |         testPatternString, prm[tpi].pixelCount);                       
    1269                    ;----------------------------------------------------------------------
    1270 00000254 022cc266             LDW     .D1T2   *+A11(24),B4      ; |110| 
    1271                    $C$DW$142       .dwtag  DW_TAG_TI_branch
    1272                            .dwattr $C$DW$142, DW_AT_low_pc(0x00)
    1273                            .dwattr $C$DW$142, DW_AT_name("VLIB_initVarWithConstS32_cn")
    1274                            .dwattr $C$DW$142, DW_AT_TI_call
    1275                    
    1276 00000258 10000013!            CALLP   .S2     VLIB_initVarWithConstS32_cn,B3
    1277 0000025c 032ce265  ||         LDW     .D1T1   *+A11(28),A6      ; |110| 
    1278 00000260 02341fd8  ||         MV      .L1X    B13,A4            ; |110| 
    1279                    
    1280 00000264           $C$RL15:   ; CALL OCCURS {VLIB_initVarWithConstS32_cn} {0}  ; |110| 
    1281 00000264 0280002a!            MVKL    .S2     act_kernel,B5
    1282                    
    1283 00000268 0280006b!            MVKH    .S2     act_kernel,B5
    1284 0000026c     0627  ||         ZERO    .L2     B4                ; |137| 
    1285                    
    1286                    $C$DW$143       .dwtag  DW_TAG_TI_branch
    1287                            .dwattr $C$DW$143, DW_AT_low_pc(0x00)
    1288                            .dwattr $C$DW$143, DW_AT_name("VLIB_cache_inval")
    1289                            .dwattr $C$DW$143, DW_AT_TI_call
    1290                    
    1291 00000270 10000012!            CALLP   .S2     VLIB_cache_inval,B3
    1292 0000026e     10c5  ||         STW     .D2T2   B4,*B5            ; |137| 
    1293                    
    1294                            .dwpsn  file ".\..\packages\ti\vlib\src\VLIB_updateEWRVarianceS32\..\common\VLIB_profile.h",li
    1295                    ;----------------------------------------------------------------------
    1296                    ; 140 | VLIB_formula_add_test(prm[tpi].pixelCount, NULL, NULL, fail, desc, NULL
    1297                    ;     | );                                                                     
    1298                    ; 142 | } else {                                                               
    1299                    ;----------------------------------------------------------------------
    1300                    $C$RL16:   ; CALL OCCURS {VLIB_cache_inval} {0}  ; |140| 
    1301                    $C$DW$144       .dwtag  DW_TAG_TI_branch
    1302                            .dwattr $C$DW$144, DW_AT_low_pc(0x00)
    1303                            .dwattr $C$DW$144, DW_AT_name("getSP")
    1304                            .dwattr $C$DW$144, DW_AT_TI_call
    1305 00000274 10000012!            CALLP   .S2     getSP,B3
    1306                            .dwpsn  file ".\..\packages\ti\vlib\src\VLIB_updateEWRVarianceS32\..\common\VLIB_profile.h",li
    1307                    ;----------------------------------------------------------------------
    1308                    ; 144 | sprintf(desc, "pixelCount=%d",                                         
    1309                    ; 145 |         prm[tpi].pixelCount);                                          
    1310                    ;----------------------------------------------------------------------
    1311                    $C$RL17:   ; CALL OCCURS {getSP} {0}         ; |143| 
    1312                    $C$DW$145       .dwtag  DW_TAG_TI_branch
    1313                            .dwattr $C$DW$145, DW_AT_low_pc(0x00)
    1314                            .dwattr $C$DW$145, DW_AT_name("initStack")
    1315                            .dwattr $C$DW$145, DW_AT_TI_call
    1316 00000278 10000012!            CALLP   .S2     initStack,B3
    1317 00000280           $C$RL18:   ; CALL OCCURS {initStack} {0}     ; |143| 
    1318                            .dwpsn  file ".\..\packages\ti\vlib\src\VLIB_updateEWRVarianceS32\..\common\VLIB_profile.h",li
    1319                    ;----------------------------------------------------------------------
    1320                    ; 146 | VLIB_skip_test(desc);                                                  
TMS320C6x Assembler PC v7.4.2 Thu Mar 19 12:45:04 2015

Tools Copyright (c) 1996-2012 Texas Instruments Incorporated
package/lib/Regression/regress_d_c/./../packages/ti/vlib/src/VLIB_updateEWRVarianceS32/VLIB_updateEWRVarianceS32_d.se66 PAGE   25

    1321                    ; 150 | free(runningVar_cn);                                                   
    1322                    ; 151 | VLIB_free(runningVar);                                                 
    1323                    ; 152 | VLIB_free(runningMean);                                                
    1324                    ;----------------------------------------------------------------------
    1325 00000280 022803e2             MVC     .S2     TSCL,B4           ; |146| 
    1326 00000284 02ac03e2             MVC     .S2     TSCH,B5           ; |146| 
    1327                    
    1328 00000288 0300002b!            MVKL    .S2     beg_count,B6
    1329 0000028c     cd4d  ||         LDW     .D2T1   *+SP(40),A4       ; |114| 
    1330                    
    1331 00000294 0300006a!            MVKH    .S2     beg_count,B6
    1332 00000290 042ce267  ||         LDW     .D1T2   *+A11(28),B8      ; |114| 
    1333 0000028e     cced  ||         LDW     .D2T1   *+SP(24),A6       ; |114| 
    1334                    
    1335 00000298     1145             STDW    .D2T2   B5:B4,*B6         ; |146| 
    1336                            .dwpsn  file "./../packages/ti/vlib/src/VLIB_updateEWRVarianceS32/VLIB_updateEWRVarianceS32_d.
    1337 0000029a     9d6d             LDW     .D2T2   *+SP(32),B6       ; |114| 
    1338                    $C$DW$146       .dwtag  DW_TAG_TI_branch
    1339                            .dwattr $C$DW$146, DW_AT_low_pc(0x00)
    1340                            .dwattr $C$DW$146, DW_AT_name("VLIB_updateEWRVarianceS32")
    1341                            .dwattr $C$DW$146, DW_AT_TI_call
    1342                    
    1343 000002a0 10000013!            CALLP   .S2     VLIB_updateEWRVarianceS32,B3
    1344 000002a4 023d22e7  ||         LDW     .D2T2   *+SP(36),B4       ; |114| 
    1345 000002a8 042ca264  ||         LDW     .D1T1   *+A11(20),A8      ; |114| 
    1346                    
    1347 000002ac           $C$RL19:   ; CALL OCCURS {VLIB_updateEWRVarianceS32} {0}  ; |114| 
    1348                            .dwpsn  file ".\..\packages\ti\vlib\src\VLIB_updateEWRVarianceS32\..\common\VLIB_profile.h",li
    1349                    ;----------------------------------------------------------------------
    1350                    ; 153 | VLIB_free(mask32packed);                                               
    1351                    ; 154 | free(prevLuma);                                                        
    1352                    ; 155 | VLIB_free(newLuma);                                                    
    1353                    ;----------------------------------------------------------------------
    1354 000002ac 032803e2             MVC     .S2     TSCL,B6           ; |153| 
    1355 000002b0 022c03e2             MVC     .S2     TSCH,B4           ; |153| 
    1356 000002b4 0400002a!            MVKL    .S2     beg_count,B8
    1357                    
    1358 000002b8 01800029!            MVKL    .S1     act_kernel,A3
    1359 000002bc 0400006a! ||         MVKH    .S2     beg_count,B8
    1360                    
    1361 000002c0 01800069!            MVKH    .S1     act_kernel,A3
    1362 000002c4 0380002a! ||         MVKL    .S2     overhead,B7
    1363                    
    1364 000002c8 018c0265             LDW     .D1T1   *A3,A3            ; |156| 
    1365 000002cc 0380006b! ||         MVKH    .S2     overhead,B7
    1366 000002d0 042003e6  ||         LDDW    .D2T2   *B8,B9:B8         ; |156| 
    1367                    
    1368 000002d4 081c03e7             LDDW    .D2T2   *B7,B17:B16       ; |156| 
    1369 000002d8 0280002a! ||         MVKL    .S2     cycles,B5
    1370                    
    1371 000002dc 0280006a!            MVKH    .S2     cycles,B5
    1372 000002e0     e247             MV      .L2     B4,B7             ; |153| 
    1373 000002e2     56c6             MV      .L1X    B5,A10
    1374                            .dwpsn  file ".\..\packages\ti\vlib\src\VLIB_updateEWRVarianceS32\..\common\VLIB_profile.h",li
    1375 000002e4 03286b64             LDDW    .D1T1   *+A10[A3],A7:A6   ; |156| 
TMS320C6x Assembler PC v7.4.2 Thu Mar 19 12:45:04 2015

Tools Copyright (c) 1996-2012 Texas Instruments Incorporated
package/lib/Regression/regress_d_c/./../packages/ti/vlib/src/VLIB_updateEWRVarianceS32/VLIB_updateEWRVarianceS32_d.se66 PAGE   26

    1376 000002e8 0222057a             ADDU    .L2     B16,B8,B5:B4      ; |156| 
    1377 000002ec 0844a07a             ADD     .L2     B5,B17,B16        ; |156| 
    1378                    
    1379 000002f0 04a601e3             ADD     .S2     B16,B9,B9         ; |156| 
    1380 000002f4 0210c5fa  ||         SUBU    .L2     B6,B4,B5:B4       ; |156| 
    1381                    
    1382 000002f8 0fa4e0fb             SUB     .L2     B7,B9,B31         ; |156| 
    1383 00000300 0297184a  ||         EXT     .S2     B5,24,24,B5       ; |156| 
    1384                    
    1385 00000304 0210d579             ADDU    .L1X    A6,B4,A5:A4       ; |156| 
    1386 00000308 0217e07a  ||         ADD     .L2     B31,B5,B4         ; |156| 
    1387                    
    1388 00000310     a3d0             ADD     .L1     A5,A7,A5          ; |156| 
    1389 0000030c 0400002b! ||         MVKL    .S2     end_count,B8
    1390                    
    1391 00000312     b250             ADD     .L1X    A5,B4,A5          ; |156| 
    1392 00000314 0400006a! ||         MVKH    .S2     end_count,B8
    1393                    
    1394                    $C$DW$147       .dwtag  DW_TAG_TI_branch
    1395                            .dwattr $C$DW$147, DW_AT_low_pc(0x00)
    1396                            .dwattr $C$DW$147, DW_AT_name("setStackDepth")
    1397                            .dwattr $C$DW$147, DW_AT_TI_call
    1398                    
    1399 00000318 10000013!            CALLP   .S2     setStackDepth,B3
    1400 00000320 02286b45  ||         STDW    .D1T1   A5:A4,*+A10[A3]   ; |156| 
    1401 00000324 032003c6  ||         STDW    .D2T2   B7:B6,*B8         ; |153| 
    1402                    
    1403                            .dwpsn  file ".\..\packages\ti\vlib\src\VLIB_updateEWRVarianceS32\..\common\VLIB_profile.h",li
    1404                    ;----------------------------------------------------------------------
    1405                    ; 159 | VLIB_profile_cycle_report(vlib_PROFILE_FORMULA_RANGE,                  
    1406                    ;----------------------------------------------------------------------
    1407 00000328           $C$RL20:   ; CALL OCCURS {setStackDepth} {0}  ; |159| 
    1408 00000328 0200002a!            MVKL    .S2     act_kernel,B4
    1409                    
    1410 0000032c 0200006b!            MVKH    .S2     act_kernel,B4
    1411 00000330     25a6  ||         MVK     .L1     1,A3              ; |137| 
    1412                    
    1413                    $C$DW$148       .dwtag  DW_TAG_TI_branch
    1414                            .dwattr $C$DW$148, DW_AT_low_pc(0x00)
    1415                            .dwattr $C$DW$148, DW_AT_name("VLIB_cache_inval")
    1416                            .dwattr $C$DW$148, DW_AT_TI_call
    1417                    
    1418 00000334 10000012!            CALLP   .S2     VLIB_cache_inval,B3
    1419 00000332     0035  ||         STW     .D2T1   A3,*B4            ; |137| 
    1420                    
    1421                            .dwpsn  file ".\..\packages\ti\vlib\src\VLIB_updateEWRVarianceS32\..\common\VLIB_profile.h",li
    1422                    $C$RL21:   ; CALL OCCURS {VLIB_cache_inval} {0}  ; |140| 
    1423                    $C$DW$149       .dwtag  DW_TAG_TI_branch
    1424                            .dwattr $C$DW$149, DW_AT_low_pc(0x00)
    1425                            .dwattr $C$DW$149, DW_AT_name("getSP")
    1426                            .dwattr $C$DW$149, DW_AT_TI_call
    1427 00000338 10000012!            CALLP   .S2     getSP,B3
    1428                            .dwpsn  file ".\..\packages\ti\vlib\src\VLIB_updateEWRVarianceS32\..\common\VLIB_profile.h",li
    1429                    $C$RL22:   ; CALL OCCURS {getSP} {0}         ; |143| 
    1430                    $C$DW$L$VLIB_updateEWRVarianceS32_d$17$E:
TMS320C6x Assembler PC v7.4.2 Thu Mar 19 12:45:04 2015

Tools Copyright (c) 1996-2012 Texas Instruments Incorporated
package/lib/Regression/regress_d_c/./../packages/ti/vlib/src/VLIB_updateEWRVarianceS32/VLIB_updateEWRVarianceS32_d.se66 PAGE   27

    1431                    ;** --------------------------------------------------------------------------*
    1432                    $C$DW$L$VLIB_updateEWRVarianceS32_d$18$B:
    1433                    ;          EXCLUSIVE CPU CYCLES: 6
    1434                    ;** 146 -----------------------    beg_count = _itoll(TSCH, TSCL);  // [15]
    1435                    ;** 120 -----------------------    VLIB_updateEWRVarianceS32_cn(runningVar_cn, runningMean, newLuma, m
    1436                    ;** 153 -----------------------    v$2 = _itoll(TSCH, TSCL);  // [16]
    1437                    ;** 153 -----------------------    end_count = v$2;  // [16]
    1438                    ;** 156 -----------------------    C$1 = act_kernel;  // [16]
    1439                    ;** 156 -----------------------    *((C$1<<3)+K$78) = *((C$1<<3)+K$78)+(v$2-(beg_count+overhead));  //
    1440                    ;** 159 -----------------------    setStackDepth();  // [16]
    1441                    ;** 125 -----------------------    status_nat_vs_int = VLIB_compare_mem((void *)runningVar, (void *)ru
    1442                    ;** 128 -----------------------    v$1 = prm;
    1443                    ;** 128 -----------------------    U$87 = (*U$12).staticOutVar;
    1444                    ;** 128 -----------------------    if ( U$87 ) goto g12;
    1445                    ;** 58  -----------------------    status_nat_vs_ref = 1;
    1446                    ;**     -----------------------    goto g13;
    1447                    $C$DW$150       .dwtag  DW_TAG_TI_branch
    1448                            .dwattr $C$DW$150, DW_AT_low_pc(0x00)
    1449                            .dwattr $C$DW$150, DW_AT_name("initStack")
    1450                            .dwattr $C$DW$150, DW_AT_TI_call
    1451 00000340 10000012!            CALLP   .S2     initStack,B3
    1452 00000344           $C$RL23:   ; CALL OCCURS {initStack} {0}     ; |143| 
    1453 00000344           $C$DW$L$VLIB_updateEWRVarianceS32_d$18$E:
    1454                    ;** --------------------------------------------------------------------------*
    1455 00000344           $C$DW$L$VLIB_updateEWRVarianceS32_d$19$B:
    1456                    ;          EXCLUSIVE CPU CYCLES: 47
    1457                            .dwpsn  file ".\..\packages\ti\vlib\src\VLIB_updateEWRVarianceS32\..\common\VLIB_profile.h",li
    1458 00000344 032803e2             MVC     .S2     TSCL,B6           ; |146| 
    1459 00000348 022c03e2             MVC     .S2     TSCH,B4           ; |146| 
    1460 0000034c 0280002a!            MVKL    .S2     beg_count,B5
    1461                    
    1462 00000350 0280006b!            MVKH    .S2     beg_count,B5
    1463 00000354     e247  ||         MV      .L2     B4,B7             ; |146| 
    1464 00000358 042ce266  ||         LDW     .D1T2   *+A11(28),B8      ; |120| 
    1465 00000356     cced  ||         LDW     .D2T1   *+SP(24),A6       ; |120| 
    1466                    
    1467 00000360     10e5             STDW    .D2T2   B7:B6,*B5         ; |146| 
    1468                            .dwpsn  file "./../packages/ti/vlib/src/VLIB_updateEWRVarianceS32/VLIB_updateEWRVarianceS32_d.
    1469 00000362     bd4d             LDW     .D2T2   *+SP(36),B4       ; |120| 
    1470                    $C$DW$151       .dwtag  DW_TAG_TI_branch
    1471                            .dwattr $C$DW$151, DW_AT_low_pc(0x00)
    1472                            .dwattr $C$DW$151, DW_AT_name("VLIB_updateEWRVarianceS32_cn")
    1473                            .dwattr $C$DW$151, DW_AT_TI_call
    1474                    
    1475 00000364 10000013!            CALLP   .S2     VLIB_updateEWRVarianceS32_cn,B3
    1476 00000368     9d6d  ||         LDW     .D2T2   *+SP(32),B6       ; |146| 
    1477 0000036c 042ca264  ||         LDW     .D1T1   *+A11(20),A8      ; |120| 
    1478 0000036a     9686  ||         MV      .L1X    B13,A4            ; |120| 
    1479                    
    1480 00000370           $C$RL24:   ; CALL OCCURS {VLIB_updateEWRVarianceS32_cn} {0}  ; |120| 
    1481                            .dwpsn  file ".\..\packages\ti\vlib\src\VLIB_updateEWRVarianceS32\..\common\VLIB_profile.h",li
    1482 00000370 032803e2             MVC     .S2     TSCL,B6           ; |153| 
    1483 00000374 03ac03e2             MVC     .S2     TSCH,B7           ; |153| 
    1484 00000378 0280002a!            MVKL    .S2     overhead,B5
    1485                    
TMS320C6x Assembler PC v7.4.2 Thu Mar 19 12:45:04 2015

Tools Copyright (c) 1996-2012 Texas Instruments Incorporated
package/lib/Regression/regress_d_c/./../packages/ti/vlib/src/VLIB_updateEWRVarianceS32/VLIB_updateEWRVarianceS32_d.se66 PAGE   28

    1486 00000380 01800029!            MVKL    .S1     act_kernel,A3
    1487 00000384 0200002a! ||         MVKL    .S2     beg_count,B4
    1488                    
    1489 00000388 01800069!            MVKH    .S1     act_kernel,A3
    1490 0000038c 0280006a! ||         MVKH    .S2     overhead,B5
    1491                    
    1492 00000390 030c0265             LDW     .D1T1   *A3,A6            ; |156| 
    1493 00000394 0200006b! ||         MVKH    .S2     beg_count,B4
    1494 00000398 081403e6  ||         LDDW    .D2T2   *B5,B17:B16       ; |156| 
    1495                    
    1496                            .dwpsn  file ".\..\packages\ti\vlib\src\VLIB_updateEWRVarianceS32\..\common\VLIB_profile.h",li
    1497 0000039c 041003e6             LDDW    .D2T2   *B4,B9:B8         ; |156| 
    1498 000003a0 00004000             NOP             3
    1499 000003a4 0428cb64             LDDW    .D1T1   *+A10[A6],A9:A8   ; |156| 
    1500 000003a8 0222057a             ADDU    .L2     B16,B8,B5:B4      ; |156| 
    1501                    
    1502 000003ac 0244a1e3             ADD     .S2     B5,B17,B4         ; |156| 
    1503 000003b0 0810c5fa  ||         SUBU    .L2     B6,B4,B17:B16     ; |156| 
    1504                    
    1505 000003b4 0224807a             ADD     .L2     B4,B9,B4          ; |156| 
    1506                    
    1507 000003b8     7806             MV      .L1X    B16,A3            ; |156| 
    1508 000003ba     ea41  ||         SUB     .L2     B7,B4,B4          ; |156| 
    1509 000003c0 02c7184a  ||         EXT     .S2     B17,24,24,B5      ; |156| 
    1510                    
    1511 000003c4 020d0579             ADDU    .L1     A8,A3,A5:A4       ; |156| 
    1512 000003c8 0214807a  ||         ADD     .L2     B4,B5,B4          ; |156| 
    1513                    
    1514 000003cc 01a4a079             ADD     .L1     A5,A9,A3          ; |156| 
    1515 000003d0 0400002a! ||         MVKL    .S2     end_count,B8
    1516                    
    1517 000003d4 02907079             ADD     .L1X    A3,B4,A5          ; |156| 
    1518 000003d8 0400006a! ||         MVKH    .S2     end_count,B8
    1519                    
    1520                    $C$DW$152       .dwtag  DW_TAG_TI_branch
    1521                            .dwattr $C$DW$152, DW_AT_low_pc(0x00)
    1522                            .dwattr $C$DW$152, DW_AT_name("setStackDepth")
    1523                            .dwattr $C$DW$152, DW_AT_TI_call
    1524                    
    1525 000003dc 10000013!            CALLP   .S2     setStackDepth,B3
    1526 000003e0 0228cb45  ||         STDW    .D1T1   A5:A4,*+A10[A6]   ; |156| 
    1527 000003e4 032003c6  ||         STDW    .D2T2   B7:B6,*B8         ; |153| 
    1528                    
    1529                            .dwpsn  file ".\..\packages\ti\vlib\src\VLIB_updateEWRVarianceS32\..\common\VLIB_profile.h",li
    1530                    ;----------------------------------------------------------------------
    1531                    ; 160 | "N = pixelCount",                                                      
    1532                    ; 161 | "pixelCount");                                                         
    1533                    ; 164 | VLIB_kernel_memory();                                                  
    1534                    ;----------------------------------------------------------------------
    1535 000003e8           $C$RL25:   ; CALL OCCURS {setStackDepth} {0}  ; |159| 
    1536                            .dwpsn  file "./../packages/ti/vlib/src/VLIB_updateEWRVarianceS32/VLIB_updateEWRVarianceS32_d.
    1537 000003e8 01ace264             LDW     .D1T1   *+A11(28),A3      ; |125| 
    1538 000003ec     cd4d             LDW     .D2T1   *+SP(40),A4       ; |125| 
    1539 000003ee     8687             MV      .L2     B13,B4            ; |125| 
    1540 000003f0     2c6e             NOP             2
TMS320C6x Assembler PC v7.4.2 Thu Mar 19 12:45:04 2015

Tools Copyright (c) 1996-2012 Texas Instruments Incorporated
package/lib/Regression/regress_d_c/./../packages/ti/vlib/src/VLIB_updateEWRVarianceS32/VLIB_updateEWRVarianceS32_d.se66 PAGE   29

    1541                    $C$DW$153       .dwtag  DW_TAG_TI_branch
    1542                            .dwattr $C$DW$153, DW_AT_low_pc(0x00)
    1543                            .dwattr $C$DW$153, DW_AT_name("VLIB_compare_mem")
    1544                            .dwattr $C$DW$153, DW_AT_TI_call
    1545                    
    1546 000003f4 10000012!            CALLP   .S2     VLIB_compare_mem,B3
    1547 000003f2     45ea  ||         SHL     .S1     A3,2,A6           ; |125| 
    1548                    
    1549 000003f8           $C$RL26:   ; CALL OCCURS {VLIB_compare_mem} {0}  ; |125| 
    1550 000003f8           $C$DW$L$VLIB_updateEWRVarianceS32_d$19$E:
    1551                    ;** --------------------------------------------------------------------------*
    1552 000003f8           $C$DW$L$VLIB_updateEWRVarianceS32_d$20$B:
    1553                    ;          EXCLUSIVE CPU CYCLES: 11
    1554                            .dwpsn  file "./../packages/ti/vlib/src/VLIB_updateEWRVarianceS32/VLIB_updateEWRVarianceS32_d.
    1555 000003f8 002c8264             LDW     .D1T1   *+A11(16),A0      ; |128| 
    1556 00000400     bccd             LDW     .D2T2   *+SP(20),B4       ; |128| 
    1557                            .dwpsn  file "./../packages/ti/vlib/src/VLIB_updateEWRVarianceS32/VLIB_updateEWRVarianceS32_d.
    1558 00000402     5647             MV      .L2X    A4,B10            ; |125| 
    1559 00000404     2c6e             NOP             2
    1560                    
    1561 00000406     06ba     [!A0]   B       .S1     $C$L6
    1562 00000408 c1ace264  || [ A0]   LDW     .D1T1   *+A11(28),A3      ; |129| 
    1563                    
    1564                            .dwpsn  file "./../packages/ti/vlib/src/VLIB_updateEWRVarianceS32/VLIB_updateEWRVarianceS32_d.
    1565                    $C$DW$154       .dwtag  DW_TAG_TI_branch
    1566                            .dwattr $C$DW$154, DW_AT_low_pc(0x00)
    1567                            .dwattr $C$DW$154, DW_AT_name("VLIB_compare_mem")
    1568                            .dwattr $C$DW$154, DW_AT_TI_call
    1569 0000040c c0000010!    [ A0]   CALL    .S1     VLIB_compare_mem  ; |129| 
    1570                            .dwpsn  file "./../packages/ti/vlib/src/VLIB_updateEWRVarianceS32/VLIB_updateEWRVarianceS32_d.
    1571 00000410 d704a358     [!A0]   MVK     .L1     0x1,A14           ; |58| 
    1572 00000414     4c6e             NOP             3
    1573                               ; BRANCHCC OCCURS {$C$L6}  
    1574 00000420           $C$DW$L$VLIB_updateEWRVarianceS32_d$20$E:
    1575                    ;** --------------------------------------------------------------------------*
    1576                            .dwpsn  file "./../packages/ti/vlib/src/VLIB_updateEWRVarianceS32/VLIB_updateEWRVarianceS32_d.
    1577 00000420           $C$DW$L$VLIB_updateEWRVarianceS32_d$21$B:
    1578                    ;          EXCLUSIVE CPU CYCLES: 1
    1579                    ;**     -----------------------g12:
    1580                    ;** 129 -----------------------    status_nat_vs_ref = VLIB_compare_mem((void *)U$87, (void *)runningV
    1581                    ;** 129 -----------------------    v$1 = prm;
    1582                    
    1583 00000420     8687             MV      .L2     B13,B4            ; |129| 
    1584 00000428 02000fd8  ||         MV      .L1     A0,A4             ; |129| 
    1585 00000422     45ea  ||         SHL     .S1     A3,2,A6           ; |129| 
    1586 00000424 01830163  ||         ADDKPC  .S2     $C$RL27,B3,0      ; |129| 
    1587                    
    1588                            .dwpsn  file "./../packages/ti/vlib/src/VLIB_updateEWRVarianceS32/VLIB_updateEWRVarianceS32_d.
    1589 0000042c           $C$RL27:   ; CALL OCCURS {VLIB_compare_mem} {0}  ; |129| 
    1590 0000042c           $C$DW$L$VLIB_updateEWRVarianceS32_d$21$E:
    1591                    ;** --------------------------------------------------------------------------*
    1592 0000042c           $C$DW$L$VLIB_updateEWRVarianceS32_d$22$B:
    1593                    ;          EXCLUSIVE CPU CYCLES: 5
    1594 0000042c     bccd             LDW     .D2T2   *+SP(20),B4       ; |129| 
    1595 0000042e     c646             MV      .L1     A4,A14            ; |129| 
TMS320C6x Assembler PC v7.4.2 Thu Mar 19 12:45:04 2015

Tools Copyright (c) 1996-2012 Texas Instruments Incorporated
package/lib/Regression/regress_d_c/./../packages/ti/vlib/src/VLIB_updateEWRVarianceS32/VLIB_updateEWRVarianceS32_d.se66 PAGE   30

    1596 00000430 00004000             NOP             3
    1597 00000434           $C$DW$L$VLIB_updateEWRVarianceS32_d$22$E:
    1598                    ;** --------------------------------------------------------------------------*
    1599 00000434           $C$L6:    
    1600 00000434           $C$DW$L$VLIB_updateEWRVarianceS32_d$23$B:
    1601                    ;          EXCLUSIVE CPU CYCLES: 13
    1602                    ;**     -----------------------g13:
    1603                    ;** 135 -----------------------    est_test = 1;
    1604                    ;** 138 -----------------------    sprintf(K$96, (const char *)"%s generated input | Opt results compa
    1605                    ;** 140 -----------------------    VLIB_formula_add_test((int)(*U$12).pixelCount, 0, 0, (status_nat_vs
    1606                    ;** 142 -----------------------    goto g15;
    1607                            .dwpsn  file "./../packages/ti/vlib/src/VLIB_updateEWRVarianceS32/VLIB_updateEWRVarianceS32_d.
    1608 00000434 0230807a             ADD     .L2     B4,B12,B4         ; |138| 
    1609 00000438 0290e2e6             LDW     .D2T2   *+B4(28),B5       ; |138| 
    1610 00000440 0200002a!            MVKL    .S2     $C$SL2+0,B4
    1611 00000444 01800028!            MVKL    .S1     est_test,A3
    1612 00000448 05bc42f6             STW     .D2T2   B11,*+SP(8)       ; |138| 
    1613 0000044c 0200006a!            MVKH    .S2     $C$SL2+0,B4
    1614                    
    1615 00000450 01800069!            MVKH    .S1     est_test,A3
    1616 00000454     2626  ||         MVK     .L1     1,A4              ; |135| 
    1617 00000456     fc55  ||         STW     .D2T2   B5,*+SP(12)       ; |138| 
    1618                    
    1619                    $C$DW$155       .dwtag  DW_TAG_TI_branch
    1620                            .dwattr $C$DW$155, DW_AT_low_pc(0x00)
    1621                            .dwattr $C$DW$155, DW_AT_name("sprintf")
    1622                            .dwattr $C$DW$155, DW_AT_TI_call
    1623                    
    1624 00000458 10000013!            CALLP   .S2     sprintf,B3
    1625 00000460     bc45  ||         STW     .D2T2   B4,*+SP(4)        ; |138| 
    1626 00000464 020c0274  ||         STW     .D1T1   A4,*A3            ; |135| 
    1627 00000462     8786  ||         MV      .L1     A15,A4            ; |138| 
    1628                    
    1629 00000468           $C$RL28:   ; CALL OCCURS {sprintf} {0}       ; |138| 
    1630 00000468           $C$DW$L$VLIB_updateEWRVarianceS32_d$23$E:
    1631                    ;** --------------------------------------------------------------------------*
    1632 00000468           $C$DW$L$VLIB_updateEWRVarianceS32_d$24$B:
    1633                    ;          EXCLUSIVE CPU CYCLES: 8
    1634                            .dwpsn  file "./../packages/ti/vlib/src/VLIB_updateEWRVarianceS32/VLIB_updateEWRVarianceS32_d.
    1635 00000468 01b80a58             CMPEQ   .L1     A14,0,A3          ; |140| 
    1636                    
    1637 0000046c 02280a5b             CMPEQ   .L2     B10,0,B4          ; |140| 
    1638 00000470 0400002a  ||         ZERO    .S2     B8                ; |140| 
    1639                    
    1640                    $C$DW$156       .dwtag  DW_TAG_TI_branch
    1641                            .dwattr $C$DW$156, DW_AT_low_pc(0x00)
    1642                            .dwattr $C$DW$156, DW_AT_name("VLIB_formula_add_test")
    1643                            .dwattr $C$DW$156, DW_AT_TI_call
    1644                    
    1645 00000474 10000013!            CALLP   .S2     VLIB_formula_add_test,B3
    1646 00000478 022ce265  ||         LDW     .D1T1   *+A11(28),A4      ; |140| 
    1647 00000480 030c9ffb  ||         OR      .L2X    A3,B4,B6          ; |140| 
    1648 00000484     1a77  ||         ZERO    .D2     B4                ; |140| 
    1649 00000486     0726  ||         ZERO    .L1     A6                ; |140| 
    1650 00000488 043c06a0  ||         MV      .S1     A15,A8            ; |140| 
TMS320C6x Assembler PC v7.4.2 Thu Mar 19 12:45:04 2015

Tools Copyright (c) 1996-2012 Texas Instruments Incorporated
package/lib/Regression/regress_d_c/./../packages/ti/vlib/src/VLIB_updateEWRVarianceS32/VLIB_updateEWRVarianceS32_d.se66 PAGE   31

    1651                    
    1652 0000048c           $C$RL29:   ; CALL OCCURS {VLIB_formula_add_test} {0}  ; |140| 
    1653 0000048c           $C$DW$L$VLIB_updateEWRVarianceS32_d$24$E:
    1654                    ;** --------------------------------------------------------------------------*
    1655 0000048c           $C$DW$L$VLIB_updateEWRVarianceS32_d$25$B:
    1656                    ;          EXCLUSIVE CPU CYCLES: 6
    1657                            .dwpsn  file "./../packages/ti/vlib/src/VLIB_updateEWRVarianceS32/VLIB_updateEWRVarianceS32_d.
    1658 0000048c 00000a10             B       .S1     $C$L8             ; |142| 
    1659                            .dwpsn  file "./../packages/ti/vlib/src/VLIB_updateEWRVarianceS32/VLIB_updateEWRVarianceS32_d.
    1660                    $C$DW$157       .dwtag  DW_TAG_TI_branch
    1661                            .dwattr $C$DW$157, DW_AT_low_pc(0x00)
    1662                            .dwattr $C$DW$157, DW_AT_name("free")
    1663                            .dwattr $C$DW$157, DW_AT_TI_call
    1664 00000490 00000010!            CALL    .S1     free              ; |150| 
    1665 00000494     6c6e             NOP             4
    1666                            .dwpsn  file "./../packages/ti/vlib/src/VLIB_updateEWRVarianceS32/VLIB_updateEWRVarianceS32_d.
    1667                               ; BRANCH OCCURS {$C$L8}           ; |142| 
    1668 000004a0           $C$DW$L$VLIB_updateEWRVarianceS32_d$25$E:
    1669                    ;** --------------------------------------------------------------------------*
    1670 000004a0           $C$L7:    
    1671                            .dwpsn  file "./../packages/ti/vlib/src/VLIB_updateEWRVarianceS32/VLIB_updateEWRVarianceS32_d.
    1672                    $C$DW$L$VLIB_updateEWRVarianceS32_d$26$B:
    1673                    ;          EXCLUSIVE CPU CYCLES: 6
    1674                    ;**     -----------------------g14:
    1675                    ;** 144 -----------------------    sprintf(K$96, (const char *)"pixelCount=%d", (*U$12).pixelCount);
    1676                    ;** 146 -----------------------    VLIB_skip_test(K$96);
    1677                    $C$DW$158       .dwtag  DW_TAG_TI_branch
    1678                            .dwattr $C$DW$158, DW_AT_low_pc(0x04)
    1679                            .dwattr $C$DW$158, DW_AT_name("sprintf")
    1680                            .dwattr $C$DW$158, DW_AT_TI_call
    1681                    
    1682 000004a0 01ace265             LDW     .D1T1   *+A11(28),A3      ; |144| 
    1683 000004a4 00000010! ||         CALL    .S1     sprintf           ; |144| 
    1684                    
    1685 000004a8 0200002a!            MVKL    .S2     $C$SL3+0,B4
    1686 000004ac 0200006a!            MVKH    .S2     $C$SL3+0,B4
    1687                            .dwpsn  file "./../packages/ti/vlib/src/VLIB_updateEWRVarianceS32/VLIB_updateEWRVarianceS32_d.
    1688 000004b0 023c22f6             STW     .D2T2   B4,*+SP(4)        ; |144| 
    1689 000004b4 01880162             ADDKPC  .S2     $C$RL30,B3,0      ; |144| 
    1690                    
    1691 000004b8     8786             MV      .L1     A15,A4            ; |144| 
    1692 000004ba     cc35  ||         STW     .D2T1   A3,*+SP(8)        ; |144| 
    1693                    
    1694                    $C$RL30:   ; CALL OCCURS {sprintf} {0}       ; |144| 
    1695                    $C$DW$L$VLIB_updateEWRVarianceS32_d$26$E:
    1696                    ;** --------------------------------------------------------------------------*
    1697                    $C$DW$L$VLIB_updateEWRVarianceS32_d$27$B:
    1698                    ;          EXCLUSIVE CPU CYCLES: 11
    1699                    $C$DW$159       .dwtag  DW_TAG_TI_branch
    1700                            .dwattr $C$DW$159, DW_AT_low_pc(0x00)
    1701                            .dwattr $C$DW$159, DW_AT_name("VLIB_skip_test")
    1702                            .dwattr $C$DW$159, DW_AT_TI_call
    1703                    
    1704 000004c0 10000013!            CALLP   .S2     VLIB_skip_test,B3
    1705 000004c4 023c0fd8  ||         MV      .L1     A15,A4            ; |146| 
TMS320C6x Assembler PC v7.4.2 Thu Mar 19 12:45:04 2015

Tools Copyright (c) 1996-2012 Texas Instruments Incorporated
package/lib/Regression/regress_d_c/./../packages/ti/vlib/src/VLIB_updateEWRVarianceS32/VLIB_updateEWRVarianceS32_d.se66 PAGE   32

    1706                    
    1707                            .dwpsn  file "./../packages/ti/vlib/src/VLIB_updateEWRVarianceS32/VLIB_updateEWRVarianceS32_d.
    1708 000004c8           $C$RL31:   ; CALL OCCURS {VLIB_skip_test} {0}  ; |146| 
    1709                            .dwpsn  file "./../packages/ti/vlib/src/VLIB_updateEWRVarianceS32/VLIB_updateEWRVarianceS32_d.
    1710                    $C$DW$160       .dwtag  DW_TAG_TI_branch
    1711                            .dwattr $C$DW$160, DW_AT_low_pc(0x00)
    1712                            .dwattr $C$DW$160, DW_AT_name("free")
    1713                            .dwattr $C$DW$160, DW_AT_TI_call
    1714 000004c8 00000010!            CALL    .S1     free              ; |150| 
    1715 000004cc 00006000             NOP             4
    1716 000004d0           $C$DW$L$VLIB_updateEWRVarianceS32_d$27$E:
    1717                    ;** --------------------------------------------------------------------------*
    1718 000004d0           $C$L8:    
    1719                            .dwpsn  file "./../packages/ti/vlib/src/VLIB_updateEWRVarianceS32/VLIB_updateEWRVarianceS32_d.
    1720 000004d0           $C$DW$L$VLIB_updateEWRVarianceS32_d$28$B:
    1721                    ;          EXCLUSIVE CPU CYCLES: 1
    1722                    ;**     -----------------------g15:
    1723                    ;** 150 -----------------------    free((void *)runningVar_cn);
    1724                    ;** 151 -----------------------    VLIB_free((void *)runningVar);
    1725                    ;** 152 -----------------------    VLIB_free((void *)runningMean);
    1726                    ;** 153 -----------------------    VLIB_free((void *)mask32packed);
    1727                    ;** 154 -----------------------    free((void *)prevLuma);
    1728                    ;** 155 -----------------------    VLIB_free((void *)newLuma);
    1729                    ;** 54  -----------------------    U$11 += 32;
    1730                    ;** 54  -----------------------    if ( test_cases > (++tpi) ) goto g3;
    1731                    
    1732 000004d0 02341fd9             MV      .L1X    B13,A4            ; |150| 
    1733 000004d4 01860162  ||         ADDKPC  .S2     $C$RL32,B3,0      ; |150| 
    1734                    
    1735                            .dwpsn  file "./../packages/ti/vlib/src/VLIB_updateEWRVarianceS32/VLIB_updateEWRVarianceS32_d.
    1736                    $C$RL32:   ; CALL OCCURS {free} {0}          ; |150| 
    1737                    $C$DW$L$VLIB_updateEWRVarianceS32_d$28$E:
    1738                    ;** --------------------------------------------------------------------------*
    1739                    $C$DW$L$VLIB_updateEWRVarianceS32_d$29$B:
    1740                    ;          EXCLUSIVE CPU CYCLES: 30
    1741                    $C$DW$161       .dwtag  DW_TAG_TI_branch
    1742                            .dwattr $C$DW$161, DW_AT_low_pc(0x00)
    1743                            .dwattr $C$DW$161, DW_AT_name("VLIB_free")
    1744                            .dwattr $C$DW$161, DW_AT_TI_call
    1745                    
    1746 000004d8 10000013!            CALLP   .S2     VLIB_free,B3
    1747 000004dc 023d42e4  ||         LDW     .D2T1   *+SP(40),A4       ; |151| 
    1748                    
    1749                            .dwpsn  file "./../packages/ti/vlib/src/VLIB_updateEWRVarianceS32/VLIB_updateEWRVarianceS32_d.
    1750                    $C$RL33:   ; CALL OCCURS {VLIB_free} {0}     ; |151| 
    1751                    $C$DW$162       .dwtag  DW_TAG_TI_branch
    1752                            .dwattr $C$DW$162, DW_AT_low_pc(0x00)
    1753                            .dwattr $C$DW$162, DW_AT_name("VLIB_free")
    1754                            .dwattr $C$DW$162, DW_AT_TI_call
    1755                    
    1756 000004e0 10000013!            CALLP   .S2     VLIB_free,B3
    1757 000004e4 023d22e4  ||         LDW     .D2T1   *+SP(36),A4       ; |152| 
    1758                    
    1759                            .dwpsn  file "./../packages/ti/vlib/src/VLIB_updateEWRVarianceS32/VLIB_updateEWRVarianceS32_d.
    1760                    $C$RL34:   ; CALL OCCURS {VLIB_free} {0}     ; |152| 
TMS320C6x Assembler PC v7.4.2 Thu Mar 19 12:45:04 2015

Tools Copyright (c) 1996-2012 Texas Instruments Incorporated
package/lib/Regression/regress_d_c/./../packages/ti/vlib/src/VLIB_updateEWRVarianceS32/VLIB_updateEWRVarianceS32_d.se66 PAGE   33

    1761                    $C$DW$163       .dwtag  DW_TAG_TI_branch
    1762                            .dwattr $C$DW$163, DW_AT_low_pc(0x00)
    1763                            .dwattr $C$DW$163, DW_AT_name("VLIB_free")
    1764                            .dwattr $C$DW$163, DW_AT_TI_call
    1765                    
    1766 000004e8 10000013!            CALLP   .S2     VLIB_free,B3
    1767 000004ec 023d02e4  ||         LDW     .D2T1   *+SP(32),A4       ; |153| 
    1768                    
    1769                            .dwpsn  file "./../packages/ti/vlib/src/VLIB_updateEWRVarianceS32/VLIB_updateEWRVarianceS32_d.
    1770                    $C$RL35:   ; CALL OCCURS {VLIB_free} {0}     ; |153| 
    1771                    $C$DW$164       .dwtag  DW_TAG_TI_branch
    1772                            .dwattr $C$DW$164, DW_AT_low_pc(0x00)
    1773                            .dwattr $C$DW$164, DW_AT_name("free")
    1774                            .dwattr $C$DW$164, DW_AT_TI_call
    1775                    
    1776 000004f0 10000013!            CALLP   .S2     free,B3
    1777 000004f4 023ce2e4  ||         LDW     .D2T1   *+SP(28),A4       ; |154| 
    1778                    
    1779                            .dwpsn  file "./../packages/ti/vlib/src/VLIB_updateEWRVarianceS32/VLIB_updateEWRVarianceS32_d.
    1780                    $C$RL36:   ; CALL OCCURS {free} {0}          ; |154| 
    1781                    $C$DW$165       .dwtag  DW_TAG_TI_branch
    1782                            .dwattr $C$DW$165, DW_AT_low_pc(0x00)
    1783                            .dwattr $C$DW$165, DW_AT_name("VLIB_free")
    1784                            .dwattr $C$DW$165, DW_AT_TI_call
    1785                    
    1786 000004f8 10000013!            CALLP   .S2     VLIB_free,B3
    1787 000004fc 023cc2e4  ||         LDW     .D2T1   *+SP(24),A4       ; |155| 
    1788                    
    1789                            .dwpsn  file "./../packages/ti/vlib/src/VLIB_updateEWRVarianceS32/VLIB_updateEWRVarianceS32_d.
    1790 00000500           $C$RL37:   ; CALL OCCURS {VLIB_free} {0}     ; |155| 
    1791 00000500           $C$DW$L$VLIB_updateEWRVarianceS32_d$29$E:
    1792                    ;** --------------------------------------------------------------------------*
    1793 00000500           $C$DW$L$VLIB_updateEWRVarianceS32_d$30$B:
    1794                    ;          EXCLUSIVE CPU CYCLES: 14
    1795 00000500 01800028!            MVKL    .S1     test_cases,A3
    1796 00000504 01800068!            MVKH    .S1     test_cases,A3
    1797                            .dwpsn  file "./../packages/ti/vlib/src/VLIB_updateEWRVarianceS32/VLIB_updateEWRVarianceS32_d.
    1798 00000508 018c0264             LDW     .D1T1   *A3,A3            ; |54| 
    1799 0000050c 06001052             ADDK    .S2     32,B12            ; |54| 
    1800 00000510 06b42058             ADD     .L1     1,A13,A13         ; |54| 
    1801                            .dwpsn  file "./../packages/ti/vlib/src/VLIB_updateEWRVarianceS32/VLIB_updateEWRVarianceS32_d.
    1802 00000514 05801050             ADDK    .S1     32,A11            ; |61| 
    1803 00000518 00000000             NOP             1
    1804                            .dwpsn  file "./../packages/ti/vlib/src/VLIB_updateEWRVarianceS32/VLIB_updateEWRVarianceS32_d.
    1805 0000051c 003468f8             CMPGT   .L1     A3,A13,A0         ; |54| 
    1806                    
    1807 00000520 ced38121     [ A0]   BNOP    .S1     $C$L1,4           ; |54| 
    1808 00000524 c52ce264  || [ A0]   LDW     .D1T1   *+A11(28),A10     ; |61| 
    1809                    
    1810                            .dwpsn  file "./../packages/ti/vlib/src/VLIB_updateEWRVarianceS32/VLIB_updateEWRVarianceS32_d.
    1811 00000528 02280fd8             MV      .L1     A10,A4            ; |64| 
    1812                            .dwpsn  file "./../packages/ti/vlib/src/VLIB_updateEWRVarianceS32/VLIB_updateEWRVarianceS32_d.
    1813                               ; BRANCHCC OCCURS {$C$L1}         ; |54| 
    1814 0000052c           $C$DW$L$VLIB_updateEWRVarianceS32_d$30$E:
    1815                    ;** --------------------------------------------------------------------------*
TMS320C6x Assembler PC v7.4.2 Thu Mar 19 12:45:04 2015

Tools Copyright (c) 1996-2012 Texas Instruments Incorporated
package/lib/Regression/regress_d_c/./../packages/ti/vlib/src/VLIB_updateEWRVarianceS32/VLIB_updateEWRVarianceS32_d.se66 PAGE   34

    1816 0000052c           $C$L9:    
    1817                    ;          EXCLUSIVE CPU CYCLES: 8
    1818                    ;**     -----------------------g16:
    1819                    ;** 159 -----------------------    VLIB_profile_cycle_report(2, "N = pixelCount", "pixelCount");
    1820                    ;** 158 -----------------------    printf((const char *)"---------------------------------------------
    1821                    ;** 165 -----------------------    VLIB_stack_memory();  // [19]
    1822                    ;**     -----------------------    return;
    1823 0000052c 0200002a!            MVKL    .S2     $C$SL5+0,B4
    1824                    
    1825 00000530 03000029!            MVKL    .S1     $C$SL4+0,A6
    1826 00000534 0200006a! ||         MVKH    .S2     $C$SL5+0,B4
    1827                    
    1828                    $C$DW$166       .dwtag  DW_TAG_TI_branch
    1829                            .dwattr $C$DW$166, DW_AT_low_pc(0x00)
    1830                            .dwattr $C$DW$166, DW_AT_name("VLIB_profile_cycle_report")
    1831                            .dwattr $C$DW$166, DW_AT_TI_call
    1832                    
    1833 00000538 10000013!            CALLP   .S2     VLIB_profile_cycle_report,B3
    1834 0000053c 03000069! ||         MVKH    .S1     $C$SL4+0,A6
    1835 00000540 0208a358  ||         MVK     .L1     0x2,A4            ; |159| 
    1836                    
    1837                            .dwpsn  file "./../packages/ti/vlib/src/VLIB_updateEWRVarianceS32/VLIB_updateEWRVarianceS32_d.
    1838 00000544           $C$RL38:   ; CALL OCCURS {VLIB_profile_cycle_report} {0}  ; |159| 
    1839                    ;** --------------------------------------------------------------------------*
    1840                    ;          EXCLUSIVE CPU CYCLES: 14
    1841 00000544 0200002a!            MVKL    .S2     $C$SL6+0,B4
    1842 00000548 0200006a!            MVKH    .S2     $C$SL6+0,B4
    1843                    $C$DW$167       .dwtag  DW_TAG_TI_branch
    1844                            .dwattr $C$DW$167, DW_AT_low_pc(0x00)
    1845                            .dwattr $C$DW$167, DW_AT_name("printf")
    1846                            .dwattr $C$DW$167, DW_AT_TI_call
    1847                    
    1848 0000054c 10000013!            CALLP   .S2     printf,B3
    1849 00000550 023c22f6  ||         STW     .D2T2   B4,*+SP(4)        ; |158| 
    1850                    
    1851                            .dwpsn  file ".\..\packages\ti\vlib\src\VLIB_updateEWRVarianceS32\../common/VLIB_memory.h",lin
    1852                    $C$RL39:   ; CALL OCCURS {printf} {0}        ; |158| 
    1853                    $C$DW$168       .dwtag  DW_TAG_TI_branch
    1854                            .dwattr $C$DW$168, DW_AT_low_pc(0x00)
    1855                            .dwattr $C$DW$168, DW_AT_name("VLIB_stack_memory")
    1856                            .dwattr $C$DW$168, DW_AT_TI_call
    1857 00000554 10000012!            CALLP   .S2     VLIB_stack_memory,B3
    1858                            .dwpsn  file ".\..\packages\ti\vlib\src\VLIB_updateEWRVarianceS32\../common/VLIB_memory.h",lin
    1859 00000558           $C$RL40:   ; CALL OCCURS {VLIB_stack_memory} {0}  ; |165| 
    1860                    ;** --------------------------------------------------------------------------*
    1861                    ;          EXCLUSIVE CPU CYCLES: 13
    1862                            .dwpsn  file "./../packages/ti/vlib/src/VLIB_updateEWRVarianceS32/VLIB_updateEWRVarianceS32_d.
    1863 00000558 01bd92e6             LDW     .D2T2   *++SP(48),B3      ; |165| 
    1864                            .dwcfi  cfa_offset, 48
    1865                            .dwcfi  restore_reg, 19
    1866 0000055c 063c33e4             LDDW    .D2T1   *++SP,A13:A12
    1867                            .dwcfi  cfa_offset, 40
    1868                            .dwcfi  restore_reg, 13
    1869                            .dwcfi  restore_reg, 12
    1870 00000560 073c33e4             LDDW    .D2T1   *++SP,A15:A14
TMS320C6x Assembler PC v7.4.2 Thu Mar 19 12:45:04 2015

Tools Copyright (c) 1996-2012 Texas Instruments Incorporated
package/lib/Regression/regress_d_c/./../packages/ti/vlib/src/VLIB_updateEWRVarianceS32/VLIB_updateEWRVarianceS32_d.se66 PAGE   35

    1871                            .dwcfi  cfa_offset, 32
    1872                            .dwcfi  restore_reg, 15
    1873                            .dwcfi  restore_reg, 14
    1874 00000564 053c33e6             LDDW    .D2T2   *++SP,B11:B10
    1875                            .dwcfi  cfa_offset, 24
    1876                            .dwcfi  restore_reg, 27
    1877                            .dwcfi  restore_reg, 26
    1878 00000568 063c33e6             LDDW    .D2T2   *++SP,B13:B12
    1879                            .dwcfi  cfa_offset, 16
    1880                            .dwcfi  restore_reg, 29
    1881                            .dwcfi  restore_reg, 28
    1882 0000056c 053c52e4             LDW     .D2T1   *++SP(8),A10
    1883                            .dwcfi  cfa_offset, 8
    1884                            .dwcfi  restore_reg, 10
    1885 00000570 05bc52e4             LDW     .D2T1   *++SP(8),A11      ; |165| 
    1886                            .dwcfi  cfa_offset, 0
    1887                            .dwcfi  restore_reg, 11
    1888                            .dwcfi  cfa_offset, 0
    1889                    $C$DW$169       .dwtag  DW_TAG_TI_branch
    1890                            .dwattr $C$DW$169, DW_AT_low_pc(0x00)
    1891                            .dwattr $C$DW$169, DW_AT_TI_return
    1892 00000574 008ca362             RETNOP  .S2     B3,5
    1893                               ; BRANCH OCCURS {B3}  
    1894                    
    1895                    $C$DW$170       .dwtag  DW_TAG_TI_loop
    1896                            .dwattr $C$DW$170, DW_AT_name("c:\nightlybuilds\vlib\ti\vlib\vlib\examples\package/lib/Regress
    1897                            .dwattr $C$DW$170, DW_AT_TI_begin_file("./../packages/ti/vlib/src/VLIB_updateEWRVarianceS32/VL
    1898                            .dwattr $C$DW$170, DW_AT_TI_begin_line(0x36)
    1899                            .dwattr $C$DW$170, DW_AT_TI_end_line(0x9c)
    1900                    $C$DW$171       .dwtag  DW_TAG_TI_loop_range
    1901                            .dwattr $C$DW$171, DW_AT_low_pc($C$DW$L$VLIB_updateEWRVarianceS32_d$5$B)
    1902                            .dwattr $C$DW$171, DW_AT_high_pc($C$DW$L$VLIB_updateEWRVarianceS32_d$5$E)
    1903                    $C$DW$172       .dwtag  DW_TAG_TI_loop_range
    1904                            .dwattr $C$DW$172, DW_AT_low_pc($C$DW$L$VLIB_updateEWRVarianceS32_d$26$B)
    1905                            .dwattr $C$DW$172, DW_AT_high_pc($C$DW$L$VLIB_updateEWRVarianceS32_d$26$E)
    1906                    $C$DW$173       .dwtag  DW_TAG_TI_loop_range
    1907                            .dwattr $C$DW$173, DW_AT_low_pc($C$DW$L$VLIB_updateEWRVarianceS32_d$21$B)
    1908                            .dwattr $C$DW$173, DW_AT_high_pc($C$DW$L$VLIB_updateEWRVarianceS32_d$21$E)
    1909                    $C$DW$174       .dwtag  DW_TAG_TI_loop_range
    1910                            .dwattr $C$DW$174, DW_AT_low_pc($C$DW$L$VLIB_updateEWRVarianceS32_d$6$B)
    1911                            .dwattr $C$DW$174, DW_AT_high_pc($C$DW$L$VLIB_updateEWRVarianceS32_d$6$E)
    1912                    $C$DW$175       .dwtag  DW_TAG_TI_loop_range
    1913                            .dwattr $C$DW$175, DW_AT_low_pc($C$DW$L$VLIB_updateEWRVarianceS32_d$7$B)
    1914                            .dwattr $C$DW$175, DW_AT_high_pc($C$DW$L$VLIB_updateEWRVarianceS32_d$7$E)
    1915                    $C$DW$176       .dwtag  DW_TAG_TI_loop_range
    1916                            .dwattr $C$DW$176, DW_AT_low_pc($C$DW$L$VLIB_updateEWRVarianceS32_d$8$B)
    1917                            .dwattr $C$DW$176, DW_AT_high_pc($C$DW$L$VLIB_updateEWRVarianceS32_d$8$E)
    1918                    $C$DW$177       .dwtag  DW_TAG_TI_loop_range
    1919                            .dwattr $C$DW$177, DW_AT_low_pc($C$DW$L$VLIB_updateEWRVarianceS32_d$9$B)
    1920                            .dwattr $C$DW$177, DW_AT_high_pc($C$DW$L$VLIB_updateEWRVarianceS32_d$9$E)
    1921                    $C$DW$178       .dwtag  DW_TAG_TI_loop_range
    1922                            .dwattr $C$DW$178, DW_AT_low_pc($C$DW$L$VLIB_updateEWRVarianceS32_d$10$B)
    1923                            .dwattr $C$DW$178, DW_AT_high_pc($C$DW$L$VLIB_updateEWRVarianceS32_d$10$E)
    1924                    $C$DW$179       .dwtag  DW_TAG_TI_loop_range
    1925                            .dwattr $C$DW$179, DW_AT_low_pc($C$DW$L$VLIB_updateEWRVarianceS32_d$11$B)
TMS320C6x Assembler PC v7.4.2 Thu Mar 19 12:45:04 2015

Tools Copyright (c) 1996-2012 Texas Instruments Incorporated
package/lib/Regression/regress_d_c/./../packages/ti/vlib/src/VLIB_updateEWRVarianceS32/VLIB_updateEWRVarianceS32_d.se66 PAGE   36

    1926                            .dwattr $C$DW$179, DW_AT_high_pc($C$DW$L$VLIB_updateEWRVarianceS32_d$11$E)
    1927                    $C$DW$180       .dwtag  DW_TAG_TI_loop_range
    1928                            .dwattr $C$DW$180, DW_AT_low_pc($C$DW$L$VLIB_updateEWRVarianceS32_d$12$B)
    1929                            .dwattr $C$DW$180, DW_AT_high_pc($C$DW$L$VLIB_updateEWRVarianceS32_d$12$E)
    1930                    $C$DW$181       .dwtag  DW_TAG_TI_loop_range
    1931                            .dwattr $C$DW$181, DW_AT_low_pc($C$DW$L$VLIB_updateEWRVarianceS32_d$13$B)
    1932                            .dwattr $C$DW$181, DW_AT_high_pc($C$DW$L$VLIB_updateEWRVarianceS32_d$13$E)
    1933                    $C$DW$182       .dwtag  DW_TAG_TI_loop_range
    1934                            .dwattr $C$DW$182, DW_AT_low_pc($C$DW$L$VLIB_updateEWRVarianceS32_d$14$B)
    1935                            .dwattr $C$DW$182, DW_AT_high_pc($C$DW$L$VLIB_updateEWRVarianceS32_d$14$E)
    1936                    $C$DW$183       .dwtag  DW_TAG_TI_loop_range
    1937                            .dwattr $C$DW$183, DW_AT_low_pc($C$DW$L$VLIB_updateEWRVarianceS32_d$15$B)
    1938                            .dwattr $C$DW$183, DW_AT_high_pc($C$DW$L$VLIB_updateEWRVarianceS32_d$15$E)
    1939                    $C$DW$184       .dwtag  DW_TAG_TI_loop_range
    1940                            .dwattr $C$DW$184, DW_AT_low_pc($C$DW$L$VLIB_updateEWRVarianceS32_d$16$B)
    1941                            .dwattr $C$DW$184, DW_AT_high_pc($C$DW$L$VLIB_updateEWRVarianceS32_d$16$E)
    1942                    $C$DW$185       .dwtag  DW_TAG_TI_loop_range
    1943                            .dwattr $C$DW$185, DW_AT_low_pc($C$DW$L$VLIB_updateEWRVarianceS32_d$17$B)
    1944                            .dwattr $C$DW$185, DW_AT_high_pc($C$DW$L$VLIB_updateEWRVarianceS32_d$17$E)
    1945                    $C$DW$186       .dwtag  DW_TAG_TI_loop_range
    1946                            .dwattr $C$DW$186, DW_AT_low_pc($C$DW$L$VLIB_updateEWRVarianceS32_d$18$B)
    1947                            .dwattr $C$DW$186, DW_AT_high_pc($C$DW$L$VLIB_updateEWRVarianceS32_d$18$E)
    1948                    $C$DW$187       .dwtag  DW_TAG_TI_loop_range
    1949                            .dwattr $C$DW$187, DW_AT_low_pc($C$DW$L$VLIB_updateEWRVarianceS32_d$19$B)
    1950                            .dwattr $C$DW$187, DW_AT_high_pc($C$DW$L$VLIB_updateEWRVarianceS32_d$19$E)
    1951                    $C$DW$188       .dwtag  DW_TAG_TI_loop_range
    1952                            .dwattr $C$DW$188, DW_AT_low_pc($C$DW$L$VLIB_updateEWRVarianceS32_d$20$B)
    1953                            .dwattr $C$DW$188, DW_AT_high_pc($C$DW$L$VLIB_updateEWRVarianceS32_d$20$E)
    1954                    $C$DW$189       .dwtag  DW_TAG_TI_loop_range
    1955                            .dwattr $C$DW$189, DW_AT_low_pc($C$DW$L$VLIB_updateEWRVarianceS32_d$22$B)
    1956                            .dwattr $C$DW$189, DW_AT_high_pc($C$DW$L$VLIB_updateEWRVarianceS32_d$22$E)
    1957                    $C$DW$190       .dwtag  DW_TAG_TI_loop_range
    1958                            .dwattr $C$DW$190, DW_AT_low_pc($C$DW$L$VLIB_updateEWRVarianceS32_d$23$B)
    1959                            .dwattr $C$DW$190, DW_AT_high_pc($C$DW$L$VLIB_updateEWRVarianceS32_d$23$E)
    1960                    $C$DW$191       .dwtag  DW_TAG_TI_loop_range
    1961                            .dwattr $C$DW$191, DW_AT_low_pc($C$DW$L$VLIB_updateEWRVarianceS32_d$24$B)
    1962                            .dwattr $C$DW$191, DW_AT_high_pc($C$DW$L$VLIB_updateEWRVarianceS32_d$24$E)
    1963                    $C$DW$192       .dwtag  DW_TAG_TI_loop_range
    1964                            .dwattr $C$DW$192, DW_AT_low_pc($C$DW$L$VLIB_updateEWRVarianceS32_d$25$B)
    1965                            .dwattr $C$DW$192, DW_AT_high_pc($C$DW$L$VLIB_updateEWRVarianceS32_d$25$E)
    1966                    $C$DW$193       .dwtag  DW_TAG_TI_loop_range
    1967                            .dwattr $C$DW$193, DW_AT_low_pc($C$DW$L$VLIB_updateEWRVarianceS32_d$27$B)
    1968                            .dwattr $C$DW$193, DW_AT_high_pc($C$DW$L$VLIB_updateEWRVarianceS32_d$27$E)
    1969                    $C$DW$194       .dwtag  DW_TAG_TI_loop_range
    1970                            .dwattr $C$DW$194, DW_AT_low_pc($C$DW$L$VLIB_updateEWRVarianceS32_d$28$B)
    1971                            .dwattr $C$DW$194, DW_AT_high_pc($C$DW$L$VLIB_updateEWRVarianceS32_d$28$E)
    1972                    $C$DW$195       .dwtag  DW_TAG_TI_loop_range
    1973                            .dwattr $C$DW$195, DW_AT_low_pc($C$DW$L$VLIB_updateEWRVarianceS32_d$29$B)
    1974                            .dwattr $C$DW$195, DW_AT_high_pc($C$DW$L$VLIB_updateEWRVarianceS32_d$29$E)
    1975                    $C$DW$196       .dwtag  DW_TAG_TI_loop_range
    1976                            .dwattr $C$DW$196, DW_AT_low_pc($C$DW$L$VLIB_updateEWRVarianceS32_d$30$B)
    1977                            .dwattr $C$DW$196, DW_AT_high_pc($C$DW$L$VLIB_updateEWRVarianceS32_d$30$E)
    1978                            .dwendtag $C$DW$170
    1979                    
    1980                            .dwattr $C$DW$93, DW_AT_TI_end_file("./../packages/ti/vlib/src/VLIB_updateEWRVarianceS32/VLIB_
TMS320C6x Assembler PC v7.4.2 Thu Mar 19 12:45:04 2015

Tools Copyright (c) 1996-2012 Texas Instruments Incorporated
package/lib/Regression/regress_d_c/./../packages/ti/vlib/src/VLIB_updateEWRVarianceS32/VLIB_updateEWRVarianceS32_d.se66 PAGE   37

    1981                            .dwattr $C$DW$93, DW_AT_TI_end_line(0xa5)
    1982                            .dwattr $C$DW$93, DW_AT_TI_end_column(0x01)
    1983                            .dwendentry
    1984                            .dwendtag $C$DW$93
    1985                    
    1986                    ;; Inlined function references:
    1987                    ;; [ 15] VLIB_profile_start
    1988                    ;; [ 16] VLIB_profile_stop
    1989                    ;; [ 19] VLIB_kernel_memory
    1990                    ;******************************************************************************
    1991                    ;* STRINGS                                                                    *
    1992                    ;******************************************************************************
    1993 00000000                   .sect   ".const:.string"
    1994 00000000 00000056  $C$SL1: .string "VLIB_updateEWRVarianceS32",0
         00000001 0000004C 
         00000002 00000049 
         00000003 00000042 
         00000004 0000005F 
         00000005 00000075 
         00000006 00000070 
         00000007 00000064 
         00000008 00000061 
         00000009 00000074 
         0000000a 00000065 
         0000000b 00000045 
         0000000c 00000057 
         0000000d 00000052 
         0000000e 00000056 
         0000000f 00000061 
         00000010 00000072 
         00000011 00000069 
         00000012 00000061 
         00000013 0000006E 
         00000014 00000063 
         00000015 00000065 
         00000016 00000053 
         00000017 00000033 
         00000018 00000032 
         00000019 00000000 
    1995 0000001a 00000025  $C$SL2: .string "%s generated input | Opt results compared to NatC results |"
         0000001b 00000073 
         0000001c 00000020 
         0000001d 00000067 
         0000001e 00000065 
         0000001f 0000006E 
         00000020 00000065 
         00000021 00000072 
         00000022 00000061 
         00000023 00000074 
         00000024 00000065 
         00000025 00000064 
         00000026 00000020 
         00000027 00000069 
         00000028 0000006E 
         00000029 00000070 
TMS320C6x Assembler PC v7.4.2 Thu Mar 19 12:45:04 2015

Tools Copyright (c) 1996-2012 Texas Instruments Incorporated
package/lib/Regression/regress_d_c/./../packages/ti/vlib/src/VLIB_updateEWRVarianceS32/VLIB_updateEWRVarianceS32_d.se66 PAGE   38

         0000002a 00000075 
         0000002b 00000074 
         0000002c 00000020 
         0000002d 0000007C 
         0000002e 00000020 
         0000002f 0000004F 
         00000030 00000070 
         00000031 00000074 
         00000032 00000020 
         00000033 00000072 
         00000034 00000065 
         00000035 00000073 
         00000036 00000075 
         00000037 0000006C 
         00000038 00000074 
         00000039 00000073 
         0000003a 00000020 
         0000003b 00000063 
         0000003c 0000006F 
         0000003d 0000006D 
         0000003e 00000070 
         0000003f 00000061 
         00000040 00000072 
         00000041 00000065 
         00000042 00000064 
         00000043 00000020 
         00000044 00000074 
         00000045 0000006F 
         00000046 00000020 
         00000047 0000004E 
         00000048 00000061 
         00000049 00000074 
         0000004a 00000043 
         0000004b 00000020 
         0000004c 00000072 
         0000004d 00000065 
         0000004e 00000073 
         0000004f 00000075 
         00000050 0000006C 
         00000051 00000074 
         00000052 00000073 
         00000053 00000020 
         00000054 0000007C 
    1996 00000055 00000020          .string " pixelCount=%d",0
         00000056 00000070 
         00000057 00000069 
         00000058 00000078 
         00000059 00000065 
         0000005a 0000006C 
         0000005b 00000043 
         0000005c 0000006F 
         0000005d 00000075 
         0000005e 0000006E 
         0000005f 00000074 
         00000060 0000003D 
TMS320C6x Assembler PC v7.4.2 Thu Mar 19 12:45:04 2015

Tools Copyright (c) 1996-2012 Texas Instruments Incorporated
package/lib/Regression/regress_d_c/./../packages/ti/vlib/src/VLIB_updateEWRVarianceS32/VLIB_updateEWRVarianceS32_d.se66 PAGE   39

         00000061 00000025 
         00000062 00000064 
         00000063 00000000 
    1997 00000064 00000070  $C$SL3: .string "pixelCount=%d",0
         00000065 00000069 
         00000066 00000078 
         00000067 00000065 
         00000068 0000006C 
         00000069 00000043 
         0000006a 0000006F 
         0000006b 00000075 
         0000006c 0000006E 
         0000006d 00000074 
         0000006e 0000003D 
         0000006f 00000025 
         00000070 00000064 
         00000071 00000000 
    1998 00000072 00000070  $C$SL4: .string "pixelCount",0
         00000073 00000069 
         00000074 00000078 
         00000075 00000065 
         00000076 0000006C 
         00000077 00000043 
         00000078 0000006F 
         00000079 00000075 
         0000007a 0000006E 
         0000007b 00000074 
         0000007c 00000000 
    1999 0000007d 0000004E  $C$SL5: .string "N = pixelCount",0
         0000007e 00000020 
         0000007f 0000003D 
         00000080 00000020 
         00000081 00000070 
         00000082 00000069 
         00000083 00000078 
         00000084 00000065 
         00000085 0000006C 
         00000086 00000043 
         00000087 0000006F 
         00000088 00000075 
         00000089 0000006E 
         0000008a 00000074 
         0000008b 00000000 
    2000 0000008c 0000002D  $C$SL6: .string "-----------------------------------------------------------"
         0000008d 0000002D 
         0000008e 0000002D 
         0000008f 0000002D 
         00000090 0000002D 
         00000091 0000002D 
         00000092 0000002D 
         00000093 0000002D 
         00000094 0000002D 
         00000095 0000002D 
         00000096 0000002D 
         00000097 0000002D 
TMS320C6x Assembler PC v7.4.2 Thu Mar 19 12:45:04 2015

Tools Copyright (c) 1996-2012 Texas Instruments Incorporated
package/lib/Regression/regress_d_c/./../packages/ti/vlib/src/VLIB_updateEWRVarianceS32/VLIB_updateEWRVarianceS32_d.se66 PAGE   40

         00000098 0000002D 
         00000099 0000002D 
         0000009a 0000002D 
         0000009b 0000002D 
         0000009c 0000002D 
         0000009d 0000002D 
         0000009e 0000002D 
         0000009f 0000002D 
         000000a0 0000002D 
         000000a1 0000002D 
         000000a2 0000002D 
         000000a3 0000002D 
         000000a4 0000002D 
         000000a5 0000002D 
         000000a6 0000002D 
         000000a7 0000002D 
         000000a8 0000002D 
         000000a9 0000002D 
         000000aa 0000002D 
         000000ab 0000002D 
         000000ac 0000002D 
         000000ad 0000002D 
         000000ae 0000002D 
         000000af 0000002D 
         000000b0 0000002D 
         000000b1 0000002D 
         000000b2 0000002D 
         000000b3 0000002D 
         000000b4 0000002D 
         000000b5 0000002D 
         000000b6 0000002D 
         000000b7 0000002D 
         000000b8 0000002D 
         000000b9 0000002D 
         000000ba 0000002D 
         000000bb 0000002D 
         000000bc 0000002D 
         000000bd 0000002D 
         000000be 0000002D 
         000000bf 0000002D 
         000000c0 0000002D 
         000000c1 0000002D 
         000000c2 0000002D 
         000000c3 0000002D 
         000000c4 0000002D 
         000000c5 0000002D 
         000000c6 0000002D 
    2001 000000c7 0000002D          .string "-----------------------------------------------------------"
         000000c8 0000002D 
         000000c9 0000002D 
         000000ca 0000002D 
         000000cb 0000002D 
         000000cc 0000002D 
         000000cd 0000002D 
         000000ce 0000002D 
TMS320C6x Assembler PC v7.4.2 Thu Mar 19 12:45:04 2015

Tools Copyright (c) 1996-2012 Texas Instruments Incorporated
package/lib/Regression/regress_d_c/./../packages/ti/vlib/src/VLIB_updateEWRVarianceS32/VLIB_updateEWRVarianceS32_d.se66 PAGE   41

         000000cf 0000002D 
         000000d0 0000002D 
         000000d1 0000002D 
         000000d2 0000002D 
         000000d3 0000002D 
         000000d4 0000002D 
         000000d5 0000002D 
         000000d6 0000002D 
         000000d7 0000002D 
         000000d8 0000002D 
         000000d9 0000002D 
         000000da 0000002D 
         000000db 0000002D 
         000000dc 0000002D 
         000000dd 0000002D 
         000000de 0000002D 
         000000df 0000002D 
         000000e0 0000002D 
         000000e1 0000002D 
         000000e2 0000002D 
         000000e3 0000002D 
         000000e4 0000002D 
         000000e5 0000002D 
         000000e6 0000002D 
         000000e7 0000002D 
         000000e8 0000002D 
         000000e9 0000002D 
         000000ea 0000002D 
         000000eb 0000002D 
         000000ec 0000002D 
         000000ed 0000002D 
         000000ee 0000002D 
         000000ef 0000002D 
         000000f0 0000002D 
         000000f1 0000002D 
         000000f2 0000002D 
         000000f3 0000002D 
         000000f4 0000002D 
         000000f5 0000002D 
         000000f6 0000002D 
         000000f7 0000002D 
         000000f8 0000002D 
         000000f9 0000002D 
         000000fa 0000002D 
         000000fb 0000002D 
         000000fc 0000002D 
         000000fd 0000002D 
         000000fe 0000002D 
         000000ff 0000002D 
         00000100 0000002D 
         00000101 0000002D 
    2002 00000102 0000002D          .string "-----------------------",10,0
         00000103 0000002D 
         00000104 0000002D 
         00000105 0000002D 
TMS320C6x Assembler PC v7.4.2 Thu Mar 19 12:45:04 2015

Tools Copyright (c) 1996-2012 Texas Instruments Incorporated
package/lib/Regression/regress_d_c/./../packages/ti/vlib/src/VLIB_updateEWRVarianceS32/VLIB_updateEWRVarianceS32_d.se66 PAGE   42

         00000106 0000002D 
         00000107 0000002D 
         00000108 0000002D 
         00000109 0000002D 
         0000010a 0000002D 
         0000010b 0000002D 
         0000010c 0000002D 
         0000010d 0000002D 
         0000010e 0000002D 
         0000010f 0000002D 
         00000110 0000002D 
         00000111 0000002D 
         00000112 0000002D 
         00000113 0000002D 
         00000114 0000002D 
         00000115 0000002D 
         00000116 0000002D 
         00000117 0000002D 
         00000118 0000002D 
         00000119 0000000A 
         0000011a 00000000 
    2003                    ;*****************************************************************************
    2004                    ;* UNDEFINED EXTERNAL REFERENCES                                             *
    2005                    ;*****************************************************************************
    2006                            .global printf
    2007                            .global sprintf
    2008                            .global malloc
    2009                            .global free
    2010                            .global VLIB_cache_inval
    2011                            .global VLIB_profile_init
    2012                            .global VLIB_formula_add_test
    2013                            .global VLIB_skip_test
    2014                            .global VLIB_profile_cycle_report
    2015                            .global initStack
    2016                            .global setStackDepth
    2017                            .global getSP
    2018                            .global VLIB_stack_memory
    2019                            .global VLIB_compare_mem
    2020                            .global VLIB_fillBuffer
    2021                            .global VLIB_malloc
    2022                            .global VLIB_free
    2023                            .global VLIB_initMeanWithLumaS32_cn
    2024                            .global VLIB_initVarWithConstS32_cn
    2025                            .global VLIB_updateEWRVarianceS32
    2026                            .global VLIB_updateEWRVarianceS32_cn
    2027                            .global updateEWRVarianceS32_getTestParams
    2028                            .global test_cases
    2029                            .global act_kernel
    2030                            .global desc
    2031                            .global testPatternString
    2032                            .global est_test
    2033                            .global beg_count
    2034                            .global end_count
    2035                            .global overhead
    2036                            .global cycles
TMS320C6x Assembler PC v7.4.2 Thu Mar 19 12:45:04 2015

Tools Copyright (c) 1996-2012 Texas Instruments Incorporated
package/lib/Regression/regress_d_c/./../packages/ti/vlib/src/VLIB_updateEWRVarianceS32/VLIB_updateEWRVarianceS32_d.se66 PAGE   43

    2037                            .global memcpy
    2038                    
    2039                    ;******************************************************************************
    2040                    ;* BUILD ATTRIBUTES                                                           *
    2041                    ;******************************************************************************
    2042                            .battr "TI", Tag_File, 1, Tag_Long_Precision_Bits(2)
    2043                            .battr "TI", Tag_File, 1, Tag_Bitfield_layout(2)
    2044                            .battr "TI", Tag_File, 1, Tag_ABI_enum_size(2)
    2045                            .battr "c6xabi", Tag_File, 1, Tag_ABI_wchar_t(1)
    2046                            .battr "c6xabi", Tag_File, 1, Tag_ABI_array_object_alignment(0)
    2047                            .battr "c6xabi", Tag_File, 1, Tag_ABI_array_object_align_expected(0)
    2048                            .battr "c6xabi", Tag_File, 1, Tag_ABI_PIC(0)
    2049                            .battr "c6xabi", Tag_File, 1, Tag_ABI_PID(0)
    2050                            .battr "c6xabi", Tag_File, 1, Tag_ABI_DSBT(0)
    2051                            .battr "c6xabi", Tag_File, 1, Tag_ABI_stack_align_needed(0)
    2052                            .battr "c6xabi", Tag_File, 1, Tag_ABI_stack_align_preserved(0)
    2053                            .battr "TI", Tag_File, 1, Tag_Tramps_Use_SOC(1)
    2054                    
    2055                    ;******************************************************************************
    2056                    ;* TYPE INFORMATION                                                           *
    2057                    ;******************************************************************************
    2058                    
    2059                    $C$DW$T$38      .dwtag  DW_TAG_enumeration_type
    2060                            .dwattr $C$DW$T$38, DW_AT_byte_size(0x04)
    2061                    $C$DW$197       .dwtag  DW_TAG_enumerator, DW_AT_name("VLIB_NO_ERROR"), DW_AT_const_value(0x00)
    2062                            .dwattr $C$DW$197, DW_AT_decl_file(".\..\packages\ti\vlib\src\VLIB_updateEWRVarianceS32\..\com
    2063                            .dwattr $C$DW$197, DW_AT_decl_line(0x7a)
    2064                            .dwattr $C$DW$197, DW_AT_decl_column(0x05)
    2065                    $C$DW$198       .dwtag  DW_TAG_enumerator, DW_AT_name("VLIB_ERR_INPUT_INVALID"), DW_AT_const_value(0x0
    2066                            .dwattr $C$DW$198, DW_AT_decl_file(".\..\packages\ti\vlib\src\VLIB_updateEWRVarianceS32\..\com
    2067                            .dwattr $C$DW$198, DW_AT_decl_line(0x7b)
    2068                            .dwattr $C$DW$198, DW_AT_decl_column(0x05)
    2069                    $C$DW$199       .dwtag  DW_TAG_enumerator, DW_AT_name("VLIB_ERR_INPUT_NEGATIVE"), DW_AT_const_value(0x
    2070                            .dwattr $C$DW$199, DW_AT_decl_file(".\..\packages\ti\vlib\src\VLIB_updateEWRVarianceS32\..\com
    2071                            .dwattr $C$DW$199, DW_AT_decl_line(0x7c)
    2072                            .dwattr $C$DW$199, DW_AT_decl_column(0x05)
    2073                    $C$DW$200       .dwtag  DW_TAG_enumerator, DW_AT_name("VLIB_ERR_INPUT_EXCEEDED_RANGE"), DW_AT_const_va
    2074                            .dwattr $C$DW$200, DW_AT_decl_file(".\..\packages\ti\vlib\src\VLIB_updateEWRVarianceS32\..\com
    2075                            .dwattr $C$DW$200, DW_AT_decl_line(0x7d)
    2076                            .dwattr $C$DW$200, DW_AT_decl_column(0x05)
    2077                    $C$DW$201       .dwtag  DW_TAG_enumerator, DW_AT_name("VLIB_ERR_MEMORY_EXCEEDED_BOUNDARY"), DW_AT_cons
    2078                            .dwattr $C$DW$201, DW_AT_decl_file(".\..\packages\ti\vlib\src\VLIB_updateEWRVarianceS32\..\com
    2079                            .dwattr $C$DW$201, DW_AT_decl_line(0x7e)
    2080                            .dwattr $C$DW$201, DW_AT_decl_column(0x05)
    2081                    $C$DW$202       .dwtag  DW_TAG_enumerator, DW_AT_name("VLIB_ERR_MEMORY_ALLOCATION_FAILURE"), DW_AT_con
    2082                            .dwattr $C$DW$202, DW_AT_decl_file(".\..\packages\ti\vlib\src\VLIB_updateEWRVarianceS32\..\com
    2083                            .dwattr $C$DW$202, DW_AT_decl_line(0x7f)
    2084                            .dwattr $C$DW$202, DW_AT_decl_column(0x05)
    2085                    $C$DW$203       .dwtag  DW_TAG_enumerator, DW_AT_name("VLIB_ERR_MEMORY_POINTER_NULL"), DW_AT_const_val
    2086                            .dwattr $C$DW$203, DW_AT_decl_file(".\..\packages\ti\vlib\src\VLIB_updateEWRVarianceS32\..\com
    2087                            .dwattr $C$DW$203, DW_AT_decl_line(0x80)
    2088                            .dwattr $C$DW$203, DW_AT_decl_column(0x05)
    2089                    $C$DW$204       .dwtag  DW_TAG_enumerator, DW_AT_name("VLIB_ERR_DMA_FAILURE"), DW_AT_const_value(0x07)
    2090                            .dwattr $C$DW$204, DW_AT_decl_file(".\..\packages\ti\vlib\src\VLIB_updateEWRVarianceS32\..\com
    2091                            .dwattr $C$DW$204, DW_AT_decl_line(0x81)
TMS320C6x Assembler PC v7.4.2 Thu Mar 19 12:45:04 2015

Tools Copyright (c) 1996-2012 Texas Instruments Incorporated
package/lib/Regression/regress_d_c/./../packages/ti/vlib/src/VLIB_updateEWRVarianceS32/VLIB_updateEWRVarianceS32_d.se66 PAGE   44

    2092                            .dwattr $C$DW$204, DW_AT_decl_column(0x05)
    2093                    $C$DW$205       .dwtag  DW_TAG_enumerator, DW_AT_name("VLIB_ERR_FILE_OPEN_FAILURE"), DW_AT_const_value
    2094                            .dwattr $C$DW$205, DW_AT_decl_file(".\..\packages\ti\vlib\src\VLIB_updateEWRVarianceS32\..\com
    2095                            .dwattr $C$DW$205, DW_AT_decl_line(0x82)
    2096                            .dwattr $C$DW$205, DW_AT_decl_column(0x05)
    2097                    $C$DW$206       .dwtag  DW_TAG_enumerator, DW_AT_name("VLIB_ERR_FILE_READ_FAILURE"), DW_AT_const_value
    2098                            .dwattr $C$DW$206, DW_AT_decl_file(".\..\packages\ti\vlib\src\VLIB_updateEWRVarianceS32\..\com
    2099                            .dwattr $C$DW$206, DW_AT_decl_line(0x83)
    2100                            .dwattr $C$DW$206, DW_AT_decl_column(0x05)
    2101                    $C$DW$207       .dwtag  DW_TAG_enumerator, DW_AT_name("VLIB_ERR_FILE_WRITE_FAILURE"), DW_AT_const_valu
    2102                            .dwattr $C$DW$207, DW_AT_decl_file(".\..\packages\ti\vlib\src\VLIB_updateEWRVarianceS32\..\com
    2103                            .dwattr $C$DW$207, DW_AT_decl_line(0x84)
    2104                            .dwattr $C$DW$207, DW_AT_decl_column(0x05)
    2105                    $C$DW$208       .dwtag  DW_TAG_enumerator, DW_AT_name("VLIB_ERR_FILE_CLOSE_FAILURE"), DW_AT_const_valu
    2106                            .dwattr $C$DW$208, DW_AT_decl_file(".\..\packages\ti\vlib\src\VLIB_updateEWRVarianceS32\..\com
    2107                            .dwattr $C$DW$208, DW_AT_decl_line(0x85)
    2108                            .dwattr $C$DW$208, DW_AT_decl_column(0x05)
    2109                    $C$DW$209       .dwtag  DW_TAG_enumerator, DW_AT_name("VLIB_ERR_FILE_FORMAT_FAILURE"), DW_AT_const_val
    2110                            .dwattr $C$DW$209, DW_AT_decl_file(".\..\packages\ti\vlib\src\VLIB_updateEWRVarianceS32\..\com
    2111                            .dwattr $C$DW$209, DW_AT_decl_line(0x86)
    2112                            .dwattr $C$DW$209, DW_AT_decl_column(0x05)
    2113                    $C$DW$210       .dwtag  DW_TAG_enumerator, DW_AT_name("VLIB_WARNING_LOW_MEMORY"), DW_AT_const_value(0x
    2114                            .dwattr $C$DW$210, DW_AT_decl_file(".\..\packages\ti\vlib\src\VLIB_updateEWRVarianceS32\..\com
    2115                            .dwattr $C$DW$210, DW_AT_decl_line(0x87)
    2116                            .dwattr $C$DW$210, DW_AT_decl_column(0x05)
    2117                    $C$DW$211       .dwtag  DW_TAG_enumerator, DW_AT_name("VLIB_ERR_NOT_IMPLEMENTED"), DW_AT_const_value(0
    2118                            .dwattr $C$DW$211, DW_AT_decl_file(".\..\packages\ti\vlib\src\VLIB_updateEWRVarianceS32\..\com
    2119                            .dwattr $C$DW$211, DW_AT_decl_line(0x88)
    2120                            .dwattr $C$DW$211, DW_AT_decl_column(0x05)
    2121                    $C$DW$212       .dwtag  DW_TAG_enumerator, DW_AT_name("VLIB_ERROR_MAX"), DW_AT_const_value(0x0f)
    2122                            .dwattr $C$DW$212, DW_AT_decl_file(".\..\packages\ti\vlib\src\VLIB_updateEWRVarianceS32\..\com
    2123                            .dwattr $C$DW$212, DW_AT_decl_line(0x89)
    2124                            .dwattr $C$DW$212, DW_AT_decl_column(0x05)
    2125                            .dwendtag $C$DW$T$38
    2126                    
    2127                            .dwattr $C$DW$T$38, DW_AT_decl_file(".\..\packages\ti\vlib\src\VLIB_updateEWRVarianceS32\..\co
    2128                            .dwattr $C$DW$T$38, DW_AT_decl_line(0x79)
    2129                            .dwattr $C$DW$T$38, DW_AT_decl_column(0x0e)
    2130                    $C$DW$T$39      .dwtag  DW_TAG_typedef, DW_AT_name("VLIB_STATUS")
    2131                            .dwattr $C$DW$T$39, DW_AT_type(*$C$DW$T$38)
    2132                            .dwattr $C$DW$T$39, DW_AT_language(DW_LANG_C)
    2133                            .dwattr $C$DW$T$39, DW_AT_decl_file(".\..\packages\ti\vlib\src\VLIB_updateEWRVarianceS32\..\co
    2134                            .dwattr $C$DW$T$39, DW_AT_decl_line(0x8a)
    2135                            .dwattr $C$DW$T$39, DW_AT_decl_column(0x03)
    2136                    
    2137                    $C$DW$T$40      .dwtag  DW_TAG_enumeration_type
    2138                            .dwattr $C$DW$T$40, DW_AT_byte_size(0x04)
    2139                    $C$DW$213       .dwtag  DW_TAG_enumerator, DW_AT_name("vlib_KERNEL_OPT"), DW_AT_const_value(0x00)
    2140                            .dwattr $C$DW$213, DW_AT_decl_file(".\..\packages\ti\vlib\src\VLIB_updateEWRVarianceS32\../com
    2141                            .dwattr $C$DW$213, DW_AT_decl_line(0x6a)
    2142                            .dwattr $C$DW$213, DW_AT_decl_column(0x05)
    2143                    $C$DW$214       .dwtag  DW_TAG_enumerator, DW_AT_name("vlib_KERNEL_CN"), DW_AT_const_value(0x01)
    2144                            .dwattr $C$DW$214, DW_AT_decl_file(".\..\packages\ti\vlib\src\VLIB_updateEWRVarianceS32\../com
    2145                            .dwattr $C$DW$214, DW_AT_decl_line(0x6b)
    2146                            .dwattr $C$DW$214, DW_AT_decl_column(0x05)
TMS320C6x Assembler PC v7.4.2 Thu Mar 19 12:45:04 2015

Tools Copyright (c) 1996-2012 Texas Instruments Incorporated
package/lib/Regression/regress_d_c/./../packages/ti/vlib/src/VLIB_updateEWRVarianceS32/VLIB_updateEWRVarianceS32_d.se66 PAGE   45

    2147                    $C$DW$215       .dwtag  DW_TAG_enumerator, DW_AT_name("vlib_KERNEL_CNT"), DW_AT_const_value(0x02)
    2148                            .dwattr $C$DW$215, DW_AT_decl_file(".\..\packages\ti\vlib\src\VLIB_updateEWRVarianceS32\../com
    2149                            .dwattr $C$DW$215, DW_AT_decl_line(0x6c)
    2150                            .dwattr $C$DW$215, DW_AT_decl_column(0x05)
    2151                            .dwendtag $C$DW$T$40
    2152                    
    2153                            .dwattr $C$DW$T$40, DW_AT_decl_file(".\..\packages\ti\vlib\src\VLIB_updateEWRVarianceS32\../co
    2154                            .dwattr $C$DW$T$40, DW_AT_decl_line(0x69)
    2155                            .dwattr $C$DW$T$40, DW_AT_decl_column(0x06)
    2156                    
    2157                    $C$DW$T$41      .dwtag  DW_TAG_enumeration_type
    2158                            .dwattr $C$DW$T$41, DW_AT_byte_size(0x04)
    2159                    $C$DW$216       .dwtag  DW_TAG_enumerator, DW_AT_name("vlib_KERNEL_FAIL"), DW_AT_const_value(0x00)
    2160                            .dwattr $C$DW$216, DW_AT_decl_file(".\..\packages\ti\vlib\src\VLIB_updateEWRVarianceS32\../com
    2161                            .dwattr $C$DW$216, DW_AT_decl_line(0x72)
    2162                            .dwattr $C$DW$216, DW_AT_decl_column(0x05)
    2163                    $C$DW$217       .dwtag  DW_TAG_enumerator, DW_AT_name("vlib_KERNEL_PASS"), DW_AT_const_value(0x01)
    2164                            .dwattr $C$DW$217, DW_AT_decl_file(".\..\packages\ti\vlib\src\VLIB_updateEWRVarianceS32\../com
    2165                            .dwattr $C$DW$217, DW_AT_decl_line(0x73)
    2166                            .dwattr $C$DW$217, DW_AT_decl_column(0x05)
    2167                            .dwendtag $C$DW$T$41
    2168                    
    2169                            .dwattr $C$DW$T$41, DW_AT_decl_file(".\..\packages\ti\vlib\src\VLIB_updateEWRVarianceS32\../co
    2170                            .dwattr $C$DW$T$41, DW_AT_decl_line(0x71)
    2171                            .dwattr $C$DW$T$41, DW_AT_decl_column(0x06)
    2172                    
    2173                    $C$DW$T$25      .dwtag  DW_TAG_structure_type
    2174                            .dwattr $C$DW$T$25, DW_AT_byte_size(0x20)
    2175                    $C$DW$218       .dwtag  DW_TAG_member
    2176                            .dwattr $C$DW$218, DW_AT_type(*$C$DW$T$19)
    2177                            .dwattr $C$DW$218, DW_AT_name("testPattern")
    2178                            .dwattr $C$DW$218, DW_AT_TI_symbol_name("testPattern")
    2179                            .dwattr $C$DW$218, DW_AT_data_member_location[DW_OP_plus_uconst 0x0]
    2180                            .dwattr $C$DW$218, DW_AT_accessibility(DW_ACCESS_public)
    2181                            .dwattr $C$DW$218, DW_AT_decl_file(".\..\packages\ti\vlib\src\VLIB_updateEWRVarianceS32\VLIB_u
    2182                            .dwattr $C$DW$218, DW_AT_decl_line(0x24)
    2183                            .dwattr $C$DW$218, DW_AT_decl_column(0x0f)
    2184                    $C$DW$219       .dwtag  DW_TAG_member
    2185                            .dwattr $C$DW$219, DW_AT_type(*$C$DW$T$20)
    2186                            .dwattr $C$DW$219, DW_AT_name("staticInLuma")
    2187                            .dwattr $C$DW$219, DW_AT_TI_symbol_name("staticInLuma")
    2188                            .dwattr $C$DW$219, DW_AT_data_member_location[DW_OP_plus_uconst 0x4]
    2189                            .dwattr $C$DW$219, DW_AT_accessibility(DW_ACCESS_public)
    2190                            .dwattr $C$DW$219, DW_AT_decl_file(".\..\packages\ti\vlib\src\VLIB_updateEWRVarianceS32\VLIB_u
    2191                            .dwattr $C$DW$219, DW_AT_decl_line(0x25)
    2192                            .dwattr $C$DW$219, DW_AT_decl_column(0x0f)
    2193                    $C$DW$220       .dwtag  DW_TAG_member
    2194                            .dwattr $C$DW$220, DW_AT_type(*$C$DW$T$22)
    2195                            .dwattr $C$DW$220, DW_AT_name("staticInMask")
    2196                            .dwattr $C$DW$220, DW_AT_TI_symbol_name("staticInMask")
    2197                            .dwattr $C$DW$220, DW_AT_data_member_location[DW_OP_plus_uconst 0x8]
    2198                            .dwattr $C$DW$220, DW_AT_accessibility(DW_ACCESS_public)
    2199                            .dwattr $C$DW$220, DW_AT_decl_file(".\..\packages\ti\vlib\src\VLIB_updateEWRVarianceS32\VLIB_u
    2200                            .dwattr $C$DW$220, DW_AT_decl_line(0x26)
    2201                            .dwattr $C$DW$220, DW_AT_decl_column(0x0f)
TMS320C6x Assembler PC v7.4.2 Thu Mar 19 12:45:04 2015

Tools Copyright (c) 1996-2012 Texas Instruments Incorporated
package/lib/Regression/regress_d_c/./../packages/ti/vlib/src/VLIB_updateEWRVarianceS32/VLIB_updateEWRVarianceS32_d.se66 PAGE   46

    2202                    $C$DW$221       .dwtag  DW_TAG_member
    2203                            .dwattr $C$DW$221, DW_AT_type(*$C$DW$T$20)
    2204                            .dwattr $C$DW$221, DW_AT_name("staticInPrevLuma")
    2205                            .dwattr $C$DW$221, DW_AT_TI_symbol_name("staticInPrevLuma")
    2206                            .dwattr $C$DW$221, DW_AT_data_member_location[DW_OP_plus_uconst 0xc]
    2207                            .dwattr $C$DW$221, DW_AT_accessibility(DW_ACCESS_public)
    2208                            .dwattr $C$DW$221, DW_AT_decl_file(".\..\packages\ti\vlib\src\VLIB_updateEWRVarianceS32\VLIB_u
    2209                            .dwattr $C$DW$221, DW_AT_decl_line(0x27)
    2210                            .dwattr $C$DW$221, DW_AT_decl_column(0x0f)
    2211                    $C$DW$222       .dwtag  DW_TAG_member
    2212                            .dwattr $C$DW$222, DW_AT_type(*$C$DW$T$24)
    2213                            .dwattr $C$DW$222, DW_AT_name("staticOutVar")
    2214                            .dwattr $C$DW$222, DW_AT_TI_symbol_name("staticOutVar")
    2215                            .dwattr $C$DW$222, DW_AT_data_member_location[DW_OP_plus_uconst 0x10]
    2216                            .dwattr $C$DW$222, DW_AT_accessibility(DW_ACCESS_public)
    2217                            .dwattr $C$DW$222, DW_AT_decl_file(".\..\packages\ti\vlib\src\VLIB_updateEWRVarianceS32\VLIB_u
    2218                            .dwattr $C$DW$222, DW_AT_decl_line(0x28)
    2219                            .dwattr $C$DW$222, DW_AT_decl_column(0x0f)
    2220                    $C$DW$223       .dwtag  DW_TAG_member
    2221                            .dwattr $C$DW$223, DW_AT_type(*$C$DW$T$23)
    2222                            .dwattr $C$DW$223, DW_AT_name("weight")
    2223                            .dwattr $C$DW$223, DW_AT_TI_symbol_name("weight")
    2224                            .dwattr $C$DW$223, DW_AT_data_member_location[DW_OP_plus_uconst 0x14]
    2225                            .dwattr $C$DW$223, DW_AT_accessibility(DW_ACCESS_public)
    2226                            .dwattr $C$DW$223, DW_AT_decl_file(".\..\packages\ti\vlib\src\VLIB_updateEWRVarianceS32\VLIB_u
    2227                            .dwattr $C$DW$223, DW_AT_decl_line(0x29)
    2228                            .dwattr $C$DW$223, DW_AT_decl_column(0x0f)
    2229                    $C$DW$224       .dwtag  DW_TAG_member
    2230                            .dwattr $C$DW$224, DW_AT_type(*$C$DW$T$23)
    2231                            .dwattr $C$DW$224, DW_AT_name("constant")
    2232                            .dwattr $C$DW$224, DW_AT_TI_symbol_name("constant")
    2233                            .dwattr $C$DW$224, DW_AT_data_member_location[DW_OP_plus_uconst 0x18]
    2234                            .dwattr $C$DW$224, DW_AT_accessibility(DW_ACCESS_public)
    2235                            .dwattr $C$DW$224, DW_AT_decl_file(".\..\packages\ti\vlib\src\VLIB_updateEWRVarianceS32\VLIB_u
    2236                            .dwattr $C$DW$224, DW_AT_decl_line(0x2a)
    2237                            .dwattr $C$DW$224, DW_AT_decl_column(0x0f)
    2238                    $C$DW$225       .dwtag  DW_TAG_member
    2239                            .dwattr $C$DW$225, DW_AT_type(*$C$DW$T$21)
    2240                            .dwattr $C$DW$225, DW_AT_name("pixelCount")
    2241                            .dwattr $C$DW$225, DW_AT_TI_symbol_name("pixelCount")
    2242                            .dwattr $C$DW$225, DW_AT_data_member_location[DW_OP_plus_uconst 0x1c]
    2243                            .dwattr $C$DW$225, DW_AT_accessibility(DW_ACCESS_public)
    2244                            .dwattr $C$DW$225, DW_AT_decl_file(".\..\packages\ti\vlib\src\VLIB_updateEWRVarianceS32\VLIB_u
    2245                            .dwattr $C$DW$225, DW_AT_decl_line(0x2b)
    2246                            .dwattr $C$DW$225, DW_AT_decl_column(0x0f)
    2247                            .dwendtag $C$DW$T$25
    2248                    
    2249                            .dwattr $C$DW$T$25, DW_AT_decl_file(".\..\packages\ti\vlib\src\VLIB_updateEWRVarianceS32\VLIB_
    2250                            .dwattr $C$DW$T$25, DW_AT_decl_line(0x23)
    2251                            .dwattr $C$DW$T$25, DW_AT_decl_column(0x10)
    2252                    $C$DW$T$42      .dwtag  DW_TAG_pointer_type
    2253                            .dwattr $C$DW$T$42, DW_AT_type(*$C$DW$T$25)
    2254                            .dwattr $C$DW$T$42, DW_AT_address_class(0x20)
    2255                    $C$DW$T$44      .dwtag  DW_TAG_typedef, DW_AT_name("updateEWRVarianceS32_testParams_t")
    2256                            .dwattr $C$DW$T$44, DW_AT_type(*$C$DW$T$25)
TMS320C6x Assembler PC v7.4.2 Thu Mar 19 12:45:04 2015

Tools Copyright (c) 1996-2012 Texas Instruments Incorporated
package/lib/Regression/regress_d_c/./../packages/ti/vlib/src/VLIB_updateEWRVarianceS32/VLIB_updateEWRVarianceS32_d.se66 PAGE   47

    2257                            .dwattr $C$DW$T$44, DW_AT_language(DW_LANG_C)
    2258                            .dwattr $C$DW$T$44, DW_AT_decl_file(".\..\packages\ti\vlib\src\VLIB_updateEWRVarianceS32\VLIB_
    2259                            .dwattr $C$DW$T$44, DW_AT_decl_line(0x2c)
    2260                            .dwattr $C$DW$T$44, DW_AT_decl_column(0x03)
    2261                    $C$DW$T$45      .dwtag  DW_TAG_pointer_type
    2262                            .dwattr $C$DW$T$45, DW_AT_type(*$C$DW$T$44)
    2263                            .dwattr $C$DW$T$45, DW_AT_address_class(0x20)
    2264                    $C$DW$T$46      .dwtag  DW_TAG_pointer_type
    2265                            .dwattr $C$DW$T$46, DW_AT_type(*$C$DW$T$45)
    2266                            .dwattr $C$DW$T$46, DW_AT_address_class(0x20)
    2267                    
    2268                    $C$DW$T$27      .dwtag  DW_TAG_structure_type
    2269                            .dwattr $C$DW$T$27, DW_AT_byte_size(0x18)
    2270                    $C$DW$226       .dwtag  DW_TAG_member
    2271                            .dwattr $C$DW$226, DW_AT_type(*$C$DW$T$10)
    2272                            .dwattr $C$DW$226, DW_AT_name("fd")
    2273                            .dwattr $C$DW$226, DW_AT_TI_symbol_name("fd")
    2274                            .dwattr $C$DW$226, DW_AT_data_member_location[DW_OP_plus_uconst 0x0]
    2275                            .dwattr $C$DW$226, DW_AT_accessibility(DW_ACCESS_public)
    2276                            .dwattr $C$DW$226, DW_AT_decl_file("C:/VLIB_Tools/CCSV5_4_0/ccsv5/tools/compiler/C6000/include
    2277                            .dwattr $C$DW$226, DW_AT_decl_line(0x49)
    2278                            .dwattr $C$DW$226, DW_AT_decl_column(0x0b)
    2279                    $C$DW$227       .dwtag  DW_TAG_member
    2280                            .dwattr $C$DW$227, DW_AT_type(*$C$DW$T$26)
    2281                            .dwattr $C$DW$227, DW_AT_name("buf")
    2282                            .dwattr $C$DW$227, DW_AT_TI_symbol_name("buf")
    2283                            .dwattr $C$DW$227, DW_AT_data_member_location[DW_OP_plus_uconst 0x4]
    2284                            .dwattr $C$DW$227, DW_AT_accessibility(DW_ACCESS_public)
    2285                            .dwattr $C$DW$227, DW_AT_decl_file("C:/VLIB_Tools/CCSV5_4_0/ccsv5/tools/compiler/C6000/include
    2286                            .dwattr $C$DW$227, DW_AT_decl_line(0x4a)
    2287                            .dwattr $C$DW$227, DW_AT_decl_column(0x16)
    2288                    $C$DW$228       .dwtag  DW_TAG_member
    2289                            .dwattr $C$DW$228, DW_AT_type(*$C$DW$T$26)
    2290                            .dwattr $C$DW$228, DW_AT_name("pos")
    2291                            .dwattr $C$DW$228, DW_AT_TI_symbol_name("pos")
    2292                            .dwattr $C$DW$228, DW_AT_data_member_location[DW_OP_plus_uconst 0x8]
    2293                            .dwattr $C$DW$228, DW_AT_accessibility(DW_ACCESS_public)
    2294                            .dwattr $C$DW$228, DW_AT_decl_file("C:/VLIB_Tools/CCSV5_4_0/ccsv5/tools/compiler/C6000/include
    2295                            .dwattr $C$DW$228, DW_AT_decl_line(0x4b)
    2296                            .dwattr $C$DW$228, DW_AT_decl_column(0x16)
    2297                    $C$DW$229       .dwtag  DW_TAG_member
    2298                            .dwattr $C$DW$229, DW_AT_type(*$C$DW$T$26)
    2299                            .dwattr $C$DW$229, DW_AT_name("bufend")
    2300                            .dwattr $C$DW$229, DW_AT_TI_symbol_name("bufend")
    2301                            .dwattr $C$DW$229, DW_AT_data_member_location[DW_OP_plus_uconst 0xc]
    2302                            .dwattr $C$DW$229, DW_AT_accessibility(DW_ACCESS_public)
    2303                            .dwattr $C$DW$229, DW_AT_decl_file("C:/VLIB_Tools/CCSV5_4_0/ccsv5/tools/compiler/C6000/include
    2304                            .dwattr $C$DW$229, DW_AT_decl_line(0x4c)
    2305                            .dwattr $C$DW$229, DW_AT_decl_column(0x16)
    2306                    $C$DW$230       .dwtag  DW_TAG_member
    2307                            .dwattr $C$DW$230, DW_AT_type(*$C$DW$T$26)
    2308                            .dwattr $C$DW$230, DW_AT_name("buff_stop")
    2309                            .dwattr $C$DW$230, DW_AT_TI_symbol_name("buff_stop")
    2310                            .dwattr $C$DW$230, DW_AT_data_member_location[DW_OP_plus_uconst 0x10]
    2311                            .dwattr $C$DW$230, DW_AT_accessibility(DW_ACCESS_public)
TMS320C6x Assembler PC v7.4.2 Thu Mar 19 12:45:04 2015

Tools Copyright (c) 1996-2012 Texas Instruments Incorporated
package/lib/Regression/regress_d_c/./../packages/ti/vlib/src/VLIB_updateEWRVarianceS32/VLIB_updateEWRVarianceS32_d.se66 PAGE   48

    2312                            .dwattr $C$DW$230, DW_AT_decl_file("C:/VLIB_Tools/CCSV5_4_0/ccsv5/tools/compiler/C6000/include
    2313                            .dwattr $C$DW$230, DW_AT_decl_line(0x4d)
    2314                            .dwattr $C$DW$230, DW_AT_decl_column(0x16)
    2315                    $C$DW$231       .dwtag  DW_TAG_member
    2316                            .dwattr $C$DW$231, DW_AT_type(*$C$DW$T$11)
    2317                            .dwattr $C$DW$231, DW_AT_name("flags")
    2318                            .dwattr $C$DW$231, DW_AT_TI_symbol_name("flags")
    2319                            .dwattr $C$DW$231, DW_AT_data_member_location[DW_OP_plus_uconst 0x14]
    2320                            .dwattr $C$DW$231, DW_AT_accessibility(DW_ACCESS_public)
    2321                            .dwattr $C$DW$231, DW_AT_decl_file("C:/VLIB_Tools/CCSV5_4_0/ccsv5/tools/compiler/C6000/include
    2322                            .dwattr $C$DW$231, DW_AT_decl_line(0x4e)
    2323                            .dwattr $C$DW$231, DW_AT_decl_column(0x16)
    2324                            .dwendtag $C$DW$T$27
    2325                    
    2326                            .dwattr $C$DW$T$27, DW_AT_decl_file("C:/VLIB_Tools/CCSV5_4_0/ccsv5/tools/compiler/C6000/includ
    2327                            .dwattr $C$DW$T$27, DW_AT_decl_line(0x48)
    2328                            .dwattr $C$DW$T$27, DW_AT_decl_column(0x10)
    2329                    $C$DW$T$47      .dwtag  DW_TAG_typedef, DW_AT_name("FILE")
    2330                            .dwattr $C$DW$T$47, DW_AT_type(*$C$DW$T$27)
    2331                            .dwattr $C$DW$T$47, DW_AT_language(DW_LANG_C)
    2332                            .dwattr $C$DW$T$47, DW_AT_decl_file("C:/VLIB_Tools/CCSV5_4_0/ccsv5/tools/compiler/C6000/includ
    2333                            .dwattr $C$DW$T$47, DW_AT_decl_line(0x4f)
    2334                            .dwattr $C$DW$T$47, DW_AT_decl_column(0x03)
    2335                    
    2336                    $C$DW$T$28      .dwtag  DW_TAG_structure_type
    2337                            .dwattr $C$DW$T$28, DW_AT_byte_size(0x08)
    2338                    $C$DW$232       .dwtag  DW_TAG_member
    2339                            .dwattr $C$DW$232, DW_AT_type(*$C$DW$T$10)
    2340                            .dwattr $C$DW$232, DW_AT_name("quot")
    2341                            .dwattr $C$DW$232, DW_AT_TI_symbol_name("quot")
    2342                            .dwattr $C$DW$232, DW_AT_data_member_location[DW_OP_plus_uconst 0x0]
    2343                            .dwattr $C$DW$232, DW_AT_accessibility(DW_ACCESS_public)
    2344                            .dwattr $C$DW$232, DW_AT_decl_file("C:/VLIB_Tools/CCSV5_4_0/ccsv5/tools/compiler/C6000/include
    2345                            .dwattr $C$DW$232, DW_AT_decl_line(0x3e)
    2346                            .dwattr $C$DW$232, DW_AT_decl_column(0x16)
    2347                    $C$DW$233       .dwtag  DW_TAG_member
    2348                            .dwattr $C$DW$233, DW_AT_type(*$C$DW$T$10)
    2349                            .dwattr $C$DW$233, DW_AT_name("rem")
    2350                            .dwattr $C$DW$233, DW_AT_TI_symbol_name("rem")
    2351                            .dwattr $C$DW$233, DW_AT_data_member_location[DW_OP_plus_uconst 0x4]
    2352                            .dwattr $C$DW$233, DW_AT_accessibility(DW_ACCESS_public)
    2353                            .dwattr $C$DW$233, DW_AT_decl_file("C:/VLIB_Tools/CCSV5_4_0/ccsv5/tools/compiler/C6000/include
    2354                            .dwattr $C$DW$233, DW_AT_decl_line(0x3e)
    2355                            .dwattr $C$DW$233, DW_AT_decl_column(0x1c)
    2356                            .dwendtag $C$DW$T$28
    2357                    
    2358                            .dwattr $C$DW$T$28, DW_AT_decl_file("C:/VLIB_Tools/CCSV5_4_0/ccsv5/tools/compiler/C6000/includ
    2359                            .dwattr $C$DW$T$28, DW_AT_decl_line(0x3e)
    2360                            .dwattr $C$DW$T$28, DW_AT_decl_column(0x10)
    2361                    $C$DW$T$48      .dwtag  DW_TAG_typedef, DW_AT_name("div_t")
    2362                            .dwattr $C$DW$T$48, DW_AT_type(*$C$DW$T$28)
    2363                            .dwattr $C$DW$T$48, DW_AT_language(DW_LANG_C)
    2364                            .dwattr $C$DW$T$48, DW_AT_decl_file("C:/VLIB_Tools/CCSV5_4_0/ccsv5/tools/compiler/C6000/includ
    2365                            .dwattr $C$DW$T$48, DW_AT_decl_line(0x3e)
    2366                            .dwattr $C$DW$T$48, DW_AT_decl_column(0x23)
TMS320C6x Assembler PC v7.4.2 Thu Mar 19 12:45:04 2015

Tools Copyright (c) 1996-2012 Texas Instruments Incorporated
package/lib/Regression/regress_d_c/./../packages/ti/vlib/src/VLIB_updateEWRVarianceS32/VLIB_updateEWRVarianceS32_d.se66 PAGE   49

    2367                    
    2368                    $C$DW$T$29      .dwtag  DW_TAG_structure_type
    2369                            .dwattr $C$DW$T$29, DW_AT_byte_size(0x08)
    2370                    $C$DW$234       .dwtag  DW_TAG_member
    2371                            .dwattr $C$DW$234, DW_AT_type(*$C$DW$T$10)
    2372                            .dwattr $C$DW$234, DW_AT_name("quot")
    2373                            .dwattr $C$DW$234, DW_AT_TI_symbol_name("quot")
    2374                            .dwattr $C$DW$234, DW_AT_data_member_location[DW_OP_plus_uconst 0x0]
    2375                            .dwattr $C$DW$234, DW_AT_accessibility(DW_ACCESS_public)
    2376                            .dwattr $C$DW$234, DW_AT_decl_file("C:/VLIB_Tools/CCSV5_4_0/ccsv5/tools/compiler/C6000/include
    2377                            .dwattr $C$DW$234, DW_AT_decl_line(0x40)
    2378                            .dwattr $C$DW$234, DW_AT_decl_column(0x17)
    2379                    $C$DW$235       .dwtag  DW_TAG_member
    2380                            .dwattr $C$DW$235, DW_AT_type(*$C$DW$T$10)
    2381                            .dwattr $C$DW$235, DW_AT_name("rem")
    2382                            .dwattr $C$DW$235, DW_AT_TI_symbol_name("rem")
    2383                            .dwattr $C$DW$235, DW_AT_data_member_location[DW_OP_plus_uconst 0x4]
    2384                            .dwattr $C$DW$235, DW_AT_accessibility(DW_ACCESS_public)
    2385                            .dwattr $C$DW$235, DW_AT_decl_file("C:/VLIB_Tools/CCSV5_4_0/ccsv5/tools/compiler/C6000/include
    2386                            .dwattr $C$DW$235, DW_AT_decl_line(0x40)
    2387                            .dwattr $C$DW$235, DW_AT_decl_column(0x1d)
    2388                            .dwendtag $C$DW$T$29
    2389                    
    2390                            .dwattr $C$DW$T$29, DW_AT_decl_file("C:/VLIB_Tools/CCSV5_4_0/ccsv5/tools/compiler/C6000/includ
    2391                            .dwattr $C$DW$T$29, DW_AT_decl_line(0x40)
    2392                            .dwattr $C$DW$T$29, DW_AT_decl_column(0x10)
    2393                    $C$DW$T$49      .dwtag  DW_TAG_typedef, DW_AT_name("ldiv_t")
    2394                            .dwattr $C$DW$T$49, DW_AT_type(*$C$DW$T$29)
    2395                            .dwattr $C$DW$T$49, DW_AT_language(DW_LANG_C)
    2396                            .dwattr $C$DW$T$49, DW_AT_decl_file("C:/VLIB_Tools/CCSV5_4_0/ccsv5/tools/compiler/C6000/includ
    2397                            .dwattr $C$DW$T$49, DW_AT_decl_line(0x40)
    2398                            .dwattr $C$DW$T$49, DW_AT_decl_column(0x24)
    2399                    
    2400                    $C$DW$T$30      .dwtag  DW_TAG_structure_type
    2401                            .dwattr $C$DW$T$30, DW_AT_byte_size(0x10)
    2402                    $C$DW$236       .dwtag  DW_TAG_member
    2403                            .dwattr $C$DW$236, DW_AT_type(*$C$DW$T$14)
    2404                            .dwattr $C$DW$236, DW_AT_name("quot")
    2405                            .dwattr $C$DW$236, DW_AT_TI_symbol_name("quot")
    2406                            .dwattr $C$DW$236, DW_AT_data_member_location[DW_OP_plus_uconst 0x0]
    2407                            .dwattr $C$DW$236, DW_AT_accessibility(DW_ACCESS_public)
    2408                            .dwattr $C$DW$236, DW_AT_decl_file("C:/VLIB_Tools/CCSV5_4_0/ccsv5/tools/compiler/C6000/include
    2409                            .dwattr $C$DW$236, DW_AT_decl_line(0x43)
    2410                            .dwattr $C$DW$236, DW_AT_decl_column(0x1c)
    2411                    $C$DW$237       .dwtag  DW_TAG_member
    2412                            .dwattr $C$DW$237, DW_AT_type(*$C$DW$T$14)
    2413                            .dwattr $C$DW$237, DW_AT_name("rem")
    2414                            .dwattr $C$DW$237, DW_AT_TI_symbol_name("rem")
    2415                            .dwattr $C$DW$237, DW_AT_data_member_location[DW_OP_plus_uconst 0x8]
    2416                            .dwattr $C$DW$237, DW_AT_accessibility(DW_ACCESS_public)
    2417                            .dwattr $C$DW$237, DW_AT_decl_file("C:/VLIB_Tools/CCSV5_4_0/ccsv5/tools/compiler/C6000/include
    2418                            .dwattr $C$DW$237, DW_AT_decl_line(0x43)
    2419                            .dwattr $C$DW$237, DW_AT_decl_column(0x22)
    2420                            .dwendtag $C$DW$T$30
    2421                    
TMS320C6x Assembler PC v7.4.2 Thu Mar 19 12:45:04 2015

Tools Copyright (c) 1996-2012 Texas Instruments Incorporated
package/lib/Regression/regress_d_c/./../packages/ti/vlib/src/VLIB_updateEWRVarianceS32/VLIB_updateEWRVarianceS32_d.se66 PAGE   50

    2422                            .dwattr $C$DW$T$30, DW_AT_decl_file("C:/VLIB_Tools/CCSV5_4_0/ccsv5/tools/compiler/C6000/includ
    2423                            .dwattr $C$DW$T$30, DW_AT_decl_line(0x43)
    2424                            .dwattr $C$DW$T$30, DW_AT_decl_column(0x10)
    2425                    $C$DW$T$50      .dwtag  DW_TAG_typedef, DW_AT_name("lldiv_t")
    2426                            .dwattr $C$DW$T$50, DW_AT_type(*$C$DW$T$30)
    2427                            .dwattr $C$DW$T$50, DW_AT_language(DW_LANG_C)
    2428                            .dwattr $C$DW$T$50, DW_AT_decl_file("C:/VLIB_Tools/CCSV5_4_0/ccsv5/tools/compiler/C6000/includ
    2429                            .dwattr $C$DW$T$50, DW_AT_decl_line(0x43)
    2430                            .dwattr $C$DW$T$50, DW_AT_decl_column(0x29)
    2431                    
    2432                    $C$DW$T$31      .dwtag  DW_TAG_structure_type
    2433                            .dwattr $C$DW$T$31, DW_AT_byte_size(0x24)
    2434                    $C$DW$238       .dwtag  DW_TAG_member
    2435                            .dwattr $C$DW$238, DW_AT_type(*$C$DW$T$23)
    2436                            .dwattr $C$DW$238, DW_AT_name("area")
    2437                            .dwattr $C$DW$238, DW_AT_TI_symbol_name("area")
    2438                            .dwattr $C$DW$238, DW_AT_data_member_location[DW_OP_plus_uconst 0x0]
    2439                            .dwattr $C$DW$238, DW_AT_accessibility(DW_ACCESS_public)
    2440                            .dwattr $C$DW$238, DW_AT_decl_file(".\..\packages\ti\vlib\src\VLIB_updateEWRVarianceS32\..\com
    2441                            .dwattr $C$DW$238, DW_AT_decl_line(0x69)
    2442                            .dwattr $C$DW$238, DW_AT_decl_column(0x0d)
    2443                    $C$DW$239       .dwtag  DW_TAG_member
    2444                            .dwattr $C$DW$239, DW_AT_type(*$C$DW$T$23)
    2445                            .dwattr $C$DW$239, DW_AT_name("xsum")
    2446                            .dwattr $C$DW$239, DW_AT_TI_symbol_name("xsum")
    2447                            .dwattr $C$DW$239, DW_AT_data_member_location[DW_OP_plus_uconst 0x4]
    2448                            .dwattr $C$DW$239, DW_AT_accessibility(DW_ACCESS_public)
    2449                            .dwattr $C$DW$239, DW_AT_decl_file(".\..\packages\ti\vlib\src\VLIB_updateEWRVarianceS32\..\com
    2450                            .dwattr $C$DW$239, DW_AT_decl_line(0x6a)
    2451                            .dwattr $C$DW$239, DW_AT_decl_column(0x0d)
    2452                    $C$DW$240       .dwtag  DW_TAG_member
    2453                            .dwattr $C$DW$240, DW_AT_type(*$C$DW$T$23)
    2454                            .dwattr $C$DW$240, DW_AT_name("ysum")
    2455                            .dwattr $C$DW$240, DW_AT_TI_symbol_name("ysum")
    2456                            .dwattr $C$DW$240, DW_AT_data_member_location[DW_OP_plus_uconst 0x8]
    2457                            .dwattr $C$DW$240, DW_AT_accessibility(DW_ACCESS_public)
    2458                            .dwattr $C$DW$240, DW_AT_decl_file(".\..\packages\ti\vlib\src\VLIB_updateEWRVarianceS32\..\com
    2459                            .dwattr $C$DW$240, DW_AT_decl_line(0x6b)
    2460                            .dwattr $C$DW$240, DW_AT_decl_column(0x0d)
    2461                    $C$DW$241       .dwtag  DW_TAG_member
    2462                            .dwattr $C$DW$241, DW_AT_type(*$C$DW$T$23)
    2463                            .dwattr $C$DW$241, DW_AT_name("xmin")
    2464                            .dwattr $C$DW$241, DW_AT_TI_symbol_name("xmin")
    2465                            .dwattr $C$DW$241, DW_AT_data_member_location[DW_OP_plus_uconst 0xc]
    2466                            .dwattr $C$DW$241, DW_AT_accessibility(DW_ACCESS_public)
    2467                            .dwattr $C$DW$241, DW_AT_decl_file(".\..\packages\ti\vlib\src\VLIB_updateEWRVarianceS32\..\com
    2468                            .dwattr $C$DW$241, DW_AT_decl_line(0x6d)
    2469                            .dwattr $C$DW$241, DW_AT_decl_column(0x0d)
    2470                    $C$DW$242       .dwtag  DW_TAG_member
    2471                            .dwattr $C$DW$242, DW_AT_type(*$C$DW$T$23)
    2472                            .dwattr $C$DW$242, DW_AT_name("ymin")
    2473                            .dwattr $C$DW$242, DW_AT_TI_symbol_name("ymin")
    2474                            .dwattr $C$DW$242, DW_AT_data_member_location[DW_OP_plus_uconst 0x10]
    2475                            .dwattr $C$DW$242, DW_AT_accessibility(DW_ACCESS_public)
    2476                            .dwattr $C$DW$242, DW_AT_decl_file(".\..\packages\ti\vlib\src\VLIB_updateEWRVarianceS32\..\com
TMS320C6x Assembler PC v7.4.2 Thu Mar 19 12:45:04 2015

Tools Copyright (c) 1996-2012 Texas Instruments Incorporated
package/lib/Regression/regress_d_c/./../packages/ti/vlib/src/VLIB_updateEWRVarianceS32/VLIB_updateEWRVarianceS32_d.se66 PAGE   51

    2477                            .dwattr $C$DW$242, DW_AT_decl_line(0x6e)
    2478                            .dwattr $C$DW$242, DW_AT_decl_column(0x0d)
    2479                    $C$DW$243       .dwtag  DW_TAG_member
    2480                            .dwattr $C$DW$243, DW_AT_type(*$C$DW$T$23)
    2481                            .dwattr $C$DW$243, DW_AT_name("xmax")
    2482                            .dwattr $C$DW$243, DW_AT_TI_symbol_name("xmax")
    2483                            .dwattr $C$DW$243, DW_AT_data_member_location[DW_OP_plus_uconst 0x14]
    2484                            .dwattr $C$DW$243, DW_AT_accessibility(DW_ACCESS_public)
    2485                            .dwattr $C$DW$243, DW_AT_decl_file(".\..\packages\ti\vlib\src\VLIB_updateEWRVarianceS32\..\com
    2486                            .dwattr $C$DW$243, DW_AT_decl_line(0x6f)
    2487                            .dwattr $C$DW$243, DW_AT_decl_column(0x0d)
    2488                    $C$DW$244       .dwtag  DW_TAG_member
    2489                            .dwattr $C$DW$244, DW_AT_type(*$C$DW$T$23)
    2490                            .dwattr $C$DW$244, DW_AT_name("ymax")
    2491                            .dwattr $C$DW$244, DW_AT_TI_symbol_name("ymax")
    2492                            .dwattr $C$DW$244, DW_AT_data_member_location[DW_OP_plus_uconst 0x18]
    2493                            .dwattr $C$DW$244, DW_AT_accessibility(DW_ACCESS_public)
    2494                            .dwattr $C$DW$244, DW_AT_decl_file(".\..\packages\ti\vlib\src\VLIB_updateEWRVarianceS32\..\com
    2495                            .dwattr $C$DW$244, DW_AT_decl_line(0x70)
    2496                            .dwattr $C$DW$244, DW_AT_decl_column(0x0d)
    2497                    $C$DW$245       .dwtag  DW_TAG_member
    2498                            .dwattr $C$DW$245, DW_AT_type(*$C$DW$T$23)
    2499                            .dwattr $C$DW$245, DW_AT_name("seedx")
    2500                            .dwattr $C$DW$245, DW_AT_TI_symbol_name("seedx")
    2501                            .dwattr $C$DW$245, DW_AT_data_member_location[DW_OP_plus_uconst 0x1c]
    2502                            .dwattr $C$DW$245, DW_AT_accessibility(DW_ACCESS_public)
    2503                            .dwattr $C$DW$245, DW_AT_decl_file(".\..\packages\ti\vlib\src\VLIB_updateEWRVarianceS32\..\com
    2504                            .dwattr $C$DW$245, DW_AT_decl_line(0x72)
    2505                            .dwattr $C$DW$245, DW_AT_decl_column(0x0d)
    2506                    $C$DW$246       .dwtag  DW_TAG_member
    2507                            .dwattr $C$DW$246, DW_AT_type(*$C$DW$T$23)
    2508                            .dwattr $C$DW$246, DW_AT_name("seedy")
    2509                            .dwattr $C$DW$246, DW_AT_TI_symbol_name("seedy")
    2510                            .dwattr $C$DW$246, DW_AT_data_member_location[DW_OP_plus_uconst 0x20]
    2511                            .dwattr $C$DW$246, DW_AT_accessibility(DW_ACCESS_public)
    2512                            .dwattr $C$DW$246, DW_AT_decl_file(".\..\packages\ti\vlib\src\VLIB_updateEWRVarianceS32\..\com
    2513                            .dwattr $C$DW$246, DW_AT_decl_line(0x73)
    2514                            .dwattr $C$DW$246, DW_AT_decl_column(0x0d)
    2515                            .dwendtag $C$DW$T$31
    2516                    
    2517                            .dwattr $C$DW$T$31, DW_AT_decl_file(".\..\packages\ti\vlib\src\VLIB_updateEWRVarianceS32\..\co
    2518                            .dwattr $C$DW$T$31, DW_AT_decl_line(0x68)
    2519                            .dwattr $C$DW$T$31, DW_AT_decl_column(0x10)
    2520                    $C$DW$T$51      .dwtag  DW_TAG_typedef, DW_AT_name("VLIB_CC")
    2521                            .dwattr $C$DW$T$51, DW_AT_type(*$C$DW$T$31)
    2522                            .dwattr $C$DW$T$51, DW_AT_language(DW_LANG_C)
    2523                            .dwattr $C$DW$T$51, DW_AT_decl_file(".\..\packages\ti\vlib\src\VLIB_updateEWRVarianceS32\..\co
    2524                            .dwattr $C$DW$T$51, DW_AT_decl_line(0x75)
    2525                            .dwattr $C$DW$T$51, DW_AT_decl_column(0x03)
    2526                    
    2527                    $C$DW$T$34      .dwtag  DW_TAG_structure_type
    2528                            .dwattr $C$DW$T$34, DW_AT_byte_size(0x10)
    2529                    $C$DW$247       .dwtag  DW_TAG_member
    2530                            .dwattr $C$DW$247, DW_AT_type(*$C$DW$T$8)
    2531                            .dwattr $C$DW$247, DW_AT_name("daylight")
TMS320C6x Assembler PC v7.4.2 Thu Mar 19 12:45:04 2015

Tools Copyright (c) 1996-2012 Texas Instruments Incorporated
package/lib/Regression/regress_d_c/./../packages/ti/vlib/src/VLIB_updateEWRVarianceS32/VLIB_updateEWRVarianceS32_d.se66 PAGE   52

    2532                            .dwattr $C$DW$247, DW_AT_TI_symbol_name("daylight")
    2533                            .dwattr $C$DW$247, DW_AT_data_member_location[DW_OP_plus_uconst 0x0]
    2534                            .dwattr $C$DW$247, DW_AT_accessibility(DW_ACCESS_public)
    2535                            .dwattr $C$DW$247, DW_AT_decl_file("C:/VLIB_Tools/CCSV5_4_0/ccsv5/tools/compiler/C6000/include
    2536                            .dwattr $C$DW$247, DW_AT_decl_line(0x52)
    2537                            .dwattr $C$DW$247, DW_AT_decl_column(0x0b)
    2538                    $C$DW$248       .dwtag  DW_TAG_member
    2539                            .dwattr $C$DW$248, DW_AT_type(*$C$DW$T$10)
    2540                            .dwattr $C$DW$248, DW_AT_name("timezone")
    2541                            .dwattr $C$DW$248, DW_AT_TI_symbol_name("timezone")
    2542                            .dwattr $C$DW$248, DW_AT_data_member_location[DW_OP_plus_uconst 0x4]
    2543                            .dwattr $C$DW$248, DW_AT_accessibility(DW_ACCESS_public)
    2544                            .dwattr $C$DW$248, DW_AT_decl_file("C:/VLIB_Tools/CCSV5_4_0/ccsv5/tools/compiler/C6000/include
    2545                            .dwattr $C$DW$248, DW_AT_decl_line(0x53)
    2546                            .dwattr $C$DW$248, DW_AT_decl_column(0x0b)
    2547                    $C$DW$249       .dwtag  DW_TAG_member
    2548                            .dwattr $C$DW$249, DW_AT_type(*$C$DW$T$33)
    2549                            .dwattr $C$DW$249, DW_AT_name("tzname")
    2550                            .dwattr $C$DW$249, DW_AT_TI_symbol_name("tzname")
    2551                            .dwattr $C$DW$249, DW_AT_data_member_location[DW_OP_plus_uconst 0x8]
    2552                            .dwattr $C$DW$249, DW_AT_accessibility(DW_ACCESS_public)
    2553                            .dwattr $C$DW$249, DW_AT_decl_file("C:/VLIB_Tools/CCSV5_4_0/ccsv5/tools/compiler/C6000/include
    2554                            .dwattr $C$DW$249, DW_AT_decl_line(0x54)
    2555                            .dwattr $C$DW$249, DW_AT_decl_column(0x0b)
    2556                    $C$DW$250       .dwtag  DW_TAG_member
    2557                            .dwattr $C$DW$250, DW_AT_type(*$C$DW$T$33)
    2558                            .dwattr $C$DW$250, DW_AT_name("dstname")
    2559                            .dwattr $C$DW$250, DW_AT_TI_symbol_name("dstname")
    2560                            .dwattr $C$DW$250, DW_AT_data_member_location[DW_OP_plus_uconst 0xc]
    2561                            .dwattr $C$DW$250, DW_AT_accessibility(DW_ACCESS_public)
    2562                            .dwattr $C$DW$250, DW_AT_decl_file("C:/VLIB_Tools/CCSV5_4_0/ccsv5/tools/compiler/C6000/include
    2563                            .dwattr $C$DW$250, DW_AT_decl_line(0x55)
    2564                            .dwattr $C$DW$250, DW_AT_decl_column(0x0b)
    2565                            .dwendtag $C$DW$T$34
    2566                    
    2567                            .dwattr $C$DW$T$34, DW_AT_decl_file("C:/VLIB_Tools/CCSV5_4_0/ccsv5/tools/compiler/C6000/includ
    2568                            .dwattr $C$DW$T$34, DW_AT_decl_line(0x51)
    2569                            .dwattr $C$DW$T$34, DW_AT_decl_column(0x01)
    2570                    $C$DW$T$52      .dwtag  DW_TAG_typedef, DW_AT_name("TZ")
    2571                            .dwattr $C$DW$T$52, DW_AT_type(*$C$DW$T$34)
    2572                            .dwattr $C$DW$T$52, DW_AT_language(DW_LANG_C)
    2573                            .dwattr $C$DW$T$52, DW_AT_decl_file("C:/VLIB_Tools/CCSV5_4_0/ccsv5/tools/compiler/C6000/includ
    2574                            .dwattr $C$DW$T$52, DW_AT_decl_line(0x56)
    2575                            .dwattr $C$DW$T$52, DW_AT_decl_column(0x03)
    2576                    $C$DW$T$2       .dwtag  DW_TAG_unspecified_type
    2577                            .dwattr $C$DW$T$2, DW_AT_name("void")
    2578                    $C$DW$T$3       .dwtag  DW_TAG_pointer_type
    2579                            .dwattr $C$DW$T$3, DW_AT_type(*$C$DW$T$2)
    2580                            .dwattr $C$DW$T$3, DW_AT_address_class(0x20)
    2581                    $C$DW$T$53      .dwtag  DW_TAG_typedef, DW_AT_name("VLIB_PTR")
    2582                            .dwattr $C$DW$T$53, DW_AT_type(*$C$DW$T$3)
    2583                            .dwattr $C$DW$T$53, DW_AT_language(DW_LANG_C)
    2584                            .dwattr $C$DW$T$53, DW_AT_decl_file(".\..\packages\ti\vlib\src\VLIB_updateEWRVarianceS32\..\co
    2585                            .dwattr $C$DW$T$53, DW_AT_decl_line(0x5c)
    2586                            .dwattr $C$DW$T$53, DW_AT_decl_column(0x19)
TMS320C6x Assembler PC v7.4.2 Thu Mar 19 12:45:04 2015

Tools Copyright (c) 1996-2012 Texas Instruments Incorporated
package/lib/Regression/regress_d_c/./../packages/ti/vlib/src/VLIB_updateEWRVarianceS32/VLIB_updateEWRVarianceS32_d.se66 PAGE   53

    2587                    $C$DW$T$54      .dwtag  DW_TAG_const_type
    2588                            .dwattr $C$DW$T$54, DW_AT_type(*$C$DW$T$2)
    2589                    $C$DW$T$55      .dwtag  DW_TAG_pointer_type
    2590                            .dwattr $C$DW$T$55, DW_AT_type(*$C$DW$T$54)
    2591                            .dwattr $C$DW$T$55, DW_AT_address_class(0x20)
    2592                    $C$DW$T$4       .dwtag  DW_TAG_base_type
    2593                            .dwattr $C$DW$T$4, DW_AT_encoding(DW_ATE_boolean)
    2594                            .dwattr $C$DW$T$4, DW_AT_name("bool")
    2595                            .dwattr $C$DW$T$4, DW_AT_byte_size(0x01)
    2596                    $C$DW$T$5       .dwtag  DW_TAG_base_type
    2597                            .dwattr $C$DW$T$5, DW_AT_encoding(DW_ATE_signed_char)
    2598                            .dwattr $C$DW$T$5, DW_AT_name("signed char")
    2599                            .dwattr $C$DW$T$5, DW_AT_byte_size(0x01)
    2600                    $C$DW$T$82      .dwtag  DW_TAG_pointer_type
    2601                            .dwattr $C$DW$T$82, DW_AT_type(*$C$DW$T$5)
    2602                            .dwattr $C$DW$T$82, DW_AT_address_class(0x20)
    2603                    $C$DW$T$92      .dwtag  DW_TAG_typedef, DW_AT_name("int8_t")
    2604                            .dwattr $C$DW$T$92, DW_AT_type(*$C$DW$T$5)
    2605                            .dwattr $C$DW$T$92, DW_AT_language(DW_LANG_C)
    2606                            .dwattr $C$DW$T$92, DW_AT_decl_file("C:/VLIB_Tools/CCSV5_4_0/ccsv5/tools/compiler/C6000/includ
    2607                            .dwattr $C$DW$T$92, DW_AT_decl_line(0x2a)
    2608                            .dwattr $C$DW$T$92, DW_AT_decl_column(0x1d)
    2609                    $C$DW$T$93      .dwtag  DW_TAG_typedef, DW_AT_name("int_least8_t")
    2610                            .dwattr $C$DW$T$93, DW_AT_type(*$C$DW$T$92)
    2611                            .dwattr $C$DW$T$93, DW_AT_language(DW_LANG_C)
    2612                            .dwattr $C$DW$T$93, DW_AT_decl_file("C:/VLIB_Tools/CCSV5_4_0/ccsv5/tools/compiler/C6000/includ
    2613                            .dwattr $C$DW$T$93, DW_AT_decl_line(0x39)
    2614                            .dwattr $C$DW$T$93, DW_AT_decl_column(0x17)
    2615                    $C$DW$T$6       .dwtag  DW_TAG_base_type
    2616                            .dwattr $C$DW$T$6, DW_AT_encoding(DW_ATE_unsigned_char)
    2617                            .dwattr $C$DW$T$6, DW_AT_name("unsigned char")
    2618                            .dwattr $C$DW$T$6, DW_AT_byte_size(0x01)
    2619                    $C$DW$T$26      .dwtag  DW_TAG_pointer_type
    2620                            .dwattr $C$DW$T$26, DW_AT_type(*$C$DW$T$6)
    2621                            .dwattr $C$DW$T$26, DW_AT_address_class(0x20)
    2622                    $C$DW$T$19      .dwtag  DW_TAG_typedef, DW_AT_name("uint8_t")
    2623                            .dwattr $C$DW$T$19, DW_AT_type(*$C$DW$T$6)
    2624                            .dwattr $C$DW$T$19, DW_AT_language(DW_LANG_C)
    2625                            .dwattr $C$DW$T$19, DW_AT_decl_file("C:/VLIB_Tools/CCSV5_4_0/ccsv5/tools/compiler/C6000/includ
    2626                            .dwattr $C$DW$T$19, DW_AT_decl_line(0x2b)
    2627                            .dwattr $C$DW$T$19, DW_AT_decl_column(0x1c)
    2628                    $C$DW$T$20      .dwtag  DW_TAG_pointer_type
    2629                            .dwattr $C$DW$T$20, DW_AT_type(*$C$DW$T$19)
    2630                            .dwattr $C$DW$T$20, DW_AT_address_class(0x20)
    2631                    $C$DW$T$94      .dwtag  DW_TAG_const_type
    2632                            .dwattr $C$DW$T$94, DW_AT_type(*$C$DW$T$19)
    2633                    $C$DW$T$95      .dwtag  DW_TAG_pointer_type
    2634                            .dwattr $C$DW$T$95, DW_AT_type(*$C$DW$T$94)
    2635                            .dwattr $C$DW$T$95, DW_AT_address_class(0x20)
    2636                    $C$DW$T$96      .dwtag  DW_TAG_restrict_type
    2637                            .dwattr $C$DW$T$96, DW_AT_type(*$C$DW$T$95)
    2638                    $C$DW$T$97      .dwtag  DW_TAG_typedef, DW_AT_name("uint_least8_t")
    2639                            .dwattr $C$DW$T$97, DW_AT_type(*$C$DW$T$19)
    2640                            .dwattr $C$DW$T$97, DW_AT_language(DW_LANG_C)
    2641                            .dwattr $C$DW$T$97, DW_AT_decl_file("C:/VLIB_Tools/CCSV5_4_0/ccsv5/tools/compiler/C6000/includ
TMS320C6x Assembler PC v7.4.2 Thu Mar 19 12:45:04 2015

Tools Copyright (c) 1996-2012 Texas Instruments Incorporated
package/lib/Regression/regress_d_c/./../packages/ti/vlib/src/VLIB_updateEWRVarianceS32/VLIB_updateEWRVarianceS32_d.se66 PAGE   54

    2642                            .dwattr $C$DW$T$97, DW_AT_decl_line(0x3a)
    2643                            .dwattr $C$DW$T$97, DW_AT_decl_column(0x16)
    2644                    $C$DW$T$7       .dwtag  DW_TAG_base_type
    2645                            .dwattr $C$DW$T$7, DW_AT_encoding(DW_ATE_signed_char)
    2646                            .dwattr $C$DW$T$7, DW_AT_name("wchar_t")
    2647                            .dwattr $C$DW$T$7, DW_AT_byte_size(0x02)
    2648                    $C$DW$T$8       .dwtag  DW_TAG_base_type
    2649                            .dwattr $C$DW$T$8, DW_AT_encoding(DW_ATE_signed)
    2650                            .dwattr $C$DW$T$8, DW_AT_name("short")
    2651                            .dwattr $C$DW$T$8, DW_AT_byte_size(0x02)
    2652                    $C$DW$T$98      .dwtag  DW_TAG_typedef, DW_AT_name("int16_t")
    2653                            .dwattr $C$DW$T$98, DW_AT_type(*$C$DW$T$8)
    2654                            .dwattr $C$DW$T$98, DW_AT_language(DW_LANG_C)
    2655                            .dwattr $C$DW$T$98, DW_AT_decl_file("C:/VLIB_Tools/CCSV5_4_0/ccsv5/tools/compiler/C6000/includ
    2656                            .dwattr $C$DW$T$98, DW_AT_decl_line(0x2c)
    2657                            .dwattr $C$DW$T$98, DW_AT_decl_column(0x1d)
    2658                    $C$DW$T$99      .dwtag  DW_TAG_typedef, DW_AT_name("int_least16_t")
    2659                            .dwattr $C$DW$T$99, DW_AT_type(*$C$DW$T$98)
    2660                            .dwattr $C$DW$T$99, DW_AT_language(DW_LANG_C)
    2661                            .dwattr $C$DW$T$99, DW_AT_decl_file("C:/VLIB_Tools/CCSV5_4_0/ccsv5/tools/compiler/C6000/includ
    2662                            .dwattr $C$DW$T$99, DW_AT_decl_line(0x3c)
    2663                            .dwattr $C$DW$T$99, DW_AT_decl_column(0x17)
    2664                    $C$DW$T$9       .dwtag  DW_TAG_base_type
    2665                            .dwattr $C$DW$T$9, DW_AT_encoding(DW_ATE_unsigned)
    2666                            .dwattr $C$DW$T$9, DW_AT_name("unsigned short")
    2667                            .dwattr $C$DW$T$9, DW_AT_byte_size(0x02)
    2668                    $C$DW$T$76      .dwtag  DW_TAG_typedef, DW_AT_name("uint16_t")
    2669                            .dwattr $C$DW$T$76, DW_AT_type(*$C$DW$T$9)
    2670                            .dwattr $C$DW$T$76, DW_AT_language(DW_LANG_C)
    2671                            .dwattr $C$DW$T$76, DW_AT_decl_file("C:/VLIB_Tools/CCSV5_4_0/ccsv5/tools/compiler/C6000/includ
    2672                            .dwattr $C$DW$T$76, DW_AT_decl_line(0x2d)
    2673                            .dwattr $C$DW$T$76, DW_AT_decl_column(0x1c)
    2674                    $C$DW$T$101     .dwtag  DW_TAG_typedef, DW_AT_name("uint_least16_t")
    2675                            .dwattr $C$DW$T$101, DW_AT_type(*$C$DW$T$76)
    2676                            .dwattr $C$DW$T$101, DW_AT_language(DW_LANG_C)
    2677                            .dwattr $C$DW$T$101, DW_AT_decl_file("C:/VLIB_Tools/CCSV5_4_0/ccsv5/tools/compiler/C6000/inclu
    2678                            .dwattr $C$DW$T$101, DW_AT_decl_line(0x3d)
    2679                            .dwattr $C$DW$T$101, DW_AT_decl_column(0x16)
    2680                    $C$DW$T$100     .dwtag  DW_TAG_typedef, DW_AT_name("wchar_t")
    2681                            .dwattr $C$DW$T$100, DW_AT_type(*$C$DW$T$9)
    2682                            .dwattr $C$DW$T$100, DW_AT_language(DW_LANG_C)
    2683                            .dwattr $C$DW$T$100, DW_AT_decl_file("C:/VLIB_Tools/CCSV5_4_0/ccsv5/tools/compiler/C6000/inclu
    2684                            .dwattr $C$DW$T$100, DW_AT_decl_line(0x53)
    2685                            .dwattr $C$DW$T$100, DW_AT_decl_column(0x1a)
    2686                    $C$DW$T$10      .dwtag  DW_TAG_base_type
    2687                            .dwattr $C$DW$T$10, DW_AT_encoding(DW_ATE_signed)
    2688                            .dwattr $C$DW$T$10, DW_AT_name("int")
    2689                            .dwattr $C$DW$T$10, DW_AT_byte_size(0x04)
    2690                    $C$DW$T$125     .dwtag  DW_TAG_pointer_type
    2691                            .dwattr $C$DW$T$125, DW_AT_type(*$C$DW$T$10)
    2692                            .dwattr $C$DW$T$125, DW_AT_address_class(0x20)
    2693                    $C$DW$T$136     .dwtag  DW_TAG_typedef, DW_AT_name("fpos_t")
    2694                            .dwattr $C$DW$T$136, DW_AT_type(*$C$DW$T$10)
    2695                            .dwattr $C$DW$T$136, DW_AT_language(DW_LANG_C)
    2696                            .dwattr $C$DW$T$136, DW_AT_decl_file("C:/VLIB_Tools/CCSV5_4_0/ccsv5/tools/compiler/C6000/inclu
TMS320C6x Assembler PC v7.4.2 Thu Mar 19 12:45:04 2015

Tools Copyright (c) 1996-2012 Texas Instruments Incorporated
package/lib/Regression/regress_d_c/./../packages/ti/vlib/src/VLIB_updateEWRVarianceS32/VLIB_updateEWRVarianceS32_d.se66 PAGE   55

    2697                            .dwattr $C$DW$T$136, DW_AT_decl_line(0x53)
    2698                            .dwattr $C$DW$T$136, DW_AT_decl_column(0x0d)
    2699                    $C$DW$T$23      .dwtag  DW_TAG_typedef, DW_AT_name("int32_t")
    2700                            .dwattr $C$DW$T$23, DW_AT_type(*$C$DW$T$10)
    2701                            .dwattr $C$DW$T$23, DW_AT_language(DW_LANG_C)
    2702                            .dwattr $C$DW$T$23, DW_AT_decl_file("C:/VLIB_Tools/CCSV5_4_0/ccsv5/tools/compiler/C6000/includ
    2703                            .dwattr $C$DW$T$23, DW_AT_decl_line(0x2e)
    2704                            .dwattr $C$DW$T$23, DW_AT_decl_column(0x1d)
    2705                    $C$DW$T$126     .dwtag  DW_TAG_typedef, DW_AT_name("VLIB_CCHandle")
    2706                            .dwattr $C$DW$T$126, DW_AT_type(*$C$DW$T$23)
    2707                            .dwattr $C$DW$T$126, DW_AT_language(DW_LANG_C)
    2708                            .dwattr $C$DW$T$126, DW_AT_decl_file(".\..\packages\ti\vlib\src\VLIB_updateEWRVarianceS32\..\c
    2709                            .dwattr $C$DW$T$126, DW_AT_decl_line(0x77)
    2710                            .dwattr $C$DW$T$126, DW_AT_decl_column(0x11)
    2711                    $C$DW$T$24      .dwtag  DW_TAG_pointer_type
    2712                            .dwattr $C$DW$T$24, DW_AT_type(*$C$DW$T$23)
    2713                            .dwattr $C$DW$T$24, DW_AT_address_class(0x20)
    2714                    $C$DW$T$112     .dwtag  DW_TAG_restrict_type
    2715                            .dwattr $C$DW$T$112, DW_AT_type(*$C$DW$T$24)
    2716                    
    2717                    $C$DW$T$35      .dwtag  DW_TAG_array_type
    2718                            .dwattr $C$DW$T$35, DW_AT_type(*$C$DW$T$23)
    2719                            .dwattr $C$DW$T$35, DW_AT_language(DW_LANG_C)
    2720                            .dwattr $C$DW$T$35, DW_AT_byte_size(0x10)
    2721                    $C$DW$251       .dwtag  DW_TAG_subrange_type
    2722                            .dwattr $C$DW$251, DW_AT_upper_bound(0x03)
    2723                            .dwendtag $C$DW$T$35
    2724                    
    2725                    $C$DW$T$116     .dwtag  DW_TAG_const_type
    2726                            .dwattr $C$DW$T$116, DW_AT_type(*$C$DW$T$23)
    2727                    $C$DW$T$119     .dwtag  DW_TAG_pointer_type
    2728                            .dwattr $C$DW$T$119, DW_AT_type(*$C$DW$T$116)
    2729                            .dwattr $C$DW$T$119, DW_AT_address_class(0x20)
    2730                    $C$DW$T$120     .dwtag  DW_TAG_restrict_type
    2731                            .dwattr $C$DW$T$120, DW_AT_type(*$C$DW$T$119)
    2732                    $C$DW$T$131     .dwtag  DW_TAG_typedef, DW_AT_name("int_fast16_t")
    2733                            .dwattr $C$DW$T$131, DW_AT_type(*$C$DW$T$23)
    2734                            .dwattr $C$DW$T$131, DW_AT_language(DW_LANG_C)
    2735                            .dwattr $C$DW$T$131, DW_AT_decl_file("C:/VLIB_Tools/CCSV5_4_0/ccsv5/tools/compiler/C6000/inclu
    2736                            .dwattr $C$DW$T$131, DW_AT_decl_line(0x4b)
    2737                            .dwattr $C$DW$T$131, DW_AT_decl_column(0x17)
    2738                    $C$DW$T$132     .dwtag  DW_TAG_typedef, DW_AT_name("int_fast32_t")
    2739                            .dwattr $C$DW$T$132, DW_AT_type(*$C$DW$T$23)
    2740                            .dwattr $C$DW$T$132, DW_AT_language(DW_LANG_C)
    2741                            .dwattr $C$DW$T$132, DW_AT_decl_file("C:/VLIB_Tools/CCSV5_4_0/ccsv5/tools/compiler/C6000/inclu
    2742                            .dwattr $C$DW$T$132, DW_AT_decl_line(0x4e)
    2743                            .dwattr $C$DW$T$132, DW_AT_decl_column(0x17)
    2744                    $C$DW$T$133     .dwtag  DW_TAG_typedef, DW_AT_name("int_fast8_t")
    2745                            .dwattr $C$DW$T$133, DW_AT_type(*$C$DW$T$23)
    2746                            .dwattr $C$DW$T$133, DW_AT_language(DW_LANG_C)
    2747                            .dwattr $C$DW$T$133, DW_AT_decl_file("C:/VLIB_Tools/CCSV5_4_0/ccsv5/tools/compiler/C6000/inclu
    2748                            .dwattr $C$DW$T$133, DW_AT_decl_line(0x49)
    2749                            .dwattr $C$DW$T$133, DW_AT_decl_column(0x17)
    2750                    $C$DW$T$134     .dwtag  DW_TAG_typedef, DW_AT_name("int_least32_t")
