TMS320C6x Assembler PC v7.4.2 Thu Mar 19 12:42:36 2015

Tools Copyright (c) 1996-2012 Texas Instruments Incorporated
package/lib/Regression/regress_d_c/./../packages/ti/vlib/src/VLIB_kalmanFilter_2x4_Correct/VLIB_kalmanFilter_2x4_Correct_d.se66 PAGE    1

       1                    ;******************************************************************************
       2                    ;* TMS320C6x C/C++ Codegen                                          PC v7.4.2 *
       3                    ;* Date/Time created: Thu Mar 19 12:42:35 2015                                *
       4                    ;******************************************************************************
       5                            .compiler_opts --abi=eabi --c64p_l1d_workaround=off --endian=little --hll_source=on --long_pre
       6                    
       7                    ;******************************************************************************
       8                    ;* GLOBAL FILE PARAMETERS                                                     *
       9                    ;*                                                                            *
      10                    ;*   Architecture      : TMS320C66xx                                          *
      11                    ;*   Optimization      : Enabled at level 3                                   *
      12                    ;*   Optimizing for    : Speed                                                *
      13                    ;*                       Based on options: -o3, no -ms                        *
      14                    ;*   Endian            : Little                                               *
      15                    ;*   Interrupt Thrshld : 10000                                                *
      16                    ;*   Data Access Model : Far                                                  *
      17                    ;*   Pipelining        : Enabled                                              *
      18                    ;*   Speculate Loads   : Enabled with threshold = 0                           *
      19                    ;*   Memory Aliases    : Presume are aliases (pessimistic)                    *
      20                    ;*   Debug Info        : DWARF Debug w/Optimization                           *
      21                    ;*                                                                            *
      22                    ;******************************************************************************
      23                    
      24                            .asg    A15, FP
      25                            .asg    B14, DP
      26                            .asg    B15, SP
      27                            .global $bss
      28                    
      29                    
      30                    $C$DW$CU        .dwtag  DW_TAG_compile_unit
      31                            .dwattr $C$DW$CU, DW_AT_name("./../packages/ti/vlib/src/VLIB_kalmanFilter_2x4_Correct/VLIB_kal
      32                            .dwattr $C$DW$CU, DW_AT_producer("TI TMS320C6x C/C++ Codegen PC v7.4.2 Copyright (c) 1996-2012
      33                            .dwattr $C$DW$CU, DW_AT_TI_version(0x01)
      34                            .dwattr $C$DW$CU, DW_AT_comp_dir("c:\nightlybuilds\vlib\ti\vlib\vlib\examples")
      35                    
      36                    $C$DW$1 .dwtag  DW_TAG_subprogram, DW_AT_name("memcpy")
      37                            .dwattr $C$DW$1, DW_AT_TI_symbol_name("memcpy")
      38                            .dwattr $C$DW$1, DW_AT_type(*$C$DW$T$3)
      39                            .dwattr $C$DW$1, DW_AT_declaration
      40                            .dwattr $C$DW$1, DW_AT_external
      41                            .dwattr $C$DW$1, DW_AT_decl_file("C:/VLIB_Tools/CCSV5_4_0/ccsv5/tools/compiler/C6000/include/s
      42                            .dwattr $C$DW$1, DW_AT_decl_line(0x56)
      43                            .dwattr $C$DW$1, DW_AT_decl_column(0x16)
      44                    $C$DW$2 .dwtag  DW_TAG_formal_parameter
      45                            .dwattr $C$DW$2, DW_AT_type(*$C$DW$T$3)
      46                    $C$DW$3 .dwtag  DW_TAG_formal_parameter
      47                            .dwattr $C$DW$3, DW_AT_type(*$C$DW$T$75)
      48                    $C$DW$4 .dwtag  DW_TAG_formal_parameter
      49                            .dwattr $C$DW$4, DW_AT_type(*$C$DW$T$76)
      50                            .dwendtag $C$DW$1
      51                    
      52                    
      53                    $C$DW$5 .dwtag  DW_TAG_subprogram, DW_AT_name("_itoll")
      54                            .dwattr $C$DW$5, DW_AT_TI_symbol_name("_itoll")
      55                            .dwattr $C$DW$5, DW_AT_type(*$C$DW$T$14)
TMS320C6x Assembler PC v7.4.2 Thu Mar 19 12:42:36 2015

Tools Copyright (c) 1996-2012 Texas Instruments Incorporated
package/lib/Regression/regress_d_c/./../packages/ti/vlib/src/VLIB_kalmanFilter_2x4_Correct/VLIB_kalmanFilter_2x4_Correct_d.se66 PAGE    2

      56                            .dwattr $C$DW$5, DW_AT_declaration
      57                            .dwattr $C$DW$5, DW_AT_external
      58                            .dwattr $C$DW$5, DW_AT_decl_file("C:/VLIB_Tools/CCSV5_4_0/ccsv5/tools/compiler/C6000/include/c
      59                            .dwattr $C$DW$5, DW_AT_decl_line(0xdf)
      60                            .dwattr $C$DW$5, DW_AT_decl_column(0x0b)
      61                    $C$DW$6 .dwtag  DW_TAG_formal_parameter
      62                            .dwattr $C$DW$6, DW_AT_type(*$C$DW$T$11)
      63                    $C$DW$7 .dwtag  DW_TAG_formal_parameter
      64                            .dwattr $C$DW$7, DW_AT_type(*$C$DW$T$11)
      65                            .dwendtag $C$DW$5
      66                    
      67                    
      68                    $C$DW$8 .dwtag  DW_TAG_subprogram, DW_AT_name("printf")
      69                            .dwattr $C$DW$8, DW_AT_TI_symbol_name("printf")
      70                            .dwattr $C$DW$8, DW_AT_type(*$C$DW$T$10)
      71                            .dwattr $C$DW$8, DW_AT_declaration
      72                            .dwattr $C$DW$8, DW_AT_external
      73                            .dwattr $C$DW$8, DW_AT_decl_file("C:/VLIB_Tools/CCSV5_4_0/ccsv5/tools/compiler/C6000/include/s
      74                            .dwattr $C$DW$8, DW_AT_decl_line(0xb8)
      75                            .dwattr $C$DW$8, DW_AT_decl_column(0x19)
      76                    $C$DW$9 .dwtag  DW_TAG_formal_parameter
      77                            .dwattr $C$DW$9, DW_AT_type(*$C$DW$T$137)
      78                    $C$DW$10        .dwtag  DW_TAG_unspecified_parameters
      79                            .dwendtag $C$DW$8
      80                    
      81                    
      82                    $C$DW$11        .dwtag  DW_TAG_subprogram, DW_AT_name("sprintf")
      83                            .dwattr $C$DW$11, DW_AT_TI_symbol_name("sprintf")
      84                            .dwattr $C$DW$11, DW_AT_type(*$C$DW$T$10)
      85                            .dwattr $C$DW$11, DW_AT_declaration
      86                            .dwattr $C$DW$11, DW_AT_external
      87                            .dwattr $C$DW$11, DW_AT_decl_file("C:/VLIB_Tools/CCSV5_4_0/ccsv5/tools/compiler/C6000/include/
      88                            .dwattr $C$DW$11, DW_AT_decl_line(0xbc)
      89                            .dwattr $C$DW$11, DW_AT_decl_column(0x19)
      90                    $C$DW$12        .dwtag  DW_TAG_formal_parameter
      91                            .dwattr $C$DW$12, DW_AT_type(*$C$DW$T$84)
      92                    $C$DW$13        .dwtag  DW_TAG_formal_parameter
      93                            .dwattr $C$DW$13, DW_AT_type(*$C$DW$T$137)
      94                    $C$DW$14        .dwtag  DW_TAG_unspecified_parameters
      95                            .dwendtag $C$DW$11
      96                    
      97                    
      98                    $C$DW$15        .dwtag  DW_TAG_subprogram, DW_AT_name("memset")
      99                            .dwattr $C$DW$15, DW_AT_TI_symbol_name("memset")
     100                            .dwattr $C$DW$15, DW_AT_type(*$C$DW$T$3)
     101                            .dwattr $C$DW$15, DW_AT_declaration
     102                            .dwattr $C$DW$15, DW_AT_external
     103                            .dwattr $C$DW$15, DW_AT_decl_file("C:/VLIB_Tools/CCSV5_4_0/ccsv5/tools/compiler/C6000/include/
     104                            .dwattr $C$DW$15, DW_AT_decl_line(0x5b)
     105                            .dwattr $C$DW$15, DW_AT_decl_column(0x16)
     106                    $C$DW$16        .dwtag  DW_TAG_formal_parameter
     107                            .dwattr $C$DW$16, DW_AT_type(*$C$DW$T$3)
     108                    $C$DW$17        .dwtag  DW_TAG_formal_parameter
     109                            .dwattr $C$DW$17, DW_AT_type(*$C$DW$T$10)
     110                    $C$DW$18        .dwtag  DW_TAG_formal_parameter
TMS320C6x Assembler PC v7.4.2 Thu Mar 19 12:42:36 2015

Tools Copyright (c) 1996-2012 Texas Instruments Incorporated
package/lib/Regression/regress_d_c/./../packages/ti/vlib/src/VLIB_kalmanFilter_2x4_Correct/VLIB_kalmanFilter_2x4_Correct_d.se66 PAGE    3

     111                            .dwattr $C$DW$18, DW_AT_type(*$C$DW$T$76)
     112                            .dwendtag $C$DW$15
     113                    
     114                    
     115                    $C$DW$19        .dwtag  DW_TAG_subprogram, DW_AT_name("free")
     116                            .dwattr $C$DW$19, DW_AT_TI_symbol_name("free")
     117                            .dwattr $C$DW$19, DW_AT_declaration
     118                            .dwattr $C$DW$19, DW_AT_external
     119                            .dwattr $C$DW$19, DW_AT_decl_file("C:/VLIB_Tools/CCSV5_4_0/ccsv5/tools/compiler/C6000/include/
     120                            .dwattr $C$DW$19, DW_AT_decl_line(0x86)
     121                            .dwattr $C$DW$19, DW_AT_decl_column(0x19)
     122                    $C$DW$20        .dwtag  DW_TAG_formal_parameter
     123                            .dwattr $C$DW$20, DW_AT_type(*$C$DW$T$3)
     124                            .dwendtag $C$DW$19
     125                    
     126                    
     127                    $C$DW$21        .dwtag  DW_TAG_subprogram, DW_AT_name("memalign")
     128                            .dwattr $C$DW$21, DW_AT_TI_symbol_name("memalign")
     129                            .dwattr $C$DW$21, DW_AT_type(*$C$DW$T$3)
     130                            .dwattr $C$DW$21, DW_AT_declaration
     131                            .dwattr $C$DW$21, DW_AT_external
     132                            .dwattr $C$DW$21, DW_AT_decl_file("C:/VLIB_Tools/CCSV5_4_0/ccsv5/tools/compiler/C6000/include/
     133                            .dwattr $C$DW$21, DW_AT_decl_line(0x87)
     134                            .dwattr $C$DW$21, DW_AT_decl_column(0x19)
     135                    $C$DW$22        .dwtag  DW_TAG_formal_parameter
     136                            .dwattr $C$DW$22, DW_AT_type(*$C$DW$T$76)
     137                    $C$DW$23        .dwtag  DW_TAG_formal_parameter
     138                            .dwattr $C$DW$23, DW_AT_type(*$C$DW$T$76)
     139                            .dwendtag $C$DW$21
     140                    
     141                    
     142                    $C$DW$24        .dwtag  DW_TAG_subprogram, DW_AT_name("VLIB_cache_inval")
     143                            .dwattr $C$DW$24, DW_AT_TI_symbol_name("VLIB_cache_inval")
     144                            .dwattr $C$DW$24, DW_AT_type(*$C$DW$T$10)
     145                            .dwattr $C$DW$24, DW_AT_declaration
     146                            .dwattr $C$DW$24, DW_AT_external
     147                            .dwattr $C$DW$24, DW_AT_decl_file(".\..\packages\ti\vlib\src\VLIB_kalmanFilter_2x4_Correct\..\
     148                            .dwattr $C$DW$24, DW_AT_decl_line(0x58)
     149                            .dwattr $C$DW$24, DW_AT_decl_column(0x05)
     150                    
     151                    $C$DW$25        .dwtag  DW_TAG_subprogram, DW_AT_name("VLIB_profile_init")
     152                            .dwattr $C$DW$25, DW_AT_TI_symbol_name("VLIB_profile_init")
     153                            .dwattr $C$DW$25, DW_AT_declaration
     154                            .dwattr $C$DW$25, DW_AT_external
     155                            .dwattr $C$DW$25, DW_AT_decl_file(".\..\packages\ti\vlib\src\VLIB_kalmanFilter_2x4_Correct\..\
     156                            .dwattr $C$DW$25, DW_AT_decl_line(0x7b)
     157                            .dwattr $C$DW$25, DW_AT_decl_column(0x06)
     158                    $C$DW$26        .dwtag  DW_TAG_formal_parameter
     159                            .dwattr $C$DW$26, DW_AT_type(*$C$DW$T$10)
     160                    $C$DW$27        .dwtag  DW_TAG_formal_parameter
     161                            .dwattr $C$DW$27, DW_AT_type(*$C$DW$T$84)
     162                            .dwendtag $C$DW$25
     163                    
     164                    
     165                    $C$DW$28        .dwtag  DW_TAG_subprogram, DW_AT_name("VLIB_formula_add_test")
TMS320C6x Assembler PC v7.4.2 Thu Mar 19 12:42:36 2015

Tools Copyright (c) 1996-2012 Texas Instruments Incorporated
package/lib/Regression/regress_d_c/./../packages/ti/vlib/src/VLIB_kalmanFilter_2x4_Correct/VLIB_kalmanFilter_2x4_Correct_d.se66 PAGE    4

     166                            .dwattr $C$DW$28, DW_AT_TI_symbol_name("VLIB_formula_add_test")
     167                            .dwattr $C$DW$28, DW_AT_declaration
     168                            .dwattr $C$DW$28, DW_AT_external
     169                            .dwattr $C$DW$28, DW_AT_decl_file(".\..\packages\ti\vlib\src\VLIB_kalmanFilter_2x4_Correct\..\
     170                            .dwattr $C$DW$28, DW_AT_decl_line(0x7d)
     171                            .dwattr $C$DW$28, DW_AT_decl_column(0x06)
     172                    $C$DW$29        .dwtag  DW_TAG_formal_parameter
     173                            .dwattr $C$DW$29, DW_AT_type(*$C$DW$T$10)
     174                    $C$DW$30        .dwtag  DW_TAG_formal_parameter
     175                            .dwattr $C$DW$30, DW_AT_type(*$C$DW$T$10)
     176                    $C$DW$31        .dwtag  DW_TAG_formal_parameter
     177                            .dwattr $C$DW$31, DW_AT_type(*$C$DW$T$10)
     178                    $C$DW$32        .dwtag  DW_TAG_formal_parameter
     179                            .dwattr $C$DW$32, DW_AT_type(*$C$DW$T$10)
     180                    $C$DW$33        .dwtag  DW_TAG_formal_parameter
     181                            .dwattr $C$DW$33, DW_AT_type(*$C$DW$T$84)
     182                    $C$DW$34        .dwtag  DW_TAG_formal_parameter
     183                            .dwattr $C$DW$34, DW_AT_type(*$C$DW$T$10)
     184                            .dwendtag $C$DW$28
     185                    
     186                    
     187                    $C$DW$35        .dwtag  DW_TAG_subprogram, DW_AT_name("VLIB_skip_test")
     188                            .dwattr $C$DW$35, DW_AT_TI_symbol_name("VLIB_skip_test")
     189                            .dwattr $C$DW$35, DW_AT_declaration
     190                            .dwattr $C$DW$35, DW_AT_external
     191                            .dwattr $C$DW$35, DW_AT_decl_file(".\..\packages\ti\vlib\src\VLIB_kalmanFilter_2x4_Correct\..\
     192                            .dwattr $C$DW$35, DW_AT_decl_line(0x7e)
     193                            .dwattr $C$DW$35, DW_AT_decl_column(0x06)
     194                    $C$DW$36        .dwtag  DW_TAG_formal_parameter
     195                            .dwattr $C$DW$36, DW_AT_type(*$C$DW$T$84)
     196                            .dwendtag $C$DW$35
     197                    
     198                    
     199                    $C$DW$37        .dwtag  DW_TAG_subprogram, DW_AT_name("VLIB_profile_cycle_report")
     200                            .dwattr $C$DW$37, DW_AT_TI_symbol_name("VLIB_profile_cycle_report")
     201                            .dwattr $C$DW$37, DW_AT_declaration
     202                            .dwattr $C$DW$37, DW_AT_external
     203                            .dwattr $C$DW$37, DW_AT_decl_file(".\..\packages\ti\vlib\src\VLIB_kalmanFilter_2x4_Correct\..\
     204                            .dwattr $C$DW$37, DW_AT_decl_line(0x7f)
     205                            .dwattr $C$DW$37, DW_AT_decl_column(0x06)
     206                    $C$DW$38        .dwtag  DW_TAG_formal_parameter
     207                            .dwattr $C$DW$38, DW_AT_type(*$C$DW$T$10)
     208                    $C$DW$39        .dwtag  DW_TAG_formal_parameter
     209                            .dwattr $C$DW$39, DW_AT_type(*$C$DW$T$84)
     210                    $C$DW$40        .dwtag  DW_TAG_formal_parameter
     211                            .dwattr $C$DW$40, DW_AT_type(*$C$DW$T$84)
     212                            .dwendtag $C$DW$37
     213                    
     214                    
     215                    $C$DW$41        .dwtag  DW_TAG_subprogram, DW_AT_name("initStack")
     216                            .dwattr $C$DW$41, DW_AT_TI_symbol_name("initStack")
     217                            .dwattr $C$DW$41, DW_AT_declaration
     218                            .dwattr $C$DW$41, DW_AT_external
     219                            .dwattr $C$DW$41, DW_AT_decl_file(".\..\packages\ti\vlib\src\VLIB_kalmanFilter_2x4_Correct\..\
     220                            .dwattr $C$DW$41, DW_AT_decl_line(0x80)
TMS320C6x Assembler PC v7.4.2 Thu Mar 19 12:42:36 2015

Tools Copyright (c) 1996-2012 Texas Instruments Incorporated
package/lib/Regression/regress_d_c/./../packages/ti/vlib/src/VLIB_kalmanFilter_2x4_Correct/VLIB_kalmanFilter_2x4_Correct_d.se66 PAGE    5

     221                            .dwattr $C$DW$41, DW_AT_decl_column(0x06)
     222                    $C$DW$42        .dwtag  DW_TAG_formal_parameter
     223                            .dwattr $C$DW$42, DW_AT_type(*$C$DW$T$93)
     224                            .dwendtag $C$DW$41
     225                    
     226                    
     227                    $C$DW$43        .dwtag  DW_TAG_subprogram, DW_AT_name("setStackDepth")
     228                            .dwattr $C$DW$43, DW_AT_TI_symbol_name("setStackDepth")
     229                            .dwattr $C$DW$43, DW_AT_declaration
     230                            .dwattr $C$DW$43, DW_AT_external
     231                            .dwattr $C$DW$43, DW_AT_decl_file(".\..\packages\ti\vlib\src\VLIB_kalmanFilter_2x4_Correct\..\
     232                            .dwattr $C$DW$43, DW_AT_decl_line(0x81)
     233                            .dwattr $C$DW$43, DW_AT_decl_column(0x06)
     234                    
     235                    $C$DW$44        .dwtag  DW_TAG_subprogram, DW_AT_name("getSP")
     236                            .dwattr $C$DW$44, DW_AT_TI_symbol_name("getSP")
     237                            .dwattr $C$DW$44, DW_AT_type(*$C$DW$T$93)
     238                            .dwattr $C$DW$44, DW_AT_declaration
     239                            .dwattr $C$DW$44, DW_AT_external
     240                            .dwattr $C$DW$44, DW_AT_decl_file(".\..\packages\ti\vlib\src\VLIB_kalmanFilter_2x4_Correct\..\
     241                            .dwattr $C$DW$44, DW_AT_decl_line(0x82)
     242                            .dwattr $C$DW$44, DW_AT_decl_column(0x0a)
     243                    
     244                    $C$DW$45        .dwtag  DW_TAG_subprogram, DW_AT_name("VLIB_stack_memory")
     245                            .dwattr $C$DW$45, DW_AT_TI_symbol_name("VLIB_stack_memory")
     246                            .dwattr $C$DW$45, DW_AT_declaration
     247                            .dwattr $C$DW$45, DW_AT_external
     248                            .dwattr $C$DW$45, DW_AT_decl_file(".\..\packages\ti\vlib\src\VLIB_kalmanFilter_2x4_Correct\..\
     249                            .dwattr $C$DW$45, DW_AT_decl_line(0x83)
     250                            .dwattr $C$DW$45, DW_AT_decl_column(0x06)
     251                    
     252                    $C$DW$46        .dwtag  DW_TAG_subprogram, DW_AT_name("VLIB_compare_mem")
     253                            .dwattr $C$DW$46, DW_AT_TI_symbol_name("VLIB_compare_mem")
     254                            .dwattr $C$DW$46, DW_AT_type(*$C$DW$T$29)
     255                            .dwattr $C$DW$46, DW_AT_declaration
     256                            .dwattr $C$DW$46, DW_AT_external
     257                            .dwattr $C$DW$46, DW_AT_decl_file(".\..\packages\ti\vlib\src\VLIB_kalmanFilter_2x4_Correct\../
     258                            .dwattr $C$DW$46, DW_AT_decl_line(0x6f)
     259                            .dwattr $C$DW$46, DW_AT_decl_column(0x11)
     260                    $C$DW$47        .dwtag  DW_TAG_formal_parameter
     261                            .dwattr $C$DW$47, DW_AT_type(*$C$DW$T$73)
     262                    $C$DW$48        .dwtag  DW_TAG_formal_parameter
     263                            .dwattr $C$DW$48, DW_AT_type(*$C$DW$T$73)
     264                    $C$DW$49        .dwtag  DW_TAG_formal_parameter
     265                            .dwattr $C$DW$49, DW_AT_type(*$C$DW$T$29)
     266                            .dwendtag $C$DW$46
     267                    
     268                    
     269                    $C$DW$50        .dwtag  DW_TAG_subprogram, DW_AT_name("VLIB_fillBuffer")
     270                            .dwattr $C$DW$50, DW_AT_TI_symbol_name("VLIB_fillBuffer")
     271                            .dwattr $C$DW$50, DW_AT_declaration
     272                            .dwattr $C$DW$50, DW_AT_external
     273                            .dwattr $C$DW$50, DW_AT_decl_file(".\..\packages\ti\vlib\src\VLIB_kalmanFilter_2x4_Correct\../
     274                            .dwattr $C$DW$50, DW_AT_decl_line(0x77)
     275                            .dwattr $C$DW$50, DW_AT_decl_column(0x06)
TMS320C6x Assembler PC v7.4.2 Thu Mar 19 12:42:36 2015

Tools Copyright (c) 1996-2012 Texas Instruments Incorporated
package/lib/Regression/regress_d_c/./../packages/ti/vlib/src/VLIB_kalmanFilter_2x4_Correct/VLIB_kalmanFilter_2x4_Correct_d.se66 PAGE    6

     276                    $C$DW$51        .dwtag  DW_TAG_formal_parameter
     277                            .dwattr $C$DW$51, DW_AT_type(*$C$DW$T$19)
     278                    $C$DW$52        .dwtag  DW_TAG_formal_parameter
     279                            .dwattr $C$DW$52, DW_AT_type(*$C$DW$T$19)
     280                    $C$DW$53        .dwtag  DW_TAG_formal_parameter
     281                            .dwattr $C$DW$53, DW_AT_type(*$C$DW$T$3)
     282                    $C$DW$54        .dwtag  DW_TAG_formal_parameter
     283                            .dwattr $C$DW$54, DW_AT_type(*$C$DW$T$3)
     284                    $C$DW$55        .dwtag  DW_TAG_formal_parameter
     285                            .dwattr $C$DW$55, DW_AT_type(*$C$DW$T$22)
     286                    $C$DW$56        .dwtag  DW_TAG_formal_parameter
     287                            .dwattr $C$DW$56, DW_AT_type(*$C$DW$T$22)
     288                    $C$DW$57        .dwtag  DW_TAG_formal_parameter
     289                            .dwattr $C$DW$57, DW_AT_type(*$C$DW$T$22)
     290                    $C$DW$58        .dwtag  DW_TAG_formal_parameter
     291                            .dwattr $C$DW$58, DW_AT_type(*$C$DW$T$19)
     292                    $C$DW$59        .dwtag  DW_TAG_formal_parameter
     293                            .dwattr $C$DW$59, DW_AT_type(*$C$DW$T$84)
     294                            .dwendtag $C$DW$50
     295                    
     296                    
     297                    $C$DW$60        .dwtag  DW_TAG_subprogram, DW_AT_name("VLIB_memalign")
     298                            .dwattr $C$DW$60, DW_AT_TI_symbol_name("VLIB_memalign")
     299                            .dwattr $C$DW$60, DW_AT_type(*$C$DW$T$3)
     300                            .dwattr $C$DW$60, DW_AT_declaration
     301                            .dwattr $C$DW$60, DW_AT_external
     302                            .dwattr $C$DW$60, DW_AT_decl_file(".\..\packages\ti\vlib\src\VLIB_kalmanFilter_2x4_Correct\../
     303                            .dwattr $C$DW$60, DW_AT_decl_line(0xae)
     304                            .dwattr $C$DW$60, DW_AT_decl_column(0x07)
     305                    $C$DW$61        .dwtag  DW_TAG_formal_parameter
     306                            .dwattr $C$DW$61, DW_AT_type(*$C$DW$T$76)
     307                    $C$DW$62        .dwtag  DW_TAG_formal_parameter
     308                            .dwattr $C$DW$62, DW_AT_type(*$C$DW$T$76)
     309                            .dwendtag $C$DW$60
     310                    
     311                    
     312                    $C$DW$63        .dwtag  DW_TAG_subprogram, DW_AT_name("VLIB_align_free")
     313                            .dwattr $C$DW$63, DW_AT_TI_symbol_name("VLIB_align_free")
     314                            .dwattr $C$DW$63, DW_AT_declaration
     315                            .dwattr $C$DW$63, DW_AT_external
     316                            .dwattr $C$DW$63, DW_AT_decl_file(".\..\packages\ti\vlib\src\VLIB_kalmanFilter_2x4_Correct\../
     317                            .dwattr $C$DW$63, DW_AT_decl_line(0xb3)
     318                            .dwattr $C$DW$63, DW_AT_decl_column(0x07)
     319                    $C$DW$64        .dwtag  DW_TAG_formal_parameter
     320                            .dwattr $C$DW$64, DW_AT_type(*$C$DW$T$3)
     321                            .dwendtag $C$DW$63
     322                    
     323                    
     324                    $C$DW$65        .dwtag  DW_TAG_subprogram, DW_AT_name("VLIB_kalmanFilter_2x4_Predict_cn")
     325                            .dwattr $C$DW$65, DW_AT_TI_symbol_name("VLIB_kalmanFilter_2x4_Predict_cn")
     326                            .dwattr $C$DW$65, DW_AT_declaration
     327                            .dwattr $C$DW$65, DW_AT_external
     328                            .dwattr $C$DW$65, DW_AT_decl_file(".\..\packages\ti\vlib\src\VLIB_kalmanFilter_2x4_Correct\../
     329                            .dwattr $C$DW$65, DW_AT_decl_line(0x22)
     330                            .dwattr $C$DW$65, DW_AT_decl_column(0x06)
TMS320C6x Assembler PC v7.4.2 Thu Mar 19 12:42:36 2015

Tools Copyright (c) 1996-2012 Texas Instruments Incorporated
package/lib/Regression/regress_d_c/./../packages/ti/vlib/src/VLIB_kalmanFilter_2x4_Correct/VLIB_kalmanFilter_2x4_Correct_d.se66 PAGE    7

     331                    $C$DW$66        .dwtag  DW_TAG_formal_parameter
     332                            .dwattr $C$DW$66, DW_AT_type(*$C$DW$T$102)
     333                            .dwendtag $C$DW$65
     334                    
     335                    
     336                    $C$DW$67        .dwtag  DW_TAG_subprogram, DW_AT_name("VLIB_kalmanFilter_2x4_Correct")
     337                            .dwattr $C$DW$67, DW_AT_TI_symbol_name("VLIB_kalmanFilter_2x4_Correct")
     338                            .dwattr $C$DW$67, DW_AT_declaration
     339                            .dwattr $C$DW$67, DW_AT_external
     340                            .dwattr $C$DW$67, DW_AT_decl_file(".\..\packages\ti\vlib\src\VLIB_kalmanFilter_2x4_Correct\c66
     341                            .dwattr $C$DW$67, DW_AT_decl_line(0x7c)
     342                            .dwattr $C$DW$67, DW_AT_decl_column(0x06)
     343                    $C$DW$68        .dwtag  DW_TAG_formal_parameter
     344                            .dwattr $C$DW$68, DW_AT_type(*$C$DW$T$102)
     345                    $C$DW$69        .dwtag  DW_TAG_formal_parameter
     346                            .dwattr $C$DW$69, DW_AT_type(*$C$DW$T$107)
     347                    $C$DW$70        .dwtag  DW_TAG_formal_parameter
     348                            .dwattr $C$DW$70, DW_AT_type(*$C$DW$T$108)
     349                            .dwendtag $C$DW$67
     350                    
     351                    
     352                    $C$DW$71        .dwtag  DW_TAG_subprogram, DW_AT_name("VLIB_kalmanFilter_2x4_Correct_cn")
     353                            .dwattr $C$DW$71, DW_AT_TI_symbol_name("VLIB_kalmanFilter_2x4_Correct_cn")
     354                            .dwattr $C$DW$71, DW_AT_declaration
     355                            .dwattr $C$DW$71, DW_AT_external
     356                            .dwattr $C$DW$71, DW_AT_decl_file(".\..\packages\ti\vlib\src\VLIB_kalmanFilter_2x4_Correct\VLI
     357                            .dwattr $C$DW$71, DW_AT_decl_line(0x22)
     358                            .dwattr $C$DW$71, DW_AT_decl_column(0x06)
     359                    $C$DW$72        .dwtag  DW_TAG_formal_parameter
     360                            .dwattr $C$DW$72, DW_AT_type(*$C$DW$T$102)
     361                    $C$DW$73        .dwtag  DW_TAG_formal_parameter
     362                            .dwattr $C$DW$73, DW_AT_type(*$C$DW$T$108)
     363                    $C$DW$74        .dwtag  DW_TAG_formal_parameter
     364                            .dwattr $C$DW$74, DW_AT_type(*$C$DW$T$108)
     365                            .dwendtag $C$DW$71
     366                    
     367                    
     368                    $C$DW$75        .dwtag  DW_TAG_subprogram, DW_AT_name("kalmanFilter_2x4_Correct_getTestParams")
     369                            .dwattr $C$DW$75, DW_AT_TI_symbol_name("kalmanFilter_2x4_Correct_getTestParams")
     370                            .dwattr $C$DW$75, DW_AT_declaration
     371                            .dwattr $C$DW$75, DW_AT_external
     372                            .dwattr $C$DW$75, DW_AT_decl_file(".\..\packages\ti\vlib\src\VLIB_kalmanFilter_2x4_Correct\VLI
     373                            .dwattr $C$DW$75, DW_AT_decl_line(0x2a)
     374                            .dwattr $C$DW$75, DW_AT_decl_column(0x06)
     375                    $C$DW$76        .dwtag  DW_TAG_formal_parameter
     376                            .dwattr $C$DW$76, DW_AT_type(*$C$DW$T$66)
     377                    $C$DW$77        .dwtag  DW_TAG_formal_parameter
     378                            .dwattr $C$DW$77, DW_AT_type(*$C$DW$T$113)
     379                            .dwendtag $C$DW$75
     380                    
     381                    $C$DW$78        .dwtag  DW_TAG_variable, DW_AT_name("test_cases")
     382                            .dwattr $C$DW$78, DW_AT_TI_symbol_name("test_cases")
     383                            .dwattr $C$DW$78, DW_AT_type(*$C$DW$T$29)
     384                            .dwattr $C$DW$78, DW_AT_declaration
     385                            .dwattr $C$DW$78, DW_AT_external
TMS320C6x Assembler PC v7.4.2 Thu Mar 19 12:42:36 2015

Tools Copyright (c) 1996-2012 Texas Instruments Incorporated
package/lib/Regression/regress_d_c/./../packages/ti/vlib/src/VLIB_kalmanFilter_2x4_Correct/VLIB_kalmanFilter_2x4_Correct_d.se66 PAGE    8

     386                            .dwattr $C$DW$78, DW_AT_decl_file(".\..\packages\ti\vlib\src\VLIB_kalmanFilter_2x4_Correct\../
     387                            .dwattr $C$DW$78, DW_AT_decl_line(0x60)
     388                            .dwattr $C$DW$78, DW_AT_decl_column(0x13)
     389                    $C$DW$79        .dwtag  DW_TAG_variable, DW_AT_name("act_kernel")
     390                            .dwattr $C$DW$79, DW_AT_TI_symbol_name("act_kernel")
     391                            .dwattr $C$DW$79, DW_AT_type(*$C$DW$T$10)
     392                            .dwattr $C$DW$79, DW_AT_declaration
     393                            .dwattr $C$DW$79, DW_AT_external
     394                            .dwattr $C$DW$79, DW_AT_decl_file(".\..\packages\ti\vlib\src\VLIB_kalmanFilter_2x4_Correct\../
     395                            .dwattr $C$DW$79, DW_AT_decl_line(0x62)
     396                            .dwattr $C$DW$79, DW_AT_decl_column(0x13)
     397                    $C$DW$80        .dwtag  DW_TAG_variable, DW_AT_name("desc")
     398                            .dwattr $C$DW$80, DW_AT_TI_symbol_name("desc")
     399                            .dwattr $C$DW$80, DW_AT_type(*$C$DW$T$189)
     400                            .dwattr $C$DW$80, DW_AT_declaration
     401                            .dwattr $C$DW$80, DW_AT_external
     402                            .dwattr $C$DW$80, DW_AT_decl_file(".\..\packages\ti\vlib\src\VLIB_kalmanFilter_2x4_Correct\../
     403                            .dwattr $C$DW$80, DW_AT_decl_line(0x63)
     404                            .dwattr $C$DW$80, DW_AT_decl_column(0x13)
     405                    $C$DW$81        .dwtag  DW_TAG_variable, DW_AT_name("testPatternString")
     406                            .dwattr $C$DW$81, DW_AT_TI_symbol_name("testPatternString")
     407                            .dwattr $C$DW$81, DW_AT_type(*$C$DW$T$189)
     408                            .dwattr $C$DW$81, DW_AT_declaration
     409                            .dwattr $C$DW$81, DW_AT_external
     410                            .dwattr $C$DW$81, DW_AT_decl_file(".\..\packages\ti\vlib\src\VLIB_kalmanFilter_2x4_Correct\../
     411                            .dwattr $C$DW$81, DW_AT_decl_line(0x64)
     412                            .dwattr $C$DW$81, DW_AT_decl_column(0x13)
     413                    $C$DW$82        .dwtag  DW_TAG_variable, DW_AT_name("est_test")
     414                            .dwattr $C$DW$82, DW_AT_TI_symbol_name("est_test")
     415                            .dwattr $C$DW$82, DW_AT_type(*$C$DW$T$10)
     416                            .dwattr $C$DW$82, DW_AT_declaration
     417                            .dwattr $C$DW$82, DW_AT_external
     418                            .dwattr $C$DW$82, DW_AT_decl_file(".\..\packages\ti\vlib\src\VLIB_kalmanFilter_2x4_Correct\..\
     419                            .dwattr $C$DW$82, DW_AT_decl_line(0x75)
     420                            .dwattr $C$DW$82, DW_AT_decl_column(0x14)
     421                    $C$DW$83        .dwtag  DW_TAG_variable, DW_AT_name("beg_count")
     422                            .dwattr $C$DW$83, DW_AT_TI_symbol_name("beg_count")
     423                            .dwattr $C$DW$83, DW_AT_type(*$C$DW$T$180)
     424                            .dwattr $C$DW$83, DW_AT_declaration
     425                            .dwattr $C$DW$83, DW_AT_external
     426                            .dwattr $C$DW$83, DW_AT_decl_file(".\..\packages\ti\vlib\src\VLIB_kalmanFilter_2x4_Correct\..\
     427                            .dwattr $C$DW$83, DW_AT_decl_line(0x76)
     428                            .dwattr $C$DW$83, DW_AT_decl_column(0x14)
     429                    $C$DW$84        .dwtag  DW_TAG_variable, DW_AT_name("end_count")
     430                            .dwattr $C$DW$84, DW_AT_TI_symbol_name("end_count")
     431                            .dwattr $C$DW$84, DW_AT_type(*$C$DW$T$180)
     432                            .dwattr $C$DW$84, DW_AT_declaration
     433                            .dwattr $C$DW$84, DW_AT_external
     434                            .dwattr $C$DW$84, DW_AT_decl_file(".\..\packages\ti\vlib\src\VLIB_kalmanFilter_2x4_Correct\..\
     435                            .dwattr $C$DW$84, DW_AT_decl_line(0x77)
     436                            .dwattr $C$DW$84, DW_AT_decl_column(0x14)
     437                    $C$DW$85        .dwtag  DW_TAG_variable, DW_AT_name("overhead")
     438                            .dwattr $C$DW$85, DW_AT_TI_symbol_name("overhead")
     439                            .dwattr $C$DW$85, DW_AT_type(*$C$DW$T$180)
     440                            .dwattr $C$DW$85, DW_AT_declaration
TMS320C6x Assembler PC v7.4.2 Thu Mar 19 12:42:36 2015

Tools Copyright (c) 1996-2012 Texas Instruments Incorporated
package/lib/Regression/regress_d_c/./../packages/ti/vlib/src/VLIB_kalmanFilter_2x4_Correct/VLIB_kalmanFilter_2x4_Correct_d.se66 PAGE    9

     441                            .dwattr $C$DW$85, DW_AT_external
     442                            .dwattr $C$DW$85, DW_AT_decl_file(".\..\packages\ti\vlib\src\VLIB_kalmanFilter_2x4_Correct\..\
     443                            .dwattr $C$DW$85, DW_AT_decl_line(0x78)
     444                            .dwattr $C$DW$85, DW_AT_decl_column(0x14)
     445                    $C$DW$86        .dwtag  DW_TAG_variable, DW_AT_name("cycles")
     446                            .dwattr $C$DW$86, DW_AT_TI_symbol_name("cycles")
     447                            .dwattr $C$DW$86, DW_AT_type(*$C$DW$T$181)
     448                            .dwattr $C$DW$86, DW_AT_declaration
     449                            .dwattr $C$DW$86, DW_AT_external
     450                            .dwattr $C$DW$86, DW_AT_decl_file(".\..\packages\ti\vlib\src\VLIB_kalmanFilter_2x4_Correct\..\
     451                            .dwattr $C$DW$86, DW_AT_decl_line(0x79)
     452                            .dwattr $C$DW$86, DW_AT_decl_column(0x14)
     453                    ;       C:\VLIB_Tools\CCSV5_4_0\ccsv5\tools\compiler\C6000\bin\opt6x.exe C:\\Users\\gtbldadm\\AppData\
     454 00000000                   .sect   ".text"
     455                            .clink
     456                            .global VLIB_kalmanFilter_2x4_Correct_d
     457                    
     458                    $C$DW$87        .dwtag  DW_TAG_subprogram, DW_AT_name("VLIB_kalmanFilter_2x4_Correct_d")
     459                            .dwattr $C$DW$87, DW_AT_low_pc(VLIB_kalmanFilter_2x4_Correct_d)
     460                            .dwattr $C$DW$87, DW_AT_high_pc(0x00)
     461                            .dwattr $C$DW$87, DW_AT_TI_symbol_name("VLIB_kalmanFilter_2x4_Correct_d")
     462                            .dwattr $C$DW$87, DW_AT_external
     463                            .dwattr $C$DW$87, DW_AT_TI_begin_file("./../packages/ti/vlib/src/VLIB_kalmanFilter_2x4_Correct
     464                            .dwattr $C$DW$87, DW_AT_TI_begin_line(0x28)
     465                            .dwattr $C$DW$87, DW_AT_TI_begin_column(0x06)
     466                            .dwattr $C$DW$87, DW_AT_decl_file("./../packages/ti/vlib/src/VLIB_kalmanFilter_2x4_Correct/VLI
     467                            .dwattr $C$DW$87, DW_AT_decl_line(0x28)
     468                            .dwattr $C$DW$87, DW_AT_decl_column(0x06)
     469                            .dwattr $C$DW$87, DW_AT_TI_max_frame_size(0x68)
     470                            .dwpsn  file "./../packages/ti/vlib/src/VLIB_kalmanFilter_2x4_Correct/VLIB_kalmanFilter_2x4_Co
     471                    
     472                            .dwfde $C$DW$CIE, VLIB_kalmanFilter_2x4_Correct_d
     473                    $C$DW$88        .dwtag  DW_TAG_formal_parameter, DW_AT_name("LevelOfFeedback")
     474                            .dwattr $C$DW$88, DW_AT_TI_symbol_name("LevelOfFeedback")
     475                            .dwattr $C$DW$88, DW_AT_type(*$C$DW$T$19)
     476                            .dwattr $C$DW$88, DW_AT_location[DW_OP_reg4]
     477                    ;----------------------------------------------------------------------
     478                    ;  40 | void VLIB_kalmanFilter_2x4_Correct_d (uint8_t LevelOfFeedback)         
     479                    ;----------------------------------------------------------------------
     480                    
     481                    ;******************************************************************************
     482                    ;* FUNCTION NAME: VLIB_kalmanFilter_2x4_Correct_d                             *
     483                    ;*                                                                            *
     484                    ;*   Regs Modified     : A0,A1,A2,A3,A4,A5,A6,A7,A8,A9,A10,A11,A12,A13,A14,   *
     485                    ;*                           A15,B0,B1,B2,B3,B4,B5,B6,B7,B8,B9,B10,B11,B12,   *
     486                    ;*                           B13,SP,A16,A17,A18,A19,A20,A21,A22,A23,A24,A25,  *
     487                    ;*                           A26,A27,A28,A29,A30,A31,B16,B17,B18,B19,B20,B21, *
     488                    ;*                           B22,B23,B24,B25,B26,B27,B28,B29,B30,B31          *
     489                    ;*   Regs Used         : A0,A1,A2,A3,A4,A5,A6,A7,A8,A9,A10,A11,A12,A13,A14,   *
     490                    ;*                           A15,B0,B1,B2,B3,B4,B5,B6,B7,B8,B9,B10,B11,B12,   *
     491                    ;*                           B13,DP,SP,A16,A17,A18,A19,A20,A21,A22,A23,A24,   *
     492                    ;*                           A25,A26,A27,A28,A29,A30,A31,B16,B17,B18,B19,B20, *
     493                    ;*                           B21,B22,B23,B24,B25,B26,B27,B28,B29,B30,B31      *
     494                    ;*   Local Frame Size  : 16 Args + 28 Auto + 56 Save = 100 byte               *
     495                    ;******************************************************************************
TMS320C6x Assembler PC v7.4.2 Thu Mar 19 12:42:36 2015

Tools Copyright (c) 1996-2012 Texas Instruments Incorporated
package/lib/Regression/regress_d_c/./../packages/ti/vlib/src/VLIB_kalmanFilter_2x4_Correct/VLIB_kalmanFilter_2x4_Correct_d.se66 PAGE   10

     496                    
     497                    ;******************************************************************************
     498                    ;*                                                                            *
     499                    ;* Using -g (debug) with optimization (-o3) may disable key optimizations!    *
     500                    ;*                                                                            *
     501                    ;******************************************************************************
     502 00000000           VLIB_kalmanFilter_2x4_Correct_d:
     503                    ;** --------------------------------------------------------------------------*
     504                    ;          EXCLUSIVE CPU CYCLES: 15
     505                    ;** 47  -----------------------    kalmanFilter_2x4_Correct_getTestParams(&prm, &test_cases);
     506                    ;** 50  -----------------------    VLIB_profile_init(2, "VLIB_kalmanFilter_2x4_Correct");
     507                    ;** 53  -----------------------    if ( test_cases <= 0 ) goto g13;
     508                            .dwcfi  cfa_offset, 0
     509                    ;----------------------------------------------------------------------
     510                    ;  42 | int32_t    tpi;  /* test parameter index */                            
     511                    ;  45 | kalmanFilter_2x4_Correct_testParams_t   *prm;                          
     512                    ;----------------------------------------------------------------------
     513 00000000     25f7             STW     .D2T1   A11,*SP--(8)      ; |41| 
     514                            .dwcfi  cfa_offset, 8
     515                            .dwcfi  save_reg_to_mem, 11, 0
     516 00000002     2577             STW     .D2T1   A10,*SP--(8)      ; |41| 
     517                            .dwcfi  cfa_offset, 16
     518                            .dwcfi  save_reg_to_mem, 10, -8
     519 00000004     9677             STDW    .D2T2   B13:B12,*SP--     ; |41| 
     520                            .dwcfi  cfa_offset, 24
     521                            .dwcfi  save_reg_to_mem, 29, -12
     522                            .dwcfi  save_reg_to_mem, 28, -16
     523 00000006     9577             STDW    .D2T2   B11:B10,*SP--     ; |41| 
     524                            .dwcfi  cfa_offset, 32
     525                            .dwcfi  save_reg_to_mem, 27, -20
     526                            .dwcfi  save_reg_to_mem, 26, -24
     527 00000008     8777             STDW    .D2T1   A15:A14,*SP--     ; |41| 
     528                            .dwcfi  cfa_offset, 40
     529                            .dwcfi  save_reg_to_mem, 15, -28
     530                            .dwcfi  save_reg_to_mem, 14, -32
     531 0000000a     8677             STDW    .D2T1   A13:A12,*SP--     ; |41| 
     532                            .dwcfi  cfa_offset, 48
     533                            .dwcfi  save_reg_to_mem, 13, -36
     534                            .dwcfi  save_reg_to_mem, 12, -40
     535 0000000c 01bdd4f6             STW     .D2T2   B3,*SP--(56)      ; |41| 
     536                            .dwcfi  cfa_offset, 104
     537                            .dwcfi  save_reg_to_mem, 19, 0
     538                    $C$DW$89        .dwtag  DW_TAG_variable, DW_AT_name("$O$C1")
     539                            .dwattr $C$DW$89, DW_AT_TI_symbol_name("$O$C1")
     540                            .dwattr $C$DW$89, DW_AT_type(*$C$DW$T$10)
     541                            .dwattr $C$DW$89, DW_AT_location[DW_OP_reg3]
     542                    $C$DW$90        .dwtag  DW_TAG_variable, DW_AT_name("$O$C2")
     543                            .dwattr $C$DW$90, DW_AT_TI_symbol_name("$O$C2")
     544                            .dwattr $C$DW$90, DW_AT_type(*$C$DW$T$10)
     545                            .dwattr $C$DW$90, DW_AT_location[DW_OP_reg3]
     546                    $C$DW$91        .dwtag  DW_TAG_variable, DW_AT_name("$O$C3")
     547                            .dwattr $C$DW$91, DW_AT_TI_symbol_name("$O$C3")
     548                            .dwattr $C$DW$91, DW_AT_type(*$C$DW$T$10)
     549                            .dwattr $C$DW$91, DW_AT_location[DW_OP_reg3]
     550                    $C$DW$92        .dwtag  DW_TAG_variable, DW_AT_name("$O$C4")
TMS320C6x Assembler PC v7.4.2 Thu Mar 19 12:42:36 2015

Tools Copyright (c) 1996-2012 Texas Instruments Incorporated
package/lib/Regression/regress_d_c/./../packages/ti/vlib/src/VLIB_kalmanFilter_2x4_Correct/VLIB_kalmanFilter_2x4_Correct_d.se66 PAGE   11

     551                            .dwattr $C$DW$92, DW_AT_TI_symbol_name("$O$C4")
     552                            .dwattr $C$DW$92, DW_AT_type(*$C$DW$T$10)
     553                            .dwattr $C$DW$92, DW_AT_location[DW_OP_reg20]
     554                    $C$DW$93        .dwtag  DW_TAG_variable, DW_AT_name("$O$C5")
     555                            .dwattr $C$DW$93, DW_AT_TI_symbol_name("$O$C5")
     556                            .dwattr $C$DW$93, DW_AT_type(*$C$DW$T$130)
     557                            .dwattr $C$DW$93, DW_AT_location[DW_OP_reg6]
     558                    $C$DW$94        .dwtag  DW_TAG_variable, DW_AT_name("$O$C6")
     559                            .dwattr $C$DW$94, DW_AT_TI_symbol_name("$O$C6")
     560                            .dwattr $C$DW$94, DW_AT_type(*$C$DW$T$130)
     561                            .dwattr $C$DW$94, DW_AT_location[DW_OP_reg5]
     562                    $C$DW$95        .dwtag  DW_TAG_variable, DW_AT_name("$O$C7")
     563                            .dwattr $C$DW$95, DW_AT_TI_symbol_name("$O$C7")
     564                            .dwattr $C$DW$95, DW_AT_type(*$C$DW$T$9)
     565                            .dwattr $C$DW$95, DW_AT_location[DW_OP_reg3]
     566                    $C$DW$96        .dwtag  DW_TAG_variable, DW_AT_name("$O$U15")
     567                            .dwattr $C$DW$96, DW_AT_TI_symbol_name("$O$U15")
     568                            .dwattr $C$DW$96, DW_AT_type(*$C$DW$T$62)
     569                            .dwattr $C$DW$96, DW_AT_location[DW_OP_reg11]
     570                    $C$DW$97        .dwtag  DW_TAG_variable, DW_AT_name("$O$K23")
     571                            .dwattr $C$DW$97, DW_AT_TI_symbol_name("$O$K23")
     572                            .dwattr $C$DW$97, DW_AT_type(*$C$DW$T$11)
     573                            .dwattr $C$DW$97, DW_AT_location[DW_OP_reg27]
     574                    $C$DW$98        .dwtag  DW_TAG_variable, DW_AT_name("$O$K41")
     575                            .dwattr $C$DW$98, DW_AT_TI_symbol_name("$O$K41")
     576                            .dwattr $C$DW$98, DW_AT_type(*$C$DW$T$117)
     577                            .dwattr $C$DW$98, DW_AT_location[DW_OP_reg28]
     578                    $C$DW$99        .dwtag  DW_TAG_variable, DW_AT_name("$O$K50")
     579                            .dwattr $C$DW$99, DW_AT_TI_symbol_name("$O$K50")
     580                            .dwattr $C$DW$99, DW_AT_type(*$C$DW$T$10)
     581                            .dwattr $C$DW$99, DW_AT_location[DW_OP_reg4]
     582                    $C$DW$100       .dwtag  DW_TAG_variable, DW_AT_name("$O$K56")
     583                            .dwattr $C$DW$100, DW_AT_TI_symbol_name("$O$K56")
     584                            .dwattr $C$DW$100, DW_AT_type(*$C$DW$T$10)
     585                            .dwattr $C$DW$100, DW_AT_location[DW_OP_reg13]
     586                    $C$DW$101       .dwtag  DW_TAG_variable, DW_AT_name("$O$K100")
     587                            .dwattr $C$DW$101, DW_AT_TI_symbol_name("$O$K100")
     588                            .dwattr $C$DW$101, DW_AT_type(*$C$DW$T$10)
     589                            .dwattr $C$DW$101, DW_AT_location[DW_OP_regx 0x30]
     590                    $C$DW$102       .dwtag  DW_TAG_variable, DW_AT_name("$O$K136")
     591                            .dwattr $C$DW$102, DW_AT_TI_symbol_name("$O$K136")
     592                            .dwattr $C$DW$102, DW_AT_type(*$C$DW$T$10)
     593                            .dwattr $C$DW$102, DW_AT_location[DW_OP_regx 0x33]
     594                    $C$DW$103       .dwtag  DW_TAG_variable, DW_AT_name("$O$U166")
     595                            .dwattr $C$DW$103, DW_AT_TI_symbol_name("$O$U166")
     596                            .dwattr $C$DW$103, DW_AT_type(*$C$DW$T$75)
     597                            .dwattr $C$DW$103, DW_AT_location[DW_OP_reg26]
     598                    $C$DW$104       .dwtag  DW_TAG_variable, DW_AT_name("$O$K167")
     599                            .dwattr $C$DW$104, DW_AT_TI_symbol_name("$O$K167")
     600                            .dwattr $C$DW$104, DW_AT_type(*$C$DW$T$10)
     601                            .dwattr $C$DW$104, DW_AT_location[DW_OP_regx 0x34]
     602                    $C$DW$105       .dwtag  DW_TAG_variable, DW_AT_name("$O$K189")
     603                            .dwattr $C$DW$105, DW_AT_TI_symbol_name("$O$K189")
     604                            .dwattr $C$DW$105, DW_AT_type(*$C$DW$T$179)
     605                            .dwattr $C$DW$105, DW_AT_location[DW_OP_reg10]
TMS320C6x Assembler PC v7.4.2 Thu Mar 19 12:42:36 2015

Tools Copyright (c) 1996-2012 Texas Instruments Incorporated
package/lib/Regression/regress_d_c/./../packages/ti/vlib/src/VLIB_kalmanFilter_2x4_Correct/VLIB_kalmanFilter_2x4_Correct_d.se66 PAGE   12

     606                    $C$DW$106       .dwtag  DW_TAG_variable, DW_AT_name("$O$U200")
     607                            .dwattr $C$DW$106, DW_AT_TI_symbol_name("$O$U200")
     608                            .dwattr $C$DW$106, DW_AT_type(*$C$DW$T$3)
     609                            .dwattr $C$DW$106, DW_AT_location[DW_OP_reg10]
     610                    $C$DW$107       .dwtag  DW_TAG_variable, DW_AT_name("$O$U204")
     611                            .dwattr $C$DW$107, DW_AT_TI_symbol_name("$O$U204")
     612                            .dwattr $C$DW$107, DW_AT_type(*$C$DW$T$130)
     613                            .dwattr $C$DW$107, DW_AT_location[DW_OP_reg0]
     614                    $C$DW$108       .dwtag  DW_TAG_variable, DW_AT_name("$O$U14")
     615                            .dwattr $C$DW$108, DW_AT_TI_symbol_name("$O$U14")
     616                            .dwattr $C$DW$108, DW_AT_type(*$C$DW$T$10)
     617                            .dwattr $C$DW$108, DW_AT_location[DW_OP_reg29]
     618                    $C$DW$109       .dwtag  DW_TAG_variable, DW_AT_name("$O$K216")
     619                            .dwattr $C$DW$109, DW_AT_TI_symbol_name("$O$K216")
     620                            .dwattr $C$DW$109, DW_AT_type(*$C$DW$T$117)
     621                            .dwattr $C$DW$109, DW_AT_location[DW_OP_reg8]
     622                    $C$DW$110       .dwtag  DW_TAG_variable, DW_AT_name("i")
     623                            .dwattr $C$DW$110, DW_AT_TI_symbol_name("i")
     624                            .dwattr $C$DW$110, DW_AT_type(*$C$DW$T$29)
     625                            .dwattr $C$DW$110, DW_AT_location[DW_OP_reg12]
     626                    $C$DW$111       .dwtag  DW_TAG_variable, DW_AT_name("KF_cn")
     627                            .dwattr $C$DW$111, DW_AT_TI_symbol_name("KF_cn")
     628                            .dwattr $C$DW$111, DW_AT_type(*$C$DW$T$102)
     629                            .dwattr $C$DW$111, DW_AT_location[DW_OP_breg31 24]
     630                    $C$DW$112       .dwtag  DW_TAG_variable, DW_AT_name("KF")
     631                            .dwattr $C$DW$112, DW_AT_TI_symbol_name("KF")
     632                            .dwattr $C$DW$112, DW_AT_type(*$C$DW$T$102)
     633                            .dwattr $C$DW$112, DW_AT_location[DW_OP_breg31 28]
     634                    $C$DW$113       .dwtag  DW_TAG_variable, DW_AT_name("Residual_cn")
     635                            .dwattr $C$DW$113, DW_AT_TI_symbol_name("Residual_cn")
     636                            .dwattr $C$DW$113, DW_AT_type(*$C$DW$T$21)
     637                            .dwattr $C$DW$113, DW_AT_location[DW_OP_breg31 32]
     638                    $C$DW$114       .dwtag  DW_TAG_variable, DW_AT_name("Residual")
     639                            .dwattr $C$DW$114, DW_AT_TI_symbol_name("Residual")
     640                            .dwattr $C$DW$114, DW_AT_type(*$C$DW$T$21)
     641                            .dwattr $C$DW$114, DW_AT_location[DW_OP_breg31 36]
     642                    $C$DW$115       .dwtag  DW_TAG_variable, DW_AT_name("Z_buffer")
     643                            .dwattr $C$DW$115, DW_AT_TI_symbol_name("Z_buffer")
     644                            .dwattr $C$DW$115, DW_AT_type(*$C$DW$T$21)
     645                            .dwattr $C$DW$115, DW_AT_location[DW_OP_breg31 40]
     646                    $C$DW$116       .dwtag  DW_TAG_variable, DW_AT_name("Z")
     647                            .dwattr $C$DW$116, DW_AT_TI_symbol_name("Z")
     648                            .dwattr $C$DW$116, DW_AT_type(*$C$DW$T$21)
     649                            .dwattr $C$DW$116, DW_AT_location[DW_OP_breg31 44]
     650                    $C$DW$117       .dwtag  DW_TAG_variable, DW_AT_name("status_nat_vs_ref")
     651                            .dwattr $C$DW$117, DW_AT_TI_symbol_name("status_nat_vs_ref")
     652                            .dwattr $C$DW$117, DW_AT_type(*$C$DW$T$29)
     653                            .dwattr $C$DW$117, DW_AT_location[DW_OP_reg15]
     654                    $C$DW$118       .dwtag  DW_TAG_variable, DW_AT_name("status_nat_vs_int")
     655                            .dwattr $C$DW$118, DW_AT_TI_symbol_name("status_nat_vs_int")
     656                            .dwattr $C$DW$118, DW_AT_type(*$C$DW$T$29)
     657                            .dwattr $C$DW$118, DW_AT_location[DW_OP_reg26]
     658                    $C$DW$119       .dwtag  DW_TAG_variable, DW_AT_name("prm")
     659                            .dwattr $C$DW$119, DW_AT_TI_symbol_name("prm")
     660                            .dwattr $C$DW$119, DW_AT_type(*$C$DW$T$65)
TMS320C6x Assembler PC v7.4.2 Thu Mar 19 12:42:36 2015

Tools Copyright (c) 1996-2012 Texas Instruments Incorporated
package/lib/Regression/regress_d_c/./../packages/ti/vlib/src/VLIB_kalmanFilter_2x4_Correct/VLIB_kalmanFilter_2x4_Correct_d.se66 PAGE   13

     661                            .dwattr $C$DW$119, DW_AT_location[DW_OP_breg31 20]
     662                    $C$DW$120       .dwtag  DW_TAG_variable, DW_AT_name("tpi")
     663                            .dwattr $C$DW$120, DW_AT_TI_symbol_name("tpi")
     664                            .dwattr $C$DW$120, DW_AT_type(*$C$DW$T$29)
     665                            .dwattr $C$DW$120, DW_AT_location[DW_OP_reg14]
     666                    $C$DW$121       .dwtag  DW_TAG_variable, DW_AT_name("$O$v1")
     667                            .dwattr $C$DW$121, DW_AT_TI_symbol_name("$O$v1")
     668                            .dwattr $C$DW$121, DW_AT_type(*$C$DW$T$65)
     669                            .dwattr $C$DW$121, DW_AT_location[DW_OP_reg20]
     670                    $C$DW$122       .dwtag  DW_TAG_variable, DW_AT_name("$O$v2")
     671                            .dwattr $C$DW$122, DW_AT_TI_symbol_name("$O$v2")
     672                            .dwattr $C$DW$122, DW_AT_type(*$C$DW$T$180)
     673                            .dwattr $C$DW$122, DW_AT_location[DW_OP_reg22]
     674                    $C$DW$123       .dwtag  DW_TAG_variable, DW_AT_name("$O$v2")
     675                            .dwattr $C$DW$123, DW_AT_TI_symbol_name("$O$v2")
     676                            .dwattr $C$DW$123, DW_AT_type(*$C$DW$T$180)
     677                            .dwattr $C$DW$123, DW_AT_location[DW_OP_reg24]
     678 00000010 0200002a!            MVKL    .S2     test_cases,B4
     679 00000014 0200006a!            MVKH    .S2     test_cases,B4
     680                    $C$DW$124       .dwtag  DW_TAG_TI_branch
     681                            .dwattr $C$DW$124, DW_AT_low_pc(0x00)
     682                            .dwattr $C$DW$124, DW_AT_name("kalmanFilter_2x4_Correct_getTestParams")
     683                            .dwattr $C$DW$124, DW_AT_TI_call
     684                    
     685 00000018 10000013!            CALLP   .S2     kalmanFilter_2x4_Correct_getTestParams,B3
     686 00000020 120005fc  ||         ADDAW   .D1X    SP,5,A4           ; |47| 
     687                    
     688                            .dwpsn  file "./../packages/ti/vlib/src/VLIB_kalmanFilter_2x4_Correct/VLIB_kalmanFilter_2x4_Co
     689                    ;----------------------------------------------------------------------
     690                    ;  47 | kalmanFilter_2x4_Correct_getTestParams(&prm, &test_cases);             
     691                    ;----------------------------------------------------------------------
     692 00000024           $C$RL0:    ; CALL OCCURS {kalmanFilter_2x4_Correct_getTestParams} {0}  ; |47| 
     693                    ;** --------------------------------------------------------------------------*
     694                    ;          EXCLUSIVE CPU CYCLES: 8
     695 00000024 0200002a!            MVKL    .S2     $C$SL1+0,B4
     696 00000028 0200006a!            MVKH    .S2     $C$SL1+0,B4
     697                    $C$DW$125       .dwtag  DW_TAG_TI_branch
     698                            .dwattr $C$DW$125, DW_AT_low_pc(0x00)
     699                            .dwattr $C$DW$125, DW_AT_name("VLIB_profile_init")
     700                            .dwattr $C$DW$125, DW_AT_TI_call
     701                    
     702 0000002c 10000013!            CALLP   .S2     VLIB_profile_init,B3
     703 00000030 0208a358  ||         MVK     .L1     0x2,A4            ; |50| 
     704                    
     705                            .dwpsn  file "./../packages/ti/vlib/src/VLIB_kalmanFilter_2x4_Correct/VLIB_kalmanFilter_2x4_Co
     706                    ;----------------------------------------------------------------------
     707                    ;  50 | VLIB_profile_init(2, "VLIB_kalmanFilter_2x4_Correct");                 
     708                    ;----------------------------------------------------------------------
     709 00000034           $C$RL1:    ; CALL OCCURS {VLIB_profile_init} {0}  ; |50| 
     710                    ;** --------------------------------------------------------------------------*
     711                    ;          EXCLUSIVE CPU CYCLES: 14
     712 00000034 01800028!            MVKL    .S1     test_cases,A3
     713 00000038 01800068!            MVKH    .S1     test_cases,A3
     714                            .dwpsn  file "./../packages/ti/vlib/src/VLIB_kalmanFilter_2x4_Correct/VLIB_kalmanFilter_2x4_Co
     715                    ;----------------------------------------------------------------------
TMS320C6x Assembler PC v7.4.2 Thu Mar 19 12:42:36 2015

Tools Copyright (c) 1996-2012 Texas Instruments Incorporated
package/lib/Regression/regress_d_c/./../packages/ti/vlib/src/VLIB_kalmanFilter_2x4_Correct/VLIB_kalmanFilter_2x4_Correct_d.se66 PAGE   14

     716                    ;  53 | for( tpi=0; tpi < test_cases; tpi++ ) {                                
     717                    ;----------------------------------------------------------------------
     718 0000003c 018c0264             LDW     .D1T1   *A3,A3            ; |53| 
     719 00000040 023ca2e4             LDW     .D2T1   *+SP(20),A4
     720 00000044 0600002a!            MVKL    .S2     testPatternString,B12
     721 00000048 05808c2a             MVK     .S2     0x118,B11
     722 0000004c 0600006a!            MVKH    .S2     testPatternString,B12
     723 00000050 000c0ad8             CMPGT   .L1     A3,0,A0           ; |53| 
     724 00000054 d1688120     [!A0]   BNOP    .S1     $C$L7,4           ; |53| 
     725                    
     726 00000058 0684a359             MVK     .L1     0x1,A13
     727 0000005c 07000029  ||         ZERO    .S1     A14               ; |53| 
     728 00000060 0680a35b  ||         ZERO    .L2     B13               ; |53| 
     729 00000064 059209c0  ||         SUB     .D1     A4,16,A11
     730                    
     731                               ; BRANCHCC OCCURS {$C$L7}         ; |53| 
     732                    ;** --------------------------------------------------------------------------*
     733                    ;**     -----------------------    K$23 = 280u;
     734                    ;**     -----------------------    K$41 = &testPatternString[0];
     735                    ;**     -----------------------    K$50 = 3999;
     736                    ;**     -----------------------    K$56 = 1;
     737                    ;**     -----------------------    K$100 = 8100;
     738                    ;**     -----------------------    K$136 = 3;
     739                    ;**     -----------------------    K$216 = &desc[0];
     740                    ;**     -----------------------    U$15 = prm-16;
     741                    ;**     -----------------------    U$14 = 0;
     742                    ;** 53  -----------------------    tpi = 0;
     743                    ;**     -----------------------    #pragma LOOP_FLAGS(5120u)
     744                    ;** --------------------------------------------------------------------------*
     745                    ;**   BEGIN LOOP $C$L1
     746                    ;** --------------------------------------------------------------------------*
     747 00000068           $C$L1:    
     748                            .dwpsn  file "./../packages/ti/vlib/src/VLIB_kalmanFilter_2x4_Correct/VLIB_kalmanFilter_2x4_Co
     749                    ;----------------------------------------------------------------------
     750                    ;  56 | int32_t    status_nat_vs_int = vlib_KERNEL_PASS; /* Test status : Natur
     751                    ;     | al c vs. Optimized */                                                  
     752                    ;  57 | int32_t    status_nat_vs_ref = vlib_KERNEL_PASS; /* Test status : Natur
     753                    ;     | al c vs. Static Reference */                                           
     754                    ;----------------------------------------------------------------------
     755 00000068           $C$DW$L$VLIB_kalmanFilter_2x4_Correct_d$5$B:
     756                    ;          EXCLUSIVE CPU CYCLES: 6
     757                    ;**     -----------------------g3:
     758                    ;** 60  -----------------------    Z = VLIB_memalign(8u, 4u);
     759                    ;** 61  -----------------------    Z_buffer = memalign(8u, (unsigned)((*(U$15 += 16)).numMeasurements*
     760                    ;** 62  -----------------------    Residual = VLIB_memalign(8u, 4u);
     761                    ;** 63  -----------------------    Residual_cn = memalign(8u, 4u);
     762                    ;** 64  -----------------------    KF = (struct lib_kalmanFilter_2x4 *)VLIB_memalign(8u, K$23);
     763                    ;** 65  -----------------------    KF_cn = (struct lib_kalmanFilter_2x4 *)memalign(8u, K$23);
     764                    ;** 68  -----------------------    if ( !((Z != NULL)&(Z_buffer != NULL)&(Residual != NULL)&(Residual_
     765                            .dwpsn  file "./../packages/ti/vlib/src/VLIB_kalmanFilter_2x4_Correct/VLIB_kalmanFilter_2x4_Co
     766                    ;----------------------------------------------------------------------
     767                    ;  60 | int16_t                 *Z           = (int16_t *) VLIB_memalign(8, 2 *
     768                    ;     |  sizeof(int16_t));                                                     
     769                    ;----------------------------------------------------------------------
     770                    $C$DW$126       .dwtag  DW_TAG_TI_branch
TMS320C6x Assembler PC v7.4.2 Thu Mar 19 12:42:36 2015

Tools Copyright (c) 1996-2012 Texas Instruments Incorporated
package/lib/Regression/regress_d_c/./../packages/ti/vlib/src/VLIB_kalmanFilter_2x4_Correct/VLIB_kalmanFilter_2x4_Correct_d.se66 PAGE   15

     771                            .dwattr $C$DW$126, DW_AT_low_pc(0x00)
     772                            .dwattr $C$DW$126, DW_AT_name("VLIB_memalign")
     773                            .dwattr $C$DW$126, DW_AT_TI_call
     774 00000068 00000010!            CALL    .S1     VLIB_memalign     ; |60| 
     775 0000006c 01856162             ADDKPC  .S2     $C$RL2,B3,3       ; |60| 
     776                    
     777 00000070     0e26             MVK     .L1     0x8,A4            ; |60| 
     778 00000072     8627  ||         MVK     .L2     0x4,B4            ; |60| 
     779                    
     780 00000074           $C$RL2:    ; CALL OCCURS {VLIB_memalign} {0}  ; |60| 
     781 00000074           $C$DW$L$VLIB_kalmanFilter_2x4_Correct_d$5$E:
     782                    ;** --------------------------------------------------------------------------*
     783 00000074           $C$DW$L$VLIB_kalmanFilter_2x4_Correct_d$6$B:
     784                    ;          EXCLUSIVE CPU CYCLES: 38
     785                            .dwpsn  file "./../packages/ti/vlib/src/VLIB_kalmanFilter_2x4_Correct/VLIB_kalmanFilter_2x4_Co
     786                    ;----------------------------------------------------------------------
     787                    ;  61 | int16_t                 *Z_buffer    = (int16_t *) memalign(8, prm[tpi]
     788                    ;     | .numMeasurements * 2 * sizeof(int16_t));                               
     789                    ;----------------------------------------------------------------------
     790 00000074 05800850             ADDK    .S1     16,A11            ; |61| 
     791 00000078 01acc204             LDHU    .D1T1   *+A11(12),A3      ; |61| 
     792                            .dwpsn  file "./../packages/ti/vlib/src/VLIB_kalmanFilter_2x4_Correct/VLIB_kalmanFilter_2x4_Co
     793 00000080     ed45             STW     .D2T1   A4,*+SP(44)       ; |60| 
     794                            .dwpsn  file "./../packages/ti/vlib/src/VLIB_kalmanFilter_2x4_Correct/VLIB_kalmanFilter_2x4_Co
     795 00000082     0e26             MVK     .L1     0x8,A4            ; |61| 
     796 00000084     2c6e             NOP             2
     797 00000086     4582             SHL     .S1     A3,2,A3           ; |61| 
     798 00000088     0c6e             NOP             1
     799                    $C$DW$127       .dwtag  DW_TAG_TI_branch
     800                            .dwattr $C$DW$127, DW_AT_low_pc(0x00)
     801                            .dwattr $C$DW$127, DW_AT_name("memalign")
     802                            .dwattr $C$DW$127, DW_AT_TI_call
     803                    
     804 0000008c 10000012!            CALLP   .S2     memalign,B3
     805 0000008a     91c7  ||         MV      .L2X    A3,B4             ; |61| 
     806                    
     807                    $C$RL3:    ; CALL OCCURS {memalign} {0}      ; |61| 
     808                    $C$DW$128       .dwtag  DW_TAG_TI_branch
     809                            .dwattr $C$DW$128, DW_AT_low_pc(0x00)
     810                            .dwattr $C$DW$128, DW_AT_name("VLIB_memalign")
     811                            .dwattr $C$DW$128, DW_AT_TI_call
     812                    
     813 00000090 10000013!            CALLP   .S2     VLIB_memalign,B3
     814 00000094     cd45  ||         STW     .D2T1   A4,*+SP(40)       ; |61| 
     815 00000096     0e26  ||         MVK     .L1     0x8,A4            ; |62| 
     816 00000098 0210a35a  ||         MVK     .L2     0x4,B4            ; |62| 
     817                    
     818                            .dwpsn  file "./../packages/ti/vlib/src/VLIB_kalmanFilter_2x4_Correct/VLIB_kalmanFilter_2x4_Co
     819                    ;----------------------------------------------------------------------
     820                    ;  62 | int16_t                 *Residual    = (int16_t *) VLIB_memalign(8, 2 *
     821                    ;     |  sizeof(int16_t));                                                     
     822                    ;----------------------------------------------------------------------
     823                    $C$RL4:    ; CALL OCCURS {VLIB_memalign} {0}  ; |62| 
     824                    $C$DW$129       .dwtag  DW_TAG_TI_branch
     825                            .dwattr $C$DW$129, DW_AT_low_pc(0x00)
TMS320C6x Assembler PC v7.4.2 Thu Mar 19 12:42:36 2015

Tools Copyright (c) 1996-2012 Texas Instruments Incorporated
package/lib/Regression/regress_d_c/./../packages/ti/vlib/src/VLIB_kalmanFilter_2x4_Correct/VLIB_kalmanFilter_2x4_Correct_d.se66 PAGE   16

     826                            .dwattr $C$DW$129, DW_AT_name("memalign")
     827                            .dwattr $C$DW$129, DW_AT_TI_call
     828                    
     829 000000a0 10000013!            CALLP   .S2     memalign,B3
     830 000000a4 023d22f5  ||         STW     .D2T1   A4,*+SP(36)       ; |62| 
     831 000000a8 0220a359  ||         MVK     .L1     0x8,A4            ; |63| 
     832 000000ac 0210a35a  ||         MVK     .L2     0x4,B4            ; |63| 
     833                    
     834                            .dwpsn  file "./../packages/ti/vlib/src/VLIB_kalmanFilter_2x4_Correct/VLIB_kalmanFilter_2x4_Co
     835                    ;----------------------------------------------------------------------
     836                    ;  63 | int16_t                 *Residual_cn = (int16_t *) memalign(8, 2 * size
     837                    ;     | of(int16_t));                                                          
     838                    ;----------------------------------------------------------------------
     839                    $C$RL5:    ; CALL OCCURS {memalign} {0}      ; |63| 
     840                    $C$DW$130       .dwtag  DW_TAG_TI_branch
     841                            .dwattr $C$DW$130, DW_AT_low_pc(0x00)
     842                            .dwattr $C$DW$130, DW_AT_name("VLIB_memalign")
     843                            .dwattr $C$DW$130, DW_AT_TI_call
     844                    
     845 000000b0 10000013!            CALLP   .S2     VLIB_memalign,B3
     846 000000b4 023d02f5  ||         STW     .D2T1   A4,*+SP(32)       ; |63| 
     847 000000b8 0220a359  ||         MVK     .L1     0x8,A4            ; |64| 
     848 000000bc 022c0fda  ||         MV      .L2     B11,B4            ; |64| 
     849                    
     850                            .dwpsn  file "./../packages/ti/vlib/src/VLIB_kalmanFilter_2x4_Correct/VLIB_kalmanFilter_2x4_Co
     851                    ;----------------------------------------------------------------------
     852                    ;  64 | VLIB_kalmanFilter_2x4   *KF          = (VLIB_kalmanFilter_2x4 *) VLIB_m
     853                    ;     | emalign(8, sizeof(VLIB_kalmanFilter_2x4));                             
     854                    ;----------------------------------------------------------------------
     855                    $C$RL6:    ; CALL OCCURS {VLIB_memalign} {0}  ; |64| 
     856                    $C$DW$131       .dwtag  DW_TAG_TI_branch
     857                            .dwattr $C$DW$131, DW_AT_low_pc(0x00)
     858                            .dwattr $C$DW$131, DW_AT_name("memalign")
     859                            .dwattr $C$DW$131, DW_AT_TI_call
     860                    
     861 000000c0 10000013!            CALLP   .S2     memalign,B3
     862 000000c4     ecc5  ||         STW     .D2T1   A4,*+SP(28)       ; |64| 
     863 000000c6     0e26  ||         MVK     .L1     0x8,A4            ; |65| 
     864 000000c8     8587  ||         MV      .L2     B11,B4            ; |65| 
     865                    
     866                            .dwpsn  file "./../packages/ti/vlib/src/VLIB_kalmanFilter_2x4_Correct/VLIB_kalmanFilter_2x4_Co
     867                    ;----------------------------------------------------------------------
     868                    ;  65 | VLIB_kalmanFilter_2x4   *KF_cn       = (VLIB_kalmanFilter_2x4 *) memali
     869                    ;     | gn(8, sizeof(VLIB_kalmanFilter_2x4));                                  
     870                    ;----------------------------------------------------------------------
     871 000000ca           $C$RL7:    ; CALL OCCURS {memalign} {0}      ; |65| 
     872 000000ca           $C$DW$L$VLIB_kalmanFilter_2x4_Correct_d$6$E:
     873                    ;** --------------------------------------------------------------------------*
     874 000000ca           $C$DW$L$VLIB_kalmanFilter_2x4_Correct_d$7$B:
     875                    ;          EXCLUSIVE CPU CYCLES: 21
     876                    
     877 000000ca     ed0d             LDW     .D2T1   *+SP(44),A0       ; |68| 
     878 000000cc     0627  ||         ZERO    .L2     B4                ; |68| 
     879 000000ce     0293  ||         ZERO    .S2     B5                ; |68| 
     880 000000d0     05a6  ||         ZERO    .L1     A3                ; |68| 
TMS320C6x Assembler PC v7.4.2 Thu Mar 19 12:42:36 2015

Tools Copyright (c) 1996-2012 Texas Instruments Incorporated
package/lib/Regression/regress_d_c/./../packages/ti/vlib/src/VLIB_kalmanFilter_2x4_Correct/VLIB_kalmanFilter_2x4_Correct_d.se66 PAGE   17

     881                    
     882                            .dwpsn  file "./../packages/ti/vlib/src/VLIB_kalmanFilter_2x4_Correct/VLIB_kalmanFilter_2x4_Co
     883                    ;----------------------------------------------------------------------
     884                    ;  68 | if( Z && Z_buffer && Residual && Residual_cn && KF && KF_cn ) {        
     885                    ;----------------------------------------------------------------------
     886 000000d2     dd0d             LDW     .D2T2   *+SP(40),B0       ; |68| 
     887 000000d4     8d2d             LDW     .D2T1   *+SP(32),A2       ; |68| 
     888 000000d6     ad1d             LDW     .D2T1   *+SP(36),A1       ; |68| 
     889                            .dwpsn  file "./../packages/ti/vlib/src/VLIB_kalmanFilter_2x4_Correct/VLIB_kalmanFilter_2x4_Co
     890 000000d8     ccc5             STW     .D2T1   A4,*+SP(24)       ; |65| 
     891                    
     892 000000e0 c2b41fda     [ A0]   MV      .L2X    A13,B5            ; |68| 
     893 000000da     ec8d  ||         LDW     .D2T1   *+SP(28),A0       ; |68| 
     894                    
     895                            .dwpsn  file "./../packages/ti/vlib/src/VLIB_kalmanFilter_2x4_Correct/VLIB_kalmanFilter_2x4_Co
     896                    ;----------------------------------------------------------------------
     897                    ;  70 | int32_t    fail, i, index;                                             
     898                    ;----------------------------------------------------------------------
     899 000000e4 22341fda     [ B0]   MV      .L2X    A13,B4            ; |68| 
     900                    
     901 000000e8 02948f7b             AND     .L2     B4,B5,B5          ; |68| 
     902 000000ec     0213  ||         ZERO    .S2     B4                ; |68| 
     903                    
     904 000000f0 a2341fdb     [ A2]   MV      .L2X    A13,B4            ; |68| 
     905 000000ee     ccad  ||         LDW     .D2T1   *+SP(24),A2       ; |68| 
     906 000000f4 81b40fd8  || [ A1]   MV      .L1     A13,A3            ; |68| 
     907                    
     908 000000f8     0626             ZERO    .L1     A4                ; |68| 
     909                    
     910 000000fa     05a6             ZERO    .L1     A3                ; |68| 
     911 00000100 028cbf7a  ||         AND     .L2X    A3,B5,B5          ; |68| 
     912                    
     913 00000104 02148f7a             AND     .L2     B4,B5,B4          ; |68| 
     914 00000108 c2340fd8     [ A0]   MV      .L1     A13,A4            ; |68| 
     915                    
     916 0000010c a1b40fd9     [ A2]   MV      .L1     A13,A3            ; |68| 
     917 00000110 021097e0  ||         AND     .S1X    A4,B4,A4          ; |68| 
     918                    
     919 00000114 00106f78             AND     .L1     A3,A4,A0          ; |68| 
     920                    
     921 00000118 d0008d11     [!A0]   B       .S1     $C$L5             ; |68| 
     922 0000011c c1acc205  || [ A0]   LDHU    .D1T1   *+A11(12),A3      ; |73| 
     923 00000120 d200002a! || [!A0]   MVKL    .S2     $C$SL3+0,B4
     924                    
     925                            .dwpsn  file "./../packages/ti/vlib/src/VLIB_kalmanFilter_2x4_Correct/VLIB_kalmanFilter_2x4_Co
     926                    ;----------------------------------------------------------------------
     927                    ;  73 | VLIB_fillBuffer(prm[tpi].testPattern,                                  
     928                    ;----------------------------------------------------------------------
     929 00000124 c22c0214     [ A0]   LDBU    .D1T1   *A11,A4           ; |73| 
     930                    $C$DW$132       .dwtag  DW_TAG_TI_branch
     931                            .dwattr $C$DW$132, DW_AT_low_pc(0x00)
     932                            .dwattr $C$DW$132, DW_AT_name("VLIB_fillBuffer")
     933                            .dwattr $C$DW$132, DW_AT_TI_call
     934                    
     935 00000128 c0000011!    [ A0]   CALL    .S1     VLIB_fillBuffer   ; |73| 
TMS320C6x Assembler PC v7.4.2 Thu Mar 19 12:42:36 2015

Tools Copyright (c) 1996-2012 Texas Instruments Incorporated
package/lib/Regression/regress_d_c/./../packages/ti/vlib/src/VLIB_kalmanFilter_2x4_Correct/VLIB_kalmanFilter_2x4_Correct_d.se66 PAGE   18

     936 0000012c c32c2266  || [ A0]   LDW     .D1T2   *+A11(4),B6       ; |73| 
     937                    
     938                    $C$DW$133       .dwtag  DW_TAG_TI_branch
     939                            .dwattr $C$DW$133, DW_AT_low_pc(0x00)
     940                            .dwattr $C$DW$133, DW_AT_name("sprintf")
     941                            .dwattr $C$DW$133, DW_AT_TI_call
     942                    
     943 00000130 d0000011!    [!A0]   CALL    .S1     sprintf           ; |149| 
     944 00000134 d1acc204  || [!A0]   LDHU    .D1T1   *+A11(12),A3      ; |149| 
     945                    
     946 00000138 d2000028!    [!A0]   MVKL    .S1     desc,A4
     947 0000013c d200006a!    [!A0]   MVKH    .S2     $C$SL3+0,B4
     948                            .dwpsn  file "./../packages/ti/vlib/src/VLIB_kalmanFilter_2x4_Correct/VLIB_kalmanFilter_2x4_Co
     949                               ; BRANCHCC OCCURS {$C$L5}         ; |68| 
     950 00000140           $C$DW$L$VLIB_kalmanFilter_2x4_Correct_d$7$E:
     951                    ;** --------------------------------------------------------------------------*
     952 00000140           $C$DW$L$VLIB_kalmanFilter_2x4_Correct_d$8$B:
     953                    ;          EXCLUSIVE CPU CYCLES: 2
     954                    ;** 73  -----------------------    C$7 = (*U$15).numMeasurements;
     955                    ;** 73  -----------------------    VLIB_fillBuffer((*U$15).testPattern, 1u, (void *)Z_buffer, (*U$15).
     956                    ;** 79  -----------------------    memset((void *)KF, 0, K$23);
     957                    ;** 80  -----------------------    memset((void *)KF_cn, 0, K$23);
     958                    ;** 85  -----------------------    *((short *)KF_cn+32) = K$50;
     959                    ;** 85  -----------------------    *((short *)KF+32) = K$50;
     960                    ;** 86  -----------------------    *(short *)KF_cn = K$56;
     961                    ;** 86  -----------------------    *(short *)KF = K$56;
     962                    ;** 88  -----------------------    C$6 = (short *)KF_cn+112;
     963                    ;** 88  -----------------------    *C$6 = K$56;
     964                    ;** 88  -----------------------    C$5 = (short *)KF+112;
     965                    ;** 88  -----------------------    *C$5 = K$56;
     966                    ;** 85  -----------------------    *((short *)KF_cn+42) = K$50;
     967                    ;** 85  -----------------------    *((short *)KF+42) = K$50;
     968                    ;** 86  -----------------------    *((short *)KF_cn+10) = K$56;
     969                    ;** 86  -----------------------    *((short *)KF+10) = K$56;
     970                    ;** 88  -----------------------    C$6[5] = K$56;
     971                    ;** 88  -----------------------    C$5[5] = K$56;
     972                    ;** 85  -----------------------    *((short *)KF_cn+52) = K$50;
     973                    ;** 85  -----------------------    *((short *)KF+52) = K$50;
     974                    ;** 86  -----------------------    *((short *)KF_cn+20) = K$56;
     975                    ;** 86  -----------------------    *((short *)KF+20) = K$56;
     976                    ;** 85  -----------------------    *((short *)KF_cn+62) = K$50;
     977                    ;** 85  -----------------------    *((short *)KF+62) = K$50;
     978                    ;** 86  -----------------------    *((short *)KF_cn+30) = K$56;
     979                    ;** 86  -----------------------    *((short *)KF+30) = K$56;
     980                    ;** 92  -----------------------    C$6[24] = K$100;
     981                    ;** 92  -----------------------    C$5[24] = K$100;
     982                    ;** 93  -----------------------    C$6[27] = K$100;
     983                    ;** 93  -----------------------    C$5[27] = K$100;
     984                    ;** 95  -----------------------    *((short *)KF_cn+4) = K$56;
     985                    ;** 95  -----------------------    *((short *)KF+4) = K$56;
     986                    ;** 96  -----------------------    *((short *)KF_cn+14) = K$56;
     987                    ;** 96  -----------------------    *((short *)KF+14) = K$56;
     988                    ;** 98  -----------------------    C$6[8] = K$56;
     989                    ;** 98  -----------------------    C$5[8] = K$56;
     990                    ;** 99  -----------------------    C$6[9] = K$56;
TMS320C6x Assembler PC v7.4.2 Thu Mar 19 12:42:36 2015

Tools Copyright (c) 1996-2012 Texas Instruments Incorporated
package/lib/Regression/regress_d_c/./../packages/ti/vlib/src/VLIB_kalmanFilter_2x4_Correct/VLIB_kalmanFilter_2x4_Correct_d.se66 PAGE   19

     991                    ;** 99  -----------------------    C$5[9] = K$56;
     992                    ;** 100 -----------------------    C$6[12] = K$56;
     993                    ;** 100 -----------------------    C$5[12] = K$56;
     994                    ;** 101 -----------------------    C$6[13] = K$136;
     995                    ;** 101 -----------------------    C$5[13] = K$136;
     996                    ;** 102 -----------------------    C$6[18] = K$56;
     997                    ;** 102 -----------------------    C$5[18] = K$56;
     998                    ;** 103 -----------------------    C$6[19] = K$56;
     999                    ;** 103 -----------------------    C$5[19] = K$56;
    1000                    ;** 104 -----------------------    C$6[22] = K$56;
    1001                    ;** 104 -----------------------    C$5[22] = K$56;
    1002                    ;** 105 -----------------------    C$6[23] = K$136;
    1003                    ;** 105 -----------------------    C$5[23] = K$136;
    1004                    ;** 107 -----------------------    if ( !(*U$15).numMeasurements ) goto g7;
    1005                    
    1006 00000140     9687             MV      .L2X    A13,B4            ; |73| 
    1007 00000142     d046  ||         MV      .L1X    B0,A6             ; |73| 
    1008 00000144 050e5008  ||         EXTU    .S1     A3,18,16,A10      ; |73| 
    1009                    
    1010 00000148 04341fdb             MV      .L2X    A13,B8            ; |73| 
    1011 0000014c 040e3009  ||         EXTU    .S1     A3,17,16,A8       ; |73| 
    1012 00000150 05004043  ||         MVK     .D2     0x2,B10           ; |73| 
    1013 00000154 01880163  ||         ADDKPC  .S2     $C$RL8,B3,0       ; |73| 
    1014 00000158 06301fd8  ||         MV      .L1X    B12,A12           ; |73| 
    1015                    
    1016                            .dwpsn  file "./../packages/ti/vlib/src/VLIB_kalmanFilter_2x4_Correct/VLIB_kalmanFilter_2x4_Co
    1017                    ;----------------------------------------------------------------------
    1018                    ;  74 | (int16_t)1,                                                            
    1019                    ;  75 | Z_buffer, prm[tpi].staticIn,                                           
    1020                    ;  76 | prm[tpi].numMeasurements * 2, 1, prm[tpi].numMeasurements * 2 * sizeof(
    1021                    ;     | int16_t),                                                              
    1022                    ;  77 | sizeof(int16_t), testPatternString);                                   
    1023                    ;----------------------------------------------------------------------
    1024                    $C$RL8:    ; CALL OCCURS {VLIB_fillBuffer} {0}  ; |73| 
    1025                    $C$DW$L$VLIB_kalmanFilter_2x4_Correct_d$8$E:
    1026                    ;** --------------------------------------------------------------------------*
    1027                    $C$DW$L$VLIB_kalmanFilter_2x4_Correct_d$9$B:
    1028                    ;          EXCLUSIVE CPU CYCLES: 12
    1029                    $C$DW$134       .dwtag  DW_TAG_TI_branch
    1030                            .dwattr $C$DW$134, DW_AT_low_pc(0x00)
    1031                            .dwattr $C$DW$134, DW_AT_name("memset")
    1032                            .dwattr $C$DW$134, DW_AT_TI_call
    1033                    
    1034 00000160 10000013!            CALLP   .S2     memset,B3
    1035 00000164 023ce2e5  ||         LDW     .D2T1   *+SP(28),A4       ; |79| 
    1036 00000168 0200a35b  ||         ZERO    .L2     B4                ; |79| 
    1037 0000016c 032c1fd8  ||         MV      .L1X    B11,A6            ; |79| 
    1038                    
    1039                            .dwpsn  file "./../packages/ti/vlib/src/VLIB_kalmanFilter_2x4_Correct/VLIB_kalmanFilter_2x4_Co
    1040                    ;----------------------------------------------------------------------
    1041                    ;  79 | memset(KF, 0, sizeof(VLIB_kalmanFilter_2x4));                          
    1042                    ;----------------------------------------------------------------------
    1043                    $C$RL9:    ; CALL OCCURS {memset} {0}        ; |79| 
    1044                    $C$DW$135       .dwtag  DW_TAG_TI_branch
    1045                            .dwattr $C$DW$135, DW_AT_low_pc(0x00)
TMS320C6x Assembler PC v7.4.2 Thu Mar 19 12:42:36 2015

Tools Copyright (c) 1996-2012 Texas Instruments Incorporated
package/lib/Regression/regress_d_c/./../packages/ti/vlib/src/VLIB_kalmanFilter_2x4_Correct/VLIB_kalmanFilter_2x4_Correct_d.se66 PAGE   20

    1046                            .dwattr $C$DW$135, DW_AT_name("memset")
    1047                            .dwattr $C$DW$135, DW_AT_TI_call
    1048                    
    1049 00000170 10000013!            CALLP   .S2     memset,B3
    1050 00000174 023cc2e5  ||         LDW     .D2T1   *+SP(24),A4       ; |80| 
    1051 00000178 0200a35b  ||         ZERO    .L2     B4                ; |80| 
    1052 0000017c 032c1fd8  ||         MV      .L1X    B11,A6            ; |80| 
    1053                    
    1054                            .dwpsn  file "./../packages/ti/vlib/src/VLIB_kalmanFilter_2x4_Correct/VLIB_kalmanFilter_2x4_Co
    1055                    ;----------------------------------------------------------------------
    1056                    ;  80 | memset(KF_cn, 0, sizeof(VLIB_kalmanFilter_2x4));                       
    1057                    ;  83 | for( i=0; i < sD_2x4; i++ ) {                                          
    1058                    ;  84 |     index = i * sD_2x4 + i;                                            
    1059                    ;  85 |     KF->errorCov[index]   = KF_cn->errorCov[index]   = 1000 * INT16_MAX
    1060                    ;     |  / VLIB_MAX_13p2;                                                      
    1061                    ;  86 |     KF->transition[index] = KF_cn->transition[index] = 1;              
    1062                    ;  87 |     if( i < mD_2x4 ) {                                                 
    1063                    ;  88 |         KF->measurement[index] = KF_cn->measurement[index] = 1;        
    1064                    ;  92 | KF->measurementNoiseCov[0] = KF_cn->measurementNoiseCov[0] = 8100; /* *
    1065                    ;     |  INT16_MAX / VLIB_MAX_13p2; */                                         
    1066                    ;  93 | KF->measurementNoiseCov[3] = KF_cn->measurementNoiseCov[3] = 8100; /* *
    1067                    ;     |  INT16_MAX / VLIB_MAX_13p2; */                                         
    1068                    ;  95 | KF->transition[2] = KF_cn->transition[2] = 1;                          
    1069                    ;  96 | KF->transition[7] = KF_cn->transition[7] = 1;                          
    1070                    ;  98 | KF->processNoiseCov[0]  = KF_cn->processNoiseCov[0]  = 0.333 * INT16_MA
    1071                    ;     | X / VLIB_MAX_13p2;                                                     
    1072                    ;  99 | KF->processNoiseCov[1]  = KF_cn->processNoiseCov[1]  = 0.50 * INT16_MAX
    1073                    ;     |  / VLIB_MAX_13p2;                                                      
    1074                    ; 100 | KF->processNoiseCov[4]  = KF_cn->processNoiseCov[4]  = 0.50 * INT16_MAX
    1075                    ;     |  / VLIB_MAX_13p2;                                                      
    1076                    ; 101 | KF->processNoiseCov[5]  = KF_cn->processNoiseCov[5]  = 1.0 * INT16_MAX
    1077                    ;     | / VLIB_MAX_13p2;                                                       
    1078                    ; 102 | KF->processNoiseCov[10] = KF_cn->processNoiseCov[10] = 0.333 * INT16_MA
    1079                    ;     | X / VLIB_MAX_13p2;                                                     
    1080                    ; 103 | KF->processNoiseCov[11] = KF_cn->processNoiseCov[11] = 0.50 * INT16_MAX
    1081                    ;     |  / VLIB_MAX_13p2;                                                      
    1082                    ;----------------------------------------------------------------------
    1083 00000180           $C$RL10:   ; CALL OCCURS {memset} {0}        ; |80| 
    1084 00000180           $C$DW$L$VLIB_kalmanFilter_2x4_Correct_d$9$E:
    1085                    ;** --------------------------------------------------------------------------*
    1086 00000180           $C$DW$L$VLIB_kalmanFilter_2x4_Correct_d$10$B:
    1087                    ;          EXCLUSIVE CPU CYCLES: 65
    1088                    
    1089 00000180 002cc205             LDHU    .D1T1   *+A11(12),A0      ; |107| 
    1090 00000184 0f0ca359  ||         MVK     .L1     0x3,A30
    1091 00000188 0207cfa8  ||         MVK     .S1     0xf9f,A4
    1092                    
    1093 0000018c 0e3cc2e5             LDW     .D2T1   *+SP(24),A28      ; |96| 
    1094 00000190 09100fd9  ||         MV      .L1     A4,A18            ; |85| 
    1095 00000194 0407cfa8  ||         MVK     .S1     0xf9f,A8
    1096                    
    1097                            .dwpsn  file "./../packages/ti/vlib/src/VLIB_kalmanFilter_2x4_Correct/VLIB_kalmanFilter_2x4_Co
    1098                    ;----------------------------------------------------------------------
    1099                    ; 104 | KF->processNoiseCov[14] = KF_cn->processNoiseCov[14] = 0.50 * INT16_MAX
    1100                    ;     |  / VLIB_MAX_13p2;                                                      
TMS320C6x Assembler PC v7.4.2 Thu Mar 19 12:42:36 2015

Tools Copyright (c) 1996-2012 Texas Instruments Incorporated
package/lib/Regression/regress_d_c/./../packages/ti/vlib/src/VLIB_kalmanFilter_2x4_Correct/VLIB_kalmanFilter_2x4_Correct_d.se66 PAGE   21

    1101                    ;----------------------------------------------------------------------
    1102 00000198 0ebce2e4             LDW     .D2T1   *+SP(28),A29      ; |104| 
    1103                            .dwpsn  file "./../packages/ti/vlib/src/VLIB_kalmanFilter_2x4_Correct/VLIB_kalmanFilter_2x4_Co
    1104 0000019c 0fbce2e4             LDW     .D2T1   *+SP(28),A31      ; |88| 
    1105                            .dwpsn  file "./../packages/ti/vlib/src/VLIB_kalmanFilter_2x4_Correct/VLIB_kalmanFilter_2x4_Co
    1106 000001a0     ccbd             LDW     .D2T1   *+SP(24),A3       ; |80| 
    1107                    
    1108 000001a2     ccad             LDW     .D2T1   *+SP(24),A2
    1109 000001a4 c5000029! || [ A0]   MVKL    .S1     cycles,A10
    1110 000001a8 c600a358  || [ A0]   ZERO    .L1     A12               ; |107| 
    1111                    
    1112 000001ac 08bcc2e5             LDW     .D2T1   *+SP(24),A17
    1113 000001b0 c5000068! || [ A0]   MVKH    .S1     cycles,A10
    1114                    
    1115                            .dwpsn  file "./../packages/ti/vlib/src/VLIB_kalmanFilter_2x4_Correct/VLIB_kalmanFilter_2x4_Co
    1116 000001b4 0d3cc2e4             LDW     .D2T1   *+SP(24),A26      ; |95| 
    1117                    
    1118 000001b8 0dbce2e5             LDW     .D2T1   *+SP(28),A27      ; |96| 
    1119 000001c0 037ddec0  ||         ADDAD   .D1     A31,14,A6         ; |88| 
    1120                    
    1121 000001c4 06f0e255             STH     .D1T1   A13,*+A28(14)     ; |96| 
    1122 000001c8 c53d42e6  || [ A0]   LDW     .D2T2   *+SP(40),B10
    1123                    
    1124 000001cc 0e3cc2e5             LDW     .D2T1   *+SP(24),A28
    1125 000001d0 028ddec1  ||         ADDAD   .D1     A3,14,A5          ; |88| 
    1126 000001d4 0f880fd8  ||         MV      .L1     A2,A31            ; |86| 
    1127                    
    1128 000001d8 06f4e255             STH     .D1T1   A13,*+A29(14)     ; |96| 
    1129 000001dc 04c40fd8  ||         MV      .L1     A17,A9            ; |86| 
    1130                    
    1131 000001e0 0ebce2e4             LDW     .D2T1   *+SP(28),A29
    1132                            .dwpsn  file "./../packages/ti/vlib/src/VLIB_kalmanFilter_2x4_Correct/VLIB_kalmanFilter_2x4_Co
    1133 000001e4 00bce2e4             LDW     .D2T1   *+SP(28),A1       ; |85| 
    1134 000001e8 03bce2e4             LDW     .D2T1   *+SP(28),A7
    1135 000001ec     ec8d             LDW     .D2T1   *+SP(28),A16      ; |85| 
    1136 000001ee     ecbd             LDW     .D2T1   *+SP(28),A19
    1137                            .dwpsn  file "./../packages/ti/vlib/src/VLIB_kalmanFilter_2x4_Correct/VLIB_kalmanFilter_2x4_Co
    1138 000001f0     cccd             LDW     .D2T1   *+SP(24),A20      ; |86| 
    1139                            .dwpsn  file "./../packages/ti/vlib/src/VLIB_kalmanFilter_2x4_Correct/VLIB_kalmanFilter_2x4_Co
    1140 000001f2     ecdd             LDW     .D2T1   *+SP(28),A21      ; |85| 
    1141 000001f4     cced             LDW     .D2T1   *+SP(24),A22
    1142 000001f6     ecfd             LDW     .D2T1   *+SP(28),A23
    1143                            .dwpsn  file "./../packages/ti/vlib/src/VLIB_kalmanFilter_2x4_Correct/VLIB_kalmanFilter_2x4_Co
    1144 000001f8 0c3cc2e4             LDW     .D2T1   *+SP(24),A24      ; |86| 
    1145                            .dwpsn  file "./../packages/ti/vlib/src/VLIB_kalmanFilter_2x4_Correct/VLIB_kalmanFilter_2x4_Co
    1146 00000200 0cbce2e4             LDW     .D2T1   *+SP(28),A25      ; |95| 
    1147                            .dwpsn  file "./../packages/ti/vlib/src/VLIB_kalmanFilter_2x4_Correct/VLIB_kalmanFilter_2x4_Co
    1148 00000204 06990254             STH     .D1T1   A13,*+A6(16)      ; |98| 
    1149                            .dwpsn  file "./../packages/ti/vlib/src/VLIB_kalmanFilter_2x4_Correct/VLIB_kalmanFilter_2x4_Co
    1150 00000208 06998254             STH     .D1T1   A13,*+A6(24)      ; |100| 
    1151                            .dwpsn  file "./../packages/ti/vlib/src/VLIB_kalmanFilter_2x4_Correct/VLIB_kalmanFilter_2x4_Co
    1152 0000020c 06992254             STH     .D1T1   A13,*+A6(18)      ; |99| 
    1153                            .dwpsn  file "./../packages/ti/vlib/src/VLIB_kalmanFilter_2x4_Correct/VLIB_kalmanFilter_2x4_Co
    1154 00000210 06958254             STH     .D1T1   A13,*+A5(24)      ; |100| 
    1155                            .dwpsn  file "./../packages/ti/vlib/src/VLIB_kalmanFilter_2x4_Correct/VLIB_kalmanFilter_2x4_Co
TMS320C6x Assembler PC v7.4.2 Thu Mar 19 12:42:36 2015

Tools Copyright (c) 1996-2012 Texas Instruments Incorporated
package/lib/Regression/regress_d_c/./../packages/ti/vlib/src/VLIB_kalmanFilter_2x4_Correct/VLIB_kalmanFilter_2x4_Correct_d.se66 PAGE   22

    1156 00000214 06952254             STH     .D1T1   A13,*+A5(18)      ; |99| 
    1157                            .dwpsn  file "./../packages/ti/vlib/src/VLIB_kalmanFilter_2x4_Correct/VLIB_kalmanFilter_2x4_Co
    1158 00000218 06950254             STH     .D1T1   A13,*+A5(16)      ; |98| 
    1159                            .dwpsn  file "./../packages/ti/vlib/src/VLIB_kalmanFilter_2x4_Correct/VLIB_kalmanFilter_2x4_Co
    1160 0000021c 0f19a254             STH     .D1T1   A30,*+A6(26)      ; |101| 
    1161                    
    1162 00000220 0f07cfa9             MVK     .S1     0xf9f,A30
    1163 00000224 0f15a254  ||         STH     .D1T1   A30,*+A5(26)      ; |101| 
    1164                    
    1165                            .dwpsn  file "./../packages/ti/vlib/src/VLIB_kalmanFilter_2x4_Correct/VLIB_kalmanFilter_2x4_Co
    1166 00000228 069ac254             STH     .D1T1   A13,*+A6(44)      ; |104| 
    1167                            .dwpsn  file "./../packages/ti/vlib/src/VLIB_kalmanFilter_2x4_Correct/VLIB_kalmanFilter_2x4_Co
    1168 0000022c 069a4254             STH     .D1T1   A13,*+A6(36)      ; |102| 
    1169                            .dwpsn  file "./../packages/ti/vlib/src/VLIB_kalmanFilter_2x4_Correct/VLIB_kalmanFilter_2x4_Co
    1170 00000230 069a6254             STH     .D1T1   A13,*+A6(38)      ; |103| 
    1171                            .dwpsn  file "./../packages/ti/vlib/src/VLIB_kalmanFilter_2x4_Correct/VLIB_kalmanFilter_2x4_Co
    1172 00000234 0696c254             STH     .D1T1   A13,*+A5(44)      ; |104| 
    1173                            .dwpsn  file "./../packages/ti/vlib/src/VLIB_kalmanFilter_2x4_Correct/VLIB_kalmanFilter_2x4_Co
    1174 00000238 06966254             STH     .D1T1   A13,*+A5(38)      ; |103| 
    1175                            .dwpsn  file "./../packages/ti/vlib/src/VLIB_kalmanFilter_2x4_Correct/VLIB_kalmanFilter_2x4_Co
    1176 0000023c 06964254             STH     .D1T1   A13,*+A5(36)      ; |102| 
    1177                    
    1178 00000240 06e84255             STH     .D1T1   A13,*+A26(4)      ; |95| 
    1179 00000244 0d0ca358  ||         MVK     .L1     0x3,A26
    1180                    
    1181 00000248 0d8fd229             MVK     .S1     0x1fa4,A27
    1182 0000024c 06ec4254  ||         STH     .D1T1   A13,*+A27(4)      ; |95| 
    1183                    
    1184                            .dwpsn  file "./../packages/ti/vlib/src/VLIB_kalmanFilter_2x4_Correct/VLIB_kalmanFilter_2x4_Co
    1185 00000250 0f720254             STH     .D1T1   A30,*+A28(32)     ; |85| 
    1186 00000254 0f760254             STH     .D1T1   A30,*+A29(32)     ; |85| 
    1187                            .dwpsn  file "./../packages/ti/vlib/src/VLIB_kalmanFilter_2x4_Correct/VLIB_kalmanFilter_2x4_Co
    1188                    ;----------------------------------------------------------------------
    1189                    ; 105 | KF->processNoiseCov[15] = KF_cn->processNoiseCov[15] = 1.0 * INT16_MAX
    1190                    ;     | / VLIB_MAX_13p2;                                                       
    1191                    ;----------------------------------------------------------------------
    1192 00000258 0d1ae254             STH     .D1T1   A26,*+A6(46)      ; |105| 
    1193 0000025c 0d16e254             STH     .D1T1   A26,*+A5(46)      ; |105| 
    1194                            .dwpsn  file "./../packages/ti/vlib/src/VLIB_kalmanFilter_2x4_Correct/VLIB_kalmanFilter_2x4_Co
    1195 00000260 0d9b6254             STH     .D1T1   A27,*+A6(54)      ; |93| 
    1196                            .dwpsn  file "./../packages/ti/vlib/src/VLIB_kalmanFilter_2x4_Correct/VLIB_kalmanFilter_2x4_Co
    1197 00000264 0d9b0254             STH     .D1T1   A27,*+A6(48)      ; |92| 
    1198                            .dwpsn  file "./../packages/ti/vlib/src/VLIB_kalmanFilter_2x4_Correct/VLIB_kalmanFilter_2x4_Co
    1199 00000268 0698a254             STH     .D1T1   A13,*+A6(10)      ; |88| 
    1200 0000026c 06980254             STH     .D1T1   A13,*A6           ; |88| 
    1201                            .dwpsn  file "./../packages/ti/vlib/src/VLIB_kalmanFilter_2x4_Correct/VLIB_kalmanFilter_2x4_Co
    1202 00000270 0d970254             STH     .D1T1   A27,*+A5(48)      ; |92| 
    1203                            .dwpsn  file "./../packages/ti/vlib/src/VLIB_kalmanFilter_2x4_Correct/VLIB_kalmanFilter_2x4_Co
    1204 00000274 0d976254             STH     .D1T1   A27,*+A5(54)      ; |93| 
    1205                            .dwpsn  file "./../packages/ti/vlib/src/VLIB_kalmanFilter_2x4_Correct/VLIB_kalmanFilter_2x4_Co
    1206 00000278 0694a254             STH     .D1T1   A13,*+A5(10)      ; |88| 
    1207 0000027c 06940254             STH     .D1T1   A13,*A5           ; |88| 
    1208                            .dwpsn  file "./../packages/ti/vlib/src/VLIB_kalmanFilter_2x4_Correct/VLIB_kalmanFilter_2x4_Co
    1209 00000280 06fc0254             STH     .D1T1   A13,*A31          ; |86| 
    1210 00000284 06a4a254             STH     .D1T1   A13,*+A9(10)      ; |86| 
TMS320C6x Assembler PC v7.4.2 Thu Mar 19 12:42:36 2015

Tools Copyright (c) 1996-2012 Texas Instruments Incorporated
package/lib/Regression/regress_d_c/./../packages/ti/vlib/src/VLIB_kalmanFilter_2x4_Correct/VLIB_kalmanFilter_2x4_Correct_d.se66 PAGE   23

    1211                            .dwpsn  file "./../packages/ti/vlib/src/VLIB_kalmanFilter_2x4_Correct/VLIB_kalmanFilter_2x4_Co
    1212 00000288 040aa254             STH     .D1T1   A8,*+A2(42)       ; |85| 
    1213 0000028c 09474254             STH     .D1T1   A18,*+A17(52)     ; |85| 
    1214                            .dwpsn  file "./../packages/ti/vlib/src/VLIB_kalmanFilter_2x4_Correct/VLIB_kalmanFilter_2x4_Co
    1215 00000290 06840254             STH     .D1T1   A13,*A1           ; |86| 
    1216                            .dwpsn  file "./../packages/ti/vlib/src/VLIB_kalmanFilter_2x4_Correct/VLIB_kalmanFilter_2x4_Co
    1217 00000294 041ea254             STH     .D1T1   A8,*+A7(42)       ; |85| 
    1218                            .dwpsn  file "./../packages/ti/vlib/src/VLIB_kalmanFilter_2x4_Correct/VLIB_kalmanFilter_2x4_Co
    1219 00000298 06c0a254             STH     .D1T1   A13,*+A16(10)     ; |86| 
    1220                            .dwpsn  file "./../packages/ti/vlib/src/VLIB_kalmanFilter_2x4_Correct/VLIB_kalmanFilter_2x4_Co
    1221 0000029c 024f4254             STH     .D1T1   A4,*+A19(52)      ; |85| 
    1222                    
    1223 000002a0 06d14255             STH     .D1T1   A13,*+A20(20)     ; |86| 
    1224 000002a4 d0004110  || [!A0]   B       .S1     $C$L3             ; |107| 
    1225                    
    1226                            .dwpsn  file "./../packages/ti/vlib/src/VLIB_kalmanFilter_2x4_Correct/VLIB_kalmanFilter_2x4_Co
    1227 000002a8 06d54254             STH     .D1T1   A13,*+A21(20)     ; |86| 
    1228                            .dwpsn  file "./../packages/ti/vlib/src/VLIB_kalmanFilter_2x4_Correct/VLIB_kalmanFilter_2x4_Co
    1229 000002ac 025be254             STH     .D1T1   A4,*+A22(62)      ; |85| 
    1230 000002b0 025fe254             STH     .D1T1   A4,*+A23(62)      ; |85| 
    1231                            .dwpsn  file "./../packages/ti/vlib/src/VLIB_kalmanFilter_2x4_Correct/VLIB_kalmanFilter_2x4_Co
    1232 000002b4 06e1e254             STH     .D1T1   A13,*+A24(30)     ; |86| 
    1233 000002b8 06e5e254             STH     .D1T1   A13,*+A25(30)     ; |86| 
    1234                            .dwpsn  file "./../packages/ti/vlib/src/VLIB_kalmanFilter_2x4_Correct/VLIB_kalmanFilter_2x4_Co
    1235                    ;----------------------------------------------------------------------
    1236                    ; 107 | for( i=0; i < prm[tpi].numMeasurements; i++ ) {                        
    1237                    ;----------------------------------------------------------------------
    1238                               ; BRANCHCC OCCURS {$C$L3}         ; |107| 
    1239 000002bc           $C$DW$L$VLIB_kalmanFilter_2x4_Correct_d$10$E:
    1240                    ;** --------------------------------------------------------------------------*
    1241 000002bc           $C$DW$L$VLIB_kalmanFilter_2x4_Correct_d$11$B:
    1242                    ;**     -----------------------    U$166 = (const void *)Z_buffer;
    1243                    ;**     -----------------------    K$167 = 32767;
    1244                    ;**     -----------------------    K$189 = &cycles[0];
    1245                    ;** 107 -----------------------    i = 0;
    1246                    ;**     -----------------------    #pragma LOOP_FLAGS(5120u)
    1247 000002bc           $C$DW$L$VLIB_kalmanFilter_2x4_Correct_d$11$E:
    1248                    ;*----------------------------------------------------------------------------*
    1249                    ;*   SOFTWARE PIPELINE INFORMATION
    1250                    ;*      Disqualified loop: Loop contains a call
    1251                    ;*      Disqualified loop: Loop contains non-pipelinable instructions
    1252                    ;*      Disqualified loop: Loop contains a call
    1253                    ;*      Disqualified loop: Loop contains non-pipelinable instructions
    1254                    ;*      Disqualified loop: Loop contains a call
    1255                    ;*      Disqualified loop: Loop contains non-pipelinable instructions
    1256                    ;*      Disqualified loop: Loop contains a call
    1257                    ;*      Disqualified loop: Loop contains non-pipelinable instructions
    1258                    ;*      Disqualified loop: Loop contains a call
    1259                    ;*      Disqualified loop: Loop contains non-pipelinable instructions
    1260                    ;*      Disqualified loop: Loop contains non-pipelinable instructions
    1261                    ;*      Disqualified loop: Loop contains non-pipelinable instructions
    1262                    ;*      Disqualified loop: Loop contains a call
    1263                    ;*      Disqualified loop: Loop contains non-pipelinable instructions
    1264                    ;*      Disqualified loop: Loop contains non-pipelinable instructions
    1265                    ;*      Disqualified loop: Loop contains non-pipelinable instructions
TMS320C6x Assembler PC v7.4.2 Thu Mar 19 12:42:36 2015

Tools Copyright (c) 1996-2012 Texas Instruments Incorporated
package/lib/Regression/regress_d_c/./../packages/ti/vlib/src/VLIB_kalmanFilter_2x4_Correct/VLIB_kalmanFilter_2x4_Correct_d.se66 PAGE   24

    1266                    ;*      Disqualified loop: Loop contains a call
    1267                    ;*      Disqualified loop: Loop contains non-pipelinable instructions
    1268                    ;*      Disqualified loop: Loop contains a call
    1269                    ;*      Disqualified loop: Loop contains non-pipelinable instructions
    1270                    ;*      Disqualified loop: Loop contains a call
    1271                    ;*      Disqualified loop: Loop contains non-pipelinable instructions
    1272                    ;*      Disqualified loop: Loop contains a call
    1273                    ;*      Disqualified loop: Loop contains non-pipelinable instructions
    1274                    ;*      Disqualified loop: Loop contains non-pipelinable instructions
    1275                    ;*      Disqualified loop: Loop contains non-pipelinable instructions
    1276                    ;*      Disqualified loop: Loop contains a call
    1277                    ;*      Disqualified loop: Loop contains non-pipelinable instructions
    1278                    ;*      Disqualified loop: Loop contains control code
    1279                    ;*      Disqualified loop: Bad loop structure
    1280                    ;*----------------------------------------------------------------------------*
    1281 000002bc           $C$L2:    
    1282                            .dwpsn  file "./../packages/ti/vlib/src/VLIB_kalmanFilter_2x4_Correct/VLIB_kalmanFilter_2x4_Co
    1283 000002bc           $C$DW$L$VLIB_kalmanFilter_2x4_Correct_d$12$B:
    1284                    ;          EXCLUSIVE CPU CYCLES: 6
    1285                    ;**     -----------------------g6:
    1286                    ;** 110 -----------------------    VLIB_kalmanFilter_2x4_Predict_cn(KF);
    1287                    ;** 111 -----------------------    VLIB_kalmanFilter_2x4_Predict_cn(KF_cn);
    1288                    ;** 114 -----------------------    memcpy((void *)Z, U$166, 4u);
    1289                    ;** 115 -----------------------    C$4 = _mpy(*Z, K$167);
    1290                    ;** 115 -----------------------    *Z = (C$4>>9>>22)+C$4>>10;
    1291                    ;** 116 -----------------------    C$3 = _mpy(Z[1], K$167);
    1292                    ;** 116 -----------------------    Z[1] = (C$3>>9>>22)+C$3>>10;
    1293                    ;** 137 -----------------------    act_kernel = 0;  // [16]
    1294                    ;** 140 -----------------------    VLIB_cache_inval();  // [16]
    1295                    ;** 143 -----------------------    initStack(getSP());  // [16]
    1296                    ;** 146 -----------------------    beg_count = _itoll(TSCH, TSCL);  // [16]
    1297                    ;** 120 -----------------------    VLIB_kalmanFilter_2x4_Correct(KF, Z, Residual);
    1298                    ;** 153 -----------------------    v$2 = _itoll(TSCH, TSCL);  // [17]
    1299                    ;** 153 -----------------------    end_count = v$2;  // [17]
    1300                    ;** 156 -----------------------    C$2 = act_kernel;  // [17]
    1301                    ;** 156 -----------------------    *((C$2<<3)+K$189) = *((C$2<<3)+K$189)+(v$2-(beg_count+overhead));  
    1302                    ;** 159 -----------------------    setStackDepth();  // [17]
    1303                    ;** 137 -----------------------    act_kernel = 1;  // [16]
    1304                    ;** 140 -----------------------    VLIB_cache_inval();  // [16]
    1305                    ;** 143 -----------------------    initStack(getSP());  // [16]
    1306                    ;** 146 -----------------------    beg_count = _itoll(TSCH, TSCL);  // [16]
    1307                    ;** 125 -----------------------    VLIB_kalmanFilter_2x4_Correct_cn(KF_cn, Z, Residual_cn);
    1308                            .dwpsn  file "./../packages/ti/vlib/src/VLIB_kalmanFilter_2x4_Correct/VLIB_kalmanFilter_2x4_Co
    1309                    ;----------------------------------------------------------------------
    1310                    ; 110 | VLIB_kalmanFilter_2x4_Predict_cn(KF);  // The natC version is used so t
    1311                    ;     | hat the code size doesn't get counted                                  
    1312                    ;----------------------------------------------------------------------
    1313                    $C$DW$136       .dwtag  DW_TAG_TI_branch
    1314                            .dwattr $C$DW$136, DW_AT_low_pc(0x00)
    1315                            .dwattr $C$DW$136, DW_AT_name("VLIB_kalmanFilter_2x4_Predict_cn")
    1316                            .dwattr $C$DW$136, DW_AT_TI_call
    1317 000002bc 00000010!            CALL    .S1     VLIB_kalmanFilter_2x4_Predict_cn ; |110| 
    1318 000002c0 023ce2e4             LDW     .D2T1   *+SP(28),A4       ; |110| 
    1319 000002c4 01826162             ADDKPC  .S2     $C$RL11,B3,3      ; |110| 
    1320                    $C$RL11:   ; CALL OCCURS {VLIB_kalmanFilter_2x4_Predict_cn} {0}  ; |110| 
TMS320C6x Assembler PC v7.4.2 Thu Mar 19 12:42:36 2015

Tools Copyright (c) 1996-2012 Texas Instruments Incorporated
package/lib/Regression/regress_d_c/./../packages/ti/vlib/src/VLIB_kalmanFilter_2x4_Correct/VLIB_kalmanFilter_2x4_Correct_d.se66 PAGE   25

    1321                    $C$DW$L$VLIB_kalmanFilter_2x4_Correct_d$12$E:
    1322                    ;** --------------------------------------------------------------------------*
    1323                    $C$DW$L$VLIB_kalmanFilter_2x4_Correct_d$13$B:
    1324                    ;          EXCLUSIVE CPU CYCLES: 112
    1325                    $C$DW$137       .dwtag  DW_TAG_TI_branch
    1326                            .dwattr $C$DW$137, DW_AT_low_pc(0x00)
    1327                            .dwattr $C$DW$137, DW_AT_name("VLIB_kalmanFilter_2x4_Predict_cn")
    1328                            .dwattr $C$DW$137, DW_AT_TI_call
    1329                    
    1330 000002c8 10000013!            CALLP   .S2     VLIB_kalmanFilter_2x4_Predict_cn,B3
    1331 000002cc 023cc2e4  ||         LDW     .D2T1   *+SP(24),A4       ; |111| 
    1332                    
    1333                            .dwpsn  file "./../packages/ti/vlib/src/VLIB_kalmanFilter_2x4_Correct/VLIB_kalmanFilter_2x4_Co
    1334                    ;----------------------------------------------------------------------
    1335                    ; 111 | VLIB_kalmanFilter_2x4_Predict_cn(KF_cn);                               
    1336                    ;----------------------------------------------------------------------
    1337 000002d0           $C$RL12:   ; CALL OCCURS {VLIB_kalmanFilter_2x4_Predict_cn} {0}  ; |111| 
    1338                            .dwpsn  file "./../packages/ti/vlib/src/VLIB_kalmanFilter_2x4_Correct/VLIB_kalmanFilter_2x4_Co
    1339                    ;----------------------------------------------------------------------
    1340                    ; 114 | memcpy(Z, Z_buffer + 2 * i, sizeof(int16_t) * 2);                      
    1341                    ; 115 | Z[0] = Z[0] * INT16_MAX / VLIB_MAX_10p5;                               
    1342                    ; 116 | Z[1] = Z[1] * INT16_MAX / VLIB_MAX_10p5;                               
    1343                    ; 119 | VLIB_profile_start(vlib_KERNEL_OPT);                                   
    1344                    ; 120 | VLIB_kalmanFilter_2x4_Correct(KF, Z, Residual);                        
    1345                    ; 121 | VLIB_profile_stop();                                                   
    1346                    ; 124 | VLIB_profile_start(vlib_KERNEL_CN);                                    
    1347                    ; 125 | VLIB_kalmanFilter_2x4_Correct_cn(KF_cn, Z, Residual_cn);               
    1348                    ; 126 | VLIB_profile_stop();                                                   
    1349                    ; 130 | status_nat_vs_int = VLIB_compare_mem((void *) &KF->state[0], (void *) &
    1350                    ;     | KF_cn->state[0], 4 * sizeof(int16_t));                                 
    1351                    ; 133 | if( prm[tpi].staticOut != NULL ) {                                     
    1352                    ; 134 | status_nat_vs_ref = VLIB_compare_mem((void *) prm[tpi].staticOut, (void
    1353                    ;     |  *)&KF_cn->state[0], 4 * sizeof(int16_t));                             
    1354                    ;----------------------------------------------------------------------
    1355 000002d0 022803b6             LDNW    .D2T2   *B10,B4           ; |114| 
    1356 000002d4 01bd62e4             LDW     .D2T1   *+SP(44),A3
    1357 000002d8 0fbfffa8             MVK     .S1     0x7fff,A31
    1358 000002dc 02800028!            MVKL    .S1     act_kernel,A5
    1359 000002e0 02800068!            MVKH    .S1     act_kernel,A5
    1360                            .dwpsn  file ".\..\packages\ti\vlib\src\VLIB_kalmanFilter_2x4_Correct\..\common\VLIB_profile.h
    1361 000002e4 0e80a358             ZERO    .L1     A29               ; |137| 
    1362                            .dwpsn  file "./../packages/ti/vlib/src/VLIB_kalmanFilter_2x4_Correct/VLIB_kalmanFilter_2x4_Co
    1363 000002e8 020c0356             STNW    .D1T2   B4,*A3            ; |114| 
    1364                            .dwpsn  file "./../packages/ti/vlib/src/VLIB_kalmanFilter_2x4_Correct/VLIB_kalmanFilter_2x4_Co
    1365 000002ec 023d62e4             LDW     .D2T1   *+SP(44),A4       ; |116| 
    1366 000002f0 018c2244             LDH     .D1T1   *+A3(2),A3        ; |116| 
    1367                            .dwpsn  file ".\..\packages\ti\vlib\src\VLIB_kalmanFilter_2x4_Correct\..\common\VLIB_profile.h
    1368                    ;----------------------------------------------------------------------
    1369                    ; 138 | fail = ((status_nat_vs_int == vlib_KERNEL_FAIL) || (status_nat_vs_ref =
    1370                    ;     | = vlib_KERNEL_FAIL)) ? 1 : 0;                                          
    1371                    ;----------------------------------------------------------------------
    1372 000002f4 0e940274             STW     .D1T1   A29,*A5           ; |137| 
    1373 000002f8     4c6e             NOP             3
    1374                    
    1375 000002fa     124c             LDH     .D1T2   *A4,B4            ; |115| 
TMS320C6x Assembler PC v7.4.2 Thu Mar 19 12:42:36 2015

Tools Copyright (c) 1996-2012 Texas Instruments Incorporated
package/lib/Regression/regress_d_c/./../packages/ti/vlib/src/VLIB_kalmanFilter_2x4_Correct/VLIB_kalmanFilter_2x4_Correct_d.se66 PAGE   26

    1376 00000300 01fc6c80  ||         MPY     .M1     A3,A31,A3         ; |116| 
    1377                    
    1378 00000304 00000000             NOP             1
    1379                            .dwpsn  file "./../packages/ti/vlib/src/VLIB_kalmanFilter_2x4_Correct/VLIB_kalmanFilter_2x4_Co
    1380 00000308 0f0d2da0             SHR     .S1     A3,9,A30          ; |116| 
    1381 0000030c 027ac9a0             SHRU    .S1     A30,22,A4         ; |116| 
    1382 00000310     6230             ADD     .L1     A3,A4,A3          ; |116| 
    1383                    
    1384 00000318 027c9c82             MPY     .M2X    B4,A31,B4         ; |115| 
    1385 00000314 020d4da1  ||         SHR     .S1     A3,10,A4          ; |116| 
    1386 00000312     ed3d  ||         LDW     .D2T1   *+SP(44),A3       ; |137| 
    1387                    
    1388 00000320 00000000             NOP             1
    1389                            .dwpsn  file "./../packages/ti/vlib/src/VLIB_kalmanFilter_2x4_Correct/VLIB_kalmanFilter_2x4_Co
    1390 00000324 02912da2             SHR     .S2     B4,9,B5           ; |115| 
    1391 00000328     d6c3             SHRU    .S2     B5,22,B5          ; |115| 
    1392 0000032a     82c1             ADD     .L2     B4,B5,B4          ; |115| 
    1393                    
    1394 00000330 02114da2             SHR     .S2     B4,10,B4          ; |115| 
    1395 0000032c 020c2255  ||         STH     .D1T1   A4,*+A3(2)        ; |116| 
    1396                    
    1397                    $C$DW$138       .dwtag  DW_TAG_TI_branch
    1398                            .dwattr $C$DW$138, DW_AT_low_pc(0x00)
    1399                            .dwattr $C$DW$138, DW_AT_name("VLIB_cache_inval")
    1400                            .dwattr $C$DW$138, DW_AT_TI_call
    1401                    
    1402 00000334 10000013!            CALLP   .S2     VLIB_cache_inval,B3
    1403 00000338 020c0256  ||         STH     .D1T2   B4,*A3            ; |115| 
    1404                    
    1405                            .dwpsn  file ".\..\packages\ti\vlib\src\VLIB_kalmanFilter_2x4_Correct\..\common\VLIB_profile.h
    1406                    ;----------------------------------------------------------------------
    1407                    ; 140 | est_test=1;                                                            
    1408                    ;----------------------------------------------------------------------
    1409                    $C$RL13:   ; CALL OCCURS {VLIB_cache_inval} {0}  ; |140| 
    1410                    $C$DW$139       .dwtag  DW_TAG_TI_branch
    1411                            .dwattr $C$DW$139, DW_AT_low_pc(0x00)
    1412                            .dwattr $C$DW$139, DW_AT_name("getSP")
    1413                            .dwattr $C$DW$139, DW_AT_TI_call
    1414 00000340 10000012!            CALLP   .S2     getSP,B3
    1415                            .dwpsn  file ".\..\packages\ti\vlib\src\VLIB_kalmanFilter_2x4_Correct\..\common\VLIB_profile.h
    1416                    ;----------------------------------------------------------------------
    1417                    ; 143 | sprintf(desc, "%s generated input | Opt results compared to NatC result
    1418                    ;     | s | num_measurements=%d",                                              
    1419                    ; 144 |         testPatternString, prm[tpi].numMeasurements);                  
    1420                    ; 145 | VLIB_formula_add_test(prm[tpi].numMeasurements, NULL, NULL, fail, desc,
    1421                    ;     |  NULL);                                                                
    1422                    ;----------------------------------------------------------------------
    1423                    $C$RL14:   ; CALL OCCURS {getSP} {0}         ; |143| 
    1424                    $C$DW$140       .dwtag  DW_TAG_TI_branch
    1425                            .dwattr $C$DW$140, DW_AT_low_pc(0x00)
    1426                            .dwattr $C$DW$140, DW_AT_name("initStack")
    1427                            .dwattr $C$DW$140, DW_AT_TI_call
    1428 00000344 10000012!            CALLP   .S2     initStack,B3
    1429 00000348           $C$RL15:   ; CALL OCCURS {initStack} {0}     ; |143| 
    1430                            .dwpsn  file ".\..\packages\ti\vlib\src\VLIB_kalmanFilter_2x4_Correct\..\common\VLIB_profile.h
TMS320C6x Assembler PC v7.4.2 Thu Mar 19 12:42:36 2015

Tools Copyright (c) 1996-2012 Texas Instruments Incorporated
package/lib/Regression/regress_d_c/./../packages/ti/vlib/src/VLIB_kalmanFilter_2x4_Correct/VLIB_kalmanFilter_2x4_Correct_d.se66 PAGE   27

    1431                    ;----------------------------------------------------------------------
    1432                    ; 147 | } else {                                                               
    1433                    ; 149 |     sprintf(desc, "num_measurements=%d",                               
    1434                    ; 150 |             prm[tpi].numMeasurements);                                 
    1435                    ; 151 |     VLIB_skip_test(desc);                                              
    1436                    ;----------------------------------------------------------------------
    1437 00000348 032803e2             MVC     .S2     TSCL,B6           ; |146| 
    1438 0000034c 022c03e2             MVC     .S2     TSCH,B4           ; |146| 
    1439                    
    1440 00000354     eccd             LDW     .D2T1   *+SP(28),A4       ; |120| 
    1441 00000350 01800029! ||         MVKL    .S1     beg_count,A3
    1442                    
    1443 00000356     e247             MV      .L2     B4,B7             ; |146| 
    1444 00000360     fd4d  ||         LDW     .D2T2   *+SP(44),B4       ; |120| 
    1445 00000358 01800069! ||         MVKH    .S1     beg_count,A3
    1446                    
    1447                    $C$DW$141       .dwtag  DW_TAG_TI_branch
    1448                            .dwattr $C$DW$141, DW_AT_low_pc(0x00)
    1449                            .dwattr $C$DW$141, DW_AT_name("VLIB_kalmanFilter_2x4_Correct")
    1450                            .dwattr $C$DW$141, DW_AT_TI_call
    1451                    
    1452 00000364 10000013!            CALLP   .S2     VLIB_kalmanFilter_2x4_Correct,B3
    1453 00000362     ad6d  ||         LDW     .D2T1   *+SP(36),A6       ; |120| 
    1454 00000368 030c0346  ||         STDW    .D1T2   B7:B6,*A3         ; |146| 
    1455                    
    1456                            .dwpsn  file "./../packages/ti/vlib/src/VLIB_kalmanFilter_2x4_Correct/VLIB_kalmanFilter_2x4_Co
    1457 0000036c           $C$RL16:   ; CALL OCCURS {VLIB_kalmanFilter_2x4_Correct} {0}  ; |120| 
    1458                            .dwpsn  file ".\..\packages\ti\vlib\src\VLIB_kalmanFilter_2x4_Correct\..\common\VLIB_profile.h
    1459                    ;----------------------------------------------------------------------
    1460                    ; 155 | align_free(KF_cn);                                                     
    1461                    ;----------------------------------------------------------------------
    1462 0000036c 032803e2             MVC     .S2     TSCL,B6           ; |153| 
    1463 00000370 03ac03e2             MVC     .S2     TSCH,B7           ; |153| 
    1464 00000374 0200002a!            MVKL    .S2     overhead,B4
    1465                    
    1466 00000378 01800029!            MVKL    .S1     act_kernel,A3
    1467 00000380 0200006a! ||         MVKH    .S2     overhead,B4
    1468                    
    1469 00000384 01800069!            MVKH    .S1     act_kernel,A3
    1470 00000388 0280002a! ||         MVKL    .S2     beg_count,B5
    1471                    
    1472 0000038c 018c0265             LDW     .D1T1   *A3,A3            ; |156| 
    1473 00000390 0280006b! ||         MVKH    .S2     beg_count,B5
    1474 00000394 081003e6  ||         LDDW    .D2T2   *B4,B17:B16       ; |156| 
    1475                    
    1476                            .dwpsn  file ".\..\packages\ti\vlib\src\VLIB_kalmanFilter_2x4_Correct\..\common\VLIB_profile.h
    1477                    ;----------------------------------------------------------------------
    1478                    ; 156 | VLIB_align_free(KF);                                                   
    1479                    ; 157 | align_free(Residual_cn);                                               
    1480                    ; 158 | VLIB_align_free(Residual);                                             
    1481                    ;----------------------------------------------------------------------
    1482 00000398 041403e6             LDDW    .D2T2   *B5,B9:B8         ; |156| 
    1483 0000039c 00004000             NOP             3
    1484 000003a0 03286b64             LDDW    .D1T1   *+A10[A3],A7:A6   ; |156| 
    1485 000003a4 0222057a             ADDU    .L2     B16,B8,B5:B4      ; |156| 
TMS320C6x Assembler PC v7.4.2 Thu Mar 19 12:42:36 2015

Tools Copyright (c) 1996-2012 Texas Instruments Incorporated
package/lib/Regression/regress_d_c/./../packages/ti/vlib/src/VLIB_kalmanFilter_2x4_Correct/VLIB_kalmanFilter_2x4_Correct_d.se66 PAGE   28

    1486 000003a8 0844a07a             ADD     .L2     B5,B17,B16        ; |156| 
    1487                    
    1488 000003ac 04a601e3             ADD     .S2     B16,B9,B9         ; |156| 
    1489 000003b0 0210c5fa  ||         SUBU    .L2     B6,B4,B5:B4       ; |156| 
    1490                    
    1491 000003b4 0fa4e0fb             SUB     .L2     B7,B9,B31         ; |156| 
    1492 000003b8 0297184a  ||         EXT     .S2     B5,24,24,B5       ; |156| 
    1493                    
    1494 000003bc 0210d579             ADDU    .L1X    A6,B4,A5:A4       ; |156| 
    1495 000003c0 0217e07a  ||         ADD     .L2     B31,B5,B4         ; |156| 
    1496                    
    1497 000003c8     a3d0             ADD     .L1     A5,A7,A5          ; |156| 
    1498 000003c4 0400002b! ||         MVKL    .S2     end_count,B8
    1499                    
    1500 000003ca     b250             ADD     .L1X    A5,B4,A5          ; |156| 
    1501 000003cc 0400006a! ||         MVKH    .S2     end_count,B8
    1502                    
    1503                    $C$DW$142       .dwtag  DW_TAG_TI_branch
    1504                            .dwattr $C$DW$142, DW_AT_low_pc(0x00)
    1505                            .dwattr $C$DW$142, DW_AT_name("setStackDepth")
    1506                            .dwattr $C$DW$142, DW_AT_TI_call
    1507                    
    1508 000003d0 10000013!            CALLP   .S2     setStackDepth,B3
    1509 000003d4 02286b45  ||         STDW    .D1T1   A5:A4,*+A10[A3]   ; |156| 
    1510 000003d8 032003c6  ||         STDW    .D2T2   B7:B6,*B8         ; |153| 
    1511                    
    1512                            .dwpsn  file ".\..\packages\ti\vlib\src\VLIB_kalmanFilter_2x4_Correct\..\common\VLIB_profile.h
    1513                    ;----------------------------------------------------------------------
    1514                    ; 159 | align_free(Z_buffer);                                                  
    1515                    ;----------------------------------------------------------------------
    1516 000003e0           $C$RL17:   ; CALL OCCURS {setStackDepth} {0}  ; |159| 
    1517 000003e0 02000028!            MVKL    .S1     act_kernel,A4
    1518                    
    1519 000003e4 02000069!            MVKH    .S1     act_kernel,A4
    1520 000003e8     25a6  ||         MVK     .L1     1,A3              ; |137| 
    1521                    
    1522                    $C$DW$143       .dwtag  DW_TAG_TI_branch
    1523                            .dwattr $C$DW$143, DW_AT_low_pc(0x00)
    1524                            .dwattr $C$DW$143, DW_AT_name("VLIB_cache_inval")
    1525                            .dwattr $C$DW$143, DW_AT_TI_call
    1526                    
    1527 000003ec 10000012!            CALLP   .S2     VLIB_cache_inval,B3
    1528 000003ea     0034  ||         STW     .D1T1   A3,*A4            ; |137| 
    1529                    
    1530                            .dwpsn  file ".\..\packages\ti\vlib\src\VLIB_kalmanFilter_2x4_Correct\..\common\VLIB_profile.h
    1531                    $C$RL18:   ; CALL OCCURS {VLIB_cache_inval} {0}  ; |140| 
    1532                    $C$DW$144       .dwtag  DW_TAG_TI_branch
    1533                            .dwattr $C$DW$144, DW_AT_low_pc(0x00)
    1534                            .dwattr $C$DW$144, DW_AT_name("getSP")
    1535                            .dwattr $C$DW$144, DW_AT_TI_call
    1536 000003f0 10000012!            CALLP   .S2     getSP,B3
    1537                            .dwpsn  file ".\..\packages\ti\vlib\src\VLIB_kalmanFilter_2x4_Correct\..\common\VLIB_profile.h
    1538                    $C$RL19:   ; CALL OCCURS {getSP} {0}         ; |143| 
    1539                    $C$DW$145       .dwtag  DW_TAG_TI_branch
    1540                            .dwattr $C$DW$145, DW_AT_low_pc(0x00)
TMS320C6x Assembler PC v7.4.2 Thu Mar 19 12:42:36 2015

Tools Copyright (c) 1996-2012 Texas Instruments Incorporated
package/lib/Regression/regress_d_c/./../packages/ti/vlib/src/VLIB_kalmanFilter_2x4_Correct/VLIB_kalmanFilter_2x4_Correct_d.se66 PAGE   29

    1541                            .dwattr $C$DW$145, DW_AT_name("initStack")
    1542                            .dwattr $C$DW$145, DW_AT_TI_call
    1543 000003f4 10000012!            CALLP   .S2     initStack,B3
    1544 000003f8           $C$RL20:   ; CALL OCCURS {initStack} {0}     ; |143| 
    1545                            .dwpsn  file ".\..\packages\ti\vlib\src\VLIB_kalmanFilter_2x4_Correct\..\common\VLIB_profile.h
    1546 000003f8 032803e2             MVC     .S2     TSCL,B6           ; |146| 
    1547 00000400 022c03e2             MVC     .S2     TSCH,B4           ; |146| 
    1548                    
    1549 00000408     cccd             LDW     .D2T1   *+SP(24),A4       ; |125| 
    1550 00000404 01800029! ||         MVKL    .S1     beg_count,A3
    1551                    
    1552 0000040a     e247             MV      .L2     B4,B7             ; |146| 
    1553 00000410     fd4d  ||         LDW     .D2T2   *+SP(44),B4       ; |125| 
    1554 0000040c 01800069! ||         MVKH    .S1     beg_count,A3
    1555                    
    1556                    $C$DW$146       .dwtag  DW_TAG_TI_branch
    1557                            .dwattr $C$DW$146, DW_AT_low_pc(0x00)
    1558                            .dwattr $C$DW$146, DW_AT_name("VLIB_kalmanFilter_2x4_Correct_cn")
    1559                            .dwattr $C$DW$146, DW_AT_TI_call
    1560                    
    1561 00000414 10000013!            CALLP   .S2     VLIB_kalmanFilter_2x4_Correct_cn,B3
    1562 00000412     8d6d  ||         LDW     .D2T1   *+SP(32),A6       ; |125| 
    1563 00000418 030c0346  ||         STDW    .D1T2   B7:B6,*A3         ; |146| 
    1564                    
    1565                            .dwpsn  file "./../packages/ti/vlib/src/VLIB_kalmanFilter_2x4_Correct/VLIB_kalmanFilter_2x4_Co
    1566 00000420           $C$RL21:   ; CALL OCCURS {VLIB_kalmanFilter_2x4_Correct_cn} {0}  ; |125| 
    1567 00000420           $C$DW$L$VLIB_kalmanFilter_2x4_Correct_d$13$E:
    1568                    ;** --------------------------------------------------------------------------*
    1569 00000420           $C$DW$L$VLIB_kalmanFilter_2x4_Correct_d$14$B:
    1570                    ;          EXCLUSIVE CPU CYCLES: 24
    1571                    ;** 153 -----------------------    v$2 = _itoll(TSCH, TSCL);  // [17]
    1572                    ;** 153 -----------------------    end_count = v$2;  // [17]
    1573                    ;** 156 -----------------------    C$1 = act_kernel;  // [17]
    1574                    ;** 156 -----------------------    *((C$1<<3)+K$189) = *((C$1<<3)+K$189)+(v$2-(beg_count+overhead));  
    1575                    ;** 159 -----------------------    setStackDepth();  // [17]
    1576                    ;** 107 -----------------------    U$166 += 4;
    1577                    ;** 107 -----------------------    if ( (*U$15).numMeasurements > (++i) ) goto g6;
    1578                            .dwpsn  file ".\..\packages\ti\vlib\src\VLIB_kalmanFilter_2x4_Correct\..\common\VLIB_profile.h
    1579 00000420 042803e2             MVC     .S2     TSCL,B8           ; |153| 
    1580 00000424 022c03e2             MVC     .S2     TSCH,B4           ; |153| 
    1581 00000428 0300002a!            MVKL    .S2     overhead,B6
    1582                    
    1583 0000042c 01800029!            MVKL    .S1     act_kernel,A3
    1584 00000430 0280002a! ||         MVKL    .S2     beg_count,B5
    1585                    
    1586 00000434 01800069!            MVKH    .S1     act_kernel,A3
    1587 00000438 0300006a! ||         MVKH    .S2     overhead,B6
    1588                    
    1589 0000043c 018c0265             LDW     .D1T1   *A3,A3            ; |156| 
    1590 00000440 0280006b! ||         MVKH    .S2     beg_count,B5
    1591 00000444 081803e6  ||         LDDW    .D2T2   *B6,B17:B16       ; |156| 
    1592                    
    1593                            .dwpsn  file ".\..\packages\ti\vlib\src\VLIB_kalmanFilter_2x4_Correct\..\common\VLIB_profile.h
    1594 00000448 031403e6             LDDW    .D2T2   *B5,B7:B6         ; |156| 
    1595                            .dwpsn  file ".\..\packages\ti\vlib\src\VLIB_kalmanFilter_2x4_Correct\..\common\VLIB_profile.h
TMS320C6x Assembler PC v7.4.2 Thu Mar 19 12:42:36 2015

Tools Copyright (c) 1996-2012 Texas Instruments Incorporated
package/lib/Regression/regress_d_c/./../packages/ti/vlib/src/VLIB_kalmanFilter_2x4_Correct/VLIB_kalmanFilter_2x4_Correct_d.se66 PAGE   30

    1596 0000044c     2647             MV      .L2     B4,B9             ; |153| 
    1597 0000044e     2c6e             NOP             2
    1598                            .dwpsn  file ".\..\packages\ti\vlib\src\VLIB_kalmanFilter_2x4_Correct\..\common\VLIB_profile.h
    1599 00000450 03286b64             LDDW    .D1T1   *+A10[A3],A7:A6   ; |156| 
    1600 00000454 021a057a             ADDU    .L2     B16,B6,B5:B4      ; |156| 
    1601 00000458 0344a07a             ADD     .L2     B5,B17,B6         ; |156| 
    1602                    
    1603 00000464     c3eb             ADD     .S2     B6,B7,B6          ; |156| 
    1604 00000460 021105fb  ||         SUBU    .L2     B8,B4,B5:B4       ; |156| 
    1605                    
    1606 00000468 0f9920fa             SUB     .L2     B9,B6,B31         ; |156| 
    1607 00000466     aae3  ||         EXT     .S2     B5,24,24,B5       ; |156| 
    1608                    
    1609 0000046c 0210d579             ADDU    .L1X    A6,B4,A5:A4       ; |156| 
    1610 00000470 0217e07a  ||         ADD     .L2     B31,B5,B4         ; |156| 
    1611                    
    1612 00000478     a3d0             ADD     .L1     A5,A7,A5          ; |156| 
    1613 00000474 0800002b! ||         MVKL    .S2     end_count,B16
    1614                    
    1615 0000047a     b250             ADD     .L1X    A5,B4,A5          ; |156| 
    1616 00000480 0800006a! ||         MVKH    .S2     end_count,B16
    1617                    
    1618                    $C$DW$147       .dwtag  DW_TAG_TI_branch
    1619                            .dwattr $C$DW$147, DW_AT_low_pc(0x00)
    1620                            .dwattr $C$DW$147, DW_AT_name("setStackDepth")
    1621                            .dwattr $C$DW$147, DW_AT_TI_call
    1622                    
    1623 00000484 10000013!            CALLP   .S2     setStackDepth,B3
    1624 00000488 02286b45  ||         STDW    .D1T1   A5:A4,*+A10[A3]   ; |156| 
    1625 0000048c 044003c6  ||         STDW    .D2T2   B9:B8,*B16        ; |153| 
    1626                    
    1627                            .dwpsn  file ".\..\packages\ti\vlib\src\VLIB_kalmanFilter_2x4_Correct\..\common\VLIB_profile.h
    1628 00000490           $C$RL22:   ; CALL OCCURS {setStackDepth} {0}  ; |159| 
    1629 00000490           $C$DW$L$VLIB_kalmanFilter_2x4_Correct_d$14$E:
    1630                    ;** --------------------------------------------------------------------------*
    1631 00000490           $C$DW$L$VLIB_kalmanFilter_2x4_Correct_d$15$B:
    1632                    ;          EXCLUSIVE CPU CYCLES: 12
    1633                            .dwpsn  file "./../packages/ti/vlib/src/VLIB_kalmanFilter_2x4_Correct/VLIB_kalmanFilter_2x4_Co
    1634 00000490 01acc204             LDHU    .D1T1   *+A11(12),A3      ; |107| 
    1635 00000494 0528805a             ADD     .L2     4,B10,B10         ; |107| 
    1636 00000498 06302058             ADD     .L1     1,A12,A12         ; |107| 
    1637 0000049c 00002000             NOP             2
    1638 000004a0 003068f8             CMPGT   .L1     A3,A12,A0         ; |107| 
    1639 000004a4 cf0ea120     [ A0]   BNOP    .S1     $C$L2,5           ; |107| 
    1640                               ; BRANCHCC OCCURS {$C$L2}         ; |107| 
    1641 000004a8           $C$DW$L$VLIB_kalmanFilter_2x4_Correct_d$15$E:
    1642                    ;** --------------------------------------------------------------------------*
    1643 000004a8           $C$L3:    
    1644 000004a8           $C$DW$L$VLIB_kalmanFilter_2x4_Correct_d$16$B:
    1645                    ;          EXCLUSIVE CPU CYCLES: 18
    1646                    ;**     -----------------------g7:
    1647                    ;** 130 -----------------------    U$200 = (short (*)[4])KF_cn+96;
    1648                    ;** 130 -----------------------    status_nat_vs_int = VLIB_compare_mem((short (*)[4])KF+96, U$200, 8)
    1649                    ;** 133 -----------------------    v$1 = prm;
    1650                    ;** 133 -----------------------    U$204 = (*U$15).staticOut;
TMS320C6x Assembler PC v7.4.2 Thu Mar 19 12:42:36 2015

Tools Copyright (c) 1996-2012 Texas Instruments Incorporated
package/lib/Regression/regress_d_c/./../packages/ti/vlib/src/VLIB_kalmanFilter_2x4_Correct/VLIB_kalmanFilter_2x4_Correct_d.se66 PAGE   31

    1651                    ;** 133 -----------------------    if ( U$204 ) goto g9;
    1652                    ;** 57  -----------------------    status_nat_vs_ref = 1;
    1653                    ;**     -----------------------    goto g10;
    1654 000004a8     ecbd             LDW     .D2T1   *+SP(28),A3
    1655                            .dwpsn  file "./../packages/ti/vlib/src/VLIB_kalmanFilter_2x4_Correct/VLIB_kalmanFilter_2x4_Co
    1656 000004aa     0f26             MVK     .L1     0x8,A6            ; |130| 
    1657 000004ac     4c6e             NOP             3
    1658                    
    1659 000004b0 020d9ec0             ADDAD   .D1     A3,12,A4          ; |130| 
    1660 000004ae     ccbd  ||         LDW     .D2T1   *+SP(24),A3       ; |130| 
    1661                    
    1662 000004b4 00006000             NOP             4
    1663 000004b8 050d9ec0             ADDAD   .D1     A3,12,A10         ; |130| 
    1664 000004c0     0c6e             NOP             1
    1665                    $C$DW$148       .dwtag  DW_TAG_TI_branch
    1666                            .dwattr $C$DW$148, DW_AT_low_pc(0x00)
    1667                            .dwattr $C$DW$148, DW_AT_name("VLIB_compare_mem")
    1668                            .dwattr $C$DW$148, DW_AT_TI_call
    1669                    
    1670 000004c4 10000012!            CALLP   .S2     VLIB_compare_mem,B3
    1671 000004c2     9507  ||         MV      .L2X    A10,B4            ; |130| 
    1672                    
    1673 000004c8           $C$RL23:   ; CALL OCCURS {VLIB_compare_mem} {0}  ; |130| 
    1674 000004c8           $C$DW$L$VLIB_kalmanFilter_2x4_Correct_d$16$E:
    1675                    ;** --------------------------------------------------------------------------*
    1676 000004c8           $C$DW$L$VLIB_kalmanFilter_2x4_Correct_d$17$B:
    1677                    ;          EXCLUSIVE CPU CYCLES: 11
    1678                            .dwpsn  file "./../packages/ti/vlib/src/VLIB_kalmanFilter_2x4_Correct/VLIB_kalmanFilter_2x4_Co
    1679 000004c8 002c4264             LDW     .D1T1   *+A11(8),A0       ; |133| 
    1680 000004cc     bccd             LDW     .D2T2   *+SP(20),B4       ; |133| 
    1681                            .dwpsn  file "./../packages/ti/vlib/src/VLIB_kalmanFilter_2x4_Correct/VLIB_kalmanFilter_2x4_Co
    1682 000004ce     5647             MV      .L2X    A4,B10            ; |130| 
    1683 000004d0     2c6e             NOP             2
    1684 000004d2     06ba     [!A0]   B       .S1     $C$L4
    1685                            .dwpsn  file "./../packages/ti/vlib/src/VLIB_kalmanFilter_2x4_Correct/VLIB_kalmanFilter_2x4_Co
    1686                    $C$DW$149       .dwtag  DW_TAG_TI_branch
    1687                            .dwattr $C$DW$149, DW_AT_low_pc(0x00)
    1688                            .dwattr $C$DW$149, DW_AT_name("VLIB_compare_mem")
    1689                            .dwattr $C$DW$149, DW_AT_TI_call
    1690 000004d4 c0000010!    [ A0]   CALL    .S1     VLIB_compare_mem  ; |134| 
    1691                            .dwpsn  file "./../packages/ti/vlib/src/VLIB_kalmanFilter_2x4_Correct/VLIB_kalmanFilter_2x4_Co
    1692 000004d8 d7b40fd8     [!A0]   MV      .L1     A13,A15           ; |133| 
    1693 000004e0     4c6e             NOP             3
    1694                               ; BRANCHCC OCCURS {$C$L4}  
    1695 000004e2           $C$DW$L$VLIB_kalmanFilter_2x4_Correct_d$17$E:
    1696                    ;** --------------------------------------------------------------------------*
    1697 000004e2           $C$DW$L$VLIB_kalmanFilter_2x4_Correct_d$18$B:
    1698                    ;          EXCLUSIVE CPU CYCLES: 1
    1699                    ;**     -----------------------g9:
    1700                    ;** 134 -----------------------    status_nat_vs_ref = VLIB_compare_mem((void *)U$204, U$200, 8);
    1701                    ;** 134 -----------------------    v$1 = prm;
    1702                    
    1703 000004e2     0f26             MVK     .L1     0x8,A6            ; |134| 
    1704 000004e4     9507  ||         MV      .L2X    A10,B4            ; |134| 
    1705 000004e6     804e  ||         MV      .S1     A0,A4             ; |134| 
TMS320C6x Assembler PC v7.4.2 Thu Mar 19 12:42:36 2015

Tools Copyright (c) 1996-2012 Texas Instruments Incorporated
package/lib/Regression/regress_d_c/./../packages/ti/vlib/src/VLIB_kalmanFilter_2x4_Correct/VLIB_kalmanFilter_2x4_Correct_d.se66 PAGE   32

    1706 000004e8 01830162  ||         ADDKPC  .S2     $C$RL24,B3,0      ; |134| 
    1707                    
    1708                            .dwpsn  file "./../packages/ti/vlib/src/VLIB_kalmanFilter_2x4_Correct/VLIB_kalmanFilter_2x4_Co
    1709 000004ec           $C$RL24:   ; CALL OCCURS {VLIB_compare_mem} {0}  ; |134| 
    1710 000004ec           $C$DW$L$VLIB_kalmanFilter_2x4_Correct_d$18$E:
    1711                    ;** --------------------------------------------------------------------------*
    1712 000004ec           $C$DW$L$VLIB_kalmanFilter_2x4_Correct_d$19$B:
    1713                    ;          EXCLUSIVE CPU CYCLES: 5
    1714 000004ec     bccd             LDW     .D2T2   *+SP(20),B4       ; |134| 
    1715 000004ee     e646             MV      .L1     A4,A15            ; |134| 
    1716 000004f0 00004000             NOP             3
    1717 000004f4           $C$DW$L$VLIB_kalmanFilter_2x4_Correct_d$19$E:
    1718                    ;** --------------------------------------------------------------------------*
    1719 000004f4           $C$L4:    
    1720 000004f4           $C$DW$L$VLIB_kalmanFilter_2x4_Correct_d$20$B:
    1721                    ;          EXCLUSIVE CPU CYCLES: 12
    1722                    ;**     -----------------------g10:
    1723                    ;** 140 -----------------------    est_test = 1;
    1724                    ;** 143 -----------------------    sprintf(K$216, (const char *)"%s generated input | Opt results comp
    1725                    ;** 145 -----------------------    VLIB_formula_add_test((int)(*U$15).numMeasurements, 0, 0, (status_n
    1726                    ;** 147 -----------------------    goto g12;
    1727                            .dwpsn  file "./../packages/ti/vlib/src/VLIB_kalmanFilter_2x4_Correct/VLIB_kalmanFilter_2x4_Co
    1728 000004f4 0234807a             ADD     .L2     B4,B13,B4         ; |143| 
    1729 000004f8 0210c286             LDHU    .D2T2   *+B4(12),B4       ; |143| 
    1730 00000500 02000028!            MVKL    .S1     est_test,A4
    1731 00000504 0280002a!            MVKL    .S2     $C$SL2+0,B5
    1732                    
    1733 00000508 02000069!            MVKH    .S1     est_test,A4
    1734 00000514     25a6  ||         MVK     .L1     1,A3              ; |140| 
    1735 00000510 0280006b! ||         MVKH    .S2     $C$SL2+0,B5
    1736 0000050c 063c42f7  ||         STW     .D2T2   B12,*+SP(8)       ; |143| 
    1737                    
    1738 00000516     0034             STW     .D1T1   A3,*A4            ; |140| 
    1739 00000518 02000029! ||         MVKL    .S1     desc,A4
    1740 00000520     bc55  ||         STW     .D2T2   B5,*+SP(4)        ; |143| 
    1741                    
    1742                    $C$DW$150       .dwtag  DW_TAG_TI_branch
    1743                            .dwattr $C$DW$150, DW_AT_low_pc(0x00)
    1744                            .dwattr $C$DW$150, DW_AT_name("sprintf")
    1745                            .dwattr $C$DW$150, DW_AT_TI_call
    1746                    
    1747 00000524 10000013!            CALLP   .S2     sprintf,B3
    1748 00000522     fc45  ||         STW     .D2T2   B4,*+SP(12)       ; |143| 
    1749 00000528 02000068! ||         MVKH    .S1     desc,A4
    1750                    
    1751 0000052c           $C$RL25:   ; CALL OCCURS {sprintf} {0}       ; |143| 
    1752 0000052c           $C$DW$L$VLIB_kalmanFilter_2x4_Correct_d$20$E:
    1753                    ;** --------------------------------------------------------------------------*
    1754 0000052c           $C$DW$L$VLIB_kalmanFilter_2x4_Correct_d$21$B:
    1755                    ;          EXCLUSIVE CPU CYCLES: 8
    1756                            .dwpsn  file "./../packages/ti/vlib/src/VLIB_kalmanFilter_2x4_Correct/VLIB_kalmanFilter_2x4_Co
    1757 0000052c 01bc0a58             CMPEQ   .L1     A15,0,A3          ; |145| 
    1758                    
    1759 00000530 02280a5b             CMPEQ   .L2     B10,0,B4          ; |145| 
    1760 00000534 04000029! ||         MVKL    .S1     desc,A8
TMS320C6x Assembler PC v7.4.2 Thu Mar 19 12:42:36 2015

Tools Copyright (c) 1996-2012 Texas Instruments Incorporated
package/lib/Regression/regress_d_c/./../packages/ti/vlib/src/VLIB_kalmanFilter_2x4_Correct/VLIB_kalmanFilter_2x4_Correct_d.se66 PAGE   33

    1761 00000538 0400002a  ||         ZERO    .S2     B8                ; |145| 
    1762                    
    1763                    $C$DW$151       .dwtag  DW_TAG_TI_branch
    1764                            .dwattr $C$DW$151, DW_AT_low_pc(0x00)
    1765                            .dwattr $C$DW$151, DW_AT_name("VLIB_formula_add_test")
    1766                            .dwattr $C$DW$151, DW_AT_TI_call
    1767                    
    1768 00000540 10000013!            CALLP   .S2     VLIB_formula_add_test,B3
    1769 00000544 022cc205  ||         LDHU    .D1T1   *+A11(12),A4      ; |145| 
    1770 00000548 030c9ffb  ||         OR      .L2X    A3,B4,B6          ; |145| 
    1771 0000054c     1a77  ||         ZERO    .D2     B4                ; |145| 
    1772 00000550 04000068! ||         MVKH    .S1     desc,A8
    1773 0000054e     0726  ||         ZERO    .L1     A6                ; |145| 
    1774                    
    1775 00000554           $C$RL26:   ; CALL OCCURS {VLIB_formula_add_test} {0}  ; |145| 
    1776 00000554           $C$DW$L$VLIB_kalmanFilter_2x4_Correct_d$21$E:
    1777                    ;** --------------------------------------------------------------------------*
    1778 00000554           $C$DW$L$VLIB_kalmanFilter_2x4_Correct_d$22$B:
    1779                    ;          EXCLUSIVE CPU CYCLES: 6
    1780                            .dwpsn  file "./../packages/ti/vlib/src/VLIB_kalmanFilter_2x4_Correct/VLIB_kalmanFilter_2x4_Co
    1781 00000554 00000a10             B       .S1     $C$L6             ; |147| 
    1782                            .dwpsn  file "./../packages/ti/vlib/src/VLIB_kalmanFilter_2x4_Correct/VLIB_kalmanFilter_2x4_Co
    1783                    $C$DW$152       .dwtag  DW_TAG_TI_branch
    1784                            .dwattr $C$DW$152, DW_AT_low_pc(0x00)
    1785                            .dwattr $C$DW$152, DW_AT_name("free")
    1786                            .dwattr $C$DW$152, DW_AT_TI_call
    1787 00000558 00000010!            CALL    .S1     free              ; |155| 
    1788 00000560 023cc2e4             LDW     .D2T1   *+SP(24),A4       ; |155| 
    1789 00000564 00004000             NOP             3
    1790                            .dwpsn  file "./../packages/ti/vlib/src/VLIB_kalmanFilter_2x4_Correct/VLIB_kalmanFilter_2x4_Co
    1791                               ; BRANCH OCCURS {$C$L6}           ; |147| 
    1792 00000568           $C$DW$L$VLIB_kalmanFilter_2x4_Correct_d$22$E:
    1793                    ;** --------------------------------------------------------------------------*
    1794 00000568           $C$L5:    
    1795                            .dwpsn  file "./../packages/ti/vlib/src/VLIB_kalmanFilter_2x4_Correct/VLIB_kalmanFilter_2x4_Co
    1796 00000568           $C$DW$L$VLIB_kalmanFilter_2x4_Correct_d$23$B:
    1797                    ;          EXCLUSIVE CPU CYCLES: 3
    1798                    ;**     -----------------------g11:
    1799                    ;** 149 -----------------------    sprintf(K$216, (const char *)"num_measurements=%d", (int)(*U$15).nu
    1800                    ;** 151 -----------------------    VLIB_skip_test(K$216);
    1801                            .dwpsn  file "./../packages/ti/vlib/src/VLIB_kalmanFilter_2x4_Correct/VLIB_kalmanFilter_2x4_Co
    1802 00000568 023c22f6             STW     .D2T2   B4,*+SP(4)        ; |149| 
    1803 0000056c 02000068!            MVKH    .S1     desc,A4
    1804                    
    1805 00000570 01860163             ADDKPC  .S2     $C$RL27,B3,0      ; |149| 
    1806 00000574 01bc42f4  ||         STW     .D2T1   A3,*+SP(8)        ; |149| 
    1807                    
    1808 00000578           $C$RL27:   ; CALL OCCURS {sprintf} {0}       ; |149| 
    1809 00000578           $C$DW$L$VLIB_kalmanFilter_2x4_Correct_d$23$E:
    1810                    ;** --------------------------------------------------------------------------*
    1811 00000578           $C$DW$L$VLIB_kalmanFilter_2x4_Correct_d$24$B:
    1812                    ;          EXCLUSIVE CPU CYCLES: 12
    1813 00000578 02000029!            MVKL    .S1     desc,A4
    1814                    $C$DW$153       .dwtag  DW_TAG_TI_branch
    1815                            .dwattr $C$DW$153, DW_AT_low_pc(0x00)
TMS320C6x Assembler PC v7.4.2 Thu Mar 19 12:42:36 2015

Tools Copyright (c) 1996-2012 Texas Instruments Incorporated
package/lib/Regression/regress_d_c/./../packages/ti/vlib/src/VLIB_kalmanFilter_2x4_Correct/VLIB_kalmanFilter_2x4_Correct_d.se66 PAGE   34

    1816                            .dwattr $C$DW$153, DW_AT_name("VLIB_skip_test")
    1817                            .dwattr $C$DW$153, DW_AT_TI_call
    1818                    
    1819 00000580 10000013!            CALLP   .S2     VLIB_skip_test,B3
    1820 00000584 02000068! ||         MVKH    .S1     desc,A4
    1821                    
    1822                            .dwpsn  file "./../packages/ti/vlib/src/VLIB_kalmanFilter_2x4_Correct/VLIB_kalmanFilter_2x4_Co
    1823 00000588           $C$RL28:   ; CALL OCCURS {VLIB_skip_test} {0}  ; |151| 
    1824                            .dwpsn  file "./../packages/ti/vlib/src/VLIB_kalmanFilter_2x4_Correct/VLIB_kalmanFilter_2x4_Co
    1825                    $C$DW$154       .dwtag  DW_TAG_TI_branch
    1826                            .dwattr $C$DW$154, DW_AT_low_pc(0x00)
    1827                            .dwattr $C$DW$154, DW_AT_name("free")
    1828                            .dwattr $C$DW$154, DW_AT_TI_call
    1829 00000588 00000010!            CALL    .S1     free              ; |155| 
    1830 0000058c     cccd             LDW     .D2T1   *+SP(24),A4       ; |155| 
    1831 0000058e     4c6e             NOP             3
    1832 00000590           $C$DW$L$VLIB_kalmanFilter_2x4_Correct_d$24$E:
    1833                    ;** --------------------------------------------------------------------------*
    1834 00000590           $C$L6:    
    1835                            .dwpsn  file "./../packages/ti/vlib/src/VLIB_kalmanFilter_2x4_Correct/VLIB_kalmanFilter_2x4_Co
    1836 00000590           $C$DW$L$VLIB_kalmanFilter_2x4_Correct_d$25$B:
    1837                    ;          EXCLUSIVE CPU CYCLES: 1
    1838                    ;**     -----------------------g12:
    1839                    ;** 155 -----------------------    free((void *)KF_cn);
    1840                    ;** 156 -----------------------    VLIB_align_free((void *)KF);
    1841                    ;** 157 -----------------------    free((void *)Residual_cn);
    1842                    ;** 158 -----------------------    VLIB_align_free((void *)Residual);
    1843                    ;** 159 -----------------------    free((void *)Z_buffer);
    1844                    ;** 160 -----------------------    VLIB_align_free((void *)Z);
    1845                    ;** 53  -----------------------    U$14 += 16;
    1846                    ;** 53  -----------------------    if ( test_cases > (++tpi) ) goto g3;
    1847                            .dwpsn  file "./../packages/ti/vlib/src/VLIB_kalmanFilter_2x4_Correct/VLIB_kalmanFilter_2x4_Co
    1848 00000590 01850162             ADDKPC  .S2     $C$RL29,B3,0      ; |155| 
    1849                    $C$RL29:   ; CALL OCCURS {free} {0}          ; |155| 
    1850                    $C$DW$L$VLIB_kalmanFilter_2x4_Correct_d$25$E:
    1851                    ;** --------------------------------------------------------------------------*
    1852                    $C$DW$L$VLIB_kalmanFilter_2x4_Correct_d$26$B:
    1853                    ;          EXCLUSIVE CPU CYCLES: 30
    1854                    $C$DW$155       .dwtag  DW_TAG_TI_branch
    1855                            .dwattr $C$DW$155, DW_AT_low_pc(0x00)
    1856                            .dwattr $C$DW$155, DW_AT_name("VLIB_align_free")
    1857                            .dwattr $C$DW$155, DW_AT_TI_call
    1858                    
    1859 00000594 10000013!            CALLP   .S2     VLIB_align_free,B3
    1860 00000598 023ce2e4  ||         LDW     .D2T1   *+SP(28),A4       ; |156| 
    1861                    
    1862                            .dwpsn  file "./../packages/ti/vlib/src/VLIB_kalmanFilter_2x4_Correct/VLIB_kalmanFilter_2x4_Co
    1863                    $C$RL30:   ; CALL OCCURS {VLIB_align_free} {0}  ; |156| 
    1864                    $C$DW$156       .dwtag  DW_TAG_TI_branch
    1865                            .dwattr $C$DW$156, DW_AT_low_pc(0x00)
    1866                            .dwattr $C$DW$156, DW_AT_name("free")
    1867                            .dwattr $C$DW$156, DW_AT_TI_call
    1868                    
    1869 000005a0 10000013!            CALLP   .S2     free,B3
    1870 000005a4 023d02e4  ||         LDW     .D2T1   *+SP(32),A4       ; |157| 
TMS320C6x Assembler PC v7.4.2 Thu Mar 19 12:42:36 2015

Tools Copyright (c) 1996-2012 Texas Instruments Incorporated
package/lib/Regression/regress_d_c/./../packages/ti/vlib/src/VLIB_kalmanFilter_2x4_Correct/VLIB_kalmanFilter_2x4_Correct_d.se66 PAGE   35

    1871                    
    1872                            .dwpsn  file "./../packages/ti/vlib/src/VLIB_kalmanFilter_2x4_Correct/VLIB_kalmanFilter_2x4_Co
    1873                    $C$RL31:   ; CALL OCCURS {free} {0}          ; |157| 
    1874                    $C$DW$157       .dwtag  DW_TAG_TI_branch
    1875                            .dwattr $C$DW$157, DW_AT_low_pc(0x00)
    1876                            .dwattr $C$DW$157, DW_AT_name("VLIB_align_free")
    1877                            .dwattr $C$DW$157, DW_AT_TI_call
    1878                    
    1879 000005a8 10000013!            CALLP   .S2     VLIB_align_free,B3
    1880 000005ac 023d22e4  ||         LDW     .D2T1   *+SP(36),A4       ; |158| 
    1881                    
    1882                            .dwpsn  file "./../packages/ti/vlib/src/VLIB_kalmanFilter_2x4_Correct/VLIB_kalmanFilter_2x4_Co
    1883                    $C$RL32:   ; CALL OCCURS {VLIB_align_free} {0}  ; |158| 
    1884                    $C$DW$158       .dwtag  DW_TAG_TI_branch
    1885                            .dwattr $C$DW$158, DW_AT_low_pc(0x00)
    1886                            .dwattr $C$DW$158, DW_AT_name("free")
    1887                            .dwattr $C$DW$158, DW_AT_TI_call
    1888                    
    1889 000005b0 10000013!            CALLP   .S2     free,B3
    1890 000005b4 023d42e4  ||         LDW     .D2T1   *+SP(40),A4       ; |159| 
    1891                    
    1892                            .dwpsn  file "./../packages/ti/vlib/src/VLIB_kalmanFilter_2x4_Correct/VLIB_kalmanFilter_2x4_Co
    1893                    $C$RL33:   ; CALL OCCURS {free} {0}          ; |159| 
    1894                    $C$DW$159       .dwtag  DW_TAG_TI_branch
    1895                            .dwattr $C$DW$159, DW_AT_low_pc(0x00)
    1896                            .dwattr $C$DW$159, DW_AT_name("VLIB_align_free")
    1897                            .dwattr $C$DW$159, DW_AT_TI_call
    1898                    
    1899 000005b8 10000013!            CALLP   .S2     VLIB_align_free,B3
    1900 000005bc 023d62e4  ||         LDW     .D2T1   *+SP(44),A4       ; |160| 
    1901                    
    1902                            .dwpsn  file "./../packages/ti/vlib/src/VLIB_kalmanFilter_2x4_Correct/VLIB_kalmanFilter_2x4_Co
    1903                    ;----------------------------------------------------------------------
    1904                    ; 160 | VLIB_align_free(Z);                                                    
    1905                    ;----------------------------------------------------------------------
    1906 000005c0           $C$RL34:   ; CALL OCCURS {VLIB_align_free} {0}  ; |160| 
    1907 000005c0           $C$DW$L$VLIB_kalmanFilter_2x4_Correct_d$26$E:
    1908                    ;** --------------------------------------------------------------------------*
    1909 000005c0           $C$DW$L$VLIB_kalmanFilter_2x4_Correct_d$27$B:
    1910                    ;          EXCLUSIVE CPU CYCLES: 14
    1911 000005c0 01800028!            MVKL    .S1     test_cases,A3
    1912 000005c4 01800068!            MVKH    .S1     test_cases,A3
    1913                            .dwpsn  file "./../packages/ti/vlib/src/VLIB_kalmanFilter_2x4_Correct/VLIB_kalmanFilter_2x4_Co
    1914 000005c8 018c0264             LDW     .D1T1   *A3,A3            ; |53| 
    1915 000005cc 06800852             ADDK    .S2     16,B13            ; |53| 
    1916 000005d0 07382058             ADD     .L1     1,A14,A14         ; |53| 
    1917 000005d4 00002000             NOP             2
    1918 000005d8 003868f8             CMPGT   .L1     A3,A14,A0         ; |53| 
    1919 000005dc ceaaa120     [ A0]   BNOP    .S1     $C$L1,5           ; |53| 
    1920                               ; BRANCHCC OCCURS {$C$L1}         ; |53| 
    1921 000005e0           $C$DW$L$VLIB_kalmanFilter_2x4_Correct_d$27$E:
    1922                    ;** --------------------------------------------------------------------------*
    1923 000005e0           $C$L7:    
    1924                    ;          EXCLUSIVE CPU CYCLES: 8
    1925                    ;**     -----------------------g13:
TMS320C6x Assembler PC v7.4.2 Thu Mar 19 12:42:36 2015

Tools Copyright (c) 1996-2012 Texas Instruments Incorporated
package/lib/Regression/regress_d_c/./../packages/ti/vlib/src/VLIB_kalmanFilter_2x4_Correct/VLIB_kalmanFilter_2x4_Correct_d.se66 PAGE   36

    1926                    ;** 164 -----------------------    VLIB_profile_cycle_report(2, "N = number of measurements", "number 
    1927                    ;** 158 -----------------------    printf((const char *)"---------------------------------------------
    1928                    ;** 165 -----------------------    VLIB_stack_memory();  // [20]
    1929                    ;**     -----------------------    return;
    1930 000005e0 0200002a!            MVKL    .S2     $C$SL5+0,B4
    1931                    
    1932 000005e4 03000029!            MVKL    .S1     $C$SL4+0,A6
    1933 000005e8 0200006a! ||         MVKH    .S2     $C$SL5+0,B4
    1934                    
    1935                    $C$DW$160       .dwtag  DW_TAG_TI_branch
    1936                            .dwattr $C$DW$160, DW_AT_low_pc(0x00)
    1937                            .dwattr $C$DW$160, DW_AT_name("VLIB_profile_cycle_report")
    1938                            .dwattr $C$DW$160, DW_AT_TI_call
    1939                    
    1940 000005ec 10000013!            CALLP   .S2     VLIB_profile_cycle_report,B3
    1941 000005f0 03000069! ||         MVKH    .S1     $C$SL4+0,A6
    1942 000005f4 0208a358  ||         MVK     .L1     0x2,A4            ; |164| 
    1943                    
    1944                            .dwpsn  file "./../packages/ti/vlib/src/VLIB_kalmanFilter_2x4_Correct/VLIB_kalmanFilter_2x4_Co
    1945                    ;----------------------------------------------------------------------
    1946                    ; 164 | VLIB_profile_cycle_report(vlib_PROFILE_FORMULA_RANGE,                  
    1947                    ;----------------------------------------------------------------------
    1948 000005f8           $C$RL35:   ; CALL OCCURS {VLIB_profile_cycle_report} {0}  ; |164| 
    1949                    ;** --------------------------------------------------------------------------*
    1950                    ;          EXCLUSIVE CPU CYCLES: 14
    1951 000005f8 0200002a!            MVKL    .S2     $C$SL6+0,B4
    1952 000005fc 0200006a!            MVKH    .S2     $C$SL6+0,B4
    1953                    $C$DW$161       .dwtag  DW_TAG_TI_branch
    1954                            .dwattr $C$DW$161, DW_AT_low_pc(0x00)
    1955                            .dwattr $C$DW$161, DW_AT_name("printf")
    1956                            .dwattr $C$DW$161, DW_AT_TI_call
    1957                    
    1958 00000600 10000013!            CALLP   .S2     printf,B3
    1959 00000604 023c22f6  ||         STW     .D2T2   B4,*+SP(4)        ; |158| 
    1960                    
    1961                            .dwpsn  file ".\..\packages\ti\vlib\src\VLIB_kalmanFilter_2x4_Correct\../common/VLIB_memory.h"
    1962                    $C$RL36:   ; CALL OCCURS {printf} {0}        ; |158| 
    1963                    $C$DW$162       .dwtag  DW_TAG_TI_branch
    1964                            .dwattr $C$DW$162, DW_AT_low_pc(0x00)
    1965                            .dwattr $C$DW$162, DW_AT_name("VLIB_stack_memory")
    1966                            .dwattr $C$DW$162, DW_AT_TI_call
    1967 00000608 10000012!            CALLP   .S2     VLIB_stack_memory,B3
    1968                            .dwpsn  file ".\..\packages\ti\vlib\src\VLIB_kalmanFilter_2x4_Correct\../common/VLIB_memory.h"
    1969                    ;----------------------------------------------------------------------
    1970                    ; 165 | "N = number of measurements",                                          
    1971                    ; 166 | "number of measurements");                                             
    1972                    ; 169 | VLIB_kernel_memory();                                                  
    1973                    ;----------------------------------------------------------------------
    1974 0000060c           $C$RL37:   ; CALL OCCURS {VLIB_stack_memory} {0}  ; |165| 
    1975                    ;** --------------------------------------------------------------------------*
    1976                    ;          EXCLUSIVE CPU CYCLES: 13
    1977                            .dwpsn  file "./../packages/ti/vlib/src/VLIB_kalmanFilter_2x4_Correct/VLIB_kalmanFilter_2x4_Co
    1978 0000060c 01bdd2e6             LDW     .D2T2   *++SP(56),B3      ; |170| 
    1979                            .dwcfi  cfa_offset, 48
    1980                            .dwcfi  restore_reg, 19
TMS320C6x Assembler PC v7.4.2 Thu Mar 19 12:42:36 2015

Tools Copyright (c) 1996-2012 Texas Instruments Incorporated
package/lib/Regression/regress_d_c/./../packages/ti/vlib/src/VLIB_kalmanFilter_2x4_Correct/VLIB_kalmanFilter_2x4_Correct_d.se66 PAGE   37

    1981 00000610     c677             LDDW    .D2T1   *++SP,A13:A12
    1982                            .dwcfi  cfa_offset, 40
    1983                            .dwcfi  restore_reg, 13
    1984                            .dwcfi  restore_reg, 12
    1985 00000612     c777             LDDW    .D2T1   *++SP,A15:A14
    1986                            .dwcfi  cfa_offset, 32
    1987                            .dwcfi  restore_reg, 15
    1988                            .dwcfi  restore_reg, 14
    1989 00000614     d577             LDDW    .D2T2   *++SP,B11:B10
    1990                            .dwcfi  cfa_offset, 24
    1991                            .dwcfi  restore_reg, 27
    1992                            .dwcfi  restore_reg, 26
    1993 00000616     d677             LDDW    .D2T2   *++SP,B13:B12
    1994                            .dwcfi  cfa_offset, 16
    1995                            .dwcfi  restore_reg, 29
    1996                            .dwcfi  restore_reg, 28
    1997 00000618     6577             LDW     .D2T1   *++SP(8),A10
    1998                            .dwcfi  cfa_offset, 8
    1999                            .dwcfi  restore_reg, 10
    2000 0000061a     65f7             LDW     .D2T1   *++SP(8),A11      ; |170| 
    2001                            .dwcfi  cfa_offset, 0
    2002                            .dwcfi  restore_reg, 11
    2003                            .dwcfi  cfa_offset, 0
    2004                    $C$DW$163       .dwtag  DW_TAG_TI_branch
    2005                            .dwattr $C$DW$163, DW_AT_low_pc(0x00)
    2006                            .dwattr $C$DW$163, DW_AT_TI_return
    2007 00000620 008ca362             RETNOP  .S2     B3,5
    2008                               ; BRANCH OCCURS {B3}  
    2009                    
    2010                    $C$DW$164       .dwtag  DW_TAG_TI_loop
    2011                            .dwattr $C$DW$164, DW_AT_name("c:\nightlybuilds\vlib\ti\vlib\vlib\examples\package/lib/Regress
    2012                            .dwattr $C$DW$164, DW_AT_TI_begin_file("./../packages/ti/vlib/src/VLIB_kalmanFilter_2x4_Correc
    2013                            .dwattr $C$DW$164, DW_AT_TI_begin_line(0x35)
    2014                            .dwattr $C$DW$164, DW_AT_TI_end_line(0xa1)
    2015                    $C$DW$165       .dwtag  DW_TAG_TI_loop_range
    2016                            .dwattr $C$DW$165, DW_AT_low_pc($C$DW$L$VLIB_kalmanFilter_2x4_Correct_d$5$B)
    2017                            .dwattr $C$DW$165, DW_AT_high_pc($C$DW$L$VLIB_kalmanFilter_2x4_Correct_d$5$E)
    2018                    $C$DW$166       .dwtag  DW_TAG_TI_loop_range
    2019                            .dwattr $C$DW$166, DW_AT_low_pc($C$DW$L$VLIB_kalmanFilter_2x4_Correct_d$23$B)
    2020                            .dwattr $C$DW$166, DW_AT_high_pc($C$DW$L$VLIB_kalmanFilter_2x4_Correct_d$23$E)
    2021                    $C$DW$167       .dwtag  DW_TAG_TI_loop_range
    2022                            .dwattr $C$DW$167, DW_AT_low_pc($C$DW$L$VLIB_kalmanFilter_2x4_Correct_d$18$B)
    2023                            .dwattr $C$DW$167, DW_AT_high_pc($C$DW$L$VLIB_kalmanFilter_2x4_Correct_d$18$E)
    2024                    $C$DW$168       .dwtag  DW_TAG_TI_loop_range
    2025                            .dwattr $C$DW$168, DW_AT_low_pc($C$DW$L$VLIB_kalmanFilter_2x4_Correct_d$11$B)
    2026                            .dwattr $C$DW$168, DW_AT_high_pc($C$DW$L$VLIB_kalmanFilter_2x4_Correct_d$11$E)
    2027                    $C$DW$169       .dwtag  DW_TAG_TI_loop_range
    2028                            .dwattr $C$DW$169, DW_AT_low_pc($C$DW$L$VLIB_kalmanFilter_2x4_Correct_d$6$B)
    2029                            .dwattr $C$DW$169, DW_AT_high_pc($C$DW$L$VLIB_kalmanFilter_2x4_Correct_d$6$E)
    2030                    $C$DW$170       .dwtag  DW_TAG_TI_loop_range
    2031                            .dwattr $C$DW$170, DW_AT_low_pc($C$DW$L$VLIB_kalmanFilter_2x4_Correct_d$7$B)
    2032                            .dwattr $C$DW$170, DW_AT_high_pc($C$DW$L$VLIB_kalmanFilter_2x4_Correct_d$7$E)
    2033                    $C$DW$171       .dwtag  DW_TAG_TI_loop_range
    2034                            .dwattr $C$DW$171, DW_AT_low_pc($C$DW$L$VLIB_kalmanFilter_2x4_Correct_d$8$B)
    2035                            .dwattr $C$DW$171, DW_AT_high_pc($C$DW$L$VLIB_kalmanFilter_2x4_Correct_d$8$E)
TMS320C6x Assembler PC v7.4.2 Thu Mar 19 12:42:36 2015

Tools Copyright (c) 1996-2012 Texas Instruments Incorporated
package/lib/Regression/regress_d_c/./../packages/ti/vlib/src/VLIB_kalmanFilter_2x4_Correct/VLIB_kalmanFilter_2x4_Correct_d.se66 PAGE   38

    2036                    $C$DW$172       .dwtag  DW_TAG_TI_loop_range
    2037                            .dwattr $C$DW$172, DW_AT_low_pc($C$DW$L$VLIB_kalmanFilter_2x4_Correct_d$9$B)
    2038                            .dwattr $C$DW$172, DW_AT_high_pc($C$DW$L$VLIB_kalmanFilter_2x4_Correct_d$9$E)
    2039                    $C$DW$173       .dwtag  DW_TAG_TI_loop_range
    2040                            .dwattr $C$DW$173, DW_AT_low_pc($C$DW$L$VLIB_kalmanFilter_2x4_Correct_d$10$B)
    2041                            .dwattr $C$DW$173, DW_AT_high_pc($C$DW$L$VLIB_kalmanFilter_2x4_Correct_d$10$E)
    2042                    $C$DW$174       .dwtag  DW_TAG_TI_loop_range
    2043                            .dwattr $C$DW$174, DW_AT_low_pc($C$DW$L$VLIB_kalmanFilter_2x4_Correct_d$16$B)
    2044                            .dwattr $C$DW$174, DW_AT_high_pc($C$DW$L$VLIB_kalmanFilter_2x4_Correct_d$16$E)
    2045                    $C$DW$175       .dwtag  DW_TAG_TI_loop_range
    2046                            .dwattr $C$DW$175, DW_AT_low_pc($C$DW$L$VLIB_kalmanFilter_2x4_Correct_d$17$B)
    2047                            .dwattr $C$DW$175, DW_AT_high_pc($C$DW$L$VLIB_kalmanFilter_2x4_Correct_d$17$E)
    2048                    $C$DW$176       .dwtag  DW_TAG_TI_loop_range
    2049                            .dwattr $C$DW$176, DW_AT_low_pc($C$DW$L$VLIB_kalmanFilter_2x4_Correct_d$19$B)
    2050                            .dwattr $C$DW$176, DW_AT_high_pc($C$DW$L$VLIB_kalmanFilter_2x4_Correct_d$19$E)
    2051                    $C$DW$177       .dwtag  DW_TAG_TI_loop_range
    2052                            .dwattr $C$DW$177, DW_AT_low_pc($C$DW$L$VLIB_kalmanFilter_2x4_Correct_d$20$B)
    2053                            .dwattr $C$DW$177, DW_AT_high_pc($C$DW$L$VLIB_kalmanFilter_2x4_Correct_d$20$E)
    2054                    $C$DW$178       .dwtag  DW_TAG_TI_loop_range
    2055                            .dwattr $C$DW$178, DW_AT_low_pc($C$DW$L$VLIB_kalmanFilter_2x4_Correct_d$21$B)
    2056                            .dwattr $C$DW$178, DW_AT_high_pc($C$DW$L$VLIB_kalmanFilter_2x4_Correct_d$21$E)
    2057                    $C$DW$179       .dwtag  DW_TAG_TI_loop_range
    2058                            .dwattr $C$DW$179, DW_AT_low_pc($C$DW$L$VLIB_kalmanFilter_2x4_Correct_d$22$B)
    2059                            .dwattr $C$DW$179, DW_AT_high_pc($C$DW$L$VLIB_kalmanFilter_2x4_Correct_d$22$E)
    2060                    $C$DW$180       .dwtag  DW_TAG_TI_loop_range
    2061                            .dwattr $C$DW$180, DW_AT_low_pc($C$DW$L$VLIB_kalmanFilter_2x4_Correct_d$24$B)
    2062                            .dwattr $C$DW$180, DW_AT_high_pc($C$DW$L$VLIB_kalmanFilter_2x4_Correct_d$24$E)
    2063                    $C$DW$181       .dwtag  DW_TAG_TI_loop_range
    2064                            .dwattr $C$DW$181, DW_AT_low_pc($C$DW$L$VLIB_kalmanFilter_2x4_Correct_d$25$B)
    2065                            .dwattr $C$DW$181, DW_AT_high_pc($C$DW$L$VLIB_kalmanFilter_2x4_Correct_d$25$E)
    2066                    $C$DW$182       .dwtag  DW_TAG_TI_loop_range
    2067                            .dwattr $C$DW$182, DW_AT_low_pc($C$DW$L$VLIB_kalmanFilter_2x4_Correct_d$26$B)
    2068                            .dwattr $C$DW$182, DW_AT_high_pc($C$DW$L$VLIB_kalmanFilter_2x4_Correct_d$26$E)
    2069                    $C$DW$183       .dwtag  DW_TAG_TI_loop_range
    2070                            .dwattr $C$DW$183, DW_AT_low_pc($C$DW$L$VLIB_kalmanFilter_2x4_Correct_d$27$B)
    2071                            .dwattr $C$DW$183, DW_AT_high_pc($C$DW$L$VLIB_kalmanFilter_2x4_Correct_d$27$E)
    2072                    
    2073                    $C$DW$184       .dwtag  DW_TAG_TI_loop
    2074                            .dwattr $C$DW$184, DW_AT_name("c:\nightlybuilds\vlib\ti\vlib\vlib\examples\package/lib/Regress
    2075                            .dwattr $C$DW$184, DW_AT_TI_begin_file("./../packages/ti/vlib/src/VLIB_kalmanFilter_2x4_Correc
    2076                            .dwattr $C$DW$184, DW_AT_TI_begin_line(0x6b)
    2077                            .dwattr $C$DW$184, DW_AT_TI_end_line(0x7f)
    2078                    $C$DW$185       .dwtag  DW_TAG_TI_loop_range
    2079                            .dwattr $C$DW$185, DW_AT_low_pc($C$DW$L$VLIB_kalmanFilter_2x4_Correct_d$12$B)
    2080                            .dwattr $C$DW$185, DW_AT_high_pc($C$DW$L$VLIB_kalmanFilter_2x4_Correct_d$12$E)
    2081                    $C$DW$186       .dwtag  DW_TAG_TI_loop_range
    2082                            .dwattr $C$DW$186, DW_AT_low_pc($C$DW$L$VLIB_kalmanFilter_2x4_Correct_d$13$B)
    2083                            .dwattr $C$DW$186, DW_AT_high_pc($C$DW$L$VLIB_kalmanFilter_2x4_Correct_d$13$E)
    2084                    $C$DW$187       .dwtag  DW_TAG_TI_loop_range
    2085                            .dwattr $C$DW$187, DW_AT_low_pc($C$DW$L$VLIB_kalmanFilter_2x4_Correct_d$14$B)
    2086                            .dwattr $C$DW$187, DW_AT_high_pc($C$DW$L$VLIB_kalmanFilter_2x4_Correct_d$14$E)
    2087                    $C$DW$188       .dwtag  DW_TAG_TI_loop_range
    2088                            .dwattr $C$DW$188, DW_AT_low_pc($C$DW$L$VLIB_kalmanFilter_2x4_Correct_d$15$B)
    2089                            .dwattr $C$DW$188, DW_AT_high_pc($C$DW$L$VLIB_kalmanFilter_2x4_Correct_d$15$E)
    2090                            .dwendtag $C$DW$184
TMS320C6x Assembler PC v7.4.2 Thu Mar 19 12:42:36 2015

Tools Copyright (c) 1996-2012 Texas Instruments Incorporated
package/lib/Regression/regress_d_c/./../packages/ti/vlib/src/VLIB_kalmanFilter_2x4_Correct/VLIB_kalmanFilter_2x4_Correct_d.se66 PAGE   39

    2091                    
    2092                            .dwendtag $C$DW$164
    2093                    
    2094                            .dwattr $C$DW$87, DW_AT_TI_end_file("./../packages/ti/vlib/src/VLIB_kalmanFilter_2x4_Correct/V
    2095                            .dwattr $C$DW$87, DW_AT_TI_end_line(0xaa)
    2096                            .dwattr $C$DW$87, DW_AT_TI_end_column(0x01)
    2097                            .dwendentry
    2098                            .dwendtag $C$DW$87
    2099                    
    2100                    ;; Inlined function references:
    2101                    ;; [ 16] VLIB_profile_start
    2102                    ;; [ 17] VLIB_profile_stop
    2103                    ;; [ 20] VLIB_kernel_memory
    2104                    ;******************************************************************************
    2105                    ;* STRINGS                                                                    *
    2106                    ;******************************************************************************
    2107 00000000                   .sect   ".const:.string"
    2108 00000000 00000056  $C$SL1: .string "VLIB_kalmanFilter_2x4_Correct",0
         00000001 0000004C 
         00000002 00000049 
         00000003 00000042 
         00000004 0000005F 
         00000005 0000006B 
         00000006 00000061 
         00000007 0000006C 
         00000008 0000006D 
         00000009 00000061 
         0000000a 0000006E 
         0000000b 00000046 
         0000000c 00000069 
         0000000d 0000006C 
         0000000e 00000074 
         0000000f 00000065 
         00000010 00000072 
         00000011 0000005F 
         00000012 00000032 
         00000013 00000078 
         00000014 00000034 
         00000015 0000005F 
         00000016 00000043 
         00000017 0000006F 
         00000018 00000072 
         00000019 00000072 
         0000001a 00000065 
         0000001b 00000063 
         0000001c 00000074 
         0000001d 00000000 
    2109 0000001e 00000025  $C$SL2: .string "%s generated input | Opt results compared to NatC results |"
         0000001f 00000073 
         00000020 00000020 
         00000021 00000067 
         00000022 00000065 
         00000023 0000006E 
         00000024 00000065 
         00000025 00000072 
TMS320C6x Assembler PC v7.4.2 Thu Mar 19 12:42:36 2015

Tools Copyright (c) 1996-2012 Texas Instruments Incorporated
package/lib/Regression/regress_d_c/./../packages/ti/vlib/src/VLIB_kalmanFilter_2x4_Correct/VLIB_kalmanFilter_2x4_Correct_d.se66 PAGE   40

         00000026 00000061 
         00000027 00000074 
         00000028 00000065 
         00000029 00000064 
         0000002a 00000020 
         0000002b 00000069 
         0000002c 0000006E 
         0000002d 00000070 
         0000002e 00000075 
         0000002f 00000074 
         00000030 00000020 
         00000031 0000007C 
         00000032 00000020 
         00000033 0000004F 
         00000034 00000070 
         00000035 00000074 
         00000036 00000020 
         00000037 00000072 
         00000038 00000065 
         00000039 00000073 
         0000003a 00000075 
         0000003b 0000006C 
         0000003c 00000074 
         0000003d 00000073 
         0000003e 00000020 
         0000003f 00000063 
         00000040 0000006F 
         00000041 0000006D 
         00000042 00000070 
         00000043 00000061 
         00000044 00000072 
         00000045 00000065 
         00000046 00000064 
         00000047 00000020 
         00000048 00000074 
         00000049 0000006F 
         0000004a 00000020 
         0000004b 0000004E 
         0000004c 00000061 
         0000004d 00000074 
         0000004e 00000043 
         0000004f 00000020 
         00000050 00000072 
         00000051 00000065 
         00000052 00000073 
         00000053 00000075 
         00000054 0000006C 
         00000055 00000074 
         00000056 00000073 
         00000057 00000020 
         00000058 0000007C 
    2110 00000059 00000020          .string " num_measurements=%d",0
         0000005a 0000006E 
         0000005b 00000075 
         0000005c 0000006D 
TMS320C6x Assembler PC v7.4.2 Thu Mar 19 12:42:36 2015

Tools Copyright (c) 1996-2012 Texas Instruments Incorporated
package/lib/Regression/regress_d_c/./../packages/ti/vlib/src/VLIB_kalmanFilter_2x4_Correct/VLIB_kalmanFilter_2x4_Correct_d.se66 PAGE   41

         0000005d 0000005F 
         0000005e 0000006D 
         0000005f 00000065 
         00000060 00000061 
         00000061 00000073 
         00000062 00000075 
         00000063 00000072 
         00000064 00000065 
         00000065 0000006D 
         00000066 00000065 
         00000067 0000006E 
         00000068 00000074 
         00000069 00000073 
         0000006a 0000003D 
         0000006b 00000025 
         0000006c 00000064 
         0000006d 00000000 
    2111 0000006e 0000006E  $C$SL3: .string "num_measurements=%d",0
         0000006f 00000075 
         00000070 0000006D 
         00000071 0000005F 
         00000072 0000006D 
         00000073 00000065 
         00000074 00000061 
         00000075 00000073 
         00000076 00000075 
         00000077 00000072 
         00000078 00000065 
         00000079 0000006D 
         0000007a 00000065 
         0000007b 0000006E 
         0000007c 00000074 
         0000007d 00000073 
         0000007e 0000003D 
         0000007f 00000025 
         00000080 00000064 
         00000081 00000000 
    2112 00000082 0000006E  $C$SL4: .string "number of measurements",0
         00000083 00000075 
         00000084 0000006D 
         00000085 00000062 
         00000086 00000065 
         00000087 00000072 
         00000088 00000020 
         00000089 0000006F 
         0000008a 00000066 
         0000008b 00000020 
         0000008c 0000006D 
         0000008d 00000065 
         0000008e 00000061 
         0000008f 00000073 
         00000090 00000075 
         00000091 00000072 
         00000092 00000065 
         00000093 0000006D 
TMS320C6x Assembler PC v7.4.2 Thu Mar 19 12:42:36 2015

Tools Copyright (c) 1996-2012 Texas Instruments Incorporated
package/lib/Regression/regress_d_c/./../packages/ti/vlib/src/VLIB_kalmanFilter_2x4_Correct/VLIB_kalmanFilter_2x4_Correct_d.se66 PAGE   42

         00000094 00000065 
         00000095 0000006E 
         00000096 00000074 
         00000097 00000073 
         00000098 00000000 
    2113 00000099 0000004E  $C$SL5: .string "N = number of measurements",0
         0000009a 00000020 
         0000009b 0000003D 
         0000009c 00000020 
         0000009d 0000006E 
         0000009e 00000075 
         0000009f 0000006D 
         000000a0 00000062 
         000000a1 00000065 
         000000a2 00000072 
         000000a3 00000020 
         000000a4 0000006F 
         000000a5 00000066 
         000000a6 00000020 
         000000a7 0000006D 
         000000a8 00000065 
         000000a9 00000061 
         000000aa 00000073 
         000000ab 00000075 
         000000ac 00000072 
         000000ad 00000065 
         000000ae 0000006D 
         000000af 00000065 
         000000b0 0000006E 
         000000b1 00000074 
         000000b2 00000073 
         000000b3 00000000 
    2114 000000b4 0000002D  $C$SL6: .string "-----------------------------------------------------------"
         000000b5 0000002D 
         000000b6 0000002D 
         000000b7 0000002D 
         000000b8 0000002D 
         000000b9 0000002D 
         000000ba 0000002D 
         000000bb 0000002D 
         000000bc 0000002D 
         000000bd 0000002D 
         000000be 0000002D 
         000000bf 0000002D 
         000000c0 0000002D 
         000000c1 0000002D 
         000000c2 0000002D 
         000000c3 0000002D 
         000000c4 0000002D 
         000000c5 0000002D 
         000000c6 0000002D 
         000000c7 0000002D 
         000000c8 0000002D 
         000000c9 0000002D 
         000000ca 0000002D 
TMS320C6x Assembler PC v7.4.2 Thu Mar 19 12:42:36 2015

Tools Copyright (c) 1996-2012 Texas Instruments Incorporated
package/lib/Regression/regress_d_c/./../packages/ti/vlib/src/VLIB_kalmanFilter_2x4_Correct/VLIB_kalmanFilter_2x4_Correct_d.se66 PAGE   43

         000000cb 0000002D 
         000000cc 0000002D 
         000000cd 0000002D 
         000000ce 0000002D 
         000000cf 0000002D 
         000000d0 0000002D 
         000000d1 0000002D 
         000000d2 0000002D 
         000000d3 0000002D 
         000000d4 0000002D 
         000000d5 0000002D 
         000000d6 0000002D 
         000000d7 0000002D 
         000000d8 0000002D 
         000000d9 0000002D 
         000000da 0000002D 
         000000db 0000002D 
         000000dc 0000002D 
         000000dd 0000002D 
         000000de 0000002D 
         000000df 0000002D 
         000000e0 0000002D 
         000000e1 0000002D 
         000000e2 0000002D 
         000000e3 0000002D 
         000000e4 0000002D 
         000000e5 0000002D 
         000000e6 0000002D 
         000000e7 0000002D 
         000000e8 0000002D 
         000000e9 0000002D 
         000000ea 0000002D 
         000000eb 0000002D 
         000000ec 0000002D 
         000000ed 0000002D 
         000000ee 0000002D 
    2115 000000ef 0000002D          .string "-----------------------------------------------------------"
         000000f0 0000002D 
         000000f1 0000002D 
         000000f2 0000002D 
         000000f3 0000002D 
         000000f4 0000002D 
         000000f5 0000002D 
         000000f6 0000002D 
         000000f7 0000002D 
         000000f8 0000002D 
         000000f9 0000002D 
         000000fa 0000002D 
         000000fb 0000002D 
         000000fc 0000002D 
         000000fd 0000002D 
         000000fe 0000002D 
         000000ff 0000002D 
         00000100 0000002D 
         00000101 0000002D 
TMS320C6x Assembler PC v7.4.2 Thu Mar 19 12:42:36 2015

Tools Copyright (c) 1996-2012 Texas Instruments Incorporated
package/lib/Regression/regress_d_c/./../packages/ti/vlib/src/VLIB_kalmanFilter_2x4_Correct/VLIB_kalmanFilter_2x4_Correct_d.se66 PAGE   44

         00000102 0000002D 
         00000103 0000002D 
         00000104 0000002D 
         00000105 0000002D 
         00000106 0000002D 
         00000107 0000002D 
         00000108 0000002D 
         00000109 0000002D 
         0000010a 0000002D 
         0000010b 0000002D 
         0000010c 0000002D 
         0000010d 0000002D 
         0000010e 0000002D 
         0000010f 0000002D 
         00000110 0000002D 
         00000111 0000002D 
         00000112 0000002D 
         00000113 0000002D 
         00000114 0000002D 
         00000115 0000002D 
         00000116 0000002D 
         00000117 0000002D 
         00000118 0000002D 
         00000119 0000002D 
         0000011a 0000002D 
         0000011b 0000002D 
         0000011c 0000002D 
         0000011d 0000002D 
         0000011e 0000002D 
         0000011f 0000002D 
         00000120 0000002D 
         00000121 0000002D 
         00000122 0000002D 
         00000123 0000002D 
         00000124 0000002D 
         00000125 0000002D 
         00000126 0000002D 
         00000127 0000002D 
         00000128 0000002D 
         00000129 0000002D 
    2116 0000012a 0000002D          .string "-----------------------",10,0
         0000012b 0000002D 
         0000012c 0000002D 
         0000012d 0000002D 
         0000012e 0000002D 
         0000012f 0000002D 
         00000130 0000002D 
         00000131 0000002D 
         00000132 0000002D 
         00000133 0000002D 
         00000134 0000002D 
         00000135 0000002D 
         00000136 0000002D 
         00000137 0000002D 
         00000138 0000002D 
TMS320C6x Assembler PC v7.4.2 Thu Mar 19 12:42:36 2015

Tools Copyright (c) 1996-2012 Texas Instruments Incorporated
package/lib/Regression/regress_d_c/./../packages/ti/vlib/src/VLIB_kalmanFilter_2x4_Correct/VLIB_kalmanFilter_2x4_Correct_d.se66 PAGE   45

         00000139 0000002D 
         0000013a 0000002D 
         0000013b 0000002D 
         0000013c 0000002D 
         0000013d 0000002D 
         0000013e 0000002D 
         0000013f 0000002D 
         00000140 0000002D 
         00000141 0000000A 
         00000142 00000000 
    2117                    ;*****************************************************************************
    2118                    ;* UNDEFINED EXTERNAL REFERENCES                                             *
    2119                    ;*****************************************************************************
    2120                            .global printf
    2121                            .global sprintf
    2122                            .global memset
    2123                            .global free
    2124                            .global memalign
    2125                            .global VLIB_cache_inval
    2126                            .global VLIB_profile_init
    2127                            .global VLIB_formula_add_test
    2128                            .global VLIB_skip_test
    2129                            .global VLIB_profile_cycle_report
    2130                            .global initStack
    2131                            .global setStackDepth
    2132                            .global getSP
    2133                            .global VLIB_stack_memory
    2134                            .global VLIB_compare_mem
    2135                            .global VLIB_fillBuffer
    2136                            .global VLIB_memalign
    2137                            .global VLIB_align_free
    2138                            .global VLIB_kalmanFilter_2x4_Predict_cn
    2139                            .global VLIB_kalmanFilter_2x4_Correct
    2140                            .global VLIB_kalmanFilter_2x4_Correct_cn
    2141                            .global kalmanFilter_2x4_Correct_getTestParams
    2142                            .global test_cases
    2143                            .global act_kernel
    2144                            .global desc
    2145                            .global testPatternString
    2146                            .global est_test
    2147                            .global beg_count
    2148                            .global end_count
    2149                            .global overhead
    2150                            .global cycles
    2151                    
    2152                    ;******************************************************************************
    2153                    ;* BUILD ATTRIBUTES                                                           *
    2154                    ;******************************************************************************
    2155                            .battr "TI", Tag_File, 1, Tag_Long_Precision_Bits(2)
    2156                            .battr "TI", Tag_File, 1, Tag_Bitfield_layout(2)
    2157                            .battr "TI", Tag_File, 1, Tag_ABI_enum_size(2)
    2158                            .battr "c6xabi", Tag_File, 1, Tag_ABI_wchar_t(1)
    2159                            .battr "c6xabi", Tag_File, 1, Tag_ABI_array_object_alignment(0)
    2160                            .battr "c6xabi", Tag_File, 1, Tag_ABI_array_object_align_expected(0)
    2161                            .battr "c6xabi", Tag_File, 1, Tag_ABI_PIC(0)
TMS320C6x Assembler PC v7.4.2 Thu Mar 19 12:42:36 2015

Tools Copyright (c) 1996-2012 Texas Instruments Incorporated
package/lib/Regression/regress_d_c/./../packages/ti/vlib/src/VLIB_kalmanFilter_2x4_Correct/VLIB_kalmanFilter_2x4_Correct_d.se66 PAGE   46

    2162                            .battr "c6xabi", Tag_File, 1, Tag_ABI_PID(0)
    2163                            .battr "c6xabi", Tag_File, 1, Tag_ABI_DSBT(0)
    2164                            .battr "c6xabi", Tag_File, 1, Tag_ABI_stack_align_needed(0)
    2165                            .battr "c6xabi", Tag_File, 1, Tag_ABI_stack_align_preserved(0)
    2166                            .battr "TI", Tag_File, 1, Tag_Tramps_Use_SOC(1)
    2167                    
    2168                    ;******************************************************************************
    2169                    ;* TYPE INFORMATION                                                           *
    2170                    ;******************************************************************************
    2171                    
    2172                    $C$DW$T$58      .dwtag  DW_TAG_enumeration_type
    2173                            .dwattr $C$DW$T$58, DW_AT_byte_size(0x04)
    2174                    $C$DW$189       .dwtag  DW_TAG_enumerator, DW_AT_name("VLIB_NO_ERROR"), DW_AT_const_value(0x00)
    2175                            .dwattr $C$DW$189, DW_AT_decl_file(".\..\packages\ti\vlib\src\VLIB_kalmanFilter_2x4_Correct\..
    2176                            .dwattr $C$DW$189, DW_AT_decl_line(0x7a)
    2177                            .dwattr $C$DW$189, DW_AT_decl_column(0x05)
    2178                    $C$DW$190       .dwtag  DW_TAG_enumerator, DW_AT_name("VLIB_ERR_INPUT_INVALID"), DW_AT_const_value(0x0
    2179                            .dwattr $C$DW$190, DW_AT_decl_file(".\..\packages\ti\vlib\src\VLIB_kalmanFilter_2x4_Correct\..
    2180                            .dwattr $C$DW$190, DW_AT_decl_line(0x7b)
    2181                            .dwattr $C$DW$190, DW_AT_decl_column(0x05)
    2182                    $C$DW$191       .dwtag  DW_TAG_enumerator, DW_AT_name("VLIB_ERR_INPUT_NEGATIVE"), DW_AT_const_value(0x
    2183                            .dwattr $C$DW$191, DW_AT_decl_file(".\..\packages\ti\vlib\src\VLIB_kalmanFilter_2x4_Correct\..
    2184                            .dwattr $C$DW$191, DW_AT_decl_line(0x7c)
    2185                            .dwattr $C$DW$191, DW_AT_decl_column(0x05)
    2186                    $C$DW$192       .dwtag  DW_TAG_enumerator, DW_AT_name("VLIB_ERR_INPUT_EXCEEDED_RANGE"), DW_AT_const_va
    2187                            .dwattr $C$DW$192, DW_AT_decl_file(".\..\packages\ti\vlib\src\VLIB_kalmanFilter_2x4_Correct\..
    2188                            .dwattr $C$DW$192, DW_AT_decl_line(0x7d)
    2189                            .dwattr $C$DW$192, DW_AT_decl_column(0x05)
    2190                    $C$DW$193       .dwtag  DW_TAG_enumerator, DW_AT_name("VLIB_ERR_MEMORY_EXCEEDED_BOUNDARY"), DW_AT_cons
    2191                            .dwattr $C$DW$193, DW_AT_decl_file(".\..\packages\ti\vlib\src\VLIB_kalmanFilter_2x4_Correct\..
    2192                            .dwattr $C$DW$193, DW_AT_decl_line(0x7e)
    2193                            .dwattr $C$DW$193, DW_AT_decl_column(0x05)
    2194                    $C$DW$194       .dwtag  DW_TAG_enumerator, DW_AT_name("VLIB_ERR_MEMORY_ALLOCATION_FAILURE"), DW_AT_con
    2195                            .dwattr $C$DW$194, DW_AT_decl_file(".\..\packages\ti\vlib\src\VLIB_kalmanFilter_2x4_Correct\..
    2196                            .dwattr $C$DW$194, DW_AT_decl_line(0x7f)
    2197                            .dwattr $C$DW$194, DW_AT_decl_column(0x05)
    2198                    $C$DW$195       .dwtag  DW_TAG_enumerator, DW_AT_name("VLIB_ERR_MEMORY_POINTER_NULL"), DW_AT_const_val
    2199                            .dwattr $C$DW$195, DW_AT_decl_file(".\..\packages\ti\vlib\src\VLIB_kalmanFilter_2x4_Correct\..
    2200                            .dwattr $C$DW$195, DW_AT_decl_line(0x80)
    2201                            .dwattr $C$DW$195, DW_AT_decl_column(0x05)
    2202                    $C$DW$196       .dwtag  DW_TAG_enumerator, DW_AT_name("VLIB_ERR_DMA_FAILURE"), DW_AT_const_value(0x07)
    2203                            .dwattr $C$DW$196, DW_AT_decl_file(".\..\packages\ti\vlib\src\VLIB_kalmanFilter_2x4_Correct\..
    2204                            .dwattr $C$DW$196, DW_AT_decl_line(0x81)
    2205                            .dwattr $C$DW$196, DW_AT_decl_column(0x05)
    2206                    $C$DW$197       .dwtag  DW_TAG_enumerator, DW_AT_name("VLIB_ERR_FILE_OPEN_FAILURE"), DW_AT_const_value
    2207                            .dwattr $C$DW$197, DW_AT_decl_file(".\..\packages\ti\vlib\src\VLIB_kalmanFilter_2x4_Correct\..
    2208                            .dwattr $C$DW$197, DW_AT_decl_line(0x82)
    2209                            .dwattr $C$DW$197, DW_AT_decl_column(0x05)
    2210                    $C$DW$198       .dwtag  DW_TAG_enumerator, DW_AT_name("VLIB_ERR_FILE_READ_FAILURE"), DW_AT_const_value
    2211                            .dwattr $C$DW$198, DW_AT_decl_file(".\..\packages\ti\vlib\src\VLIB_kalmanFilter_2x4_Correct\..
    2212                            .dwattr $C$DW$198, DW_AT_decl_line(0x83)
    2213                            .dwattr $C$DW$198, DW_AT_decl_column(0x05)
    2214                    $C$DW$199       .dwtag  DW_TAG_enumerator, DW_AT_name("VLIB_ERR_FILE_WRITE_FAILURE"), DW_AT_const_valu
    2215                            .dwattr $C$DW$199, DW_AT_decl_file(".\..\packages\ti\vlib\src\VLIB_kalmanFilter_2x4_Correct\..
    2216                            .dwattr $C$DW$199, DW_AT_decl_line(0x84)
TMS320C6x Assembler PC v7.4.2 Thu Mar 19 12:42:36 2015

Tools Copyright (c) 1996-2012 Texas Instruments Incorporated
package/lib/Regression/regress_d_c/./../packages/ti/vlib/src/VLIB_kalmanFilter_2x4_Correct/VLIB_kalmanFilter_2x4_Correct_d.se66 PAGE   47

    2217                            .dwattr $C$DW$199, DW_AT_decl_column(0x05)
    2218                    $C$DW$200       .dwtag  DW_TAG_enumerator, DW_AT_name("VLIB_ERR_FILE_CLOSE_FAILURE"), DW_AT_const_valu
    2219                            .dwattr $C$DW$200, DW_AT_decl_file(".\..\packages\ti\vlib\src\VLIB_kalmanFilter_2x4_Correct\..
    2220                            .dwattr $C$DW$200, DW_AT_decl_line(0x85)
    2221                            .dwattr $C$DW$200, DW_AT_decl_column(0x05)
    2222                    $C$DW$201       .dwtag  DW_TAG_enumerator, DW_AT_name("VLIB_ERR_FILE_FORMAT_FAILURE"), DW_AT_const_val
    2223                            .dwattr $C$DW$201, DW_AT_decl_file(".\..\packages\ti\vlib\src\VLIB_kalmanFilter_2x4_Correct\..
    2224                            .dwattr $C$DW$201, DW_AT_decl_line(0x86)
    2225                            .dwattr $C$DW$201, DW_AT_decl_column(0x05)
    2226                    $C$DW$202       .dwtag  DW_TAG_enumerator, DW_AT_name("VLIB_WARNING_LOW_MEMORY"), DW_AT_const_value(0x
    2227                            .dwattr $C$DW$202, DW_AT_decl_file(".\..\packages\ti\vlib\src\VLIB_kalmanFilter_2x4_Correct\..
    2228                            .dwattr $C$DW$202, DW_AT_decl_line(0x87)
    2229                            .dwattr $C$DW$202, DW_AT_decl_column(0x05)
    2230                    $C$DW$203       .dwtag  DW_TAG_enumerator, DW_AT_name("VLIB_ERR_NOT_IMPLEMENTED"), DW_AT_const_value(0
    2231                            .dwattr $C$DW$203, DW_AT_decl_file(".\..\packages\ti\vlib\src\VLIB_kalmanFilter_2x4_Correct\..
    2232                            .dwattr $C$DW$203, DW_AT_decl_line(0x88)
    2233                            .dwattr $C$DW$203, DW_AT_decl_column(0x05)
    2234                    $C$DW$204       .dwtag  DW_TAG_enumerator, DW_AT_name("VLIB_ERROR_MAX"), DW_AT_const_value(0x0f)
    2235                            .dwattr $C$DW$204, DW_AT_decl_file(".\..\packages\ti\vlib\src\VLIB_kalmanFilter_2x4_Correct\..
    2236                            .dwattr $C$DW$204, DW_AT_decl_line(0x89)
    2237                            .dwattr $C$DW$204, DW_AT_decl_column(0x05)
    2238                            .dwendtag $C$DW$T$58
    2239                    
    2240                            .dwattr $C$DW$T$58, DW_AT_decl_file(".\..\packages\ti\vlib\src\VLIB_kalmanFilter_2x4_Correct\.
    2241                            .dwattr $C$DW$T$58, DW_AT_decl_line(0x79)
    2242                            .dwattr $C$DW$T$58, DW_AT_decl_column(0x0e)
    2243                    $C$DW$T$59      .dwtag  DW_TAG_typedef, DW_AT_name("VLIB_STATUS")
    2244                            .dwattr $C$DW$T$59, DW_AT_type(*$C$DW$T$58)
    2245                            .dwattr $C$DW$T$59, DW_AT_language(DW_LANG_C)
    2246                            .dwattr $C$DW$T$59, DW_AT_decl_file(".\..\packages\ti\vlib\src\VLIB_kalmanFilter_2x4_Correct\.
    2247                            .dwattr $C$DW$T$59, DW_AT_decl_line(0x8a)
    2248                            .dwattr $C$DW$T$59, DW_AT_decl_column(0x03)
    2249                    
    2250                    $C$DW$T$60      .dwtag  DW_TAG_enumeration_type
    2251                            .dwattr $C$DW$T$60, DW_AT_byte_size(0x04)
    2252                    $C$DW$205       .dwtag  DW_TAG_enumerator, DW_AT_name("vlib_KERNEL_OPT"), DW_AT_const_value(0x00)
    2253                            .dwattr $C$DW$205, DW_AT_decl_file(".\..\packages\ti\vlib\src\VLIB_kalmanFilter_2x4_Correct\..
    2254                            .dwattr $C$DW$205, DW_AT_decl_line(0x6a)
    2255                            .dwattr $C$DW$205, DW_AT_decl_column(0x05)
    2256                    $C$DW$206       .dwtag  DW_TAG_enumerator, DW_AT_name("vlib_KERNEL_CN"), DW_AT_const_value(0x01)
    2257                            .dwattr $C$DW$206, DW_AT_decl_file(".\..\packages\ti\vlib\src\VLIB_kalmanFilter_2x4_Correct\..
    2258                            .dwattr $C$DW$206, DW_AT_decl_line(0x6b)
    2259                            .dwattr $C$DW$206, DW_AT_decl_column(0x05)
    2260                    $C$DW$207       .dwtag  DW_TAG_enumerator, DW_AT_name("vlib_KERNEL_CNT"), DW_AT_const_value(0x02)
    2261                            .dwattr $C$DW$207, DW_AT_decl_file(".\..\packages\ti\vlib\src\VLIB_kalmanFilter_2x4_Correct\..
    2262                            .dwattr $C$DW$207, DW_AT_decl_line(0x6c)
    2263                            .dwattr $C$DW$207, DW_AT_decl_column(0x05)
    2264                            .dwendtag $C$DW$T$60
    2265                    
    2266                            .dwattr $C$DW$T$60, DW_AT_decl_file(".\..\packages\ti\vlib\src\VLIB_kalmanFilter_2x4_Correct\.
    2267                            .dwattr $C$DW$T$60, DW_AT_decl_line(0x69)
    2268                            .dwattr $C$DW$T$60, DW_AT_decl_column(0x06)
    2269                    
    2270                    $C$DW$T$61      .dwtag  DW_TAG_enumeration_type
    2271                            .dwattr $C$DW$T$61, DW_AT_byte_size(0x04)
TMS320C6x Assembler PC v7.4.2 Thu Mar 19 12:42:36 2015

Tools Copyright (c) 1996-2012 Texas Instruments Incorporated
package/lib/Regression/regress_d_c/./../packages/ti/vlib/src/VLIB_kalmanFilter_2x4_Correct/VLIB_kalmanFilter_2x4_Correct_d.se66 PAGE   48

    2272                    $C$DW$208       .dwtag  DW_TAG_enumerator, DW_AT_name("vlib_KERNEL_FAIL"), DW_AT_const_value(0x00)
    2273                            .dwattr $C$DW$208, DW_AT_decl_file(".\..\packages\ti\vlib\src\VLIB_kalmanFilter_2x4_Correct\..
    2274                            .dwattr $C$DW$208, DW_AT_decl_line(0x72)
    2275                            .dwattr $C$DW$208, DW_AT_decl_column(0x05)
    2276                    $C$DW$209       .dwtag  DW_TAG_enumerator, DW_AT_name("vlib_KERNEL_PASS"), DW_AT_const_value(0x01)
    2277                            .dwattr $C$DW$209, DW_AT_decl_file(".\..\packages\ti\vlib\src\VLIB_kalmanFilter_2x4_Correct\..
    2278                            .dwattr $C$DW$209, DW_AT_decl_line(0x73)
    2279                            .dwattr $C$DW$209, DW_AT_decl_column(0x05)
    2280                            .dwendtag $C$DW$T$61
    2281                    
    2282                            .dwattr $C$DW$T$61, DW_AT_decl_file(".\..\packages\ti\vlib\src\VLIB_kalmanFilter_2x4_Correct\.
    2283                            .dwattr $C$DW$T$61, DW_AT_decl_line(0x71)
    2284                            .dwattr $C$DW$T$61, DW_AT_decl_column(0x06)
    2285                    
    2286                    $C$DW$T$23      .dwtag  DW_TAG_structure_type
    2287                            .dwattr $C$DW$T$23, DW_AT_byte_size(0x10)
    2288                    $C$DW$210       .dwtag  DW_TAG_member
    2289                            .dwattr $C$DW$210, DW_AT_type(*$C$DW$T$19)
    2290                            .dwattr $C$DW$210, DW_AT_name("testPattern")
    2291                            .dwattr $C$DW$210, DW_AT_TI_symbol_name("testPattern")
    2292                            .dwattr $C$DW$210, DW_AT_data_member_location[DW_OP_plus_uconst 0x0]
    2293                            .dwattr $C$DW$210, DW_AT_accessibility(DW_ACCESS_public)
    2294                            .dwattr $C$DW$210, DW_AT_decl_file(".\..\packages\ti\vlib\src\VLIB_kalmanFilter_2x4_Correct\VL
    2295                            .dwattr $C$DW$210, DW_AT_decl_line(0x24)
    2296                            .dwattr $C$DW$210, DW_AT_decl_column(0x0e)
    2297                    $C$DW$211       .dwtag  DW_TAG_member
    2298                            .dwattr $C$DW$211, DW_AT_type(*$C$DW$T$21)
    2299                            .dwattr $C$DW$211, DW_AT_name("staticIn")
    2300                            .dwattr $C$DW$211, DW_AT_TI_symbol_name("staticIn")
    2301                            .dwattr $C$DW$211, DW_AT_data_member_location[DW_OP_plus_uconst 0x4]
    2302                            .dwattr $C$DW$211, DW_AT_accessibility(DW_ACCESS_public)
    2303                            .dwattr $C$DW$211, DW_AT_decl_file(".\..\packages\ti\vlib\src\VLIB_kalmanFilter_2x4_Correct\VL
    2304                            .dwattr $C$DW$211, DW_AT_decl_line(0x25)
    2305                            .dwattr $C$DW$211, DW_AT_decl_column(0x0e)
    2306                    $C$DW$212       .dwtag  DW_TAG_member
    2307                            .dwattr $C$DW$212, DW_AT_type(*$C$DW$T$21)
    2308                            .dwattr $C$DW$212, DW_AT_name("staticOut")
    2309                            .dwattr $C$DW$212, DW_AT_TI_symbol_name("staticOut")
    2310                            .dwattr $C$DW$212, DW_AT_data_member_location[DW_OP_plus_uconst 0x8]
    2311                            .dwattr $C$DW$212, DW_AT_accessibility(DW_ACCESS_public)
    2312                            .dwattr $C$DW$212, DW_AT_decl_file(".\..\packages\ti\vlib\src\VLIB_kalmanFilter_2x4_Correct\VL
    2313                            .dwattr $C$DW$212, DW_AT_decl_line(0x26)
    2314                            .dwattr $C$DW$212, DW_AT_decl_column(0x0e)
    2315                    $C$DW$213       .dwtag  DW_TAG_member
    2316                            .dwattr $C$DW$213, DW_AT_type(*$C$DW$T$22)
    2317                            .dwattr $C$DW$213, DW_AT_name("numMeasurements")
    2318                            .dwattr $C$DW$213, DW_AT_TI_symbol_name("numMeasurements")
    2319                            .dwattr $C$DW$213, DW_AT_data_member_location[DW_OP_plus_uconst 0xc]
    2320                            .dwattr $C$DW$213, DW_AT_accessibility(DW_ACCESS_public)
    2321                            .dwattr $C$DW$213, DW_AT_decl_file(".\..\packages\ti\vlib\src\VLIB_kalmanFilter_2x4_Correct\VL
    2322                            .dwattr $C$DW$213, DW_AT_decl_line(0x27)
    2323                            .dwattr $C$DW$213, DW_AT_decl_column(0x0e)
    2324                            .dwendtag $C$DW$T$23
    2325                    
    2326                            .dwattr $C$DW$T$23, DW_AT_decl_file(".\..\packages\ti\vlib\src\VLIB_kalmanFilter_2x4_Correct\V
TMS320C6x Assembler PC v7.4.2 Thu Mar 19 12:42:36 2015

Tools Copyright (c) 1996-2012 Texas Instruments Incorporated
package/lib/Regression/regress_d_c/./../packages/ti/vlib/src/VLIB_kalmanFilter_2x4_Correct/VLIB_kalmanFilter_2x4_Correct_d.se66 PAGE   49

    2327                            .dwattr $C$DW$T$23, DW_AT_decl_line(0x23)
    2328                            .dwattr $C$DW$T$23, DW_AT_decl_column(0x10)
    2329                    $C$DW$T$62      .dwtag  DW_TAG_pointer_type
    2330                            .dwattr $C$DW$T$62, DW_AT_type(*$C$DW$T$23)
    2331                            .dwattr $C$DW$T$62, DW_AT_address_class(0x20)
    2332                    $C$DW$T$64      .dwtag  DW_TAG_typedef, DW_AT_name("kalmanFilter_2x4_Correct_testParams_t")
    2333                            .dwattr $C$DW$T$64, DW_AT_type(*$C$DW$T$23)
    2334                            .dwattr $C$DW$T$64, DW_AT_language(DW_LANG_C)
    2335                            .dwattr $C$DW$T$64, DW_AT_decl_file(".\..\packages\ti\vlib\src\VLIB_kalmanFilter_2x4_Correct\V
    2336                            .dwattr $C$DW$T$64, DW_AT_decl_line(0x28)
    2337                            .dwattr $C$DW$T$64, DW_AT_decl_column(0x03)
    2338                    $C$DW$T$65      .dwtag  DW_TAG_pointer_type
    2339                            .dwattr $C$DW$T$65, DW_AT_type(*$C$DW$T$64)
    2340                            .dwattr $C$DW$T$65, DW_AT_address_class(0x20)
    2341                    $C$DW$T$66      .dwtag  DW_TAG_pointer_type
    2342                            .dwattr $C$DW$T$66, DW_AT_type(*$C$DW$T$65)
    2343                            .dwattr $C$DW$T$66, DW_AT_address_class(0x20)
    2344                    
    2345                    $C$DW$T$25      .dwtag  DW_TAG_structure_type
    2346                            .dwattr $C$DW$T$25, DW_AT_byte_size(0x18)
    2347                    $C$DW$214       .dwtag  DW_TAG_member
    2348                            .dwattr $C$DW$214, DW_AT_type(*$C$DW$T$10)
    2349                            .dwattr $C$DW$214, DW_AT_name("fd")
    2350                            .dwattr $C$DW$214, DW_AT_TI_symbol_name("fd")
    2351                            .dwattr $C$DW$214, DW_AT_data_member_location[DW_OP_plus_uconst 0x0]
    2352                            .dwattr $C$DW$214, DW_AT_accessibility(DW_ACCESS_public)
    2353                            .dwattr $C$DW$214, DW_AT_decl_file("C:/VLIB_Tools/CCSV5_4_0/ccsv5/tools/compiler/C6000/include
    2354                            .dwattr $C$DW$214, DW_AT_decl_line(0x49)
    2355                            .dwattr $C$DW$214, DW_AT_decl_column(0x0b)
    2356                    $C$DW$215       .dwtag  DW_TAG_member
    2357                            .dwattr $C$DW$215, DW_AT_type(*$C$DW$T$24)
    2358                            .dwattr $C$DW$215, DW_AT_name("buf")
    2359                            .dwattr $C$DW$215, DW_AT_TI_symbol_name("buf")
    2360                            .dwattr $C$DW$215, DW_AT_data_member_location[DW_OP_plus_uconst 0x4]
    2361                            .dwattr $C$DW$215, DW_AT_accessibility(DW_ACCESS_public)
    2362                            .dwattr $C$DW$215, DW_AT_decl_file("C:/VLIB_Tools/CCSV5_4_0/ccsv5/tools/compiler/C6000/include
    2363                            .dwattr $C$DW$215, DW_AT_decl_line(0x4a)
    2364                            .dwattr $C$DW$215, DW_AT_decl_column(0x16)
    2365                    $C$DW$216       .dwtag  DW_TAG_member
    2366                            .dwattr $C$DW$216, DW_AT_type(*$C$DW$T$24)
    2367                            .dwattr $C$DW$216, DW_AT_name("pos")
    2368                            .dwattr $C$DW$216, DW_AT_TI_symbol_name("pos")
    2369                            .dwattr $C$DW$216, DW_AT_data_member_location[DW_OP_plus_uconst 0x8]
    2370                            .dwattr $C$DW$216, DW_AT_accessibility(DW_ACCESS_public)
    2371                            .dwattr $C$DW$216, DW_AT_decl_file("C:/VLIB_Tools/CCSV5_4_0/ccsv5/tools/compiler/C6000/include
    2372                            .dwattr $C$DW$216, DW_AT_decl_line(0x4b)
    2373                            .dwattr $C$DW$216, DW_AT_decl_column(0x16)
    2374                    $C$DW$217       .dwtag  DW_TAG_member
    2375                            .dwattr $C$DW$217, DW_AT_type(*$C$DW$T$24)
    2376                            .dwattr $C$DW$217, DW_AT_name("bufend")
    2377                            .dwattr $C$DW$217, DW_AT_TI_symbol_name("bufend")
    2378                            .dwattr $C$DW$217, DW_AT_data_member_location[DW_OP_plus_uconst 0xc]
    2379                            .dwattr $C$DW$217, DW_AT_accessibility(DW_ACCESS_public)
    2380                            .dwattr $C$DW$217, DW_AT_decl_file("C:/VLIB_Tools/CCSV5_4_0/ccsv5/tools/compiler/C6000/include
    2381                            .dwattr $C$DW$217, DW_AT_decl_line(0x4c)
TMS320C6x Assembler PC v7.4.2 Thu Mar 19 12:42:36 2015

Tools Copyright (c) 1996-2012 Texas Instruments Incorporated
package/lib/Regression/regress_d_c/./../packages/ti/vlib/src/VLIB_kalmanFilter_2x4_Correct/VLIB_kalmanFilter_2x4_Correct_d.se66 PAGE   50

    2382                            .dwattr $C$DW$217, DW_AT_decl_column(0x16)
    2383                    $C$DW$218       .dwtag  DW_TAG_member
    2384                            .dwattr $C$DW$218, DW_AT_type(*$C$DW$T$24)
    2385                            .dwattr $C$DW$218, DW_AT_name("buff_stop")
    2386                            .dwattr $C$DW$218, DW_AT_TI_symbol_name("buff_stop")
    2387                            .dwattr $C$DW$218, DW_AT_data_member_location[DW_OP_plus_uconst 0x10]
    2388                            .dwattr $C$DW$218, DW_AT_accessibility(DW_ACCESS_public)
    2389                            .dwattr $C$DW$218, DW_AT_decl_file("C:/VLIB_Tools/CCSV5_4_0/ccsv5/tools/compiler/C6000/include
    2390                            .dwattr $C$DW$218, DW_AT_decl_line(0x4d)
    2391                            .dwattr $C$DW$218, DW_AT_decl_column(0x16)
    2392                    $C$DW$219       .dwtag  DW_TAG_member
    2393                            .dwattr $C$DW$219, DW_AT_type(*$C$DW$T$11)
    2394                            .dwattr $C$DW$219, DW_AT_name("flags")
    2395                            .dwattr $C$DW$219, DW_AT_TI_symbol_name("flags")
    2396                            .dwattr $C$DW$219, DW_AT_data_member_location[DW_OP_plus_uconst 0x14]
    2397                            .dwattr $C$DW$219, DW_AT_accessibility(DW_ACCESS_public)
    2398                            .dwattr $C$DW$219, DW_AT_decl_file("C:/VLIB_Tools/CCSV5_4_0/ccsv5/tools/compiler/C6000/include
    2399                            .dwattr $C$DW$219, DW_AT_decl_line(0x4e)
    2400                            .dwattr $C$DW$219, DW_AT_decl_column(0x16)
    2401                            .dwendtag $C$DW$T$25
    2402                    
    2403                            .dwattr $C$DW$T$25, DW_AT_decl_file("C:/VLIB_Tools/CCSV5_4_0/ccsv5/tools/compiler/C6000/includ
    2404                            .dwattr $C$DW$T$25, DW_AT_decl_line(0x48)
    2405                            .dwattr $C$DW$T$25, DW_AT_decl_column(0x10)
    2406                    $C$DW$T$67      .dwtag  DW_TAG_typedef, DW_AT_name("FILE")
    2407                            .dwattr $C$DW$T$67, DW_AT_type(*$C$DW$T$25)
    2408                            .dwattr $C$DW$T$67, DW_AT_language(DW_LANG_C)
    2409                            .dwattr $C$DW$T$67, DW_AT_decl_file("C:/VLIB_Tools/CCSV5_4_0/ccsv5/tools/compiler/C6000/includ
    2410                            .dwattr $C$DW$T$67, DW_AT_decl_line(0x4f)
    2411                            .dwattr $C$DW$T$67, DW_AT_decl_column(0x03)
    2412                    
    2413                    $C$DW$T$26      .dwtag  DW_TAG_structure_type
    2414                            .dwattr $C$DW$T$26, DW_AT_byte_size(0x08)
    2415                    $C$DW$220       .dwtag  DW_TAG_member
    2416                            .dwattr $C$DW$220, DW_AT_type(*$C$DW$T$10)
    2417                            .dwattr $C$DW$220, DW_AT_name("quot")
    2418                            .dwattr $C$DW$220, DW_AT_TI_symbol_name("quot")
    2419                            .dwattr $C$DW$220, DW_AT_data_member_location[DW_OP_plus_uconst 0x0]
    2420                            .dwattr $C$DW$220, DW_AT_accessibility(DW_ACCESS_public)
    2421                            .dwattr $C$DW$220, DW_AT_decl_file("C:/VLIB_Tools/CCSV5_4_0/ccsv5/tools/compiler/C6000/include
    2422                            .dwattr $C$DW$220, DW_AT_decl_line(0x3e)
    2423                            .dwattr $C$DW$220, DW_AT_decl_column(0x16)
    2424                    $C$DW$221       .dwtag  DW_TAG_member
    2425                            .dwattr $C$DW$221, DW_AT_type(*$C$DW$T$10)
    2426                            .dwattr $C$DW$221, DW_AT_name("rem")
    2427                            .dwattr $C$DW$221, DW_AT_TI_symbol_name("rem")
    2428                            .dwattr $C$DW$221, DW_AT_data_member_location[DW_OP_plus_uconst 0x4]
    2429                            .dwattr $C$DW$221, DW_AT_accessibility(DW_ACCESS_public)
    2430                            .dwattr $C$DW$221, DW_AT_decl_file("C:/VLIB_Tools/CCSV5_4_0/ccsv5/tools/compiler/C6000/include
    2431                            .dwattr $C$DW$221, DW_AT_decl_line(0x3e)
    2432                            .dwattr $C$DW$221, DW_AT_decl_column(0x1c)
    2433                            .dwendtag $C$DW$T$26
    2434                    
    2435                            .dwattr $C$DW$T$26, DW_AT_decl_file("C:/VLIB_Tools/CCSV5_4_0/ccsv5/tools/compiler/C6000/includ
    2436                            .dwattr $C$DW$T$26, DW_AT_decl_line(0x3e)
TMS320C6x Assembler PC v7.4.2 Thu Mar 19 12:42:36 2015

Tools Copyright (c) 1996-2012 Texas Instruments Incorporated
package/lib/Regression/regress_d_c/./../packages/ti/vlib/src/VLIB_kalmanFilter_2x4_Correct/VLIB_kalmanFilter_2x4_Correct_d.se66 PAGE   51

    2437                            .dwattr $C$DW$T$26, DW_AT_decl_column(0x10)
    2438                    $C$DW$T$68      .dwtag  DW_TAG_typedef, DW_AT_name("div_t")
    2439                            .dwattr $C$DW$T$68, DW_AT_type(*$C$DW$T$26)
    2440                            .dwattr $C$DW$T$68, DW_AT_language(DW_LANG_C)
    2441                            .dwattr $C$DW$T$68, DW_AT_decl_file("C:/VLIB_Tools/CCSV5_4_0/ccsv5/tools/compiler/C6000/includ
    2442                            .dwattr $C$DW$T$68, DW_AT_decl_line(0x3e)
    2443                            .dwattr $C$DW$T$68, DW_AT_decl_column(0x23)
    2444                    
    2445                    $C$DW$T$27      .dwtag  DW_TAG_structure_type
    2446                            .dwattr $C$DW$T$27, DW_AT_byte_size(0x08)
    2447                    $C$DW$222       .dwtag  DW_TAG_member
    2448                            .dwattr $C$DW$222, DW_AT_type(*$C$DW$T$10)
    2449                            .dwattr $C$DW$222, DW_AT_name("quot")
    2450                            .dwattr $C$DW$222, DW_AT_TI_symbol_name("quot")
    2451                            .dwattr $C$DW$222, DW_AT_data_member_location[DW_OP_plus_uconst 0x0]
    2452                            .dwattr $C$DW$222, DW_AT_accessibility(DW_ACCESS_public)
    2453                            .dwattr $C$DW$222, DW_AT_decl_file("C:/VLIB_Tools/CCSV5_4_0/ccsv5/tools/compiler/C6000/include
    2454                            .dwattr $C$DW$222, DW_AT_decl_line(0x40)
    2455                            .dwattr $C$DW$222, DW_AT_decl_column(0x17)
    2456                    $C$DW$223       .dwtag  DW_TAG_member
    2457                            .dwattr $C$DW$223, DW_AT_type(*$C$DW$T$10)
    2458                            .dwattr $C$DW$223, DW_AT_name("rem")
    2459                            .dwattr $C$DW$223, DW_AT_TI_symbol_name("rem")
    2460                            .dwattr $C$DW$223, DW_AT_data_member_location[DW_OP_plus_uconst 0x4]
    2461                            .dwattr $C$DW$223, DW_AT_accessibility(DW_ACCESS_public)
    2462                            .dwattr $C$DW$223, DW_AT_decl_file("C:/VLIB_Tools/CCSV5_4_0/ccsv5/tools/compiler/C6000/include
    2463                            .dwattr $C$DW$223, DW_AT_decl_line(0x40)
    2464                            .dwattr $C$DW$223, DW_AT_decl_column(0x1d)
    2465                            .dwendtag $C$DW$T$27
    2466                    
    2467                            .dwattr $C$DW$T$27, DW_AT_decl_file("C:/VLIB_Tools/CCSV5_4_0/ccsv5/tools/compiler/C6000/includ
    2468                            .dwattr $C$DW$T$27, DW_AT_decl_line(0x40)
    2469                            .dwattr $C$DW$T$27, DW_AT_decl_column(0x10)
    2470                    $C$DW$T$69      .dwtag  DW_TAG_typedef, DW_AT_name("ldiv_t")
    2471                            .dwattr $C$DW$T$69, DW_AT_type(*$C$DW$T$27)
    2472                            .dwattr $C$DW$T$69, DW_AT_language(DW_LANG_C)
    2473                            .dwattr $C$DW$T$69, DW_AT_decl_file("C:/VLIB_Tools/CCSV5_4_0/ccsv5/tools/compiler/C6000/includ
    2474                            .dwattr $C$DW$T$69, DW_AT_decl_line(0x40)
    2475                            .dwattr $C$DW$T$69, DW_AT_decl_column(0x24)
    2476                    
    2477                    $C$DW$T$28      .dwtag  DW_TAG_structure_type
    2478                            .dwattr $C$DW$T$28, DW_AT_byte_size(0x10)
    2479                    $C$DW$224       .dwtag  DW_TAG_member
    2480                            .dwattr $C$DW$224, DW_AT_type(*$C$DW$T$14)
    2481                            .dwattr $C$DW$224, DW_AT_name("quot")
    2482                            .dwattr $C$DW$224, DW_AT_TI_symbol_name("quot")
    2483                            .dwattr $C$DW$224, DW_AT_data_member_location[DW_OP_plus_uconst 0x0]
    2484                            .dwattr $C$DW$224, DW_AT_accessibility(DW_ACCESS_public)
    2485                            .dwattr $C$DW$224, DW_AT_decl_file("C:/VLIB_Tools/CCSV5_4_0/ccsv5/tools/compiler/C6000/include
    2486                            .dwattr $C$DW$224, DW_AT_decl_line(0x43)
    2487                            .dwattr $C$DW$224, DW_AT_decl_column(0x1c)
    2488                    $C$DW$225       .dwtag  DW_TAG_member
    2489                            .dwattr $C$DW$225, DW_AT_type(*$C$DW$T$14)
    2490                            .dwattr $C$DW$225, DW_AT_name("rem")
    2491                            .dwattr $C$DW$225, DW_AT_TI_symbol_name("rem")
TMS320C6x Assembler PC v7.4.2 Thu Mar 19 12:42:36 2015

Tools Copyright (c) 1996-2012 Texas Instruments Incorporated
package/lib/Regression/regress_d_c/./../packages/ti/vlib/src/VLIB_kalmanFilter_2x4_Correct/VLIB_kalmanFilter_2x4_Correct_d.se66 PAGE   52

    2492                            .dwattr $C$DW$225, DW_AT_data_member_location[DW_OP_plus_uconst 0x8]
    2493                            .dwattr $C$DW$225, DW_AT_accessibility(DW_ACCESS_public)
    2494                            .dwattr $C$DW$225, DW_AT_decl_file("C:/VLIB_Tools/CCSV5_4_0/ccsv5/tools/compiler/C6000/include
    2495                            .dwattr $C$DW$225, DW_AT_decl_line(0x43)
    2496                            .dwattr $C$DW$225, DW_AT_decl_column(0x22)
    2497                            .dwendtag $C$DW$T$28
    2498                    
    2499                            .dwattr $C$DW$T$28, DW_AT_decl_file("C:/VLIB_Tools/CCSV5_4_0/ccsv5/tools/compiler/C6000/includ
    2500                            .dwattr $C$DW$T$28, DW_AT_decl_line(0x43)
    2501                            .dwattr $C$DW$T$28, DW_AT_decl_column(0x10)
    2502                    $C$DW$T$70      .dwtag  DW_TAG_typedef, DW_AT_name("lldiv_t")
    2503                            .dwattr $C$DW$T$70, DW_AT_type(*$C$DW$T$28)
    2504                            .dwattr $C$DW$T$70, DW_AT_language(DW_LANG_C)
    2505                            .dwattr $C$DW$T$70, DW_AT_decl_file("C:/VLIB_Tools/CCSV5_4_0/ccsv5/tools/compiler/C6000/includ
    2506                            .dwattr $C$DW$T$70, DW_AT_decl_line(0x43)
    2507                            .dwattr $C$DW$T$70, DW_AT_decl_column(0x29)
    2508                    
    2509                    $C$DW$T$30      .dwtag  DW_TAG_structure_type
    2510                            .dwattr $C$DW$T$30, DW_AT_byte_size(0x24)
    2511                    $C$DW$226       .dwtag  DW_TAG_member
    2512                            .dwattr $C$DW$226, DW_AT_type(*$C$DW$T$29)
    2513                            .dwattr $C$DW$226, DW_AT_name("area")
    2514                            .dwattr $C$DW$226, DW_AT_TI_symbol_name("area")
    2515                            .dwattr $C$DW$226, DW_AT_data_member_location[DW_OP_plus_uconst 0x0]
    2516                            .dwattr $C$DW$226, DW_AT_accessibility(DW_ACCESS_public)
    2517                            .dwattr $C$DW$226, DW_AT_decl_file(".\..\packages\ti\vlib\src\VLIB_kalmanFilter_2x4_Correct\..
    2518                            .dwattr $C$DW$226, DW_AT_decl_line(0x69)
    2519                            .dwattr $C$DW$226, DW_AT_decl_column(0x0d)
    2520                    $C$DW$227       .dwtag  DW_TAG_member
    2521                            .dwattr $C$DW$227, DW_AT_type(*$C$DW$T$29)
    2522                            .dwattr $C$DW$227, DW_AT_name("xsum")
    2523                            .dwattr $C$DW$227, DW_AT_TI_symbol_name("xsum")
    2524                            .dwattr $C$DW$227, DW_AT_data_member_location[DW_OP_plus_uconst 0x4]
    2525                            .dwattr $C$DW$227, DW_AT_accessibility(DW_ACCESS_public)
    2526                            .dwattr $C$DW$227, DW_AT_decl_file(".\..\packages\ti\vlib\src\VLIB_kalmanFilter_2x4_Correct\..
    2527                            .dwattr $C$DW$227, DW_AT_decl_line(0x6a)
    2528                            .dwattr $C$DW$227, DW_AT_decl_column(0x0d)
    2529                    $C$DW$228       .dwtag  DW_TAG_member
    2530                            .dwattr $C$DW$228, DW_AT_type(*$C$DW$T$29)
    2531                            .dwattr $C$DW$228, DW_AT_name("ysum")
    2532                            .dwattr $C$DW$228, DW_AT_TI_symbol_name("ysum")
    2533                            .dwattr $C$DW$228, DW_AT_data_member_location[DW_OP_plus_uconst 0x8]
    2534                            .dwattr $C$DW$228, DW_AT_accessibility(DW_ACCESS_public)
    2535                            .dwattr $C$DW$228, DW_AT_decl_file(".\..\packages\ti\vlib\src\VLIB_kalmanFilter_2x4_Correct\..
    2536                            .dwattr $C$DW$228, DW_AT_decl_line(0x6b)
    2537                            .dwattr $C$DW$228, DW_AT_decl_column(0x0d)
    2538                    $C$DW$229       .dwtag  DW_TAG_member
    2539                            .dwattr $C$DW$229, DW_AT_type(*$C$DW$T$29)
    2540                            .dwattr $C$DW$229, DW_AT_name("xmin")
    2541                            .dwattr $C$DW$229, DW_AT_TI_symbol_name("xmin")
    2542                            .dwattr $C$DW$229, DW_AT_data_member_location[DW_OP_plus_uconst 0xc]
    2543                            .dwattr $C$DW$229, DW_AT_accessibility(DW_ACCESS_public)
    2544                            .dwattr $C$DW$229, DW_AT_decl_file(".\..\packages\ti\vlib\src\VLIB_kalmanFilter_2x4_Correct\..
    2545                            .dwattr $C$DW$229, DW_AT_decl_line(0x6d)
    2546                            .dwattr $C$DW$229, DW_AT_decl_column(0x0d)
TMS320C6x Assembler PC v7.4.2 Thu Mar 19 12:42:36 2015

Tools Copyright (c) 1996-2012 Texas Instruments Incorporated
package/lib/Regression/regress_d_c/./../packages/ti/vlib/src/VLIB_kalmanFilter_2x4_Correct/VLIB_kalmanFilter_2x4_Correct_d.se66 PAGE   53

    2547                    $C$DW$230       .dwtag  DW_TAG_member
    2548                            .dwattr $C$DW$230, DW_AT_type(*$C$DW$T$29)
    2549                            .dwattr $C$DW$230, DW_AT_name("ymin")
    2550                            .dwattr $C$DW$230, DW_AT_TI_symbol_name("ymin")
    2551                            .dwattr $C$DW$230, DW_AT_data_member_location[DW_OP_plus_uconst 0x10]
    2552                            .dwattr $C$DW$230, DW_AT_accessibility(DW_ACCESS_public)
    2553                            .dwattr $C$DW$230, DW_AT_decl_file(".\..\packages\ti\vlib\src\VLIB_kalmanFilter_2x4_Correct\..
    2554                            .dwattr $C$DW$230, DW_AT_decl_line(0x6e)
    2555                            .dwattr $C$DW$230, DW_AT_decl_column(0x0d)
    2556                    $C$DW$231       .dwtag  DW_TAG_member
    2557                            .dwattr $C$DW$231, DW_AT_type(*$C$DW$T$29)
    2558                            .dwattr $C$DW$231, DW_AT_name("xmax")
    2559                            .dwattr $C$DW$231, DW_AT_TI_symbol_name("xmax")
    2560                            .dwattr $C$DW$231, DW_AT_data_member_location[DW_OP_plus_uconst 0x14]
    2561                            .dwattr $C$DW$231, DW_AT_accessibility(DW_ACCESS_public)
    2562                            .dwattr $C$DW$231, DW_AT_decl_file(".\..\packages\ti\vlib\src\VLIB_kalmanFilter_2x4_Correct\..
    2563                            .dwattr $C$DW$231, DW_AT_decl_line(0x6f)
    2564                            .dwattr $C$DW$231, DW_AT_decl_column(0x0d)
    2565                    $C$DW$232       .dwtag  DW_TAG_member
    2566                            .dwattr $C$DW$232, DW_AT_type(*$C$DW$T$29)
    2567                            .dwattr $C$DW$232, DW_AT_name("ymax")
    2568                            .dwattr $C$DW$232, DW_AT_TI_symbol_name("ymax")
    2569                            .dwattr $C$DW$232, DW_AT_data_member_location[DW_OP_plus_uconst 0x18]
    2570                            .dwattr $C$DW$232, DW_AT_accessibility(DW_ACCESS_public)
    2571                            .dwattr $C$DW$232, DW_AT_decl_file(".\..\packages\ti\vlib\src\VLIB_kalmanFilter_2x4_Correct\..
    2572                            .dwattr $C$DW$232, DW_AT_decl_line(0x70)
    2573                            .dwattr $C$DW$232, DW_AT_decl_column(0x0d)
    2574                    $C$DW$233       .dwtag  DW_TAG_member
    2575                            .dwattr $C$DW$233, DW_AT_type(*$C$DW$T$29)
    2576                            .dwattr $C$DW$233, DW_AT_name("seedx")
    2577                            .dwattr $C$DW$233, DW_AT_TI_symbol_name("seedx")
    2578                            .dwattr $C$DW$233, DW_AT_data_member_location[DW_OP_plus_uconst 0x1c]
    2579                            .dwattr $C$DW$233, DW_AT_accessibility(DW_ACCESS_public)
    2580                            .dwattr $C$DW$233, DW_AT_decl_file(".\..\packages\ti\vlib\src\VLIB_kalmanFilter_2x4_Correct\..
    2581                            .dwattr $C$DW$233, DW_AT_decl_line(0x72)
    2582                            .dwattr $C$DW$233, DW_AT_decl_column(0x0d)
    2583                    $C$DW$234       .dwtag  DW_TAG_member
    2584                            .dwattr $C$DW$234, DW_AT_type(*$C$DW$T$29)
    2585                            .dwattr $C$DW$234, DW_AT_name("seedy")
    2586                            .dwattr $C$DW$234, DW_AT_TI_symbol_name("seedy")
    2587                            .dwattr $C$DW$234, DW_AT_data_member_location[DW_OP_plus_uconst 0x20]
    2588                            .dwattr $C$DW$234, DW_AT_accessibility(DW_ACCESS_public)
    2589                            .dwattr $C$DW$234, DW_AT_decl_file(".\..\packages\ti\vlib\src\VLIB_kalmanFilter_2x4_Correct\..
    2590                            .dwattr $C$DW$234, DW_AT_decl_line(0x73)
    2591                            .dwattr $C$DW$234, DW_AT_decl_column(0x0d)
    2592                            .dwendtag $C$DW$T$30
    2593                    
    2594                            .dwattr $C$DW$T$30, DW_AT_decl_file(".\..\packages\ti\vlib\src\VLIB_kalmanFilter_2x4_Correct\.
    2595                            .dwattr $C$DW$T$30, DW_AT_decl_line(0x68)
    2596                            .dwattr $C$DW$T$30, DW_AT_decl_column(0x10)
    2597                    $C$DW$T$71      .dwtag  DW_TAG_typedef, DW_AT_name("VLIB_CC")
    2598                            .dwattr $C$DW$T$71, DW_AT_type(*$C$DW$T$30)
    2599                            .dwattr $C$DW$T$71, DW_AT_language(DW_LANG_C)
    2600                            .dwattr $C$DW$T$71, DW_AT_decl_file(".\..\packages\ti\vlib\src\VLIB_kalmanFilter_2x4_Correct\.
    2601                            .dwattr $C$DW$T$71, DW_AT_decl_line(0x75)
TMS320C6x Assembler PC v7.4.2 Thu Mar 19 12:42:36 2015

Tools Copyright (c) 1996-2012 Texas Instruments Incorporated
package/lib/Regression/regress_d_c/./../packages/ti/vlib/src/VLIB_kalmanFilter_2x4_Correct/VLIB_kalmanFilter_2x4_Correct_d.se66 PAGE   54

    2602                            .dwattr $C$DW$T$71, DW_AT_decl_column(0x03)
    2603                    
    2604                    $C$DW$T$33      .dwtag  DW_TAG_structure_type
    2605                            .dwattr $C$DW$T$33, DW_AT_byte_size(0x10)
    2606                    $C$DW$235       .dwtag  DW_TAG_member
    2607                            .dwattr $C$DW$235, DW_AT_type(*$C$DW$T$8)
    2608                            .dwattr $C$DW$235, DW_AT_name("daylight")
    2609                            .dwattr $C$DW$235, DW_AT_TI_symbol_name("daylight")
    2610                            .dwattr $C$DW$235, DW_AT_data_member_location[DW_OP_plus_uconst 0x0]
    2611                            .dwattr $C$DW$235, DW_AT_accessibility(DW_ACCESS_public)
    2612                            .dwattr $C$DW$235, DW_AT_decl_file("C:/VLIB_Tools/CCSV5_4_0/ccsv5/tools/compiler/C6000/include
    2613                            .dwattr $C$DW$235, DW_AT_decl_line(0x52)
    2614                            .dwattr $C$DW$235, DW_AT_decl_column(0x0b)
    2615                    $C$DW$236       .dwtag  DW_TAG_member
    2616                            .dwattr $C$DW$236, DW_AT_type(*$C$DW$T$10)
    2617                            .dwattr $C$DW$236, DW_AT_name("timezone")
    2618                            .dwattr $C$DW$236, DW_AT_TI_symbol_name("timezone")
    2619                            .dwattr $C$DW$236, DW_AT_data_member_location[DW_OP_plus_uconst 0x4]
    2620                            .dwattr $C$DW$236, DW_AT_accessibility(DW_ACCESS_public)
    2621                            .dwattr $C$DW$236, DW_AT_decl_file("C:/VLIB_Tools/CCSV5_4_0/ccsv5/tools/compiler/C6000/include
    2622                            .dwattr $C$DW$236, DW_AT_decl_line(0x53)
    2623                            .dwattr $C$DW$236, DW_AT_decl_column(0x0b)
    2624                    $C$DW$237       .dwtag  DW_TAG_member
    2625                            .dwattr $C$DW$237, DW_AT_type(*$C$DW$T$32)
    2626                            .dwattr $C$DW$237, DW_AT_name("tzname")
    2627                            .dwattr $C$DW$237, DW_AT_TI_symbol_name("tzname")
    2628                            .dwattr $C$DW$237, DW_AT_data_member_location[DW_OP_plus_uconst 0x8]
    2629                            .dwattr $C$DW$237, DW_AT_accessibility(DW_ACCESS_public)
    2630                            .dwattr $C$DW$237, DW_AT_decl_file("C:/VLIB_Tools/CCSV5_4_0/ccsv5/tools/compiler/C6000/include
    2631                            .dwattr $C$DW$237, DW_AT_decl_line(0x54)
    2632                            .dwattr $C$DW$237, DW_AT_decl_column(0x0b)
    2633                    $C$DW$238       .dwtag  DW_TAG_member
    2634                            .dwattr $C$DW$238, DW_AT_type(*$C$DW$T$32)
    2635                            .dwattr $C$DW$238, DW_AT_name("dstname")
    2636                            .dwattr $C$DW$238, DW_AT_TI_symbol_name("dstname")
    2637                            .dwattr $C$DW$238, DW_AT_data_member_location[DW_OP_plus_uconst 0xc]
    2638                            .dwattr $C$DW$238, DW_AT_accessibility(DW_ACCESS_public)
    2639                            .dwattr $C$DW$238, DW_AT_decl_file("C:/VLIB_Tools/CCSV5_4_0/ccsv5/tools/compiler/C6000/include
    2640                            .dwattr $C$DW$238, DW_AT_decl_line(0x55)
    2641                            .dwattr $C$DW$238, DW_AT_decl_column(0x0b)
    2642                            .dwendtag $C$DW$T$33
    2643                    
    2644                            .dwattr $C$DW$T$33, DW_AT_decl_file("C:/VLIB_Tools/CCSV5_4_0/ccsv5/tools/compiler/C6000/includ
    2645                            .dwattr $C$DW$T$33, DW_AT_decl_line(0x51)
    2646                            .dwattr $C$DW$T$33, DW_AT_decl_column(0x01)
    2647                    $C$DW$T$72      .dwtag  DW_TAG_typedef, DW_AT_name("TZ")
    2648                            .dwattr $C$DW$T$72, DW_AT_type(*$C$DW$T$33)
    2649                            .dwattr $C$DW$T$72, DW_AT_language(DW_LANG_C)
    2650                            .dwattr $C$DW$T$72, DW_AT_decl_file("C:/VLIB_Tools/CCSV5_4_0/ccsv5/tools/compiler/C6000/includ
    2651                            .dwattr $C$DW$T$72, DW_AT_decl_line(0x56)
    2652                            .dwattr $C$DW$T$72, DW_AT_decl_column(0x03)
    2653                    $C$DW$T$2       .dwtag  DW_TAG_unspecified_type
    2654                            .dwattr $C$DW$T$2, DW_AT_name("void")
    2655                    $C$DW$T$3       .dwtag  DW_TAG_pointer_type
    2656                            .dwattr $C$DW$T$3, DW_AT_type(*$C$DW$T$2)
TMS320C6x Assembler PC v7.4.2 Thu Mar 19 12:42:36 2015

Tools Copyright (c) 1996-2012 Texas Instruments Incorporated
package/lib/Regression/regress_d_c/./../packages/ti/vlib/src/VLIB_kalmanFilter_2x4_Correct/VLIB_kalmanFilter_2x4_Correct_d.se66 PAGE   55

    2657                            .dwattr $C$DW$T$3, DW_AT_address_class(0x20)
    2658                    $C$DW$T$73      .dwtag  DW_TAG_typedef, DW_AT_name("VLIB_PTR")
    2659                            .dwattr $C$DW$T$73, DW_AT_type(*$C$DW$T$3)
    2660                            .dwattr $C$DW$T$73, DW_AT_language(DW_LANG_C)
    2661                            .dwattr $C$DW$T$73, DW_AT_decl_file(".\..\packages\ti\vlib\src\VLIB_kalmanFilter_2x4_Correct\.
    2662                            .dwattr $C$DW$T$73, DW_AT_decl_line(0x5c)
    2663                            .dwattr $C$DW$T$73, DW_AT_decl_column(0x19)
    2664                    $C$DW$T$74      .dwtag  DW_TAG_const_type
    2665                            .dwattr $C$DW$T$74, DW_AT_type(*$C$DW$T$2)
    2666                    $C$DW$T$75      .dwtag  DW_TAG_pointer_type
    2667                            .dwattr $C$DW$T$75, DW_AT_type(*$C$DW$T$74)
    2668                            .dwattr $C$DW$T$75, DW_AT_address_class(0x20)
    2669                    $C$DW$T$4       .dwtag  DW_TAG_base_type
    2670                            .dwattr $C$DW$T$4, DW_AT_encoding(DW_ATE_boolean)
    2671                            .dwattr $C$DW$T$4, DW_AT_name("bool")
    2672                            .dwattr $C$DW$T$4, DW_AT_byte_size(0x01)
    2673                    $C$DW$T$5       .dwtag  DW_TAG_base_type
    2674                            .dwattr $C$DW$T$5, DW_AT_encoding(DW_ATE_signed_char)
    2675                            .dwattr $C$DW$T$5, DW_AT_name("signed char")
    2676                            .dwattr $C$DW$T$5, DW_AT_byte_size(0x01)
    2677                    $C$DW$T$117     .dwtag  DW_TAG_pointer_type
    2678                            .dwattr $C$DW$T$117, DW_AT_type(*$C$DW$T$5)
    2679                            .dwattr $C$DW$T$117, DW_AT_address_class(0x20)
    2680                    $C$DW$T$127     .dwtag  DW_TAG_typedef, DW_AT_name("int8_t")
    2681                            .dwattr $C$DW$T$127, DW_AT_type(*$C$DW$T$5)
    2682                            .dwattr $C$DW$T$127, DW_AT_language(DW_LANG_C)
    2683                            .dwattr $C$DW$T$127, DW_AT_decl_file("C:/VLIB_Tools/CCSV5_4_0/ccsv5/tools/compiler/C6000/inclu
    2684                            .dwattr $C$DW$T$127, DW_AT_decl_line(0x2a)
    2685                            .dwattr $C$DW$T$127, DW_AT_decl_column(0x1d)
    2686                    $C$DW$T$128     .dwtag  DW_TAG_typedef, DW_AT_name("int_least8_t")
    2687                            .dwattr $C$DW$T$128, DW_AT_type(*$C$DW$T$127)
    2688                            .dwattr $C$DW$T$128, DW_AT_language(DW_LANG_C)
    2689                            .dwattr $C$DW$T$128, DW_AT_decl_file("C:/VLIB_Tools/CCSV5_4_0/ccsv5/tools/compiler/C6000/inclu
    2690                            .dwattr $C$DW$T$128, DW_AT_decl_line(0x39)
    2691                            .dwattr $C$DW$T$128, DW_AT_decl_column(0x17)
    2692                    $C$DW$T$6       .dwtag  DW_TAG_base_type
    2693                            .dwattr $C$DW$T$6, DW_AT_encoding(DW_ATE_unsigned_char)
    2694                            .dwattr $C$DW$T$6, DW_AT_name("unsigned char")
    2695                            .dwattr $C$DW$T$6, DW_AT_byte_size(0x01)
    2696                    $C$DW$T$24      .dwtag  DW_TAG_pointer_type
    2697                            .dwattr $C$DW$T$24, DW_AT_type(*$C$DW$T$6)
    2698                            .dwattr $C$DW$T$24, DW_AT_address_class(0x20)
    2699                    $C$DW$T$19      .dwtag  DW_TAG_typedef, DW_AT_name("uint8_t")
    2700                            .dwattr $C$DW$T$19, DW_AT_type(*$C$DW$T$6)
    2701                            .dwattr $C$DW$T$19, DW_AT_language(DW_LANG_C)
    2702                            .dwattr $C$DW$T$19, DW_AT_decl_file("C:/VLIB_Tools/CCSV5_4_0/ccsv5/tools/compiler/C6000/includ
    2703                            .dwattr $C$DW$T$19, DW_AT_decl_line(0x2b)
    2704                            .dwattr $C$DW$T$19, DW_AT_decl_column(0x1c)
    2705                    $C$DW$T$129     .dwtag  DW_TAG_typedef, DW_AT_name("uint_least8_t")
    2706                            .dwattr $C$DW$T$129, DW_AT_type(*$C$DW$T$19)
    2707                            .dwattr $C$DW$T$129, DW_AT_language(DW_LANG_C)
    2708                            .dwattr $C$DW$T$129, DW_AT_decl_file("C:/VLIB_Tools/CCSV5_4_0/ccsv5/tools/compiler/C6000/inclu
    2709                            .dwattr $C$DW$T$129, DW_AT_decl_line(0x3a)
    2710                            .dwattr $C$DW$T$129, DW_AT_decl_column(0x16)
    2711                    $C$DW$T$7       .dwtag  DW_TAG_base_type
TMS320C6x Assembler PC v7.4.2 Thu Mar 19 12:42:36 2015

