TMS320C6x Assembler PC v7.4.2 Thu Mar 19 12:42:11 2015

Tools Copyright (c) 1996-2012 Texas Instruments Incorporated
package/lib/Regression/regress_d_c/./../packages/ti/vlib/src/VLIB_imagePyramid8/VLIB_imagePyramid8_d.se66 PAGE    1

       1                    ;******************************************************************************
       2                    ;* TMS320C6x C/C++ Codegen                                          PC v7.4.2 *
       3                    ;* Date/Time created: Thu Mar 19 12:42:10 2015                                *
       4                    ;******************************************************************************
       5                            .compiler_opts --abi=eabi --c64p_l1d_workaround=off --endian=little --hll_source=on --long_pre
       6                    
       7                    ;******************************************************************************
       8                    ;* GLOBAL FILE PARAMETERS                                                     *
       9                    ;*                                                                            *
      10                    ;*   Architecture      : TMS320C66xx                                          *
      11                    ;*   Optimization      : Enabled at level 3                                   *
      12                    ;*   Optimizing for    : Speed                                                *
      13                    ;*                       Based on options: -o3, no -ms                        *
      14                    ;*   Endian            : Little                                               *
      15                    ;*   Interrupt Thrshld : 10000                                                *
      16                    ;*   Data Access Model : Far                                                  *
      17                    ;*   Pipelining        : Enabled                                              *
      18                    ;*   Speculate Loads   : Enabled with threshold = 0                           *
      19                    ;*   Memory Aliases    : Presume are aliases (pessimistic)                    *
      20                    ;*   Debug Info        : DWARF Debug w/Optimization                           *
      21                    ;*                                                                            *
      22                    ;******************************************************************************
      23                    
      24                            .asg    A15, FP
      25                            .asg    B14, DP
      26                            .asg    B15, SP
      27                            .global $bss
      28                    
      29                    
      30                    $C$DW$CU        .dwtag  DW_TAG_compile_unit
      31                            .dwattr $C$DW$CU, DW_AT_name("./../packages/ti/vlib/src/VLIB_imagePyramid8/VLIB_imagePyramid8_
      32                            .dwattr $C$DW$CU, DW_AT_producer("TI TMS320C6x C/C++ Codegen PC v7.4.2 Copyright (c) 1996-2012
      33                            .dwattr $C$DW$CU, DW_AT_TI_version(0x01)
      34                            .dwattr $C$DW$CU, DW_AT_comp_dir("c:\nightlybuilds\vlib\ti\vlib\vlib\examples")
      35                    
      36                    $C$DW$1 .dwtag  DW_TAG_subprogram, DW_AT_name("_itoll")
      37                            .dwattr $C$DW$1, DW_AT_TI_symbol_name("_itoll")
      38                            .dwattr $C$DW$1, DW_AT_type(*$C$DW$T$14)
      39                            .dwattr $C$DW$1, DW_AT_declaration
      40                            .dwattr $C$DW$1, DW_AT_external
      41                            .dwattr $C$DW$1, DW_AT_decl_file("C:/VLIB_Tools/CCSV5_4_0/ccsv5/tools/compiler/C6000/include/c
      42                            .dwattr $C$DW$1, DW_AT_decl_line(0xdf)
      43                            .dwattr $C$DW$1, DW_AT_decl_column(0x0b)
      44                    $C$DW$2 .dwtag  DW_TAG_formal_parameter
      45                            .dwattr $C$DW$2, DW_AT_type(*$C$DW$T$11)
      46                    $C$DW$3 .dwtag  DW_TAG_formal_parameter
      47                            .dwattr $C$DW$3, DW_AT_type(*$C$DW$T$11)
      48                            .dwendtag $C$DW$1
      49                    
      50                    
      51                    $C$DW$4 .dwtag  DW_TAG_subprogram, DW_AT_name("printf")
      52                            .dwattr $C$DW$4, DW_AT_TI_symbol_name("printf")
      53                            .dwattr $C$DW$4, DW_AT_type(*$C$DW$T$10)
      54                            .dwattr $C$DW$4, DW_AT_declaration
      55                            .dwattr $C$DW$4, DW_AT_external
TMS320C6x Assembler PC v7.4.2 Thu Mar 19 12:42:11 2015

Tools Copyright (c) 1996-2012 Texas Instruments Incorporated
package/lib/Regression/regress_d_c/./../packages/ti/vlib/src/VLIB_imagePyramid8/VLIB_imagePyramid8_d.se66 PAGE    2

      56                            .dwattr $C$DW$4, DW_AT_decl_file("C:/VLIB_Tools/CCSV5_4_0/ccsv5/tools/compiler/C6000/include/s
      57                            .dwattr $C$DW$4, DW_AT_decl_line(0xb8)
      58                            .dwattr $C$DW$4, DW_AT_decl_column(0x19)
      59                    $C$DW$5 .dwtag  DW_TAG_formal_parameter
      60                            .dwattr $C$DW$5, DW_AT_type(*$C$DW$T$102)
      61                    $C$DW$6 .dwtag  DW_TAG_unspecified_parameters
      62                            .dwendtag $C$DW$4
      63                    
      64                    
      65                    $C$DW$7 .dwtag  DW_TAG_subprogram, DW_AT_name("sprintf")
      66                            .dwattr $C$DW$7, DW_AT_TI_symbol_name("sprintf")
      67                            .dwattr $C$DW$7, DW_AT_type(*$C$DW$T$10)
      68                            .dwattr $C$DW$7, DW_AT_declaration
      69                            .dwattr $C$DW$7, DW_AT_external
      70                            .dwattr $C$DW$7, DW_AT_decl_file("C:/VLIB_Tools/CCSV5_4_0/ccsv5/tools/compiler/C6000/include/s
      71                            .dwattr $C$DW$7, DW_AT_decl_line(0xbc)
      72                            .dwattr $C$DW$7, DW_AT_decl_column(0x19)
      73                    $C$DW$8 .dwtag  DW_TAG_formal_parameter
      74                            .dwattr $C$DW$8, DW_AT_type(*$C$DW$T$59)
      75                    $C$DW$9 .dwtag  DW_TAG_formal_parameter
      76                            .dwattr $C$DW$9, DW_AT_type(*$C$DW$T$102)
      77                    $C$DW$10        .dwtag  DW_TAG_unspecified_parameters
      78                            .dwendtag $C$DW$7
      79                    
      80                    
      81                    $C$DW$11        .dwtag  DW_TAG_subprogram, DW_AT_name("malloc")
      82                            .dwattr $C$DW$11, DW_AT_TI_symbol_name("malloc")
      83                            .dwattr $C$DW$11, DW_AT_type(*$C$DW$T$3)
      84                            .dwattr $C$DW$11, DW_AT_declaration
      85                            .dwattr $C$DW$11, DW_AT_external
      86                            .dwattr $C$DW$11, DW_AT_decl_file("C:/VLIB_Tools/CCSV5_4_0/ccsv5/tools/compiler/C6000/include/
      87                            .dwattr $C$DW$11, DW_AT_decl_line(0x82)
      88                            .dwattr $C$DW$11, DW_AT_decl_column(0x19)
      89                    $C$DW$12        .dwtag  DW_TAG_formal_parameter
      90                            .dwattr $C$DW$12, DW_AT_type(*$C$DW$T$52)
      91                            .dwendtag $C$DW$11
      92                    
      93                    
      94                    $C$DW$13        .dwtag  DW_TAG_subprogram, DW_AT_name("free")
      95                            .dwattr $C$DW$13, DW_AT_TI_symbol_name("free")
      96                            .dwattr $C$DW$13, DW_AT_declaration
      97                            .dwattr $C$DW$13, DW_AT_external
      98                            .dwattr $C$DW$13, DW_AT_decl_file("C:/VLIB_Tools/CCSV5_4_0/ccsv5/tools/compiler/C6000/include/
      99                            .dwattr $C$DW$13, DW_AT_decl_line(0x86)
     100                            .dwattr $C$DW$13, DW_AT_decl_column(0x19)
     101                    $C$DW$14        .dwtag  DW_TAG_formal_parameter
     102                            .dwattr $C$DW$14, DW_AT_type(*$C$DW$T$3)
     103                            .dwendtag $C$DW$13
     104                    
     105                    
     106                    $C$DW$15        .dwtag  DW_TAG_subprogram, DW_AT_name("VLIB_cache_inval")
     107                            .dwattr $C$DW$15, DW_AT_TI_symbol_name("VLIB_cache_inval")
     108                            .dwattr $C$DW$15, DW_AT_type(*$C$DW$T$10)
     109                            .dwattr $C$DW$15, DW_AT_declaration
     110                            .dwattr $C$DW$15, DW_AT_external
TMS320C6x Assembler PC v7.4.2 Thu Mar 19 12:42:11 2015

Tools Copyright (c) 1996-2012 Texas Instruments Incorporated
package/lib/Regression/regress_d_c/./../packages/ti/vlib/src/VLIB_imagePyramid8/VLIB_imagePyramid8_d.se66 PAGE    3

     111                            .dwattr $C$DW$15, DW_AT_decl_file(".\..\packages\ti\vlib\src\VLIB_imagePyramid8\..\common\c6x/
     112                            .dwattr $C$DW$15, DW_AT_decl_line(0x58)
     113                            .dwattr $C$DW$15, DW_AT_decl_column(0x05)
     114                    
     115                    $C$DW$16        .dwtag  DW_TAG_subprogram, DW_AT_name("VLIB_profile_init")
     116                            .dwattr $C$DW$16, DW_AT_TI_symbol_name("VLIB_profile_init")
     117                            .dwattr $C$DW$16, DW_AT_declaration
     118                            .dwattr $C$DW$16, DW_AT_external
     119                            .dwattr $C$DW$16, DW_AT_decl_file(".\..\packages\ti\vlib\src\VLIB_imagePyramid8\..\common\VLIB
     120                            .dwattr $C$DW$16, DW_AT_decl_line(0x7b)
     121                            .dwattr $C$DW$16, DW_AT_decl_column(0x06)
     122                    $C$DW$17        .dwtag  DW_TAG_formal_parameter
     123                            .dwattr $C$DW$17, DW_AT_type(*$C$DW$T$10)
     124                    $C$DW$18        .dwtag  DW_TAG_formal_parameter
     125                            .dwattr $C$DW$18, DW_AT_type(*$C$DW$T$59)
     126                            .dwendtag $C$DW$16
     127                    
     128                    
     129                    $C$DW$19        .dwtag  DW_TAG_subprogram, DW_AT_name("VLIB_formula_add_test")
     130                            .dwattr $C$DW$19, DW_AT_TI_symbol_name("VLIB_formula_add_test")
     131                            .dwattr $C$DW$19, DW_AT_declaration
     132                            .dwattr $C$DW$19, DW_AT_external
     133                            .dwattr $C$DW$19, DW_AT_decl_file(".\..\packages\ti\vlib\src\VLIB_imagePyramid8\..\common\VLIB
     134                            .dwattr $C$DW$19, DW_AT_decl_line(0x7d)
     135                            .dwattr $C$DW$19, DW_AT_decl_column(0x06)
     136                    $C$DW$20        .dwtag  DW_TAG_formal_parameter
     137                            .dwattr $C$DW$20, DW_AT_type(*$C$DW$T$10)
     138                    $C$DW$21        .dwtag  DW_TAG_formal_parameter
     139                            .dwattr $C$DW$21, DW_AT_type(*$C$DW$T$10)
     140                    $C$DW$22        .dwtag  DW_TAG_formal_parameter
     141                            .dwattr $C$DW$22, DW_AT_type(*$C$DW$T$10)
     142                    $C$DW$23        .dwtag  DW_TAG_formal_parameter
     143                            .dwattr $C$DW$23, DW_AT_type(*$C$DW$T$10)
     144                    $C$DW$24        .dwtag  DW_TAG_formal_parameter
     145                            .dwattr $C$DW$24, DW_AT_type(*$C$DW$T$59)
     146                    $C$DW$25        .dwtag  DW_TAG_formal_parameter
     147                            .dwattr $C$DW$25, DW_AT_type(*$C$DW$T$10)
     148                            .dwendtag $C$DW$19
     149                    
     150                    
     151                    $C$DW$26        .dwtag  DW_TAG_subprogram, DW_AT_name("VLIB_skip_test")
     152                            .dwattr $C$DW$26, DW_AT_TI_symbol_name("VLIB_skip_test")
     153                            .dwattr $C$DW$26, DW_AT_declaration
     154                            .dwattr $C$DW$26, DW_AT_external
     155                            .dwattr $C$DW$26, DW_AT_decl_file(".\..\packages\ti\vlib\src\VLIB_imagePyramid8\..\common\VLIB
     156                            .dwattr $C$DW$26, DW_AT_decl_line(0x7e)
     157                            .dwattr $C$DW$26, DW_AT_decl_column(0x06)
     158                    $C$DW$27        .dwtag  DW_TAG_formal_parameter
     159                            .dwattr $C$DW$27, DW_AT_type(*$C$DW$T$59)
     160                            .dwendtag $C$DW$26
     161                    
     162                    
     163                    $C$DW$28        .dwtag  DW_TAG_subprogram, DW_AT_name("VLIB_profile_cycle_report")
     164                            .dwattr $C$DW$28, DW_AT_TI_symbol_name("VLIB_profile_cycle_report")
     165                            .dwattr $C$DW$28, DW_AT_declaration
TMS320C6x Assembler PC v7.4.2 Thu Mar 19 12:42:11 2015

Tools Copyright (c) 1996-2012 Texas Instruments Incorporated
package/lib/Regression/regress_d_c/./../packages/ti/vlib/src/VLIB_imagePyramid8/VLIB_imagePyramid8_d.se66 PAGE    4

     166                            .dwattr $C$DW$28, DW_AT_external
     167                            .dwattr $C$DW$28, DW_AT_decl_file(".\..\packages\ti\vlib\src\VLIB_imagePyramid8\..\common\VLIB
     168                            .dwattr $C$DW$28, DW_AT_decl_line(0x7f)
     169                            .dwattr $C$DW$28, DW_AT_decl_column(0x06)
     170                    $C$DW$29        .dwtag  DW_TAG_formal_parameter
     171                            .dwattr $C$DW$29, DW_AT_type(*$C$DW$T$10)
     172                    $C$DW$30        .dwtag  DW_TAG_formal_parameter
     173                            .dwattr $C$DW$30, DW_AT_type(*$C$DW$T$59)
     174                    $C$DW$31        .dwtag  DW_TAG_formal_parameter
     175                            .dwattr $C$DW$31, DW_AT_type(*$C$DW$T$59)
     176                            .dwendtag $C$DW$28
     177                    
     178                    
     179                    $C$DW$32        .dwtag  DW_TAG_subprogram, DW_AT_name("initStack")
     180                            .dwattr $C$DW$32, DW_AT_TI_symbol_name("initStack")
     181                            .dwattr $C$DW$32, DW_AT_declaration
     182                            .dwattr $C$DW$32, DW_AT_external
     183                            .dwattr $C$DW$32, DW_AT_decl_file(".\..\packages\ti\vlib\src\VLIB_imagePyramid8\..\common\VLIB
     184                            .dwattr $C$DW$32, DW_AT_decl_line(0x80)
     185                            .dwattr $C$DW$32, DW_AT_decl_column(0x06)
     186                    $C$DW$33        .dwtag  DW_TAG_formal_parameter
     187                            .dwattr $C$DW$33, DW_AT_type(*$C$DW$T$68)
     188                            .dwendtag $C$DW$32
     189                    
     190                    
     191                    $C$DW$34        .dwtag  DW_TAG_subprogram, DW_AT_name("setStackDepth")
     192                            .dwattr $C$DW$34, DW_AT_TI_symbol_name("setStackDepth")
     193                            .dwattr $C$DW$34, DW_AT_declaration
     194                            .dwattr $C$DW$34, DW_AT_external
     195                            .dwattr $C$DW$34, DW_AT_decl_file(".\..\packages\ti\vlib\src\VLIB_imagePyramid8\..\common\VLIB
     196                            .dwattr $C$DW$34, DW_AT_decl_line(0x81)
     197                            .dwattr $C$DW$34, DW_AT_decl_column(0x06)
     198                    
     199                    $C$DW$35        .dwtag  DW_TAG_subprogram, DW_AT_name("getSP")
     200                            .dwattr $C$DW$35, DW_AT_TI_symbol_name("getSP")
     201                            .dwattr $C$DW$35, DW_AT_type(*$C$DW$T$68)
     202                            .dwattr $C$DW$35, DW_AT_declaration
     203                            .dwattr $C$DW$35, DW_AT_external
     204                            .dwattr $C$DW$35, DW_AT_decl_file(".\..\packages\ti\vlib\src\VLIB_imagePyramid8\..\common\VLIB
     205                            .dwattr $C$DW$35, DW_AT_decl_line(0x82)
     206                            .dwattr $C$DW$35, DW_AT_decl_column(0x0a)
     207                    
     208                    $C$DW$36        .dwtag  DW_TAG_subprogram, DW_AT_name("VLIB_stack_memory")
     209                            .dwattr $C$DW$36, DW_AT_TI_symbol_name("VLIB_stack_memory")
     210                            .dwattr $C$DW$36, DW_AT_declaration
     211                            .dwattr $C$DW$36, DW_AT_external
     212                            .dwattr $C$DW$36, DW_AT_decl_file(".\..\packages\ti\vlib\src\VLIB_imagePyramid8\..\common\VLIB
     213                            .dwattr $C$DW$36, DW_AT_decl_line(0x83)
     214                            .dwattr $C$DW$36, DW_AT_decl_column(0x06)
     215                    
     216                    $C$DW$37        .dwtag  DW_TAG_subprogram, DW_AT_name("VLIB_compare_mem")
     217                            .dwattr $C$DW$37, DW_AT_TI_symbol_name("VLIB_compare_mem")
     218                            .dwattr $C$DW$37, DW_AT_type(*$C$DW$T$28)
     219                            .dwattr $C$DW$37, DW_AT_declaration
     220                            .dwattr $C$DW$37, DW_AT_external
TMS320C6x Assembler PC v7.4.2 Thu Mar 19 12:42:11 2015

Tools Copyright (c) 1996-2012 Texas Instruments Incorporated
package/lib/Regression/regress_d_c/./../packages/ti/vlib/src/VLIB_imagePyramid8/VLIB_imagePyramid8_d.se66 PAGE    5

     221                            .dwattr $C$DW$37, DW_AT_decl_file(".\..\packages\ti\vlib\src\VLIB_imagePyramid8\../common/VLIB
     222                            .dwattr $C$DW$37, DW_AT_decl_line(0x6f)
     223                            .dwattr $C$DW$37, DW_AT_decl_column(0x11)
     224                    $C$DW$38        .dwtag  DW_TAG_formal_parameter
     225                            .dwattr $C$DW$38, DW_AT_type(*$C$DW$T$51)
     226                    $C$DW$39        .dwtag  DW_TAG_formal_parameter
     227                            .dwattr $C$DW$39, DW_AT_type(*$C$DW$T$51)
     228                    $C$DW$40        .dwtag  DW_TAG_formal_parameter
     229                            .dwattr $C$DW$40, DW_AT_type(*$C$DW$T$28)
     230                            .dwendtag $C$DW$37
     231                    
     232                    
     233                    $C$DW$41        .dwtag  DW_TAG_subprogram, DW_AT_name("VLIB_fillBuffer")
     234                            .dwattr $C$DW$41, DW_AT_TI_symbol_name("VLIB_fillBuffer")
     235                            .dwattr $C$DW$41, DW_AT_declaration
     236                            .dwattr $C$DW$41, DW_AT_external
     237                            .dwattr $C$DW$41, DW_AT_decl_file(".\..\packages\ti\vlib\src\VLIB_imagePyramid8\../common/VLIB
     238                            .dwattr $C$DW$41, DW_AT_decl_line(0x77)
     239                            .dwattr $C$DW$41, DW_AT_decl_column(0x06)
     240                    $C$DW$42        .dwtag  DW_TAG_formal_parameter
     241                            .dwattr $C$DW$42, DW_AT_type(*$C$DW$T$19)
     242                    $C$DW$43        .dwtag  DW_TAG_formal_parameter
     243                            .dwattr $C$DW$43, DW_AT_type(*$C$DW$T$19)
     244                    $C$DW$44        .dwtag  DW_TAG_formal_parameter
     245                            .dwattr $C$DW$44, DW_AT_type(*$C$DW$T$3)
     246                    $C$DW$45        .dwtag  DW_TAG_formal_parameter
     247                            .dwattr $C$DW$45, DW_AT_type(*$C$DW$T$3)
     248                    $C$DW$46        .dwtag  DW_TAG_formal_parameter
     249                            .dwattr $C$DW$46, DW_AT_type(*$C$DW$T$21)
     250                    $C$DW$47        .dwtag  DW_TAG_formal_parameter
     251                            .dwattr $C$DW$47, DW_AT_type(*$C$DW$T$21)
     252                    $C$DW$48        .dwtag  DW_TAG_formal_parameter
     253                            .dwattr $C$DW$48, DW_AT_type(*$C$DW$T$21)
     254                    $C$DW$49        .dwtag  DW_TAG_formal_parameter
     255                            .dwattr $C$DW$49, DW_AT_type(*$C$DW$T$19)
     256                    $C$DW$50        .dwtag  DW_TAG_formal_parameter
     257                            .dwattr $C$DW$50, DW_AT_type(*$C$DW$T$59)
     258                            .dwendtag $C$DW$41
     259                    
     260                    
     261                    $C$DW$51        .dwtag  DW_TAG_subprogram, DW_AT_name("VLIB_memalign")
     262                            .dwattr $C$DW$51, DW_AT_TI_symbol_name("VLIB_memalign")
     263                            .dwattr $C$DW$51, DW_AT_type(*$C$DW$T$3)
     264                            .dwattr $C$DW$51, DW_AT_declaration
     265                            .dwattr $C$DW$51, DW_AT_external
     266                            .dwattr $C$DW$51, DW_AT_decl_file(".\..\packages\ti\vlib\src\VLIB_imagePyramid8\../common/VLIB
     267                            .dwattr $C$DW$51, DW_AT_decl_line(0xae)
     268                            .dwattr $C$DW$51, DW_AT_decl_column(0x07)
     269                    $C$DW$52        .dwtag  DW_TAG_formal_parameter
     270                            .dwattr $C$DW$52, DW_AT_type(*$C$DW$T$52)
     271                    $C$DW$53        .dwtag  DW_TAG_formal_parameter
     272                            .dwattr $C$DW$53, DW_AT_type(*$C$DW$T$52)
     273                            .dwendtag $C$DW$51
     274                    
     275                    
TMS320C6x Assembler PC v7.4.2 Thu Mar 19 12:42:11 2015

Tools Copyright (c) 1996-2012 Texas Instruments Incorporated
package/lib/Regression/regress_d_c/./../packages/ti/vlib/src/VLIB_imagePyramid8/VLIB_imagePyramid8_d.se66 PAGE    6

     276                    $C$DW$54        .dwtag  DW_TAG_subprogram, DW_AT_name("VLIB_align_free")
     277                            .dwattr $C$DW$54, DW_AT_TI_symbol_name("VLIB_align_free")
     278                            .dwattr $C$DW$54, DW_AT_declaration
     279                            .dwattr $C$DW$54, DW_AT_external
     280                            .dwattr $C$DW$54, DW_AT_decl_file(".\..\packages\ti\vlib\src\VLIB_imagePyramid8\../common/VLIB
     281                            .dwattr $C$DW$54, DW_AT_decl_line(0xb3)
     282                            .dwattr $C$DW$54, DW_AT_decl_column(0x07)
     283                    $C$DW$55        .dwtag  DW_TAG_formal_parameter
     284                            .dwattr $C$DW$55, DW_AT_type(*$C$DW$T$3)
     285                            .dwendtag $C$DW$54
     286                    
     287                    
     288                    $C$DW$56        .dwtag  DW_TAG_subprogram, DW_AT_name("VLIB_imagePyramid8")
     289                            .dwattr $C$DW$56, DW_AT_TI_symbol_name("VLIB_imagePyramid8")
     290                            .dwattr $C$DW$56, DW_AT_type(*$C$DW$T$28)
     291                            .dwattr $C$DW$56, DW_AT_declaration
     292                            .dwattr $C$DW$56, DW_AT_external
     293                            .dwattr $C$DW$56, DW_AT_decl_file(".\..\packages\ti\vlib\src\VLIB_imagePyramid8\c66/VLIB_image
     294                            .dwattr $C$DW$56, DW_AT_decl_line(0x6f)
     295                            .dwattr $C$DW$56, DW_AT_decl_column(0x0c)
     296                    $C$DW$57        .dwtag  DW_TAG_formal_parameter
     297                            .dwattr $C$DW$57, DW_AT_type(*$C$DW$T$95)
     298                    $C$DW$58        .dwtag  DW_TAG_formal_parameter
     299                            .dwattr $C$DW$58, DW_AT_type(*$C$DW$T$21)
     300                    $C$DW$59        .dwtag  DW_TAG_formal_parameter
     301                            .dwattr $C$DW$59, DW_AT_type(*$C$DW$T$21)
     302                    $C$DW$60        .dwtag  DW_TAG_formal_parameter
     303                            .dwattr $C$DW$60, DW_AT_type(*$C$DW$T$92)
     304                            .dwendtag $C$DW$56
     305                    
     306                    
     307                    $C$DW$61        .dwtag  DW_TAG_subprogram, DW_AT_name("VLIB_imagePyramid8_cn")
     308                            .dwattr $C$DW$61, DW_AT_TI_symbol_name("VLIB_imagePyramid8_cn")
     309                            .dwattr $C$DW$61, DW_AT_type(*$C$DW$T$28)
     310                            .dwattr $C$DW$61, DW_AT_declaration
     311                            .dwattr $C$DW$61, DW_AT_external
     312                            .dwattr $C$DW$61, DW_AT_decl_file(".\..\packages\ti\vlib\src\VLIB_imagePyramid8\VLIB_imagePyra
     313                            .dwattr $C$DW$61, DW_AT_decl_line(0x20)
     314                            .dwattr $C$DW$61, DW_AT_decl_column(0x09)
     315                    $C$DW$62        .dwtag  DW_TAG_formal_parameter
     316                            .dwattr $C$DW$62, DW_AT_type(*$C$DW$T$92)
     317                    $C$DW$63        .dwtag  DW_TAG_formal_parameter
     318                            .dwattr $C$DW$63, DW_AT_type(*$C$DW$T$21)
     319                    $C$DW$64        .dwtag  DW_TAG_formal_parameter
     320                            .dwattr $C$DW$64, DW_AT_type(*$C$DW$T$21)
     321                    $C$DW$65        .dwtag  DW_TAG_formal_parameter
     322                            .dwattr $C$DW$65, DW_AT_type(*$C$DW$T$92)
     323                            .dwendtag $C$DW$61
     324                    
     325                    
     326                    $C$DW$66        .dwtag  DW_TAG_subprogram, DW_AT_name("imagePyramid8_getTestParams")
     327                            .dwattr $C$DW$66, DW_AT_TI_symbol_name("imagePyramid8_getTestParams")
     328                            .dwattr $C$DW$66, DW_AT_declaration
     329                            .dwattr $C$DW$66, DW_AT_external
     330                            .dwattr $C$DW$66, DW_AT_decl_file(".\..\packages\ti\vlib\src\VLIB_imagePyramid8\VLIB_imagePyra
TMS320C6x Assembler PC v7.4.2 Thu Mar 19 12:42:11 2015

Tools Copyright (c) 1996-2012 Texas Instruments Incorporated
package/lib/Regression/regress_d_c/./../packages/ti/vlib/src/VLIB_imagePyramid8/VLIB_imagePyramid8_d.se66 PAGE    7

     331                            .dwattr $C$DW$66, DW_AT_decl_line(0x2b)
     332                            .dwattr $C$DW$66, DW_AT_decl_column(0x06)
     333                    $C$DW$67        .dwtag  DW_TAG_formal_parameter
     334                            .dwattr $C$DW$67, DW_AT_type(*$C$DW$T$44)
     335                    $C$DW$68        .dwtag  DW_TAG_formal_parameter
     336                            .dwattr $C$DW$68, DW_AT_type(*$C$DW$T$76)
     337                            .dwendtag $C$DW$66
     338                    
     339                    $C$DW$69        .dwtag  DW_TAG_variable, DW_AT_name("test_cases")
     340                            .dwattr $C$DW$69, DW_AT_TI_symbol_name("test_cases")
     341                            .dwattr $C$DW$69, DW_AT_type(*$C$DW$T$28)
     342                            .dwattr $C$DW$69, DW_AT_declaration
     343                            .dwattr $C$DW$69, DW_AT_external
     344                            .dwattr $C$DW$69, DW_AT_decl_file(".\..\packages\ti\vlib\src\VLIB_imagePyramid8\../common/VLIB
     345                            .dwattr $C$DW$69, DW_AT_decl_line(0x60)
     346                            .dwattr $C$DW$69, DW_AT_decl_column(0x13)
     347                    $C$DW$70        .dwtag  DW_TAG_variable, DW_AT_name("act_kernel")
     348                            .dwattr $C$DW$70, DW_AT_TI_symbol_name("act_kernel")
     349                            .dwattr $C$DW$70, DW_AT_type(*$C$DW$T$10)
     350                            .dwattr $C$DW$70, DW_AT_declaration
     351                            .dwattr $C$DW$70, DW_AT_external
     352                            .dwattr $C$DW$70, DW_AT_decl_file(".\..\packages\ti\vlib\src\VLIB_imagePyramid8\../common/VLIB
     353                            .dwattr $C$DW$70, DW_AT_decl_line(0x62)
     354                            .dwattr $C$DW$70, DW_AT_decl_column(0x13)
     355                    $C$DW$71        .dwtag  DW_TAG_variable, DW_AT_name("desc")
     356                            .dwattr $C$DW$71, DW_AT_TI_symbol_name("desc")
     357                            .dwattr $C$DW$71, DW_AT_type(*$C$DW$T$161)
     358                            .dwattr $C$DW$71, DW_AT_declaration
     359                            .dwattr $C$DW$71, DW_AT_external
     360                            .dwattr $C$DW$71, DW_AT_decl_file(".\..\packages\ti\vlib\src\VLIB_imagePyramid8\../common/VLIB
     361                            .dwattr $C$DW$71, DW_AT_decl_line(0x63)
     362                            .dwattr $C$DW$71, DW_AT_decl_column(0x13)
     363                    $C$DW$72        .dwtag  DW_TAG_variable, DW_AT_name("testPatternString")
     364                            .dwattr $C$DW$72, DW_AT_TI_symbol_name("testPatternString")
     365                            .dwattr $C$DW$72, DW_AT_type(*$C$DW$T$161)
     366                            .dwattr $C$DW$72, DW_AT_declaration
     367                            .dwattr $C$DW$72, DW_AT_external
     368                            .dwattr $C$DW$72, DW_AT_decl_file(".\..\packages\ti\vlib\src\VLIB_imagePyramid8\../common/VLIB
     369                            .dwattr $C$DW$72, DW_AT_decl_line(0x64)
     370                            .dwattr $C$DW$72, DW_AT_decl_column(0x13)
     371                    $C$DW$73        .dwtag  DW_TAG_variable, DW_AT_name("est_test")
     372                            .dwattr $C$DW$73, DW_AT_TI_symbol_name("est_test")
     373                            .dwattr $C$DW$73, DW_AT_type(*$C$DW$T$10)
     374                            .dwattr $C$DW$73, DW_AT_declaration
     375                            .dwattr $C$DW$73, DW_AT_external
     376                            .dwattr $C$DW$73, DW_AT_decl_file(".\..\packages\ti\vlib\src\VLIB_imagePyramid8\..\common\VLIB
     377                            .dwattr $C$DW$73, DW_AT_decl_line(0x75)
     378                            .dwattr $C$DW$73, DW_AT_decl_column(0x14)
     379                    $C$DW$74        .dwtag  DW_TAG_variable, DW_AT_name("beg_count")
     380                            .dwattr $C$DW$74, DW_AT_TI_symbol_name("beg_count")
     381                            .dwattr $C$DW$74, DW_AT_type(*$C$DW$T$151)
     382                            .dwattr $C$DW$74, DW_AT_declaration
     383                            .dwattr $C$DW$74, DW_AT_external
     384                            .dwattr $C$DW$74, DW_AT_decl_file(".\..\packages\ti\vlib\src\VLIB_imagePyramid8\..\common\VLIB
     385                            .dwattr $C$DW$74, DW_AT_decl_line(0x76)
TMS320C6x Assembler PC v7.4.2 Thu Mar 19 12:42:11 2015

Tools Copyright (c) 1996-2012 Texas Instruments Incorporated
package/lib/Regression/regress_d_c/./../packages/ti/vlib/src/VLIB_imagePyramid8/VLIB_imagePyramid8_d.se66 PAGE    8

     386                            .dwattr $C$DW$74, DW_AT_decl_column(0x14)
     387                    $C$DW$75        .dwtag  DW_TAG_variable, DW_AT_name("end_count")
     388                            .dwattr $C$DW$75, DW_AT_TI_symbol_name("end_count")
     389                            .dwattr $C$DW$75, DW_AT_type(*$C$DW$T$151)
     390                            .dwattr $C$DW$75, DW_AT_declaration
     391                            .dwattr $C$DW$75, DW_AT_external
     392                            .dwattr $C$DW$75, DW_AT_decl_file(".\..\packages\ti\vlib\src\VLIB_imagePyramid8\..\common\VLIB
     393                            .dwattr $C$DW$75, DW_AT_decl_line(0x77)
     394                            .dwattr $C$DW$75, DW_AT_decl_column(0x14)
     395                    $C$DW$76        .dwtag  DW_TAG_variable, DW_AT_name("overhead")
     396                            .dwattr $C$DW$76, DW_AT_TI_symbol_name("overhead")
     397                            .dwattr $C$DW$76, DW_AT_type(*$C$DW$T$151)
     398                            .dwattr $C$DW$76, DW_AT_declaration
     399                            .dwattr $C$DW$76, DW_AT_external
     400                            .dwattr $C$DW$76, DW_AT_decl_file(".\..\packages\ti\vlib\src\VLIB_imagePyramid8\..\common\VLIB
     401                            .dwattr $C$DW$76, DW_AT_decl_line(0x78)
     402                            .dwattr $C$DW$76, DW_AT_decl_column(0x14)
     403                    $C$DW$77        .dwtag  DW_TAG_variable, DW_AT_name("cycles")
     404                            .dwattr $C$DW$77, DW_AT_TI_symbol_name("cycles")
     405                            .dwattr $C$DW$77, DW_AT_type(*$C$DW$T$152)
     406                            .dwattr $C$DW$77, DW_AT_declaration
     407                            .dwattr $C$DW$77, DW_AT_external
     408                            .dwattr $C$DW$77, DW_AT_decl_file(".\..\packages\ti\vlib\src\VLIB_imagePyramid8\..\common\VLIB
     409                            .dwattr $C$DW$77, DW_AT_decl_line(0x79)
     410                            .dwattr $C$DW$77, DW_AT_decl_column(0x14)
     411                    ;       C:\VLIB_Tools\CCSV5_4_0\ccsv5\tools\compiler\C6000\bin\opt6x.exe C:\\Users\\gtbldadm\\AppData\
     412 00000000                   .sect   ".text"
     413                            .clink
     414                            .global VLIB_imagePyramid8_d
     415                    
     416                    $C$DW$78        .dwtag  DW_TAG_subprogram, DW_AT_name("VLIB_imagePyramid8_d")
     417                            .dwattr $C$DW$78, DW_AT_low_pc(VLIB_imagePyramid8_d)
     418                            .dwattr $C$DW$78, DW_AT_high_pc(0x00)
     419                            .dwattr $C$DW$78, DW_AT_TI_symbol_name("VLIB_imagePyramid8_d")
     420                            .dwattr $C$DW$78, DW_AT_external
     421                            .dwattr $C$DW$78, DW_AT_TI_begin_file("./../packages/ti/vlib/src/VLIB_imagePyramid8/VLIB_image
     422                            .dwattr $C$DW$78, DW_AT_TI_begin_line(0x26)
     423                            .dwattr $C$DW$78, DW_AT_TI_begin_column(0x06)
     424                            .dwattr $C$DW$78, DW_AT_decl_file("./../packages/ti/vlib/src/VLIB_imagePyramid8/VLIB_imagePyra
     425                            .dwattr $C$DW$78, DW_AT_decl_line(0x26)
     426                            .dwattr $C$DW$78, DW_AT_decl_column(0x06)
     427                            .dwattr $C$DW$78, DW_AT_TI_max_frame_size(0x60)
     428                            .dwpsn  file "./../packages/ti/vlib/src/VLIB_imagePyramid8/VLIB_imagePyramid8_d.c",line 39,col
     429                    
     430                            .dwfde $C$DW$CIE, VLIB_imagePyramid8_d
     431                    $C$DW$79        .dwtag  DW_TAG_formal_parameter, DW_AT_name("LevelOfFeedback")
     432                            .dwattr $C$DW$79, DW_AT_TI_symbol_name("LevelOfFeedback")
     433                            .dwattr $C$DW$79, DW_AT_type(*$C$DW$T$19)
     434                            .dwattr $C$DW$79, DW_AT_location[DW_OP_reg4]
     435                    ;----------------------------------------------------------------------
     436                    ;  38 | void VLIB_imagePyramid8_d(uint8_t LevelOfFeedback)                     
     437                    ;----------------------------------------------------------------------
     438                    
     439                    ;******************************************************************************
     440                    ;* FUNCTION NAME: VLIB_imagePyramid8_d                                        *
TMS320C6x Assembler PC v7.4.2 Thu Mar 19 12:42:11 2015

Tools Copyright (c) 1996-2012 Texas Instruments Incorporated
package/lib/Regression/regress_d_c/./../packages/ti/vlib/src/VLIB_imagePyramid8/VLIB_imagePyramid8_d.se66 PAGE    9

     441                    ;*                                                                            *
     442                    ;*   Regs Modified     : A0,A1,A2,A3,A4,A5,A6,A7,A8,A9,A10,A11,A12,A13,A14,   *
     443                    ;*                           A15,B0,B1,B2,B3,B4,B5,B6,B7,B8,B9,B10,B11,B12,   *
     444                    ;*                           B13,SP,A16,A17,A18,A19,A20,A21,A22,A23,A24,A25,  *
     445                    ;*                           A26,A27,A28,A29,A30,A31,B16,B17,B18,B19,B20,B21, *
     446                    ;*                           B22,B23,B24,B25,B26,B27,B28,B29,B30,B31          *
     447                    ;*   Regs Used         : A0,A1,A2,A3,A4,A5,A6,A7,A8,A9,A10,A11,A12,A13,A14,   *
     448                    ;*                           A15,B0,B1,B2,B3,B4,B5,B6,B7,B8,B9,B10,B11,B12,   *
     449                    ;*                           B13,DP,SP,A16,A17,A18,A19,A20,A21,A22,A23,A24,   *
     450                    ;*                           A25,A26,A27,A28,A29,A30,A31,B16,B17,B18,B19,B20, *
     451                    ;*                           B21,B22,B23,B24,B25,B26,B27,B28,B29,B30,B31      *
     452                    ;*   Local Frame Size  : 24 Args + 16 Auto + 56 Save = 96 byte                *
     453                    ;******************************************************************************
     454                    
     455                    ;******************************************************************************
     456                    ;*                                                                            *
     457                    ;* Using -g (debug) with optimization (-o3) may disable key optimizations!    *
     458                    ;*                                                                            *
     459                    ;******************************************************************************
     460 00000000           VLIB_imagePyramid8_d:
     461                    ;** --------------------------------------------------------------------------*
     462                    ;          EXCLUSIVE CPU CYCLES: 16
     463                    ;** 45  -----------------------    imagePyramid8_getTestParams(&prm, &test_cases);
     464                    ;** 48  -----------------------    VLIB_profile_init(2, "VLIB_imagePyramid8");
     465                    ;** 51  -----------------------    if ( test_cases <= 0 ) goto g10;
     466                            .dwcfi  cfa_offset, 0
     467                    ;----------------------------------------------------------------------
     468                    ;  40 | int32_t    tpi;  /* test parameter index */                            
     469                    ;  43 | imagePyramid8_testParams_t   *prm;                                     
     470                    ;----------------------------------------------------------------------
     471 00000000     25f7             STW     .D2T1   A11,*SP--(8)      ; |39| 
     472                            .dwcfi  cfa_offset, 8
     473                            .dwcfi  save_reg_to_mem, 11, 0
     474 00000002     2577             STW     .D2T1   A10,*SP--(8)      ; |39| 
     475                            .dwcfi  cfa_offset, 16
     476                            .dwcfi  save_reg_to_mem, 10, -8
     477 00000004     9677             STDW    .D2T2   B13:B12,*SP--     ; |39| 
     478                            .dwcfi  cfa_offset, 24
     479                            .dwcfi  save_reg_to_mem, 29, -12
     480                            .dwcfi  save_reg_to_mem, 28, -16
     481 00000006     9577             STDW    .D2T2   B11:B10,*SP--     ; |39| 
     482                            .dwcfi  cfa_offset, 32
     483                            .dwcfi  save_reg_to_mem, 27, -20
     484                            .dwcfi  save_reg_to_mem, 26, -24
     485 00000008     8777             STDW    .D2T1   A15:A14,*SP--     ; |39| 
     486                            .dwcfi  cfa_offset, 40
     487                            .dwcfi  save_reg_to_mem, 15, -28
     488                            .dwcfi  save_reg_to_mem, 14, -32
     489 0000000a     8677             STDW    .D2T1   A13:A12,*SP--     ; |39| 
     490                            .dwcfi  cfa_offset, 48
     491                            .dwcfi  save_reg_to_mem, 13, -36
     492                            .dwcfi  save_reg_to_mem, 12, -40
     493 0000000c 01bd94f6             STW     .D2T2   B3,*SP--(48)      ; |39| 
     494                            .dwcfi  cfa_offset, 96
     495                            .dwcfi  save_reg_to_mem, 19, 0
TMS320C6x Assembler PC v7.4.2 Thu Mar 19 12:42:11 2015

Tools Copyright (c) 1996-2012 Texas Instruments Incorporated
package/lib/Regression/regress_d_c/./../packages/ti/vlib/src/VLIB_imagePyramid8/VLIB_imagePyramid8_d.se66 PAGE   10

     496                    $C$DW$80        .dwtag  DW_TAG_variable, DW_AT_name("$O$C1")
     497                            .dwattr $C$DW$80, DW_AT_TI_symbol_name("$O$C1")
     498                            .dwattr $C$DW$80, DW_AT_type(*$C$DW$T$40)
     499                            .dwattr $C$DW$80, DW_AT_location[DW_OP_reg21]
     500                    $C$DW$81        .dwtag  DW_TAG_variable, DW_AT_name("$O$C2")
     501                            .dwattr $C$DW$81, DW_AT_TI_symbol_name("$O$C2")
     502                            .dwattr $C$DW$81, DW_AT_type(*$C$DW$T$10)
     503                            .dwattr $C$DW$81, DW_AT_location[DW_OP_reg3]
     504                    $C$DW$82        .dwtag  DW_TAG_variable, DW_AT_name("$O$C3")
     505                            .dwattr $C$DW$82, DW_AT_TI_symbol_name("$O$C3")
     506                            .dwattr $C$DW$82, DW_AT_type(*$C$DW$T$10)
     507                            .dwattr $C$DW$82, DW_AT_location[DW_OP_reg3]
     508                    $C$DW$83        .dwtag  DW_TAG_variable, DW_AT_name("$O$C4")
     509                            .dwattr $C$DW$83, DW_AT_TI_symbol_name("$O$C4")
     510                            .dwattr $C$DW$83, DW_AT_type(*$C$DW$T$9)
     511                            .dwattr $C$DW$83, DW_AT_location[DW_OP_reg8]
     512                    $C$DW$84        .dwtag  DW_TAG_variable, DW_AT_name("$O$C5")
     513                            .dwattr $C$DW$84, DW_AT_TI_symbol_name("$O$C5")
     514                            .dwattr $C$DW$84, DW_AT_type(*$C$DW$T$11)
     515                            .dwattr $C$DW$84, DW_AT_location[DW_OP_reg26]
     516                    $C$DW$85        .dwtag  DW_TAG_variable, DW_AT_name("$O$U12")
     517                            .dwattr $C$DW$85, DW_AT_TI_symbol_name("$O$U12")
     518                            .dwattr $C$DW$85, DW_AT_type(*$C$DW$T$40)
     519                            .dwattr $C$DW$85, DW_AT_location[DW_OP_reg27]
     520                    $C$DW$86        .dwtag  DW_TAG_variable, DW_AT_name("$O$K38")
     521                            .dwattr $C$DW$86, DW_AT_TI_symbol_name("$O$K38")
     522                            .dwattr $C$DW$86, DW_AT_type(*$C$DW$T$80)
     523                            .dwattr $C$DW$86, DW_AT_location[DW_OP_reg12]
     524                    $C$DW$87        .dwtag  DW_TAG_variable, DW_AT_name("$O$K49")
     525                            .dwattr $C$DW$87, DW_AT_TI_symbol_name("$O$K49")
     526                            .dwattr $C$DW$87, DW_AT_type(*$C$DW$T$150)
     527                            .dwattr $C$DW$87, DW_AT_location[DW_OP_reg14]
     528                    $C$DW$88        .dwtag  DW_TAG_variable, DW_AT_name("$O$U56")
     529                            .dwattr $C$DW$88, DW_AT_TI_symbol_name("$O$U56")
     530                            .dwattr $C$DW$88, DW_AT_type(*$C$DW$T$10)
     531                            .dwattr $C$DW$88, DW_AT_location[DW_OP_reg13]
     532                    $C$DW$89        .dwtag  DW_TAG_variable, DW_AT_name("$O$U59")
     533                            .dwattr $C$DW$89, DW_AT_TI_symbol_name("$O$U59")
     534                            .dwattr $C$DW$89, DW_AT_type(*$C$DW$T$23)
     535                            .dwattr $C$DW$89, DW_AT_location[DW_OP_reg16]
     536                    $C$DW$90        .dwtag  DW_TAG_variable, DW_AT_name("$O$U11")
     537                            .dwattr $C$DW$90, DW_AT_TI_symbol_name("$O$U11")
     538                            .dwattr $C$DW$90, DW_AT_type(*$C$DW$T$10)
     539                            .dwattr $C$DW$90, DW_AT_location[DW_OP_reg28]
     540                    $C$DW$91        .dwtag  DW_TAG_variable, DW_AT_name("$O$K72")
     541                            .dwattr $C$DW$91, DW_AT_TI_symbol_name("$O$K72")
     542                            .dwattr $C$DW$91, DW_AT_type(*$C$DW$T$80)
     543                            .dwattr $C$DW$91, DW_AT_location[DW_OP_reg11]
     544                    $C$DW$92        .dwtag  DW_TAG_variable, DW_AT_name("tpi")
     545                            .dwattr $C$DW$92, DW_AT_TI_symbol_name("tpi")
     546                            .dwattr $C$DW$92, DW_AT_type(*$C$DW$T$28)
     547                            .dwattr $C$DW$92, DW_AT_location[DW_OP_reg15]
     548                    $C$DW$93        .dwtag  DW_TAG_variable, DW_AT_name("prm")
     549                            .dwattr $C$DW$93, DW_AT_TI_symbol_name("prm")
     550                            .dwattr $C$DW$93, DW_AT_type(*$C$DW$T$43)
TMS320C6x Assembler PC v7.4.2 Thu Mar 19 12:42:11 2015

Tools Copyright (c) 1996-2012 Texas Instruments Incorporated
package/lib/Regression/regress_d_c/./../packages/ti/vlib/src/VLIB_imagePyramid8/VLIB_imagePyramid8_d.se66 PAGE   11

     551                            .dwattr $C$DW$93, DW_AT_location[DW_OP_breg31 28]
     552                    $C$DW$94        .dwtag  DW_TAG_variable, DW_AT_name("status_nat_vs_int")
     553                            .dwattr $C$DW$94, DW_AT_TI_symbol_name("status_nat_vs_int")
     554                            .dwattr $C$DW$94, DW_AT_type(*$C$DW$T$28)
     555                            .dwattr $C$DW$94, DW_AT_location[DW_OP_reg10]
     556                    $C$DW$95        .dwtag  DW_TAG_variable, DW_AT_name("status_nat_vs_ref")
     557                            .dwattr $C$DW$95, DW_AT_TI_symbol_name("status_nat_vs_ref")
     558                            .dwattr $C$DW$95, DW_AT_type(*$C$DW$T$28)
     559                            .dwattr $C$DW$95, DW_AT_location[DW_OP_reg29]
     560                    $C$DW$96        .dwtag  DW_TAG_variable, DW_AT_name("out_size")
     561                            .dwattr $C$DW$96, DW_AT_TI_symbol_name("out_size")
     562                            .dwattr $C$DW$96, DW_AT_type(*$C$DW$T$68)
     563                            .dwattr $C$DW$96, DW_AT_location[DW_OP_reg13]
     564                    $C$DW$97        .dwtag  DW_TAG_variable, DW_AT_name("pIn")
     565                            .dwattr $C$DW$97, DW_AT_TI_symbol_name("pIn")
     566                            .dwattr $C$DW$97, DW_AT_type(*$C$DW$T$20)
     567                            .dwattr $C$DW$97, DW_AT_location[DW_OP_breg31 32]
     568                    $C$DW$98        .dwtag  DW_TAG_variable, DW_AT_name("pOut")
     569                            .dwattr $C$DW$98, DW_AT_TI_symbol_name("pOut")
     570                            .dwattr $C$DW$98, DW_AT_type(*$C$DW$T$20)
     571                            .dwattr $C$DW$98, DW_AT_location[DW_OP_breg31 36]
     572                    $C$DW$99        .dwtag  DW_TAG_variable, DW_AT_name("pOut_cn")
     573                            .dwattr $C$DW$99, DW_AT_TI_symbol_name("pOut_cn")
     574                            .dwattr $C$DW$99, DW_AT_type(*$C$DW$T$20)
     575                            .dwattr $C$DW$99, DW_AT_location[DW_OP_breg31 40]
     576                    $C$DW$100       .dwtag  DW_TAG_variable, DW_AT_name("$O$v1")
     577                            .dwattr $C$DW$100, DW_AT_TI_symbol_name("$O$v1")
     578                            .dwattr $C$DW$100, DW_AT_type(*$C$DW$T$43)
     579                            .dwattr $C$DW$100, DW_AT_location[DW_OP_reg20]
     580                    $C$DW$101       .dwtag  DW_TAG_variable, DW_AT_name("$O$v2")
     581                            .dwattr $C$DW$101, DW_AT_TI_symbol_name("$O$v2")
     582                            .dwattr $C$DW$101, DW_AT_type(*$C$DW$T$151)
     583                            .dwattr $C$DW$101, DW_AT_location[DW_OP_reg20]
     584                    $C$DW$102       .dwtag  DW_TAG_variable, DW_AT_name("$O$v2")
     585                            .dwattr $C$DW$102, DW_AT_TI_symbol_name("$O$v2")
     586                            .dwattr $C$DW$102, DW_AT_type(*$C$DW$T$151)
     587                            .dwattr $C$DW$102, DW_AT_location[DW_OP_reg24]
     588 00000010 05000028!            MVKL    .S1     test_cases,A10
     589 00000014 05000068!            MVKH    .S1     test_cases,A10
     590                            .dwpsn  file "./../packages/ti/vlib/src/VLIB_imagePyramid8/VLIB_imagePyramid8_d.c",line 45,col
     591                    ;----------------------------------------------------------------------
     592                    ;  45 | imagePyramid8_getTestParams(&prm, &test_cases);                        
     593                    ;----------------------------------------------------------------------
     594 00000018     e636             ADDAW   .D1X    SP,7,A4           ; |45| 
     595                    $C$DW$103       .dwtag  DW_TAG_TI_branch
     596                            .dwattr $C$DW$103, DW_AT_low_pc(0x00)
     597                            .dwattr $C$DW$103, DW_AT_name("imagePyramid8_getTestParams")
     598                            .dwattr $C$DW$103, DW_AT_TI_call
     599                    
     600 00000020 10000012!            CALLP   .S2     imagePyramid8_getTestParams,B3
     601 0000001a     9507  ||         MV      .L2X    A10,B4            ; |45| 
     602                    
     603 00000024           $C$RL0:    ; CALL OCCURS {imagePyramid8_getTestParams} {0}  ; |45| 
     604                    ;** --------------------------------------------------------------------------*
     605                    ;          EXCLUSIVE CPU CYCLES: 8
TMS320C6x Assembler PC v7.4.2 Thu Mar 19 12:42:11 2015

Tools Copyright (c) 1996-2012 Texas Instruments Incorporated
package/lib/Regression/regress_d_c/./../packages/ti/vlib/src/VLIB_imagePyramid8/VLIB_imagePyramid8_d.se66 PAGE   12

     606 00000024 0200002a!            MVKL    .S2     $C$SL1+0,B4
     607 00000028 0200006a!            MVKH    .S2     $C$SL1+0,B4
     608                    $C$DW$104       .dwtag  DW_TAG_TI_branch
     609                            .dwattr $C$DW$104, DW_AT_low_pc(0x00)
     610                            .dwattr $C$DW$104, DW_AT_name("VLIB_profile_init")
     611                            .dwattr $C$DW$104, DW_AT_TI_call
     612                    
     613 0000002c 10000013!            CALLP   .S2     VLIB_profile_init,B3
     614 00000030 0208a359  ||         MVK     .L1     0x2,A4            ; |48| 
     615                    
     616                            .dwpsn  file "./../packages/ti/vlib/src/VLIB_imagePyramid8/VLIB_imagePyramid8_d.c",line 48,col
     617                    ;----------------------------------------------------------------------
     618                    ;  48 | VLIB_profile_init(2, "VLIB_imagePyramid8");                            
     619                    ;----------------------------------------------------------------------
     620 00000040           $C$RL1:    ; CALL OCCURS {VLIB_profile_init} {0}  ; |48| 
     621                    ;** --------------------------------------------------------------------------*
     622                    ;          EXCLUSIVE CPU CYCLES: 12
     623                    
     624 00000040 0200002b!            MVKL    .S2     desc,B4
     625 00000044 07000029! ||         MVKL    .S1     cycles,A14
     626 00000048 0780a359  ||         ZERO    .L1     A15               ; |51| 
     627 0000004c 0600a35b  ||         ZERO    .L2     B12               ; |51| 
     628 00000050 02280264  ||         LDW     .D1T1   *A10,A4           ; |51| 
     629                    
     630 00000054 05bce2e6             LDW     .D2T2   *+SP(28),B11
     631 00000058 0200006a!            MVKH    .S2     desc,B4
     632 0000005c 07000068!            MVKH    .S1     cycles,A14
     633 00000060     7646             MV      .L1X    B4,A11
     634                            .dwpsn  file "./../packages/ti/vlib/src/VLIB_imagePyramid8/VLIB_imagePyramid8_d.c",line 51,col
     635                    ;----------------------------------------------------------------------
     636                    ;  51 | for( tpi=0; tpi < test_cases; tpi++ ) {                                
     637                    ;  54 |     int32_t    status_nat_vs_int = vlib_KERNEL_PASS; /* Test status : N
     638                    ;     | atural c vs. Optimized */                                              
     639                    ;  55 |     int32_t    status_nat_vs_ref = vlib_KERNEL_PASS; /* Test status : N
     640                    ;     | atural c vs. Static Reference */                                       
     641                    ;  58 |     uint32_t    in_size  =   prm[tpi].inCols * prm[tpi].inRows;        
     642                    ;----------------------------------------------------------------------
     643 00000062     1226             CMPGT   .L1     A4,0,A0           ; |51| 
     644                    
     645 00000064 d1a06121     [!A0]   BNOP    .S1     $C$L5,3           ; |51| 
     646 00000068 c2acc286  || [ A0]   LDHU    .D2T2   *+B11(12),B5      ; |59| 
     647                    
     648                            .dwpsn  file "./../packages/ti/vlib/src/VLIB_imagePyramid8/VLIB_imagePyramid8_d.c",line 59,col
     649                    ;----------------------------------------------------------------------
     650                    ;  59 | uint32_t    out_size =   in_size / 4 + in_size / 16 + in_size / 64; //
     651                    ;     | same as in_size*21/64                                                  
     652                    ;----------------------------------------------------------------------
     653 0000006c c22ce286     [ A0]   LDHU    .D2T2   *+B11(14),B4      ; |59| 
     654                            .dwpsn  file "./../packages/ti/vlib/src/VLIB_imagePyramid8/VLIB_imagePyramid8_d.c",line 62,col
     655                    ;----------------------------------------------------------------------
     656                    ;  62 | uint8_t   *pIn          = (uint8_t *) VLIB_memalign(8, in_size);       
     657                    ;----------------------------------------------------------------------
     658 00000070 c220a358     [ A0]   MVK     .L1     0x8,A4            ; |62| 
     659                            .dwpsn  file "./../packages/ti/vlib/src/VLIB_imagePyramid8/VLIB_imagePyramid8_d.c",line 51,col
     660                               ; BRANCHCC OCCURS {$C$L5}         ; |51| 
TMS320C6x Assembler PC v7.4.2 Thu Mar 19 12:42:11 2015

Tools Copyright (c) 1996-2012 Texas Instruments Incorporated
package/lib/Regression/regress_d_c/./../packages/ti/vlib/src/VLIB_imagePyramid8/VLIB_imagePyramid8_d.se66 PAGE   13

     661                    ;** --------------------------------------------------------------------------*
     662                    ;**     -----------------------    K$38 = &testPatternString[0];
     663                    ;**     -----------------------    K$49 = &cycles[0];
     664                    ;**     -----------------------    K$72 = &desc[0];
     665                    ;**     -----------------------    U$12 = prm;
     666                    ;**     -----------------------    U$11 = 0;
     667                    ;** 51  -----------------------    tpi = 0;
     668                    ;**     -----------------------    #pragma LOOP_FLAGS(5120u)
     669                    ;*----------------------------------------------------------------------------*
     670                    ;*   SOFTWARE PIPELINE INFORMATION
     671                    ;*      Disqualified loop: Loop contains a call
     672                    ;*      Disqualified loop: Loop contains non-pipelinable instructions
     673                    ;*      Disqualified loop: Loop contains a call
     674                    ;*      Disqualified loop: Loop contains non-pipelinable instructions
     675                    ;*      Disqualified loop: Loop contains a call
     676                    ;*      Disqualified loop: Loop contains non-pipelinable instructions
     677                    ;*      Disqualified loop: Loop contains control code
     678                    ;*----------------------------------------------------------------------------*
     679 00000074           $C$L1:    
     680                            .dwpsn  file "./../packages/ti/vlib/src/VLIB_imagePyramid8/VLIB_imagePyramid8_d.c",line 51,col
     681 00000074           $C$DW$L$VLIB_imagePyramid8_d$5$B:
     682                    ;          EXCLUSIVE CPU CYCLES: 6
     683                    ;**     -----------------------g3:
     684                    ;** 59  -----------------------    C$5 = _mpyu((*U$12).inCols, (*U$12).inRows);
     685                    ;** 59  -----------------------    out_size = (C$5>>2)+(C$5>>4)+(C$5>>6);
     686                    ;** 62  -----------------------    pIn = VLIB_memalign(8u, C$5);
     687                    ;** 63  -----------------------    pOut = VLIB_memalign(8u, out_size);
     688                    ;** 64  -----------------------    pOut_cn = malloc(out_size);
     689                    ;** 67  -----------------------    if ( !((pIn != NULL)&(pOut != NULL)&(pOut_cn != NULL)) ) goto g8;
     690                            .dwpsn  file "./../packages/ti/vlib/src/VLIB_imagePyramid8/VLIB_imagePyramid8_d.c",line 62,col
     691                    $C$DW$105       .dwtag  DW_TAG_TI_branch
     692                            .dwattr $C$DW$105, DW_AT_low_pc(0x00)
     693                            .dwattr $C$DW$105, DW_AT_name("VLIB_memalign")
     694                            .dwattr $C$DW$105, DW_AT_TI_call
     695 00000074 00000010!            CALL    .S1     VLIB_memalign     ; |62| 
     696 00000078 018a2162             ADDKPC  .S2     $C$RL2,B3,1       ; |62| 
     697                            .dwpsn  file "./../packages/ti/vlib/src/VLIB_imagePyramid8/VLIB_imagePyramid8_d.c",line 59,col
     698 00000080 0510af82             MPYU    .M2     B5,B4,B10         ; |59| 
     699 00000084     0c6e             NOP             1
     700                            .dwpsn  file "./../packages/ti/vlib/src/VLIB_imagePyramid8/VLIB_imagePyramid8_d.c",line 62,col
     701 00000086     8507             MV      .L2     B10,B4            ; |62| 
     702 00000088           $C$RL2:    ; CALL OCCURS {VLIB_memalign} {0}  ; |62| 
     703 00000088           $C$DW$L$VLIB_imagePyramid8_d$5$E:
     704                    ;** --------------------------------------------------------------------------*
     705 00000088           $C$DW$L$VLIB_imagePyramid8_d$6$B:
     706                    ;          EXCLUSIVE CPU CYCLES: 16
     707                            .dwpsn  file "./../packages/ti/vlib/src/VLIB_imagePyramid8/VLIB_imagePyramid8_d.c",line 59,col
     708 00000088 022849a2             SHRU    .S2     B10,2,B4          ; |59| 
     709 0000008c 01a899a0             SHRU    .S1X    B10,4,A3          ; |59| 
     710                    
     711 00000094     7230             ADD     .L1X    A3,B4,A3          ; |59| 
     712 00000090 02a8c9a3  ||         SHRU    .S2     B10,6,B5          ; |59| 
     713                    
     714                            .dwpsn  file "./../packages/ti/vlib/src/VLIB_imagePyramid8/VLIB_imagePyramid8_d.c",line 62,col
     715 00000096     8d45             STW     .D2T1   A4,*+SP(32)       ; |62| 
TMS320C6x Assembler PC v7.4.2 Thu Mar 19 12:42:11 2015

Tools Copyright (c) 1996-2012 Texas Instruments Incorporated
package/lib/Regression/regress_d_c/./../packages/ti/vlib/src/VLIB_imagePyramid8/VLIB_imagePyramid8_d.se66 PAGE   14

     716                    $C$DW$106       .dwtag  DW_TAG_TI_branch
     717                            .dwattr $C$DW$106, DW_AT_low_pc(0x04)
     718                            .dwattr $C$DW$106, DW_AT_name("VLIB_memalign")
     719                            .dwattr $C$DW$106, DW_AT_TI_call
     720                    
     721 00000098     0e26             MVK     .L1     0x8,A4            ; |63| 
     722 000000a0 10000013! ||         CALLP   .S2     VLIB_memalign,B3
     723 0000009a     b1c1  ||         ADD     .L2X    B5,A3,B4          ; |59| 
     724 000000a4 069471e0  ||         ADD     .S1X    B5,A3,A13         ; |59| 
     725                    
     726                            .dwpsn  file "./../packages/ti/vlib/src/VLIB_imagePyramid8/VLIB_imagePyramid8_d.c",line 63,col
     727                    ;----------------------------------------------------------------------
     728                    ;  63 | uint8_t   *pOut         = (uint8_t *) VLIB_memalign(8, out_size * sizeo
     729                    ;     | f(uint8_t));                                                           
     730                    ;----------------------------------------------------------------------
     731                    $C$RL3:    ; CALL OCCURS {VLIB_memalign} {0}  ; |63| 
     732                    $C$DW$107       .dwtag  DW_TAG_TI_branch
     733                            .dwattr $C$DW$107, DW_AT_low_pc(0x00)
     734                            .dwattr $C$DW$107, DW_AT_name("malloc")
     735                            .dwattr $C$DW$107, DW_AT_TI_call
     736                    
     737 000000a8 10000013!            CALLP   .S2     malloc,B3
     738 000000ac     ad45  ||         STW     .D2T1   A4,*+SP(36)       ; |63| 
     739 000000ae     8686  ||         MV      .L1     A13,A4            ; |64| 
     740                    
     741                            .dwpsn  file "./../packages/ti/vlib/src/VLIB_imagePyramid8/VLIB_imagePyramid8_d.c",line 64,col
     742                    ;----------------------------------------------------------------------
     743                    ;  64 | uint8_t   *pOut_cn      = (uint8_t *) malloc(out_size * sizeof(uint8_t)
     744                    ;     | );                                                                     
     745                    ;----------------------------------------------------------------------
     746 000000b0           $C$RL4:    ; CALL OCCURS {malloc} {0}        ; |64| 
     747 000000b0           $C$DW$L$VLIB_imagePyramid8_d$6$E:
     748                    ;** --------------------------------------------------------------------------*
     749 000000b0           $C$DW$L$VLIB_imagePyramid8_d$7$B:
     750                    ;          EXCLUSIVE CPU CYCLES: 15
     751                    
     752 000000b0     06a7             ZERO    .L2     B5                ; |67| 
     753 000000b2     0213  ||         ZERO    .S2     B4                ; |67| 
     754 000000b4     2246  ||         MV      .L1     A4,A1             ; |67| 
     755 000000b6     ad0d  ||         LDW     .D2T1   *+SP(36),A0       ; |67| 
     756                    
     757                            .dwpsn  file "./../packages/ti/vlib/src/VLIB_imagePyramid8/VLIB_imagePyramid8_d.c",line 67,col
     758                    ;----------------------------------------------------------------------
     759                    ;  67 | if( pIn && pOut && pOut_cn ) {                                         
     760                    ;----------------------------------------------------------------------
     761 000000b8     8d2d             LDW     .D2T1   *+SP(32),A2       ; |67| 
     762 000000ba     05a6             ZERO    .L1     A3                ; |67| 
     763 000000c0 8204a35a     [ A1]   MVK     .L2     0x1,B4            ; |67| 
     764                            .dwpsn  file "./../packages/ti/vlib/src/VLIB_imagePyramid8/VLIB_imagePyramid8_d.c",line 64,col
     765 000000c4     cd45             STW     .D2T1   A4,*+SP(40)       ; |64| 
     766                            .dwpsn  file "./../packages/ti/vlib/src/VLIB_imagePyramid8/VLIB_imagePyramid8_d.c",line 67,col
     767                    ;----------------------------------------------------------------------
     768                    ;  69 | int32_t    fail;                                                       
     769                    ;----------------------------------------------------------------------
     770 000000c6     29e6     [ A0]   MVK     .L1     0x1,A3            ; |67| 
TMS320C6x Assembler PC v7.4.2 Thu Mar 19 12:42:11 2015

Tools Copyright (c) 1996-2012 Texas Instruments Incorporated
package/lib/Regression/regress_d_c/./../packages/ti/vlib/src/VLIB_imagePyramid8/VLIB_imagePyramid8_d.se66 PAGE   15

     771 000000c8 a284a35a     [ A2]   MVK     .L2     0x1,B5            ; |67| 
     772 000000cc 028cbf7a             AND     .L2X    A3,B5,B5          ; |67| 
     773 000000d0     8689             AND     .L2     B4,B5,B0          ; |67| 
     774                    
     775 000000e0 30004812     [!B0]   B       .S2     $C$L3             ; |67| 
     776 000000d4 242cc285  || [ B0]   LDHU    .D2T1   *+B11(12),A8      ; |72| 
     777 000000d8 26000029! || [ B0]   MVKL    .S1     testPatternString,A12
     778 000000d2     aa67  || [ B0]   MVK     .L2     0x1,B4            ; |72| 
     779                    
     780                            .dwpsn  file "./../packages/ti/vlib/src/VLIB_imagePyramid8/VLIB_imagePyramid8_d.c",line 72,col
     781                    ;----------------------------------------------------------------------
     782                    ;  72 | VLIB_fillBuffer(prm[tpi].testPattern,                                  
     783                    ;  73 |                 (uint8_t)1,                                            
     784                    ;  74 |                 pIn, prm[tpi].staticIn,                                
     785                    ;  75 |                 prm[tpi].inCols, prm[tpi].inRows, prm[tpi].inCols,     
     786                    ;  76 |                 sizeof(uint8_t), testPatternString);                   
     787                    ;  79 | VLIB_profile_start(vlib_KERNEL_OPT);                                   
     788                    ;  80 | VLIB_imagePyramid8(pIn, prm[tpi].inCols, prm[tpi].inRows, pOut);       
     789                    ;  81 | VLIB_profile_stop();                                                   
     790                    ;  84 | VLIB_profile_start(vlib_KERNEL_CN);                                    
     791                    ;  85 | VLIB_imagePyramid8_cn(pIn, prm[tpi].inCols, prm[tpi].inRows, pOut_cn); 
     792                    ;  86 | VLIB_profile_stop();                                                   
     793                    ;  89 | status_nat_vs_int = VLIB_compare_mem((void *) pOut, (void *)pOut_cn, ou
     794                    ;     | t_size * sizeof(uint8_t));                                             
     795                    ;  92 | if( prm[tpi].staticOut != NULL ) {                                     
     796                    ;  93 |     status_nat_vs_ref = VLIB_compare_mem((void *) prm[tpi].staticOut, (
     797                    ;     | void *)pOut_cn, out_size * sizeof(uint8_t));                           
     798                    ;  96 | #if 0                                                                  
     799                    ;  98 |     int    i;                                                          
     800                    ; 100 |     for( i=0; i < out_size; i++ ) {                                    
     801                    ; 101 |         printf("%d, ", pOut[i]);                                       
     802                    ; 104 | #endif                                                                 
     803                    ; 106 | fail = ((status_nat_vs_int == vlib_KERNEL_FAIL) || (status_nat_vs_ref =
     804                    ;     | = vlib_KERNEL_FAIL)) ? 1 : 0;                                          
     805                    ; 108 | est_test=1;                                                            
     806                    ; 111 | sprintf(desc, "%s generated input | Opt results compared to NatC result
     807                    ;     | s | inCols=%d, inRows=%d, num_output_pt=%d",                           
     808                    ; 112 |         testPatternString, prm[tpi].inCols, prm[tpi].inRows, out_size);
     809                    ; 113 | VLIB_formula_add_test(out_size, NULL, NULL, fail, desc, NULL);         
     810                    ; 115 | } else {                                                               
     811                    ;----------------------------------------------------------------------
     812 000000e4 232c22e6     [ B0]   LDW     .D2T2   *+B11(4),B6       ; |72| 
     813 000000e8 242ce286     [ B0]   LDHU    .D2T2   *+B11(14),B8      ; |72| 
     814                    $C$DW$108       .dwtag  DW_TAG_TI_branch
     815                            .dwattr $C$DW$108, DW_AT_low_pc(0x00)
     816                            .dwattr $C$DW$108, DW_AT_name("VLIB_fillBuffer")
     817                            .dwattr $C$DW$108, DW_AT_TI_call
     818                    
     819 000000ec 20000011!    [ B0]   CALL    .S1     VLIB_fillBuffer   ; |72| 
     820 000000f0 233d02e4  || [ B0]   LDW     .D2T1   *+SP(32),A6       ; |72| 
     821                    
     822 000000f4 222c0294     [ B0]   LDBU    .D2T1   *B11,A4           ; |72| 
     823                            .dwpsn  file "./../packages/ti/vlib/src/VLIB_imagePyramid8/VLIB_imagePyramid8_d.c",line 117,co
     824                    ;----------------------------------------------------------------------
     825                    ; 117 | sprintf(desc, "inCols=%d, inRows=%d, num_output_pt=%d",                
TMS320C6x Assembler PC v7.4.2 Thu Mar 19 12:42:11 2015

Tools Copyright (c) 1996-2012 Texas Instruments Incorporated
package/lib/Regression/regress_d_c/./../packages/ti/vlib/src/VLIB_imagePyramid8/VLIB_imagePyramid8_d.se66 PAGE   16

     826                    ; 118 |         prm[tpi].inCols, prm[tpi].inRows, out_size);                   
     827                    ; 119 | VLIB_skip_test(desc);                                                  
     828                    ; 123 | free(pOut_cn);                                                         
     829                    ; 124 | VLIB_align_free(pOut);                                                 
     830                    ; 125 | VLIB_align_free(pIn);                                                  
     831                    ; 129 | VLIB_profile_cycle_report(vlib_PROFILE_FORMULA_RANGE,                  
     832                    ; 130 |                   "N = inCols * inRows * 21 / 64",                     
     833                    ; 131 |                   "inCols * inRows * 21 / 64");                        
     834                    ; 134 | VLIB_kernel_memory();                                                  
     835                    ; 138 | #ifndef __ONESHOTTEST                                                  
     836                    ;----------------------------------------------------------------------
     837 000000f8 322cc286     [!B0]   LDHU    .D2T2   *+B11(12),B4      ; |117| 
     838                            .dwpsn  file "./../packages/ti/vlib/src/VLIB_imagePyramid8/VLIB_imagePyramid8_d.c",line 67,col
     839                               ; BRANCHCC OCCURS {$C$L3}         ; |67| 
     840 000000fc           $C$DW$L$VLIB_imagePyramid8_d$7$E:
     841                    ;** --------------------------------------------------------------------------*
     842 000000fc           $C$DW$L$VLIB_imagePyramid8_d$8$B:
     843                    ;          EXCLUSIVE CPU CYCLES: 3
     844                    ;** 72  -----------------------    C$4 = (*U$12).inCols;
     845                    ;** 72  -----------------------    VLIB_fillBuffer((*U$12).testPattern, 1u, (void *)pIn, (*U$12).stati
     846                    ;** 137 -----------------------    act_kernel = 0;  // [14]
     847                    ;** 140 -----------------------    VLIB_cache_inval();  // [14]
     848                    ;** 143 -----------------------    initStack(getSP());  // [14]
     849                    ;** 146 -----------------------    beg_count = _itoll(TSCH, TSCL);  // [14]
     850                    ;** 80  -----------------------    VLIB_imagePyramid8(pIn, (*U$12).inCols, (*U$12).inRows, pOut);
     851                    ;** 153 -----------------------    v$2 = _itoll(TSCH, TSCL);  // [15]
     852                    ;** 153 -----------------------    end_count = v$2;  // [15]
     853                    ;** 156 -----------------------    C$3 = act_kernel;  // [15]
     854                    ;** 156 -----------------------    *((C$3<<3)+K$49) = *((C$3<<3)+K$49)+(v$2-(beg_count+overhead));  //
     855                    ;** 159 -----------------------    setStackDepth();  // [15]
     856                    ;** 137 -----------------------    act_kernel = 1;  // [14]
     857                    ;** 140 -----------------------    VLIB_cache_inval();  // [14]
     858                    ;** 143 -----------------------    initStack(getSP());  // [14]
     859                    ;** 146 -----------------------    beg_count = _itoll(TSCH, TSCL);  // [14]
     860                    ;** 85  -----------------------    VLIB_imagePyramid8_cn(pIn, (*U$12).inCols, (*U$12).inRows, pOut_cn)
     861                    ;** 153 -----------------------    v$2 = _itoll(TSCH, TSCL);  // [15]
     862                    ;** 153 -----------------------    end_count = v$2;  // [15]
     863                    ;** 156 -----------------------    C$2 = act_kernel;  // [15]
     864                    ;** 156 -----------------------    *((C$2<<3)+K$49) = *((C$2<<3)+K$49)+(v$2-(beg_count+overhead));  //
     865                    ;** 159 -----------------------    setStackDepth();  // [15]
     866                            .dwpsn  file "./../packages/ti/vlib/src/VLIB_imagePyramid8/VLIB_imagePyramid8_d.c",line 72,col
     867 000000fc 05200fd8             MV      .L1     A8,A10            ; |72| 
     868 00000100 05100fda             MV      .L2     B4,B10            ; |72| 
     869                    
     870 00000104 06000069!            MVKH    .S1     testPatternString,A12
     871 00000108 01830162  ||         ADDKPC  .S2     $C$RL5,B3,0       ; |72| 
     872                    
     873 0000010c           $C$RL5:    ; CALL OCCURS {VLIB_fillBuffer} {0}  ; |72| 
     874 0000010c           $C$DW$L$VLIB_imagePyramid8_d$8$E:
     875                    ;** --------------------------------------------------------------------------*
     876 0000010c           $C$DW$L$VLIB_imagePyramid8_d$9$B:
     877                    ;          EXCLUSIVE CPU CYCLES: 111
     878 0000010c 02000028!            MVKL    .S1     act_kernel,A4
     879                    
     880 00000110 02000069!            MVKH    .S1     act_kernel,A4
TMS320C6x Assembler PC v7.4.2 Thu Mar 19 12:42:11 2015

Tools Copyright (c) 1996-2012 Texas Instruments Incorporated
package/lib/Regression/regress_d_c/./../packages/ti/vlib/src/VLIB_imagePyramid8/VLIB_imagePyramid8_d.se66 PAGE   17

     881 00000114     05a6  ||         ZERO    .L1     A3                ; |137| 
     882                    
     883                    $C$DW$109       .dwtag  DW_TAG_TI_branch
     884                            .dwattr $C$DW$109, DW_AT_low_pc(0x00)
     885                            .dwattr $C$DW$109, DW_AT_name("VLIB_cache_inval")
     886                            .dwattr $C$DW$109, DW_AT_TI_call
     887                    
     888 00000118 10000012!            CALLP   .S2     VLIB_cache_inval,B3
     889 00000116     0034  ||         STW     .D1T1   A3,*A4            ; |137| 
     890                    
     891                            .dwpsn  file ".\..\packages\ti\vlib\src\VLIB_imagePyramid8\..\common\VLIB_profile.h",line 140,
     892                    ;----------------------------------------------------------------------
     893                    ; 140 | main() {                                                               
     894                    ; 141 | if( VLIB_cache_init()) {                                               
     895                    ; 142 |     VLIB_memError("VLIB_imagePyramid8");                               
     896                    ;----------------------------------------------------------------------
     897                    $C$RL6:    ; CALL OCCURS {VLIB_cache_inval} {0}  ; |140| 
     898                    $C$DW$110       .dwtag  DW_TAG_TI_branch
     899                            .dwattr $C$DW$110, DW_AT_low_pc(0x00)
     900                            .dwattr $C$DW$110, DW_AT_name("getSP")
     901                            .dwattr $C$DW$110, DW_AT_TI_call
     902 00000120 10000012!            CALLP   .S2     getSP,B3
     903                            .dwpsn  file ".\..\packages\ti\vlib\src\VLIB_imagePyramid8\..\common\VLIB_profile.h",line 143,
     904                    ;----------------------------------------------------------------------
     905                    ; 143 | } else {                                                               
     906                    ; 144 |     VLIB_imagePyramid8_d(0);                                           
     907                    ;----------------------------------------------------------------------
     908                    $C$RL7:    ; CALL OCCURS {getSP} {0}         ; |143| 
     909                    $C$DW$111       .dwtag  DW_TAG_TI_branch
     910                            .dwattr $C$DW$111, DW_AT_low_pc(0x00)
     911                            .dwattr $C$DW$111, DW_AT_name("initStack")
     912                            .dwattr $C$DW$111, DW_AT_TI_call
     913 00000124 10000012!            CALLP   .S2     initStack,B3
     914 00000128           $C$RL8:    ; CALL OCCURS {initStack} {0}     ; |143| 
     915                            .dwpsn  file ".\..\packages\ti\vlib\src\VLIB_imagePyramid8\..\common\VLIB_profile.h",line 146,
     916                    ;----------------------------------------------------------------------
     917                    ; 147 | #endif /* __ONESHOTTEST */                                             
     918                    ;----------------------------------------------------------------------
     919 00000128 032803e2             MVC     .S2     TSCL,B6           ; |146| 
     920 0000012c 03ac03e2             MVC     .S2     TSCH,B7           ; |146| 
     921                    
     922 00000130 01800029!            MVKL    .S1     beg_count,A3
     923 00000134 023d02e4  ||         LDW     .D2T1   *+SP(32),A4       ; |80| 
     924                    
     925 00000138 01800069!            MVKH    .S1     beg_count,A3
     926 0000013c 022cc286  ||         LDHU    .D2T2   *+B11(12),B4      ; |80| 
     927                    
     928 00000140 030c0347             STDW    .D1T2   B7:B6,*A3         ; |146| 
     929 00000144 032ce284  ||         LDHU    .D2T1   *+B11(14),A6      ; |80| 
     930                    
     931                    $C$DW$112       .dwtag  DW_TAG_TI_branch
     932                            .dwattr $C$DW$112, DW_AT_low_pc(0x00)
     933                            .dwattr $C$DW$112, DW_AT_name("VLIB_imagePyramid8")
     934                            .dwattr $C$DW$112, DW_AT_TI_call
     935                    
TMS320C6x Assembler PC v7.4.2 Thu Mar 19 12:42:11 2015

Tools Copyright (c) 1996-2012 Texas Instruments Incorporated
package/lib/Regression/regress_d_c/./../packages/ti/vlib/src/VLIB_imagePyramid8/VLIB_imagePyramid8_d.se66 PAGE   18

     936 00000148 10000013!            CALLP   .S2     VLIB_imagePyramid8,B3
     937 0000014c 033d22e6  ||         LDW     .D2T2   *+SP(36),B6       ; |80| 
     938                    
     939                            .dwpsn  file "./../packages/ti/vlib/src/VLIB_imagePyramid8/VLIB_imagePyramid8_d.c",line 80,col
     940 00000150           $C$RL9:    ; CALL OCCURS {VLIB_imagePyramid8} {0}  ; |80| 
     941                            .dwpsn  file ".\..\packages\ti\vlib\src\VLIB_imagePyramid8\..\common\VLIB_profile.h",line 153,
     942                    ;----------------------------------------------------------------------
     943                    ; 153 |                                                                        
     944                    ;----------------------------------------------------------------------
     945 00000150 022803e2             MVC     .S2     TSCL,B4           ; |153| 
     946 00000154 02ac03e2             MVC     .S2     TSCH,B5           ; |153| 
     947 00000158 01800028!            MVKL    .S1     act_kernel,A3
     948 0000015c 02000028!            MVKL    .S1     beg_count,A4
     949                    
     950 00000160 01800069!            MVKH    .S1     act_kernel,A3
     951 00000164 0300002a! ||         MVKL    .S2     overhead,B6
     952                    
     953 00000168 018c0265             LDW     .D1T1   *A3,A3            ; |156| 
     954 0000016c 0300006b! ||         MVKH    .S2     overhead,B6
     955 00000170 02000068! ||         MVKH    .S1     beg_count,A4
     956                    
     957 00000178     004c             LDDW    .D1T1   *A4,A5:A4         ; |156| 
     958 00000174 041803e7  ||         LDDW    .D2T2   *B6,B9:B8         ; |156| 
     959                    
     960 0000017a     4c6e             NOP             3
     961                            .dwpsn  file ".\..\packages\ti\vlib\src\VLIB_imagePyramid8\..\common\VLIB_profile.h",line 156,
     962 00000180 03386b64             LDDW    .D1T1   *+A14[A3],A7:A6   ; |156| 
     963 00000184 0311157a             ADDU    .L2X    B8,A4,B7:B6       ; |156| 
     964                    
     965 00000188 0324e1e3             ADD     .S2     B7,B9,B6          ; |156| 
     966 0000018c 041885fa  ||         SUBU    .L2     B4,B6,B9:B8       ; |156| 
     967                    
     968 00000190     d2e1             ADD     .L2X    B6,A5,B6          ; |156| 
     969                    
     970 00000194 04201fd9             MV      .L1X    B8,A8             ; |156| 
     971 00000192     ab61  ||         SUB     .L2     B5,B6,B6          ; |156| 
     972 00000198 03a7184a  ||         EXT     .S2     B9,24,24,B7       ; |156| 
     973                    
     974 000001a0 0420c579             ADDU    .L1     A6,A8,A9:A8       ; |156| 
     975 000001a4 031cc07b  ||         ADD     .L2     B6,B7,B6          ; |156| 
     976 000001a8 02000028! ||         MVKL    .S1     end_count,A4
     977                    
     978 000001ac 029d2079             ADD     .L1     A9,A7,A5          ; |156| 
     979 000001b0 02000068! ||         MVKH    .S1     end_count,A4
     980                    
     981 000001b4 0498b079             ADD     .L1X    A5,B6,A9          ; |156| 
     982 000001b8 02100346  ||         STDW    .D1T2   B5:B4,*A4         ; |153| 
     983                    
     984                    $C$DW$113       .dwtag  DW_TAG_TI_branch
     985                            .dwattr $C$DW$113, DW_AT_low_pc(0x00)
     986                            .dwattr $C$DW$113, DW_AT_name("setStackDepth")
     987                            .dwattr $C$DW$113, DW_AT_TI_call
     988                    
     989 000001bc 10000013!            CALLP   .S2     setStackDepth,B3
     990 000001c0 04386b44  ||         STDW    .D1T1   A9:A8,*+A14[A3]   ; |156| 
TMS320C6x Assembler PC v7.4.2 Thu Mar 19 12:42:11 2015

Tools Copyright (c) 1996-2012 Texas Instruments Incorporated
package/lib/Regression/regress_d_c/./../packages/ti/vlib/src/VLIB_imagePyramid8/VLIB_imagePyramid8_d.se66 PAGE   19

     991                    
     992                            .dwpsn  file ".\..\packages\ti\vlib\src\VLIB_imagePyramid8\..\common\VLIB_profile.h",line 159,
     993 000001c4           $C$RL10:   ; CALL OCCURS {setStackDepth} {0}  ; |159| 
     994 000001c4 02000028!            MVKL    .S1     act_kernel,A4
     995                    
     996 000001c8 02000069!            MVKH    .S1     act_kernel,A4
     997 000001cc     25a6  ||         MVK     .L1     1,A3              ; |137| 
     998                    
     999                    $C$DW$114       .dwtag  DW_TAG_TI_branch
    1000                            .dwattr $C$DW$114, DW_AT_low_pc(0x00)
    1001                            .dwattr $C$DW$114, DW_AT_name("VLIB_cache_inval")
    1002                            .dwattr $C$DW$114, DW_AT_TI_call
    1003                    
    1004 000001d0 10000012!            CALLP   .S2     VLIB_cache_inval,B3
    1005 000001ce     0034  ||         STW     .D1T1   A3,*A4            ; |137| 
    1006                    
    1007                            .dwpsn  file ".\..\packages\ti\vlib\src\VLIB_imagePyramid8\..\common\VLIB_profile.h",line 140,
    1008                    $C$RL11:   ; CALL OCCURS {VLIB_cache_inval} {0}  ; |140| 
    1009                    $C$DW$115       .dwtag  DW_TAG_TI_branch
    1010                            .dwattr $C$DW$115, DW_AT_low_pc(0x00)
    1011                            .dwattr $C$DW$115, DW_AT_name("getSP")
    1012                            .dwattr $C$DW$115, DW_AT_TI_call
    1013 000001d4 10000012!            CALLP   .S2     getSP,B3
    1014                            .dwpsn  file ".\..\packages\ti\vlib\src\VLIB_imagePyramid8\..\common\VLIB_profile.h",line 143,
    1015                    $C$RL12:   ; CALL OCCURS {getSP} {0}         ; |143| 
    1016                    $C$DW$116       .dwtag  DW_TAG_TI_branch
    1017                            .dwattr $C$DW$116, DW_AT_low_pc(0x00)
    1018                            .dwattr $C$DW$116, DW_AT_name("initStack")
    1019                            .dwattr $C$DW$116, DW_AT_TI_call
    1020 000001d8 10000012!            CALLP   .S2     initStack,B3
    1021 000001e0           $C$RL13:   ; CALL OCCURS {initStack} {0}     ; |143| 
    1022                            .dwpsn  file ".\..\packages\ti\vlib\src\VLIB_imagePyramid8\..\common\VLIB_profile.h",line 146,
    1023 000001e0 032803e2             MVC     .S2     TSCL,B6           ; |146| 
    1024 000001e4 022c03e2             MVC     .S2     TSCH,B4           ; |146| 
    1025 000001e8 01800028!            MVKL    .S1     beg_count,A3
    1026                    
    1027 000001ec 01800069!            MVKH    .S1     beg_count,A3
    1028 000001f0     e247  ||         MV      .L2     B4,B7             ; |146| 
    1029 000001f2     8d4d  ||         LDW     .D2T1   *+SP(32),A4       ; |85| 
    1030                    
    1031 000001f4 030c0347             STDW    .D1T2   B7:B6,*A3         ; |146| 
    1032 000001f8 032ce284  ||         LDHU    .D2T1   *+B11(14),A6      ; |85| 
    1033                    
    1034                            .dwpsn  file "./../packages/ti/vlib/src/VLIB_imagePyramid8/VLIB_imagePyramid8_d.c",line 85,col
    1035 00000200 022cc286             LDHU    .D2T2   *+B11(12),B4      ; |85| 
    1036                    $C$DW$117       .dwtag  DW_TAG_TI_branch
    1037                            .dwattr $C$DW$117, DW_AT_low_pc(0x00)
    1038                            .dwattr $C$DW$117, DW_AT_name("VLIB_imagePyramid8_cn")
    1039                            .dwattr $C$DW$117, DW_AT_TI_call
    1040                    
    1041 00000204 10000013!            CALLP   .S2     VLIB_imagePyramid8_cn,B3
    1042 00000208 033d42e6  ||         LDW     .D2T2   *+SP(40),B6       ; |85| 
    1043                    
    1044 0000020c           $C$RL14:   ; CALL OCCURS {VLIB_imagePyramid8_cn} {0}  ; |85| 
    1045                            .dwpsn  file ".\..\packages\ti\vlib\src\VLIB_imagePyramid8\..\common\VLIB_profile.h",line 153,
TMS320C6x Assembler PC v7.4.2 Thu Mar 19 12:42:11 2015

Tools Copyright (c) 1996-2012 Texas Instruments Incorporated
package/lib/Regression/regress_d_c/./../packages/ti/vlib/src/VLIB_imagePyramid8/VLIB_imagePyramid8_d.se66 PAGE   20

    1046 0000020c 042803e2             MVC     .S2     TSCL,B8           ; |153| 
    1047 00000210 04ac03e2             MVC     .S2     TSCH,B9           ; |153| 
    1048 00000214 0200002a!            MVKL    .S2     overhead,B4
    1049                    
    1050 00000218 01800029!            MVKL    .S1     act_kernel,A3
    1051 0000021c 0280002a! ||         MVKL    .S2     beg_count,B5
    1052                    
    1053 00000220 01800069!            MVKH    .S1     act_kernel,A3
    1054 00000224 0280006a! ||         MVKH    .S2     beg_count,B5
    1055                    
    1056 00000228 018c0265             LDW     .D1T1   *A3,A3            ; |156| 
    1057 0000022c 0200006b! ||         MVKH    .S2     overhead,B4
    1058 00000230 031403e6  ||         LDDW    .D2T2   *B5,B7:B6         ; |156| 
    1059                    
    1060                            .dwpsn  file ".\..\packages\ti\vlib\src\VLIB_imagePyramid8\..\common\VLIB_profile.h",line 156,
    1061                    ;----------------------------------------------------------------------
    1062                    ; 154 |                                                                        
    1063                    ; 155 |                                                                        
    1064                    ; 156 |                                                                        
    1065                    ;----------------------------------------------------------------------
    1066 00000234 081003e6             LDDW    .D2T2   *B4,B17:B16       ; |156| 
    1067 00000238 04000028!            MVKL    .S1     end_count,A8
    1068 0000023c 04000068!            MVKH    .S1     end_count,A8
    1069                            .dwpsn  file ".\..\packages\ti\vlib\src\VLIB_imagePyramid8\..\common\VLIB_profile.h",line 153,
    1070 00000240 04200346             STDW    .D1T2   B9:B8,*A8         ; |153| 
    1071                            .dwpsn  file ".\..\packages\ti\vlib\src\VLIB_imagePyramid8\..\common\VLIB_profile.h",line 156,
    1072 00000244 03386b64             LDDW    .D1T1   *+A14[A3],A7:A6   ; |156| 
    1073 00000248 021a057a             ADDU    .L2     B16,B6,B5:B4      ; |156| 
    1074 0000024c 0344a07a             ADD     .L2     B5,B17,B6         ; |156| 
    1075                    
    1076 00000254     c3eb             ADD     .S2     B6,B7,B6          ; |156| 
    1077 00000250 021105fb  ||         SUBU    .L2     B8,B4,B5:B4       ; |156| 
    1078                    
    1079 00000258 0f9920fa             SUB     .L2     B9,B6,B31         ; |156| 
    1080 00000256     aae3  ||         EXT     .S2     B5,24,24,B5       ; |156| 
    1081                    
    1082 00000260 0210d579             ADDU    .L1X    A6,B4,A5:A4       ; |156| 
    1083 00000264 0217e07a  ||         ADD     .L2     B31,B5,B4         ; |156| 
    1084                    
    1085 00000268     a3d0             ADD     .L1     A5,A7,A5          ; |156| 
    1086 0000026a     b250             ADD     .L1X    A5,B4,A5          ; |156| 
    1087                    $C$DW$118       .dwtag  DW_TAG_TI_branch
    1088                            .dwattr $C$DW$118, DW_AT_low_pc(0x00)
    1089                            .dwattr $C$DW$118, DW_AT_name("setStackDepth")
    1090                            .dwattr $C$DW$118, DW_AT_TI_call
    1091                    
    1092 0000026c 10000013!            CALLP   .S2     setStackDepth,B3
    1093 00000270 02386b44  ||         STDW    .D1T1   A5:A4,*+A14[A3]   ; |156| 
    1094                    
    1095                            .dwpsn  file ".\..\packages\ti\vlib\src\VLIB_imagePyramid8\..\common\VLIB_profile.h",line 159,
    1096 00000274           $C$RL15:   ; CALL OCCURS {setStackDepth} {0}  ; |159| 
    1097 00000274           $C$DW$L$VLIB_imagePyramid8_d$9$E:
    1098                    ;** --------------------------------------------------------------------------*
    1099 00000274           $C$DW$L$VLIB_imagePyramid8_d$10$B:
    1100                    ;          EXCLUSIVE CPU CYCLES: 7
TMS320C6x Assembler PC v7.4.2 Thu Mar 19 12:42:11 2015

Tools Copyright (c) 1996-2012 Texas Instruments Incorporated
package/lib/Regression/regress_d_c/./../packages/ti/vlib/src/VLIB_imagePyramid8/VLIB_imagePyramid8_d.se66 PAGE   21

    1101                    ;** 89  -----------------------    U$56 = out_size;
    1102                    ;** 89  -----------------------    status_nat_vs_int = VLIB_compare_mem((void *)pOut, (void *)pOut_cn,
    1103                    ;** 92  -----------------------    v$1 = prm;
    1104                    ;** 92  -----------------------    U$59 = (*U$12).staticOut;
    1105                    ;** 92  -----------------------    if ( U$59 ) goto g6;
    1106                    ;** 55  -----------------------    status_nat_vs_ref = 1;
    1107                    ;**     -----------------------    goto g7;
    1108                            .dwpsn  file "./../packages/ti/vlib/src/VLIB_imagePyramid8/VLIB_imagePyramid8_d.c",line 89,col
    1109 00000274     ad4d             LDW     .D2T1   *+SP(36),A4       ; |89| 
    1110                    $C$DW$119       .dwtag  DW_TAG_TI_branch
    1111                            .dwattr $C$DW$119, DW_AT_low_pc(0x00)
    1112                            .dwattr $C$DW$119, DW_AT_name("VLIB_compare_mem")
    1113                            .dwattr $C$DW$119, DW_AT_TI_call
    1114                    
    1115 00000278 10000013!            CALLP   .S2     VLIB_compare_mem,B3
    1116 00000276     dd4d  ||         LDW     .D2T2   *+SP(40),B4       ; |89| 
    1117 00000280 03340fd8  ||         MV      .L1     A13,A6            ; |89| 
    1118                    
    1119 00000284           $C$RL16:   ; CALL OCCURS {VLIB_compare_mem} {0}  ; |89| 
    1120 00000284           $C$DW$L$VLIB_imagePyramid8_d$10$E:
    1121                    ;** --------------------------------------------------------------------------*
    1122 00000284           $C$DW$L$VLIB_imagePyramid8_d$11$B:
    1123                    ;          EXCLUSIVE CPU CYCLES: 11
    1124                            .dwpsn  file "./../packages/ti/vlib/src/VLIB_imagePyramid8/VLIB_imagePyramid8_d.c",line 92,col
    1125 00000284 002c42e6             LDW     .D2T2   *+B11(8),B0       ; |92| 
    1126 00000288     fccd             LDW     .D2T2   *+SP(28),B4       ; |92| 
    1127                            .dwpsn  file "./../packages/ti/vlib/src/VLIB_imagePyramid8/VLIB_imagePyramid8_d.c",line 89,col
    1128 0000028a     4646             MV      .L1     A4,A10            ; |89| 
    1129 0000028c 00002000             NOP             2
    1130 00000290 30000710     [!B0]   B       .S1     $C$L2
    1131                            .dwpsn  file "./../packages/ti/vlib/src/VLIB_imagePyramid8/VLIB_imagePyramid8_d.c",line 93,col
    1132                    $C$DW$120       .dwtag  DW_TAG_TI_branch
    1133                            .dwattr $C$DW$120, DW_AT_low_pc(0x00)
    1134                            .dwattr $C$DW$120, DW_AT_name("VLIB_compare_mem")
    1135                            .dwattr $C$DW$120, DW_AT_TI_call
    1136 00000294 20000010!    [ B0]   CALL    .S1     VLIB_compare_mem  ; |93| 
    1137 00000298 223d42e6     [ B0]   LDW     .D2T2   *+SP(40),B4       ; |93| 
    1138                            .dwpsn  file "./../packages/ti/vlib/src/VLIB_imagePyramid8/VLIB_imagePyramid8_d.c",line 92,col
    1139 000002a0 36a80fda     [!B0]   MV      .L2     B10,B13           ; |92| 
    1140 000002a4     2c6e             NOP             2
    1141                               ; BRANCHCC OCCURS {$C$L2}  
    1142 000002a6           $C$DW$L$VLIB_imagePyramid8_d$11$E:
    1143                    ;** --------------------------------------------------------------------------*
    1144 000002a6           $C$DW$L$VLIB_imagePyramid8_d$12$B:
    1145                    ;          EXCLUSIVE CPU CYCLES: 1
    1146                    ;**     -----------------------g6:
    1147                    ;** 93  -----------------------    status_nat_vs_ref = VLIB_compare_mem((void *)U$59, (void *)pOut_cn,
    1148                    ;** 93  -----------------------    v$1 = prm;
    1149                    
    1150 000002a6     c686             MV      .L1     A13,A6            ; |93| 
    1151 000002ac 020016a0  ||         MV      .S1X    B0,A4             ; |93| 
    1152 000002a8 01840163  ||         ADDKPC  .S2     $C$RL17,B3,0      ; |93| 
    1153                    
    1154                            .dwpsn  file "./../packages/ti/vlib/src/VLIB_imagePyramid8/VLIB_imagePyramid8_d.c",line 93,col
    1155 000002b0           $C$RL17:   ; CALL OCCURS {VLIB_compare_mem} {0}  ; |93| 
TMS320C6x Assembler PC v7.4.2 Thu Mar 19 12:42:11 2015

Tools Copyright (c) 1996-2012 Texas Instruments Incorporated
package/lib/Regression/regress_d_c/./../packages/ti/vlib/src/VLIB_imagePyramid8/VLIB_imagePyramid8_d.se66 PAGE   22

    1156 000002b0           $C$DW$L$VLIB_imagePyramid8_d$12$E:
    1157                    ;** --------------------------------------------------------------------------*
    1158 000002b0           $C$DW$L$VLIB_imagePyramid8_d$13$B:
    1159                    ;          EXCLUSIVE CPU CYCLES: 5
    1160 000002b0     fccd             LDW     .D2T2   *+SP(28),B4       ; |93| 
    1161 000002b2     b647             MV      .L2X    A4,B13            ; |93| 
    1162 000002b4 00004000             NOP             3
    1163 000002b8           $C$DW$L$VLIB_imagePyramid8_d$13$E:
    1164                    ;** --------------------------------------------------------------------------*
    1165 000002b8           $C$L2:    
    1166 000002b8           $C$DW$L$VLIB_imagePyramid8_d$14$B:
    1167                    ;          EXCLUSIVE CPU CYCLES: 13
    1168                    ;**     -----------------------g7:
    1169                    ;** 108 -----------------------    est_test = 1;
    1170                    ;** 111 -----------------------    C$1 = U$11+v$1;
    1171                    ;** 111 -----------------------    sprintf(K$72, (const char *)"%s generated input | Opt results compa
    1172                    ;** 113 -----------------------    VLIB_formula_add_test(U$56, 0, 0, (status_nat_vs_int == 0)|(status_
    1173                    ;** 115 -----------------------    goto g9;
    1174                            .dwpsn  file "./../packages/ti/vlib/src/VLIB_imagePyramid8/VLIB_imagePyramid8_d.c",line 111,co
    1175 000002b8 02b0807a             ADD     .L2     B4,B12,B5         ; |111| 
    1176                    
    1177 000002c4     f2cd             LDHU    .D2T2   *+B5(14),B4       ; |111| 
    1178 000002c0 01800029! ||         MVKL    .S1     $C$SL2+0,A3
    1179                    
    1180 000002c6     d2dd             LDHU    .D2T2   *+B5(12),B5       ; |111| 
    1181 000002c8 01800068! ||         MVKH    .S1     $C$SL2+0,A3
    1182                    
    1183 000002cc     ac35             STW     .D2T1   A3,*+SP(4)        ; |111| 
    1184                    
    1185 000002ce     d607             MV      .L2X    A12,B6            ; |111| 
    1186 000002d0 06bca2f4  ||         STW     .D2T1   A13,*+SP(20)      ; |111| 
    1187                    
    1188 000002d4 02000029!            MVKL    .S1     est_test,A4
    1189 000002d8     dc65  ||         STW     .D2T2   B6,*+SP(8)        ; |111| 
    1190                    
    1191 000002da     25a6             MVK     .L1     1,A3              ; |108| 
    1192 000002e0 02000069! ||         MVKH    .S1     est_test,A4
    1193 000002e4     9cc5  ||         STW     .D2T2   B4,*+SP(16)       ; |111| 
    1194                    
    1195                    $C$DW$121       .dwtag  DW_TAG_TI_branch
    1196                            .dwattr $C$DW$121, DW_AT_low_pc(0x00)
    1197                            .dwattr $C$DW$121, DW_AT_name("sprintf")
    1198                            .dwattr $C$DW$121, DW_AT_TI_call
    1199                    
    1200 000002e8 10000013!            CALLP   .S2     sprintf,B3
    1201 000002e6     fc55  ||         STW     .D2T2   B5,*+SP(12)       ; |111| 
    1202 000002ec     0034  ||         STW     .D1T1   A3,*A4            ; |108| 
    1203 000002ee     8586  ||         MV      .L1     A11,A4            ; |111| 
    1204                    
    1205 000002f0           $C$RL18:   ; CALL OCCURS {sprintf} {0}       ; |111| 
    1206 000002f0           $C$DW$L$VLIB_imagePyramid8_d$14$E:
    1207                    ;** --------------------------------------------------------------------------*
    1208 000002f0           $C$DW$L$VLIB_imagePyramid8_d$15$B:
    1209                    ;          EXCLUSIVE CPU CYCLES: 8
    1210                            .dwpsn  file "./../packages/ti/vlib/src/VLIB_imagePyramid8/VLIB_imagePyramid8_d.c",line 113,co
TMS320C6x Assembler PC v7.4.2 Thu Mar 19 12:42:11 2015

Tools Copyright (c) 1996-2012 Texas Instruments Incorporated
package/lib/Regression/regress_d_c/./../packages/ti/vlib/src/VLIB_imagePyramid8/VLIB_imagePyramid8_d.se66 PAGE   23

    1211 000002f0 01a80a58             CMPEQ   .L1     A10,0,A3          ; |113| 
    1212                    
    1213 000002f4 02340a5b             CMPEQ   .L2     B13,0,B4          ; |113| 
    1214 000002f8 0400002a  ||         ZERO    .S2     B8                ; |113| 
    1215                    
    1216                    $C$DW$122       .dwtag  DW_TAG_TI_branch
    1217                            .dwattr $C$DW$122, DW_AT_low_pc(0x00)
    1218                            .dwattr $C$DW$122, DW_AT_name("VLIB_formula_add_test")
    1219                            .dwattr $C$DW$122, DW_AT_TI_call
    1220                    
    1221 00000300 10000013!            CALLP   .S2     VLIB_formula_add_test,B3
    1222 00000304 030c9ffb  ||         OR      .L2X    B4,A3,B6          ; |113| 
    1223 00000308     1a77  ||         ZERO    .D2     B4                ; |113| 
    1224 0000030a     8686  ||         MV      .L1     A13,A4            ; |113| 
    1225 00000310     0312  ||         ZERO    .S1     A6                ; |113| 
    1226 0000030c 042c08f1  ||         MV      .D1     A11,A8            ; |113| 
    1227                    
    1228 00000312           $C$RL19:   ; CALL OCCURS {VLIB_formula_add_test} {0}  ; |113| 
    1229 00000312           $C$DW$L$VLIB_imagePyramid8_d$15$E:
    1230                    ;** --------------------------------------------------------------------------*
    1231 00000312           $C$DW$L$VLIB_imagePyramid8_d$16$B:
    1232                    ;          EXCLUSIVE CPU CYCLES: 6
    1233                            .dwpsn  file "./../packages/ti/vlib/src/VLIB_imagePyramid8/VLIB_imagePyramid8_d.c",line 115,co
    1234 00000312     0b0a             B       .S1     $C$L4             ; |115| 
    1235                            .dwpsn  file "./../packages/ti/vlib/src/VLIB_imagePyramid8/VLIB_imagePyramid8_d.c",line 123,co
    1236                    $C$DW$123       .dwtag  DW_TAG_TI_branch
    1237                            .dwattr $C$DW$123, DW_AT_low_pc(0x00)
    1238                            .dwattr $C$DW$123, DW_AT_name("free")
    1239                            .dwattr $C$DW$123, DW_AT_TI_call
    1240 00000314 00000010!            CALL    .S1     free              ; |123| 
    1241 00000318     cd4d             LDW     .D2T1   *+SP(40),A4       ; |123| 
    1242 0000031a     4c6e             NOP             3
    1243                            .dwpsn  file "./../packages/ti/vlib/src/VLIB_imagePyramid8/VLIB_imagePyramid8_d.c",line 115,co
    1244                               ; BRANCH OCCURS {$C$L4}           ; |115| 
    1245 00000320           $C$DW$L$VLIB_imagePyramid8_d$16$E:
    1246                    ;** --------------------------------------------------------------------------*
    1247 00000320           $C$L3:    
    1248                            .dwpsn  file "./../packages/ti/vlib/src/VLIB_imagePyramid8/VLIB_imagePyramid8_d.c",line 67,col
    1249                    $C$DW$L$VLIB_imagePyramid8_d$17$B:
    1250                    ;          EXCLUSIVE CPU CYCLES: 6
    1251                    ;**     -----------------------g8:
    1252                    ;** 117 -----------------------    sprintf(K$72, (const char *)"inCols=%d, inRows=%d, num_output_pt=%d
    1253                    ;** 119 -----------------------    VLIB_skip_test(K$72);
    1254                    $C$DW$124       .dwtag  DW_TAG_TI_branch
    1255                            .dwattr $C$DW$124, DW_AT_low_pc(0x00)
    1256                            .dwattr $C$DW$124, DW_AT_name("sprintf")
    1257                            .dwattr $C$DW$124, DW_AT_TI_call
    1258                    
    1259 00000320 00000011!            CALL    .S1     sprintf           ; |117| 
    1260 00000324 032ce287  ||         LDHU    .D2T2   *+B11(14),B6      ; |117| 
    1261 00000328 0280002a! ||         MVKL    .S2     $C$SL3+0,B5
    1262                    
    1263 0000032c 0280006a!            MVKH    .S2     $C$SL3+0,B5
    1264                            .dwpsn  file "./../packages/ti/vlib/src/VLIB_imagePyramid8/VLIB_imagePyramid8_d.c",line 117,co
    1265 00000330 02bc22f6             STW     .D2T2   B5,*+SP(4)        ; |117| 
TMS320C6x Assembler PC v7.4.2 Thu Mar 19 12:42:11 2015

Tools Copyright (c) 1996-2012 Texas Instruments Incorporated
package/lib/Regression/regress_d_c/./../packages/ti/vlib/src/VLIB_imagePyramid8/VLIB_imagePyramid8_d.se66 PAGE   24

    1266 00000334 06bc82f4             STW     .D2T1   A13,*+SP(16)      ; |117| 
    1267 00000338     dc45             STW     .D2T2   B4,*+SP(8)        ; |117| 
    1268                    
    1269 0000033a     fc65             STW     .D2T2   B6,*+SP(12)       ; |117| 
    1270 00000340 01820163  ||         ADDKPC  .S2     $C$RL20,B3,0      ; |117| 
    1271 00000344 022c0fd8  ||         MV      .L1     A11,A4            ; |117| 
    1272                    
    1273                    $C$RL20:   ; CALL OCCURS {sprintf} {0}       ; |117| 
    1274                    $C$DW$L$VLIB_imagePyramid8_d$17$E:
    1275                    ;** --------------------------------------------------------------------------*
    1276                    $C$DW$L$VLIB_imagePyramid8_d$18$B:
    1277                    ;          EXCLUSIVE CPU CYCLES: 11
    1278                    $C$DW$125       .dwtag  DW_TAG_TI_branch
    1279                            .dwattr $C$DW$125, DW_AT_low_pc(0x00)
    1280                            .dwattr $C$DW$125, DW_AT_name("VLIB_skip_test")
    1281                            .dwattr $C$DW$125, DW_AT_TI_call
    1282                    
    1283 00000348 10000013!            CALLP   .S2     VLIB_skip_test,B3
    1284 0000034c 022c0fd8  ||         MV      .L1     A11,A4            ; |119| 
    1285                    
    1286                            .dwpsn  file "./../packages/ti/vlib/src/VLIB_imagePyramid8/VLIB_imagePyramid8_d.c",line 119,co
    1287 00000350           $C$RL21:   ; CALL OCCURS {VLIB_skip_test} {0}  ; |119| 
    1288                            .dwpsn  file "./../packages/ti/vlib/src/VLIB_imagePyramid8/VLIB_imagePyramid8_d.c",line 123,co
    1289                    $C$DW$126       .dwtag  DW_TAG_TI_branch
    1290                            .dwattr $C$DW$126, DW_AT_low_pc(0x00)
    1291                            .dwattr $C$DW$126, DW_AT_name("free")
    1292                            .dwattr $C$DW$126, DW_AT_TI_call
    1293 00000350 00000010!            CALL    .S1     free              ; |123| 
    1294 00000354     cd4d             LDW     .D2T1   *+SP(40),A4       ; |123| 
    1295 00000356     4c6e             NOP             3
    1296 00000358           $C$DW$L$VLIB_imagePyramid8_d$18$E:
    1297                    ;** --------------------------------------------------------------------------*
    1298 00000358           $C$L4:    
    1299                            .dwpsn  file "./../packages/ti/vlib/src/VLIB_imagePyramid8/VLIB_imagePyramid8_d.c",line 115,co
    1300 00000358           $C$DW$L$VLIB_imagePyramid8_d$19$B:
    1301                    ;          EXCLUSIVE CPU CYCLES: 1
    1302                    ;**     -----------------------g9:
    1303                    ;** 123 -----------------------    free((void *)pOut_cn);
    1304                    ;** 124 -----------------------    VLIB_align_free((void *)pOut);
    1305                    ;** 125 -----------------------    VLIB_align_free((void *)pIn);
    1306                    ;** 51  -----------------------    U$11 += 16;
    1307                    ;** 51  -----------------------    U$12 += 16;
    1308                    ;** 51  -----------------------    if ( test_cases > (++tpi) ) goto g3;
    1309                            .dwpsn  file "./../packages/ti/vlib/src/VLIB_imagePyramid8/VLIB_imagePyramid8_d.c",line 123,co
    1310 00000358 01880162             ADDKPC  .S2     $C$RL22,B3,0      ; |123| 
    1311                    $C$RL22:   ; CALL OCCURS {free} {0}          ; |123| 
    1312                    $C$DW$L$VLIB_imagePyramid8_d$19$E:
    1313                    ;** --------------------------------------------------------------------------*
    1314                    $C$DW$L$VLIB_imagePyramid8_d$20$B:
    1315                    ;          EXCLUSIVE CPU CYCLES: 12
    1316                    $C$DW$127       .dwtag  DW_TAG_TI_branch
    1317                            .dwattr $C$DW$127, DW_AT_low_pc(0x00)
    1318                            .dwattr $C$DW$127, DW_AT_name("VLIB_align_free")
    1319                            .dwattr $C$DW$127, DW_AT_TI_call
    1320                    
TMS320C6x Assembler PC v7.4.2 Thu Mar 19 12:42:11 2015

Tools Copyright (c) 1996-2012 Texas Instruments Incorporated
package/lib/Regression/regress_d_c/./../packages/ti/vlib/src/VLIB_imagePyramid8/VLIB_imagePyramid8_d.se66 PAGE   25

    1321 00000360 10000013!            CALLP   .S2     VLIB_align_free,B3
    1322 00000364 023d22e4  ||         LDW     .D2T1   *+SP(36),A4       ; |124| 
    1323                    
    1324                            .dwpsn  file "./../packages/ti/vlib/src/VLIB_imagePyramid8/VLIB_imagePyramid8_d.c",line 124,co
    1325                    $C$RL23:   ; CALL OCCURS {VLIB_align_free} {0}  ; |124| 
    1326                    $C$DW$128       .dwtag  DW_TAG_TI_branch
    1327                            .dwattr $C$DW$128, DW_AT_low_pc(0x00)
    1328                            .dwattr $C$DW$128, DW_AT_name("VLIB_align_free")
    1329                            .dwattr $C$DW$128, DW_AT_TI_call
    1330                    
    1331 00000368 10000013!            CALLP   .S2     VLIB_align_free,B3
    1332 0000036c 023d02e4  ||         LDW     .D2T1   *+SP(32),A4       ; |125| 
    1333                    
    1334                            .dwpsn  file "./../packages/ti/vlib/src/VLIB_imagePyramid8/VLIB_imagePyramid8_d.c",line 125,co
    1335 00000370           $C$RL24:   ; CALL OCCURS {VLIB_align_free} {0}  ; |125| 
    1336 00000370           $C$DW$L$VLIB_imagePyramid8_d$20$E:
    1337                    ;** --------------------------------------------------------------------------*
    1338 00000370           $C$DW$L$VLIB_imagePyramid8_d$21$B:
    1339                    ;          EXCLUSIVE CPU CYCLES: 14
    1340 00000370 01800028!            MVKL    .S1     test_cases,A3
    1341 00000374 01800068!            MVKH    .S1     test_cases,A3
    1342                            .dwpsn  file "./../packages/ti/vlib/src/VLIB_imagePyramid8/VLIB_imagePyramid8_d.c",line 51,col
    1343 00000378 018c0264             LDW     .D1T1   *A3,A3            ; |51| 
    1344 0000037c 05800852             ADDK    .S2     16,B11            ; |51| 
    1345 00000380 07bc2058             ADD     .L1     1,A15,A15         ; |51| 
    1346 00000384 06000852             ADDK    .S2     16,B12            ; |51| 
    1347 00000388 00000000             NOP             1
    1348 0000038c 003c68f8             CMPGT   .L1     A3,A15,A0         ; |51| 
    1349                    
    1350 00000390 cf3d6121     [ A0]   BNOP    .S1     $C$L1,3           ; |51| 
    1351 00000394 c2acc286  || [ A0]   LDHU    .D2T2   *+B11(12),B5      ; |59| 
    1352                    
    1353                            .dwpsn  file "./../packages/ti/vlib/src/VLIB_imagePyramid8/VLIB_imagePyramid8_d.c",line 59,col
    1354 00000398 c22ce286     [ A0]   LDHU    .D2T2   *+B11(14),B4      ; |59| 
    1355                            .dwpsn  file "./../packages/ti/vlib/src/VLIB_imagePyramid8/VLIB_imagePyramid8_d.c",line 62,col
    1356 0000039c c220a358     [ A0]   MVK     .L1     0x8,A4            ; |62| 
    1357                            .dwpsn  file "./../packages/ti/vlib/src/VLIB_imagePyramid8/VLIB_imagePyramid8_d.c",line 51,col
    1358                               ; BRANCHCC OCCURS {$C$L1}         ; |51| 
    1359 000003a0           $C$DW$L$VLIB_imagePyramid8_d$21$E:
    1360                    ;** --------------------------------------------------------------------------*
    1361 000003a0           $C$L5:    
    1362                    ;          EXCLUSIVE CPU CYCLES: 8
    1363                    ;**     -----------------------g10:
    1364                    ;** 129 -----------------------    VLIB_profile_cycle_report(2, "N = inCols * inRows * 21 / 64", "inCo
    1365                    ;** 158 -----------------------    printf((const char *)"---------------------------------------------
    1366                    ;** 165 -----------------------    VLIB_stack_memory();  // [18]
    1367                    ;**     -----------------------    return;
    1368 000003a0 0200002a!            MVKL    .S2     $C$SL5+0,B4
    1369                    
    1370 000003a4 03000029!            MVKL    .S1     $C$SL4+0,A6
    1371 000003a8 0200006a! ||         MVKH    .S2     $C$SL5+0,B4
    1372                    
    1373                    $C$DW$129       .dwtag  DW_TAG_TI_branch
    1374                            .dwattr $C$DW$129, DW_AT_low_pc(0x00)
    1375                            .dwattr $C$DW$129, DW_AT_name("VLIB_profile_cycle_report")
TMS320C6x Assembler PC v7.4.2 Thu Mar 19 12:42:11 2015

Tools Copyright (c) 1996-2012 Texas Instruments Incorporated
package/lib/Regression/regress_d_c/./../packages/ti/vlib/src/VLIB_imagePyramid8/VLIB_imagePyramid8_d.se66 PAGE   26

    1376                            .dwattr $C$DW$129, DW_AT_TI_call
    1377                    
    1378 000003ac 10000013!            CALLP   .S2     VLIB_profile_cycle_report,B3
    1379 000003b0 03000069! ||         MVKH    .S1     $C$SL4+0,A6
    1380 000003b4 0208a358  ||         MVK     .L1     0x2,A4            ; |129| 
    1381                    
    1382                            .dwpsn  file "./../packages/ti/vlib/src/VLIB_imagePyramid8/VLIB_imagePyramid8_d.c",line 129,co
    1383 000003b8           $C$RL25:   ; CALL OCCURS {VLIB_profile_cycle_report} {0}  ; |129| 
    1384                    ;** --------------------------------------------------------------------------*
    1385                    ;          EXCLUSIVE CPU CYCLES: 14
    1386 000003b8 0200002a!            MVKL    .S2     $C$SL6+0,B4
    1387 000003bc 0200006a!            MVKH    .S2     $C$SL6+0,B4
    1388                    $C$DW$130       .dwtag  DW_TAG_TI_branch
    1389                            .dwattr $C$DW$130, DW_AT_low_pc(0x00)
    1390                            .dwattr $C$DW$130, DW_AT_name("printf")
    1391                            .dwattr $C$DW$130, DW_AT_TI_call
    1392                    
    1393 000003c0 10000013!            CALLP   .S2     printf,B3
    1394 000003c4 023c22f6  ||         STW     .D2T2   B4,*+SP(4)        ; |158| 
    1395                    
    1396                            .dwpsn  file ".\..\packages\ti\vlib\src\VLIB_imagePyramid8\../common/VLIB_memory.h",line 158,c
    1397                    $C$RL26:   ; CALL OCCURS {printf} {0}        ; |158| 
    1398                    $C$DW$131       .dwtag  DW_TAG_TI_branch
    1399                            .dwattr $C$DW$131, DW_AT_low_pc(0x00)
    1400                            .dwattr $C$DW$131, DW_AT_name("VLIB_stack_memory")
    1401                            .dwattr $C$DW$131, DW_AT_TI_call
    1402 000003c8 10000012!            CALLP   .S2     VLIB_stack_memory,B3
    1403                            .dwpsn  file ".\..\packages\ti\vlib\src\VLIB_imagePyramid8\../common/VLIB_memory.h",line 165,c
    1404 000003cc           $C$RL27:   ; CALL OCCURS {VLIB_stack_memory} {0}  ; |165| 
    1405                    ;** --------------------------------------------------------------------------*
    1406                    ;          EXCLUSIVE CPU CYCLES: 13
    1407                            .dwpsn  file "./../packages/ti/vlib/src/VLIB_imagePyramid8/VLIB_imagePyramid8_d.c",line 135,co
    1408 000003cc 01bd92e6             LDW     .D2T2   *++SP(48),B3      ; |135| 
    1409                            .dwcfi  cfa_offset, 48
    1410                            .dwcfi  restore_reg, 19
    1411 000003d0     c677             LDDW    .D2T1   *++SP,A13:A12
    1412                            .dwcfi  cfa_offset, 40
    1413                            .dwcfi  restore_reg, 13
    1414                            .dwcfi  restore_reg, 12
    1415 000003d2     c777             LDDW    .D2T1   *++SP,A15:A14
    1416                            .dwcfi  cfa_offset, 32
    1417                            .dwcfi  restore_reg, 15
    1418                            .dwcfi  restore_reg, 14
    1419 000003d4     d577             LDDW    .D2T2   *++SP,B11:B10
    1420                            .dwcfi  cfa_offset, 24
    1421                            .dwcfi  restore_reg, 27
    1422                            .dwcfi  restore_reg, 26
    1423 000003d6     d677             LDDW    .D2T2   *++SP,B13:B12
    1424                            .dwcfi  cfa_offset, 16
    1425                            .dwcfi  restore_reg, 29
    1426                            .dwcfi  restore_reg, 28
    1427 000003d8     6577             LDW     .D2T1   *++SP(8),A10
    1428                            .dwcfi  cfa_offset, 8
    1429                            .dwcfi  restore_reg, 10
    1430 000003da     65f7             LDW     .D2T1   *++SP(8),A11      ; |135| 
TMS320C6x Assembler PC v7.4.2 Thu Mar 19 12:42:11 2015

Tools Copyright (c) 1996-2012 Texas Instruments Incorporated
package/lib/Regression/regress_d_c/./../packages/ti/vlib/src/VLIB_imagePyramid8/VLIB_imagePyramid8_d.se66 PAGE   27

    1431                            .dwcfi  cfa_offset, 0
    1432                            .dwcfi  restore_reg, 11
    1433                            .dwcfi  cfa_offset, 0
    1434                    $C$DW$132       .dwtag  DW_TAG_TI_branch
    1435                            .dwattr $C$DW$132, DW_AT_low_pc(0x00)
    1436                            .dwattr $C$DW$132, DW_AT_TI_return
    1437 000003e0 008ca362             RETNOP  .S2     B3,5
    1438                               ; BRANCH OCCURS {B3}  
    1439                    
    1440                    $C$DW$133       .dwtag  DW_TAG_TI_loop
    1441                            .dwattr $C$DW$133, DW_AT_name("c:\nightlybuilds\vlib\ti\vlib\vlib\examples\package/lib/Regress
    1442                            .dwattr $C$DW$133, DW_AT_TI_begin_file("./../packages/ti/vlib/src/VLIB_imagePyramid8/VLIB_imag
    1443                            .dwattr $C$DW$133, DW_AT_TI_begin_line(0x33)
    1444                            .dwattr $C$DW$133, DW_AT_TI_end_line(0x7e)
    1445                    $C$DW$134       .dwtag  DW_TAG_TI_loop_range
    1446                            .dwattr $C$DW$134, DW_AT_low_pc($C$DW$L$VLIB_imagePyramid8_d$5$B)
    1447                            .dwattr $C$DW$134, DW_AT_high_pc($C$DW$L$VLIB_imagePyramid8_d$5$E)
    1448                    $C$DW$135       .dwtag  DW_TAG_TI_loop_range
    1449                            .dwattr $C$DW$135, DW_AT_low_pc($C$DW$L$VLIB_imagePyramid8_d$17$B)
    1450                            .dwattr $C$DW$135, DW_AT_high_pc($C$DW$L$VLIB_imagePyramid8_d$17$E)
    1451                    $C$DW$136       .dwtag  DW_TAG_TI_loop_range
    1452                            .dwattr $C$DW$136, DW_AT_low_pc($C$DW$L$VLIB_imagePyramid8_d$12$B)
    1453                            .dwattr $C$DW$136, DW_AT_high_pc($C$DW$L$VLIB_imagePyramid8_d$12$E)
    1454                    $C$DW$137       .dwtag  DW_TAG_TI_loop_range
    1455                            .dwattr $C$DW$137, DW_AT_low_pc($C$DW$L$VLIB_imagePyramid8_d$6$B)
    1456                            .dwattr $C$DW$137, DW_AT_high_pc($C$DW$L$VLIB_imagePyramid8_d$6$E)
    1457                    $C$DW$138       .dwtag  DW_TAG_TI_loop_range
    1458                            .dwattr $C$DW$138, DW_AT_low_pc($C$DW$L$VLIB_imagePyramid8_d$7$B)
    1459                            .dwattr $C$DW$138, DW_AT_high_pc($C$DW$L$VLIB_imagePyramid8_d$7$E)
    1460                    $C$DW$139       .dwtag  DW_TAG_TI_loop_range
    1461                            .dwattr $C$DW$139, DW_AT_low_pc($C$DW$L$VLIB_imagePyramid8_d$8$B)
    1462                            .dwattr $C$DW$139, DW_AT_high_pc($C$DW$L$VLIB_imagePyramid8_d$8$E)
    1463                    $C$DW$140       .dwtag  DW_TAG_TI_loop_range
    1464                            .dwattr $C$DW$140, DW_AT_low_pc($C$DW$L$VLIB_imagePyramid8_d$9$B)
    1465                            .dwattr $C$DW$140, DW_AT_high_pc($C$DW$L$VLIB_imagePyramid8_d$9$E)
    1466                    $C$DW$141       .dwtag  DW_TAG_TI_loop_range
    1467                            .dwattr $C$DW$141, DW_AT_low_pc($C$DW$L$VLIB_imagePyramid8_d$10$B)
    1468                            .dwattr $C$DW$141, DW_AT_high_pc($C$DW$L$VLIB_imagePyramid8_d$10$E)
    1469                    $C$DW$142       .dwtag  DW_TAG_TI_loop_range
    1470                            .dwattr $C$DW$142, DW_AT_low_pc($C$DW$L$VLIB_imagePyramid8_d$11$B)
    1471                            .dwattr $C$DW$142, DW_AT_high_pc($C$DW$L$VLIB_imagePyramid8_d$11$E)
    1472                    $C$DW$143       .dwtag  DW_TAG_TI_loop_range
    1473                            .dwattr $C$DW$143, DW_AT_low_pc($C$DW$L$VLIB_imagePyramid8_d$13$B)
    1474                            .dwattr $C$DW$143, DW_AT_high_pc($C$DW$L$VLIB_imagePyramid8_d$13$E)
    1475                    $C$DW$144       .dwtag  DW_TAG_TI_loop_range
    1476                            .dwattr $C$DW$144, DW_AT_low_pc($C$DW$L$VLIB_imagePyramid8_d$14$B)
    1477                            .dwattr $C$DW$144, DW_AT_high_pc($C$DW$L$VLIB_imagePyramid8_d$14$E)
    1478                    $C$DW$145       .dwtag  DW_TAG_TI_loop_range
    1479                            .dwattr $C$DW$145, DW_AT_low_pc($C$DW$L$VLIB_imagePyramid8_d$15$B)
    1480                            .dwattr $C$DW$145, DW_AT_high_pc($C$DW$L$VLIB_imagePyramid8_d$15$E)
    1481                    $C$DW$146       .dwtag  DW_TAG_TI_loop_range
    1482                            .dwattr $C$DW$146, DW_AT_low_pc($C$DW$L$VLIB_imagePyramid8_d$16$B)
    1483                            .dwattr $C$DW$146, DW_AT_high_pc($C$DW$L$VLIB_imagePyramid8_d$16$E)
    1484                    $C$DW$147       .dwtag  DW_TAG_TI_loop_range
    1485                            .dwattr $C$DW$147, DW_AT_low_pc($C$DW$L$VLIB_imagePyramid8_d$18$B)
TMS320C6x Assembler PC v7.4.2 Thu Mar 19 12:42:11 2015

Tools Copyright (c) 1996-2012 Texas Instruments Incorporated
package/lib/Regression/regress_d_c/./../packages/ti/vlib/src/VLIB_imagePyramid8/VLIB_imagePyramid8_d.se66 PAGE   28

    1486                            .dwattr $C$DW$147, DW_AT_high_pc($C$DW$L$VLIB_imagePyramid8_d$18$E)
    1487                    $C$DW$148       .dwtag  DW_TAG_TI_loop_range
    1488                            .dwattr $C$DW$148, DW_AT_low_pc($C$DW$L$VLIB_imagePyramid8_d$19$B)
    1489                            .dwattr $C$DW$148, DW_AT_high_pc($C$DW$L$VLIB_imagePyramid8_d$19$E)
    1490                    $C$DW$149       .dwtag  DW_TAG_TI_loop_range
    1491                            .dwattr $C$DW$149, DW_AT_low_pc($C$DW$L$VLIB_imagePyramid8_d$20$B)
    1492                            .dwattr $C$DW$149, DW_AT_high_pc($C$DW$L$VLIB_imagePyramid8_d$20$E)
    1493                    $C$DW$150       .dwtag  DW_TAG_TI_loop_range
    1494                            .dwattr $C$DW$150, DW_AT_low_pc($C$DW$L$VLIB_imagePyramid8_d$21$B)
    1495                            .dwattr $C$DW$150, DW_AT_high_pc($C$DW$L$VLIB_imagePyramid8_d$21$E)
    1496                            .dwendtag $C$DW$133
    1497                    
    1498                            .dwattr $C$DW$78, DW_AT_TI_end_file("./../packages/ti/vlib/src/VLIB_imagePyramid8/VLIB_imagePy
    1499                            .dwattr $C$DW$78, DW_AT_TI_end_line(0x87)
    1500                            .dwattr $C$DW$78, DW_AT_TI_end_column(0x01)
    1501                            .dwendentry
    1502                            .dwendtag $C$DW$78
    1503                    
    1504                    ;; Inlined function references:
    1505                    ;; [ 14] VLIB_profile_start
    1506                    ;; [ 15] VLIB_profile_stop
    1507                    ;; [ 18] VLIB_kernel_memory
    1508                    ;******************************************************************************
    1509                    ;* STRINGS                                                                    *
    1510                    ;******************************************************************************
    1511 00000000                   .sect   ".const:.string"
    1512 00000000 00000056  $C$SL1: .string "VLIB_imagePyramid8",0
         00000001 0000004C 
         00000002 00000049 
         00000003 00000042 
         00000004 0000005F 
         00000005 00000069 
         00000006 0000006D 
         00000007 00000061 
         00000008 00000067 
         00000009 00000065 
         0000000a 00000050 
         0000000b 00000079 
         0000000c 00000072 
         0000000d 00000061 
         0000000e 0000006D 
         0000000f 00000069 
         00000010 00000064 
         00000011 00000038 
         00000012 00000000 
    1513 00000013 00000025  $C$SL2: .string "%s generated input | Opt results compared to NatC results |"
         00000014 00000073 
         00000015 00000020 
         00000016 00000067 
         00000017 00000065 
         00000018 0000006E 
         00000019 00000065 
         0000001a 00000072 
         0000001b 00000061 
         0000001c 00000074 
TMS320C6x Assembler PC v7.4.2 Thu Mar 19 12:42:11 2015

Tools Copyright (c) 1996-2012 Texas Instruments Incorporated
package/lib/Regression/regress_d_c/./../packages/ti/vlib/src/VLIB_imagePyramid8/VLIB_imagePyramid8_d.se66 PAGE   29

         0000001d 00000065 
         0000001e 00000064 
         0000001f 00000020 
         00000020 00000069 
         00000021 0000006E 
         00000022 00000070 
         00000023 00000075 
         00000024 00000074 
         00000025 00000020 
         00000026 0000007C 
         00000027 00000020 
         00000028 0000004F 
         00000029 00000070 
         0000002a 00000074 
         0000002b 00000020 
         0000002c 00000072 
         0000002d 00000065 
         0000002e 00000073 
         0000002f 00000075 
         00000030 0000006C 
         00000031 00000074 
         00000032 00000073 
         00000033 00000020 
         00000034 00000063 
         00000035 0000006F 
         00000036 0000006D 
         00000037 00000070 
         00000038 00000061 
         00000039 00000072 
         0000003a 00000065 
         0000003b 00000064 
         0000003c 00000020 
         0000003d 00000074 
         0000003e 0000006F 
         0000003f 00000020 
         00000040 0000004E 
         00000041 00000061 
         00000042 00000074 
         00000043 00000043 
         00000044 00000020 
         00000045 00000072 
         00000046 00000065 
         00000047 00000073 
         00000048 00000075 
         00000049 0000006C 
         0000004a 00000074 
         0000004b 00000073 
         0000004c 00000020 
         0000004d 0000007C 
    1514 0000004e 00000020          .string " inCols=%d, inRows=%d, num_output_pt=%d",0
         0000004f 00000069 
         00000050 0000006E 
         00000051 00000043 
         00000052 0000006F 
         00000053 0000006C 
TMS320C6x Assembler PC v7.4.2 Thu Mar 19 12:42:11 2015

Tools Copyright (c) 1996-2012 Texas Instruments Incorporated
package/lib/Regression/regress_d_c/./../packages/ti/vlib/src/VLIB_imagePyramid8/VLIB_imagePyramid8_d.se66 PAGE   30

         00000054 00000073 
         00000055 0000003D 
         00000056 00000025 
         00000057 00000064 
         00000058 0000002C 
         00000059 00000020 
         0000005a 00000069 
         0000005b 0000006E 
         0000005c 00000052 
         0000005d 0000006F 
         0000005e 00000077 
         0000005f 00000073 
         00000060 0000003D 
         00000061 00000025 
         00000062 00000064 
         00000063 0000002C 
         00000064 00000020 
         00000065 0000006E 
         00000066 00000075 
         00000067 0000006D 
         00000068 0000005F 
         00000069 0000006F 
         0000006a 00000075 
         0000006b 00000074 
         0000006c 00000070 
         0000006d 00000075 
         0000006e 00000074 
         0000006f 0000005F 
         00000070 00000070 
         00000071 00000074 
         00000072 0000003D 
         00000073 00000025 
         00000074 00000064 
         00000075 00000000 
    1515 00000076 00000069  $C$SL3: .string "inCols=%d, inRows=%d, num_output_pt=%d",0
         00000077 0000006E 
         00000078 00000043 
         00000079 0000006F 
         0000007a 0000006C 
         0000007b 00000073 
         0000007c 0000003D 
         0000007d 00000025 
         0000007e 00000064 
         0000007f 0000002C 
         00000080 00000020 
         00000081 00000069 
         00000082 0000006E 
         00000083 00000052 
         00000084 0000006F 
         00000085 00000077 
         00000086 00000073 
         00000087 0000003D 
         00000088 00000025 
         00000089 00000064 
         0000008a 0000002C 
TMS320C6x Assembler PC v7.4.2 Thu Mar 19 12:42:11 2015

Tools Copyright (c) 1996-2012 Texas Instruments Incorporated
package/lib/Regression/regress_d_c/./../packages/ti/vlib/src/VLIB_imagePyramid8/VLIB_imagePyramid8_d.se66 PAGE   31

         0000008b 00000020 
         0000008c 0000006E 
         0000008d 00000075 
         0000008e 0000006D 
         0000008f 0000005F 
         00000090 0000006F 
         00000091 00000075 
         00000092 00000074 
         00000093 00000070 
         00000094 00000075 
         00000095 00000074 
         00000096 0000005F 
         00000097 00000070 
         00000098 00000074 
         00000099 0000003D 
         0000009a 00000025 
         0000009b 00000064 
         0000009c 00000000 
    1516 0000009d 00000069  $C$SL4: .string "inCols * inRows * 21 / 64",0
         0000009e 0000006E 
         0000009f 00000043 
         000000a0 0000006F 
         000000a1 0000006C 
         000000a2 00000073 
         000000a3 00000020 
         000000a4 0000002A 
         000000a5 00000020 
         000000a6 00000069 
         000000a7 0000006E 
         000000a8 00000052 
         000000a9 0000006F 
         000000aa 00000077 
         000000ab 00000073 
         000000ac 00000020 
         000000ad 0000002A 
         000000ae 00000020 
         000000af 00000032 
         000000b0 00000031 
         000000b1 00000020 
         000000b2 0000002F 
         000000b3 00000020 
         000000b4 00000036 
         000000b5 00000034 
         000000b6 00000000 
    1517 000000b7 0000004E  $C$SL5: .string "N = inCols * inRows * 21 / 64",0
         000000b8 00000020 
         000000b9 0000003D 
         000000ba 00000020 
         000000bb 00000069 
         000000bc 0000006E 
         000000bd 00000043 
         000000be 0000006F 
         000000bf 0000006C 
         000000c0 00000073 
         000000c1 00000020 
TMS320C6x Assembler PC v7.4.2 Thu Mar 19 12:42:11 2015

Tools Copyright (c) 1996-2012 Texas Instruments Incorporated
package/lib/Regression/regress_d_c/./../packages/ti/vlib/src/VLIB_imagePyramid8/VLIB_imagePyramid8_d.se66 PAGE   32

         000000c2 0000002A 
         000000c3 00000020 
         000000c4 00000069 
         000000c5 0000006E 
         000000c6 00000052 
         000000c7 0000006F 
         000000c8 00000077 
         000000c9 00000073 
         000000ca 00000020 
         000000cb 0000002A 
         000000cc 00000020 
         000000cd 00000032 
         000000ce 00000031 
         000000cf 00000020 
         000000d0 0000002F 
         000000d1 00000020 
         000000d2 00000036 
         000000d3 00000034 
         000000d4 00000000 
    1518 000000d5 0000002D  $C$SL6: .string "-----------------------------------------------------------"
         000000d6 0000002D 
         000000d7 0000002D 
         000000d8 0000002D 
         000000d9 0000002D 
         000000da 0000002D 
         000000db 0000002D 
         000000dc 0000002D 
         000000dd 0000002D 
         000000de 0000002D 
         000000df 0000002D 
         000000e0 0000002D 
         000000e1 0000002D 
         000000e2 0000002D 
         000000e3 0000002D 
         000000e4 0000002D 
         000000e5 0000002D 
         000000e6 0000002D 
         000000e7 0000002D 
         000000e8 0000002D 
         000000e9 0000002D 
         000000ea 0000002D 
         000000eb 0000002D 
         000000ec 0000002D 
         000000ed 0000002D 
         000000ee 0000002D 
         000000ef 0000002D 
         000000f0 0000002D 
         000000f1 0000002D 
         000000f2 0000002D 
         000000f3 0000002D 
         000000f4 0000002D 
         000000f5 0000002D 
         000000f6 0000002D 
         000000f7 0000002D 
         000000f8 0000002D 
TMS320C6x Assembler PC v7.4.2 Thu Mar 19 12:42:11 2015

Tools Copyright (c) 1996-2012 Texas Instruments Incorporated
package/lib/Regression/regress_d_c/./../packages/ti/vlib/src/VLIB_imagePyramid8/VLIB_imagePyramid8_d.se66 PAGE   33

         000000f9 0000002D 
         000000fa 0000002D 
         000000fb 0000002D 
         000000fc 0000002D 
         000000fd 0000002D 
         000000fe 0000002D 
         000000ff 0000002D 
         00000100 0000002D 
         00000101 0000002D 
         00000102 0000002D 
         00000103 0000002D 
         00000104 0000002D 
         00000105 0000002D 
         00000106 0000002D 
         00000107 0000002D 
         00000108 0000002D 
         00000109 0000002D 
         0000010a 0000002D 
         0000010b 0000002D 
         0000010c 0000002D 
         0000010d 0000002D 
         0000010e 0000002D 
         0000010f 0000002D 
    1519 00000110 0000002D          .string "-----------------------------------------------------------"
         00000111 0000002D 
         00000112 0000002D 
         00000113 0000002D 
         00000114 0000002D 
         00000115 0000002D 
         00000116 0000002D 
         00000117 0000002D 
         00000118 0000002D 
         00000119 0000002D 
         0000011a 0000002D 
         0000011b 0000002D 
         0000011c 0000002D 
         0000011d 0000002D 
         0000011e 0000002D 
         0000011f 0000002D 
         00000120 0000002D 
         00000121 0000002D 
         00000122 0000002D 
         00000123 0000002D 
         00000124 0000002D 
         00000125 0000002D 
         00000126 0000002D 
         00000127 0000002D 
         00000128 0000002D 
         00000129 0000002D 
         0000012a 0000002D 
         0000012b 0000002D 
         0000012c 0000002D 
         0000012d 0000002D 
         0000012e 0000002D 
         0000012f 0000002D 
TMS320C6x Assembler PC v7.4.2 Thu Mar 19 12:42:11 2015

Tools Copyright (c) 1996-2012 Texas Instruments Incorporated
package/lib/Regression/regress_d_c/./../packages/ti/vlib/src/VLIB_imagePyramid8/VLIB_imagePyramid8_d.se66 PAGE   34

         00000130 0000002D 
         00000131 0000002D 
         00000132 0000002D 
         00000133 0000002D 
         00000134 0000002D 
         00000135 0000002D 
         00000136 0000002D 
         00000137 0000002D 
         00000138 0000002D 
         00000139 0000002D 
         0000013a 0000002D 
         0000013b 0000002D 
         0000013c 0000002D 
         0000013d 0000002D 
         0000013e 0000002D 
         0000013f 0000002D 
         00000140 0000002D 
         00000141 0000002D 
         00000142 0000002D 
         00000143 0000002D 
         00000144 0000002D 
         00000145 0000002D 
         00000146 0000002D 
         00000147 0000002D 
         00000148 0000002D 
         00000149 0000002D 
         0000014a 0000002D 
    1520 0000014b 0000002D          .string "-----------------------",10,0
         0000014c 0000002D 
         0000014d 0000002D 
         0000014e 0000002D 
         0000014f 0000002D 
         00000150 0000002D 
         00000151 0000002D 
         00000152 0000002D 
         00000153 0000002D 
         00000154 0000002D 
         00000155 0000002D 
         00000156 0000002D 
         00000157 0000002D 
         00000158 0000002D 
         00000159 0000002D 
         0000015a 0000002D 
         0000015b 0000002D 
         0000015c 0000002D 
         0000015d 0000002D 
         0000015e 0000002D 
         0000015f 0000002D 
         00000160 0000002D 
         00000161 0000002D 
         00000162 0000000A 
         00000163 00000000 
    1521                    ;*****************************************************************************
    1522                    ;* UNDEFINED EXTERNAL REFERENCES                                             *
    1523                    ;*****************************************************************************
TMS320C6x Assembler PC v7.4.2 Thu Mar 19 12:42:11 2015

Tools Copyright (c) 1996-2012 Texas Instruments Incorporated
package/lib/Regression/regress_d_c/./../packages/ti/vlib/src/VLIB_imagePyramid8/VLIB_imagePyramid8_d.se66 PAGE   35

    1524                            .global printf
    1525                            .global sprintf
    1526                            .global malloc
    1527                            .global free
    1528                            .global VLIB_cache_inval
    1529                            .global VLIB_profile_init
    1530                            .global VLIB_formula_add_test
    1531                            .global VLIB_skip_test
    1532                            .global VLIB_profile_cycle_report
    1533                            .global initStack
    1534                            .global setStackDepth
    1535                            .global getSP
    1536                            .global VLIB_stack_memory
    1537                            .global VLIB_compare_mem
    1538                            .global VLIB_fillBuffer
    1539                            .global VLIB_memalign
    1540                            .global VLIB_align_free
    1541                            .global VLIB_imagePyramid8
    1542                            .global VLIB_imagePyramid8_cn
    1543                            .global imagePyramid8_getTestParams
    1544                            .global test_cases
    1545                            .global act_kernel
    1546                            .global desc
    1547                            .global testPatternString
    1548                            .global est_test
    1549                            .global beg_count
    1550                            .global end_count
    1551                            .global overhead
    1552                            .global cycles
    1553                    
    1554                    ;******************************************************************************
    1555                    ;* BUILD ATTRIBUTES                                                           *
    1556                    ;******************************************************************************
    1557                            .battr "TI", Tag_File, 1, Tag_Long_Precision_Bits(2)
    1558                            .battr "TI", Tag_File, 1, Tag_Bitfield_layout(2)
    1559                            .battr "TI", Tag_File, 1, Tag_ABI_enum_size(2)
    1560                            .battr "c6xabi", Tag_File, 1, Tag_ABI_wchar_t(1)
    1561                            .battr "c6xabi", Tag_File, 1, Tag_ABI_array_object_alignment(0)
    1562                            .battr "c6xabi", Tag_File, 1, Tag_ABI_array_object_align_expected(0)
    1563                            .battr "c6xabi", Tag_File, 1, Tag_ABI_PIC(0)
    1564                            .battr "c6xabi", Tag_File, 1, Tag_ABI_PID(0)
    1565                            .battr "c6xabi", Tag_File, 1, Tag_ABI_DSBT(0)
    1566                            .battr "c6xabi", Tag_File, 1, Tag_ABI_stack_align_needed(0)
    1567                            .battr "c6xabi", Tag_File, 1, Tag_ABI_stack_align_preserved(0)
    1568                            .battr "TI", Tag_File, 1, Tag_Tramps_Use_SOC(1)
    1569                    
    1570                    ;******************************************************************************
    1571                    ;* TYPE INFORMATION                                                           *
    1572                    ;******************************************************************************
    1573                    
    1574                    $C$DW$T$36      .dwtag  DW_TAG_enumeration_type
    1575                            .dwattr $C$DW$T$36, DW_AT_byte_size(0x04)
    1576                    $C$DW$151       .dwtag  DW_TAG_enumerator, DW_AT_name("VLIB_NO_ERROR"), DW_AT_const_value(0x00)
    1577                            .dwattr $C$DW$151, DW_AT_decl_file(".\..\packages\ti\vlib\src\VLIB_imagePyramid8\..\common\c66
    1578                            .dwattr $C$DW$151, DW_AT_decl_line(0x7a)
TMS320C6x Assembler PC v7.4.2 Thu Mar 19 12:42:11 2015

Tools Copyright (c) 1996-2012 Texas Instruments Incorporated
package/lib/Regression/regress_d_c/./../packages/ti/vlib/src/VLIB_imagePyramid8/VLIB_imagePyramid8_d.se66 PAGE   36

    1579                            .dwattr $C$DW$151, DW_AT_decl_column(0x05)
    1580                    $C$DW$152       .dwtag  DW_TAG_enumerator, DW_AT_name("VLIB_ERR_INPUT_INVALID"), DW_AT_const_value(0x0
    1581                            .dwattr $C$DW$152, DW_AT_decl_file(".\..\packages\ti\vlib\src\VLIB_imagePyramid8\..\common\c66
    1582                            .dwattr $C$DW$152, DW_AT_decl_line(0x7b)
    1583                            .dwattr $C$DW$152, DW_AT_decl_column(0x05)
    1584                    $C$DW$153       .dwtag  DW_TAG_enumerator, DW_AT_name("VLIB_ERR_INPUT_NEGATIVE"), DW_AT_const_value(0x
    1585                            .dwattr $C$DW$153, DW_AT_decl_file(".\..\packages\ti\vlib\src\VLIB_imagePyramid8\..\common\c66
    1586                            .dwattr $C$DW$153, DW_AT_decl_line(0x7c)
    1587                            .dwattr $C$DW$153, DW_AT_decl_column(0x05)
    1588                    $C$DW$154       .dwtag  DW_TAG_enumerator, DW_AT_name("VLIB_ERR_INPUT_EXCEEDED_RANGE"), DW_AT_const_va
    1589                            .dwattr $C$DW$154, DW_AT_decl_file(".\..\packages\ti\vlib\src\VLIB_imagePyramid8\..\common\c66
    1590                            .dwattr $C$DW$154, DW_AT_decl_line(0x7d)
    1591                            .dwattr $C$DW$154, DW_AT_decl_column(0x05)
    1592                    $C$DW$155       .dwtag  DW_TAG_enumerator, DW_AT_name("VLIB_ERR_MEMORY_EXCEEDED_BOUNDARY"), DW_AT_cons
    1593                            .dwattr $C$DW$155, DW_AT_decl_file(".\..\packages\ti\vlib\src\VLIB_imagePyramid8\..\common\c66
    1594                            .dwattr $C$DW$155, DW_AT_decl_line(0x7e)
    1595                            .dwattr $C$DW$155, DW_AT_decl_column(0x05)
    1596                    $C$DW$156       .dwtag  DW_TAG_enumerator, DW_AT_name("VLIB_ERR_MEMORY_ALLOCATION_FAILURE"), DW_AT_con
    1597                            .dwattr $C$DW$156, DW_AT_decl_file(".\..\packages\ti\vlib\src\VLIB_imagePyramid8\..\common\c66
    1598                            .dwattr $C$DW$156, DW_AT_decl_line(0x7f)
    1599                            .dwattr $C$DW$156, DW_AT_decl_column(0x05)
    1600                    $C$DW$157       .dwtag  DW_TAG_enumerator, DW_AT_name("VLIB_ERR_MEMORY_POINTER_NULL"), DW_AT_const_val
    1601                            .dwattr $C$DW$157, DW_AT_decl_file(".\..\packages\ti\vlib\src\VLIB_imagePyramid8\..\common\c66
    1602                            .dwattr $C$DW$157, DW_AT_decl_line(0x80)
    1603                            .dwattr $C$DW$157, DW_AT_decl_column(0x05)
    1604                    $C$DW$158       .dwtag  DW_TAG_enumerator, DW_AT_name("VLIB_ERR_DMA_FAILURE"), DW_AT_const_value(0x07)
    1605                            .dwattr $C$DW$158, DW_AT_decl_file(".\..\packages\ti\vlib\src\VLIB_imagePyramid8\..\common\c66
    1606                            .dwattr $C$DW$158, DW_AT_decl_line(0x81)
    1607                            .dwattr $C$DW$158, DW_AT_decl_column(0x05)
    1608                    $C$DW$159       .dwtag  DW_TAG_enumerator, DW_AT_name("VLIB_ERR_FILE_OPEN_FAILURE"), DW_AT_const_value
    1609                            .dwattr $C$DW$159, DW_AT_decl_file(".\..\packages\ti\vlib\src\VLIB_imagePyramid8\..\common\c66
    1610                            .dwattr $C$DW$159, DW_AT_decl_line(0x82)
    1611                            .dwattr $C$DW$159, DW_AT_decl_column(0x05)
    1612                    $C$DW$160       .dwtag  DW_TAG_enumerator, DW_AT_name("VLIB_ERR_FILE_READ_FAILURE"), DW_AT_const_value
    1613                            .dwattr $C$DW$160, DW_AT_decl_file(".\..\packages\ti\vlib\src\VLIB_imagePyramid8\..\common\c66
    1614                            .dwattr $C$DW$160, DW_AT_decl_line(0x83)
    1615                            .dwattr $C$DW$160, DW_AT_decl_column(0x05)
    1616                    $C$DW$161       .dwtag  DW_TAG_enumerator, DW_AT_name("VLIB_ERR_FILE_WRITE_FAILURE"), DW_AT_const_valu
    1617                            .dwattr $C$DW$161, DW_AT_decl_file(".\..\packages\ti\vlib\src\VLIB_imagePyramid8\..\common\c66
    1618                            .dwattr $C$DW$161, DW_AT_decl_line(0x84)
    1619                            .dwattr $C$DW$161, DW_AT_decl_column(0x05)
    1620                    $C$DW$162       .dwtag  DW_TAG_enumerator, DW_AT_name("VLIB_ERR_FILE_CLOSE_FAILURE"), DW_AT_const_valu
    1621                            .dwattr $C$DW$162, DW_AT_decl_file(".\..\packages\ti\vlib\src\VLIB_imagePyramid8\..\common\c66
    1622                            .dwattr $C$DW$162, DW_AT_decl_line(0x85)
    1623                            .dwattr $C$DW$162, DW_AT_decl_column(0x05)
    1624                    $C$DW$163       .dwtag  DW_TAG_enumerator, DW_AT_name("VLIB_ERR_FILE_FORMAT_FAILURE"), DW_AT_const_val
    1625                            .dwattr $C$DW$163, DW_AT_decl_file(".\..\packages\ti\vlib\src\VLIB_imagePyramid8\..\common\c66
    1626                            .dwattr $C$DW$163, DW_AT_decl_line(0x86)
    1627                            .dwattr $C$DW$163, DW_AT_decl_column(0x05)
    1628                    $C$DW$164       .dwtag  DW_TAG_enumerator, DW_AT_name("VLIB_WARNING_LOW_MEMORY"), DW_AT_const_value(0x
    1629                            .dwattr $C$DW$164, DW_AT_decl_file(".\..\packages\ti\vlib\src\VLIB_imagePyramid8\..\common\c66
    1630                            .dwattr $C$DW$164, DW_AT_decl_line(0x87)
    1631                            .dwattr $C$DW$164, DW_AT_decl_column(0x05)
    1632                    $C$DW$165       .dwtag  DW_TAG_enumerator, DW_AT_name("VLIB_ERR_NOT_IMPLEMENTED"), DW_AT_const_value(0
    1633                            .dwattr $C$DW$165, DW_AT_decl_file(".\..\packages\ti\vlib\src\VLIB_imagePyramid8\..\common\c66
TMS320C6x Assembler PC v7.4.2 Thu Mar 19 12:42:11 2015

Tools Copyright (c) 1996-2012 Texas Instruments Incorporated
package/lib/Regression/regress_d_c/./../packages/ti/vlib/src/VLIB_imagePyramid8/VLIB_imagePyramid8_d.se66 PAGE   37

    1634                            .dwattr $C$DW$165, DW_AT_decl_line(0x88)
    1635                            .dwattr $C$DW$165, DW_AT_decl_column(0x05)
    1636                    $C$DW$166       .dwtag  DW_TAG_enumerator, DW_AT_name("VLIB_ERROR_MAX"), DW_AT_const_value(0x0f)
    1637                            .dwattr $C$DW$166, DW_AT_decl_file(".\..\packages\ti\vlib\src\VLIB_imagePyramid8\..\common\c66
    1638                            .dwattr $C$DW$166, DW_AT_decl_line(0x89)
    1639                            .dwattr $C$DW$166, DW_AT_decl_column(0x05)
    1640                            .dwendtag $C$DW$T$36
    1641                    
    1642                            .dwattr $C$DW$T$36, DW_AT_decl_file(".\..\packages\ti\vlib\src\VLIB_imagePyramid8\..\common\c6
    1643                            .dwattr $C$DW$T$36, DW_AT_decl_line(0x79)
    1644                            .dwattr $C$DW$T$36, DW_AT_decl_column(0x0e)
    1645                    $C$DW$T$37      .dwtag  DW_TAG_typedef, DW_AT_name("VLIB_STATUS")
    1646                            .dwattr $C$DW$T$37, DW_AT_type(*$C$DW$T$36)
    1647                            .dwattr $C$DW$T$37, DW_AT_language(DW_LANG_C)
    1648                            .dwattr $C$DW$T$37, DW_AT_decl_file(".\..\packages\ti\vlib\src\VLIB_imagePyramid8\..\common\c6
    1649                            .dwattr $C$DW$T$37, DW_AT_decl_line(0x8a)
    1650                            .dwattr $C$DW$T$37, DW_AT_decl_column(0x03)
    1651                    
    1652                    $C$DW$T$38      .dwtag  DW_TAG_enumeration_type
    1653                            .dwattr $C$DW$T$38, DW_AT_byte_size(0x04)
    1654                    $C$DW$167       .dwtag  DW_TAG_enumerator, DW_AT_name("vlib_KERNEL_OPT"), DW_AT_const_value(0x00)
    1655                            .dwattr $C$DW$167, DW_AT_decl_file(".\..\packages\ti\vlib\src\VLIB_imagePyramid8\../common/VLI
    1656                            .dwattr $C$DW$167, DW_AT_decl_line(0x6a)
    1657                            .dwattr $C$DW$167, DW_AT_decl_column(0x05)
    1658                    $C$DW$168       .dwtag  DW_TAG_enumerator, DW_AT_name("vlib_KERNEL_CN"), DW_AT_const_value(0x01)
    1659                            .dwattr $C$DW$168, DW_AT_decl_file(".\..\packages\ti\vlib\src\VLIB_imagePyramid8\../common/VLI
    1660                            .dwattr $C$DW$168, DW_AT_decl_line(0x6b)
    1661                            .dwattr $C$DW$168, DW_AT_decl_column(0x05)
    1662                    $C$DW$169       .dwtag  DW_TAG_enumerator, DW_AT_name("vlib_KERNEL_CNT"), DW_AT_const_value(0x02)
    1663                            .dwattr $C$DW$169, DW_AT_decl_file(".\..\packages\ti\vlib\src\VLIB_imagePyramid8\../common/VLI
    1664                            .dwattr $C$DW$169, DW_AT_decl_line(0x6c)
    1665                            .dwattr $C$DW$169, DW_AT_decl_column(0x05)
    1666                            .dwendtag $C$DW$T$38
    1667                    
    1668                            .dwattr $C$DW$T$38, DW_AT_decl_file(".\..\packages\ti\vlib\src\VLIB_imagePyramid8\../common/VL
    1669                            .dwattr $C$DW$T$38, DW_AT_decl_line(0x69)
    1670                            .dwattr $C$DW$T$38, DW_AT_decl_column(0x06)
    1671                    
    1672                    $C$DW$T$39      .dwtag  DW_TAG_enumeration_type
    1673                            .dwattr $C$DW$T$39, DW_AT_byte_size(0x04)
    1674                    $C$DW$170       .dwtag  DW_TAG_enumerator, DW_AT_name("vlib_KERNEL_FAIL"), DW_AT_const_value(0x00)
    1675                            .dwattr $C$DW$170, DW_AT_decl_file(".\..\packages\ti\vlib\src\VLIB_imagePyramid8\../common/VLI
    1676                            .dwattr $C$DW$170, DW_AT_decl_line(0x72)
    1677                            .dwattr $C$DW$170, DW_AT_decl_column(0x05)
    1678                    $C$DW$171       .dwtag  DW_TAG_enumerator, DW_AT_name("vlib_KERNEL_PASS"), DW_AT_const_value(0x01)
    1679                            .dwattr $C$DW$171, DW_AT_decl_file(".\..\packages\ti\vlib\src\VLIB_imagePyramid8\../common/VLI
    1680                            .dwattr $C$DW$171, DW_AT_decl_line(0x73)
    1681                            .dwattr $C$DW$171, DW_AT_decl_column(0x05)
    1682                            .dwendtag $C$DW$T$39
    1683                    
    1684                            .dwattr $C$DW$T$39, DW_AT_decl_file(".\..\packages\ti\vlib\src\VLIB_imagePyramid8\../common/VL
    1685                            .dwattr $C$DW$T$39, DW_AT_decl_line(0x71)
    1686                            .dwattr $C$DW$T$39, DW_AT_decl_column(0x06)
    1687                    
    1688                    $C$DW$T$22      .dwtag  DW_TAG_structure_type
TMS320C6x Assembler PC v7.4.2 Thu Mar 19 12:42:11 2015

Tools Copyright (c) 1996-2012 Texas Instruments Incorporated
package/lib/Regression/regress_d_c/./../packages/ti/vlib/src/VLIB_imagePyramid8/VLIB_imagePyramid8_d.se66 PAGE   38

    1689                            .dwattr $C$DW$T$22, DW_AT_byte_size(0x10)
    1690                    $C$DW$172       .dwtag  DW_TAG_member
    1691                            .dwattr $C$DW$172, DW_AT_type(*$C$DW$T$19)
    1692                            .dwattr $C$DW$172, DW_AT_name("testPattern")
    1693                            .dwattr $C$DW$172, DW_AT_TI_symbol_name("testPattern")
    1694                            .dwattr $C$DW$172, DW_AT_data_member_location[DW_OP_plus_uconst 0x0]
    1695                            .dwattr $C$DW$172, DW_AT_accessibility(DW_ACCESS_public)
    1696                            .dwattr $C$DW$172, DW_AT_decl_file(".\..\packages\ti\vlib\src\VLIB_imagePyramid8\VLIB_imagePyr
    1697                            .dwattr $C$DW$172, DW_AT_decl_line(0x24)
    1698                            .dwattr $C$DW$172, DW_AT_decl_column(0x0e)
    1699                    $C$DW$173       .dwtag  DW_TAG_member
    1700                            .dwattr $C$DW$173, DW_AT_type(*$C$DW$T$20)
    1701                            .dwattr $C$DW$173, DW_AT_name("staticIn")
    1702                            .dwattr $C$DW$173, DW_AT_TI_symbol_name("staticIn")
    1703                            .dwattr $C$DW$173, DW_AT_data_member_location[DW_OP_plus_uconst 0x4]
    1704                            .dwattr $C$DW$173, DW_AT_accessibility(DW_ACCESS_public)
    1705                            .dwattr $C$DW$173, DW_AT_decl_file(".\..\packages\ti\vlib\src\VLIB_imagePyramid8\VLIB_imagePyr
    1706                            .dwattr $C$DW$173, DW_AT_decl_line(0x25)
    1707                            .dwattr $C$DW$173, DW_AT_decl_column(0x0e)
    1708                    $C$DW$174       .dwtag  DW_TAG_member
    1709                            .dwattr $C$DW$174, DW_AT_type(*$C$DW$T$20)
    1710                            .dwattr $C$DW$174, DW_AT_name("staticOut")
    1711                            .dwattr $C$DW$174, DW_AT_TI_symbol_name("staticOut")
    1712                            .dwattr $C$DW$174, DW_AT_data_member_location[DW_OP_plus_uconst 0x8]
    1713                            .dwattr $C$DW$174, DW_AT_accessibility(DW_ACCESS_public)
    1714                            .dwattr $C$DW$174, DW_AT_decl_file(".\..\packages\ti\vlib\src\VLIB_imagePyramid8\VLIB_imagePyr
    1715                            .dwattr $C$DW$174, DW_AT_decl_line(0x26)
    1716                            .dwattr $C$DW$174, DW_AT_decl_column(0x0e)
    1717                    $C$DW$175       .dwtag  DW_TAG_member
    1718                            .dwattr $C$DW$175, DW_AT_type(*$C$DW$T$21)
    1719                            .dwattr $C$DW$175, DW_AT_name("inCols")
    1720                            .dwattr $C$DW$175, DW_AT_TI_symbol_name("inCols")
    1721                            .dwattr $C$DW$175, DW_AT_data_member_location[DW_OP_plus_uconst 0xc]
    1722                            .dwattr $C$DW$175, DW_AT_accessibility(DW_ACCESS_public)
    1723                            .dwattr $C$DW$175, DW_AT_decl_file(".\..\packages\ti\vlib\src\VLIB_imagePyramid8\VLIB_imagePyr
    1724                            .dwattr $C$DW$175, DW_AT_decl_line(0x27)
    1725                            .dwattr $C$DW$175, DW_AT_decl_column(0x0e)
    1726                    $C$DW$176       .dwtag  DW_TAG_member
    1727                            .dwattr $C$DW$176, DW_AT_type(*$C$DW$T$21)
    1728                            .dwattr $C$DW$176, DW_AT_name("inRows")
    1729                            .dwattr $C$DW$176, DW_AT_TI_symbol_name("inRows")
    1730                            .dwattr $C$DW$176, DW_AT_data_member_location[DW_OP_plus_uconst 0xe]
    1731                            .dwattr $C$DW$176, DW_AT_accessibility(DW_ACCESS_public)
    1732                            .dwattr $C$DW$176, DW_AT_decl_file(".\..\packages\ti\vlib\src\VLIB_imagePyramid8\VLIB_imagePyr
    1733                            .dwattr $C$DW$176, DW_AT_decl_line(0x28)
    1734                            .dwattr $C$DW$176, DW_AT_decl_column(0x0e)
    1735                            .dwendtag $C$DW$T$22
    1736                    
    1737                            .dwattr $C$DW$T$22, DW_AT_decl_file(".\..\packages\ti\vlib\src\VLIB_imagePyramid8\VLIB_imagePy
    1738                            .dwattr $C$DW$T$22, DW_AT_decl_line(0x23)
    1739                            .dwattr $C$DW$T$22, DW_AT_decl_column(0x10)
    1740                    $C$DW$T$40      .dwtag  DW_TAG_pointer_type
    1741                            .dwattr $C$DW$T$40, DW_AT_type(*$C$DW$T$22)
    1742                            .dwattr $C$DW$T$40, DW_AT_address_class(0x20)
    1743                    $C$DW$T$42      .dwtag  DW_TAG_typedef, DW_AT_name("imagePyramid8_testParams_t")
TMS320C6x Assembler PC v7.4.2 Thu Mar 19 12:42:11 2015

Tools Copyright (c) 1996-2012 Texas Instruments Incorporated
package/lib/Regression/regress_d_c/./../packages/ti/vlib/src/VLIB_imagePyramid8/VLIB_imagePyramid8_d.se66 PAGE   39

    1744                            .dwattr $C$DW$T$42, DW_AT_type(*$C$DW$T$22)
    1745                            .dwattr $C$DW$T$42, DW_AT_language(DW_LANG_C)
    1746                            .dwattr $C$DW$T$42, DW_AT_decl_file(".\..\packages\ti\vlib\src\VLIB_imagePyramid8\VLIB_imagePy
    1747                            .dwattr $C$DW$T$42, DW_AT_decl_line(0x29)
    1748                            .dwattr $C$DW$T$42, DW_AT_decl_column(0x03)
    1749                    $C$DW$T$43      .dwtag  DW_TAG_pointer_type
    1750                            .dwattr $C$DW$T$43, DW_AT_type(*$C$DW$T$42)
    1751                            .dwattr $C$DW$T$43, DW_AT_address_class(0x20)
    1752                    $C$DW$T$44      .dwtag  DW_TAG_pointer_type
    1753                            .dwattr $C$DW$T$44, DW_AT_type(*$C$DW$T$43)
    1754                            .dwattr $C$DW$T$44, DW_AT_address_class(0x20)
    1755                    
    1756                    $C$DW$T$24      .dwtag  DW_TAG_structure_type
    1757                            .dwattr $C$DW$T$24, DW_AT_byte_size(0x18)
    1758                    $C$DW$177       .dwtag  DW_TAG_member
    1759                            .dwattr $C$DW$177, DW_AT_type(*$C$DW$T$10)
    1760                            .dwattr $C$DW$177, DW_AT_name("fd")
    1761                            .dwattr $C$DW$177, DW_AT_TI_symbol_name("fd")
    1762                            .dwattr $C$DW$177, DW_AT_data_member_location[DW_OP_plus_uconst 0x0]
    1763                            .dwattr $C$DW$177, DW_AT_accessibility(DW_ACCESS_public)
    1764                            .dwattr $C$DW$177, DW_AT_decl_file("C:/VLIB_Tools/CCSV5_4_0/ccsv5/tools/compiler/C6000/include
    1765                            .dwattr $C$DW$177, DW_AT_decl_line(0x49)
    1766                            .dwattr $C$DW$177, DW_AT_decl_column(0x0b)
    1767                    $C$DW$178       .dwtag  DW_TAG_member
    1768                            .dwattr $C$DW$178, DW_AT_type(*$C$DW$T$23)
    1769                            .dwattr $C$DW$178, DW_AT_name("buf")
    1770                            .dwattr $C$DW$178, DW_AT_TI_symbol_name("buf")
    1771                            .dwattr $C$DW$178, DW_AT_data_member_location[DW_OP_plus_uconst 0x4]
    1772                            .dwattr $C$DW$178, DW_AT_accessibility(DW_ACCESS_public)
    1773                            .dwattr $C$DW$178, DW_AT_decl_file("C:/VLIB_Tools/CCSV5_4_0/ccsv5/tools/compiler/C6000/include
    1774                            .dwattr $C$DW$178, DW_AT_decl_line(0x4a)
    1775                            .dwattr $C$DW$178, DW_AT_decl_column(0x16)
    1776                    $C$DW$179       .dwtag  DW_TAG_member
    1777                            .dwattr $C$DW$179, DW_AT_type(*$C$DW$T$23)
    1778                            .dwattr $C$DW$179, DW_AT_name("pos")
    1779                            .dwattr $C$DW$179, DW_AT_TI_symbol_name("pos")
    1780                            .dwattr $C$DW$179, DW_AT_data_member_location[DW_OP_plus_uconst 0x8]
    1781                            .dwattr $C$DW$179, DW_AT_accessibility(DW_ACCESS_public)
    1782                            .dwattr $C$DW$179, DW_AT_decl_file("C:/VLIB_Tools/CCSV5_4_0/ccsv5/tools/compiler/C6000/include
    1783                            .dwattr $C$DW$179, DW_AT_decl_line(0x4b)
    1784                            .dwattr $C$DW$179, DW_AT_decl_column(0x16)
    1785                    $C$DW$180       .dwtag  DW_TAG_member
    1786                            .dwattr $C$DW$180, DW_AT_type(*$C$DW$T$23)
    1787                            .dwattr $C$DW$180, DW_AT_name("bufend")
    1788                            .dwattr $C$DW$180, DW_AT_TI_symbol_name("bufend")
    1789                            .dwattr $C$DW$180, DW_AT_data_member_location[DW_OP_plus_uconst 0xc]
    1790                            .dwattr $C$DW$180, DW_AT_accessibility(DW_ACCESS_public)
    1791                            .dwattr $C$DW$180, DW_AT_decl_file("C:/VLIB_Tools/CCSV5_4_0/ccsv5/tools/compiler/C6000/include
    1792                            .dwattr $C$DW$180, DW_AT_decl_line(0x4c)
    1793                            .dwattr $C$DW$180, DW_AT_decl_column(0x16)
    1794                    $C$DW$181       .dwtag  DW_TAG_member
    1795                            .dwattr $C$DW$181, DW_AT_type(*$C$DW$T$23)
    1796                            .dwattr $C$DW$181, DW_AT_name("buff_stop")
    1797                            .dwattr $C$DW$181, DW_AT_TI_symbol_name("buff_stop")
    1798                            .dwattr $C$DW$181, DW_AT_data_member_location[DW_OP_plus_uconst 0x10]
TMS320C6x Assembler PC v7.4.2 Thu Mar 19 12:42:11 2015

Tools Copyright (c) 1996-2012 Texas Instruments Incorporated
package/lib/Regression/regress_d_c/./../packages/ti/vlib/src/VLIB_imagePyramid8/VLIB_imagePyramid8_d.se66 PAGE   40

    1799                            .dwattr $C$DW$181, DW_AT_accessibility(DW_ACCESS_public)
    1800                            .dwattr $C$DW$181, DW_AT_decl_file("C:/VLIB_Tools/CCSV5_4_0/ccsv5/tools/compiler/C6000/include
    1801                            .dwattr $C$DW$181, DW_AT_decl_line(0x4d)
    1802                            .dwattr $C$DW$181, DW_AT_decl_column(0x16)
    1803                    $C$DW$182       .dwtag  DW_TAG_member
    1804                            .dwattr $C$DW$182, DW_AT_type(*$C$DW$T$11)
    1805                            .dwattr $C$DW$182, DW_AT_name("flags")
    1806                            .dwattr $C$DW$182, DW_AT_TI_symbol_name("flags")
    1807                            .dwattr $C$DW$182, DW_AT_data_member_location[DW_OP_plus_uconst 0x14]
    1808                            .dwattr $C$DW$182, DW_AT_accessibility(DW_ACCESS_public)
    1809                            .dwattr $C$DW$182, DW_AT_decl_file("C:/VLIB_Tools/CCSV5_4_0/ccsv5/tools/compiler/C6000/include
    1810                            .dwattr $C$DW$182, DW_AT_decl_line(0x4e)
    1811                            .dwattr $C$DW$182, DW_AT_decl_column(0x16)
    1812                            .dwendtag $C$DW$T$24
    1813                    
    1814                            .dwattr $C$DW$T$24, DW_AT_decl_file("C:/VLIB_Tools/CCSV5_4_0/ccsv5/tools/compiler/C6000/includ
    1815                            .dwattr $C$DW$T$24, DW_AT_decl_line(0x48)
    1816                            .dwattr $C$DW$T$24, DW_AT_decl_column(0x10)
    1817                    $C$DW$T$45      .dwtag  DW_TAG_typedef, DW_AT_name("FILE")
    1818                            .dwattr $C$DW$T$45, DW_AT_type(*$C$DW$T$24)
    1819                            .dwattr $C$DW$T$45, DW_AT_language(DW_LANG_C)
    1820                            .dwattr $C$DW$T$45, DW_AT_decl_file("C:/VLIB_Tools/CCSV5_4_0/ccsv5/tools/compiler/C6000/includ
    1821                            .dwattr $C$DW$T$45, DW_AT_decl_line(0x4f)
    1822                            .dwattr $C$DW$T$45, DW_AT_decl_column(0x03)
    1823                    
    1824                    $C$DW$T$25      .dwtag  DW_TAG_structure_type
    1825                            .dwattr $C$DW$T$25, DW_AT_byte_size(0x08)
    1826                    $C$DW$183       .dwtag  DW_TAG_member
    1827                            .dwattr $C$DW$183, DW_AT_type(*$C$DW$T$10)
    1828                            .dwattr $C$DW$183, DW_AT_name("quot")
    1829                            .dwattr $C$DW$183, DW_AT_TI_symbol_name("quot")
    1830                            .dwattr $C$DW$183, DW_AT_data_member_location[DW_OP_plus_uconst 0x0]
    1831                            .dwattr $C$DW$183, DW_AT_accessibility(DW_ACCESS_public)
    1832                            .dwattr $C$DW$183, DW_AT_decl_file("C:/VLIB_Tools/CCSV5_4_0/ccsv5/tools/compiler/C6000/include
    1833                            .dwattr $C$DW$183, DW_AT_decl_line(0x3e)
    1834                            .dwattr $C$DW$183, DW_AT_decl_column(0x16)
    1835                    $C$DW$184       .dwtag  DW_TAG_member
    1836                            .dwattr $C$DW$184, DW_AT_type(*$C$DW$T$10)
    1837                            .dwattr $C$DW$184, DW_AT_name("rem")
    1838                            .dwattr $C$DW$184, DW_AT_TI_symbol_name("rem")
    1839                            .dwattr $C$DW$184, DW_AT_data_member_location[DW_OP_plus_uconst 0x4]
    1840                            .dwattr $C$DW$184, DW_AT_accessibility(DW_ACCESS_public)
    1841                            .dwattr $C$DW$184, DW_AT_decl_file("C:/VLIB_Tools/CCSV5_4_0/ccsv5/tools/compiler/C6000/include
    1842                            .dwattr $C$DW$184, DW_AT_decl_line(0x3e)
    1843                            .dwattr $C$DW$184, DW_AT_decl_column(0x1c)
    1844                            .dwendtag $C$DW$T$25
    1845                    
    1846                            .dwattr $C$DW$T$25, DW_AT_decl_file("C:/VLIB_Tools/CCSV5_4_0/ccsv5/tools/compiler/C6000/includ
    1847                            .dwattr $C$DW$T$25, DW_AT_decl_line(0x3e)
    1848                            .dwattr $C$DW$T$25, DW_AT_decl_column(0x10)
    1849                    $C$DW$T$46      .dwtag  DW_TAG_typedef, DW_AT_name("div_t")
    1850                            .dwattr $C$DW$T$46, DW_AT_type(*$C$DW$T$25)
    1851                            .dwattr $C$DW$T$46, DW_AT_language(DW_LANG_C)
    1852                            .dwattr $C$DW$T$46, DW_AT_decl_file("C:/VLIB_Tools/CCSV5_4_0/ccsv5/tools/compiler/C6000/includ
    1853                            .dwattr $C$DW$T$46, DW_AT_decl_line(0x3e)
TMS320C6x Assembler PC v7.4.2 Thu Mar 19 12:42:11 2015

Tools Copyright (c) 1996-2012 Texas Instruments Incorporated
package/lib/Regression/regress_d_c/./../packages/ti/vlib/src/VLIB_imagePyramid8/VLIB_imagePyramid8_d.se66 PAGE   41

    1854                            .dwattr $C$DW$T$46, DW_AT_decl_column(0x23)
    1855                    
    1856                    $C$DW$T$26      .dwtag  DW_TAG_structure_type
    1857                            .dwattr $C$DW$T$26, DW_AT_byte_size(0x08)
    1858                    $C$DW$185       .dwtag  DW_TAG_member
    1859                            .dwattr $C$DW$185, DW_AT_type(*$C$DW$T$10)
    1860                            .dwattr $C$DW$185, DW_AT_name("quot")
    1861                            .dwattr $C$DW$185, DW_AT_TI_symbol_name("quot")
    1862                            .dwattr $C$DW$185, DW_AT_data_member_location[DW_OP_plus_uconst 0x0]
    1863                            .dwattr $C$DW$185, DW_AT_accessibility(DW_ACCESS_public)
    1864                            .dwattr $C$DW$185, DW_AT_decl_file("C:/VLIB_Tools/CCSV5_4_0/ccsv5/tools/compiler/C6000/include
    1865                            .dwattr $C$DW$185, DW_AT_decl_line(0x40)
    1866                            .dwattr $C$DW$185, DW_AT_decl_column(0x17)
    1867                    $C$DW$186       .dwtag  DW_TAG_member
    1868                            .dwattr $C$DW$186, DW_AT_type(*$C$DW$T$10)
    1869                            .dwattr $C$DW$186, DW_AT_name("rem")
    1870                            .dwattr $C$DW$186, DW_AT_TI_symbol_name("rem")
    1871                            .dwattr $C$DW$186, DW_AT_data_member_location[DW_OP_plus_uconst 0x4]
    1872                            .dwattr $C$DW$186, DW_AT_accessibility(DW_ACCESS_public)
    1873                            .dwattr $C$DW$186, DW_AT_decl_file("C:/VLIB_Tools/CCSV5_4_0/ccsv5/tools/compiler/C6000/include
    1874                            .dwattr $C$DW$186, DW_AT_decl_line(0x40)
    1875                            .dwattr $C$DW$186, DW_AT_decl_column(0x1d)
    1876                            .dwendtag $C$DW$T$26
    1877                    
    1878                            .dwattr $C$DW$T$26, DW_AT_decl_file("C:/VLIB_Tools/CCSV5_4_0/ccsv5/tools/compiler/C6000/includ
    1879                            .dwattr $C$DW$T$26, DW_AT_decl_line(0x40)
    1880                            .dwattr $C$DW$T$26, DW_AT_decl_column(0x10)
    1881                    $C$DW$T$47      .dwtag  DW_TAG_typedef, DW_AT_name("ldiv_t")
    1882                            .dwattr $C$DW$T$47, DW_AT_type(*$C$DW$T$26)
    1883                            .dwattr $C$DW$T$47, DW_AT_language(DW_LANG_C)
    1884                            .dwattr $C$DW$T$47, DW_AT_decl_file("C:/VLIB_Tools/CCSV5_4_0/ccsv5/tools/compiler/C6000/includ
    1885                            .dwattr $C$DW$T$47, DW_AT_decl_line(0x40)
    1886                            .dwattr $C$DW$T$47, DW_AT_decl_column(0x24)
    1887                    
    1888                    $C$DW$T$27      .dwtag  DW_TAG_structure_type
    1889                            .dwattr $C$DW$T$27, DW_AT_byte_size(0x10)
    1890                    $C$DW$187       .dwtag  DW_TAG_member
    1891                            .dwattr $C$DW$187, DW_AT_type(*$C$DW$T$14)
    1892                            .dwattr $C$DW$187, DW_AT_name("quot")
    1893                            .dwattr $C$DW$187, DW_AT_TI_symbol_name("quot")
    1894                            .dwattr $C$DW$187, DW_AT_data_member_location[DW_OP_plus_uconst 0x0]
    1895                            .dwattr $C$DW$187, DW_AT_accessibility(DW_ACCESS_public)
    1896                            .dwattr $C$DW$187, DW_AT_decl_file("C:/VLIB_Tools/CCSV5_4_0/ccsv5/tools/compiler/C6000/include
    1897                            .dwattr $C$DW$187, DW_AT_decl_line(0x43)
    1898                            .dwattr $C$DW$187, DW_AT_decl_column(0x1c)
    1899                    $C$DW$188       .dwtag  DW_TAG_member
    1900                            .dwattr $C$DW$188, DW_AT_type(*$C$DW$T$14)
    1901                            .dwattr $C$DW$188, DW_AT_name("rem")
    1902                            .dwattr $C$DW$188, DW_AT_TI_symbol_name("rem")
    1903                            .dwattr $C$DW$188, DW_AT_data_member_location[DW_OP_plus_uconst 0x8]
    1904                            .dwattr $C$DW$188, DW_AT_accessibility(DW_ACCESS_public)
    1905                            .dwattr $C$DW$188, DW_AT_decl_file("C:/VLIB_Tools/CCSV5_4_0/ccsv5/tools/compiler/C6000/include
    1906                            .dwattr $C$DW$188, DW_AT_decl_line(0x43)
    1907                            .dwattr $C$DW$188, DW_AT_decl_column(0x22)
    1908                            .dwendtag $C$DW$T$27
TMS320C6x Assembler PC v7.4.2 Thu Mar 19 12:42:11 2015

Tools Copyright (c) 1996-2012 Texas Instruments Incorporated
package/lib/Regression/regress_d_c/./../packages/ti/vlib/src/VLIB_imagePyramid8/VLIB_imagePyramid8_d.se66 PAGE   42

    1909                    
    1910                            .dwattr $C$DW$T$27, DW_AT_decl_file("C:/VLIB_Tools/CCSV5_4_0/ccsv5/tools/compiler/C6000/includ
    1911                            .dwattr $C$DW$T$27, DW_AT_decl_line(0x43)
    1912                            .dwattr $C$DW$T$27, DW_AT_decl_column(0x10)
    1913                    $C$DW$T$48      .dwtag  DW_TAG_typedef, DW_AT_name("lldiv_t")
    1914                            .dwattr $C$DW$T$48, DW_AT_type(*$C$DW$T$27)
    1915                            .dwattr $C$DW$T$48, DW_AT_language(DW_LANG_C)
    1916                            .dwattr $C$DW$T$48, DW_AT_decl_file("C:/VLIB_Tools/CCSV5_4_0/ccsv5/tools/compiler/C6000/includ
    1917                            .dwattr $C$DW$T$48, DW_AT_decl_line(0x43)
    1918                            .dwattr $C$DW$T$48, DW_AT_decl_column(0x29)
    1919                    
    1920                    $C$DW$T$29      .dwtag  DW_TAG_structure_type
    1921                            .dwattr $C$DW$T$29, DW_AT_byte_size(0x24)
    1922                    $C$DW$189       .dwtag  DW_TAG_member
    1923                            .dwattr $C$DW$189, DW_AT_type(*$C$DW$T$28)
    1924                            .dwattr $C$DW$189, DW_AT_name("area")
    1925                            .dwattr $C$DW$189, DW_AT_TI_symbol_name("area")
    1926                            .dwattr $C$DW$189, DW_AT_data_member_location[DW_OP_plus_uconst 0x0]
    1927                            .dwattr $C$DW$189, DW_AT_accessibility(DW_ACCESS_public)
    1928                            .dwattr $C$DW$189, DW_AT_decl_file(".\..\packages\ti\vlib\src\VLIB_imagePyramid8\..\common\c66
    1929                            .dwattr $C$DW$189, DW_AT_decl_line(0x69)
    1930                            .dwattr $C$DW$189, DW_AT_decl_column(0x0d)
    1931                    $C$DW$190       .dwtag  DW_TAG_member
    1932                            .dwattr $C$DW$190, DW_AT_type(*$C$DW$T$28)
    1933                            .dwattr $C$DW$190, DW_AT_name("xsum")
    1934                            .dwattr $C$DW$190, DW_AT_TI_symbol_name("xsum")
    1935                            .dwattr $C$DW$190, DW_AT_data_member_location[DW_OP_plus_uconst 0x4]
    1936                            .dwattr $C$DW$190, DW_AT_accessibility(DW_ACCESS_public)
    1937                            .dwattr $C$DW$190, DW_AT_decl_file(".\..\packages\ti\vlib\src\VLIB_imagePyramid8\..\common\c66
    1938                            .dwattr $C$DW$190, DW_AT_decl_line(0x6a)
    1939                            .dwattr $C$DW$190, DW_AT_decl_column(0x0d)
    1940                    $C$DW$191       .dwtag  DW_TAG_member
    1941                            .dwattr $C$DW$191, DW_AT_type(*$C$DW$T$28)
    1942                            .dwattr $C$DW$191, DW_AT_name("ysum")
    1943                            .dwattr $C$DW$191, DW_AT_TI_symbol_name("ysum")
    1944                            .dwattr $C$DW$191, DW_AT_data_member_location[DW_OP_plus_uconst 0x8]
    1945                            .dwattr $C$DW$191, DW_AT_accessibility(DW_ACCESS_public)
    1946                            .dwattr $C$DW$191, DW_AT_decl_file(".\..\packages\ti\vlib\src\VLIB_imagePyramid8\..\common\c66
    1947                            .dwattr $C$DW$191, DW_AT_decl_line(0x6b)
    1948                            .dwattr $C$DW$191, DW_AT_decl_column(0x0d)
    1949                    $C$DW$192       .dwtag  DW_TAG_member
    1950                            .dwattr $C$DW$192, DW_AT_type(*$C$DW$T$28)
    1951                            .dwattr $C$DW$192, DW_AT_name("xmin")
    1952                            .dwattr $C$DW$192, DW_AT_TI_symbol_name("xmin")
    1953                            .dwattr $C$DW$192, DW_AT_data_member_location[DW_OP_plus_uconst 0xc]
    1954                            .dwattr $C$DW$192, DW_AT_accessibility(DW_ACCESS_public)
    1955                            .dwattr $C$DW$192, DW_AT_decl_file(".\..\packages\ti\vlib\src\VLIB_imagePyramid8\..\common\c66
    1956                            .dwattr $C$DW$192, DW_AT_decl_line(0x6d)
    1957                            .dwattr $C$DW$192, DW_AT_decl_column(0x0d)
    1958                    $C$DW$193       .dwtag  DW_TAG_member
    1959                            .dwattr $C$DW$193, DW_AT_type(*$C$DW$T$28)
    1960                            .dwattr $C$DW$193, DW_AT_name("ymin")
    1961                            .dwattr $C$DW$193, DW_AT_TI_symbol_name("ymin")
    1962                            .dwattr $C$DW$193, DW_AT_data_member_location[DW_OP_plus_uconst 0x10]
    1963                            .dwattr $C$DW$193, DW_AT_accessibility(DW_ACCESS_public)
TMS320C6x Assembler PC v7.4.2 Thu Mar 19 12:42:11 2015

Tools Copyright (c) 1996-2012 Texas Instruments Incorporated
package/lib/Regression/regress_d_c/./../packages/ti/vlib/src/VLIB_imagePyramid8/VLIB_imagePyramid8_d.se66 PAGE   43

    1964                            .dwattr $C$DW$193, DW_AT_decl_file(".\..\packages\ti\vlib\src\VLIB_imagePyramid8\..\common\c66
    1965                            .dwattr $C$DW$193, DW_AT_decl_line(0x6e)
    1966                            .dwattr $C$DW$193, DW_AT_decl_column(0x0d)
    1967                    $C$DW$194       .dwtag  DW_TAG_member
    1968                            .dwattr $C$DW$194, DW_AT_type(*$C$DW$T$28)
    1969                            .dwattr $C$DW$194, DW_AT_name("xmax")
    1970                            .dwattr $C$DW$194, DW_AT_TI_symbol_name("xmax")
    1971                            .dwattr $C$DW$194, DW_AT_data_member_location[DW_OP_plus_uconst 0x14]
    1972                            .dwattr $C$DW$194, DW_AT_accessibility(DW_ACCESS_public)
    1973                            .dwattr $C$DW$194, DW_AT_decl_file(".\..\packages\ti\vlib\src\VLIB_imagePyramid8\..\common\c66
    1974                            .dwattr $C$DW$194, DW_AT_decl_line(0x6f)
    1975                            .dwattr $C$DW$194, DW_AT_decl_column(0x0d)
    1976                    $C$DW$195       .dwtag  DW_TAG_member
    1977                            .dwattr $C$DW$195, DW_AT_type(*$C$DW$T$28)
    1978                            .dwattr $C$DW$195, DW_AT_name("ymax")
    1979                            .dwattr $C$DW$195, DW_AT_TI_symbol_name("ymax")
    1980                            .dwattr $C$DW$195, DW_AT_data_member_location[DW_OP_plus_uconst 0x18]
    1981                            .dwattr $C$DW$195, DW_AT_accessibility(DW_ACCESS_public)
    1982                            .dwattr $C$DW$195, DW_AT_decl_file(".\..\packages\ti\vlib\src\VLIB_imagePyramid8\..\common\c66
    1983                            .dwattr $C$DW$195, DW_AT_decl_line(0x70)
    1984                            .dwattr $C$DW$195, DW_AT_decl_column(0x0d)
    1985                    $C$DW$196       .dwtag  DW_TAG_member
    1986                            .dwattr $C$DW$196, DW_AT_type(*$C$DW$T$28)
    1987                            .dwattr $C$DW$196, DW_AT_name("seedx")
    1988                            .dwattr $C$DW$196, DW_AT_TI_symbol_name("seedx")
    1989                            .dwattr $C$DW$196, DW_AT_data_member_location[DW_OP_plus_uconst 0x1c]
    1990                            .dwattr $C$DW$196, DW_AT_accessibility(DW_ACCESS_public)
    1991                            .dwattr $C$DW$196, DW_AT_decl_file(".\..\packages\ti\vlib\src\VLIB_imagePyramid8\..\common\c66
    1992                            .dwattr $C$DW$196, DW_AT_decl_line(0x72)
    1993                            .dwattr $C$DW$196, DW_AT_decl_column(0x0d)
    1994                    $C$DW$197       .dwtag  DW_TAG_member
    1995                            .dwattr $C$DW$197, DW_AT_type(*$C$DW$T$28)
    1996                            .dwattr $C$DW$197, DW_AT_name("seedy")
    1997                            .dwattr $C$DW$197, DW_AT_TI_symbol_name("seedy")
    1998                            .dwattr $C$DW$197, DW_AT_data_member_location[DW_OP_plus_uconst 0x20]
    1999                            .dwattr $C$DW$197, DW_AT_accessibility(DW_ACCESS_public)
    2000                            .dwattr $C$DW$197, DW_AT_decl_file(".\..\packages\ti\vlib\src\VLIB_imagePyramid8\..\common\c66
    2001                            .dwattr $C$DW$197, DW_AT_decl_line(0x73)
    2002                            .dwattr $C$DW$197, DW_AT_decl_column(0x0d)
    2003                            .dwendtag $C$DW$T$29
    2004                    
    2005                            .dwattr $C$DW$T$29, DW_AT_decl_file(".\..\packages\ti\vlib\src\VLIB_imagePyramid8\..\common\c6
    2006                            .dwattr $C$DW$T$29, DW_AT_decl_line(0x68)
    2007                            .dwattr $C$DW$T$29, DW_AT_decl_column(0x10)
    2008                    $C$DW$T$49      .dwtag  DW_TAG_typedef, DW_AT_name("VLIB_CC")
    2009                            .dwattr $C$DW$T$49, DW_AT_type(*$C$DW$T$29)
    2010                            .dwattr $C$DW$T$49, DW_AT_language(DW_LANG_C)
    2011                            .dwattr $C$DW$T$49, DW_AT_decl_file(".\..\packages\ti\vlib\src\VLIB_imagePyramid8\..\common\c6
    2012                            .dwattr $C$DW$T$49, DW_AT_decl_line(0x75)
    2013                            .dwattr $C$DW$T$49, DW_AT_decl_column(0x03)
    2014                    
    2015                    $C$DW$T$32      .dwtag  DW_TAG_structure_type
    2016                            .dwattr $C$DW$T$32, DW_AT_byte_size(0x10)
    2017                    $C$DW$198       .dwtag  DW_TAG_member
    2018                            .dwattr $C$DW$198, DW_AT_type(*$C$DW$T$8)
TMS320C6x Assembler PC v7.4.2 Thu Mar 19 12:42:11 2015

Tools Copyright (c) 1996-2012 Texas Instruments Incorporated
package/lib/Regression/regress_d_c/./../packages/ti/vlib/src/VLIB_imagePyramid8/VLIB_imagePyramid8_d.se66 PAGE   44

    2019                            .dwattr $C$DW$198, DW_AT_name("daylight")
    2020                            .dwattr $C$DW$198, DW_AT_TI_symbol_name("daylight")
    2021                            .dwattr $C$DW$198, DW_AT_data_member_location[DW_OP_plus_uconst 0x0]
    2022                            .dwattr $C$DW$198, DW_AT_accessibility(DW_ACCESS_public)
    2023                            .dwattr $C$DW$198, DW_AT_decl_file("C:/VLIB_Tools/CCSV5_4_0/ccsv5/tools/compiler/C6000/include
    2024                            .dwattr $C$DW$198, DW_AT_decl_line(0x52)
    2025                            .dwattr $C$DW$198, DW_AT_decl_column(0x0b)
    2026                    $C$DW$199       .dwtag  DW_TAG_member
    2027                            .dwattr $C$DW$199, DW_AT_type(*$C$DW$T$10)
    2028                            .dwattr $C$DW$199, DW_AT_name("timezone")
    2029                            .dwattr $C$DW$199, DW_AT_TI_symbol_name("timezone")
    2030                            .dwattr $C$DW$199, DW_AT_data_member_location[DW_OP_plus_uconst 0x4]
    2031                            .dwattr $C$DW$199, DW_AT_accessibility(DW_ACCESS_public)
    2032                            .dwattr $C$DW$199, DW_AT_decl_file("C:/VLIB_Tools/CCSV5_4_0/ccsv5/tools/compiler/C6000/include
    2033                            .dwattr $C$DW$199, DW_AT_decl_line(0x53)
    2034                            .dwattr $C$DW$199, DW_AT_decl_column(0x0b)
    2035                    $C$DW$200       .dwtag  DW_TAG_member
    2036                            .dwattr $C$DW$200, DW_AT_type(*$C$DW$T$31)
    2037                            .dwattr $C$DW$200, DW_AT_name("tzname")
    2038                            .dwattr $C$DW$200, DW_AT_TI_symbol_name("tzname")
    2039                            .dwattr $C$DW$200, DW_AT_data_member_location[DW_OP_plus_uconst 0x8]
    2040                            .dwattr $C$DW$200, DW_AT_accessibility(DW_ACCESS_public)
    2041                            .dwattr $C$DW$200, DW_AT_decl_file("C:/VLIB_Tools/CCSV5_4_0/ccsv5/tools/compiler/C6000/include
    2042                            .dwattr $C$DW$200, DW_AT_decl_line(0x54)
    2043                            .dwattr $C$DW$200, DW_AT_decl_column(0x0b)
    2044                    $C$DW$201       .dwtag  DW_TAG_member
    2045                            .dwattr $C$DW$201, DW_AT_type(*$C$DW$T$31)
    2046                            .dwattr $C$DW$201, DW_AT_name("dstname")
    2047                            .dwattr $C$DW$201, DW_AT_TI_symbol_name("dstname")
    2048                            .dwattr $C$DW$201, DW_AT_data_member_location[DW_OP_plus_uconst 0xc]
    2049                            .dwattr $C$DW$201, DW_AT_accessibility(DW_ACCESS_public)
    2050                            .dwattr $C$DW$201, DW_AT_decl_file("C:/VLIB_Tools/CCSV5_4_0/ccsv5/tools/compiler/C6000/include
    2051                            .dwattr $C$DW$201, DW_AT_decl_line(0x55)
    2052                            .dwattr $C$DW$201, DW_AT_decl_column(0x0b)
    2053                            .dwendtag $C$DW$T$32
    2054                    
    2055                            .dwattr $C$DW$T$32, DW_AT_decl_file("C:/VLIB_Tools/CCSV5_4_0/ccsv5/tools/compiler/C6000/includ
    2056                            .dwattr $C$DW$T$32, DW_AT_decl_line(0x51)
    2057                            .dwattr $C$DW$T$32, DW_AT_decl_column(0x01)
    2058                    $C$DW$T$50      .dwtag  DW_TAG_typedef, DW_AT_name("TZ")
    2059                            .dwattr $C$DW$T$50, DW_AT_type(*$C$DW$T$32)
    2060                            .dwattr $C$DW$T$50, DW_AT_language(DW_LANG_C)
    2061                            .dwattr $C$DW$T$50, DW_AT_decl_file("C:/VLIB_Tools/CCSV5_4_0/ccsv5/tools/compiler/C6000/includ
    2062                            .dwattr $C$DW$T$50, DW_AT_decl_line(0x56)
    2063                            .dwattr $C$DW$T$50, DW_AT_decl_column(0x03)
    2064                    $C$DW$T$2       .dwtag  DW_TAG_unspecified_type
    2065                            .dwattr $C$DW$T$2, DW_AT_name("void")
    2066                    $C$DW$T$3       .dwtag  DW_TAG_pointer_type
    2067                            .dwattr $C$DW$T$3, DW_AT_type(*$C$DW$T$2)
    2068                            .dwattr $C$DW$T$3, DW_AT_address_class(0x20)
    2069                    $C$DW$T$51      .dwtag  DW_TAG_typedef, DW_AT_name("VLIB_PTR")
    2070                            .dwattr $C$DW$T$51, DW_AT_type(*$C$DW$T$3)
    2071                            .dwattr $C$DW$T$51, DW_AT_language(DW_LANG_C)
    2072                            .dwattr $C$DW$T$51, DW_AT_decl_file(".\..\packages\ti\vlib\src\VLIB_imagePyramid8\..\common\c6
    2073                            .dwattr $C$DW$T$51, DW_AT_decl_line(0x5c)
TMS320C6x Assembler PC v7.4.2 Thu Mar 19 12:42:11 2015

Tools Copyright (c) 1996-2012 Texas Instruments Incorporated
package/lib/Regression/regress_d_c/./../packages/ti/vlib/src/VLIB_imagePyramid8/VLIB_imagePyramid8_d.se66 PAGE   45

    2074                            .dwattr $C$DW$T$51, DW_AT_decl_column(0x19)
    2075                    $C$DW$T$4       .dwtag  DW_TAG_base_type
    2076                            .dwattr $C$DW$T$4, DW_AT_encoding(DW_ATE_boolean)
    2077                            .dwattr $C$DW$T$4, DW_AT_name("bool")
    2078                            .dwattr $C$DW$T$4, DW_AT_byte_size(0x01)
    2079                    $C$DW$T$5       .dwtag  DW_TAG_base_type
    2080                            .dwattr $C$DW$T$5, DW_AT_encoding(DW_ATE_signed_char)
    2081                            .dwattr $C$DW$T$5, DW_AT_name("signed char")
    2082                            .dwattr $C$DW$T$5, DW_AT_byte_size(0x01)
    2083                    $C$DW$T$80      .dwtag  DW_TAG_pointer_type
    2084                            .dwattr $C$DW$T$80, DW_AT_type(*$C$DW$T$5)
    2085                            .dwattr $C$DW$T$80, DW_AT_address_class(0x20)
    2086                    $C$DW$T$90      .dwtag  DW_TAG_typedef, DW_AT_name("int8_t")
    2087                            .dwattr $C$DW$T$90, DW_AT_type(*$C$DW$T$5)
    2088                            .dwattr $C$DW$T$90, DW_AT_language(DW_LANG_C)
    2089                            .dwattr $C$DW$T$90, DW_AT_decl_file("C:/VLIB_Tools/CCSV5_4_0/ccsv5/tools/compiler/C6000/includ
    2090                            .dwattr $C$DW$T$90, DW_AT_decl_line(0x2a)
    2091                            .dwattr $C$DW$T$90, DW_AT_decl_column(0x1d)
    2092                    $C$DW$T$91      .dwtag  DW_TAG_typedef, DW_AT_name("int_least8_t")
    2093                            .dwattr $C$DW$T$91, DW_AT_type(*$C$DW$T$90)
    2094                            .dwattr $C$DW$T$91, DW_AT_language(DW_LANG_C)
    2095                            .dwattr $C$DW$T$91, DW_AT_decl_file("C:/VLIB_Tools/CCSV5_4_0/ccsv5/tools/compiler/C6000/includ
    2096                            .dwattr $C$DW$T$91, DW_AT_decl_line(0x39)
    2097                            .dwattr $C$DW$T$91, DW_AT_decl_column(0x17)
    2098                    $C$DW$T$6       .dwtag  DW_TAG_base_type
    2099                            .dwattr $C$DW$T$6, DW_AT_encoding(DW_ATE_unsigned_char)
    2100                            .dwattr $C$DW$T$6, DW_AT_name("unsigned char")
    2101                            .dwattr $C$DW$T$6, DW_AT_byte_size(0x01)
    2102                    $C$DW$T$23      .dwtag  DW_TAG_pointer_type
    2103                            .dwattr $C$DW$T$23, DW_AT_type(*$C$DW$T$6)
    2104                            .dwattr $C$DW$T$23, DW_AT_address_class(0x20)
    2105                    $C$DW$T$19      .dwtag  DW_TAG_typedef, DW_AT_name("uint8_t")
    2106                            .dwattr $C$DW$T$19, DW_AT_type(*$C$DW$T$6)
    2107                            .dwattr $C$DW$T$19, DW_AT_language(DW_LANG_C)
    2108                            .dwattr $C$DW$T$19, DW_AT_decl_file("C:/VLIB_Tools/CCSV5_4_0/ccsv5/tools/compiler/C6000/includ
    2109                            .dwattr $C$DW$T$19, DW_AT_decl_line(0x2b)
    2110                            .dwattr $C$DW$T$19, DW_AT_decl_column(0x1c)
    2111                    $C$DW$T$20      .dwtag  DW_TAG_pointer_type
    2112                            .dwattr $C$DW$T$20, DW_AT_type(*$C$DW$T$19)
    2113                            .dwattr $C$DW$T$20, DW_AT_address_class(0x20)
    2114                    $C$DW$T$92      .dwtag  DW_TAG_restrict_type
    2115                            .dwattr $C$DW$T$92, DW_AT_type(*$C$DW$T$20)
    2116                    $C$DW$T$93      .dwtag  DW_TAG_const_type
    2117                            .dwattr $C$DW$T$93, DW_AT_type(*$C$DW$T$19)
    2118                    $C$DW$T$94      .dwtag  DW_TAG_pointer_type
    2119                            .dwattr $C$DW$T$94, DW_AT_type(*$C$DW$T$93)
    2120                            .dwattr $C$DW$T$94, DW_AT_address_class(0x20)
    2121                    $C$DW$T$95      .dwtag  DW_TAG_restrict_type
    2122                            .dwattr $C$DW$T$95, DW_AT_type(*$C$DW$T$94)
    2123                    $C$DW$T$96      .dwtag  DW_TAG_typedef, DW_AT_name("uint_least8_t")
    2124                            .dwattr $C$DW$T$96, DW_AT_type(*$C$DW$T$19)
    2125                            .dwattr $C$DW$T$96, DW_AT_language(DW_LANG_C)
    2126                            .dwattr $C$DW$T$96, DW_AT_decl_file("C:/VLIB_Tools/CCSV5_4_0/ccsv5/tools/compiler/C6000/includ
    2127                            .dwattr $C$DW$T$96, DW_AT_decl_line(0x3a)
    2128                            .dwattr $C$DW$T$96, DW_AT_decl_column(0x16)
TMS320C6x Assembler PC v7.4.2 Thu Mar 19 12:42:11 2015

Tools Copyright (c) 1996-2012 Texas Instruments Incorporated
package/lib/Regression/regress_d_c/./../packages/ti/vlib/src/VLIB_imagePyramid8/VLIB_imagePyramid8_d.se66 PAGE   46

    2129                    $C$DW$T$7       .dwtag  DW_TAG_base_type
    2130                            .dwattr $C$DW$T$7, DW_AT_encoding(DW_ATE_signed_char)
    2131                            .dwattr $C$DW$T$7, DW_AT_name("wchar_t")
    2132                            .dwattr $C$DW$T$7, DW_AT_byte_size(0x02)
    2133                    $C$DW$T$8       .dwtag  DW_TAG_base_type
    2134                            .dwattr $C$DW$T$8, DW_AT_encoding(DW_ATE_signed)
    2135                            .dwattr $C$DW$T$8, DW_AT_name("short")
    2136                            .dwattr $C$DW$T$8, DW_AT_byte_size(0x02)
    2137                    $C$DW$T$97      .dwtag  DW_TAG_typedef, DW_AT_name("int16_t")
    2138                            .dwattr $C$DW$T$97, DW_AT_type(*$C$DW$T$8)
    2139                            .dwattr $C$DW$T$97, DW_AT_language(DW_LANG_C)
    2140                            .dwattr $C$DW$T$97, DW_AT_decl_file("C:/VLIB_Tools/CCSV5_4_0/ccsv5/tools/compiler/C6000/includ
    2141                            .dwattr $C$DW$T$97, DW_AT_decl_line(0x2c)
    2142                            .dwattr $C$DW$T$97, DW_AT_decl_column(0x1d)
    2143                    $C$DW$T$98      .dwtag  DW_TAG_typedef, DW_AT_name("int_least16_t")
    2144                            .dwattr $C$DW$T$98, DW_AT_type(*$C$DW$T$97)
    2145                            .dwattr $C$DW$T$98, DW_AT_language(DW_LANG_C)
    2146                            .dwattr $C$DW$T$98, DW_AT_decl_file("C:/VLIB_Tools/CCSV5_4_0/ccsv5/tools/compiler/C6000/includ
    2147                            .dwattr $C$DW$T$98, DW_AT_decl_line(0x3c)
    2148                            .dwattr $C$DW$T$98, DW_AT_decl_column(0x17)
    2149                    $C$DW$T$9       .dwtag  DW_TAG_base_type
    2150                            .dwattr $C$DW$T$9, DW_AT_encoding(DW_ATE_unsigned)
    2151                            .dwattr $C$DW$T$9, DW_AT_name("unsigned short")
    2152                            .dwattr $C$DW$T$9, DW_AT_byte_size(0x02)
    2153                    $C$DW$T$21      .dwtag  DW_TAG_typedef, DW_AT_name("uint16_t")
    2154                            .dwattr $C$DW$T$21, DW_AT_type(*$C$DW$T$9)
    2155                            .dwattr $C$DW$T$21, DW_AT_language(DW_LANG_C)
    2156                            .dwattr $C$DW$T$21, DW_AT_decl_file("C:/VLIB_Tools/CCSV5_4_0/ccsv5/tools/compiler/C6000/includ
    2157                            .dwattr $C$DW$T$21, DW_AT_decl_line(0x2d)
    2158                            .dwattr $C$DW$T$21, DW_AT_decl_column(0x1c)
    2159                    $C$DW$T$100     .dwtag  DW_TAG_typedef, DW_AT_name("uint_least16_t")
    2160                            .dwattr $C$DW$T$100, DW_AT_type(*$C$DW$T$21)
    2161                            .dwattr $C$DW$T$100, DW_AT_language(DW_LANG_C)
    2162                            .dwattr $C$DW$T$100, DW_AT_decl_file("C:/VLIB_Tools/CCSV5_4_0/ccsv5/tools/compiler/C6000/inclu
    2163                            .dwattr $C$DW$T$100, DW_AT_decl_line(0x3d)
    2164                            .dwattr $C$DW$T$100, DW_AT_decl_column(0x16)
    2165                    $C$DW$T$99      .dwtag  DW_TAG_typedef, DW_AT_name("wchar_t")
    2166                            .dwattr $C$DW$T$99, DW_AT_type(*$C$DW$T$9)
    2167                            .dwattr $C$DW$T$99, DW_AT_language(DW_LANG_C)
    2168                            .dwattr $C$DW$T$99, DW_AT_decl_file("C:/VLIB_Tools/CCSV5_4_0/ccsv5/tools/compiler/C6000/includ
    2169                            .dwattr $C$DW$T$99, DW_AT_decl_line(0x53)
    2170                            .dwattr $C$DW$T$99, DW_AT_decl_column(0x1a)
    2171                    $C$DW$T$10      .dwtag  DW_TAG_base_type
    2172                            .dwattr $C$DW$T$10, DW_AT_encoding(DW_ATE_signed)
    2173                            .dwattr $C$DW$T$10, DW_AT_name("int")
    2174                            .dwattr $C$DW$T$10, DW_AT_byte_size(0x04)
    2175                    $C$DW$T$125     .dwtag  DW_TAG_typedef, DW_AT_name("fpos_t")
    2176                            .dwattr $C$DW$T$125, DW_AT_type(*$C$DW$T$10)
    2177                            .dwattr $C$DW$T$125, DW_AT_language(DW_LANG_C)
    2178                            .dwattr $C$DW$T$125, DW_AT_decl_file("C:/VLIB_Tools/CCSV5_4_0/ccsv5/tools/compiler/C6000/inclu
    2179                            .dwattr $C$DW$T$125, DW_AT_decl_line(0x53)
    2180                            .dwattr $C$DW$T$125, DW_AT_decl_column(0x0d)
    2181                    $C$DW$T$28      .dwtag  DW_TAG_typedef, DW_AT_name("int32_t")
    2182                            .dwattr $C$DW$T$28, DW_AT_type(*$C$DW$T$10)
    2183                            .dwattr $C$DW$T$28, DW_AT_language(DW_LANG_C)
TMS320C6x Assembler PC v7.4.2 Thu Mar 19 12:42:11 2015

Tools Copyright (c) 1996-2012 Texas Instruments Incorporated
package/lib/Regression/regress_d_c/./../packages/ti/vlib/src/VLIB_imagePyramid8/VLIB_imagePyramid8_d.se66 PAGE   47

    2184                            .dwattr $C$DW$T$28, DW_AT_decl_file("C:/VLIB_Tools/CCSV5_4_0/ccsv5/tools/compiler/C6000/includ
    2185                            .dwattr $C$DW$T$28, DW_AT_decl_line(0x2e)
    2186                            .dwattr $C$DW$T$28, DW_AT_decl_column(0x1d)
    2187                    $C$DW$T$116     .dwtag  DW_TAG_typedef, DW_AT_name("VLIB_CCHandle")
    2188                            .dwattr $C$DW$T$116, DW_AT_type(*$C$DW$T$28)
    2189                            .dwattr $C$DW$T$116, DW_AT_language(DW_LANG_C)
    2190                            .dwattr $C$DW$T$116, DW_AT_decl_file(".\..\packages\ti\vlib\src\VLIB_imagePyramid8\..\common\c
    2191                            .dwattr $C$DW$T$116, DW_AT_decl_line(0x77)
    2192                            .dwattr $C$DW$T$116, DW_AT_decl_column(0x11)
    2193                    
    2194                    $C$DW$T$33      .dwtag  DW_TAG_array_type
    2195                            .dwattr $C$DW$T$33, DW_AT_type(*$C$DW$T$28)
    2196                            .dwattr $C$DW$T$33, DW_AT_language(DW_LANG_C)
    2197                            .dwattr $C$DW$T$33, DW_AT_byte_size(0x10)
    2198                    $C$DW$202       .dwtag  DW_TAG_subrange_type
    2199                            .dwattr $C$DW$202, DW_AT_upper_bound(0x03)
    2200                            .dwendtag $C$DW$T$33
    2201                    
    2202                    $C$DW$T$76      .dwtag  DW_TAG_pointer_type
    2203                            .dwattr $C$DW$T$76, DW_AT_type(*$C$DW$T$28)
    2204                            .dwattr $C$DW$T$76, DW_AT_address_class(0x20)
    2205                    $C$DW$T$120     .dwtag  DW_TAG_typedef, DW_AT_name("int_fast16_t")
    2206                            .dwattr $C$DW$T$120, DW_AT_type(*$C$DW$T$28)
    2207                            .dwattr $C$DW$T$120, DW_AT_language(DW_LANG_C)
    2208                            .dwattr $C$DW$T$120, DW_AT_decl_file("C:/VLIB_Tools/CCSV5_4_0/ccsv5/tools/compiler/C6000/inclu
    2209                            .dwattr $C$DW$T$120, DW_AT_decl_line(0x4b)
    2210                            .dwattr $C$DW$T$120, DW_AT_decl_column(0x17)
    2211                    $C$DW$T$121     .dwtag  DW_TAG_typedef, DW_AT_name("int_fast32_t")
    2212                            .dwattr $C$DW$T$121, DW_AT_type(*$C$DW$T$28)
    2213                            .dwattr $C$DW$T$121, DW_AT_language(DW_LANG_C)
    2214                            .dwattr $C$DW$T$121, DW_AT_decl_file("C:/VLIB_Tools/CCSV5_4_0/ccsv5/tools/compiler/C6000/inclu
    2215                            .dwattr $C$DW$T$121, DW_AT_decl_line(0x4e)
    2216                            .dwattr $C$DW$T$121, DW_AT_decl_column(0x17)
    2217                    $C$DW$T$122     .dwtag  DW_TAG_typedef, DW_AT_name("int_fast8_t")
    2218                            .dwattr $C$DW$T$122, DW_AT_type(*$C$DW$T$28)
    2219                            .dwattr $C$DW$T$122, DW_AT_language(DW_LANG_C)
    2220                            .dwattr $C$DW$T$122, DW_AT_decl_file("C:/VLIB_Tools/CCSV5_4_0/ccsv5/tools/compiler/C6000/inclu
    2221                            .dwattr $C$DW$T$122, DW_AT_decl_line(0x49)
    2222                            .dwattr $C$DW$T$122, DW_AT_decl_column(0x17)
    2223                    $C$DW$T$123     .dwtag  DW_TAG_typedef, DW_AT_name("int_least32_t")
    2224                            .dwattr $C$DW$T$123, DW_AT_type(*$C$DW$T$28)
    2225                            .dwattr $C$DW$T$123, DW_AT_language(DW_LANG_C)
    2226                            .dwattr $C$DW$T$123, DW_AT_decl_file("C:/VLIB_Tools/CCSV5_4_0/ccsv5/tools/compiler/C6000/inclu
    2227                            .dwattr $C$DW$T$123, DW_AT_decl_line(0x3e)
    2228                            .dwattr $C$DW$T$123, DW_AT_decl_column(0x17)
    2229                    $C$DW$T$124     .dwtag  DW_TAG_typedef, DW_AT_name("intptr_t")
    2230                            .dwattr $C$DW$T$124, DW_AT_type(*$C$DW$T$10)
    2231                            .dwattr $C$DW$T$124, DW_AT_language(DW_LANG_C)
    2232                            .dwattr $C$DW$T$124, DW_AT_decl_file("C:/VLIB_Tools/CCSV5_4_0/ccsv5/tools/compiler/C6000/inclu
    2233                            .dwattr $C$DW$T$124, DW_AT_decl_line(0x58)
    2234                            .dwattr $C$DW$T$124, DW_AT_decl_column(0x1a)
    2235                    $C$DW$T$11      .dwtag  DW_TAG_base_type
    2236                            .dwattr $C$DW$T$11, DW_AT_encoding(DW_ATE_unsigned)
    2237                            .dwattr $C$DW$T$11, DW_AT_name("unsigned int")
    2238                            .dwattr $C$DW$T$11, DW_AT_byte_size(0x04)
TMS320C6x Assembler PC v7.4.2 Thu Mar 19 12:42:11 2015

Tools Copyright (c) 1996-2012 Texas Instruments Incorporated
package/lib/Regression/regress_d_c/./../packages/ti/vlib/src/VLIB_imagePyramid8/VLIB_imagePyramid8_d.se66 PAGE   48

    2239                    $C$DW$T$126     .dwtag  DW_TAG_typedef, DW_AT_name("VLIB_VAL")
    2240                            .dwattr $C$DW$T$126, DW_AT_type(*$C$DW$T$11)
    2241                            .dwattr $C$DW$T$126, DW_AT_language(DW_LANG_C)
    2242                            .dwattr $C$DW$T$126, DW_AT_decl_file(".\..\packages\ti\vlib\src\VLIB_imagePyramid8\..\common\c
    2243                            .dwattr $C$DW$T$126, DW_AT_decl_line(0x5d)
    2244                            .dwattr $C$DW$T$126, DW_AT_decl_column(0x17)
    2245                    $C$DW$T$137     .dwtag  DW_TAG_typedef, DW_AT_name("clock_t")
    2246                            .dwattr $C$DW$T$137, DW_AT_type(*$C$DW$T$11)
    2247                            .dwattr $C$DW$T$137, DW_AT_language(DW_LANG_C)
    2248                            .dwattr $C$DW$T$137, DW_AT_decl_file("C:/VLIB_Tools/CCSV5_4_0/ccsv5/tools/compiler/C6000/inclu
    2249                            .dwattr $C$DW$T$137, DW_AT_decl_line(0x37)
    2250                            .dwattr $C$DW$T$137, DW_AT_decl_column(0x16)
    2251                    $C$DW$T$52      .dwtag  DW_TAG_typedef, DW_AT_name("size_t")
    2252                            .dwattr $C$DW$T$52, DW_AT_type(*$C$DW$T$11)
    2253                            .dwattr $C$DW$T$52, DW_AT_language(DW_LANG_C)
    2254                            .dwattr $C$DW$T$52, DW_AT_decl_file("C:/VLIB_Tools/CCSV5_4_0/ccsv5/tools/compiler/C6000/includ
    2255                            .dwattr $C$DW$T$52, DW_AT_decl_line(0x45)
    2256                            .dwattr $C$DW$T$52, DW_AT_decl_column(0x19)
    2257                    $C$DW$T$130     .dwtag  DW_TAG_typedef, DW_AT_name("time_t")
    2258                            .dwattr $C$DW$T$130, DW_AT_type(*$C$DW$T$11)
    2259                            .dwattr $C$DW$T$130, DW_AT_language(DW_LANG_C)
    2260                            .dwattr $C$DW$T$130, DW_AT_decl_file("C:/VLIB_Tools/CCSV5_4_0/ccsv5/tools/compiler/C6000/inclu
    2261                            .dwattr $C$DW$T$130, DW_AT_decl_line(0x38)
    2262                            .dwattr $C$DW$T$130, DW_AT_decl_column(0x16)
    2263                    $C$DW$T$68      .dwtag  DW_TAG_typedef, DW_AT_name("uint32_t")
    2264                            .dwattr $C$DW$T$68, DW_AT_type(*$C$DW$T$11)
    2265                            .dwattr $C$DW$T$68, DW_AT_language(DW_LANG_C)
    2266                            .dwattr $C$DW$T$68, DW_AT_decl_file("C:/VLIB_Tools/CCSV5_4_0/ccsv5/tools/compiler/C6000/includ
    2267                            .dwattr $C$DW$T$68, DW_AT_decl_line(0x2f)
    2268                            .dwattr $C$DW$T$68, DW_AT_decl_column(0x1c)
    2269                    $C$DW$T$132     .dwtag  DW_TAG_typedef, DW_AT_name("uint_fast16_t")
    2270                            .dwattr $C$DW$T$132, DW_AT_type(*$C$DW$T$68)
    2271                            .dwattr $C$DW$T$132, DW_AT_language(DW_LANG_C)
    2272                            .dwattr $C$DW$T$132, DW_AT_decl_file("C:/VLIB_Tools/CCSV5_4_0/ccsv5/tools/compiler/C6000/inclu
    2273                            .dwattr $C$DW$T$132, DW_AT_decl_line(0x4c)
    2274                            .dwattr $C$DW$T$132, DW_AT_decl_column(0x16)
    2275                    $C$DW$T$133     .dwtag  DW_TAG_typedef, DW_AT_name("uint_fast32_t")
    2276                            .dwattr $C$DW$T$133, DW_AT_type(*$C$DW$T$68)
    2277                            .dwattr $C$DW$T$133, DW_AT_language(DW_LANG_C)
    2278                            .dwattr $C$DW$T$133, DW_AT_decl_file("C:/VLIB_Tools/CCSV5_4_0/ccsv5/tools/compiler/C6000/inclu
    2279                            .dwattr $C$DW$T$133, DW_AT_decl_line(0x4f)
    2280                            .dwattr $C$DW$T$133, DW_AT_decl_column(0x16)
    2281                    $C$DW$T$134     .dwtag  DW_TAG_typedef, DW_AT_name("uint_fast8_t")
    2282                            .dwattr $C$DW$T$134, DW_AT_type(*$C$DW$T$68)
    2283                            .dwattr $C$DW$T$134, DW_AT_language(DW_LANG_C)
    2284                            .dwattr $C$DW$T$134, DW_AT_decl_file("C:/VLIB_Tools/CCSV5_4_0/ccsv5/tools/compiler/C6000/inclu
    2285                            .dwattr $C$DW$T$134, DW_AT_decl_line(0x4a)
    2286                            .dwattr $C$DW$T$134, DW_AT_decl_column(0x16)
    2287                    $C$DW$T$135     .dwtag  DW_TAG_typedef, DW_AT_name("uint_least32_t")
    2288                            .dwattr $C$DW$T$135, DW_AT_type(*$C$DW$T$68)
    2289                            .dwattr $C$DW$T$135, DW_AT_language(DW_LANG_C)
    2290                            .dwattr $C$DW$T$135, DW_AT_decl_file("C:/VLIB_Tools/CCSV5_4_0/ccsv5/tools/compiler/C6000/inclu
    2291                            .dwattr $C$DW$T$135, DW_AT_decl_line(0x3f)
    2292                            .dwattr $C$DW$T$135, DW_AT_decl_column(0x16)
    2293                    $C$DW$T$136     .dwtag  DW_TAG_typedef, DW_AT_name("uintptr_t")
TMS320C6x Assembler PC v7.4.2 Thu Mar 19 12:42:11 2015

Tools Copyright (c) 1996-2012 Texas Instruments Incorporated
package/lib/Regression/regress_d_c/./../packages/ti/vlib/src/VLIB_imagePyramid8/VLIB_imagePyramid8_d.se66 PAGE   49

    2294                            .dwattr $C$DW$T$136, DW_AT_type(*$C$DW$T$11)
    2295                            .dwattr $C$DW$T$136, DW_AT_language(DW_LANG_C)
    2296                            .dwattr $C$DW$T$136, DW_AT_decl_file("C:/VLIB_Tools/CCSV5_4_0/ccsv5/tools/compiler/C6000/inclu
    2297                            .dwattr $C$DW$T$136, DW_AT_decl_line(0x59)
    2298                            .dwattr $C$DW$T$136, DW_AT_decl_column(0x1a)
    2299                    $C$DW$T$12      .dwtag  DW_TAG_base_type
    2300                            .dwattr $C$DW$T$12, DW_AT_encoding(DW_ATE_signed)
    2301                            .dwattr $C$DW$T$12, DW_AT_name("__int40_t")
    2302                            .dwattr $C$DW$T$12, DW_AT_byte_size(0x08)
    2303                            .dwattr $C$DW$T$12, DW_AT_bit_size(0x28)
    2304                            .dwattr $C$DW$T$12, DW_AT_bit_offset(0x18)
    2305                    $C$DW$T$138     .dwtag  DW_TAG_typedef, DW_AT_name("int40_t")
    2306                            .dwattr $C$DW$T$138, DW_AT_type(*$C$DW$T$12)
    2307                            .dwattr $C$DW$T$138, DW_AT_language(DW_LANG_C)
    2308                            .dwattr $C$DW$T$138, DW_AT_decl_file("C:/VLIB_Tools/CCSV5_4_0/ccsv5/tools/compiler/C6000/inclu
    2309                            .dwattr $C$DW$T$138, DW_AT_decl_line(0x31)
    2310                            .dwattr $C$DW$T$138, DW_AT_decl_column(0x21)
    2311                    $C$DW$T$139     .dwtag  DW_TAG_typedef, DW_AT_name("int_fast40_t")
    2312                            .dwattr $C$DW$T$139, DW_AT_type(*$C$DW$T$138)
    2313                            .dwattr $C$DW$T$139, DW_AT_language(DW_LANG_C)
    2314                            .dwattr $C$DW$T$139, DW_AT_decl_file("C:/VLIB_Tools/CCSV5_4_0/ccsv5/tools/compiler/C6000/inclu
    2315                            .dwattr $C$DW$T$139, DW_AT_decl_line(0x51)
    2316                            .dwattr $C$DW$T$139, DW_AT_decl_column(0x17)
    2317                    $C$DW$T$140     .dwtag  DW_TAG_typedef, DW_AT_name("int_least40_t")
    2318                            .dwattr $C$DW$T$140, DW_AT_type(*$C$DW$T$138)
    2319                            .dwattr $C$DW$T$140, DW_AT_language(DW_LANG_C)
    2320                            .dwattr $C$DW$T$140, DW_AT_decl_file("C:/VLIB_Tools/CCSV5_4_0/ccsv5/tools/compiler/C6000/inclu
    2321                            .dwattr $C$DW$T$140, DW_AT_decl_line(0x41)
    2322                            .dwattr $C$DW$T$140, DW_AT_decl_column(0x17)
    2323                    $C$DW$T$13      .dwtag  DW_TAG_base_type
    2324                            .dwattr $C$DW$T$13, DW_AT_encoding(DW_ATE_unsigned)
    2325                            .dwattr $C$DW$T$13, DW_AT_name("unsigned __int40_t")
    2326                            .dwattr $C$DW$T$13, DW_AT_byte_size(0x08)
    2327                            .dwattr $C$DW$T$13, DW_AT_bit_size(0x28)
    2328                            .dwattr $C$DW$T$13, DW_AT_bit_offset(0x18)
    2329                    $C$DW$T$141     .dwtag  DW_TAG_typedef, DW_AT_name("uint40_t")
    2330                            .dwattr $C$DW$T$141, DW_AT_type(*$C$DW$T$13)
    2331                            .dwattr $C$DW$T$141, DW_AT_language(DW_LANG_C)
    2332                            .dwattr $C$DW$T$141, DW_AT_decl_file("C:/VLIB_Tools/CCSV5_4_0/ccsv5/tools/compiler/C6000/inclu
    2333                            .dwattr $C$DW$T$141, DW_AT_decl_line(0x32)
    2334                            .dwattr $C$DW$T$141, DW_AT_decl_column(0x20)
    2335                    $C$DW$T$142     .dwtag  DW_TAG_typedef, DW_AT_name("uint_fast40_t")
    2336                            .dwattr $C$DW$T$142, DW_AT_type(*$C$DW$T$141)
    2337                            .dwattr $C$DW$T$142, DW_AT_language(DW_LANG_C)
    2338                            .dwattr $C$DW$T$142, DW_AT_decl_file("C:/VLIB_Tools/CCSV5_4_0/ccsv5/tools/compiler/C6000/inclu
    2339                            .dwattr $C$DW$T$142, DW_AT_decl_line(0x52)
    2340                            .dwattr $C$DW$T$142, DW_AT_decl_column(0x16)
    2341                    $C$DW$T$143     .dwtag  DW_TAG_typedef, DW_AT_name("uint_least40_t")
    2342                            .dwattr $C$DW$T$143, DW_AT_type(*$C$DW$T$141)
    2343                            .dwattr $C$DW$T$143, DW_AT_language(DW_LANG_C)
    2344                            .dwattr $C$DW$T$143, DW_AT_decl_file("C:/VLIB_Tools/CCSV5_4_0/ccsv5/tools/compiler/C6000/inclu
    2345                            .dwattr $C$DW$T$143, DW_AT_decl_line(0x42)
    2346                            .dwattr $C$DW$T$143, DW_AT_decl_column(0x16)
    2347                    $C$DW$T$14      .dwtag  DW_TAG_base_type
    2348                            .dwattr $C$DW$T$14, DW_AT_encoding(DW_ATE_signed)
TMS320C6x Assembler PC v7.4.2 Thu Mar 19 12:42:11 2015

Tools Copyright (c) 1996-2012 Texas Instruments Incorporated
package/lib/Regression/regress_d_c/./../packages/ti/vlib/src/VLIB_imagePyramid8/VLIB_imagePyramid8_d.se66 PAGE   50

    2349                            .dwattr $C$DW$T$14, DW_AT_name("long long")
    2350                            .dwattr $C$DW$T$14, DW_AT_byte_size(0x08)
    2351                    $C$DW$T$145     .dwtag  DW_TAG_typedef, DW_AT_name("int64_t")
    2352                            .dwattr $C$DW$T$145, DW_AT_type(*$C$DW$T$14)
    2353                            .dwattr $C$DW$T$145, DW_AT_language(DW_LANG_C)
    2354                            .dwattr $C$DW$T$145, DW_AT_decl_file("C:/VLIB_Tools/CCSV5_4_0/ccsv5/tools/compiler/C6000/inclu
    2355                            .dwattr $C$DW$T$145, DW_AT_decl_line(0x34)
    2356                            .dwattr $C$DW$T$145, DW_AT_decl_column(0x21)
    2357                    $C$DW$T$146     .dwtag  DW_TAG_typedef, DW_AT_name("int_fast64_t")
    2358                            .dwattr $C$DW$T$146, DW_AT_type(*$C$DW$T$145)
    2359                            .dwattr $C$DW$T$146, DW_AT_language(DW_LANG_C)
    2360                            .dwattr $C$DW$T$146, DW_AT_decl_file("C:/VLIB_Tools/CCSV5_4_0/ccsv5/tools/compiler/C6000/inclu
    2361                            .dwattr $C$DW$T$146, DW_AT_decl_line(0x54)
    2362                            .dwattr $C$DW$T$146, DW_AT_decl_column(0x17)
    2363                    $C$DW$T$147     .dwtag  DW_TAG_typedef, DW_AT_name("int_least64_t")
    2364                            .dwattr $C$DW$T$147, DW_AT_type(*$C$DW$T$145)
    2365                            .dwattr $C$DW$T$147, DW_AT_language(DW_LANG_C)
    2366                            .dwattr $C$DW$T$147, DW_AT_decl_file("C:/VLIB_Tools/CCSV5_4_0/ccsv5/tools/compiler/C6000/inclu
    2367                            .dwattr $C$DW$T$147, DW_AT_decl_line(0x44)
    2368                            .dwattr $C$DW$T$147, DW_AT_decl_column(0x17)
    2369                    $C$DW$T$148     .dwtag  DW_TAG_typedef, DW_AT_name("intmax_t")
    2370                            .dwattr $C$DW$T$148, DW_AT_type(*$C$DW$T$14)
    2371                            .dwattr $C$DW$T$148, DW_AT_language(DW_LANG_C)
    2372                            .dwattr $C$DW$T$148, DW_AT_decl_file("C:/VLIB_Tools/CCSV5_4_0/ccsv5/tools/compiler/C6000/inclu
    2373                            .dwattr $C$DW$T$148, DW_AT_decl_line(0x5c)
    2374                            .dwattr $C$DW$T$148, DW_AT_decl_column(0x20)
    2375                    $C$DW$T$15      .dwtag  DW_TAG_base_type
    2376                            .dwattr $C$DW$T$15, DW_AT_encoding(DW_ATE_unsigned)
    2377                            .dwattr $C$DW$T$15, DW_AT_name("unsigned long long")
    2378                            .dwattr $C$DW$T$15, DW_AT_byte_size(0x08)
    2379                    $C$DW$T$150     .dwtag  DW_TAG_pointer_type
    2380                            .dwattr $C$DW$T$150, DW_AT_type(*$C$DW$T$15)
    2381                            .dwattr $C$DW$T$150, DW_AT_address_class(0x20)
    2382                    $C$DW$T$151     .dwtag  DW_TAG_typedef, DW_AT_name("uint64_t")
    2383                            .dwattr $C$DW$T$151, DW_AT_type(*$C$DW$T$15)
    2384                            .dwattr $C$DW$T$151, DW_AT_language(DW_LANG_C)
    2385                            .dwattr $C$DW$T$151, DW_AT_decl_file("C:/VLIB_Tools/CCSV5_4_0/ccsv5/tools/compiler/C6000/inclu
    2386                            .dwattr $C$DW$T$151, DW_AT_decl_line(0x35)
    2387                            .dwattr $C$DW$T$151, DW_AT_decl_column(0x20)
    2388                    
    2389                    $C$DW$T$152     .dwtag  DW_TAG_array_type
    2390                            .dwattr $C$DW$T$152, DW_AT_type(*$C$DW$T$151)
    2391                            .dwattr $C$DW$T$152, DW_AT_language(DW_LANG_C)
    2392                            .dwattr $C$DW$T$152, DW_AT_byte_size(0x10)
    2393                    $C$DW$203       .dwtag  DW_TAG_subrange_type
    2394                            .dwattr $C$DW$203, DW_AT_upper_bound(0x01)
    2395                            .dwendtag $C$DW$T$152
    2396                    
    2397                    $C$DW$T$153     .dwtag  DW_TAG_typedef, DW_AT_name("uint_fast64_t")
    2398                            .dwattr $C$DW$T$153, DW_AT_type(*$C$DW$T$151)
    2399                            .dwattr $C$DW$T$153, DW_AT_language(DW_LANG_C)
    2400                            .dwattr $C$DW$T$153, DW_AT_decl_file("C:/VLIB_Tools/CCSV5_4_0/ccsv5/tools/compiler/C6000/inclu
    2401                            .dwattr $C$DW$T$153, DW_AT_decl_line(0x55)
    2402                            .dwattr $C$DW$T$153, DW_AT_decl_column(0x16)
    2403                    $C$DW$T$154     .dwtag  DW_TAG_typedef, DW_AT_name("uint_least64_t")
TMS320C6x Assembler PC v7.4.2 Thu Mar 19 12:42:11 2015

Tools Copyright (c) 1996-2012 Texas Instruments Incorporated
package/lib/Regression/regress_d_c/./../packages/ti/vlib/src/VLIB_imagePyramid8/VLIB_imagePyramid8_d.se66 PAGE   51

    2404                            .dwattr $C$DW$T$154, DW_AT_type(*$C$DW$T$151)
    2405                            .dwattr $C$DW$T$154, DW_AT_language(DW_LANG_C)
    2406                            .dwattr $C$DW$T$154, DW_AT_decl_file("C:/VLIB_Tools/CCSV5_4_0/ccsv5/tools/compiler/C6000/inclu
    2407                            .dwattr $C$DW$T$154, DW_AT_decl_line(0x45)
    2408                            .dwattr $C$DW$T$154, DW_AT_decl_column(0x16)
    2409                    $C$DW$T$155     .dwtag  DW_TAG_typedef, DW_AT_name("uintmax_t")
    2410                            .dwattr $C$DW$T$155, DW_AT_type(*$C$DW$T$15)
    2411                            .dwattr $C$DW$T$155, DW_AT_language(DW_LANG_C)
    2412                            .dwattr $C$DW$T$155, DW_AT_decl_file("C:/VLIB_Tools/CCSV5_4_0/ccsv5/tools/compiler/C6000/inclu
    2413                            .dwattr $C$DW$T$155, DW_AT_decl_line(0x5d)
    2414                            .dwattr $C$DW$T$155, DW_AT_decl_column(0x20)
    2415                    $C$DW$T$16      .dwtag  DW_TAG_base_type
    2416                            .dwattr $C$DW$T$16, DW_AT_encoding(DW_ATE_float)
    2417                            .dwattr $C$DW$T$16, DW_AT_name("float")
    2418                            .dwattr $C$DW$T$16, DW_AT_byte_size(0x04)
    2419                    $C$DW$T$156     .dwtag  DW_TAG_typedef, DW_AT_name("VLIB_F32")
    2420                            .dwattr $C$DW$T$156, DW_AT_type(*$C$DW$T$16)
    2421                            .dwattr $C$DW$T$156, DW_AT_language(DW_LANG_C)
    2422                            .dwattr $C$DW$T$156, DW_AT_decl_file(".\..\packages\ti\vlib\src\VLIB_imagePyramid8\..\common\c
    2423                            .dwattr $C$DW$T$156, DW_AT_decl_line(0x5b)
    2424                            .dwattr $C$DW$T$156, DW_AT_decl_column(0x0f)
    2425                    $C$DW$T$157     .dwtag  DW_TAG_typedef, DW_AT_name("float32_t")
    2426                            .dwattr $C$DW$T$157, DW_AT_type(*$C$DW$T$16)
    2427                            .dwattr $C$DW$T$157, DW_AT_language(DW_LANG_C)
    2428                            .dwattr $C$DW$T$157, DW_AT_decl_file("C:\VLIB_Tools\CCSV5_4_0\ccsv5\tools\compiler\C6000\inclu
    2429                            .dwattr $C$DW$T$157, DW_AT_decl_line(0x30)
    2430                            .dwattr $C$DW$T$157, DW_AT_decl_column(0x0f)
    2431                    $C$DW$T$17      .dwtag  DW_TAG_base_type
    2432                            .dwattr $C$DW$T$17, DW_AT_encoding(DW_ATE_float)
    2433                            .dwattr $C$DW$T$17, DW_AT_name("double")
    2434                            .dwattr $C$DW$T$17, DW_AT_byte_size(0x08)
    2435                    $C$DW$T$158     .dwtag  DW_TAG_typedef, DW_AT_name("VLIB_D64")
    2436                            .dwattr $C$DW$T$158, DW_AT_type(*$C$DW$T$17)
    2437                            .dwattr $C$DW$T$158, DW_AT_language(DW_LANG_C)
    2438                            .dwattr $C$DW$T$158, DW_AT_decl_file(".\..\packages\ti\vlib\src\VLIB_imagePyramid8\..\common\c
    2439                            .dwattr $C$DW$T$158, DW_AT_decl_line(0x5a)
    2440                            .dwattr $C$DW$T$158, DW_AT_decl_column(0x10)
    2441                    $C$DW$T$159     .dwtag  DW_TAG_typedef, DW_AT_name("__float2_t")
    2442                            .dwattr $C$DW$T$159, DW_AT_type(*$C$DW$T$17)
    2443                            .dwattr $C$DW$T$159, DW_AT_language(DW_LANG_C)
    2444                            .dwattr $C$DW$T$159, DW_AT_decl_file("C:/VLIB_Tools/CCSV5_4_0/ccsv5/tools/compiler/C6000/inclu
    2445                            .dwattr $C$DW$T$159, DW_AT_decl_line(0x5f)
    2446                            .dwattr $C$DW$T$159, DW_AT_decl_column(0x14)
    2447                    $C$DW$T$18      .dwtag  DW_TAG_base_type
    2448                            .dwattr $C$DW$T$18, DW_AT_encoding(DW_ATE_float)
    2449                            .dwattr $C$DW$T$18, DW_AT_name("long double")
    2450                            .dwattr $C$DW$T$18, DW_AT_byte_size(0x08)
    2451                    $C$DW$T$30      .dwtag  DW_TAG_base_type
    2452                            .dwattr $C$DW$T$30, DW_AT_encoding(DW_ATE_signed_char)
    2453                            .dwattr $C$DW$T$30, DW_AT_name("signed char")
    2454                            .dwattr $C$DW$T$30, DW_AT_byte_size(0x01)
    2455                    
    2456                    $C$DW$T$31      .dwtag  DW_TAG_array_type
    2457                            .dwattr $C$DW$T$31, DW_AT_type(*$C$DW$T$30)
    2458                            .dwattr $C$DW$T$31, DW_AT_language(DW_LANG_C)
TMS320C6x Assembler PC v7.4.2 Thu Mar 19 12:42:11 2015

Tools Copyright (c) 1996-2012 Texas Instruments Incorporated
package/lib/Regression/regress_d_c/./../packages/ti/vlib/src/VLIB_imagePyramid8/VLIB_imagePyramid8_d.se66 PAGE   52

    2459                            .dwattr $C$DW$T$31, DW_AT_byte_size(0x04)
    2460                    $C$DW$204       .dwtag  DW_TAG_subrange_type
    2461                            .dwattr $C$DW$204, DW_AT_upper_bound(0x03)
    2462                            .dwendtag $C$DW$T$31
    2463                    
    2464                    $C$DW$T$59      .dwtag  DW_TAG_pointer_type
    2465                            .dwattr $C$DW$T$59, DW_AT_type(*$C$DW$T$30)
    2466                            .dwattr $C$DW$T$59, DW_AT_address_class(0x20)
    2467                    $C$DW$T$160     .dwtag  DW_TAG_typedef, DW_AT_name("va_list")
    2468                            .dwattr $C$DW$T$160, DW_AT_type(*$C$DW$T$59)
    2469                            .dwattr $C$DW$T$160, DW_AT_language(DW_LANG_C)
    2470                            .dwattr $C$DW$T$160, DW_AT_decl_file("C:/VLIB_Tools/CCSV5_4_0/ccsv5/tools/compiler/C6000/inclu
    2471                            .dwattr $C$DW$T$160, DW_AT_decl_line(0x2f)
    2472                            .dwattr $C$DW$T$160, DW_AT_decl_column(0x12)
    2473                    $C$DW$T$101     .dwtag  DW_TAG_const_type
    2474                            .dwattr $C$DW$T$101, DW_AT_type(*$C$DW$T$30)
    2475                    $C$DW$T$102     .dwtag  DW_TAG_pointer_type
    2476                            .dwattr $C$DW$T$102, DW_AT_type(*$C$DW$T$101)
    2477                            .dwattr $C$DW$T$102, DW_AT_address_class(0x20)
    2478                    
    2479                    $C$DW$T$161     .dwtag  DW_TAG_array_type
    2480                            .dwattr $C$DW$T$161, DW_AT_type(*$C$DW$T$30)
    2481                            .dwattr $C$DW$T$161, DW_AT_language(DW_LANG_C)
    2482                    $C$DW$205       .dwtag  DW_TAG_subrange_type
    2483                            .dwendtag $C$DW$T$161
    2484                    
    2485                    
    2486                    $C$DW$T$34      .dwtag  DW_TAG_structure_type
    2487                            .dwattr $C$DW$T$34, DW_AT_name("__simd128_int32_t")
    2488                            .dwattr $C$DW$T$34, DW_AT_byte_size(0x10)
    2489                    $C$DW$206       .dwtag  DW_TAG_member
    2490                            .dwattr $C$DW$206, DW_AT_type(*$C$DW$T$33)
    2491                            .dwattr $C$DW$206, DW_AT_name("_v")
    2492                            .dwattr $C$DW$206, DW_AT_TI_symbol_name("_v")
    2493                            .dwattr $C$DW$206, DW_AT_data_member_location[DW_OP_plus_uconst 0x0]
    2494                            .dwattr $C$DW$206, DW_AT_accessibility(DW_ACCESS_public)
    2495                            .dwattr $C$DW$206, DW_AT_decl_file("C:\VLIB_Tools\CCSV5_4_0\ccsv5\tools\compiler\C6000\include
    2496                            .dwattr $C$DW$206, DW_AT_decl_line(0x44)
    2497                            .dwattr $C$DW$206, DW_AT_decl_column(0x01)
    2498                            .dwendtag $C$DW$T$34
    2499                    
    2500                            .dwattr $C$DW$T$34, DW_AT_decl_file("C:\VLIB_Tools\CCSV5_4_0\ccsv5\tools\compiler\C6000\includ
    2501                            .dwattr $C$DW$T$34, DW_AT_decl_line(0x44)
    2502                            .dwattr $C$DW$T$34, DW_AT_decl_column(0x01)
    2503                    $C$DW$T$162     .dwtag  DW_TAG_typedef, DW_AT_name("int32x4_t")
    2504                            .dwattr $C$DW$T$162, DW_AT_type(*$C$DW$T$34)
    2505                            .dwattr $C$DW$T$162, DW_AT_language(DW_LANG_C)
    2506                            .dwattr $C$DW$T$162, DW_AT_decl_file("C:\VLIB_Tools\CCSV5_4_0\ccsv5\tools\compiler\C6000\inclu
    2507                            .dwattr $C$DW$T$162, DW_AT_decl_line(0x44)
    2508                            .dwattr $C$DW$T$162, DW_AT_decl_column(0x01)
    2509                    $C$DW$T$163     .dwtag  DW_TAG_typedef, DW_AT_name("__x128_t")
    2510                            .dwattr $C$DW$T$163, DW_AT_type(*$C$DW$T$162)
    2511                            .dwattr $C$DW$T$163, DW_AT_language(DW_LANG_C)
    2512                            .dwattr $C$DW$T$163, DW_AT_decl_file("C:\VLIB_Tools\CCSV5_4_0\ccsv5\tools\compiler\C6000\inclu
    2513                            .dwattr $C$DW$T$163, DW_AT_decl_line(0x46)
TMS320C6x Assembler PC v7.4.2 Thu Mar 19 12:42:11 2015

Tools Copyright (c) 1996-2012 Texas Instruments Incorporated
package/lib/Regression/regress_d_c/./../packages/ti/vlib/src/VLIB_imagePyramid8/VLIB_imagePyramid8_d.se66 PAGE   53

    2514                            .dwattr $C$DW$T$163, DW_AT_decl_column(0x13)
    2515                    
    2516                    $C$DW$T$35      .dwtag  DW_TAG_structure_type
    2517                            .dwattr $C$DW$T$35, DW_AT_name("tm")
    2518                            .dwattr $C$DW$T$35, DW_AT_byte_size(0x24)
    2519                    $C$DW$207       .dwtag  DW_TAG_member
    2520                            .dwattr $C$DW$207, DW_AT_type(*$C$DW$T$10)
    2521                            .dwattr $C$DW$207, DW_AT_name("tm_sec")
    2522                            .dwattr $C$DW$207, DW_AT_TI_symbol_name("tm_sec")
    2523                            .dwattr $C$DW$207, DW_AT_data_member_location[DW_OP_plus_uconst 0x0]
    2524                            .dwattr $C$DW$207, DW_AT_accessibility(DW_ACCESS_public)
    2525                            .dwattr $C$DW$207, DW_AT_decl_file("C:/VLIB_Tools/CCSV5_4_0/ccsv5/tools/compiler/C6000/include
    2526                            .dwattr $C$DW$207, DW_AT_decl_line(0x41)
    2527                            .dwattr $C$DW$207, DW_AT_decl_column(0x09)
    2528                    $C$DW$208       .dwtag  DW_TAG_member
    2529                            .dwattr $C$DW$208, DW_AT_type(*$C$DW$T$10)
    2530                            .dwattr $C$DW$208, DW_AT_name("tm_min")
    2531                            .dwattr $C$DW$208, DW_AT_TI_symbol_name("tm_min")
    2532                            .dwattr $C$DW$208, DW_AT_data_member_location[DW_OP_plus_uconst 0x4]
    2533                            .dwattr $C$DW$208, DW_AT_accessibility(DW_ACCESS_public)
    2534                            .dwattr $C$DW$208, DW_AT_decl_file("C:/VLIB_Tools/CCSV5_4_0/ccsv5/tools/compiler/C6000/include
    2535                            .dwattr $C$DW$208, DW_AT_decl_line(0x42)
    2536                            .dwattr $C$DW$208, DW_AT_decl_column(0x09)
    2537                    $C$DW$209       .dwtag  DW_TAG_member
    2538                            .dwattr $C$DW$209, DW_AT_type(*$C$DW$T$10)
    2539                            .dwattr $C$DW$209, DW_AT_name("tm_hour")
    2540                            .dwattr $C$DW$209, DW_AT_TI_symbol_name("tm_hour")
    2541                            .dwattr $C$DW$209, DW_AT_data_member_location[DW_OP_plus_uconst 0x8]
    2542                            .dwattr $C$DW$209, DW_AT_accessibility(DW_ACCESS_public)
    2543                            .dwattr $C$DW$209, DW_AT_decl_file("C:/VLIB_Tools/CCSV5_4_0/ccsv5/tools/compiler/C6000/include
    2544                            .dwattr $C$DW$209, DW_AT_decl_line(0x43)
    2545                            .dwattr $C$DW$209, DW_AT_decl_column(0x09)
    2546                    $C$DW$210       .dwtag  DW_TAG_member
    2547                            .dwattr $C$DW$210, DW_AT_type(*$C$DW$T$10)
    2548                            .dwattr $C$DW$210, DW_AT_name("tm_mday")
    2549                            .dwattr $C$DW$210, DW_AT_TI_symbol_name("tm_mday")
    2550                            .dwattr $C$DW$210, DW_AT_data_member_location[DW_OP_plus_uconst 0xc]
    2551                            .dwattr $C$DW$210, DW_AT_accessibility(DW_ACCESS_public)
    2552                            .dwattr $C$DW$210, DW_AT_decl_file("C:/VLIB_Tools/CCSV5_4_0/ccsv5/tools/compiler/C6000/include
    2553                            .dwattr $C$DW$210, DW_AT_decl_line(0x44)
    2554                            .dwattr $C$DW$210, DW_AT_decl_column(0x09)
    2555                    $C$DW$211       .dwtag  DW_TAG_member
    2556                            .dwattr $C$DW$211, DW_AT_type(*$C$DW$T$10)
    2557                            .dwattr $C$DW$211, DW_AT_name("tm_mon")
    2558                            .dwattr $C$DW$211, DW_AT_TI_symbol_name("tm_mon")
    2559                            .dwattr $C$DW$211, DW_AT_data_member_location[DW_OP_plus_uconst 0x10]
    2560                            .dwattr $C$DW$211, DW_AT_accessibility(DW_ACCESS_public)
    2561                            .dwattr $C$DW$211, DW_AT_decl_file("C:/VLIB_Tools/CCSV5_4_0/ccsv5/tools/compiler/C6000/include
    2562                            .dwattr $C$DW$211, DW_AT_decl_line(0x45)
    2563                            .dwattr $C$DW$211, DW_AT_decl_column(0x09)
    2564                    $C$DW$212       .dwtag  DW_TAG_member
    2565                            .dwattr $C$DW$212, DW_AT_type(*$C$DW$T$10)
    2566                            .dwattr $C$DW$212, DW_AT_name("tm_year")
    2567                            .dwattr $C$DW$212, DW_AT_TI_symbol_name("tm_year")
    2568                            .dwattr $C$DW$212, DW_AT_data_member_location[DW_OP_plus_uconst 0x14]
TMS320C6x Assembler PC v7.4.2 Thu Mar 19 12:42:11 2015

Tools Copyright (c) 1996-2012 Texas Instruments Incorporated
package/lib/Regression/regress_d_c/./../packages/ti/vlib/src/VLIB_imagePyramid8/VLIB_imagePyramid8_d.se66 PAGE   54

    2569                            .dwattr $C$DW$212, DW_AT_accessibility(DW_ACCESS_public)
    2570                            .dwattr $C$DW$212, DW_AT_decl_file("C:/VLIB_Tools/CCSV5_4_0/ccsv5/tools/compiler/C6000/include
    2571                            .dwattr $C$DW$212, DW_AT_decl_line(0x46)
    2572                            .dwattr $C$DW$212, DW_AT_decl_column(0x09)
    2573                    $C$DW$213       .dwtag  DW_TAG_member
    2574                            .dwattr $C$DW$213, DW_AT_type(*$C$DW$T$10)
    2575                            .dwattr $C$DW$213, DW_AT_name("tm_wday")
    2576                            .dwattr $C$DW$213, DW_AT_TI_symbol_name("tm_wday")
    2577                            .dwattr $C$DW$213, DW_AT_data_member_location[DW_OP_plus_uconst 0x18]
    2578                            .dwattr $C$DW$213, DW_AT_accessibility(DW_ACCESS_public)
    2579                            .dwattr $C$DW$213, DW_AT_decl_file("C:/VLIB_Tools/CCSV5_4_0/ccsv5/tools/compiler/C6000/include
    2580                            .dwattr $C$DW$213, DW_AT_decl_line(0x47)
    2581                            .dwattr $C$DW$213, DW_AT_decl_column(0x09)
    2582                    $C$DW$214       .dwtag  DW_TAG_member
    2583                            .dwattr $C$DW$214, DW_AT_type(*$C$DW$T$10)
    2584                            .dwattr $C$DW$214, DW_AT_name("tm_yday")
    2585                            .dwattr $C$DW$214, DW_AT_TI_symbol_name("tm_yday")
    2586                            .dwattr $C$DW$214, DW_AT_data_member_location[DW_OP_plus_uconst 0x1c]
    2587                            .dwattr $C$DW$214, DW_AT_accessibility(DW_ACCESS_public)
    2588                            .dwattr $C$DW$214, DW_AT_decl_file("C:/VLIB_Tools/CCSV5_4_0/ccsv5/tools/compiler/C6000/include
    2589                            .dwattr $C$DW$214, DW_AT_decl_line(0x48)
    2590                            .dwattr $C$DW$214, DW_AT_decl_column(0x09)
    2591                    $C$DW$215       .dwtag  DW_TAG_member
    2592                            .dwattr $C$DW$215, DW_AT_type(*$C$DW$T$10)
    2593                            .dwattr $C$DW$215, DW_AT_name("tm_isdst")
    2594                            .dwattr $C$DW$215, DW_AT_TI_symbol_name("tm_isdst")
    2595                            .dwattr $C$DW$215, DW_AT_data_member_location[DW_OP_plus_uconst 0x20]
    2596                            .dwattr $C$DW$215, DW_AT_accessibility(DW_ACCESS_public)
    2597                            .dwattr $C$DW$215, DW_AT_decl_file("C:/VLIB_Tools/CCSV5_4_0/ccsv5/tools/compiler/C6000/include
    2598                            .dwattr $C$DW$215, DW_AT_decl_line(0x49)
    2599                            .dwattr $C$DW$215, DW_AT_decl_column(0x09)
    2600                            .dwendtag $C$DW$T$35
    2601                    
    2602                            .dwattr $C$DW$T$35, DW_AT_decl_file("C:/VLIB_Tools/CCSV5_4_0/ccsv5/tools/compiler/C6000/includ
    2603                            .dwattr $C$DW$T$35, DW_AT_decl_line(0x3f)
    2604                            .dwattr $C$DW$T$35, DW_AT_decl_column(0x08)
    2605                            .dwattr $C$DW$CU, DW_AT_language(DW_LANG_C)
    2606                    
    2607                    ;***************************************************************
    2608                    ;* DWARF CIE ENTRIES                                           *
    2609                    ;***************************************************************
    2610                    
    2611                    $C$DW$CIE       .dwcie 19
    2612                            .dwcfi  cfa_register, 31
    2613                            .dwcfi  cfa_offset, 0
    2614                            .dwcfi  undefined, 0
    2615                            .dwcfi  undefined, 1
    2616                            .dwcfi  undefined, 2
    2617                            .dwcfi  undefined, 3
    2618                            .dwcfi  undefined, 4
    2619                            .dwcfi  undefined, 5
    2620                            .dwcfi  undefined, 6
    2621                            .dwcfi  undefined, 7
    2622                            .dwcfi  undefined, 8
    2623                            .dwcfi  undefined, 9
TMS320C6x Assembler PC v7.4.2 Thu Mar 19 12:42:11 2015

Tools Copyright (c) 1996-2012 Texas Instruments Incorporated
package/lib/Regression/regress_d_c/./../packages/ti/vlib/src/VLIB_imagePyramid8/VLIB_imagePyramid8_d.se66 PAGE   55

    2624                            .dwcfi  same_value, 10
    2625                            .dwcfi  same_value, 11
    2626                            .dwcfi  same_value, 12
    2627                            .dwcfi  same_value, 13
    2628                            .dwcfi  same_value, 14
    2629                            .dwcfi  same_value, 15
    2630                            .dwcfi  undefined, 16
    2631                            .dwcfi  undefined, 17
    2632                            .dwcfi  undefined, 18
    2633                            .dwcfi  undefined, 19
    2634                            .dwcfi  undefined, 20
    2635                            .dwcfi  undefined, 21
    2636                            .dwcfi  undefined, 22
    2637                            .dwcfi  undefined, 23
    2638                            .dwcfi  undefined, 24
    2639                            .dwcfi  undefined, 25
    2640                            .dwcfi  same_value, 26
    2641                            .dwcfi  same_value, 27
    2642                            .dwcfi  same_value, 28
    2643                            .dwcfi  same_value, 29
    2644                            .dwcfi  same_value, 30
    2645                            .dwcfi  same_value, 31
    2646                            .dwcfi  same_value, 32
    2647                            .dwcfi  undefined, 33
    2648                            .dwcfi  undefined, 34
    2649                            .dwcfi  undefined, 35
    2650                            .dwcfi  undefined, 36
    2651                            .dwcfi  undefined, 37
    2652                            .dwcfi  undefined, 38
    2653                            .dwcfi  undefined, 39
    2654                            .dwcfi  undefined, 40
    2655                            .dwcfi  undefined, 41
    2656                            .dwcfi  undefined, 42
    2657                            .dwcfi  undefined, 43
    2658                            .dwcfi  undefined, 44
    2659                            .dwcfi  undefined, 45
    2660                            .dwcfi  undefined, 46
    2661                            .dwcfi  undefined, 47
    2662                            .dwcfi  undefined, 48
    2663                            .dwcfi  undefined, 49
    2664                            .dwcfi  undefined, 50
    2665                            .dwcfi  undefined, 51
    2666                            .dwcfi  undefined, 52
    2667                            .dwcfi  undefined, 53
    2668                            .dwcfi  undefined, 54
    2669                            .dwcfi  undefined, 55
    2670                            .dwcfi  undefined, 56
    2671                            .dwcfi  undefined, 57
    2672                            .dwcfi  undefined, 58
    2673                            .dwcfi  undefined, 59
    2674                            .dwcfi  undefined, 60
    2675                            .dwcfi  undefined, 61
    2676                            .dwcfi  undefined, 62
    2677                            .dwcfi  undefined, 63
    2678                            .dwcfi  undefined, 64
TMS320C6x Assembler PC v7.4.2 Thu Mar 19 12:42:11 2015

Tools Copyright (c) 1996-2012 Texas Instruments Incorporated
package/lib/Regression/regress_d_c/./../packages/ti/vlib/src/VLIB_imagePyramid8/VLIB_imagePyramid8_d.se66 PAGE   56

    2679                            .dwcfi  undefined, 65
    2680                            .dwcfi  undefined, 66
    2681                            .dwcfi  undefined, 67
    2682                            .dwcfi  undefined, 68
    2683                            .dwcfi  undefined, 69
    2684                            .dwcfi  undefined, 70
    2685                            .dwcfi  undefined, 71
    2686                            .dwcfi  undefined, 72
    2687                            .dwcfi  undefined, 73
    2688                            .dwcfi  undefined, 74
    2689                            .dwcfi  undefined, 75
    2690                            .dwcfi  undefined, 76
    2691                            .dwcfi  undefined, 77
    2692                            .dwcfi  undefined, 78
    2693                            .dwcfi  undefined, 79
    2694                            .dwcfi  undefined, 80
    2695                            .dwcfi  undefined, 81
    2696                            .dwcfi  undefined, 82
    2697                            .dwcfi  undefined, 83
    2698                            .dwcfi  undefined, 84
    2699                            .dwcfi  undefined, 85
    2700                            .dwcfi  undefined, 86
    2701                            .dwcfi  undefined, 87
    2702                            .dwcfi  undefined, 88
    2703                            .dwcfi  undefined, 89
    2704                            .dwcfi  undefined, 90
    2705                            .dwcfi  undefined, 91
    2706                            .dwcfi  undefined, 92
    2707                            .dwcfi  undefined, 93
    2708                            .dwcfi  undefined, 94
    2709                            .dwcfi  undefined, 95
    2710                            .dwcfi  undefined, 96
    2711                            .dwcfi  undefined, 97
    2712                            .dwcfi  undefined, 98
    2713                            .dwcfi  undefined, 99
    2714                            .dwcfi  undefined, 100
    2715                            .dwcfi  undefined, 101
    2716                            .dwcfi  undefined, 102
    2717                            .dwcfi  undefined, 103
    2718                            .dwcfi  undefined, 104
    2719                            .dwcfi  undefined, 105
    2720                            .dwcfi  undefined, 106
    2721                            .dwcfi  undefined, 107
    2722                            .dwcfi  undefined, 108
    2723                            .dwcfi  undefined, 109
    2724                            .dwcfi  undefined, 110
    2725                            .dwcfi  undefined, 111
    2726                            .dwcfi  undefined, 112
    2727                            .dwcfi  undefined, 113
    2728                            .dwcfi  undefined, 114
    2729                            .dwcfi  undefined, 115
    2730                            .dwcfi  undefined, 116
    2731                            .dwcfi  undefined, 117
    2732                            .dwcfi  undefined, 118
    2733                            .dwcfi  undefined, 119
TMS320C6x Assembler PC v7.4.2 Thu Mar 19 12:42:11 2015

Tools Copyright (c) 1996-2012 Texas Instruments Incorporated
package/lib/Regression/regress_d_c/./../packages/ti/vlib/src/VLIB_imagePyramid8/VLIB_imagePyramid8_d.se66 PAGE   57

    2734                            .dwcfi  undefined, 120
    2735                            .dwcfi  undefined, 121
    2736                            .dwcfi  undefined, 122
    2737                            .dwcfi  undefined, 123
    2738                            .dwcfi  undefined, 124
    2739                            .dwcfi  undefined, 125
    2740                            .dwcfi  undefined, 126
    2741                            .dwcfi  undefined, 127
    2742                            .dwendentry
    2743                            .dwendtag $C$DW$CU
    2744                    

No Assembly Errors, No Assembly Warnings
