TMS320C6x Assembler PC v7.4.2 Thu Mar 19 12:42:26 2015

Tools Copyright (c) 1996-2012 Texas Instruments Incorporated
package/lib/Regression/regress_d_c/./../packages/ti/vlib/src/VLIB_initVarWithConstS16/VLIB_initVarWithConstS16_d.se66 PAGE    1

       1                    ;******************************************************************************
       2                    ;* TMS320C6x C/C++ Codegen                                          PC v7.4.2 *
       3                    ;* Date/Time created: Thu Mar 19 12:42:26 2015                                *
       4                    ;******************************************************************************
       5                            .compiler_opts --abi=eabi --c64p_l1d_workaround=off --endian=little --hll_source=on --long_pre
       6                    
       7                    ;******************************************************************************
       8                    ;* GLOBAL FILE PARAMETERS                                                     *
       9                    ;*                                                                            *
      10                    ;*   Architecture      : TMS320C66xx                                          *
      11                    ;*   Optimization      : Enabled at level 3                                   *
      12                    ;*   Optimizing for    : Speed                                                *
      13                    ;*                       Based on options: -o3, no -ms                        *
      14                    ;*   Endian            : Little                                               *
      15                    ;*   Interrupt Thrshld : 10000                                                *
      16                    ;*   Data Access Model : Far                                                  *
      17                    ;*   Pipelining        : Enabled                                              *
      18                    ;*   Speculate Loads   : Enabled with threshold = 0                           *
      19                    ;*   Memory Aliases    : Presume are aliases (pessimistic)                    *
      20                    ;*   Debug Info        : DWARF Debug w/Optimization                           *
      21                    ;*                                                                            *
      22                    ;******************************************************************************
      23                    
      24                            .asg    A15, FP
      25                            .asg    B14, DP
      26                            .asg    B15, SP
      27                            .global $bss
      28                    
      29                    
      30                    $C$DW$CU        .dwtag  DW_TAG_compile_unit
      31                            .dwattr $C$DW$CU, DW_AT_name("./../packages/ti/vlib/src/VLIB_initVarWithConstS16/VLIB_initVarW
      32                            .dwattr $C$DW$CU, DW_AT_producer("TI TMS320C6x C/C++ Codegen PC v7.4.2 Copyright (c) 1996-2012
      33                            .dwattr $C$DW$CU, DW_AT_TI_version(0x01)
      34                            .dwattr $C$DW$CU, DW_AT_comp_dir("c:\nightlybuilds\vlib\ti\vlib\vlib\examples")
      35                    
      36                    $C$DW$1 .dwtag  DW_TAG_subprogram, DW_AT_name("_itoll")
      37                            .dwattr $C$DW$1, DW_AT_TI_symbol_name("_itoll")
      38                            .dwattr $C$DW$1, DW_AT_type(*$C$DW$T$14)
      39                            .dwattr $C$DW$1, DW_AT_declaration
      40                            .dwattr $C$DW$1, DW_AT_external
      41                            .dwattr $C$DW$1, DW_AT_decl_file("C:/VLIB_Tools/CCSV5_4_0/ccsv5/tools/compiler/C6000/include/c
      42                            .dwattr $C$DW$1, DW_AT_decl_line(0xdf)
      43                            .dwattr $C$DW$1, DW_AT_decl_column(0x0b)
      44                    $C$DW$2 .dwtag  DW_TAG_formal_parameter
      45                            .dwattr $C$DW$2, DW_AT_type(*$C$DW$T$11)
      46                    $C$DW$3 .dwtag  DW_TAG_formal_parameter
      47                            .dwattr $C$DW$3, DW_AT_type(*$C$DW$T$11)
      48                            .dwendtag $C$DW$1
      49                    
      50                    
      51                    $C$DW$4 .dwtag  DW_TAG_subprogram, DW_AT_name("printf")
      52                            .dwattr $C$DW$4, DW_AT_TI_symbol_name("printf")
      53                            .dwattr $C$DW$4, DW_AT_type(*$C$DW$T$10)
      54                            .dwattr $C$DW$4, DW_AT_declaration
      55                            .dwattr $C$DW$4, DW_AT_external
TMS320C6x Assembler PC v7.4.2 Thu Mar 19 12:42:26 2015

Tools Copyright (c) 1996-2012 Texas Instruments Incorporated
package/lib/Regression/regress_d_c/./../packages/ti/vlib/src/VLIB_initVarWithConstS16/VLIB_initVarWithConstS16_d.se66 PAGE    2

      56                            .dwattr $C$DW$4, DW_AT_decl_file("C:/VLIB_Tools/CCSV5_4_0/ccsv5/tools/compiler/C6000/include/s
      57                            .dwattr $C$DW$4, DW_AT_decl_line(0xb8)
      58                            .dwattr $C$DW$4, DW_AT_decl_column(0x19)
      59                    $C$DW$5 .dwtag  DW_TAG_formal_parameter
      60                            .dwattr $C$DW$5, DW_AT_type(*$C$DW$T$99)
      61                    $C$DW$6 .dwtag  DW_TAG_unspecified_parameters
      62                            .dwendtag $C$DW$4
      63                    
      64                    
      65                    $C$DW$7 .dwtag  DW_TAG_subprogram, DW_AT_name("sprintf")
      66                            .dwattr $C$DW$7, DW_AT_TI_symbol_name("sprintf")
      67                            .dwattr $C$DW$7, DW_AT_type(*$C$DW$T$10)
      68                            .dwattr $C$DW$7, DW_AT_declaration
      69                            .dwattr $C$DW$7, DW_AT_external
      70                            .dwattr $C$DW$7, DW_AT_decl_file("C:/VLIB_Tools/CCSV5_4_0/ccsv5/tools/compiler/C6000/include/s
      71                            .dwattr $C$DW$7, DW_AT_decl_line(0xbc)
      72                            .dwattr $C$DW$7, DW_AT_decl_column(0x19)
      73                    $C$DW$8 .dwtag  DW_TAG_formal_parameter
      74                            .dwattr $C$DW$8, DW_AT_type(*$C$DW$T$58)
      75                    $C$DW$9 .dwtag  DW_TAG_formal_parameter
      76                            .dwattr $C$DW$9, DW_AT_type(*$C$DW$T$99)
      77                    $C$DW$10        .dwtag  DW_TAG_unspecified_parameters
      78                            .dwendtag $C$DW$7
      79                    
      80                    
      81                    $C$DW$11        .dwtag  DW_TAG_subprogram, DW_AT_name("malloc")
      82                            .dwattr $C$DW$11, DW_AT_TI_symbol_name("malloc")
      83                            .dwattr $C$DW$11, DW_AT_type(*$C$DW$T$3)
      84                            .dwattr $C$DW$11, DW_AT_declaration
      85                            .dwattr $C$DW$11, DW_AT_external
      86                            .dwattr $C$DW$11, DW_AT_decl_file("C:/VLIB_Tools/CCSV5_4_0/ccsv5/tools/compiler/C6000/include/
      87                            .dwattr $C$DW$11, DW_AT_decl_line(0x82)
      88                            .dwattr $C$DW$11, DW_AT_decl_column(0x19)
      89                    $C$DW$12        .dwtag  DW_TAG_formal_parameter
      90                            .dwattr $C$DW$12, DW_AT_type(*$C$DW$T$53)
      91                            .dwendtag $C$DW$11
      92                    
      93                    
      94                    $C$DW$13        .dwtag  DW_TAG_subprogram, DW_AT_name("free")
      95                            .dwattr $C$DW$13, DW_AT_TI_symbol_name("free")
      96                            .dwattr $C$DW$13, DW_AT_declaration
      97                            .dwattr $C$DW$13, DW_AT_external
      98                            .dwattr $C$DW$13, DW_AT_decl_file("C:/VLIB_Tools/CCSV5_4_0/ccsv5/tools/compiler/C6000/include/
      99                            .dwattr $C$DW$13, DW_AT_decl_line(0x86)
     100                            .dwattr $C$DW$13, DW_AT_decl_column(0x19)
     101                    $C$DW$14        .dwtag  DW_TAG_formal_parameter
     102                            .dwattr $C$DW$14, DW_AT_type(*$C$DW$T$3)
     103                            .dwendtag $C$DW$13
     104                    
     105                    
     106                    $C$DW$15        .dwtag  DW_TAG_subprogram, DW_AT_name("VLIB_cache_inval")
     107                            .dwattr $C$DW$15, DW_AT_TI_symbol_name("VLIB_cache_inval")
     108                            .dwattr $C$DW$15, DW_AT_type(*$C$DW$T$10)
     109                            .dwattr $C$DW$15, DW_AT_declaration
     110                            .dwattr $C$DW$15, DW_AT_external
TMS320C6x Assembler PC v7.4.2 Thu Mar 19 12:42:26 2015

Tools Copyright (c) 1996-2012 Texas Instruments Incorporated
package/lib/Regression/regress_d_c/./../packages/ti/vlib/src/VLIB_initVarWithConstS16/VLIB_initVarWithConstS16_d.se66 PAGE    3

     111                            .dwattr $C$DW$15, DW_AT_decl_file(".\..\packages\ti\vlib\src\VLIB_initVarWithConstS16\..\commo
     112                            .dwattr $C$DW$15, DW_AT_decl_line(0x58)
     113                            .dwattr $C$DW$15, DW_AT_decl_column(0x05)
     114                    
     115                    $C$DW$16        .dwtag  DW_TAG_subprogram, DW_AT_name("VLIB_profile_init")
     116                            .dwattr $C$DW$16, DW_AT_TI_symbol_name("VLIB_profile_init")
     117                            .dwattr $C$DW$16, DW_AT_declaration
     118                            .dwattr $C$DW$16, DW_AT_external
     119                            .dwattr $C$DW$16, DW_AT_decl_file(".\..\packages\ti\vlib\src\VLIB_initVarWithConstS16\..\commo
     120                            .dwattr $C$DW$16, DW_AT_decl_line(0x7b)
     121                            .dwattr $C$DW$16, DW_AT_decl_column(0x06)
     122                    $C$DW$17        .dwtag  DW_TAG_formal_parameter
     123                            .dwattr $C$DW$17, DW_AT_type(*$C$DW$T$10)
     124                    $C$DW$18        .dwtag  DW_TAG_formal_parameter
     125                            .dwattr $C$DW$18, DW_AT_type(*$C$DW$T$58)
     126                            .dwendtag $C$DW$16
     127                    
     128                    
     129                    $C$DW$19        .dwtag  DW_TAG_subprogram, DW_AT_name("VLIB_formula_add_test")
     130                            .dwattr $C$DW$19, DW_AT_TI_symbol_name("VLIB_formula_add_test")
     131                            .dwattr $C$DW$19, DW_AT_declaration
     132                            .dwattr $C$DW$19, DW_AT_external
     133                            .dwattr $C$DW$19, DW_AT_decl_file(".\..\packages\ti\vlib\src\VLIB_initVarWithConstS16\..\commo
     134                            .dwattr $C$DW$19, DW_AT_decl_line(0x7d)
     135                            .dwattr $C$DW$19, DW_AT_decl_column(0x06)
     136                    $C$DW$20        .dwtag  DW_TAG_formal_parameter
     137                            .dwattr $C$DW$20, DW_AT_type(*$C$DW$T$10)
     138                    $C$DW$21        .dwtag  DW_TAG_formal_parameter
     139                            .dwattr $C$DW$21, DW_AT_type(*$C$DW$T$10)
     140                    $C$DW$22        .dwtag  DW_TAG_formal_parameter
     141                            .dwattr $C$DW$22, DW_AT_type(*$C$DW$T$10)
     142                    $C$DW$23        .dwtag  DW_TAG_formal_parameter
     143                            .dwattr $C$DW$23, DW_AT_type(*$C$DW$T$10)
     144                    $C$DW$24        .dwtag  DW_TAG_formal_parameter
     145                            .dwattr $C$DW$24, DW_AT_type(*$C$DW$T$58)
     146                    $C$DW$25        .dwtag  DW_TAG_formal_parameter
     147                            .dwattr $C$DW$25, DW_AT_type(*$C$DW$T$10)
     148                            .dwendtag $C$DW$19
     149                    
     150                    
     151                    $C$DW$26        .dwtag  DW_TAG_subprogram, DW_AT_name("VLIB_skip_test")
     152                            .dwattr $C$DW$26, DW_AT_TI_symbol_name("VLIB_skip_test")
     153                            .dwattr $C$DW$26, DW_AT_declaration
     154                            .dwattr $C$DW$26, DW_AT_external
     155                            .dwattr $C$DW$26, DW_AT_decl_file(".\..\packages\ti\vlib\src\VLIB_initVarWithConstS16\..\commo
     156                            .dwattr $C$DW$26, DW_AT_decl_line(0x7e)
     157                            .dwattr $C$DW$26, DW_AT_decl_column(0x06)
     158                    $C$DW$27        .dwtag  DW_TAG_formal_parameter
     159                            .dwattr $C$DW$27, DW_AT_type(*$C$DW$T$58)
     160                            .dwendtag $C$DW$26
     161                    
     162                    
     163                    $C$DW$28        .dwtag  DW_TAG_subprogram, DW_AT_name("VLIB_profile_cycle_report")
     164                            .dwattr $C$DW$28, DW_AT_TI_symbol_name("VLIB_profile_cycle_report")
     165                            .dwattr $C$DW$28, DW_AT_declaration
TMS320C6x Assembler PC v7.4.2 Thu Mar 19 12:42:26 2015

Tools Copyright (c) 1996-2012 Texas Instruments Incorporated
package/lib/Regression/regress_d_c/./../packages/ti/vlib/src/VLIB_initVarWithConstS16/VLIB_initVarWithConstS16_d.se66 PAGE    4

     166                            .dwattr $C$DW$28, DW_AT_external
     167                            .dwattr $C$DW$28, DW_AT_decl_file(".\..\packages\ti\vlib\src\VLIB_initVarWithConstS16\..\commo
     168                            .dwattr $C$DW$28, DW_AT_decl_line(0x7f)
     169                            .dwattr $C$DW$28, DW_AT_decl_column(0x06)
     170                    $C$DW$29        .dwtag  DW_TAG_formal_parameter
     171                            .dwattr $C$DW$29, DW_AT_type(*$C$DW$T$10)
     172                    $C$DW$30        .dwtag  DW_TAG_formal_parameter
     173                            .dwattr $C$DW$30, DW_AT_type(*$C$DW$T$58)
     174                    $C$DW$31        .dwtag  DW_TAG_formal_parameter
     175                            .dwattr $C$DW$31, DW_AT_type(*$C$DW$T$58)
     176                            .dwendtag $C$DW$28
     177                    
     178                    
     179                    $C$DW$32        .dwtag  DW_TAG_subprogram, DW_AT_name("initStack")
     180                            .dwattr $C$DW$32, DW_AT_TI_symbol_name("initStack")
     181                            .dwattr $C$DW$32, DW_AT_declaration
     182                            .dwattr $C$DW$32, DW_AT_external
     183                            .dwattr $C$DW$32, DW_AT_decl_file(".\..\packages\ti\vlib\src\VLIB_initVarWithConstS16\..\commo
     184                            .dwattr $C$DW$32, DW_AT_decl_line(0x80)
     185                            .dwattr $C$DW$32, DW_AT_decl_column(0x06)
     186                    $C$DW$33        .dwtag  DW_TAG_formal_parameter
     187                            .dwattr $C$DW$33, DW_AT_type(*$C$DW$T$22)
     188                            .dwendtag $C$DW$32
     189                    
     190                    
     191                    $C$DW$34        .dwtag  DW_TAG_subprogram, DW_AT_name("setStackDepth")
     192                            .dwattr $C$DW$34, DW_AT_TI_symbol_name("setStackDepth")
     193                            .dwattr $C$DW$34, DW_AT_declaration
     194                            .dwattr $C$DW$34, DW_AT_external
     195                            .dwattr $C$DW$34, DW_AT_decl_file(".\..\packages\ti\vlib\src\VLIB_initVarWithConstS16\..\commo
     196                            .dwattr $C$DW$34, DW_AT_decl_line(0x81)
     197                            .dwattr $C$DW$34, DW_AT_decl_column(0x06)
     198                    
     199                    $C$DW$35        .dwtag  DW_TAG_subprogram, DW_AT_name("getSP")
     200                            .dwattr $C$DW$35, DW_AT_TI_symbol_name("getSP")
     201                            .dwattr $C$DW$35, DW_AT_type(*$C$DW$T$22)
     202                            .dwattr $C$DW$35, DW_AT_declaration
     203                            .dwattr $C$DW$35, DW_AT_external
     204                            .dwattr $C$DW$35, DW_AT_decl_file(".\..\packages\ti\vlib\src\VLIB_initVarWithConstS16\..\commo
     205                            .dwattr $C$DW$35, DW_AT_decl_line(0x82)
     206                            .dwattr $C$DW$35, DW_AT_decl_column(0x0a)
     207                    
     208                    $C$DW$36        .dwtag  DW_TAG_subprogram, DW_AT_name("VLIB_stack_memory")
     209                            .dwattr $C$DW$36, DW_AT_TI_symbol_name("VLIB_stack_memory")
     210                            .dwattr $C$DW$36, DW_AT_declaration
     211                            .dwattr $C$DW$36, DW_AT_external
     212                            .dwattr $C$DW$36, DW_AT_decl_file(".\..\packages\ti\vlib\src\VLIB_initVarWithConstS16\..\commo
     213                            .dwattr $C$DW$36, DW_AT_decl_line(0x83)
     214                            .dwattr $C$DW$36, DW_AT_decl_column(0x06)
     215                    
     216                    $C$DW$37        .dwtag  DW_TAG_subprogram, DW_AT_name("VLIB_compare_mem")
     217                            .dwattr $C$DW$37, DW_AT_TI_symbol_name("VLIB_compare_mem")
     218                            .dwattr $C$DW$37, DW_AT_type(*$C$DW$T$29)
     219                            .dwattr $C$DW$37, DW_AT_declaration
     220                            .dwattr $C$DW$37, DW_AT_external
TMS320C6x Assembler PC v7.4.2 Thu Mar 19 12:42:26 2015

Tools Copyright (c) 1996-2012 Texas Instruments Incorporated
package/lib/Regression/regress_d_c/./../packages/ti/vlib/src/VLIB_initVarWithConstS16/VLIB_initVarWithConstS16_d.se66 PAGE    5

     221                            .dwattr $C$DW$37, DW_AT_decl_file(".\..\packages\ti\vlib\src\VLIB_initVarWithConstS16\../commo
     222                            .dwattr $C$DW$37, DW_AT_decl_line(0x6f)
     223                            .dwattr $C$DW$37, DW_AT_decl_column(0x11)
     224                    $C$DW$38        .dwtag  DW_TAG_formal_parameter
     225                            .dwattr $C$DW$38, DW_AT_type(*$C$DW$T$52)
     226                    $C$DW$39        .dwtag  DW_TAG_formal_parameter
     227                            .dwattr $C$DW$39, DW_AT_type(*$C$DW$T$52)
     228                    $C$DW$40        .dwtag  DW_TAG_formal_parameter
     229                            .dwattr $C$DW$40, DW_AT_type(*$C$DW$T$29)
     230                            .dwendtag $C$DW$37
     231                    
     232                    
     233                    $C$DW$41        .dwtag  DW_TAG_subprogram, DW_AT_name("VLIB_fillBuffer")
     234                            .dwattr $C$DW$41, DW_AT_TI_symbol_name("VLIB_fillBuffer")
     235                            .dwattr $C$DW$41, DW_AT_declaration
     236                            .dwattr $C$DW$41, DW_AT_external
     237                            .dwattr $C$DW$41, DW_AT_decl_file(".\..\packages\ti\vlib\src\VLIB_initVarWithConstS16\../commo
     238                            .dwattr $C$DW$41, DW_AT_decl_line(0x77)
     239                            .dwattr $C$DW$41, DW_AT_decl_column(0x06)
     240                    $C$DW$42        .dwtag  DW_TAG_formal_parameter
     241                            .dwattr $C$DW$42, DW_AT_type(*$C$DW$T$19)
     242                    $C$DW$43        .dwtag  DW_TAG_formal_parameter
     243                            .dwattr $C$DW$43, DW_AT_type(*$C$DW$T$19)
     244                    $C$DW$44        .dwtag  DW_TAG_formal_parameter
     245                            .dwattr $C$DW$44, DW_AT_type(*$C$DW$T$3)
     246                    $C$DW$45        .dwtag  DW_TAG_formal_parameter
     247                            .dwattr $C$DW$45, DW_AT_type(*$C$DW$T$3)
     248                    $C$DW$46        .dwtag  DW_TAG_formal_parameter
     249                            .dwattr $C$DW$46, DW_AT_type(*$C$DW$T$72)
     250                    $C$DW$47        .dwtag  DW_TAG_formal_parameter
     251                            .dwattr $C$DW$47, DW_AT_type(*$C$DW$T$72)
     252                    $C$DW$48        .dwtag  DW_TAG_formal_parameter
     253                            .dwattr $C$DW$48, DW_AT_type(*$C$DW$T$72)
     254                    $C$DW$49        .dwtag  DW_TAG_formal_parameter
     255                            .dwattr $C$DW$49, DW_AT_type(*$C$DW$T$19)
     256                    $C$DW$50        .dwtag  DW_TAG_formal_parameter
     257                            .dwattr $C$DW$50, DW_AT_type(*$C$DW$T$58)
     258                            .dwendtag $C$DW$41
     259                    
     260                    
     261                    $C$DW$51        .dwtag  DW_TAG_subprogram, DW_AT_name("VLIB_malloc")
     262                            .dwattr $C$DW$51, DW_AT_TI_symbol_name("VLIB_malloc")
     263                            .dwattr $C$DW$51, DW_AT_type(*$C$DW$T$3)
     264                            .dwattr $C$DW$51, DW_AT_declaration
     265                            .dwattr $C$DW$51, DW_AT_external
     266                            .dwattr $C$DW$51, DW_AT_decl_file(".\..\packages\ti\vlib\src\VLIB_initVarWithConstS16\../commo
     267                            .dwattr $C$DW$51, DW_AT_decl_line(0xaf)
     268                            .dwattr $C$DW$51, DW_AT_decl_column(0x07)
     269                    $C$DW$52        .dwtag  DW_TAG_formal_parameter
     270                            .dwattr $C$DW$52, DW_AT_type(*$C$DW$T$53)
     271                            .dwendtag $C$DW$51
     272                    
     273                    
     274                    $C$DW$53        .dwtag  DW_TAG_subprogram, DW_AT_name("VLIB_free")
     275                            .dwattr $C$DW$53, DW_AT_TI_symbol_name("VLIB_free")
TMS320C6x Assembler PC v7.4.2 Thu Mar 19 12:42:26 2015

Tools Copyright (c) 1996-2012 Texas Instruments Incorporated
package/lib/Regression/regress_d_c/./../packages/ti/vlib/src/VLIB_initVarWithConstS16/VLIB_initVarWithConstS16_d.se66 PAGE    6

     276                            .dwattr $C$DW$53, DW_AT_declaration
     277                            .dwattr $C$DW$53, DW_AT_external
     278                            .dwattr $C$DW$53, DW_AT_decl_file(".\..\packages\ti\vlib\src\VLIB_initVarWithConstS16\../commo
     279                            .dwattr $C$DW$53, DW_AT_decl_line(0xb4)
     280                            .dwattr $C$DW$53, DW_AT_decl_column(0x07)
     281                    $C$DW$54        .dwtag  DW_TAG_formal_parameter
     282                            .dwattr $C$DW$54, DW_AT_type(*$C$DW$T$3)
     283                            .dwendtag $C$DW$53
     284                    
     285                    
     286                    $C$DW$55        .dwtag  DW_TAG_subprogram, DW_AT_name("VLIB_initVarWithConstS16")
     287                            .dwattr $C$DW$55, DW_AT_TI_symbol_name("VLIB_initVarWithConstS16")
     288                            .dwattr $C$DW$55, DW_AT_type(*$C$DW$T$29)
     289                            .dwattr $C$DW$55, DW_AT_declaration
     290                            .dwattr $C$DW$55, DW_AT_external
     291                            .dwattr $C$DW$55, DW_AT_decl_file(".\..\packages\ti\vlib\src\VLIB_initVarWithConstS16\c66/VLIB
     292                            .dwattr $C$DW$55, DW_AT_decl_line(0x73)
     293                            .dwattr $C$DW$55, DW_AT_decl_column(0x09)
     294                    $C$DW$56        .dwtag  DW_TAG_formal_parameter
     295                            .dwattr $C$DW$56, DW_AT_type(*$C$DW$T$93)
     296                    $C$DW$57        .dwtag  DW_TAG_formal_parameter
     297                            .dwattr $C$DW$57, DW_AT_type(*$C$DW$T$94)
     298                    $C$DW$58        .dwtag  DW_TAG_formal_parameter
     299                            .dwattr $C$DW$58, DW_AT_type(*$C$DW$T$108)
     300                            .dwendtag $C$DW$55
     301                    
     302                    
     303                    $C$DW$59        .dwtag  DW_TAG_subprogram, DW_AT_name("VLIB_initVarWithConstS16_cn")
     304                            .dwattr $C$DW$59, DW_AT_TI_symbol_name("VLIB_initVarWithConstS16_cn")
     305                            .dwattr $C$DW$59, DW_AT_type(*$C$DW$T$29)
     306                            .dwattr $C$DW$59, DW_AT_declaration
     307                            .dwattr $C$DW$59, DW_AT_external
     308                            .dwattr $C$DW$59, DW_AT_decl_file(".\..\packages\ti\vlib\src\VLIB_initVarWithConstS16\VLIB_ini
     309                            .dwattr $C$DW$59, DW_AT_decl_line(0x21)
     310                            .dwattr $C$DW$59, DW_AT_decl_column(0x09)
     311                    $C$DW$60        .dwtag  DW_TAG_formal_parameter
     312                            .dwattr $C$DW$60, DW_AT_type(*$C$DW$T$93)
     313                    $C$DW$61        .dwtag  DW_TAG_formal_parameter
     314                            .dwattr $C$DW$61, DW_AT_type(*$C$DW$T$94)
     315                    $C$DW$62        .dwtag  DW_TAG_formal_parameter
     316                            .dwattr $C$DW$62, DW_AT_type(*$C$DW$T$108)
     317                            .dwendtag $C$DW$59
     318                    
     319                    
     320                    $C$DW$63        .dwtag  DW_TAG_subprogram, DW_AT_name("initVarWithConstS16_getTestParams")
     321                            .dwattr $C$DW$63, DW_AT_TI_symbol_name("initVarWithConstS16_getTestParams")
     322                            .dwattr $C$DW$63, DW_AT_declaration
     323                            .dwattr $C$DW$63, DW_AT_external
     324                            .dwattr $C$DW$63, DW_AT_decl_file(".\..\packages\ti\vlib\src\VLIB_initVarWithConstS16\VLIB_ini
     325                            .dwattr $C$DW$63, DW_AT_decl_line(0x2a)
     326                            .dwattr $C$DW$63, DW_AT_decl_column(0x06)
     327                    $C$DW$64        .dwtag  DW_TAG_formal_parameter
     328                            .dwattr $C$DW$64, DW_AT_type(*$C$DW$T$45)
     329                    $C$DW$65        .dwtag  DW_TAG_formal_parameter
     330                            .dwattr $C$DW$65, DW_AT_type(*$C$DW$T$75)
TMS320C6x Assembler PC v7.4.2 Thu Mar 19 12:42:26 2015

Tools Copyright (c) 1996-2012 Texas Instruments Incorporated
package/lib/Regression/regress_d_c/./../packages/ti/vlib/src/VLIB_initVarWithConstS16/VLIB_initVarWithConstS16_d.se66 PAGE    7

     331                            .dwendtag $C$DW$63
     332                    
     333                    $C$DW$66        .dwtag  DW_TAG_variable, DW_AT_name("test_cases")
     334                            .dwattr $C$DW$66, DW_AT_TI_symbol_name("test_cases")
     335                            .dwattr $C$DW$66, DW_AT_type(*$C$DW$T$29)
     336                            .dwattr $C$DW$66, DW_AT_declaration
     337                            .dwattr $C$DW$66, DW_AT_external
     338                            .dwattr $C$DW$66, DW_AT_decl_file(".\..\packages\ti\vlib\src\VLIB_initVarWithConstS16\../commo
     339                            .dwattr $C$DW$66, DW_AT_decl_line(0x60)
     340                            .dwattr $C$DW$66, DW_AT_decl_column(0x13)
     341                    $C$DW$67        .dwtag  DW_TAG_variable, DW_AT_name("act_kernel")
     342                            .dwattr $C$DW$67, DW_AT_TI_symbol_name("act_kernel")
     343                            .dwattr $C$DW$67, DW_AT_type(*$C$DW$T$10)
     344                            .dwattr $C$DW$67, DW_AT_declaration
     345                            .dwattr $C$DW$67, DW_AT_external
     346                            .dwattr $C$DW$67, DW_AT_decl_file(".\..\packages\ti\vlib\src\VLIB_initVarWithConstS16\../commo
     347                            .dwattr $C$DW$67, DW_AT_decl_line(0x62)
     348                            .dwattr $C$DW$67, DW_AT_decl_column(0x13)
     349                    $C$DW$68        .dwtag  DW_TAG_variable, DW_AT_name("desc")
     350                            .dwattr $C$DW$68, DW_AT_TI_symbol_name("desc")
     351                            .dwattr $C$DW$68, DW_AT_type(*$C$DW$T$156)
     352                            .dwattr $C$DW$68, DW_AT_declaration
     353                            .dwattr $C$DW$68, DW_AT_external
     354                            .dwattr $C$DW$68, DW_AT_decl_file(".\..\packages\ti\vlib\src\VLIB_initVarWithConstS16\../commo
     355                            .dwattr $C$DW$68, DW_AT_decl_line(0x63)
     356                            .dwattr $C$DW$68, DW_AT_decl_column(0x13)
     357                    $C$DW$69        .dwtag  DW_TAG_variable, DW_AT_name("testPatternString")
     358                            .dwattr $C$DW$69, DW_AT_TI_symbol_name("testPatternString")
     359                            .dwattr $C$DW$69, DW_AT_type(*$C$DW$T$156)
     360                            .dwattr $C$DW$69, DW_AT_declaration
     361                            .dwattr $C$DW$69, DW_AT_external
     362                            .dwattr $C$DW$69, DW_AT_decl_file(".\..\packages\ti\vlib\src\VLIB_initVarWithConstS16\../commo
     363                            .dwattr $C$DW$69, DW_AT_decl_line(0x64)
     364                            .dwattr $C$DW$69, DW_AT_decl_column(0x13)
     365                    $C$DW$70        .dwtag  DW_TAG_variable, DW_AT_name("est_test")
     366                            .dwattr $C$DW$70, DW_AT_TI_symbol_name("est_test")
     367                            .dwattr $C$DW$70, DW_AT_type(*$C$DW$T$10)
     368                            .dwattr $C$DW$70, DW_AT_declaration
     369                            .dwattr $C$DW$70, DW_AT_external
     370                            .dwattr $C$DW$70, DW_AT_decl_file(".\..\packages\ti\vlib\src\VLIB_initVarWithConstS16\..\commo
     371                            .dwattr $C$DW$70, DW_AT_decl_line(0x75)
     372                            .dwattr $C$DW$70, DW_AT_decl_column(0x14)
     373                    $C$DW$71        .dwtag  DW_TAG_variable, DW_AT_name("beg_count")
     374                            .dwattr $C$DW$71, DW_AT_TI_symbol_name("beg_count")
     375                            .dwattr $C$DW$71, DW_AT_type(*$C$DW$T$146)
     376                            .dwattr $C$DW$71, DW_AT_declaration
     377                            .dwattr $C$DW$71, DW_AT_external
     378                            .dwattr $C$DW$71, DW_AT_decl_file(".\..\packages\ti\vlib\src\VLIB_initVarWithConstS16\..\commo
     379                            .dwattr $C$DW$71, DW_AT_decl_line(0x76)
     380                            .dwattr $C$DW$71, DW_AT_decl_column(0x14)
     381                    $C$DW$72        .dwtag  DW_TAG_variable, DW_AT_name("end_count")
     382                            .dwattr $C$DW$72, DW_AT_TI_symbol_name("end_count")
     383                            .dwattr $C$DW$72, DW_AT_type(*$C$DW$T$146)
     384                            .dwattr $C$DW$72, DW_AT_declaration
     385                            .dwattr $C$DW$72, DW_AT_external
TMS320C6x Assembler PC v7.4.2 Thu Mar 19 12:42:26 2015

Tools Copyright (c) 1996-2012 Texas Instruments Incorporated
package/lib/Regression/regress_d_c/./../packages/ti/vlib/src/VLIB_initVarWithConstS16/VLIB_initVarWithConstS16_d.se66 PAGE    8

     386                            .dwattr $C$DW$72, DW_AT_decl_file(".\..\packages\ti\vlib\src\VLIB_initVarWithConstS16\..\commo
     387                            .dwattr $C$DW$72, DW_AT_decl_line(0x77)
     388                            .dwattr $C$DW$72, DW_AT_decl_column(0x14)
     389                    $C$DW$73        .dwtag  DW_TAG_variable, DW_AT_name("overhead")
     390                            .dwattr $C$DW$73, DW_AT_TI_symbol_name("overhead")
     391                            .dwattr $C$DW$73, DW_AT_type(*$C$DW$T$146)
     392                            .dwattr $C$DW$73, DW_AT_declaration
     393                            .dwattr $C$DW$73, DW_AT_external
     394                            .dwattr $C$DW$73, DW_AT_decl_file(".\..\packages\ti\vlib\src\VLIB_initVarWithConstS16\..\commo
     395                            .dwattr $C$DW$73, DW_AT_decl_line(0x78)
     396                            .dwattr $C$DW$73, DW_AT_decl_column(0x14)
     397                    $C$DW$74        .dwtag  DW_TAG_variable, DW_AT_name("cycles")
     398                            .dwattr $C$DW$74, DW_AT_TI_symbol_name("cycles")
     399                            .dwattr $C$DW$74, DW_AT_type(*$C$DW$T$147)
     400                            .dwattr $C$DW$74, DW_AT_declaration
     401                            .dwattr $C$DW$74, DW_AT_external
     402                            .dwattr $C$DW$74, DW_AT_decl_file(".\..\packages\ti\vlib\src\VLIB_initVarWithConstS16\..\commo
     403                            .dwattr $C$DW$74, DW_AT_decl_line(0x79)
     404                            .dwattr $C$DW$74, DW_AT_decl_column(0x14)
     405                    ;       C:\VLIB_Tools\CCSV5_4_0\ccsv5\tools\compiler\C6000\bin\opt6x.exe C:\\Users\\gtbldadm\\AppData\
     406 00000000                   .sect   ".text"
     407                            .clink
     408                            .global VLIB_initVarWithConstS16_d
     409                    
     410                    $C$DW$75        .dwtag  DW_TAG_subprogram, DW_AT_name("VLIB_initVarWithConstS16_d")
     411                            .dwattr $C$DW$75, DW_AT_low_pc(VLIB_initVarWithConstS16_d)
     412                            .dwattr $C$DW$75, DW_AT_high_pc(0x00)
     413                            .dwattr $C$DW$75, DW_AT_TI_symbol_name("VLIB_initVarWithConstS16_d")
     414                            .dwattr $C$DW$75, DW_AT_external
     415                            .dwattr $C$DW$75, DW_AT_TI_begin_file("./../packages/ti/vlib/src/VLIB_initVarWithConstS16/VLIB
     416                            .dwattr $C$DW$75, DW_AT_TI_begin_line(0x26)
     417                            .dwattr $C$DW$75, DW_AT_TI_begin_column(0x06)
     418                            .dwattr $C$DW$75, DW_AT_decl_file("./../packages/ti/vlib/src/VLIB_initVarWithConstS16/VLIB_ini
     419                            .dwattr $C$DW$75, DW_AT_decl_line(0x26)
     420                            .dwattr $C$DW$75, DW_AT_decl_column(0x06)
     421                            .dwattr $C$DW$75, DW_AT_TI_max_frame_size(0x58)
     422                            .dwpsn  file "./../packages/ti/vlib/src/VLIB_initVarWithConstS16/VLIB_initVarWithConstS16_d.c"
     423                    
     424                            .dwfde $C$DW$CIE, VLIB_initVarWithConstS16_d
     425                    $C$DW$76        .dwtag  DW_TAG_formal_parameter, DW_AT_name("LevelOfFeedback")
     426                            .dwattr $C$DW$76, DW_AT_TI_symbol_name("LevelOfFeedback")
     427                            .dwattr $C$DW$76, DW_AT_type(*$C$DW$T$19)
     428                            .dwattr $C$DW$76, DW_AT_location[DW_OP_reg4]
     429                    ;----------------------------------------------------------------------
     430                    ;  38 | void VLIB_initVarWithConstS16_d (uint8_t LevelOfFeedback)              
     431                    ;----------------------------------------------------------------------
     432                    
     433                    ;******************************************************************************
     434                    ;* FUNCTION NAME: VLIB_initVarWithConstS16_d                                  *
     435                    ;*                                                                            *
     436                    ;*   Regs Modified     : A0,A1,A2,A3,A4,A5,A6,A7,A8,A9,A10,A11,A12,A13,A14,   *
     437                    ;*                           A15,B0,B1,B2,B3,B4,B5,B6,B7,B8,B9,B10,B11,B12,   *
     438                    ;*                           B13,SP,A16,A17,A18,A19,A20,A21,A22,A23,A24,A25,  *
     439                    ;*                           A26,A27,A28,A29,A30,A31,B16,B17,B18,B19,B20,B21, *
     440                    ;*                           B22,B23,B24,B25,B26,B27,B28,B29,B30,B31          *
TMS320C6x Assembler PC v7.4.2 Thu Mar 19 12:42:26 2015

Tools Copyright (c) 1996-2012 Texas Instruments Incorporated
package/lib/Regression/regress_d_c/./../packages/ti/vlib/src/VLIB_initVarWithConstS16/VLIB_initVarWithConstS16_d.se66 PAGE    9

     441                    ;*   Regs Used         : A0,A1,A2,A3,A4,A5,A6,A7,A8,A9,A10,A11,A12,A13,A14,   *
     442                    ;*                           A15,B0,B1,B2,B3,B4,B5,B6,B7,B8,B9,B10,B11,B12,   *
     443                    ;*                           B13,DP,SP,A16,A17,A18,A19,A20,A21,A22,A23,A24,   *
     444                    ;*                           A25,A26,A27,A28,A29,A30,A31,B16,B17,B18,B19,B20, *
     445                    ;*                           B21,B22,B23,B24,B25,B26,B27,B28,B29,B30,B31      *
     446                    ;*   Local Frame Size  : 16 Args + 12 Auto + 56 Save = 84 byte                *
     447                    ;******************************************************************************
     448                    
     449                    ;******************************************************************************
     450                    ;*                                                                            *
     451                    ;* Using -g (debug) with optimization (-o3) may disable key optimizations!    *
     452                    ;*                                                                            *
     453                    ;******************************************************************************
     454 00000000           VLIB_initVarWithConstS16_d:
     455                    ;** --------------------------------------------------------------------------*
     456                    ;          EXCLUSIVE CPU CYCLES: 16
     457                    ;** 45  -----------------------    initVarWithConstS16_getTestParams(&prm, &test_cases);
     458                    ;** 48  -----------------------    VLIB_profile_init(2, "VLIB_initVarWithConstS16");
     459                    ;** 51  -----------------------    if ( test_cases <= 0 ) goto g10;
     460                            .dwcfi  cfa_offset, 0
     461                    ;----------------------------------------------------------------------
     462                    ;  40 | int32_t    tpi;  /* test parameter index */                            
     463                    ;  43 | initVarWithConstS16_testParams_t   *prm;                               
     464                    ;----------------------------------------------------------------------
     465 00000000     25f7             STW     .D2T1   A11,*SP--(8)      ; |39| 
     466                            .dwcfi  cfa_offset, 8
     467                            .dwcfi  save_reg_to_mem, 11, 0
     468 00000002     2577             STW     .D2T1   A10,*SP--(8)      ; |39| 
     469                            .dwcfi  cfa_offset, 16
     470                            .dwcfi  save_reg_to_mem, 10, -8
     471 00000004     9677             STDW    .D2T2   B13:B12,*SP--     ; |39| 
     472                            .dwcfi  cfa_offset, 24
     473                            .dwcfi  save_reg_to_mem, 29, -12
     474                            .dwcfi  save_reg_to_mem, 28, -16
     475 00000006     9577             STDW    .D2T2   B11:B10,*SP--     ; |39| 
     476                            .dwcfi  cfa_offset, 32
     477                            .dwcfi  save_reg_to_mem, 27, -20
     478                            .dwcfi  save_reg_to_mem, 26, -24
     479 00000008     8777             STDW    .D2T1   A15:A14,*SP--     ; |39| 
     480                            .dwcfi  cfa_offset, 40
     481                            .dwcfi  save_reg_to_mem, 15, -28
     482                            .dwcfi  save_reg_to_mem, 14, -32
     483 0000000a     8677             STDW    .D2T1   A13:A12,*SP--     ; |39| 
     484                            .dwcfi  cfa_offset, 48
     485                            .dwcfi  save_reg_to_mem, 13, -36
     486                            .dwcfi  save_reg_to_mem, 12, -40
     487 0000000c 01bd54f6             STW     .D2T2   B3,*SP--(40)      ; |39| 
     488                            .dwcfi  cfa_offset, 88
     489                            .dwcfi  save_reg_to_mem, 19, 0
     490                    $C$DW$77        .dwtag  DW_TAG_variable, DW_AT_name("$O$C1")
     491                            .dwattr $C$DW$77, DW_AT_TI_symbol_name("$O$C1")
     492                            .dwattr $C$DW$77, DW_AT_type(*$C$DW$T$10)
     493                            .dwattr $C$DW$77, DW_AT_location[DW_OP_reg3]
     494                    $C$DW$78        .dwtag  DW_TAG_variable, DW_AT_name("$O$C2")
     495                            .dwattr $C$DW$78, DW_AT_TI_symbol_name("$O$C2")
TMS320C6x Assembler PC v7.4.2 Thu Mar 19 12:42:26 2015

Tools Copyright (c) 1996-2012 Texas Instruments Incorporated
package/lib/Regression/regress_d_c/./../packages/ti/vlib/src/VLIB_initVarWithConstS16/VLIB_initVarWithConstS16_d.se66 PAGE   10

     496                            .dwattr $C$DW$78, DW_AT_type(*$C$DW$T$10)
     497                            .dwattr $C$DW$78, DW_AT_location[DW_OP_reg3]
     498                    $C$DW$79        .dwtag  DW_TAG_variable, DW_AT_name("$O$U12")
     499                            .dwattr $C$DW$79, DW_AT_TI_symbol_name("$O$U12")
     500                            .dwattr $C$DW$79, DW_AT_type(*$C$DW$T$41)
     501                            .dwattr $C$DW$79, DW_AT_location[DW_OP_reg11]
     502                    $C$DW$80        .dwtag  DW_TAG_variable, DW_AT_name("$O$K25")
     503                            .dwattr $C$DW$80, DW_AT_TI_symbol_name("$O$K25")
     504                            .dwattr $C$DW$80, DW_AT_type(*$C$DW$T$79)
     505                            .dwattr $C$DW$80, DW_AT_location[DW_OP_reg27]
     506                    $C$DW$81        .dwtag  DW_TAG_variable, DW_AT_name("$O$K36")
     507                            .dwattr $C$DW$81, DW_AT_TI_symbol_name("$O$K36")
     508                            .dwattr $C$DW$81, DW_AT_type(*$C$DW$T$145)
     509                            .dwattr $C$DW$81, DW_AT_location[DW_OP_reg14]
     510                    $C$DW$82        .dwtag  DW_TAG_variable, DW_AT_name("$O$U46")
     511                            .dwattr $C$DW$82, DW_AT_TI_symbol_name("$O$U46")
     512                            .dwattr $C$DW$82, DW_AT_type(*$C$DW$T$92)
     513                            .dwattr $C$DW$82, DW_AT_location[DW_OP_reg0]
     514                    $C$DW$83        .dwtag  DW_TAG_variable, DW_AT_name("$O$U11")
     515                            .dwattr $C$DW$83, DW_AT_TI_symbol_name("$O$U11")
     516                            .dwattr $C$DW$83, DW_AT_type(*$C$DW$T$10)
     517                            .dwattr $C$DW$83, DW_AT_location[DW_OP_reg28]
     518                    $C$DW$84        .dwtag  DW_TAG_variable, DW_AT_name("$O$K58")
     519                            .dwattr $C$DW$84, DW_AT_TI_symbol_name("$O$K58")
     520                            .dwattr $C$DW$84, DW_AT_type(*$C$DW$T$79)
     521                            .dwattr $C$DW$84, DW_AT_location[DW_OP_reg29]
     522                    $C$DW$85        .dwtag  DW_TAG_variable, DW_AT_name("tpi")
     523                            .dwattr $C$DW$85, DW_AT_TI_symbol_name("tpi")
     524                            .dwattr $C$DW$85, DW_AT_type(*$C$DW$T$29)
     525                            .dwattr $C$DW$85, DW_AT_location[DW_OP_reg13]
     526                    $C$DW$86        .dwtag  DW_TAG_variable, DW_AT_name("prm")
     527                            .dwattr $C$DW$86, DW_AT_TI_symbol_name("prm")
     528                            .dwattr $C$DW$86, DW_AT_type(*$C$DW$T$44)
     529                            .dwattr $C$DW$86, DW_AT_location[DW_OP_breg31 20]
     530                    $C$DW$87        .dwtag  DW_TAG_variable, DW_AT_name("status_nat_vs_int")
     531                            .dwattr $C$DW$87, DW_AT_TI_symbol_name("status_nat_vs_int")
     532                            .dwattr $C$DW$87, DW_AT_type(*$C$DW$T$29)
     533                            .dwattr $C$DW$87, DW_AT_location[DW_OP_reg26]
     534                    $C$DW$88        .dwtag  DW_TAG_variable, DW_AT_name("status_nat_vs_ref")
     535                            .dwattr $C$DW$88, DW_AT_TI_symbol_name("status_nat_vs_ref")
     536                            .dwattr $C$DW$88, DW_AT_type(*$C$DW$T$29)
     537                            .dwattr $C$DW$88, DW_AT_location[DW_OP_reg15]
     538                    $C$DW$89        .dwtag  DW_TAG_variable, DW_AT_name("runningVar")
     539                            .dwattr $C$DW$89, DW_AT_TI_symbol_name("runningVar")
     540                            .dwattr $C$DW$89, DW_AT_type(*$C$DW$T$21)
     541                            .dwattr $C$DW$89, DW_AT_location[DW_OP_breg31 24]
     542                    $C$DW$90        .dwtag  DW_TAG_variable, DW_AT_name("runningVar_cn")
     543                            .dwattr $C$DW$90, DW_AT_TI_symbol_name("runningVar_cn")
     544                            .dwattr $C$DW$90, DW_AT_type(*$C$DW$T$21)
     545                            .dwattr $C$DW$90, DW_AT_location[DW_OP_breg31 28]
     546                    $C$DW$91        .dwtag  DW_TAG_variable, DW_AT_name("$O$v1")
     547                            .dwattr $C$DW$91, DW_AT_TI_symbol_name("$O$v1")
     548                            .dwattr $C$DW$91, DW_AT_type(*$C$DW$T$44)
     549                            .dwattr $C$DW$91, DW_AT_location[DW_OP_reg20]
     550                    $C$DW$92        .dwtag  DW_TAG_variable, DW_AT_name("$O$v2")
TMS320C6x Assembler PC v7.4.2 Thu Mar 19 12:42:26 2015

Tools Copyright (c) 1996-2012 Texas Instruments Incorporated
package/lib/Regression/regress_d_c/./../packages/ti/vlib/src/VLIB_initVarWithConstS16/VLIB_initVarWithConstS16_d.se66 PAGE   11

     551                            .dwattr $C$DW$92, DW_AT_TI_symbol_name("$O$v2")
     552                            .dwattr $C$DW$92, DW_AT_type(*$C$DW$T$146)
     553                            .dwattr $C$DW$92, DW_AT_location[DW_OP_reg24]
     554                    $C$DW$93        .dwtag  DW_TAG_variable, DW_AT_name("$O$v2")
     555                            .dwattr $C$DW$93, DW_AT_TI_symbol_name("$O$v2")
     556                            .dwattr $C$DW$93, DW_AT_type(*$C$DW$T$146)
     557                            .dwattr $C$DW$93, DW_AT_location[DW_OP_regx 0x35]
     558 00000010 05000028!            MVKL    .S1     test_cases,A10
     559 00000014 05000068!            MVKH    .S1     test_cases,A10
     560                            .dwpsn  file "./../packages/ti/vlib/src/VLIB_initVarWithConstS16/VLIB_initVarWithConstS16_d.c"
     561                    ;----------------------------------------------------------------------
     562                    ;  45 | initVarWithConstS16_getTestParams(&prm, &test_cases);                  
     563                    ;----------------------------------------------------------------------
     564 00000018     a636             ADDAW   .D1X    SP,5,A4           ; |45| 
     565                    $C$DW$94        .dwtag  DW_TAG_TI_branch
     566                            .dwattr $C$DW$94, DW_AT_low_pc(0x00)
     567                            .dwattr $C$DW$94, DW_AT_name("initVarWithConstS16_getTestParams")
     568                            .dwattr $C$DW$94, DW_AT_TI_call
     569                    
     570 00000020 10000012!            CALLP   .S2     initVarWithConstS16_getTestParams,B3
     571 0000001a     9507  ||         MV      .L2X    A10,B4            ; |45| 
     572                    
     573 00000024           $C$RL0:    ; CALL OCCURS {initVarWithConstS16_getTestParams} {0}  ; |45| 
     574                    ;** --------------------------------------------------------------------------*
     575                    ;          EXCLUSIVE CPU CYCLES: 8
     576 00000024 0200002a!            MVKL    .S2     $C$SL1+0,B4
     577 00000028 0200006a!            MVKH    .S2     $C$SL1+0,B4
     578                    $C$DW$95        .dwtag  DW_TAG_TI_branch
     579                            .dwattr $C$DW$95, DW_AT_low_pc(0x00)
     580                            .dwattr $C$DW$95, DW_AT_name("VLIB_profile_init")
     581                            .dwattr $C$DW$95, DW_AT_TI_call
     582                    
     583 0000002c 10000013!            CALLP   .S2     VLIB_profile_init,B3
     584 00000030 0208a358  ||         MVK     .L1     0x2,A4            ; |48| 
     585                    
     586                            .dwpsn  file "./../packages/ti/vlib/src/VLIB_initVarWithConstS16/VLIB_initVarWithConstS16_d.c"
     587                    ;----------------------------------------------------------------------
     588                    ;  48 | VLIB_profile_init(2, "VLIB_initVarWithConstS16");                      
     589                    ;----------------------------------------------------------------------
     590 00000034           $C$RL1:    ; CALL OCCURS {VLIB_profile_init} {0}  ; |48| 
     591                    ;** --------------------------------------------------------------------------*
     592                    ;          EXCLUSIVE CPU CYCLES: 12
     593                    
     594 00000034 0680a359             ZERO    .L1     A13               ; |51| 
     595 00000038 0600a35b  ||         ZERO    .L2     B12               ; |51| 
     596 0000003c 01a80264  ||         LDW     .D1T1   *A10,A3           ; |51| 
     597                    
     598 00000040 023ca2e4             LDW     .D2T1   *+SP(20),A4
     599 00000044 0680002a!            MVKL    .S2     desc,B13
     600 00000048 07000028!            MVKL    .S1     cycles,A14
     601 0000004c 07000068!            MVKH    .S1     cycles,A14
     602                            .dwpsn  file "./../packages/ti/vlib/src/VLIB_initVarWithConstS16/VLIB_initVarWithConstS16_d.c"
     603                    ;----------------------------------------------------------------------
     604                    ;  51 | for( tpi=0; tpi < test_cases; tpi++ ) {                                
     605                    ;  54 |     int32_t    status_nat_vs_int = vlib_KERNEL_PASS; /* Test status : N
TMS320C6x Assembler PC v7.4.2 Thu Mar 19 12:42:26 2015

Tools Copyright (c) 1996-2012 Texas Instruments Incorporated
package/lib/Regression/regress_d_c/./../packages/ti/vlib/src/VLIB_initVarWithConstS16/VLIB_initVarWithConstS16_d.se66 PAGE   12

     606                    ;     | atural c vs. Optimized */                                              
     607                    ;  55 |     int32_t    status_nat_vs_ref = vlib_KERNEL_PASS; /* Test status : N
     608                    ;     | atural c vs. Static Reference */                                       
     609                    ;----------------------------------------------------------------------
     610 00000050 000c0ad8             CMPGT   .L1     A3,0,A0           ; |51| 
     611                    
     612 00000054 d0006411     [!A0]   B       .S1     $C$L5             ; |51| 
     613 00000058 059209c0  ||         SUB     .D1     A4,16,A11
     614                    
     615                            .dwpsn  file "./../packages/ti/vlib/src/VLIB_initVarWithConstS16/VLIB_initVarWithConstS16_d.c"
     616                    ;----------------------------------------------------------------------
     617                    ;  58 | int16_t   *runningVar     =  (int16_t *) VLIB_malloc(prm[tpi].pixelCoun
     618                    ;     | t * sizeof(int16_t));                                                  
     619                    ;----------------------------------------------------------------------
     620 0000005c 05800850             ADDK    .S1     16,A11            ; |58| 
     621 00000060 c1ac6264     [ A0]   LDW     .D1T1   *+A11(12),A3      ; |58| 
     622 00000064 0580002a!            MVKL    .S2     testPatternString,B11
     623 00000068 0680006a!            MVKH    .S2     desc,B13
     624 0000006c 0580006a!            MVKH    .S2     testPatternString,B11
     625                            .dwpsn  file "./../packages/ti/vlib/src/VLIB_initVarWithConstS16/VLIB_initVarWithConstS16_d.c"
     626                               ; BRANCHCC OCCURS {$C$L5}         ; |51| 
     627                    ;** --------------------------------------------------------------------------*
     628                    ;          EXCLUSIVE CPU CYCLES: 2
     629                    ;**     -----------------------    K$25 = &testPatternString[0];
     630                    ;**     -----------------------    K$36 = &cycles[0];
     631                    ;**     -----------------------    K$58 = &desc[0];
     632                    ;**     -----------------------    U$12 = prm-16;
     633                    ;**     -----------------------    U$11 = 0;
     634                    ;** 51  -----------------------    tpi = 0;
     635                    ;**     -----------------------    #pragma LOOP_FLAGS(5120u)
     636 00000070     0c6e             NOP             1
     637                            .dwpsn  file "./../packages/ti/vlib/src/VLIB_initVarWithConstS16/VLIB_initVarWithConstS16_d.c"
     638 00000072     61c0             ADD     .L1     A3,A3,A4          ; |58| 
     639                    ;*----------------------------------------------------------------------------*
     640                    ;*   SOFTWARE PIPELINE INFORMATION
     641                    ;*      Disqualified loop: Loop contains a call
     642                    ;*      Disqualified loop: Loop contains non-pipelinable instructions
     643                    ;*      Disqualified loop: Loop contains a call
     644                    ;*      Disqualified loop: Loop contains non-pipelinable instructions
     645                    ;*      Disqualified loop: Loop contains control code
     646                    ;*----------------------------------------------------------------------------*
     647 00000074           $C$L1:    
     648                            .dwpsn  file "./../packages/ti/vlib/src/VLIB_initVarWithConstS16/VLIB_initVarWithConstS16_d.c"
     649 00000074           $C$DW$L$VLIB_initVarWithConstS16_d$5$B:
     650                    ;          EXCLUSIVE CPU CYCLES: 6
     651                    ;**     -----------------------g3:
     652                    ;** 58  -----------------------    runningVar = VLIB_malloc((*(U$12 += 16)).pixelCount*2u);
     653                    ;** 59  -----------------------    runningVar_cn = malloc((*U$12).pixelCount*2u);
     654                    ;** 62  -----------------------    if ( !((runningVar != NULL)&(runningVar_cn != NULL)) ) goto g8;
     655                            .dwpsn  file "./../packages/ti/vlib/src/VLIB_initVarWithConstS16/VLIB_initVarWithConstS16_d.c"
     656                    $C$DW$96        .dwtag  DW_TAG_TI_branch
     657                            .dwattr $C$DW$96, DW_AT_low_pc(0x00)
     658                            .dwattr $C$DW$96, DW_AT_name("VLIB_malloc")
     659                            .dwattr $C$DW$96, DW_AT_TI_call
     660 00000074 00000010!            CALL    .S1     VLIB_malloc       ; |58| 
TMS320C6x Assembler PC v7.4.2 Thu Mar 19 12:42:26 2015

Tools Copyright (c) 1996-2012 Texas Instruments Incorporated
package/lib/Regression/regress_d_c/./../packages/ti/vlib/src/VLIB_initVarWithConstS16/VLIB_initVarWithConstS16_d.se66 PAGE   13

     661 00000078 01888162             ADDKPC  .S2     $C$RL2,B3,4       ; |58| 
     662 00000080           $C$RL2:    ; CALL OCCURS {VLIB_malloc} {0}   ; |58| 
     663 00000080           $C$DW$L$VLIB_initVarWithConstS16_d$5$E:
     664                    ;** --------------------------------------------------------------------------*
     665 00000080           $C$DW$L$VLIB_initVarWithConstS16_d$6$B:
     666                    ;          EXCLUSIVE CPU CYCLES: 11
     667                            .dwpsn  file "./../packages/ti/vlib/src/VLIB_initVarWithConstS16/VLIB_initVarWithConstS16_d.c"
     668                    ;----------------------------------------------------------------------
     669                    ;  59 | int16_t   *runningVar_cn  =  (int16_t *) malloc(prm[tpi].pixelCount * s
     670                    ;     | izeof(int16_t));                                                       
     671                    ;----------------------------------------------------------------------
     672 00000080 01ac6264             LDW     .D1T1   *+A11(12),A3      ; |59| 
     673                            .dwpsn  file "./../packages/ti/vlib/src/VLIB_initVarWithConstS16/VLIB_initVarWithConstS16_d.c"
     674 00000084 05100fd8             MV      .L1     A4,A10            ; |58| 
     675 00000088 053cc2f4             STW     .D2T1   A10,*+SP(24)      ; |58| 
     676 0000008c     2c6e             NOP             2
     677                    $C$DW$97        .dwtag  DW_TAG_TI_branch
     678                            .dwattr $C$DW$97, DW_AT_low_pc(0x00)
     679                            .dwattr $C$DW$97, DW_AT_name("malloc")
     680                            .dwattr $C$DW$97, DW_AT_TI_call
     681                    
     682 00000090 10000012!            CALLP   .S2     malloc,B3
     683 0000008e     61c0  ||         ADD     .L1     A3,A3,A4          ; |59| 
     684                    
     685                            .dwpsn  file "./../packages/ti/vlib/src/VLIB_initVarWithConstS16/VLIB_initVarWithConstS16_d.c"
     686 00000094           $C$RL3:    ; CALL OCCURS {malloc} {0}        ; |59| 
     687 00000094           $C$DW$L$VLIB_initVarWithConstS16_d$6$E:
     688                    ;** --------------------------------------------------------------------------*
     689 00000094           $C$DW$L$VLIB_initVarWithConstS16_d$7$B:
     690                    ;          EXCLUSIVE CPU CYCLES: 9
     691                    
     692 00000094     0506             MV      .L1     A10,A0            ; |62| 
     693 00000096     1247  ||         MV      .L2X    A4,B0             ; |62| 
     694 00000098     0293  ||         ZERO    .S2     B5                ; |62| 
     695 0000009a     1a77  ||         ZERO    .D2     B4                ; |62| 
     696                    
     697 000000a0     2ae7     [ A0]   MVK     .L2     0x1,B5            ; |62| 
     698 000000a2     aa6f  || [ B0]   MVK     .S2     0x1,B4            ; |62| 
     699 000000a4     ecc5  ||         STW     .D2T1   A4,*+SP(28)       ; |59| 
     700                    
     701                            .dwpsn  file "./../packages/ti/vlib/src/VLIB_initVarWithConstS16/VLIB_initVarWithConstS16_d.c"
     702                    ;----------------------------------------------------------------------
     703                    ;  62 | if( runningVar && runningVar_cn ) {                                    
     704                    ;  64 |     int32_t    fail;                                                   
     705                    ;----------------------------------------------------------------------
     706 000000a6     8689             AND     .L2     B4,B5,B0          ; |62| 
     707                    
     708 000000a8 2404a35b     [ B0]   MVK     .L2     0x1,B8            ; |67| 
     709 000000ac 30004c91  || [!B0]   B       .S1     $C$L3             ; |62| 
     710 000000b0 31ac6264  || [!B0]   LDW     .D1T1   *+A11(12),A3      ; |105| 
     711                    
     712                            .dwpsn  file "./../packages/ti/vlib/src/VLIB_initVarWithConstS16/VLIB_initVarWithConstS16_d.c"
     713                    ;----------------------------------------------------------------------
     714                    ;  67 | VLIB_fillBuffer(prm[tpi].testPattern,                                  
     715                    ;  68 |                 (uint16_t)1,                                           
TMS320C6x Assembler PC v7.4.2 Thu Mar 19 12:42:26 2015

Tools Copyright (c) 1996-2012 Texas Instruments Incorporated
package/lib/Regression/regress_d_c/./../packages/ti/vlib/src/VLIB_initVarWithConstS16/VLIB_initVarWithConstS16_d.se66 PAGE   14

     716                    ;  69 |                 NULL, NULL,                                            
     717                    ;  70 |                 0, 1, 1,                                               
     718                    ;  71 |                 1, testPatternString);                                 
     719                    ;  74 | VLIB_profile_start(vlib_KERNEL_OPT);                                   
     720                    ;  75 | VLIB_initVarWithConstS16(runningVar, prm[tpi].constVar, prm[tpi].pixelC
     721                    ;     | ount);                                                                 
     722                    ;  76 | VLIB_profile_stop();                                                   
     723                    ;  80 | VLIB_profile_start(vlib_KERNEL_CN);                                    
     724                    ;  81 | VLIB_initVarWithConstS16_cn(runningVar_cn, prm[tpi].constVar, prm[tpi].
     725                    ;     | pixelCount);                                                           
     726                    ;  82 | VLIB_profile_stop();                                                   
     727                    ;  86 | status_nat_vs_int = VLIB_compare_mem((void *) runningVar, (void *)runni
     728                    ;     | ngVar_cn, prm[tpi].pixelCount * sizeof(runningVar_cn[0]));             
     729                    ;  89 | if( prm[tpi].staticOut != NULL ) {                                     
     730                    ;  90 |     status_nat_vs_ref = VLIB_compare_mem((void *) prm[tpi].staticOut, (
     731                    ;     | void *)runningVar_cn, prm[tpi].pixelCount * sizeof(runningVar_cn[0])); 
     732                    ;  94 | fail = ((status_nat_vs_int == vlib_KERNEL_FAIL) || (status_nat_vs_ref =
     733                    ;     | = vlib_KERNEL_FAIL)) ? 1 : 0;                                          
     734                    ;  96 | est_test=1;                                                            
     735                    ;  99 | sprintf(desc, "%s generated input | Opt results compared to NatC result
     736                    ;     | s | pixelCount=%d",                                                    
     737                    ; 100 |         testPatternString, prm[tpi].pixelCount);                       
     738                    ; 101 | VLIB_formula_add_test(prm[tpi].pixelCount, NULL, NULL, fail, desc, NULL
     739                    ;     | );                                                                     
     740                    ; 103 | } else {                                                               
     741                    ;----------------------------------------------------------------------
     742 000000b4 222c0214     [ B0]   LDBU    .D1T1   *A11,A4           ; |67| 
     743                    $C$DW$98        .dwtag  DW_TAG_TI_branch
     744                            .dwattr $C$DW$98, DW_AT_low_pc(0x00)
     745                            .dwattr $C$DW$98, DW_AT_name("VLIB_fillBuffer")
     746                            .dwattr $C$DW$98, DW_AT_TI_call
     747 000000b8 20000010!    [ B0]   CALL    .S1     VLIB_fillBuffer   ; |67| 
     748                            .dwpsn  file "./../packages/ti/vlib/src/VLIB_initVarWithConstS16/VLIB_initVarWithConstS16_d.c"
     749                    ;----------------------------------------------------------------------
     750                    ; 105 | sprintf(desc, "pixelCount=%d",                                         
     751                    ; 106 |         prm[tpi].pixelCount);                                          
     752                    ; 107 | VLIB_skip_test(desc);                                                  
     753                    ; 111 | free(runningVar_cn);                                                   
     754                    ; 112 | VLIB_free(runningVar);                                                 
     755                    ; 116 | VLIB_profile_cycle_report(vlib_PROFILE_FORMULA_RANGE,                  
     756                    ; 117 |                   "N = pixelCount",                                    
     757                    ; 118 |                   "pixelCount");                                       
     758                    ; 121 | VLIB_kernel_memory();                                                  
     759                    ; 125 | #ifndef __ONESHOTTEST                                                  
     760                    ; 127 | main() {                                                               
     761                    ; 128 | if( VLIB_cache_init()) {                                               
     762                    ; 129 | VLIB_memError("VLIB_initVarWithConstS16");                             
     763                    ; 130 | } else {                                                               
     764                    ; 131 | VLIB_initVarWithConstS16_d(0);                                         
     765                    ; 134 | #endif /* __ONESHOTTEST */                                             
     766                    ;----------------------------------------------------------------------
     767                    $C$DW$99        .dwtag  DW_TAG_TI_branch
     768                            .dwattr $C$DW$99, DW_AT_low_pc(0x00)
     769                            .dwattr $C$DW$99, DW_AT_name("sprintf")
     770                            .dwattr $C$DW$99, DW_AT_TI_call
TMS320C6x Assembler PC v7.4.2 Thu Mar 19 12:42:26 2015

Tools Copyright (c) 1996-2012 Texas Instruments Incorporated
package/lib/Regression/regress_d_c/./../packages/ti/vlib/src/VLIB_initVarWithConstS16/VLIB_initVarWithConstS16_d.se66 PAGE   15

     771 000000c0 30000010!    [!B0]   CALL    .S1     sprintf           ; |105| 
     772 000000c4 3200002a!    [!B0]   MVKL    .S2     $C$SL3+0,B4
     773 000000c8 3200006a!    [!B0]   MVKH    .S2     $C$SL3+0,B4
     774                            .dwpsn  file "./../packages/ti/vlib/src/VLIB_initVarWithConstS16/VLIB_initVarWithConstS16_d.c"
     775                               ; BRANCHCC OCCURS {$C$L3}         ; |62| 
     776 000000cc           $C$DW$L$VLIB_initVarWithConstS16_d$7$E:
     777                    ;** --------------------------------------------------------------------------*
     778 000000cc           $C$DW$L$VLIB_initVarWithConstS16_d$8$B:
     779                    ;          EXCLUSIVE CPU CYCLES: 2
     780                    ;** 67  -----------------------    VLIB_fillBuffer((*U$12).testPattern, 1u, NULL, NULL, 0u, 1u, 1u, 1u
     781                    ;** 137 -----------------------    act_kernel = 0;  // [14]
     782                    ;** 140 -----------------------    VLIB_cache_inval();  // [14]
     783                    ;** 143 -----------------------    initStack(getSP());  // [14]
     784                    ;** 146 -----------------------    beg_count = _itoll(TSCH, TSCL);  // [14]
     785                    ;** 75  -----------------------    VLIB_initVarWithConstS16(runningVar, (*U$12).constVar, (*U$12).pixe
     786                    ;** 153 -----------------------    v$2 = _itoll(TSCH, TSCL);  // [15]
     787                    ;** 153 -----------------------    end_count = v$2;  // [15]
     788                    ;** 156 -----------------------    C$2 = act_kernel;  // [15]
     789                    ;** 156 -----------------------    *((C$2<<3)+K$36) = *((C$2<<3)+K$36)+(v$2-(beg_count+overhead));  //
     790                    ;** 159 -----------------------    setStackDepth();  // [15]
     791                    ;** 137 -----------------------    act_kernel = 1;  // [14]
     792                    ;** 140 -----------------------    VLIB_cache_inval();  // [14]
     793                    ;** 143 -----------------------    initStack(getSP());  // [14]
     794                    ;** 146 -----------------------    beg_count = _itoll(TSCH, TSCL);  // [14]
     795                    ;** 81  -----------------------    VLIB_initVarWithConstS16_cn(runningVar_cn, (*U$12).constVar, (*U$12
     796                    ;** 153 -----------------------    v$2 = _itoll(TSCH, TSCL);  // [15]
     797                    ;** 153 -----------------------    end_count = v$2;  // [15]
     798                    ;** 156 -----------------------    C$1 = act_kernel;  // [15]
     799                    ;** 156 -----------------------    *((C$1<<3)+K$36) = *((C$1<<3)+K$36)+(v$2-(beg_count+overhead));  //
     800                    ;** 159 -----------------------    setStackDepth();  // [15]
     801                    
     802 000000cc 05201fd9             MV      .L1X    B8,A10            ; |67| 
     803 000000d0     8407  ||         MV      .L2     B8,B4             ; |67| 
     804                    
     805 000000d8 062c1fd9             MV      .L1X    B11,A12           ; |67| 
     806 000000d4 04000029  ||         ZERO    .S1     A8                ; |67| 
     807 000000d2     1b76  ||         ZERO    .D1     A6                ; |67| 
     808 000000e0 01830163  ||         ADDKPC  .S2     $C$RL4,B3,0       ; |67| 
     809 000000e8 0300a35a  ||         ZERO    .L2     B6                ; |67| 
     810 000000e4 052008f3  ||         MV      .D2     B8,B10            ; |67| 
     811                    
     812                            .dwpsn  file "./../packages/ti/vlib/src/VLIB_initVarWithConstS16/VLIB_initVarWithConstS16_d.c"
     813 000000ec           $C$RL4:    ; CALL OCCURS {VLIB_fillBuffer} {0}  ; |67| 
     814 000000ec           $C$DW$L$VLIB_initVarWithConstS16_d$8$E:
     815                    ;** --------------------------------------------------------------------------*
     816 000000ec           $C$DW$L$VLIB_initVarWithConstS16_d$9$B:
     817                    ;          EXCLUSIVE CPU CYCLES: 108
     818 000000ec 0280002a!            MVKL    .S2     act_kernel,B5
     819                    
     820 000000f0 0280006b!            MVKH    .S2     act_kernel,B5
     821 000000f4     0627  ||         ZERO    .L2     B4                ; |137| 
     822                    
     823                    $C$DW$100       .dwtag  DW_TAG_TI_branch
     824                            .dwattr $C$DW$100, DW_AT_low_pc(0x00)
     825                            .dwattr $C$DW$100, DW_AT_name("VLIB_cache_inval")
TMS320C6x Assembler PC v7.4.2 Thu Mar 19 12:42:26 2015

Tools Copyright (c) 1996-2012 Texas Instruments Incorporated
package/lib/Regression/regress_d_c/./../packages/ti/vlib/src/VLIB_initVarWithConstS16/VLIB_initVarWithConstS16_d.se66 PAGE   16

     826                            .dwattr $C$DW$100, DW_AT_TI_call
     827                    
     828 000000f8 10000012!            CALLP   .S2     VLIB_cache_inval,B3
     829 000000f6     10c5  ||         STW     .D2T2   B4,*B5            ; |137| 
     830                    
     831                            .dwpsn  file ".\..\packages\ti\vlib\src\VLIB_initVarWithConstS16\..\common\VLIB_profile.h",lin
     832                    ;----------------------------------------------------------------------
     833                    ; 140 |                                                                        
     834                    ;----------------------------------------------------------------------
     835                    $C$RL5:    ; CALL OCCURS {VLIB_cache_inval} {0}  ; |140| 
     836                    $C$DW$101       .dwtag  DW_TAG_TI_branch
     837                            .dwattr $C$DW$101, DW_AT_low_pc(0x00)
     838                            .dwattr $C$DW$101, DW_AT_name("getSP")
     839                            .dwattr $C$DW$101, DW_AT_TI_call
     840 00000100 10000012!            CALLP   .S2     getSP,B3
     841                            .dwpsn  file ".\..\packages\ti\vlib\src\VLIB_initVarWithConstS16\..\common\VLIB_profile.h",lin
     842                    $C$RL6:    ; CALL OCCURS {getSP} {0}         ; |143| 
     843                    $C$DW$102       .dwtag  DW_TAG_TI_branch
     844                            .dwattr $C$DW$102, DW_AT_low_pc(0x00)
     845                            .dwattr $C$DW$102, DW_AT_name("initStack")
     846                            .dwattr $C$DW$102, DW_AT_TI_call
     847 00000104 10000012!            CALLP   .S2     initStack,B3
     848 00000108           $C$RL7:    ; CALL OCCURS {initStack} {0}     ; |143| 
     849                            .dwpsn  file ".\..\packages\ti\vlib\src\VLIB_initVarWithConstS16\..\common\VLIB_profile.h",lin
     850 00000108 032803e2             MVC     .S2     TSCL,B6           ; |146| 
     851 0000010c 022c03e2             MVC     .S2     TSCH,B4           ; |146| 
     852 00000110 0280002a!            MVKL    .S2     beg_count,B5
     853                    
     854 00000114     e247             MV      .L2     B4,B7             ; |146| 
     855 00000118 022c8247  ||         LDH     .D1T2   *+A11(8),B4       ; |75| 
     856 00000116     cccd  ||         LDW     .D2T1   *+SP(24),A4       ; |75| 
     857 00000120 0280006a! ||         MVKH    .S2     beg_count,B5
     858                    
     859                    $C$DW$103       .dwtag  DW_TAG_TI_branch
     860                            .dwattr $C$DW$103, DW_AT_low_pc(0x00)
     861                            .dwattr $C$DW$103, DW_AT_name("VLIB_initVarWithConstS16")
     862                            .dwattr $C$DW$103, DW_AT_TI_call
     863                    
     864 00000124 10000013!            CALLP   .S2     VLIB_initVarWithConstS16,B3
     865 00000128 032c6265  ||         LDW     .D1T1   *+A11(12),A6      ; |75| 
     866 0000012c 031403c6  ||         STDW    .D2T2   B7:B6,*B5         ; |146| 
     867                    
     868                            .dwpsn  file "./../packages/ti/vlib/src/VLIB_initVarWithConstS16/VLIB_initVarWithConstS16_d.c"
     869 00000130           $C$RL8:    ; CALL OCCURS {VLIB_initVarWithConstS16} {0}  ; |75| 
     870                            .dwpsn  file ".\..\packages\ti\vlib\src\VLIB_initVarWithConstS16\..\common\VLIB_profile.h",lin
     871 00000130 042803e2             MVC     .S2     TSCL,B8           ; |153| 
     872 00000134 032c03e2             MVC     .S2     TSCH,B6           ; |153| 
     873 00000138 02000028!            MVKL    .S1     beg_count,A4
     874 0000013c 01800028!            MVKL    .S1     act_kernel,A3
     875                    
     876 00000140 01800069!            MVKH    .S1     act_kernel,A3
     877 00000144 0200002a! ||         MVKL    .S2     overhead,B4
     878                    
     879 00000148 018c0265             LDW     .D1T1   *A3,A3            ; |156| 
     880 0000014c 02000069! ||         MVKH    .S1     beg_count,A4
TMS320C6x Assembler PC v7.4.2 Thu Mar 19 12:42:26 2015

Tools Copyright (c) 1996-2012 Texas Instruments Incorporated
package/lib/Regression/regress_d_c/./../packages/ti/vlib/src/VLIB_initVarWithConstS16/VLIB_initVarWithConstS16_d.se66 PAGE   17

     881 00000150 0200006a! ||         MVKH    .S2     overhead,B4
     882                    
     883 00000154     004c             LDDW    .D1T1   *A4,A5:A4         ; |156| 
     884 00000156     104d  ||         LDDW    .D2T2   *B4,B5:B4         ; |156| 
     885                    
     886 00000158     2747             MV      .L2     B6,B9             ; |153| 
     887 0000015a     2c6e             NOP             2
     888                            .dwpsn  file ".\..\packages\ti\vlib\src\VLIB_initVarWithConstS16\..\common\VLIB_profile.h",lin
     889 00000160 03386b64             LDDW    .D1T1   *+A14[A3],A7:A6   ; |156| 
     890 00000164 0310957a             ADDU    .L2X    B4,A4,B7:B6       ; |156| 
     891                    
     892 0000016c     e2eb             ADD     .S2     B7,B5,B6          ; |156| 
     893 00000168 021905fb  ||         SUBU    .L2     B8,B6,B5:B4       ; |156| 
     894                    
     895 0000016e     d2e1             ADD     .L2X    B6,A5,B6          ; |156| 
     896                    
     897 00000170 0f9920fb             SUB     .L2     B9,B6,B31         ; |156| 
     898 00000174 0297184a  ||         EXT     .S2     B5,24,24,B5       ; |156| 
     899                    
     900 00000178 0410d579             ADDU    .L1X    A6,B4,A9:A8       ; |156| 
     901 00000180 0217e07b  ||         ADD     .L2     B31,B5,B4         ; |156| 
     902 00000184 02000028! ||         MVKL    .S1     end_count,A4
     903                    
     904 00000188 029d2079             ADD     .L1     A9,A7,A5          ; |156| 
     905 0000018c 02000068! ||         MVKH    .S1     end_count,A4
     906                    
     907 00000190 0490b079             ADD     .L1X    A5,B4,A9          ; |156| 
     908 00000194 04100346  ||         STDW    .D1T2   B9:B8,*A4         ; |153| 
     909                    
     910                    $C$DW$104       .dwtag  DW_TAG_TI_branch
     911                            .dwattr $C$DW$104, DW_AT_low_pc(0x00)
     912                            .dwattr $C$DW$104, DW_AT_name("setStackDepth")
     913                            .dwattr $C$DW$104, DW_AT_TI_call
     914                    
     915 00000198 10000013!            CALLP   .S2     setStackDepth,B3
     916 0000019c 04386b44  ||         STDW    .D1T1   A9:A8,*+A14[A3]   ; |156| 
     917                    
     918                            .dwpsn  file ".\..\packages\ti\vlib\src\VLIB_initVarWithConstS16\..\common\VLIB_profile.h",lin
     919 000001a0           $C$RL9:    ; CALL OCCURS {setStackDepth} {0}  ; |159| 
     920 000001a0 0280002a!            MVKL    .S2     act_kernel,B5
     921                    
     922 000001a4 0280006b!            MVKH    .S2     act_kernel,B5
     923 000001a8     2627  ||         MVK     .L2     1,B4              ; |137| 
     924                    
     925                    $C$DW$105       .dwtag  DW_TAG_TI_branch
     926                            .dwattr $C$DW$105, DW_AT_low_pc(0x00)
     927                            .dwattr $C$DW$105, DW_AT_name("VLIB_cache_inval")
     928                            .dwattr $C$DW$105, DW_AT_TI_call
     929                    
     930 000001ac 10000012!            CALLP   .S2     VLIB_cache_inval,B3
     931 000001aa     10c5  ||         STW     .D2T2   B4,*B5            ; |137| 
     932                    
     933                            .dwpsn  file ".\..\packages\ti\vlib\src\VLIB_initVarWithConstS16\..\common\VLIB_profile.h",lin
     934                    $C$RL10:   ; CALL OCCURS {VLIB_cache_inval} {0}  ; |140| 
     935                    $C$DW$106       .dwtag  DW_TAG_TI_branch
TMS320C6x Assembler PC v7.4.2 Thu Mar 19 12:42:26 2015

Tools Copyright (c) 1996-2012 Texas Instruments Incorporated
package/lib/Regression/regress_d_c/./../packages/ti/vlib/src/VLIB_initVarWithConstS16/VLIB_initVarWithConstS16_d.se66 PAGE   18

     936                            .dwattr $C$DW$106, DW_AT_low_pc(0x00)
     937                            .dwattr $C$DW$106, DW_AT_name("getSP")
     938                            .dwattr $C$DW$106, DW_AT_TI_call
     939 000001b0 10000012!            CALLP   .S2     getSP,B3
     940                            .dwpsn  file ".\..\packages\ti\vlib\src\VLIB_initVarWithConstS16\..\common\VLIB_profile.h",lin
     941                    $C$RL11:   ; CALL OCCURS {getSP} {0}         ; |143| 
     942                    $C$DW$107       .dwtag  DW_TAG_TI_branch
     943                            .dwattr $C$DW$107, DW_AT_low_pc(0x00)
     944                            .dwattr $C$DW$107, DW_AT_name("initStack")
     945                            .dwattr $C$DW$107, DW_AT_TI_call
     946 000001b4 10000012!            CALLP   .S2     initStack,B3
     947 000001b8           $C$RL12:   ; CALL OCCURS {initStack} {0}     ; |143| 
     948                            .dwpsn  file ".\..\packages\ti\vlib\src\VLIB_initVarWithConstS16\..\common\VLIB_profile.h",lin
     949 000001b8 032803e2             MVC     .S2     TSCL,B6           ; |146| 
     950 000001c0 022c03e2             MVC     .S2     TSCH,B4           ; |146| 
     951 000001c4 0280002a!            MVKL    .S2     beg_count,B5
     952                    
     953 000001c8     e247             MV      .L2     B4,B7             ; |146| 
     954 000001cc 022c8247  ||         LDH     .D1T2   *+A11(8),B4       ; |81| 
     955 000001ca     eccd  ||         LDW     .D2T1   *+SP(28),A4       ; |81| 
     956 000001d0 0280006a! ||         MVKH    .S2     beg_count,B5
     957                    
     958                    $C$DW$108       .dwtag  DW_TAG_TI_branch
     959                            .dwattr $C$DW$108, DW_AT_low_pc(0x00)
     960                            .dwattr $C$DW$108, DW_AT_name("VLIB_initVarWithConstS16_cn")
     961                            .dwattr $C$DW$108, DW_AT_TI_call
     962                    
     963 000001d4 10000013!            CALLP   .S2     VLIB_initVarWithConstS16_cn,B3
     964 000001d8 032c6265  ||         LDW     .D1T1   *+A11(12),A6      ; |81| 
     965 000001e0 031403c6  ||         STDW    .D2T2   B7:B6,*B5         ; |146| 
     966                    
     967                            .dwpsn  file "./../packages/ti/vlib/src/VLIB_initVarWithConstS16/VLIB_initVarWithConstS16_d.c"
     968 000001e4           $C$RL13:   ; CALL OCCURS {VLIB_initVarWithConstS16_cn} {0}  ; |81| 
     969                            .dwpsn  file ".\..\packages\ti\vlib\src\VLIB_initVarWithConstS16\..\common\VLIB_profile.h",lin
     970 000001e4 082803e2             MVC     .S2     TSCL,B16          ; |153| 
     971 000001e8 022c03e2             MVC     .S2     TSCH,B4           ; |153| 
     972 000001ec 0300002a!            MVKL    .S2     beg_count,B6
     973                    
     974 000001f0 01800029!            MVKL    .S1     act_kernel,A3
     975 000001f4 0280002a! ||         MVKL    .S2     overhead,B5
     976                    
     977 000001f8 01800069!            MVKH    .S1     act_kernel,A3
     978 000001fc 0300006a! ||         MVKH    .S2     beg_count,B6
     979                    
     980 00000200 018c0265             LDW     .D1T1   *A3,A3            ; |156| 
     981 00000204 0280006b! ||         MVKH    .S2     overhead,B5
     982 00000208 031803e6  ||         LDDW    .D2T2   *B6,B7:B6         ; |156| 
     983                    
     984                            .dwpsn  file ".\..\packages\ti\vlib\src\VLIB_initVarWithConstS16\..\common\VLIB_profile.h",lin
     985 0000020c 041403e6             LDDW    .D2T2   *B5,B9:B8         ; |156| 
     986                            .dwpsn  file ".\..\packages\ti\vlib\src\VLIB_initVarWithConstS16\..\common\VLIB_profile.h",lin
     987 00000210     2a47             MV      .L2     B4,B17            ; |153| 
     988 00000212     2c6e             NOP             2
     989                            .dwpsn  file ".\..\packages\ti\vlib\src\VLIB_initVarWithConstS16\..\common\VLIB_profile.h",lin
     990 00000214 03386b64             LDDW    .D1T1   *+A14[A3],A7:A6   ; |156| 
TMS320C6x Assembler PC v7.4.2 Thu Mar 19 12:42:26 2015

Tools Copyright (c) 1996-2012 Texas Instruments Incorporated
package/lib/Regression/regress_d_c/./../packages/ti/vlib/src/VLIB_initVarWithConstS16/VLIB_initVarWithConstS16_d.se66 PAGE   19

     991 00000218 0219057a             ADDU    .L2     B8,B6,B5:B4       ; |156| 
     992 00000220 0424a07a             ADD     .L2     B5,B9,B8          ; |156| 
     993                    
     994 00000224 039d01e3             ADD     .S2     B8,B7,B7          ; |156| 
     995 00000228 021205fa  ||         SUBU    .L2     B16,B4,B5:B4      ; |156| 
     996                    
     997 0000022c 0f9e20fb             SUB     .L2     B17,B7,B31        ; |156| 
     998 00000230 0297184a  ||         EXT     .S2     B5,24,24,B5       ; |156| 
     999                    
    1000 00000234 0210d579             ADDU    .L1X    A6,B4,A5:A4       ; |156| 
    1001 00000238 0217e07a  ||         ADD     .L2     B31,B5,B4         ; |156| 
    1002                    
    1003 0000023c 029ca079             ADD     .L1     A5,A7,A5          ; |156| 
    1004 00000240 0300002a! ||         MVKL    .S2     end_count,B6
    1005                    
    1006 00000244 0290b079             ADD     .L1X    A5,B4,A5          ; |156| 
    1007 00000248 0300006a! ||         MVKH    .S2     end_count,B6
    1008                    
    1009                    $C$DW$109       .dwtag  DW_TAG_TI_branch
    1010                            .dwattr $C$DW$109, DW_AT_low_pc(0x00)
    1011                            .dwattr $C$DW$109, DW_AT_name("setStackDepth")
    1012                            .dwattr $C$DW$109, DW_AT_TI_call
    1013                    
    1014 0000024c 10000013!            CALLP   .S2     setStackDepth,B3
    1015 00000250 02386b45  ||         STDW    .D1T1   A5:A4,*+A14[A3]   ; |156| 
    1016 00000254 081803c6  ||         STDW    .D2T2   B17:B16,*B6       ; |153| 
    1017                    
    1018                            .dwpsn  file ".\..\packages\ti\vlib\src\VLIB_initVarWithConstS16\..\common\VLIB_profile.h",lin
    1019 00000258           $C$RL14:   ; CALL OCCURS {setStackDepth} {0}  ; |159| 
    1020 00000258           $C$DW$L$VLIB_initVarWithConstS16_d$9$E:
    1021                    ;** --------------------------------------------------------------------------*
    1022 00000258           $C$DW$L$VLIB_initVarWithConstS16_d$10$B:
    1023                    ;          EXCLUSIVE CPU CYCLES: 11
    1024                    ;** 86  -----------------------    status_nat_vs_int = VLIB_compare_mem((void *)runningVar, (void *)ru
    1025                    ;** 89  -----------------------    v$1 = prm;
    1026                    ;** 89  -----------------------    U$46 = (*U$12).staticOut;
    1027                    ;** 89  -----------------------    if ( U$46 ) goto g6;
    1028                    ;** 55  -----------------------    status_nat_vs_ref = 1;
    1029                    ;**     -----------------------    goto g7;
    1030                            .dwpsn  file "./../packages/ti/vlib/src/VLIB_initVarWithConstS16/VLIB_initVarWithConstS16_d.c"
    1031 00000258 01ac6264             LDW     .D1T1   *+A11(12),A3      ; |86| 
    1032 0000025c 023cc2e4             LDW     .D2T1   *+SP(24),A4       ; |86| 
    1033 00000260     fccd             LDW     .D2T2   *+SP(28),B4       ; |86| 
    1034 00000262     2c6e             NOP             2
    1035                    $C$DW$110       .dwtag  DW_TAG_TI_branch
    1036                            .dwattr $C$DW$110, DW_AT_low_pc(0x04)
    1037                            .dwattr $C$DW$110, DW_AT_name("VLIB_compare_mem")
    1038                            .dwattr $C$DW$110, DW_AT_TI_call
    1039                    
    1040 00000268 030c6078             ADD     .L1     A3,A3,A6          ; |86| 
    1041 00000264 10000013! ||         CALLP   .S2     VLIB_compare_mem,B3
    1042                    
    1043 0000026c           $C$RL15:   ; CALL OCCURS {VLIB_compare_mem} {0}  ; |86| 
    1044 0000026c           $C$DW$L$VLIB_initVarWithConstS16_d$10$E:
    1045                    ;** --------------------------------------------------------------------------*
TMS320C6x Assembler PC v7.4.2 Thu Mar 19 12:42:26 2015

Tools Copyright (c) 1996-2012 Texas Instruments Incorporated
package/lib/Regression/regress_d_c/./../packages/ti/vlib/src/VLIB_initVarWithConstS16/VLIB_initVarWithConstS16_d.se66 PAGE   20

    1046 0000026c           $C$DW$L$VLIB_initVarWithConstS16_d$11$B:
    1047                    ;          EXCLUSIVE CPU CYCLES: 11
    1048                            .dwpsn  file "./../packages/ti/vlib/src/VLIB_initVarWithConstS16/VLIB_initVarWithConstS16_d.c"
    1049 0000026c 002c2264             LDW     .D1T1   *+A11(4),A0       ; |89| 
    1050 00000270     bccd             LDW     .D2T2   *+SP(20),B4       ; |89| 
    1051                            .dwpsn  file "./../packages/ti/vlib/src/VLIB_initVarWithConstS16/VLIB_initVarWithConstS16_d.c"
    1052 00000272     5647             MV      .L2X    A4,B10            ; |86| 
    1053 00000274     2c6e             NOP             2
    1054                    
    1055 00000276     08ba     [!A0]   B       .S1     $C$L2
    1056 00000278 c1ac6264  || [ A0]   LDW     .D1T1   *+A11(12),A3      ; |90| 
    1057                    
    1058                            .dwpsn  file "./../packages/ti/vlib/src/VLIB_initVarWithConstS16/VLIB_initVarWithConstS16_d.c"
    1059                    $C$DW$111       .dwtag  DW_TAG_TI_branch
    1060                            .dwattr $C$DW$111, DW_AT_low_pc(0x00)
    1061                            .dwattr $C$DW$111, DW_AT_name("VLIB_compare_mem")
    1062                            .dwattr $C$DW$111, DW_AT_TI_call
    1063 00000280 c0000010!    [ A0]   CALL    .S1     VLIB_compare_mem  ; |90| 
    1064 00000284 c23ce2e6     [ A0]   LDW     .D2T2   *+SP(28),B4       ; |90| 
    1065                            .dwpsn  file "./../packages/ti/vlib/src/VLIB_initVarWithConstS16/VLIB_initVarWithConstS16_d.c"
    1066 00000288 d7a80fd8     [!A0]   MV      .L1     A10,A15           ; |89| 
    1067 0000028c     2c6e             NOP             2
    1068                               ; BRANCHCC OCCURS {$C$L2}  
    1069 0000028e           $C$DW$L$VLIB_initVarWithConstS16_d$11$E:
    1070                    ;** --------------------------------------------------------------------------*
    1071 0000028e           $C$DW$L$VLIB_initVarWithConstS16_d$12$B:
    1072                    ;          EXCLUSIVE CPU CYCLES: 1
    1073                    ;**     -----------------------g6:
    1074                    ;** 90  -----------------------    status_nat_vs_ref = VLIB_compare_mem((void *)U$46, (void *)runningV
    1075                    ;** 90  -----------------------    v$1 = prm;
    1076                    
    1077 0000028e     8046             MV      .L1     A0,A4             ; |90| 
    1078 00000294 030c61e0  ||         ADD     .S1     A3,A3,A6          ; |90| 
    1079 00000290 01860163  ||         ADDKPC  .S2     $C$RL16,B3,0      ; |90| 
    1080                    
    1081                            .dwpsn  file "./../packages/ti/vlib/src/VLIB_initVarWithConstS16/VLIB_initVarWithConstS16_d.c"
    1082 00000298           $C$RL16:   ; CALL OCCURS {VLIB_compare_mem} {0}  ; |90| 
    1083 00000298           $C$DW$L$VLIB_initVarWithConstS16_d$12$E:
    1084                    ;** --------------------------------------------------------------------------*
    1085 00000298           $C$DW$L$VLIB_initVarWithConstS16_d$13$B:
    1086                    ;          EXCLUSIVE CPU CYCLES: 5
    1087 00000298     bccd             LDW     .D2T2   *+SP(20),B4       ; |90| 
    1088 0000029a     e646             MV      .L1     A4,A15            ; |90| 
    1089 000002a0 00004000             NOP             3
    1090 000002a4           $C$DW$L$VLIB_initVarWithConstS16_d$13$E:
    1091                    ;** --------------------------------------------------------------------------*
    1092 000002a4           $C$L2:    
    1093 000002a4           $C$DW$L$VLIB_initVarWithConstS16_d$14$B:
    1094                    ;          EXCLUSIVE CPU CYCLES: 12
    1095                    ;**     -----------------------g7:
    1096                    ;** 96  -----------------------    est_test = 1;
    1097                    ;** 99  -----------------------    sprintf(K$58, (const char *)"%s generated input | Opt results compa
    1098                    ;** 101 -----------------------    VLIB_formula_add_test((int)(*U$12).pixelCount, 0, 0, (status_nat_vs
    1099                    ;** 103 -----------------------    goto g9;
    1100                            .dwpsn  file "./../packages/ti/vlib/src/VLIB_initVarWithConstS16/VLIB_initVarWithConstS16_d.c"
TMS320C6x Assembler PC v7.4.2 Thu Mar 19 12:42:26 2015

Tools Copyright (c) 1996-2012 Texas Instruments Incorporated
package/lib/Regression/regress_d_c/./../packages/ti/vlib/src/VLIB_initVarWithConstS16/VLIB_initVarWithConstS16_d.se66 PAGE   21

    1101 000002a4 0230807a             ADD     .L2     B4,B12,B4         ; |99| 
    1102 000002a8 021062e6             LDW     .D2T2   *+B4(12),B4       ; |99| 
    1103 000002ac 0280002a!            MVKL    .S2     $C$SL2+0,B5
    1104 000002b0 02000028!            MVKL    .S1     est_test,A4
    1105                    
    1106 000002b4 0280006b!            MVKH    .S2     $C$SL2+0,B5
    1107 000002b8 05bc42f6  ||         STW     .D2T2   B11,*+SP(8)       ; |99| 
    1108                    
    1109 000002bc 02000069!            MVKH    .S1     est_test,A4
    1110 000002c0     25a6  ||         MVK     .L1     1,A3              ; |96| 
    1111 000002c2     bc55  ||         STW     .D2T2   B5,*+SP(4)        ; |99| 
    1112                    
    1113                    $C$DW$112       .dwtag  DW_TAG_TI_branch
    1114                            .dwattr $C$DW$112, DW_AT_low_pc(0x00)
    1115                            .dwattr $C$DW$112, DW_AT_name("sprintf")
    1116                            .dwattr $C$DW$112, DW_AT_TI_call
    1117                    
    1118 000002c4 10000013!            CALLP   .S2     sprintf,B3
    1119 000002c8     fc45  ||         STW     .D2T2   B4,*+SP(12)       ; |99| 
    1120 000002ca     0034  ||         STW     .D1T1   A3,*A4            ; |96| 
    1121 000002cc 02341fd8  ||         MV      .L1X    B13,A4            ; |99| 
    1122                    
    1123 000002d0           $C$RL17:   ; CALL OCCURS {sprintf} {0}       ; |99| 
    1124 000002d0           $C$DW$L$VLIB_initVarWithConstS16_d$14$E:
    1125                    ;** --------------------------------------------------------------------------*
    1126 000002d0           $C$DW$L$VLIB_initVarWithConstS16_d$15$B:
    1127                    ;          EXCLUSIVE CPU CYCLES: 8
    1128                            .dwpsn  file "./../packages/ti/vlib/src/VLIB_initVarWithConstS16/VLIB_initVarWithConstS16_d.c"
    1129 000002d0 01bc0a58             CMPEQ   .L1     A15,0,A3          ; |101| 
    1130                    
    1131 000002d4 02280a5b             CMPEQ   .L2     B10,0,B4          ; |101| 
    1132 000002d8 0400002a  ||         ZERO    .S2     B8                ; |101| 
    1133                    
    1134                    $C$DW$113       .dwtag  DW_TAG_TI_branch
    1135                            .dwattr $C$DW$113, DW_AT_low_pc(0x00)
    1136                            .dwattr $C$DW$113, DW_AT_name("VLIB_formula_add_test")
    1137                            .dwattr $C$DW$113, DW_AT_TI_call
    1138                    
    1139 000002e0 10000013!            CALLP   .S2     VLIB_formula_add_test,B3
    1140 000002e4 022c6265  ||         LDW     .D1T1   *+A11(12),A4      ; |101| 
    1141 000002e8 030c9ffb  ||         OR      .L2X    A3,B4,B6          ; |101| 
    1142 000002ec     1a77  ||         ZERO    .D2     B4                ; |101| 
    1143 000002ee     0726  ||         ZERO    .L1     A6                ; |101| 
    1144 000002f0 043416a0  ||         MV      .S1X    B13,A8            ; |101| 
    1145                    
    1146 000002f4           $C$RL18:   ; CALL OCCURS {VLIB_formula_add_test} {0}  ; |101| 
    1147 000002f4           $C$DW$L$VLIB_initVarWithConstS16_d$15$E:
    1148                    ;** --------------------------------------------------------------------------*
    1149 000002f4           $C$DW$L$VLIB_initVarWithConstS16_d$16$B:
    1150                    ;          EXCLUSIVE CPU CYCLES: 6
    1151                            .dwpsn  file "./../packages/ti/vlib/src/VLIB_initVarWithConstS16/VLIB_initVarWithConstS16_d.c"
    1152 000002f4 00000890             B       .S1     $C$L4             ; |103| 
    1153                            .dwpsn  file "./../packages/ti/vlib/src/VLIB_initVarWithConstS16/VLIB_initVarWithConstS16_d.c"
    1154                    $C$DW$114       .dwtag  DW_TAG_TI_branch
    1155                            .dwattr $C$DW$114, DW_AT_low_pc(0x00)
TMS320C6x Assembler PC v7.4.2 Thu Mar 19 12:42:26 2015

Tools Copyright (c) 1996-2012 Texas Instruments Incorporated
package/lib/Regression/regress_d_c/./../packages/ti/vlib/src/VLIB_initVarWithConstS16/VLIB_initVarWithConstS16_d.se66 PAGE   22

    1156                            .dwattr $C$DW$114, DW_AT_name("free")
    1157                            .dwattr $C$DW$114, DW_AT_TI_call
    1158 000002f8 00000010!            CALL    .S1     free              ; |111| 
    1159 00000300     eccd             LDW     .D2T1   *+SP(28),A4       ; |111| 
    1160 00000302     4c6e             NOP             3
    1161                            .dwpsn  file "./../packages/ti/vlib/src/VLIB_initVarWithConstS16/VLIB_initVarWithConstS16_d.c"
    1162                               ; BRANCH OCCURS {$C$L4}           ; |103| 
    1163 00000304           $C$DW$L$VLIB_initVarWithConstS16_d$16$E:
    1164                    ;** --------------------------------------------------------------------------*
    1165 00000304           $C$L3:    
    1166                            .dwpsn  file "./../packages/ti/vlib/src/VLIB_initVarWithConstS16/VLIB_initVarWithConstS16_d.c"
    1167 00000304           $C$DW$L$VLIB_initVarWithConstS16_d$17$B:
    1168                    ;          EXCLUSIVE CPU CYCLES: 3
    1169                    ;**     -----------------------g8:
    1170                    ;** 105 -----------------------    sprintf(K$58, (const char *)"pixelCount=%d", (*U$12).pixelCount);
    1171                    ;** 107 -----------------------    VLIB_skip_test(K$58);
    1172                            .dwpsn  file "./../packages/ti/vlib/src/VLIB_initVarWithConstS16/VLIB_initVarWithConstS16_d.c"
    1173 00000304 01bc42f4             STW     .D2T1   A3,*+SP(8)        ; |105| 
    1174 00000308 01840162             ADDKPC  .S2     $C$RL19,B3,0      ; |105| 
    1175                    
    1176 0000030c     9686             MV      .L1X    B13,A4            ; |105| 
    1177 0000030e     bc45  ||         STW     .D2T2   B4,*+SP(4)        ; |105| 
    1178                    
    1179                    $C$RL19:   ; CALL OCCURS {sprintf} {0}       ; |105| 
    1180                    $C$DW$L$VLIB_initVarWithConstS16_d$17$E:
    1181                    ;** --------------------------------------------------------------------------*
    1182                    $C$DW$L$VLIB_initVarWithConstS16_d$18$B:
    1183                    ;          EXCLUSIVE CPU CYCLES: 11
    1184                    $C$DW$115       .dwtag  DW_TAG_TI_branch
    1185                            .dwattr $C$DW$115, DW_AT_low_pc(0x00)
    1186                            .dwattr $C$DW$115, DW_AT_name("VLIB_skip_test")
    1187                            .dwattr $C$DW$115, DW_AT_TI_call
    1188                    
    1189 00000310 10000013!            CALLP   .S2     VLIB_skip_test,B3
    1190 00000314 02341fd8  ||         MV      .L1X    B13,A4            ; |107| 
    1191                    
    1192                            .dwpsn  file "./../packages/ti/vlib/src/VLIB_initVarWithConstS16/VLIB_initVarWithConstS16_d.c"
    1193 00000318           $C$RL20:   ; CALL OCCURS {VLIB_skip_test} {0}  ; |107| 
    1194                            .dwpsn  file "./../packages/ti/vlib/src/VLIB_initVarWithConstS16/VLIB_initVarWithConstS16_d.c"
    1195                    $C$DW$116       .dwtag  DW_TAG_TI_branch
    1196                            .dwattr $C$DW$116, DW_AT_low_pc(0x00)
    1197                            .dwattr $C$DW$116, DW_AT_name("free")
    1198                            .dwattr $C$DW$116, DW_AT_TI_call
    1199 00000318 00000010!            CALL    .S1     free              ; |111| 
    1200 00000320     eccd             LDW     .D2T1   *+SP(28),A4       ; |111| 
    1201 00000322     4c6e             NOP             3
    1202 00000324           $C$DW$L$VLIB_initVarWithConstS16_d$18$E:
    1203                    ;** --------------------------------------------------------------------------*
    1204 00000324           $C$L4:    
    1205                            .dwpsn  file "./../packages/ti/vlib/src/VLIB_initVarWithConstS16/VLIB_initVarWithConstS16_d.c"
    1206 00000324           $C$DW$L$VLIB_initVarWithConstS16_d$19$B:
    1207                    ;          EXCLUSIVE CPU CYCLES: 1
    1208                    ;**     -----------------------g9:
    1209                    ;** 111 -----------------------    free((void *)runningVar_cn);
    1210                    ;** 112 -----------------------    VLIB_free((void *)runningVar);
TMS320C6x Assembler PC v7.4.2 Thu Mar 19 12:42:26 2015

Tools Copyright (c) 1996-2012 Texas Instruments Incorporated
package/lib/Regression/regress_d_c/./../packages/ti/vlib/src/VLIB_initVarWithConstS16/VLIB_initVarWithConstS16_d.se66 PAGE   23

    1211                    ;** 51  -----------------------    U$11 += 16;
    1212                    ;** 51  -----------------------    if ( test_cases > (++tpi) ) goto g3;
    1213                            .dwpsn  file "./../packages/ti/vlib/src/VLIB_initVarWithConstS16/VLIB_initVarWithConstS16_d.c"
    1214 00000324 01820162             ADDKPC  .S2     $C$RL21,B3,0      ; |111| 
    1215                    $C$RL21:   ; CALL OCCURS {free} {0}          ; |111| 
    1216                    $C$DW$L$VLIB_initVarWithConstS16_d$19$E:
    1217                    ;** --------------------------------------------------------------------------*
    1218                    $C$DW$L$VLIB_initVarWithConstS16_d$20$B:
    1219                    ;          EXCLUSIVE CPU CYCLES: 6
    1220                    $C$DW$117       .dwtag  DW_TAG_TI_branch
    1221                            .dwattr $C$DW$117, DW_AT_low_pc(0x00)
    1222                            .dwattr $C$DW$117, DW_AT_name("VLIB_free")
    1223                            .dwattr $C$DW$117, DW_AT_TI_call
    1224                    
    1225 00000328 10000013!            CALLP   .S2     VLIB_free,B3
    1226 0000032c 023cc2e4  ||         LDW     .D2T1   *+SP(24),A4       ; |112| 
    1227                    
    1228                            .dwpsn  file "./../packages/ti/vlib/src/VLIB_initVarWithConstS16/VLIB_initVarWithConstS16_d.c"
    1229 00000330           $C$RL22:   ; CALL OCCURS {VLIB_free} {0}     ; |112| 
    1230 00000330           $C$DW$L$VLIB_initVarWithConstS16_d$20$E:
    1231                    ;** --------------------------------------------------------------------------*
    1232 00000330           $C$DW$L$VLIB_initVarWithConstS16_d$21$B:
    1233                    ;          EXCLUSIVE CPU CYCLES: 14
    1234 00000330 01800028!            MVKL    .S1     test_cases,A3
    1235 00000334 01800068!            MVKH    .S1     test_cases,A3
    1236                            .dwpsn  file "./../packages/ti/vlib/src/VLIB_initVarWithConstS16/VLIB_initVarWithConstS16_d.c"
    1237 00000338 018c0264             LDW     .D1T1   *A3,A3            ; |51| 
    1238 00000340 06000852             ADDK    .S2     16,B12            ; |51| 
    1239 00000344 06b42058             ADD     .L1     1,A13,A13         ; |51| 
    1240                            .dwpsn  file "./../packages/ti/vlib/src/VLIB_initVarWithConstS16/VLIB_initVarWithConstS16_d.c"
    1241 00000348 05800850             ADDK    .S1     16,A11            ; |58| 
    1242 0000034c 00000000             NOP             1
    1243                            .dwpsn  file "./../packages/ti/vlib/src/VLIB_initVarWithConstS16/VLIB_initVarWithConstS16_d.c"
    1244 00000350 003468f8             CMPGT   .L1     A3,A13,A0         ; |51| 
    1245                    
    1246 00000354 cf4d8121     [ A0]   BNOP    .S1     $C$L1,4           ; |51| 
    1247 00000358 c1ac6264  || [ A0]   LDW     .D1T1   *+A11(12),A3      ; |58| 
    1248                    
    1249                            .dwpsn  file "./../packages/ti/vlib/src/VLIB_initVarWithConstS16/VLIB_initVarWithConstS16_d.c"
    1250 0000035c 020c6078             ADD     .L1     A3,A3,A4          ; |58| 
    1251                            .dwpsn  file "./../packages/ti/vlib/src/VLIB_initVarWithConstS16/VLIB_initVarWithConstS16_d.c"
    1252                               ; BRANCHCC OCCURS {$C$L1}         ; |51| 
    1253 00000360           $C$DW$L$VLIB_initVarWithConstS16_d$21$E:
    1254                    ;** --------------------------------------------------------------------------*
    1255 00000360           $C$L5:    
    1256                    ;          EXCLUSIVE CPU CYCLES: 8
    1257                    ;**     -----------------------g10:
    1258                    ;** 116 -----------------------    VLIB_profile_cycle_report(2, "N = pixelCount", "pixelCount");
    1259                    ;** 158 -----------------------    printf((const char *)"---------------------------------------------
    1260                    ;** 165 -----------------------    VLIB_stack_memory();  // [18]
    1261                    ;**     -----------------------    return;
    1262 00000360 0200002a!            MVKL    .S2     $C$SL5+0,B4
    1263                    
    1264 00000364 03000029!            MVKL    .S1     $C$SL4+0,A6
    1265 00000368 0200006a! ||         MVKH    .S2     $C$SL5+0,B4
TMS320C6x Assembler PC v7.4.2 Thu Mar 19 12:42:26 2015

Tools Copyright (c) 1996-2012 Texas Instruments Incorporated
package/lib/Regression/regress_d_c/./../packages/ti/vlib/src/VLIB_initVarWithConstS16/VLIB_initVarWithConstS16_d.se66 PAGE   24

    1266                    
    1267                    $C$DW$118       .dwtag  DW_TAG_TI_branch
    1268                            .dwattr $C$DW$118, DW_AT_low_pc(0x00)
    1269                            .dwattr $C$DW$118, DW_AT_name("VLIB_profile_cycle_report")
    1270                            .dwattr $C$DW$118, DW_AT_TI_call
    1271                    
    1272 0000036c 10000013!            CALLP   .S2     VLIB_profile_cycle_report,B3
    1273 00000370 03000069! ||         MVKH    .S1     $C$SL4+0,A6
    1274 00000374 0208a358  ||         MVK     .L1     0x2,A4            ; |116| 
    1275                    
    1276                            .dwpsn  file "./../packages/ti/vlib/src/VLIB_initVarWithConstS16/VLIB_initVarWithConstS16_d.c"
    1277 00000378           $C$RL23:   ; CALL OCCURS {VLIB_profile_cycle_report} {0}  ; |116| 
    1278                    ;** --------------------------------------------------------------------------*
    1279                    ;          EXCLUSIVE CPU CYCLES: 14
    1280 00000378 0200002a!            MVKL    .S2     $C$SL6+0,B4
    1281 0000037c 0200006a!            MVKH    .S2     $C$SL6+0,B4
    1282                    $C$DW$119       .dwtag  DW_TAG_TI_branch
    1283                            .dwattr $C$DW$119, DW_AT_low_pc(0x00)
    1284                            .dwattr $C$DW$119, DW_AT_name("printf")
    1285                            .dwattr $C$DW$119, DW_AT_TI_call
    1286                    
    1287 00000380 10000013!            CALLP   .S2     printf,B3
    1288 00000384 023c22f6  ||         STW     .D2T2   B4,*+SP(4)        ; |158| 
    1289                    
    1290                            .dwpsn  file ".\..\packages\ti\vlib\src\VLIB_initVarWithConstS16\../common/VLIB_memory.h",line
    1291                    $C$RL24:   ; CALL OCCURS {printf} {0}        ; |158| 
    1292                    $C$DW$120       .dwtag  DW_TAG_TI_branch
    1293                            .dwattr $C$DW$120, DW_AT_low_pc(0x00)
    1294                            .dwattr $C$DW$120, DW_AT_name("VLIB_stack_memory")
    1295                            .dwattr $C$DW$120, DW_AT_TI_call
    1296 00000388 10000012!            CALLP   .S2     VLIB_stack_memory,B3
    1297                            .dwpsn  file ".\..\packages\ti\vlib\src\VLIB_initVarWithConstS16\../common/VLIB_memory.h",line
    1298 0000038c           $C$RL25:   ; CALL OCCURS {VLIB_stack_memory} {0}  ; |165| 
    1299                    ;** --------------------------------------------------------------------------*
    1300                    ;          EXCLUSIVE CPU CYCLES: 13
    1301                            .dwpsn  file "./../packages/ti/vlib/src/VLIB_initVarWithConstS16/VLIB_initVarWithConstS16_d.c"
    1302 0000038c 01bd52e6             LDW     .D2T2   *++SP(40),B3      ; |122| 
    1303                            .dwcfi  cfa_offset, 48
    1304                            .dwcfi  restore_reg, 19
    1305 00000390     c677             LDDW    .D2T1   *++SP,A13:A12
    1306                            .dwcfi  cfa_offset, 40
    1307                            .dwcfi  restore_reg, 13
    1308                            .dwcfi  restore_reg, 12
    1309 00000392     c777             LDDW    .D2T1   *++SP,A15:A14
    1310                            .dwcfi  cfa_offset, 32
    1311                            .dwcfi  restore_reg, 15
    1312                            .dwcfi  restore_reg, 14
    1313 00000394     d577             LDDW    .D2T2   *++SP,B11:B10
    1314                            .dwcfi  cfa_offset, 24
    1315                            .dwcfi  restore_reg, 27
    1316                            .dwcfi  restore_reg, 26
    1317 00000396     d677             LDDW    .D2T2   *++SP,B13:B12
    1318                            .dwcfi  cfa_offset, 16
    1319                            .dwcfi  restore_reg, 29
    1320                            .dwcfi  restore_reg, 28
TMS320C6x Assembler PC v7.4.2 Thu Mar 19 12:42:26 2015

Tools Copyright (c) 1996-2012 Texas Instruments Incorporated
package/lib/Regression/regress_d_c/./../packages/ti/vlib/src/VLIB_initVarWithConstS16/VLIB_initVarWithConstS16_d.se66 PAGE   25

    1321 00000398     6577             LDW     .D2T1   *++SP(8),A10
    1322                            .dwcfi  cfa_offset, 8
    1323                            .dwcfi  restore_reg, 10
    1324 0000039a     65f7             LDW     .D2T1   *++SP(8),A11      ; |122| 
    1325                            .dwcfi  cfa_offset, 0
    1326                            .dwcfi  restore_reg, 11
    1327                            .dwcfi  cfa_offset, 0
    1328                    $C$DW$121       .dwtag  DW_TAG_TI_branch
    1329                            .dwattr $C$DW$121, DW_AT_low_pc(0x00)
    1330                            .dwattr $C$DW$121, DW_AT_TI_return
    1331 000003a0 008ca362             RETNOP  .S2     B3,5
    1332                               ; BRANCH OCCURS {B3}  
    1333                    
    1334                    $C$DW$122       .dwtag  DW_TAG_TI_loop
    1335                            .dwattr $C$DW$122, DW_AT_name("c:\nightlybuilds\vlib\ti\vlib\vlib\examples\package/lib/Regress
    1336                            .dwattr $C$DW$122, DW_AT_TI_begin_file("./../packages/ti/vlib/src/VLIB_initVarWithConstS16/VLI
    1337                            .dwattr $C$DW$122, DW_AT_TI_begin_line(0x33)
    1338                            .dwattr $C$DW$122, DW_AT_TI_end_line(0x71)
    1339                    $C$DW$123       .dwtag  DW_TAG_TI_loop_range
    1340                            .dwattr $C$DW$123, DW_AT_low_pc($C$DW$L$VLIB_initVarWithConstS16_d$5$B)
    1341                            .dwattr $C$DW$123, DW_AT_high_pc($C$DW$L$VLIB_initVarWithConstS16_d$5$E)
    1342                    $C$DW$124       .dwtag  DW_TAG_TI_loop_range
    1343                            .dwattr $C$DW$124, DW_AT_low_pc($C$DW$L$VLIB_initVarWithConstS16_d$17$B)
    1344                            .dwattr $C$DW$124, DW_AT_high_pc($C$DW$L$VLIB_initVarWithConstS16_d$17$E)
    1345                    $C$DW$125       .dwtag  DW_TAG_TI_loop_range
    1346                            .dwattr $C$DW$125, DW_AT_low_pc($C$DW$L$VLIB_initVarWithConstS16_d$12$B)
    1347                            .dwattr $C$DW$125, DW_AT_high_pc($C$DW$L$VLIB_initVarWithConstS16_d$12$E)
    1348                    $C$DW$126       .dwtag  DW_TAG_TI_loop_range
    1349                            .dwattr $C$DW$126, DW_AT_low_pc($C$DW$L$VLIB_initVarWithConstS16_d$6$B)
    1350                            .dwattr $C$DW$126, DW_AT_high_pc($C$DW$L$VLIB_initVarWithConstS16_d$6$E)
    1351                    $C$DW$127       .dwtag  DW_TAG_TI_loop_range
    1352                            .dwattr $C$DW$127, DW_AT_low_pc($C$DW$L$VLIB_initVarWithConstS16_d$7$B)
    1353                            .dwattr $C$DW$127, DW_AT_high_pc($C$DW$L$VLIB_initVarWithConstS16_d$7$E)
    1354                    $C$DW$128       .dwtag  DW_TAG_TI_loop_range
    1355                            .dwattr $C$DW$128, DW_AT_low_pc($C$DW$L$VLIB_initVarWithConstS16_d$8$B)
    1356                            .dwattr $C$DW$128, DW_AT_high_pc($C$DW$L$VLIB_initVarWithConstS16_d$8$E)
    1357                    $C$DW$129       .dwtag  DW_TAG_TI_loop_range
    1358                            .dwattr $C$DW$129, DW_AT_low_pc($C$DW$L$VLIB_initVarWithConstS16_d$9$B)
    1359                            .dwattr $C$DW$129, DW_AT_high_pc($C$DW$L$VLIB_initVarWithConstS16_d$9$E)
    1360                    $C$DW$130       .dwtag  DW_TAG_TI_loop_range
    1361                            .dwattr $C$DW$130, DW_AT_low_pc($C$DW$L$VLIB_initVarWithConstS16_d$10$B)
    1362                            .dwattr $C$DW$130, DW_AT_high_pc($C$DW$L$VLIB_initVarWithConstS16_d$10$E)
    1363                    $C$DW$131       .dwtag  DW_TAG_TI_loop_range
    1364                            .dwattr $C$DW$131, DW_AT_low_pc($C$DW$L$VLIB_initVarWithConstS16_d$11$B)
    1365                            .dwattr $C$DW$131, DW_AT_high_pc($C$DW$L$VLIB_initVarWithConstS16_d$11$E)
    1366                    $C$DW$132       .dwtag  DW_TAG_TI_loop_range
    1367                            .dwattr $C$DW$132, DW_AT_low_pc($C$DW$L$VLIB_initVarWithConstS16_d$13$B)
    1368                            .dwattr $C$DW$132, DW_AT_high_pc($C$DW$L$VLIB_initVarWithConstS16_d$13$E)
    1369                    $C$DW$133       .dwtag  DW_TAG_TI_loop_range
    1370                            .dwattr $C$DW$133, DW_AT_low_pc($C$DW$L$VLIB_initVarWithConstS16_d$14$B)
    1371                            .dwattr $C$DW$133, DW_AT_high_pc($C$DW$L$VLIB_initVarWithConstS16_d$14$E)
    1372                    $C$DW$134       .dwtag  DW_TAG_TI_loop_range
    1373                            .dwattr $C$DW$134, DW_AT_low_pc($C$DW$L$VLIB_initVarWithConstS16_d$15$B)
    1374                            .dwattr $C$DW$134, DW_AT_high_pc($C$DW$L$VLIB_initVarWithConstS16_d$15$E)
    1375                    $C$DW$135       .dwtag  DW_TAG_TI_loop_range
TMS320C6x Assembler PC v7.4.2 Thu Mar 19 12:42:26 2015

Tools Copyright (c) 1996-2012 Texas Instruments Incorporated
package/lib/Regression/regress_d_c/./../packages/ti/vlib/src/VLIB_initVarWithConstS16/VLIB_initVarWithConstS16_d.se66 PAGE   26

    1376                            .dwattr $C$DW$135, DW_AT_low_pc($C$DW$L$VLIB_initVarWithConstS16_d$16$B)
    1377                            .dwattr $C$DW$135, DW_AT_high_pc($C$DW$L$VLIB_initVarWithConstS16_d$16$E)
    1378                    $C$DW$136       .dwtag  DW_TAG_TI_loop_range
    1379                            .dwattr $C$DW$136, DW_AT_low_pc($C$DW$L$VLIB_initVarWithConstS16_d$18$B)
    1380                            .dwattr $C$DW$136, DW_AT_high_pc($C$DW$L$VLIB_initVarWithConstS16_d$18$E)
    1381                    $C$DW$137       .dwtag  DW_TAG_TI_loop_range
    1382                            .dwattr $C$DW$137, DW_AT_low_pc($C$DW$L$VLIB_initVarWithConstS16_d$19$B)
    1383                            .dwattr $C$DW$137, DW_AT_high_pc($C$DW$L$VLIB_initVarWithConstS16_d$19$E)
    1384                    $C$DW$138       .dwtag  DW_TAG_TI_loop_range
    1385                            .dwattr $C$DW$138, DW_AT_low_pc($C$DW$L$VLIB_initVarWithConstS16_d$20$B)
    1386                            .dwattr $C$DW$138, DW_AT_high_pc($C$DW$L$VLIB_initVarWithConstS16_d$20$E)
    1387                    $C$DW$139       .dwtag  DW_TAG_TI_loop_range
    1388                            .dwattr $C$DW$139, DW_AT_low_pc($C$DW$L$VLIB_initVarWithConstS16_d$21$B)
    1389                            .dwattr $C$DW$139, DW_AT_high_pc($C$DW$L$VLIB_initVarWithConstS16_d$21$E)
    1390                            .dwendtag $C$DW$122
    1391                    
    1392                            .dwattr $C$DW$75, DW_AT_TI_end_file("./../packages/ti/vlib/src/VLIB_initVarWithConstS16/VLIB_i
    1393                            .dwattr $C$DW$75, DW_AT_TI_end_line(0x7a)
    1394                            .dwattr $C$DW$75, DW_AT_TI_end_column(0x01)
    1395                            .dwendentry
    1396                            .dwendtag $C$DW$75
    1397                    
    1398                    ;; Inlined function references:
    1399                    ;; [ 14] VLIB_profile_start
    1400                    ;; [ 15] VLIB_profile_stop
    1401                    ;; [ 18] VLIB_kernel_memory
    1402                    ;******************************************************************************
    1403                    ;* STRINGS                                                                    *
    1404                    ;******************************************************************************
    1405 00000000                   .sect   ".const:.string"
    1406 00000000 00000056  $C$SL1: .string "VLIB_initVarWithConstS16",0
         00000001 0000004C 
         00000002 00000049 
         00000003 00000042 
         00000004 0000005F 
         00000005 00000069 
         00000006 0000006E 
         00000007 00000069 
         00000008 00000074 
         00000009 00000056 
         0000000a 00000061 
         0000000b 00000072 
         0000000c 00000057 
         0000000d 00000069 
         0000000e 00000074 
         0000000f 00000068 
         00000010 00000043 
         00000011 0000006F 
         00000012 0000006E 
         00000013 00000073 
         00000014 00000074 
         00000015 00000053 
         00000016 00000031 
         00000017 00000036 
         00000018 00000000 
TMS320C6x Assembler PC v7.4.2 Thu Mar 19 12:42:26 2015

Tools Copyright (c) 1996-2012 Texas Instruments Incorporated
package/lib/Regression/regress_d_c/./../packages/ti/vlib/src/VLIB_initVarWithConstS16/VLIB_initVarWithConstS16_d.se66 PAGE   27

    1407 00000019 00000025  $C$SL2: .string "%s generated input | Opt results compared to NatC results |"
         0000001a 00000073 
         0000001b 00000020 
         0000001c 00000067 
         0000001d 00000065 
         0000001e 0000006E 
         0000001f 00000065 
         00000020 00000072 
         00000021 00000061 
         00000022 00000074 
         00000023 00000065 
         00000024 00000064 
         00000025 00000020 
         00000026 00000069 
         00000027 0000006E 
         00000028 00000070 
         00000029 00000075 
         0000002a 00000074 
         0000002b 00000020 
         0000002c 0000007C 
         0000002d 00000020 
         0000002e 0000004F 
         0000002f 00000070 
         00000030 00000074 
         00000031 00000020 
         00000032 00000072 
         00000033 00000065 
         00000034 00000073 
         00000035 00000075 
         00000036 0000006C 
         00000037 00000074 
         00000038 00000073 
         00000039 00000020 
         0000003a 00000063 
         0000003b 0000006F 
         0000003c 0000006D 
         0000003d 00000070 
         0000003e 00000061 
         0000003f 00000072 
         00000040 00000065 
         00000041 00000064 
         00000042 00000020 
         00000043 00000074 
         00000044 0000006F 
         00000045 00000020 
         00000046 0000004E 
         00000047 00000061 
         00000048 00000074 
         00000049 00000043 
         0000004a 00000020 
         0000004b 00000072 
         0000004c 00000065 
         0000004d 00000073 
         0000004e 00000075 
         0000004f 0000006C 
TMS320C6x Assembler PC v7.4.2 Thu Mar 19 12:42:26 2015

Tools Copyright (c) 1996-2012 Texas Instruments Incorporated
package/lib/Regression/regress_d_c/./../packages/ti/vlib/src/VLIB_initVarWithConstS16/VLIB_initVarWithConstS16_d.se66 PAGE   28

         00000050 00000074 
         00000051 00000073 
         00000052 00000020 
         00000053 0000007C 
    1408 00000054 00000020          .string " pixelCount=%d",0
         00000055 00000070 
         00000056 00000069 
         00000057 00000078 
         00000058 00000065 
         00000059 0000006C 
         0000005a 00000043 
         0000005b 0000006F 
         0000005c 00000075 
         0000005d 0000006E 
         0000005e 00000074 
         0000005f 0000003D 
         00000060 00000025 
         00000061 00000064 
         00000062 00000000 
    1409 00000063 00000070  $C$SL3: .string "pixelCount=%d",0
         00000064 00000069 
         00000065 00000078 
         00000066 00000065 
         00000067 0000006C 
         00000068 00000043 
         00000069 0000006F 
         0000006a 00000075 
         0000006b 0000006E 
         0000006c 00000074 
         0000006d 0000003D 
         0000006e 00000025 
         0000006f 00000064 
         00000070 00000000 
    1410 00000071 00000070  $C$SL4: .string "pixelCount",0
         00000072 00000069 
         00000073 00000078 
         00000074 00000065 
         00000075 0000006C 
         00000076 00000043 
         00000077 0000006F 
         00000078 00000075 
         00000079 0000006E 
         0000007a 00000074 
         0000007b 00000000 
    1411 0000007c 0000004E  $C$SL5: .string "N = pixelCount",0
         0000007d 00000020 
         0000007e 0000003D 
         0000007f 00000020 
         00000080 00000070 
         00000081 00000069 
         00000082 00000078 
         00000083 00000065 
         00000084 0000006C 
         00000085 00000043 
         00000086 0000006F 
TMS320C6x Assembler PC v7.4.2 Thu Mar 19 12:42:26 2015

Tools Copyright (c) 1996-2012 Texas Instruments Incorporated
package/lib/Regression/regress_d_c/./../packages/ti/vlib/src/VLIB_initVarWithConstS16/VLIB_initVarWithConstS16_d.se66 PAGE   29

         00000087 00000075 
         00000088 0000006E 
         00000089 00000074 
         0000008a 00000000 
    1412 0000008b 0000002D  $C$SL6: .string "-----------------------------------------------------------"
         0000008c 0000002D 
         0000008d 0000002D 
         0000008e 0000002D 
         0000008f 0000002D 
         00000090 0000002D 
         00000091 0000002D 
         00000092 0000002D 
         00000093 0000002D 
         00000094 0000002D 
         00000095 0000002D 
         00000096 0000002D 
         00000097 0000002D 
         00000098 0000002D 
         00000099 0000002D 
         0000009a 0000002D 
         0000009b 0000002D 
         0000009c 0000002D 
         0000009d 0000002D 
         0000009e 0000002D 
         0000009f 0000002D 
         000000a0 0000002D 
         000000a1 0000002D 
         000000a2 0000002D 
         000000a3 0000002D 
         000000a4 0000002D 
         000000a5 0000002D 
         000000a6 0000002D 
         000000a7 0000002D 
         000000a8 0000002D 
         000000a9 0000002D 
         000000aa 0000002D 
         000000ab 0000002D 
         000000ac 0000002D 
         000000ad 0000002D 
         000000ae 0000002D 
         000000af 0000002D 
         000000b0 0000002D 
         000000b1 0000002D 
         000000b2 0000002D 
         000000b3 0000002D 
         000000b4 0000002D 
         000000b5 0000002D 
         000000b6 0000002D 
         000000b7 0000002D 
         000000b8 0000002D 
         000000b9 0000002D 
         000000ba 0000002D 
         000000bb 0000002D 
         000000bc 0000002D 
         000000bd 0000002D 
TMS320C6x Assembler PC v7.4.2 Thu Mar 19 12:42:26 2015

Tools Copyright (c) 1996-2012 Texas Instruments Incorporated
package/lib/Regression/regress_d_c/./../packages/ti/vlib/src/VLIB_initVarWithConstS16/VLIB_initVarWithConstS16_d.se66 PAGE   30

         000000be 0000002D 
         000000bf 0000002D 
         000000c0 0000002D 
         000000c1 0000002D 
         000000c2 0000002D 
         000000c3 0000002D 
         000000c4 0000002D 
         000000c5 0000002D 
    1413 000000c6 0000002D          .string "-----------------------------------------------------------"
         000000c7 0000002D 
         000000c8 0000002D 
         000000c9 0000002D 
         000000ca 0000002D 
         000000cb 0000002D 
         000000cc 0000002D 
         000000cd 0000002D 
         000000ce 0000002D 
         000000cf 0000002D 
         000000d0 0000002D 
         000000d1 0000002D 
         000000d2 0000002D 
         000000d3 0000002D 
         000000d4 0000002D 
         000000d5 0000002D 
         000000d6 0000002D 
         000000d7 0000002D 
         000000d8 0000002D 
         000000d9 0000002D 
         000000da 0000002D 
         000000db 0000002D 
         000000dc 0000002D 
         000000dd 0000002D 
         000000de 0000002D 
         000000df 0000002D 
         000000e0 0000002D 
         000000e1 0000002D 
         000000e2 0000002D 
         000000e3 0000002D 
         000000e4 0000002D 
         000000e5 0000002D 
         000000e6 0000002D 
         000000e7 0000002D 
         000000e8 0000002D 
         000000e9 0000002D 
         000000ea 0000002D 
         000000eb 0000002D 
         000000ec 0000002D 
         000000ed 0000002D 
         000000ee 0000002D 
         000000ef 0000002D 
         000000f0 0000002D 
         000000f1 0000002D 
         000000f2 0000002D 
         000000f3 0000002D 
         000000f4 0000002D 
TMS320C6x Assembler PC v7.4.2 Thu Mar 19 12:42:26 2015

Tools Copyright (c) 1996-2012 Texas Instruments Incorporated
package/lib/Regression/regress_d_c/./../packages/ti/vlib/src/VLIB_initVarWithConstS16/VLIB_initVarWithConstS16_d.se66 PAGE   31

         000000f5 0000002D 
         000000f6 0000002D 
         000000f7 0000002D 
         000000f8 0000002D 
         000000f9 0000002D 
         000000fa 0000002D 
         000000fb 0000002D 
         000000fc 0000002D 
         000000fd 0000002D 
         000000fe 0000002D 
         000000ff 0000002D 
         00000100 0000002D 
    1414 00000101 0000002D          .string "-----------------------",10,0
         00000102 0000002D 
         00000103 0000002D 
         00000104 0000002D 
         00000105 0000002D 
         00000106 0000002D 
         00000107 0000002D 
         00000108 0000002D 
         00000109 0000002D 
         0000010a 0000002D 
         0000010b 0000002D 
         0000010c 0000002D 
         0000010d 0000002D 
         0000010e 0000002D 
         0000010f 0000002D 
         00000110 0000002D 
         00000111 0000002D 
         00000112 0000002D 
         00000113 0000002D 
         00000114 0000002D 
         00000115 0000002D 
         00000116 0000002D 
         00000117 0000002D 
         00000118 0000000A 
         00000119 00000000 
    1415                    ;*****************************************************************************
    1416                    ;* UNDEFINED EXTERNAL REFERENCES                                             *
    1417                    ;*****************************************************************************
    1418                            .global printf
    1419                            .global sprintf
    1420                            .global malloc
    1421                            .global free
    1422                            .global VLIB_cache_inval
    1423                            .global VLIB_profile_init
    1424                            .global VLIB_formula_add_test
    1425                            .global VLIB_skip_test
    1426                            .global VLIB_profile_cycle_report
    1427                            .global initStack
    1428                            .global setStackDepth
    1429                            .global getSP
    1430                            .global VLIB_stack_memory
    1431                            .global VLIB_compare_mem
    1432                            .global VLIB_fillBuffer
TMS320C6x Assembler PC v7.4.2 Thu Mar 19 12:42:26 2015

Tools Copyright (c) 1996-2012 Texas Instruments Incorporated
package/lib/Regression/regress_d_c/./../packages/ti/vlib/src/VLIB_initVarWithConstS16/VLIB_initVarWithConstS16_d.se66 PAGE   32

    1433                            .global VLIB_malloc
    1434                            .global VLIB_free
    1435                            .global VLIB_initVarWithConstS16
    1436                            .global VLIB_initVarWithConstS16_cn
    1437                            .global initVarWithConstS16_getTestParams
    1438                            .global test_cases
    1439                            .global act_kernel
    1440                            .global desc
    1441                            .global testPatternString
    1442                            .global est_test
    1443                            .global beg_count
    1444                            .global end_count
    1445                            .global overhead
    1446                            .global cycles
    1447                    
    1448                    ;******************************************************************************
    1449                    ;* BUILD ATTRIBUTES                                                           *
    1450                    ;******************************************************************************
    1451                            .battr "TI", Tag_File, 1, Tag_Long_Precision_Bits(2)
    1452                            .battr "TI", Tag_File, 1, Tag_Bitfield_layout(2)
    1453                            .battr "TI", Tag_File, 1, Tag_ABI_enum_size(2)
    1454                            .battr "c6xabi", Tag_File, 1, Tag_ABI_wchar_t(1)
    1455                            .battr "c6xabi", Tag_File, 1, Tag_ABI_array_object_alignment(0)
    1456                            .battr "c6xabi", Tag_File, 1, Tag_ABI_array_object_align_expected(0)
    1457                            .battr "c6xabi", Tag_File, 1, Tag_ABI_PIC(0)
    1458                            .battr "c6xabi", Tag_File, 1, Tag_ABI_PID(0)
    1459                            .battr "c6xabi", Tag_File, 1, Tag_ABI_DSBT(0)
    1460                            .battr "c6xabi", Tag_File, 1, Tag_ABI_stack_align_needed(0)
    1461                            .battr "c6xabi", Tag_File, 1, Tag_ABI_stack_align_preserved(0)
    1462                            .battr "TI", Tag_File, 1, Tag_Tramps_Use_SOC(1)
    1463                    
    1464                    ;******************************************************************************
    1465                    ;* TYPE INFORMATION                                                           *
    1466                    ;******************************************************************************
    1467                    
    1468                    $C$DW$T$37      .dwtag  DW_TAG_enumeration_type
    1469                            .dwattr $C$DW$T$37, DW_AT_byte_size(0x04)
    1470                    $C$DW$140       .dwtag  DW_TAG_enumerator, DW_AT_name("VLIB_NO_ERROR"), DW_AT_const_value(0x00)
    1471                            .dwattr $C$DW$140, DW_AT_decl_file(".\..\packages\ti\vlib\src\VLIB_initVarWithConstS16\..\comm
    1472                            .dwattr $C$DW$140, DW_AT_decl_line(0x7a)
    1473                            .dwattr $C$DW$140, DW_AT_decl_column(0x05)
    1474                    $C$DW$141       .dwtag  DW_TAG_enumerator, DW_AT_name("VLIB_ERR_INPUT_INVALID"), DW_AT_const_value(0x0
    1475                            .dwattr $C$DW$141, DW_AT_decl_file(".\..\packages\ti\vlib\src\VLIB_initVarWithConstS16\..\comm
    1476                            .dwattr $C$DW$141, DW_AT_decl_line(0x7b)
    1477                            .dwattr $C$DW$141, DW_AT_decl_column(0x05)
    1478                    $C$DW$142       .dwtag  DW_TAG_enumerator, DW_AT_name("VLIB_ERR_INPUT_NEGATIVE"), DW_AT_const_value(0x
    1479                            .dwattr $C$DW$142, DW_AT_decl_file(".\..\packages\ti\vlib\src\VLIB_initVarWithConstS16\..\comm
    1480                            .dwattr $C$DW$142, DW_AT_decl_line(0x7c)
    1481                            .dwattr $C$DW$142, DW_AT_decl_column(0x05)
    1482                    $C$DW$143       .dwtag  DW_TAG_enumerator, DW_AT_name("VLIB_ERR_INPUT_EXCEEDED_RANGE"), DW_AT_const_va
    1483                            .dwattr $C$DW$143, DW_AT_decl_file(".\..\packages\ti\vlib\src\VLIB_initVarWithConstS16\..\comm
    1484                            .dwattr $C$DW$143, DW_AT_decl_line(0x7d)
    1485                            .dwattr $C$DW$143, DW_AT_decl_column(0x05)
    1486                    $C$DW$144       .dwtag  DW_TAG_enumerator, DW_AT_name("VLIB_ERR_MEMORY_EXCEEDED_BOUNDARY"), DW_AT_cons
    1487                            .dwattr $C$DW$144, DW_AT_decl_file(".\..\packages\ti\vlib\src\VLIB_initVarWithConstS16\..\comm
TMS320C6x Assembler PC v7.4.2 Thu Mar 19 12:42:26 2015

Tools Copyright (c) 1996-2012 Texas Instruments Incorporated
package/lib/Regression/regress_d_c/./../packages/ti/vlib/src/VLIB_initVarWithConstS16/VLIB_initVarWithConstS16_d.se66 PAGE   33

    1488                            .dwattr $C$DW$144, DW_AT_decl_line(0x7e)
    1489                            .dwattr $C$DW$144, DW_AT_decl_column(0x05)
    1490                    $C$DW$145       .dwtag  DW_TAG_enumerator, DW_AT_name("VLIB_ERR_MEMORY_ALLOCATION_FAILURE"), DW_AT_con
    1491                            .dwattr $C$DW$145, DW_AT_decl_file(".\..\packages\ti\vlib\src\VLIB_initVarWithConstS16\..\comm
    1492                            .dwattr $C$DW$145, DW_AT_decl_line(0x7f)
    1493                            .dwattr $C$DW$145, DW_AT_decl_column(0x05)
    1494                    $C$DW$146       .dwtag  DW_TAG_enumerator, DW_AT_name("VLIB_ERR_MEMORY_POINTER_NULL"), DW_AT_const_val
    1495                            .dwattr $C$DW$146, DW_AT_decl_file(".\..\packages\ti\vlib\src\VLIB_initVarWithConstS16\..\comm
    1496                            .dwattr $C$DW$146, DW_AT_decl_line(0x80)
    1497                            .dwattr $C$DW$146, DW_AT_decl_column(0x05)
    1498                    $C$DW$147       .dwtag  DW_TAG_enumerator, DW_AT_name("VLIB_ERR_DMA_FAILURE"), DW_AT_const_value(0x07)
    1499                            .dwattr $C$DW$147, DW_AT_decl_file(".\..\packages\ti\vlib\src\VLIB_initVarWithConstS16\..\comm
    1500                            .dwattr $C$DW$147, DW_AT_decl_line(0x81)
    1501                            .dwattr $C$DW$147, DW_AT_decl_column(0x05)
    1502                    $C$DW$148       .dwtag  DW_TAG_enumerator, DW_AT_name("VLIB_ERR_FILE_OPEN_FAILURE"), DW_AT_const_value
    1503                            .dwattr $C$DW$148, DW_AT_decl_file(".\..\packages\ti\vlib\src\VLIB_initVarWithConstS16\..\comm
    1504                            .dwattr $C$DW$148, DW_AT_decl_line(0x82)
    1505                            .dwattr $C$DW$148, DW_AT_decl_column(0x05)
    1506                    $C$DW$149       .dwtag  DW_TAG_enumerator, DW_AT_name("VLIB_ERR_FILE_READ_FAILURE"), DW_AT_const_value
    1507                            .dwattr $C$DW$149, DW_AT_decl_file(".\..\packages\ti\vlib\src\VLIB_initVarWithConstS16\..\comm
    1508                            .dwattr $C$DW$149, DW_AT_decl_line(0x83)
    1509                            .dwattr $C$DW$149, DW_AT_decl_column(0x05)
    1510                    $C$DW$150       .dwtag  DW_TAG_enumerator, DW_AT_name("VLIB_ERR_FILE_WRITE_FAILURE"), DW_AT_const_valu
    1511                            .dwattr $C$DW$150, DW_AT_decl_file(".\..\packages\ti\vlib\src\VLIB_initVarWithConstS16\..\comm
    1512                            .dwattr $C$DW$150, DW_AT_decl_line(0x84)
    1513                            .dwattr $C$DW$150, DW_AT_decl_column(0x05)
    1514                    $C$DW$151       .dwtag  DW_TAG_enumerator, DW_AT_name("VLIB_ERR_FILE_CLOSE_FAILURE"), DW_AT_const_valu
    1515                            .dwattr $C$DW$151, DW_AT_decl_file(".\..\packages\ti\vlib\src\VLIB_initVarWithConstS16\..\comm
    1516                            .dwattr $C$DW$151, DW_AT_decl_line(0x85)
    1517                            .dwattr $C$DW$151, DW_AT_decl_column(0x05)
    1518                    $C$DW$152       .dwtag  DW_TAG_enumerator, DW_AT_name("VLIB_ERR_FILE_FORMAT_FAILURE"), DW_AT_const_val
    1519                            .dwattr $C$DW$152, DW_AT_decl_file(".\..\packages\ti\vlib\src\VLIB_initVarWithConstS16\..\comm
    1520                            .dwattr $C$DW$152, DW_AT_decl_line(0x86)
    1521                            .dwattr $C$DW$152, DW_AT_decl_column(0x05)
    1522                    $C$DW$153       .dwtag  DW_TAG_enumerator, DW_AT_name("VLIB_WARNING_LOW_MEMORY"), DW_AT_const_value(0x
    1523                            .dwattr $C$DW$153, DW_AT_decl_file(".\..\packages\ti\vlib\src\VLIB_initVarWithConstS16\..\comm
    1524                            .dwattr $C$DW$153, DW_AT_decl_line(0x87)
    1525                            .dwattr $C$DW$153, DW_AT_decl_column(0x05)
    1526                    $C$DW$154       .dwtag  DW_TAG_enumerator, DW_AT_name("VLIB_ERR_NOT_IMPLEMENTED"), DW_AT_const_value(0
    1527                            .dwattr $C$DW$154, DW_AT_decl_file(".\..\packages\ti\vlib\src\VLIB_initVarWithConstS16\..\comm
    1528                            .dwattr $C$DW$154, DW_AT_decl_line(0x88)
    1529                            .dwattr $C$DW$154, DW_AT_decl_column(0x05)
    1530                    $C$DW$155       .dwtag  DW_TAG_enumerator, DW_AT_name("VLIB_ERROR_MAX"), DW_AT_const_value(0x0f)
    1531                            .dwattr $C$DW$155, DW_AT_decl_file(".\..\packages\ti\vlib\src\VLIB_initVarWithConstS16\..\comm
    1532                            .dwattr $C$DW$155, DW_AT_decl_line(0x89)
    1533                            .dwattr $C$DW$155, DW_AT_decl_column(0x05)
    1534                            .dwendtag $C$DW$T$37
    1535                    
    1536                            .dwattr $C$DW$T$37, DW_AT_decl_file(".\..\packages\ti\vlib\src\VLIB_initVarWithConstS16\..\com
    1537                            .dwattr $C$DW$T$37, DW_AT_decl_line(0x79)
    1538                            .dwattr $C$DW$T$37, DW_AT_decl_column(0x0e)
    1539                    $C$DW$T$38      .dwtag  DW_TAG_typedef, DW_AT_name("VLIB_STATUS")
    1540                            .dwattr $C$DW$T$38, DW_AT_type(*$C$DW$T$37)
    1541                            .dwattr $C$DW$T$38, DW_AT_language(DW_LANG_C)
    1542                            .dwattr $C$DW$T$38, DW_AT_decl_file(".\..\packages\ti\vlib\src\VLIB_initVarWithConstS16\..\com
TMS320C6x Assembler PC v7.4.2 Thu Mar 19 12:42:26 2015

Tools Copyright (c) 1996-2012 Texas Instruments Incorporated
package/lib/Regression/regress_d_c/./../packages/ti/vlib/src/VLIB_initVarWithConstS16/VLIB_initVarWithConstS16_d.se66 PAGE   34

    1543                            .dwattr $C$DW$T$38, DW_AT_decl_line(0x8a)
    1544                            .dwattr $C$DW$T$38, DW_AT_decl_column(0x03)
    1545                    
    1546                    $C$DW$T$39      .dwtag  DW_TAG_enumeration_type
    1547                            .dwattr $C$DW$T$39, DW_AT_byte_size(0x04)
    1548                    $C$DW$156       .dwtag  DW_TAG_enumerator, DW_AT_name("vlib_KERNEL_OPT"), DW_AT_const_value(0x00)
    1549                            .dwattr $C$DW$156, DW_AT_decl_file(".\..\packages\ti\vlib\src\VLIB_initVarWithConstS16\../comm
    1550                            .dwattr $C$DW$156, DW_AT_decl_line(0x6a)
    1551                            .dwattr $C$DW$156, DW_AT_decl_column(0x05)
    1552                    $C$DW$157       .dwtag  DW_TAG_enumerator, DW_AT_name("vlib_KERNEL_CN"), DW_AT_const_value(0x01)
    1553                            .dwattr $C$DW$157, DW_AT_decl_file(".\..\packages\ti\vlib\src\VLIB_initVarWithConstS16\../comm
    1554                            .dwattr $C$DW$157, DW_AT_decl_line(0x6b)
    1555                            .dwattr $C$DW$157, DW_AT_decl_column(0x05)
    1556                    $C$DW$158       .dwtag  DW_TAG_enumerator, DW_AT_name("vlib_KERNEL_CNT"), DW_AT_const_value(0x02)
    1557                            .dwattr $C$DW$158, DW_AT_decl_file(".\..\packages\ti\vlib\src\VLIB_initVarWithConstS16\../comm
    1558                            .dwattr $C$DW$158, DW_AT_decl_line(0x6c)
    1559                            .dwattr $C$DW$158, DW_AT_decl_column(0x05)
    1560                            .dwendtag $C$DW$T$39
    1561                    
    1562                            .dwattr $C$DW$T$39, DW_AT_decl_file(".\..\packages\ti\vlib\src\VLIB_initVarWithConstS16\../com
    1563                            .dwattr $C$DW$T$39, DW_AT_decl_line(0x69)
    1564                            .dwattr $C$DW$T$39, DW_AT_decl_column(0x06)
    1565                    
    1566                    $C$DW$T$40      .dwtag  DW_TAG_enumeration_type
    1567                            .dwattr $C$DW$T$40, DW_AT_byte_size(0x04)
    1568                    $C$DW$159       .dwtag  DW_TAG_enumerator, DW_AT_name("vlib_KERNEL_FAIL"), DW_AT_const_value(0x00)
    1569                            .dwattr $C$DW$159, DW_AT_decl_file(".\..\packages\ti\vlib\src\VLIB_initVarWithConstS16\../comm
    1570                            .dwattr $C$DW$159, DW_AT_decl_line(0x72)
    1571                            .dwattr $C$DW$159, DW_AT_decl_column(0x05)
    1572                    $C$DW$160       .dwtag  DW_TAG_enumerator, DW_AT_name("vlib_KERNEL_PASS"), DW_AT_const_value(0x01)
    1573                            .dwattr $C$DW$160, DW_AT_decl_file(".\..\packages\ti\vlib\src\VLIB_initVarWithConstS16\../comm
    1574                            .dwattr $C$DW$160, DW_AT_decl_line(0x73)
    1575                            .dwattr $C$DW$160, DW_AT_decl_column(0x05)
    1576                            .dwendtag $C$DW$T$40
    1577                    
    1578                            .dwattr $C$DW$T$40, DW_AT_decl_file(".\..\packages\ti\vlib\src\VLIB_initVarWithConstS16\../com
    1579                            .dwattr $C$DW$T$40, DW_AT_decl_line(0x71)
    1580                            .dwattr $C$DW$T$40, DW_AT_decl_column(0x06)
    1581                    
    1582                    $C$DW$T$23      .dwtag  DW_TAG_structure_type
    1583                            .dwattr $C$DW$T$23, DW_AT_byte_size(0x10)
    1584                    $C$DW$161       .dwtag  DW_TAG_member
    1585                            .dwattr $C$DW$161, DW_AT_type(*$C$DW$T$19)
    1586                            .dwattr $C$DW$161, DW_AT_name("testPattern")
    1587                            .dwattr $C$DW$161, DW_AT_TI_symbol_name("testPattern")
    1588                            .dwattr $C$DW$161, DW_AT_data_member_location[DW_OP_plus_uconst 0x0]
    1589                            .dwattr $C$DW$161, DW_AT_accessibility(DW_ACCESS_public)
    1590                            .dwattr $C$DW$161, DW_AT_decl_file(".\..\packages\ti\vlib\src\VLIB_initVarWithConstS16\VLIB_in
    1591                            .dwattr $C$DW$161, DW_AT_decl_line(0x24)
    1592                            .dwattr $C$DW$161, DW_AT_decl_column(0x0e)
    1593                    $C$DW$162       .dwtag  DW_TAG_member
    1594                            .dwattr $C$DW$162, DW_AT_type(*$C$DW$T$21)
    1595                            .dwattr $C$DW$162, DW_AT_name("staticOut")
    1596                            .dwattr $C$DW$162, DW_AT_TI_symbol_name("staticOut")
    1597                            .dwattr $C$DW$162, DW_AT_data_member_location[DW_OP_plus_uconst 0x4]
TMS320C6x Assembler PC v7.4.2 Thu Mar 19 12:42:26 2015

Tools Copyright (c) 1996-2012 Texas Instruments Incorporated
package/lib/Regression/regress_d_c/./../packages/ti/vlib/src/VLIB_initVarWithConstS16/VLIB_initVarWithConstS16_d.se66 PAGE   35

    1598                            .dwattr $C$DW$162, DW_AT_accessibility(DW_ACCESS_public)
    1599                            .dwattr $C$DW$162, DW_AT_decl_file(".\..\packages\ti\vlib\src\VLIB_initVarWithConstS16\VLIB_in
    1600                            .dwattr $C$DW$162, DW_AT_decl_line(0x25)
    1601                            .dwattr $C$DW$162, DW_AT_decl_column(0x0e)
    1602                    $C$DW$163       .dwtag  DW_TAG_member
    1603                            .dwattr $C$DW$163, DW_AT_type(*$C$DW$T$20)
    1604                            .dwattr $C$DW$163, DW_AT_name("constVar")
    1605                            .dwattr $C$DW$163, DW_AT_TI_symbol_name("constVar")
    1606                            .dwattr $C$DW$163, DW_AT_data_member_location[DW_OP_plus_uconst 0x8]
    1607                            .dwattr $C$DW$163, DW_AT_accessibility(DW_ACCESS_public)
    1608                            .dwattr $C$DW$163, DW_AT_decl_file(".\..\packages\ti\vlib\src\VLIB_initVarWithConstS16\VLIB_in
    1609                            .dwattr $C$DW$163, DW_AT_decl_line(0x26)
    1610                            .dwattr $C$DW$163, DW_AT_decl_column(0x0e)
    1611                    $C$DW$164       .dwtag  DW_TAG_member
    1612                            .dwattr $C$DW$164, DW_AT_type(*$C$DW$T$22)
    1613                            .dwattr $C$DW$164, DW_AT_name("pixelCount")
    1614                            .dwattr $C$DW$164, DW_AT_TI_symbol_name("pixelCount")
    1615                            .dwattr $C$DW$164, DW_AT_data_member_location[DW_OP_plus_uconst 0xc]
    1616                            .dwattr $C$DW$164, DW_AT_accessibility(DW_ACCESS_public)
    1617                            .dwattr $C$DW$164, DW_AT_decl_file(".\..\packages\ti\vlib\src\VLIB_initVarWithConstS16\VLIB_in
    1618                            .dwattr $C$DW$164, DW_AT_decl_line(0x27)
    1619                            .dwattr $C$DW$164, DW_AT_decl_column(0x0e)
    1620                            .dwendtag $C$DW$T$23
    1621                    
    1622                            .dwattr $C$DW$T$23, DW_AT_decl_file(".\..\packages\ti\vlib\src\VLIB_initVarWithConstS16\VLIB_i
    1623                            .dwattr $C$DW$T$23, DW_AT_decl_line(0x23)
    1624                            .dwattr $C$DW$T$23, DW_AT_decl_column(0x10)
    1625                    $C$DW$T$41      .dwtag  DW_TAG_pointer_type
    1626                            .dwattr $C$DW$T$41, DW_AT_type(*$C$DW$T$23)
    1627                            .dwattr $C$DW$T$41, DW_AT_address_class(0x20)
    1628                    $C$DW$T$43      .dwtag  DW_TAG_typedef, DW_AT_name("initVarWithConstS16_testParams_t")
    1629                            .dwattr $C$DW$T$43, DW_AT_type(*$C$DW$T$23)
    1630                            .dwattr $C$DW$T$43, DW_AT_language(DW_LANG_C)
    1631                            .dwattr $C$DW$T$43, DW_AT_decl_file(".\..\packages\ti\vlib\src\VLIB_initVarWithConstS16\VLIB_i
    1632                            .dwattr $C$DW$T$43, DW_AT_decl_line(0x28)
    1633                            .dwattr $C$DW$T$43, DW_AT_decl_column(0x03)
    1634                    $C$DW$T$44      .dwtag  DW_TAG_pointer_type
    1635                            .dwattr $C$DW$T$44, DW_AT_type(*$C$DW$T$43)
    1636                            .dwattr $C$DW$T$44, DW_AT_address_class(0x20)
    1637                    $C$DW$T$45      .dwtag  DW_TAG_pointer_type
    1638                            .dwattr $C$DW$T$45, DW_AT_type(*$C$DW$T$44)
    1639                            .dwattr $C$DW$T$45, DW_AT_address_class(0x20)
    1640                    
    1641                    $C$DW$T$25      .dwtag  DW_TAG_structure_type
    1642                            .dwattr $C$DW$T$25, DW_AT_byte_size(0x18)
    1643                    $C$DW$165       .dwtag  DW_TAG_member
    1644                            .dwattr $C$DW$165, DW_AT_type(*$C$DW$T$10)
    1645                            .dwattr $C$DW$165, DW_AT_name("fd")
    1646                            .dwattr $C$DW$165, DW_AT_TI_symbol_name("fd")
    1647                            .dwattr $C$DW$165, DW_AT_data_member_location[DW_OP_plus_uconst 0x0]
    1648                            .dwattr $C$DW$165, DW_AT_accessibility(DW_ACCESS_public)
    1649                            .dwattr $C$DW$165, DW_AT_decl_file("C:/VLIB_Tools/CCSV5_4_0/ccsv5/tools/compiler/C6000/include
    1650                            .dwattr $C$DW$165, DW_AT_decl_line(0x49)
    1651                            .dwattr $C$DW$165, DW_AT_decl_column(0x0b)
    1652                    $C$DW$166       .dwtag  DW_TAG_member
TMS320C6x Assembler PC v7.4.2 Thu Mar 19 12:42:26 2015

Tools Copyright (c) 1996-2012 Texas Instruments Incorporated
package/lib/Regression/regress_d_c/./../packages/ti/vlib/src/VLIB_initVarWithConstS16/VLIB_initVarWithConstS16_d.se66 PAGE   36

    1653                            .dwattr $C$DW$166, DW_AT_type(*$C$DW$T$24)
    1654                            .dwattr $C$DW$166, DW_AT_name("buf")
    1655                            .dwattr $C$DW$166, DW_AT_TI_symbol_name("buf")
    1656                            .dwattr $C$DW$166, DW_AT_data_member_location[DW_OP_plus_uconst 0x4]
    1657                            .dwattr $C$DW$166, DW_AT_accessibility(DW_ACCESS_public)
    1658                            .dwattr $C$DW$166, DW_AT_decl_file("C:/VLIB_Tools/CCSV5_4_0/ccsv5/tools/compiler/C6000/include
    1659                            .dwattr $C$DW$166, DW_AT_decl_line(0x4a)
    1660                            .dwattr $C$DW$166, DW_AT_decl_column(0x16)
    1661                    $C$DW$167       .dwtag  DW_TAG_member
    1662                            .dwattr $C$DW$167, DW_AT_type(*$C$DW$T$24)
    1663                            .dwattr $C$DW$167, DW_AT_name("pos")
    1664                            .dwattr $C$DW$167, DW_AT_TI_symbol_name("pos")
    1665                            .dwattr $C$DW$167, DW_AT_data_member_location[DW_OP_plus_uconst 0x8]
    1666                            .dwattr $C$DW$167, DW_AT_accessibility(DW_ACCESS_public)
    1667                            .dwattr $C$DW$167, DW_AT_decl_file("C:/VLIB_Tools/CCSV5_4_0/ccsv5/tools/compiler/C6000/include
    1668                            .dwattr $C$DW$167, DW_AT_decl_line(0x4b)
    1669                            .dwattr $C$DW$167, DW_AT_decl_column(0x16)
    1670                    $C$DW$168       .dwtag  DW_TAG_member
    1671                            .dwattr $C$DW$168, DW_AT_type(*$C$DW$T$24)
    1672                            .dwattr $C$DW$168, DW_AT_name("bufend")
    1673                            .dwattr $C$DW$168, DW_AT_TI_symbol_name("bufend")
    1674                            .dwattr $C$DW$168, DW_AT_data_member_location[DW_OP_plus_uconst 0xc]
    1675                            .dwattr $C$DW$168, DW_AT_accessibility(DW_ACCESS_public)
    1676                            .dwattr $C$DW$168, DW_AT_decl_file("C:/VLIB_Tools/CCSV5_4_0/ccsv5/tools/compiler/C6000/include
    1677                            .dwattr $C$DW$168, DW_AT_decl_line(0x4c)
    1678                            .dwattr $C$DW$168, DW_AT_decl_column(0x16)
    1679                    $C$DW$169       .dwtag  DW_TAG_member
    1680                            .dwattr $C$DW$169, DW_AT_type(*$C$DW$T$24)
    1681                            .dwattr $C$DW$169, DW_AT_name("buff_stop")
    1682                            .dwattr $C$DW$169, DW_AT_TI_symbol_name("buff_stop")
    1683                            .dwattr $C$DW$169, DW_AT_data_member_location[DW_OP_plus_uconst 0x10]
    1684                            .dwattr $C$DW$169, DW_AT_accessibility(DW_ACCESS_public)
    1685                            .dwattr $C$DW$169, DW_AT_decl_file("C:/VLIB_Tools/CCSV5_4_0/ccsv5/tools/compiler/C6000/include
    1686                            .dwattr $C$DW$169, DW_AT_decl_line(0x4d)
    1687                            .dwattr $C$DW$169, DW_AT_decl_column(0x16)
    1688                    $C$DW$170       .dwtag  DW_TAG_member
    1689                            .dwattr $C$DW$170, DW_AT_type(*$C$DW$T$11)
    1690                            .dwattr $C$DW$170, DW_AT_name("flags")
    1691                            .dwattr $C$DW$170, DW_AT_TI_symbol_name("flags")
    1692                            .dwattr $C$DW$170, DW_AT_data_member_location[DW_OP_plus_uconst 0x14]
    1693                            .dwattr $C$DW$170, DW_AT_accessibility(DW_ACCESS_public)
    1694                            .dwattr $C$DW$170, DW_AT_decl_file("C:/VLIB_Tools/CCSV5_4_0/ccsv5/tools/compiler/C6000/include
    1695                            .dwattr $C$DW$170, DW_AT_decl_line(0x4e)
    1696                            .dwattr $C$DW$170, DW_AT_decl_column(0x16)
    1697                            .dwendtag $C$DW$T$25
    1698                    
    1699                            .dwattr $C$DW$T$25, DW_AT_decl_file("C:/VLIB_Tools/CCSV5_4_0/ccsv5/tools/compiler/C6000/includ
    1700                            .dwattr $C$DW$T$25, DW_AT_decl_line(0x48)
    1701                            .dwattr $C$DW$T$25, DW_AT_decl_column(0x10)
    1702                    $C$DW$T$46      .dwtag  DW_TAG_typedef, DW_AT_name("FILE")
    1703                            .dwattr $C$DW$T$46, DW_AT_type(*$C$DW$T$25)
    1704                            .dwattr $C$DW$T$46, DW_AT_language(DW_LANG_C)
    1705                            .dwattr $C$DW$T$46, DW_AT_decl_file("C:/VLIB_Tools/CCSV5_4_0/ccsv5/tools/compiler/C6000/includ
    1706                            .dwattr $C$DW$T$46, DW_AT_decl_line(0x4f)
    1707                            .dwattr $C$DW$T$46, DW_AT_decl_column(0x03)
TMS320C6x Assembler PC v7.4.2 Thu Mar 19 12:42:26 2015

Tools Copyright (c) 1996-2012 Texas Instruments Incorporated
package/lib/Regression/regress_d_c/./../packages/ti/vlib/src/VLIB_initVarWithConstS16/VLIB_initVarWithConstS16_d.se66 PAGE   37

    1708                    
    1709                    $C$DW$T$26      .dwtag  DW_TAG_structure_type
    1710                            .dwattr $C$DW$T$26, DW_AT_byte_size(0x08)
    1711                    $C$DW$171       .dwtag  DW_TAG_member
    1712                            .dwattr $C$DW$171, DW_AT_type(*$C$DW$T$10)
    1713                            .dwattr $C$DW$171, DW_AT_name("quot")
    1714                            .dwattr $C$DW$171, DW_AT_TI_symbol_name("quot")
    1715                            .dwattr $C$DW$171, DW_AT_data_member_location[DW_OP_plus_uconst 0x0]
    1716                            .dwattr $C$DW$171, DW_AT_accessibility(DW_ACCESS_public)
    1717                            .dwattr $C$DW$171, DW_AT_decl_file("C:/VLIB_Tools/CCSV5_4_0/ccsv5/tools/compiler/C6000/include
    1718                            .dwattr $C$DW$171, DW_AT_decl_line(0x3e)
    1719                            .dwattr $C$DW$171, DW_AT_decl_column(0x16)
    1720                    $C$DW$172       .dwtag  DW_TAG_member
    1721                            .dwattr $C$DW$172, DW_AT_type(*$C$DW$T$10)
    1722                            .dwattr $C$DW$172, DW_AT_name("rem")
    1723                            .dwattr $C$DW$172, DW_AT_TI_symbol_name("rem")
    1724                            .dwattr $C$DW$172, DW_AT_data_member_location[DW_OP_plus_uconst 0x4]
    1725                            .dwattr $C$DW$172, DW_AT_accessibility(DW_ACCESS_public)
    1726                            .dwattr $C$DW$172, DW_AT_decl_file("C:/VLIB_Tools/CCSV5_4_0/ccsv5/tools/compiler/C6000/include
    1727                            .dwattr $C$DW$172, DW_AT_decl_line(0x3e)
    1728                            .dwattr $C$DW$172, DW_AT_decl_column(0x1c)
    1729                            .dwendtag $C$DW$T$26
    1730                    
    1731                            .dwattr $C$DW$T$26, DW_AT_decl_file("C:/VLIB_Tools/CCSV5_4_0/ccsv5/tools/compiler/C6000/includ
    1732                            .dwattr $C$DW$T$26, DW_AT_decl_line(0x3e)
    1733                            .dwattr $C$DW$T$26, DW_AT_decl_column(0x10)
    1734                    $C$DW$T$47      .dwtag  DW_TAG_typedef, DW_AT_name("div_t")
    1735                            .dwattr $C$DW$T$47, DW_AT_type(*$C$DW$T$26)
    1736                            .dwattr $C$DW$T$47, DW_AT_language(DW_LANG_C)
    1737                            .dwattr $C$DW$T$47, DW_AT_decl_file("C:/VLIB_Tools/CCSV5_4_0/ccsv5/tools/compiler/C6000/includ
    1738                            .dwattr $C$DW$T$47, DW_AT_decl_line(0x3e)
    1739                            .dwattr $C$DW$T$47, DW_AT_decl_column(0x23)
    1740                    
    1741                    $C$DW$T$27      .dwtag  DW_TAG_structure_type
    1742                            .dwattr $C$DW$T$27, DW_AT_byte_size(0x08)
    1743                    $C$DW$173       .dwtag  DW_TAG_member
    1744                            .dwattr $C$DW$173, DW_AT_type(*$C$DW$T$10)
    1745                            .dwattr $C$DW$173, DW_AT_name("quot")
    1746                            .dwattr $C$DW$173, DW_AT_TI_symbol_name("quot")
    1747                            .dwattr $C$DW$173, DW_AT_data_member_location[DW_OP_plus_uconst 0x0]
    1748                            .dwattr $C$DW$173, DW_AT_accessibility(DW_ACCESS_public)
    1749                            .dwattr $C$DW$173, DW_AT_decl_file("C:/VLIB_Tools/CCSV5_4_0/ccsv5/tools/compiler/C6000/include
    1750                            .dwattr $C$DW$173, DW_AT_decl_line(0x40)
    1751                            .dwattr $C$DW$173, DW_AT_decl_column(0x17)
    1752                    $C$DW$174       .dwtag  DW_TAG_member
    1753                            .dwattr $C$DW$174, DW_AT_type(*$C$DW$T$10)
    1754                            .dwattr $C$DW$174, DW_AT_name("rem")
    1755                            .dwattr $C$DW$174, DW_AT_TI_symbol_name("rem")
    1756                            .dwattr $C$DW$174, DW_AT_data_member_location[DW_OP_plus_uconst 0x4]
    1757                            .dwattr $C$DW$174, DW_AT_accessibility(DW_ACCESS_public)
    1758                            .dwattr $C$DW$174, DW_AT_decl_file("C:/VLIB_Tools/CCSV5_4_0/ccsv5/tools/compiler/C6000/include
    1759                            .dwattr $C$DW$174, DW_AT_decl_line(0x40)
    1760                            .dwattr $C$DW$174, DW_AT_decl_column(0x1d)
    1761                            .dwendtag $C$DW$T$27
    1762                    
TMS320C6x Assembler PC v7.4.2 Thu Mar 19 12:42:26 2015

Tools Copyright (c) 1996-2012 Texas Instruments Incorporated
package/lib/Regression/regress_d_c/./../packages/ti/vlib/src/VLIB_initVarWithConstS16/VLIB_initVarWithConstS16_d.se66 PAGE   38

    1763                            .dwattr $C$DW$T$27, DW_AT_decl_file("C:/VLIB_Tools/CCSV5_4_0/ccsv5/tools/compiler/C6000/includ
    1764                            .dwattr $C$DW$T$27, DW_AT_decl_line(0x40)
    1765                            .dwattr $C$DW$T$27, DW_AT_decl_column(0x10)
    1766                    $C$DW$T$48      .dwtag  DW_TAG_typedef, DW_AT_name("ldiv_t")
    1767                            .dwattr $C$DW$T$48, DW_AT_type(*$C$DW$T$27)
    1768                            .dwattr $C$DW$T$48, DW_AT_language(DW_LANG_C)
    1769                            .dwattr $C$DW$T$48, DW_AT_decl_file("C:/VLIB_Tools/CCSV5_4_0/ccsv5/tools/compiler/C6000/includ
    1770                            .dwattr $C$DW$T$48, DW_AT_decl_line(0x40)
    1771                            .dwattr $C$DW$T$48, DW_AT_decl_column(0x24)
    1772                    
    1773                    $C$DW$T$28      .dwtag  DW_TAG_structure_type
    1774                            .dwattr $C$DW$T$28, DW_AT_byte_size(0x10)
    1775                    $C$DW$175       .dwtag  DW_TAG_member
    1776                            .dwattr $C$DW$175, DW_AT_type(*$C$DW$T$14)
    1777                            .dwattr $C$DW$175, DW_AT_name("quot")
    1778                            .dwattr $C$DW$175, DW_AT_TI_symbol_name("quot")
    1779                            .dwattr $C$DW$175, DW_AT_data_member_location[DW_OP_plus_uconst 0x0]
    1780                            .dwattr $C$DW$175, DW_AT_accessibility(DW_ACCESS_public)
    1781                            .dwattr $C$DW$175, DW_AT_decl_file("C:/VLIB_Tools/CCSV5_4_0/ccsv5/tools/compiler/C6000/include
    1782                            .dwattr $C$DW$175, DW_AT_decl_line(0x43)
    1783                            .dwattr $C$DW$175, DW_AT_decl_column(0x1c)
    1784                    $C$DW$176       .dwtag  DW_TAG_member
    1785                            .dwattr $C$DW$176, DW_AT_type(*$C$DW$T$14)
    1786                            .dwattr $C$DW$176, DW_AT_name("rem")
    1787                            .dwattr $C$DW$176, DW_AT_TI_symbol_name("rem")
    1788                            .dwattr $C$DW$176, DW_AT_data_member_location[DW_OP_plus_uconst 0x8]
    1789                            .dwattr $C$DW$176, DW_AT_accessibility(DW_ACCESS_public)
    1790                            .dwattr $C$DW$176, DW_AT_decl_file("C:/VLIB_Tools/CCSV5_4_0/ccsv5/tools/compiler/C6000/include
    1791                            .dwattr $C$DW$176, DW_AT_decl_line(0x43)
    1792                            .dwattr $C$DW$176, DW_AT_decl_column(0x22)
    1793                            .dwendtag $C$DW$T$28
    1794                    
    1795                            .dwattr $C$DW$T$28, DW_AT_decl_file("C:/VLIB_Tools/CCSV5_4_0/ccsv5/tools/compiler/C6000/includ
    1796                            .dwattr $C$DW$T$28, DW_AT_decl_line(0x43)
    1797                            .dwattr $C$DW$T$28, DW_AT_decl_column(0x10)
    1798                    $C$DW$T$49      .dwtag  DW_TAG_typedef, DW_AT_name("lldiv_t")
    1799                            .dwattr $C$DW$T$49, DW_AT_type(*$C$DW$T$28)
    1800                            .dwattr $C$DW$T$49, DW_AT_language(DW_LANG_C)
    1801                            .dwattr $C$DW$T$49, DW_AT_decl_file("C:/VLIB_Tools/CCSV5_4_0/ccsv5/tools/compiler/C6000/includ
    1802                            .dwattr $C$DW$T$49, DW_AT_decl_line(0x43)
    1803                            .dwattr $C$DW$T$49, DW_AT_decl_column(0x29)
    1804                    
    1805                    $C$DW$T$30      .dwtag  DW_TAG_structure_type
    1806                            .dwattr $C$DW$T$30, DW_AT_byte_size(0x24)
    1807                    $C$DW$177       .dwtag  DW_TAG_member
    1808                            .dwattr $C$DW$177, DW_AT_type(*$C$DW$T$29)
    1809                            .dwattr $C$DW$177, DW_AT_name("area")
    1810                            .dwattr $C$DW$177, DW_AT_TI_symbol_name("area")
    1811                            .dwattr $C$DW$177, DW_AT_data_member_location[DW_OP_plus_uconst 0x0]
    1812                            .dwattr $C$DW$177, DW_AT_accessibility(DW_ACCESS_public)
    1813                            .dwattr $C$DW$177, DW_AT_decl_file(".\..\packages\ti\vlib\src\VLIB_initVarWithConstS16\..\comm
    1814                            .dwattr $C$DW$177, DW_AT_decl_line(0x69)
    1815                            .dwattr $C$DW$177, DW_AT_decl_column(0x0d)
    1816                    $C$DW$178       .dwtag  DW_TAG_member
    1817                            .dwattr $C$DW$178, DW_AT_type(*$C$DW$T$29)
TMS320C6x Assembler PC v7.4.2 Thu Mar 19 12:42:26 2015

Tools Copyright (c) 1996-2012 Texas Instruments Incorporated
package/lib/Regression/regress_d_c/./../packages/ti/vlib/src/VLIB_initVarWithConstS16/VLIB_initVarWithConstS16_d.se66 PAGE   39

    1818                            .dwattr $C$DW$178, DW_AT_name("xsum")
    1819                            .dwattr $C$DW$178, DW_AT_TI_symbol_name("xsum")
    1820                            .dwattr $C$DW$178, DW_AT_data_member_location[DW_OP_plus_uconst 0x4]
    1821                            .dwattr $C$DW$178, DW_AT_accessibility(DW_ACCESS_public)
    1822                            .dwattr $C$DW$178, DW_AT_decl_file(".\..\packages\ti\vlib\src\VLIB_initVarWithConstS16\..\comm
    1823                            .dwattr $C$DW$178, DW_AT_decl_line(0x6a)
    1824                            .dwattr $C$DW$178, DW_AT_decl_column(0x0d)
    1825                    $C$DW$179       .dwtag  DW_TAG_member
    1826                            .dwattr $C$DW$179, DW_AT_type(*$C$DW$T$29)
    1827                            .dwattr $C$DW$179, DW_AT_name("ysum")
    1828                            .dwattr $C$DW$179, DW_AT_TI_symbol_name("ysum")
    1829                            .dwattr $C$DW$179, DW_AT_data_member_location[DW_OP_plus_uconst 0x8]
    1830                            .dwattr $C$DW$179, DW_AT_accessibility(DW_ACCESS_public)
    1831                            .dwattr $C$DW$179, DW_AT_decl_file(".\..\packages\ti\vlib\src\VLIB_initVarWithConstS16\..\comm
    1832                            .dwattr $C$DW$179, DW_AT_decl_line(0x6b)
    1833                            .dwattr $C$DW$179, DW_AT_decl_column(0x0d)
    1834                    $C$DW$180       .dwtag  DW_TAG_member
    1835                            .dwattr $C$DW$180, DW_AT_type(*$C$DW$T$29)
    1836                            .dwattr $C$DW$180, DW_AT_name("xmin")
    1837                            .dwattr $C$DW$180, DW_AT_TI_symbol_name("xmin")
    1838                            .dwattr $C$DW$180, DW_AT_data_member_location[DW_OP_plus_uconst 0xc]
    1839                            .dwattr $C$DW$180, DW_AT_accessibility(DW_ACCESS_public)
    1840                            .dwattr $C$DW$180, DW_AT_decl_file(".\..\packages\ti\vlib\src\VLIB_initVarWithConstS16\..\comm
    1841                            .dwattr $C$DW$180, DW_AT_decl_line(0x6d)
    1842                            .dwattr $C$DW$180, DW_AT_decl_column(0x0d)
    1843                    $C$DW$181       .dwtag  DW_TAG_member
    1844                            .dwattr $C$DW$181, DW_AT_type(*$C$DW$T$29)
    1845                            .dwattr $C$DW$181, DW_AT_name("ymin")
    1846                            .dwattr $C$DW$181, DW_AT_TI_symbol_name("ymin")
    1847                            .dwattr $C$DW$181, DW_AT_data_member_location[DW_OP_plus_uconst 0x10]
    1848                            .dwattr $C$DW$181, DW_AT_accessibility(DW_ACCESS_public)
    1849                            .dwattr $C$DW$181, DW_AT_decl_file(".\..\packages\ti\vlib\src\VLIB_initVarWithConstS16\..\comm
    1850                            .dwattr $C$DW$181, DW_AT_decl_line(0x6e)
    1851                            .dwattr $C$DW$181, DW_AT_decl_column(0x0d)
    1852                    $C$DW$182       .dwtag  DW_TAG_member
    1853                            .dwattr $C$DW$182, DW_AT_type(*$C$DW$T$29)
    1854                            .dwattr $C$DW$182, DW_AT_name("xmax")
    1855                            .dwattr $C$DW$182, DW_AT_TI_symbol_name("xmax")
    1856                            .dwattr $C$DW$182, DW_AT_data_member_location[DW_OP_plus_uconst 0x14]
    1857                            .dwattr $C$DW$182, DW_AT_accessibility(DW_ACCESS_public)
    1858                            .dwattr $C$DW$182, DW_AT_decl_file(".\..\packages\ti\vlib\src\VLIB_initVarWithConstS16\..\comm
    1859                            .dwattr $C$DW$182, DW_AT_decl_line(0x6f)
    1860                            .dwattr $C$DW$182, DW_AT_decl_column(0x0d)
    1861                    $C$DW$183       .dwtag  DW_TAG_member
    1862                            .dwattr $C$DW$183, DW_AT_type(*$C$DW$T$29)
    1863                            .dwattr $C$DW$183, DW_AT_name("ymax")
    1864                            .dwattr $C$DW$183, DW_AT_TI_symbol_name("ymax")
    1865                            .dwattr $C$DW$183, DW_AT_data_member_location[DW_OP_plus_uconst 0x18]
    1866                            .dwattr $C$DW$183, DW_AT_accessibility(DW_ACCESS_public)
    1867                            .dwattr $C$DW$183, DW_AT_decl_file(".\..\packages\ti\vlib\src\VLIB_initVarWithConstS16\..\comm
    1868                            .dwattr $C$DW$183, DW_AT_decl_line(0x70)
    1869                            .dwattr $C$DW$183, DW_AT_decl_column(0x0d)
    1870                    $C$DW$184       .dwtag  DW_TAG_member
    1871                            .dwattr $C$DW$184, DW_AT_type(*$C$DW$T$29)
    1872                            .dwattr $C$DW$184, DW_AT_name("seedx")
TMS320C6x Assembler PC v7.4.2 Thu Mar 19 12:42:26 2015

Tools Copyright (c) 1996-2012 Texas Instruments Incorporated
package/lib/Regression/regress_d_c/./../packages/ti/vlib/src/VLIB_initVarWithConstS16/VLIB_initVarWithConstS16_d.se66 PAGE   40

    1873                            .dwattr $C$DW$184, DW_AT_TI_symbol_name("seedx")
    1874                            .dwattr $C$DW$184, DW_AT_data_member_location[DW_OP_plus_uconst 0x1c]
    1875                            .dwattr $C$DW$184, DW_AT_accessibility(DW_ACCESS_public)
    1876                            .dwattr $C$DW$184, DW_AT_decl_file(".\..\packages\ti\vlib\src\VLIB_initVarWithConstS16\..\comm
    1877                            .dwattr $C$DW$184, DW_AT_decl_line(0x72)
    1878                            .dwattr $C$DW$184, DW_AT_decl_column(0x0d)
    1879                    $C$DW$185       .dwtag  DW_TAG_member
    1880                            .dwattr $C$DW$185, DW_AT_type(*$C$DW$T$29)
    1881                            .dwattr $C$DW$185, DW_AT_name("seedy")
    1882                            .dwattr $C$DW$185, DW_AT_TI_symbol_name("seedy")
    1883                            .dwattr $C$DW$185, DW_AT_data_member_location[DW_OP_plus_uconst 0x20]
    1884                            .dwattr $C$DW$185, DW_AT_accessibility(DW_ACCESS_public)
    1885                            .dwattr $C$DW$185, DW_AT_decl_file(".\..\packages\ti\vlib\src\VLIB_initVarWithConstS16\..\comm
    1886                            .dwattr $C$DW$185, DW_AT_decl_line(0x73)
    1887                            .dwattr $C$DW$185, DW_AT_decl_column(0x0d)
    1888                            .dwendtag $C$DW$T$30
    1889                    
    1890                            .dwattr $C$DW$T$30, DW_AT_decl_file(".\..\packages\ti\vlib\src\VLIB_initVarWithConstS16\..\com
    1891                            .dwattr $C$DW$T$30, DW_AT_decl_line(0x68)
    1892                            .dwattr $C$DW$T$30, DW_AT_decl_column(0x10)
    1893                    $C$DW$T$50      .dwtag  DW_TAG_typedef, DW_AT_name("VLIB_CC")
    1894                            .dwattr $C$DW$T$50, DW_AT_type(*$C$DW$T$30)
    1895                            .dwattr $C$DW$T$50, DW_AT_language(DW_LANG_C)
    1896                            .dwattr $C$DW$T$50, DW_AT_decl_file(".\..\packages\ti\vlib\src\VLIB_initVarWithConstS16\..\com
    1897                            .dwattr $C$DW$T$50, DW_AT_decl_line(0x75)
    1898                            .dwattr $C$DW$T$50, DW_AT_decl_column(0x03)
    1899                    
    1900                    $C$DW$T$33      .dwtag  DW_TAG_structure_type
    1901                            .dwattr $C$DW$T$33, DW_AT_byte_size(0x10)
    1902                    $C$DW$186       .dwtag  DW_TAG_member
    1903                            .dwattr $C$DW$186, DW_AT_type(*$C$DW$T$8)
    1904                            .dwattr $C$DW$186, DW_AT_name("daylight")
    1905                            .dwattr $C$DW$186, DW_AT_TI_symbol_name("daylight")
    1906                            .dwattr $C$DW$186, DW_AT_data_member_location[DW_OP_plus_uconst 0x0]
    1907                            .dwattr $C$DW$186, DW_AT_accessibility(DW_ACCESS_public)
    1908                            .dwattr $C$DW$186, DW_AT_decl_file("C:/VLIB_Tools/CCSV5_4_0/ccsv5/tools/compiler/C6000/include
    1909                            .dwattr $C$DW$186, DW_AT_decl_line(0x52)
    1910                            .dwattr $C$DW$186, DW_AT_decl_column(0x0b)
    1911                    $C$DW$187       .dwtag  DW_TAG_member
    1912                            .dwattr $C$DW$187, DW_AT_type(*$C$DW$T$10)
    1913                            .dwattr $C$DW$187, DW_AT_name("timezone")
    1914                            .dwattr $C$DW$187, DW_AT_TI_symbol_name("timezone")
    1915                            .dwattr $C$DW$187, DW_AT_data_member_location[DW_OP_plus_uconst 0x4]
    1916                            .dwattr $C$DW$187, DW_AT_accessibility(DW_ACCESS_public)
    1917                            .dwattr $C$DW$187, DW_AT_decl_file("C:/VLIB_Tools/CCSV5_4_0/ccsv5/tools/compiler/C6000/include
    1918                            .dwattr $C$DW$187, DW_AT_decl_line(0x53)
    1919                            .dwattr $C$DW$187, DW_AT_decl_column(0x0b)
    1920                    $C$DW$188       .dwtag  DW_TAG_member
    1921                            .dwattr $C$DW$188, DW_AT_type(*$C$DW$T$32)
    1922                            .dwattr $C$DW$188, DW_AT_name("tzname")
    1923                            .dwattr $C$DW$188, DW_AT_TI_symbol_name("tzname")
    1924                            .dwattr $C$DW$188, DW_AT_data_member_location[DW_OP_plus_uconst 0x8]
    1925                            .dwattr $C$DW$188, DW_AT_accessibility(DW_ACCESS_public)
    1926                            .dwattr $C$DW$188, DW_AT_decl_file("C:/VLIB_Tools/CCSV5_4_0/ccsv5/tools/compiler/C6000/include
    1927                            .dwattr $C$DW$188, DW_AT_decl_line(0x54)
TMS320C6x Assembler PC v7.4.2 Thu Mar 19 12:42:26 2015

Tools Copyright (c) 1996-2012 Texas Instruments Incorporated
package/lib/Regression/regress_d_c/./../packages/ti/vlib/src/VLIB_initVarWithConstS16/VLIB_initVarWithConstS16_d.se66 PAGE   41

    1928                            .dwattr $C$DW$188, DW_AT_decl_column(0x0b)
    1929                    $C$DW$189       .dwtag  DW_TAG_member
    1930                            .dwattr $C$DW$189, DW_AT_type(*$C$DW$T$32)
    1931                            .dwattr $C$DW$189, DW_AT_name("dstname")
    1932                            .dwattr $C$DW$189, DW_AT_TI_symbol_name("dstname")
    1933                            .dwattr $C$DW$189, DW_AT_data_member_location[DW_OP_plus_uconst 0xc]
    1934                            .dwattr $C$DW$189, DW_AT_accessibility(DW_ACCESS_public)
    1935                            .dwattr $C$DW$189, DW_AT_decl_file("C:/VLIB_Tools/CCSV5_4_0/ccsv5/tools/compiler/C6000/include
    1936                            .dwattr $C$DW$189, DW_AT_decl_line(0x55)
    1937                            .dwattr $C$DW$189, DW_AT_decl_column(0x0b)
    1938                            .dwendtag $C$DW$T$33
    1939                    
    1940                            .dwattr $C$DW$T$33, DW_AT_decl_file("C:/VLIB_Tools/CCSV5_4_0/ccsv5/tools/compiler/C6000/includ
    1941                            .dwattr $C$DW$T$33, DW_AT_decl_line(0x51)
    1942                            .dwattr $C$DW$T$33, DW_AT_decl_column(0x01)
    1943                    $C$DW$T$51      .dwtag  DW_TAG_typedef, DW_AT_name("TZ")
    1944                            .dwattr $C$DW$T$51, DW_AT_type(*$C$DW$T$33)
    1945                            .dwattr $C$DW$T$51, DW_AT_language(DW_LANG_C)
    1946                            .dwattr $C$DW$T$51, DW_AT_decl_file("C:/VLIB_Tools/CCSV5_4_0/ccsv5/tools/compiler/C6000/includ
    1947                            .dwattr $C$DW$T$51, DW_AT_decl_line(0x56)
    1948                            .dwattr $C$DW$T$51, DW_AT_decl_column(0x03)
    1949                    $C$DW$T$2       .dwtag  DW_TAG_unspecified_type
    1950                            .dwattr $C$DW$T$2, DW_AT_name("void")
    1951                    $C$DW$T$3       .dwtag  DW_TAG_pointer_type
    1952                            .dwattr $C$DW$T$3, DW_AT_type(*$C$DW$T$2)
    1953                            .dwattr $C$DW$T$3, DW_AT_address_class(0x20)
    1954                    $C$DW$T$52      .dwtag  DW_TAG_typedef, DW_AT_name("VLIB_PTR")
    1955                            .dwattr $C$DW$T$52, DW_AT_type(*$C$DW$T$3)
    1956                            .dwattr $C$DW$T$52, DW_AT_language(DW_LANG_C)
    1957                            .dwattr $C$DW$T$52, DW_AT_decl_file(".\..\packages\ti\vlib\src\VLIB_initVarWithConstS16\..\com
    1958                            .dwattr $C$DW$T$52, DW_AT_decl_line(0x5c)
    1959                            .dwattr $C$DW$T$52, DW_AT_decl_column(0x19)
    1960                    $C$DW$T$4       .dwtag  DW_TAG_base_type
    1961                            .dwattr $C$DW$T$4, DW_AT_encoding(DW_ATE_boolean)
    1962                            .dwattr $C$DW$T$4, DW_AT_name("bool")
    1963                            .dwattr $C$DW$T$4, DW_AT_byte_size(0x01)
    1964                    $C$DW$T$5       .dwtag  DW_TAG_base_type
    1965                            .dwattr $C$DW$T$5, DW_AT_encoding(DW_ATE_signed_char)
    1966                            .dwattr $C$DW$T$5, DW_AT_name("signed char")
    1967                            .dwattr $C$DW$T$5, DW_AT_byte_size(0x01)
    1968                    $C$DW$T$79      .dwtag  DW_TAG_pointer_type
    1969                            .dwattr $C$DW$T$79, DW_AT_type(*$C$DW$T$5)
    1970                            .dwattr $C$DW$T$79, DW_AT_address_class(0x20)
    1971                    $C$DW$T$89      .dwtag  DW_TAG_typedef, DW_AT_name("int8_t")
    1972                            .dwattr $C$DW$T$89, DW_AT_type(*$C$DW$T$5)
    1973                            .dwattr $C$DW$T$89, DW_AT_language(DW_LANG_C)
    1974                            .dwattr $C$DW$T$89, DW_AT_decl_file("C:/VLIB_Tools/CCSV5_4_0/ccsv5/tools/compiler/C6000/includ
    1975                            .dwattr $C$DW$T$89, DW_AT_decl_line(0x2a)
    1976                            .dwattr $C$DW$T$89, DW_AT_decl_column(0x1d)
    1977                    $C$DW$T$90      .dwtag  DW_TAG_typedef, DW_AT_name("int_least8_t")
    1978                            .dwattr $C$DW$T$90, DW_AT_type(*$C$DW$T$89)
    1979                            .dwattr $C$DW$T$90, DW_AT_language(DW_LANG_C)
    1980                            .dwattr $C$DW$T$90, DW_AT_decl_file("C:/VLIB_Tools/CCSV5_4_0/ccsv5/tools/compiler/C6000/includ
    1981                            .dwattr $C$DW$T$90, DW_AT_decl_line(0x39)
    1982                            .dwattr $C$DW$T$90, DW_AT_decl_column(0x17)
TMS320C6x Assembler PC v7.4.2 Thu Mar 19 12:42:26 2015

Tools Copyright (c) 1996-2012 Texas Instruments Incorporated
package/lib/Regression/regress_d_c/./../packages/ti/vlib/src/VLIB_initVarWithConstS16/VLIB_initVarWithConstS16_d.se66 PAGE   42

    1983                    $C$DW$T$6       .dwtag  DW_TAG_base_type
    1984                            .dwattr $C$DW$T$6, DW_AT_encoding(DW_ATE_unsigned_char)
    1985                            .dwattr $C$DW$T$6, DW_AT_name("unsigned char")
    1986                            .dwattr $C$DW$T$6, DW_AT_byte_size(0x01)
    1987                    $C$DW$T$24      .dwtag  DW_TAG_pointer_type
    1988                            .dwattr $C$DW$T$24, DW_AT_type(*$C$DW$T$6)
    1989                            .dwattr $C$DW$T$24, DW_AT_address_class(0x20)
    1990                    $C$DW$T$19      .dwtag  DW_TAG_typedef, DW_AT_name("uint8_t")
    1991                            .dwattr $C$DW$T$19, DW_AT_type(*$C$DW$T$6)
    1992                            .dwattr $C$DW$T$19, DW_AT_language(DW_LANG_C)
    1993                            .dwattr $C$DW$T$19, DW_AT_decl_file("C:/VLIB_Tools/CCSV5_4_0/ccsv5/tools/compiler/C6000/includ
    1994                            .dwattr $C$DW$T$19, DW_AT_decl_line(0x2b)
    1995                            .dwattr $C$DW$T$19, DW_AT_decl_column(0x1c)
    1996                    $C$DW$T$91      .dwtag  DW_TAG_typedef, DW_AT_name("uint_least8_t")
    1997                            .dwattr $C$DW$T$91, DW_AT_type(*$C$DW$T$19)
    1998                            .dwattr $C$DW$T$91, DW_AT_language(DW_LANG_C)
    1999                            .dwattr $C$DW$T$91, DW_AT_decl_file("C:/VLIB_Tools/CCSV5_4_0/ccsv5/tools/compiler/C6000/includ
    2000                            .dwattr $C$DW$T$91, DW_AT_decl_line(0x3a)
    2001                            .dwattr $C$DW$T$91, DW_AT_decl_column(0x16)
    2002                    $C$DW$T$7       .dwtag  DW_TAG_base_type
    2003                            .dwattr $C$DW$T$7, DW_AT_encoding(DW_ATE_signed_char)
    2004                            .dwattr $C$DW$T$7, DW_AT_name("wchar_t")
    2005                            .dwattr $C$DW$T$7, DW_AT_byte_size(0x02)
    2006                    $C$DW$T$8       .dwtag  DW_TAG_base_type
    2007                            .dwattr $C$DW$T$8, DW_AT_encoding(DW_ATE_signed)
    2008                            .dwattr $C$DW$T$8, DW_AT_name("short")
    2009                            .dwattr $C$DW$T$8, DW_AT_byte_size(0x02)
    2010                    $C$DW$T$92      .dwtag  DW_TAG_pointer_type
    2011                            .dwattr $C$DW$T$92, DW_AT_type(*$C$DW$T$8)
    2012                            .dwattr $C$DW$T$92, DW_AT_address_class(0x20)
    2013                    $C$DW$T$20      .dwtag  DW_TAG_typedef, DW_AT_name("int16_t")
    2014                            .dwattr $C$DW$T$20, DW_AT_type(*$C$DW$T$8)
    2015                            .dwattr $C$DW$T$20, DW_AT_language(DW_LANG_C)
    2016                            .dwattr $C$DW$T$20, DW_AT_decl_file("C:/VLIB_Tools/CCSV5_4_0/ccsv5/tools/compiler/C6000/includ
    2017                            .dwattr $C$DW$T$20, DW_AT_decl_line(0x2c)
    2018                            .dwattr $C$DW$T$20, DW_AT_decl_column(0x1d)
    2019                    $C$DW$T$21      .dwtag  DW_TAG_pointer_type
    2020                            .dwattr $C$DW$T$21, DW_AT_type(*$C$DW$T$20)
    2021                            .dwattr $C$DW$T$21, DW_AT_address_class(0x20)
    2022                    $C$DW$T$93      .dwtag  DW_TAG_restrict_type
    2023                            .dwattr $C$DW$T$93, DW_AT_type(*$C$DW$T$21)
    2024                    $C$DW$T$94      .dwtag  DW_TAG_const_type
    2025                            .dwattr $C$DW$T$94, DW_AT_type(*$C$DW$T$20)
    2026                    $C$DW$T$95      .dwtag  DW_TAG_typedef, DW_AT_name("int_least16_t")
    2027                            .dwattr $C$DW$T$95, DW_AT_type(*$C$DW$T$20)
    2028                            .dwattr $C$DW$T$95, DW_AT_language(DW_LANG_C)
    2029                            .dwattr $C$DW$T$95, DW_AT_decl_file("C:/VLIB_Tools/CCSV5_4_0/ccsv5/tools/compiler/C6000/includ
    2030                            .dwattr $C$DW$T$95, DW_AT_decl_line(0x3c)
    2031                            .dwattr $C$DW$T$95, DW_AT_decl_column(0x17)
    2032                    $C$DW$T$9       .dwtag  DW_TAG_base_type
    2033                            .dwattr $C$DW$T$9, DW_AT_encoding(DW_ATE_unsigned)
    2034                            .dwattr $C$DW$T$9, DW_AT_name("unsigned short")
    2035                            .dwattr $C$DW$T$9, DW_AT_byte_size(0x02)
    2036                    $C$DW$T$72      .dwtag  DW_TAG_typedef, DW_AT_name("uint16_t")
    2037                            .dwattr $C$DW$T$72, DW_AT_type(*$C$DW$T$9)
TMS320C6x Assembler PC v7.4.2 Thu Mar 19 12:42:26 2015

Tools Copyright (c) 1996-2012 Texas Instruments Incorporated
package/lib/Regression/regress_d_c/./../packages/ti/vlib/src/VLIB_initVarWithConstS16/VLIB_initVarWithConstS16_d.se66 PAGE   43

    2038                            .dwattr $C$DW$T$72, DW_AT_language(DW_LANG_C)
    2039                            .dwattr $C$DW$T$72, DW_AT_decl_file("C:/VLIB_Tools/CCSV5_4_0/ccsv5/tools/compiler/C6000/includ
    2040                            .dwattr $C$DW$T$72, DW_AT_decl_line(0x2d)
    2041                            .dwattr $C$DW$T$72, DW_AT_decl_column(0x1c)
    2042                    $C$DW$T$97      .dwtag  DW_TAG_typedef, DW_AT_name("uint_least16_t")
    2043                            .dwattr $C$DW$T$97, DW_AT_type(*$C$DW$T$72)
    2044                            .dwattr $C$DW$T$97, DW_AT_language(DW_LANG_C)
    2045                            .dwattr $C$DW$T$97, DW_AT_decl_file("C:/VLIB_Tools/CCSV5_4_0/ccsv5/tools/compiler/C6000/includ
    2046                            .dwattr $C$DW$T$97, DW_AT_decl_line(0x3d)
    2047                            .dwattr $C$DW$T$97, DW_AT_decl_column(0x16)
    2048                    $C$DW$T$96      .dwtag  DW_TAG_typedef, DW_AT_name("wchar_t")
    2049                            .dwattr $C$DW$T$96, DW_AT_type(*$C$DW$T$9)
    2050                            .dwattr $C$DW$T$96, DW_AT_language(DW_LANG_C)
    2051                            .dwattr $C$DW$T$96, DW_AT_decl_file("C:/VLIB_Tools/CCSV5_4_0/ccsv5/tools/compiler/C6000/includ
    2052                            .dwattr $C$DW$T$96, DW_AT_decl_line(0x53)
    2053                            .dwattr $C$DW$T$96, DW_AT_decl_column(0x1a)
    2054                    $C$DW$T$10      .dwtag  DW_TAG_base_type
    2055                            .dwattr $C$DW$T$10, DW_AT_encoding(DW_ATE_signed)
    2056                            .dwattr $C$DW$T$10, DW_AT_name("int")
    2057                            .dwattr $C$DW$T$10, DW_AT_byte_size(0x04)
    2058                    $C$DW$T$120     .dwtag  DW_TAG_typedef, DW_AT_name("fpos_t")
    2059                            .dwattr $C$DW$T$120, DW_AT_type(*$C$DW$T$10)
    2060                            .dwattr $C$DW$T$120, DW_AT_language(DW_LANG_C)
    2061                            .dwattr $C$DW$T$120, DW_AT_decl_file("C:/VLIB_Tools/CCSV5_4_0/ccsv5/tools/compiler/C6000/inclu
    2062                            .dwattr $C$DW$T$120, DW_AT_decl_line(0x53)
    2063                            .dwattr $C$DW$T$120, DW_AT_decl_column(0x0d)
    2064                    $C$DW$T$29      .dwtag  DW_TAG_typedef, DW_AT_name("int32_t")
    2065                            .dwattr $C$DW$T$29, DW_AT_type(*$C$DW$T$10)
    2066                            .dwattr $C$DW$T$29, DW_AT_language(DW_LANG_C)
    2067                            .dwattr $C$DW$T$29, DW_AT_decl_file("C:/VLIB_Tools/CCSV5_4_0/ccsv5/tools/compiler/C6000/includ
    2068                            .dwattr $C$DW$T$29, DW_AT_decl_line(0x2e)
    2069                            .dwattr $C$DW$T$29, DW_AT_decl_column(0x1d)
    2070                    $C$DW$T$112     .dwtag  DW_TAG_typedef, DW_AT_name("VLIB_CCHandle")
    2071                            .dwattr $C$DW$T$112, DW_AT_type(*$C$DW$T$29)
    2072                            .dwattr $C$DW$T$112, DW_AT_language(DW_LANG_C)
    2073                            .dwattr $C$DW$T$112, DW_AT_decl_file(".\..\packages\ti\vlib\src\VLIB_initVarWithConstS16\..\co
    2074                            .dwattr $C$DW$T$112, DW_AT_decl_line(0x77)
    2075                            .dwattr $C$DW$T$112, DW_AT_decl_column(0x11)
    2076                    
    2077                    $C$DW$T$34      .dwtag  DW_TAG_array_type
    2078                            .dwattr $C$DW$T$34, DW_AT_type(*$C$DW$T$29)
    2079                            .dwattr $C$DW$T$34, DW_AT_language(DW_LANG_C)
    2080                            .dwattr $C$DW$T$34, DW_AT_byte_size(0x10)
    2081                    $C$DW$190       .dwtag  DW_TAG_subrange_type
    2082                            .dwattr $C$DW$190, DW_AT_upper_bound(0x03)
    2083                            .dwendtag $C$DW$T$34
    2084                    
    2085                    $C$DW$T$75      .dwtag  DW_TAG_pointer_type
    2086                            .dwattr $C$DW$T$75, DW_AT_type(*$C$DW$T$29)
    2087                            .dwattr $C$DW$T$75, DW_AT_address_class(0x20)
    2088                    $C$DW$T$115     .dwtag  DW_TAG_typedef, DW_AT_name("int_fast16_t")
    2089                            .dwattr $C$DW$T$115, DW_AT_type(*$C$DW$T$29)
    2090                            .dwattr $C$DW$T$115, DW_AT_language(DW_LANG_C)
    2091                            .dwattr $C$DW$T$115, DW_AT_decl_file("C:/VLIB_Tools/CCSV5_4_0/ccsv5/tools/compiler/C6000/inclu
    2092                            .dwattr $C$DW$T$115, DW_AT_decl_line(0x4b)
TMS320C6x Assembler PC v7.4.2 Thu Mar 19 12:42:26 2015

Tools Copyright (c) 1996-2012 Texas Instruments Incorporated
package/lib/Regression/regress_d_c/./../packages/ti/vlib/src/VLIB_initVarWithConstS16/VLIB_initVarWithConstS16_d.se66 PAGE   44

    2093                            .dwattr $C$DW$T$115, DW_AT_decl_column(0x17)
    2094                    $C$DW$T$116     .dwtag  DW_TAG_typedef, DW_AT_name("int_fast32_t")
    2095                            .dwattr $C$DW$T$116, DW_AT_type(*$C$DW$T$29)
    2096                            .dwattr $C$DW$T$116, DW_AT_language(DW_LANG_C)
    2097                            .dwattr $C$DW$T$116, DW_AT_decl_file("C:/VLIB_Tools/CCSV5_4_0/ccsv5/tools/compiler/C6000/inclu
    2098                            .dwattr $C$DW$T$116, DW_AT_decl_line(0x4e)
    2099                            .dwattr $C$DW$T$116, DW_AT_decl_column(0x17)
    2100                    $C$DW$T$117     .dwtag  DW_TAG_typedef, DW_AT_name("int_fast8_t")
    2101                            .dwattr $C$DW$T$117, DW_AT_type(*$C$DW$T$29)
    2102                            .dwattr $C$DW$T$117, DW_AT_language(DW_LANG_C)
    2103                            .dwattr $C$DW$T$117, DW_AT_decl_file("C:/VLIB_Tools/CCSV5_4_0/ccsv5/tools/compiler/C6000/inclu
    2104                            .dwattr $C$DW$T$117, DW_AT_decl_line(0x49)
    2105                            .dwattr $C$DW$T$117, DW_AT_decl_column(0x17)
    2106                    $C$DW$T$118     .dwtag  DW_TAG_typedef, DW_AT_name("int_least32_t")
    2107                            .dwattr $C$DW$T$118, DW_AT_type(*$C$DW$T$29)
    2108                            .dwattr $C$DW$T$118, DW_AT_language(DW_LANG_C)
    2109                            .dwattr $C$DW$T$118, DW_AT_decl_file("C:/VLIB_Tools/CCSV5_4_0/ccsv5/tools/compiler/C6000/inclu
    2110                            .dwattr $C$DW$T$118, DW_AT_decl_line(0x3e)
    2111                            .dwattr $C$DW$T$118, DW_AT_decl_column(0x17)
    2112                    $C$DW$T$119     .dwtag  DW_TAG_typedef, DW_AT_name("intptr_t")
    2113                            .dwattr $C$DW$T$119, DW_AT_type(*$C$DW$T$10)
    2114                            .dwattr $C$DW$T$119, DW_AT_language(DW_LANG_C)
    2115                            .dwattr $C$DW$T$119, DW_AT_decl_file("C:/VLIB_Tools/CCSV5_4_0/ccsv5/tools/compiler/C6000/inclu
    2116                            .dwattr $C$DW$T$119, DW_AT_decl_line(0x58)
    2117                            .dwattr $C$DW$T$119, DW_AT_decl_column(0x1a)
    2118                    $C$DW$T$11      .dwtag  DW_TAG_base_type
    2119                            .dwattr $C$DW$T$11, DW_AT_encoding(DW_ATE_unsigned)
    2120                            .dwattr $C$DW$T$11, DW_AT_name("unsigned int")
    2121                            .dwattr $C$DW$T$11, DW_AT_byte_size(0x04)
    2122                    $C$DW$T$121     .dwtag  DW_TAG_typedef, DW_AT_name("VLIB_VAL")
    2123                            .dwattr $C$DW$T$121, DW_AT_type(*$C$DW$T$11)
    2124                            .dwattr $C$DW$T$121, DW_AT_language(DW_LANG_C)
    2125                            .dwattr $C$DW$T$121, DW_AT_decl_file(".\..\packages\ti\vlib\src\VLIB_initVarWithConstS16\..\co
    2126                            .dwattr $C$DW$T$121, DW_AT_decl_line(0x5d)
    2127                            .dwattr $C$DW$T$121, DW_AT_decl_column(0x17)
    2128                    $C$DW$T$132     .dwtag  DW_TAG_typedef, DW_AT_name("clock_t")
    2129                            .dwattr $C$DW$T$132, DW_AT_type(*$C$DW$T$11)
    2130                            .dwattr $C$DW$T$132, DW_AT_language(DW_LANG_C)
    2131                            .dwattr $C$DW$T$132, DW_AT_decl_file("C:/VLIB_Tools/CCSV5_4_0/ccsv5/tools/compiler/C6000/inclu
    2132                            .dwattr $C$DW$T$132, DW_AT_decl_line(0x37)
    2133                            .dwattr $C$DW$T$132, DW_AT_decl_column(0x16)
    2134                    $C$DW$T$53      .dwtag  DW_TAG_typedef, DW_AT_name("size_t")
    2135                            .dwattr $C$DW$T$53, DW_AT_type(*$C$DW$T$11)
    2136                            .dwattr $C$DW$T$53, DW_AT_language(DW_LANG_C)
    2137                            .dwattr $C$DW$T$53, DW_AT_decl_file("C:/VLIB_Tools/CCSV5_4_0/ccsv5/tools/compiler/C6000/includ
    2138                            .dwattr $C$DW$T$53, DW_AT_decl_line(0x45)
    2139                            .dwattr $C$DW$T$53, DW_AT_decl_column(0x19)
    2140                    $C$DW$T$125     .dwtag  DW_TAG_typedef, DW_AT_name("time_t")
    2141                            .dwattr $C$DW$T$125, DW_AT_type(*$C$DW$T$11)
    2142                            .dwattr $C$DW$T$125, DW_AT_language(DW_LANG_C)
    2143                            .dwattr $C$DW$T$125, DW_AT_decl_file("C:/VLIB_Tools/CCSV5_4_0/ccsv5/tools/compiler/C6000/inclu
    2144                            .dwattr $C$DW$T$125, DW_AT_decl_line(0x38)
    2145                            .dwattr $C$DW$T$125, DW_AT_decl_column(0x16)
    2146                    $C$DW$T$22      .dwtag  DW_TAG_typedef, DW_AT_name("uint32_t")
    2147                            .dwattr $C$DW$T$22, DW_AT_type(*$C$DW$T$11)
TMS320C6x Assembler PC v7.4.2 Thu Mar 19 12:42:26 2015

Tools Copyright (c) 1996-2012 Texas Instruments Incorporated
package/lib/Regression/regress_d_c/./../packages/ti/vlib/src/VLIB_initVarWithConstS16/VLIB_initVarWithConstS16_d.se66 PAGE   45

    2148                            .dwattr $C$DW$T$22, DW_AT_language(DW_LANG_C)
    2149                            .dwattr $C$DW$T$22, DW_AT_decl_file("C:/VLIB_Tools/CCSV5_4_0/ccsv5/tools/compiler/C6000/includ
    2150                            .dwattr $C$DW$T$22, DW_AT_decl_line(0x2f)
    2151                            .dwattr $C$DW$T$22, DW_AT_decl_column(0x1c)
    2152                    $C$DW$T$108     .dwtag  DW_TAG_const_type
    2153                            .dwattr $C$DW$T$108, DW_AT_type(*$C$DW$T$22)
    2154                    $C$DW$T$127     .dwtag  DW_TAG_typedef, DW_AT_name("uint_fast16_t")
    2155                            .dwattr $C$DW$T$127, DW_AT_type(*$C$DW$T$22)
    2156                            .dwattr $C$DW$T$127, DW_AT_language(DW_LANG_C)
    2157                            .dwattr $C$DW$T$127, DW_AT_decl_file("C:/VLIB_Tools/CCSV5_4_0/ccsv5/tools/compiler/C6000/inclu
    2158                            .dwattr $C$DW$T$127, DW_AT_decl_line(0x4c)
    2159                            .dwattr $C$DW$T$127, DW_AT_decl_column(0x16)
    2160                    $C$DW$T$128     .dwtag  DW_TAG_typedef, DW_AT_name("uint_fast32_t")
    2161                            .dwattr $C$DW$T$128, DW_AT_type(*$C$DW$T$22)
    2162                            .dwattr $C$DW$T$128, DW_AT_language(DW_LANG_C)
    2163                            .dwattr $C$DW$T$128, DW_AT_decl_file("C:/VLIB_Tools/CCSV5_4_0/ccsv5/tools/compiler/C6000/inclu
    2164                            .dwattr $C$DW$T$128, DW_AT_decl_line(0x4f)
    2165                            .dwattr $C$DW$T$128, DW_AT_decl_column(0x16)
    2166                    $C$DW$T$129     .dwtag  DW_TAG_typedef, DW_AT_name("uint_fast8_t")
    2167                            .dwattr $C$DW$T$129, DW_AT_type(*$C$DW$T$22)
    2168                            .dwattr $C$DW$T$129, DW_AT_language(DW_LANG_C)
    2169                            .dwattr $C$DW$T$129, DW_AT_decl_file("C:/VLIB_Tools/CCSV5_4_0/ccsv5/tools/compiler/C6000/inclu
    2170                            .dwattr $C$DW$T$129, DW_AT_decl_line(0x4a)
    2171                            .dwattr $C$DW$T$129, DW_AT_decl_column(0x16)
    2172                    $C$DW$T$130     .dwtag  DW_TAG_typedef, DW_AT_name("uint_least32_t")
    2173                            .dwattr $C$DW$T$130, DW_AT_type(*$C$DW$T$22)
    2174                            .dwattr $C$DW$T$130, DW_AT_language(DW_LANG_C)
    2175                            .dwattr $C$DW$T$130, DW_AT_decl_file("C:/VLIB_Tools/CCSV5_4_0/ccsv5/tools/compiler/C6000/inclu
    2176                            .dwattr $C$DW$T$130, DW_AT_decl_line(0x3f)
    2177                            .dwattr $C$DW$T$130, DW_AT_decl_column(0x16)
    2178                    $C$DW$T$131     .dwtag  DW_TAG_typedef, DW_AT_name("uintptr_t")
    2179                            .dwattr $C$DW$T$131, DW_AT_type(*$C$DW$T$11)
    2180                            .dwattr $C$DW$T$131, DW_AT_language(DW_LANG_C)
    2181                            .dwattr $C$DW$T$131, DW_AT_decl_file("C:/VLIB_Tools/CCSV5_4_0/ccsv5/tools/compiler/C6000/inclu
    2182                            .dwattr $C$DW$T$131, DW_AT_decl_line(0x59)
    2183                            .dwattr $C$DW$T$131, DW_AT_decl_column(0x1a)
    2184                    $C$DW$T$12      .dwtag  DW_TAG_base_type
    2185                            .dwattr $C$DW$T$12, DW_AT_encoding(DW_ATE_signed)
    2186                            .dwattr $C$DW$T$12, DW_AT_name("__int40_t")
    2187                            .dwattr $C$DW$T$12, DW_AT_byte_size(0x08)
    2188                            .dwattr $C$DW$T$12, DW_AT_bit_size(0x28)
    2189                            .dwattr $C$DW$T$12, DW_AT_bit_offset(0x18)
    2190                    $C$DW$T$133     .dwtag  DW_TAG_typedef, DW_AT_name("int40_t")
    2191                            .dwattr $C$DW$T$133, DW_AT_type(*$C$DW$T$12)
    2192                            .dwattr $C$DW$T$133, DW_AT_language(DW_LANG_C)
    2193                            .dwattr $C$DW$T$133, DW_AT_decl_file("C:/VLIB_Tools/CCSV5_4_0/ccsv5/tools/compiler/C6000/inclu
    2194                            .dwattr $C$DW$T$133, DW_AT_decl_line(0x31)
    2195                            .dwattr $C$DW$T$133, DW_AT_decl_column(0x21)
    2196                    $C$DW$T$134     .dwtag  DW_TAG_typedef, DW_AT_name("int_fast40_t")
    2197                            .dwattr $C$DW$T$134, DW_AT_type(*$C$DW$T$133)
    2198                            .dwattr $C$DW$T$134, DW_AT_language(DW_LANG_C)
    2199                            .dwattr $C$DW$T$134, DW_AT_decl_file("C:/VLIB_Tools/CCSV5_4_0/ccsv5/tools/compiler/C6000/inclu
    2200                            .dwattr $C$DW$T$134, DW_AT_decl_line(0x51)
    2201                            .dwattr $C$DW$T$134, DW_AT_decl_column(0x17)
    2202                    $C$DW$T$135     .dwtag  DW_TAG_typedef, DW_AT_name("int_least40_t")
TMS320C6x Assembler PC v7.4.2 Thu Mar 19 12:42:26 2015

Tools Copyright (c) 1996-2012 Texas Instruments Incorporated
package/lib/Regression/regress_d_c/./../packages/ti/vlib/src/VLIB_initVarWithConstS16/VLIB_initVarWithConstS16_d.se66 PAGE   46

    2203                            .dwattr $C$DW$T$135, DW_AT_type(*$C$DW$T$133)
    2204                            .dwattr $C$DW$T$135, DW_AT_language(DW_LANG_C)
    2205                            .dwattr $C$DW$T$135, DW_AT_decl_file("C:/VLIB_Tools/CCSV5_4_0/ccsv5/tools/compiler/C6000/inclu
    2206                            .dwattr $C$DW$T$135, DW_AT_decl_line(0x41)
    2207                            .dwattr $C$DW$T$135, DW_AT_decl_column(0x17)
    2208                    $C$DW$T$13      .dwtag  DW_TAG_base_type
    2209                            .dwattr $C$DW$T$13, DW_AT_encoding(DW_ATE_unsigned)
    2210                            .dwattr $C$DW$T$13, DW_AT_name("unsigned __int40_t")
    2211                            .dwattr $C$DW$T$13, DW_AT_byte_size(0x08)
    2212                            .dwattr $C$DW$T$13, DW_AT_bit_size(0x28)
    2213                            .dwattr $C$DW$T$13, DW_AT_bit_offset(0x18)
    2214                    $C$DW$T$136     .dwtag  DW_TAG_typedef, DW_AT_name("uint40_t")
    2215                            .dwattr $C$DW$T$136, DW_AT_type(*$C$DW$T$13)
    2216                            .dwattr $C$DW$T$136, DW_AT_language(DW_LANG_C)
    2217                            .dwattr $C$DW$T$136, DW_AT_decl_file("C:/VLIB_Tools/CCSV5_4_0/ccsv5/tools/compiler/C6000/inclu
    2218                            .dwattr $C$DW$T$136, DW_AT_decl_line(0x32)
    2219                            .dwattr $C$DW$T$136, DW_AT_decl_column(0x20)
    2220                    $C$DW$T$137     .dwtag  DW_TAG_typedef, DW_AT_name("uint_fast40_t")
    2221                            .dwattr $C$DW$T$137, DW_AT_type(*$C$DW$T$136)
    2222                            .dwattr $C$DW$T$137, DW_AT_language(DW_LANG_C)
    2223                            .dwattr $C$DW$T$137, DW_AT_decl_file("C:/VLIB_Tools/CCSV5_4_0/ccsv5/tools/compiler/C6000/inclu
    2224                            .dwattr $C$DW$T$137, DW_AT_decl_line(0x52)
    2225                            .dwattr $C$DW$T$137, DW_AT_decl_column(0x16)
    2226                    $C$DW$T$138     .dwtag  DW_TAG_typedef, DW_AT_name("uint_least40_t")
    2227                            .dwattr $C$DW$T$138, DW_AT_type(*$C$DW$T$136)
    2228                            .dwattr $C$DW$T$138, DW_AT_language(DW_LANG_C)
    2229                            .dwattr $C$DW$T$138, DW_AT_decl_file("C:/VLIB_Tools/CCSV5_4_0/ccsv5/tools/compiler/C6000/inclu
    2230                            .dwattr $C$DW$T$138, DW_AT_decl_line(0x42)
    2231                            .dwattr $C$DW$T$138, DW_AT_decl_column(0x16)
    2232                    $C$DW$T$14      .dwtag  DW_TAG_base_type
    2233                            .dwattr $C$DW$T$14, DW_AT_encoding(DW_ATE_signed)
    2234                            .dwattr $C$DW$T$14, DW_AT_name("long long")
    2235                            .dwattr $C$DW$T$14, DW_AT_byte_size(0x08)
    2236                    $C$DW$T$140     .dwtag  DW_TAG_typedef, DW_AT_name("int64_t")
    2237                            .dwattr $C$DW$T$140, DW_AT_type(*$C$DW$T$14)
    2238                            .dwattr $C$DW$T$140, DW_AT_language(DW_LANG_C)
    2239                            .dwattr $C$DW$T$140, DW_AT_decl_file("C:/VLIB_Tools/CCSV5_4_0/ccsv5/tools/compiler/C6000/inclu
    2240                            .dwattr $C$DW$T$140, DW_AT_decl_line(0x34)
    2241                            .dwattr $C$DW$T$140, DW_AT_decl_column(0x21)
    2242                    $C$DW$T$141     .dwtag  DW_TAG_typedef, DW_AT_name("int_fast64_t")
    2243                            .dwattr $C$DW$T$141, DW_AT_type(*$C$DW$T$140)
    2244                            .dwattr $C$DW$T$141, DW_AT_language(DW_LANG_C)
    2245                            .dwattr $C$DW$T$141, DW_AT_decl_file("C:/VLIB_Tools/CCSV5_4_0/ccsv5/tools/compiler/C6000/inclu
    2246                            .dwattr $C$DW$T$141, DW_AT_decl_line(0x54)
    2247                            .dwattr $C$DW$T$141, DW_AT_decl_column(0x17)
    2248                    $C$DW$T$142     .dwtag  DW_TAG_typedef, DW_AT_name("int_least64_t")
    2249                            .dwattr $C$DW$T$142, DW_AT_type(*$C$DW$T$140)
    2250                            .dwattr $C$DW$T$142, DW_AT_language(DW_LANG_C)
    2251                            .dwattr $C$DW$T$142, DW_AT_decl_file("C:/VLIB_Tools/CCSV5_4_0/ccsv5/tools/compiler/C6000/inclu
    2252                            .dwattr $C$DW$T$142, DW_AT_decl_line(0x44)
    2253                            .dwattr $C$DW$T$142, DW_AT_decl_column(0x17)
    2254                    $C$DW$T$143     .dwtag  DW_TAG_typedef, DW_AT_name("intmax_t")
    2255                            .dwattr $C$DW$T$143, DW_AT_type(*$C$DW$T$14)
    2256                            .dwattr $C$DW$T$143, DW_AT_language(DW_LANG_C)
    2257                            .dwattr $C$DW$T$143, DW_AT_decl_file("C:/VLIB_Tools/CCSV5_4_0/ccsv5/tools/compiler/C6000/inclu
TMS320C6x Assembler PC v7.4.2 Thu Mar 19 12:42:26 2015

Tools Copyright (c) 1996-2012 Texas Instruments Incorporated
package/lib/Regression/regress_d_c/./../packages/ti/vlib/src/VLIB_initVarWithConstS16/VLIB_initVarWithConstS16_d.se66 PAGE   47

    2258                            .dwattr $C$DW$T$143, DW_AT_decl_line(0x5c)
    2259                            .dwattr $C$DW$T$143, DW_AT_decl_column(0x20)
    2260                    $C$DW$T$15      .dwtag  DW_TAG_base_type
    2261                            .dwattr $C$DW$T$15, DW_AT_encoding(DW_ATE_unsigned)
    2262                            .dwattr $C$DW$T$15, DW_AT_name("unsigned long long")
    2263                            .dwattr $C$DW$T$15, DW_AT_byte_size(0x08)
    2264                    $C$DW$T$145     .dwtag  DW_TAG_pointer_type
    2265                            .dwattr $C$DW$T$145, DW_AT_type(*$C$DW$T$15)
    2266                            .dwattr $C$DW$T$145, DW_AT_address_class(0x20)
    2267                    $C$DW$T$146     .dwtag  DW_TAG_typedef, DW_AT_name("uint64_t")
    2268                            .dwattr $C$DW$T$146, DW_AT_type(*$C$DW$T$15)
    2269                            .dwattr $C$DW$T$146, DW_AT_language(DW_LANG_C)
    2270                            .dwattr $C$DW$T$146, DW_AT_decl_file("C:/VLIB_Tools/CCSV5_4_0/ccsv5/tools/compiler/C6000/inclu
    2271                            .dwattr $C$DW$T$146, DW_AT_decl_line(0x35)
    2272                            .dwattr $C$DW$T$146, DW_AT_decl_column(0x20)
    2273                    
    2274                    $C$DW$T$147     .dwtag  DW_TAG_array_type
    2275                            .dwattr $C$DW$T$147, DW_AT_type(*$C$DW$T$146)
    2276                            .dwattr $C$DW$T$147, DW_AT_language(DW_LANG_C)
    2277                            .dwattr $C$DW$T$147, DW_AT_byte_size(0x10)
    2278                    $C$DW$191       .dwtag  DW_TAG_subrange_type
    2279                            .dwattr $C$DW$191, DW_AT_upper_bound(0x01)
    2280                            .dwendtag $C$DW$T$147
    2281                    
    2282                    $C$DW$T$148     .dwtag  DW_TAG_typedef, DW_AT_name("uint_fast64_t")
    2283                            .dwattr $C$DW$T$148, DW_AT_type(*$C$DW$T$146)
    2284                            .dwattr $C$DW$T$148, DW_AT_language(DW_LANG_C)
    2285                            .dwattr $C$DW$T$148, DW_AT_decl_file("C:/VLIB_Tools/CCSV5_4_0/ccsv5/tools/compiler/C6000/inclu
    2286                            .dwattr $C$DW$T$148, DW_AT_decl_line(0x55)
    2287                            .dwattr $C$DW$T$148, DW_AT_decl_column(0x16)
    2288                    $C$DW$T$149     .dwtag  DW_TAG_typedef, DW_AT_name("uint_least64_t")
    2289                            .dwattr $C$DW$T$149, DW_AT_type(*$C$DW$T$146)
    2290                            .dwattr $C$DW$T$149, DW_AT_language(DW_LANG_C)
    2291                            .dwattr $C$DW$T$149, DW_AT_decl_file("C:/VLIB_Tools/CCSV5_4_0/ccsv5/tools/compiler/C6000/inclu
    2292                            .dwattr $C$DW$T$149, DW_AT_decl_line(0x45)
    2293                            .dwattr $C$DW$T$149, DW_AT_decl_column(0x16)
    2294                    $C$DW$T$150     .dwtag  DW_TAG_typedef, DW_AT_name("uintmax_t")
    2295                            .dwattr $C$DW$T$150, DW_AT_type(*$C$DW$T$15)
    2296                            .dwattr $C$DW$T$150, DW_AT_language(DW_LANG_C)
    2297                            .dwattr $C$DW$T$150, DW_AT_decl_file("C:/VLIB_Tools/CCSV5_4_0/ccsv5/tools/compiler/C6000/inclu
    2298                            .dwattr $C$DW$T$150, DW_AT_decl_line(0x5d)
    2299                            .dwattr $C$DW$T$150, DW_AT_decl_column(0x20)
    2300                    $C$DW$T$16      .dwtag  DW_TAG_base_type
    2301                            .dwattr $C$DW$T$16, DW_AT_encoding(DW_ATE_float)
    2302                            .dwattr $C$DW$T$16, DW_AT_name("float")
    2303                            .dwattr $C$DW$T$16, DW_AT_byte_size(0x04)
    2304                    $C$DW$T$151     .dwtag  DW_TAG_typedef, DW_AT_name("VLIB_F32")
    2305                            .dwattr $C$DW$T$151, DW_AT_type(*$C$DW$T$16)
    2306                            .dwattr $C$DW$T$151, DW_AT_language(DW_LANG_C)
    2307                            .dwattr $C$DW$T$151, DW_AT_decl_file(".\..\packages\ti\vlib\src\VLIB_initVarWithConstS16\..\co
    2308                            .dwattr $C$DW$T$151, DW_AT_decl_line(0x5b)
    2309                            .dwattr $C$DW$T$151, DW_AT_decl_column(0x0f)
    2310                    $C$DW$T$152     .dwtag  DW_TAG_typedef, DW_AT_name("float32_t")
    2311                            .dwattr $C$DW$T$152, DW_AT_type(*$C$DW$T$16)
    2312                            .dwattr $C$DW$T$152, DW_AT_language(DW_LANG_C)
TMS320C6x Assembler PC v7.4.2 Thu Mar 19 12:42:26 2015

Tools Copyright (c) 1996-2012 Texas Instruments Incorporated
package/lib/Regression/regress_d_c/./../packages/ti/vlib/src/VLIB_initVarWithConstS16/VLIB_initVarWithConstS16_d.se66 PAGE   48

    2313                            .dwattr $C$DW$T$152, DW_AT_decl_file("C:\VLIB_Tools\CCSV5_4_0\ccsv5\tools\compiler\C6000\inclu
    2314                            .dwattr $C$DW$T$152, DW_AT_decl_line(0x30)
    2315                            .dwattr $C$DW$T$152, DW_AT_decl_column(0x0f)
    2316                    $C$DW$T$17      .dwtag  DW_TAG_base_type
    2317                            .dwattr $C$DW$T$17, DW_AT_encoding(DW_ATE_float)
    2318                            .dwattr $C$DW$T$17, DW_AT_name("double")
    2319                            .dwattr $C$DW$T$17, DW_AT_byte_size(0x08)
    2320                    $C$DW$T$153     .dwtag  DW_TAG_typedef, DW_AT_name("VLIB_D64")
    2321                            .dwattr $C$DW$T$153, DW_AT_type(*$C$DW$T$17)
    2322                            .dwattr $C$DW$T$153, DW_AT_language(DW_LANG_C)
    2323                            .dwattr $C$DW$T$153, DW_AT_decl_file(".\..\packages\ti\vlib\src\VLIB_initVarWithConstS16\..\co
    2324                            .dwattr $C$DW$T$153, DW_AT_decl_line(0x5a)
    2325                            .dwattr $C$DW$T$153, DW_AT_decl_column(0x10)
    2326                    $C$DW$T$154     .dwtag  DW_TAG_typedef, DW_AT_name("__float2_t")
    2327                            .dwattr $C$DW$T$154, DW_AT_type(*$C$DW$T$17)
    2328                            .dwattr $C$DW$T$154, DW_AT_language(DW_LANG_C)
    2329                            .dwattr $C$DW$T$154, DW_AT_decl_file("C:/VLIB_Tools/CCSV5_4_0/ccsv5/tools/compiler/C6000/inclu
    2330                            .dwattr $C$DW$T$154, DW_AT_decl_line(0x5f)
    2331                            .dwattr $C$DW$T$154, DW_AT_decl_column(0x14)
    2332                    $C$DW$T$18      .dwtag  DW_TAG_base_type
    2333                            .dwattr $C$DW$T$18, DW_AT_encoding(DW_ATE_float)
    2334                            .dwattr $C$DW$T$18, DW_AT_name("long double")
    2335                            .dwattr $C$DW$T$18, DW_AT_byte_size(0x08)
    2336                    $C$DW$T$31      .dwtag  DW_TAG_base_type
    2337                            .dwattr $C$DW$T$31, DW_AT_encoding(DW_ATE_signed_char)
    2338                            .dwattr $C$DW$T$31, DW_AT_name("signed char")
    2339                            .dwattr $C$DW$T$31, DW_AT_byte_size(0x01)
    2340                    
    2341                    $C$DW$T$32      .dwtag  DW_TAG_array_type
    2342                            .dwattr $C$DW$T$32, DW_AT_type(*$C$DW$T$31)
    2343                            .dwattr $C$DW$T$32, DW_AT_language(DW_LANG_C)
    2344                            .dwattr $C$DW$T$32, DW_AT_byte_size(0x04)
    2345                    $C$DW$192       .dwtag  DW_TAG_subrange_type
    2346                            .dwattr $C$DW$192, DW_AT_upper_bound(0x03)
    2347                            .dwendtag $C$DW$T$32
    2348                    
    2349                    $C$DW$T$58      .dwtag  DW_TAG_pointer_type
    2350                            .dwattr $C$DW$T$58, DW_AT_type(*$C$DW$T$31)
    2351                            .dwattr $C$DW$T$58, DW_AT_address_class(0x20)
    2352                    $C$DW$T$155     .dwtag  DW_TAG_typedef, DW_AT_name("va_list")
    2353                            .dwattr $C$DW$T$155, DW_AT_type(*$C$DW$T$58)
    2354                            .dwattr $C$DW$T$155, DW_AT_language(DW_LANG_C)
    2355                            .dwattr $C$DW$T$155, DW_AT_decl_file("C:/VLIB_Tools/CCSV5_4_0/ccsv5/tools/compiler/C6000/inclu
    2356                            .dwattr $C$DW$T$155, DW_AT_decl_line(0x2f)
    2357                            .dwattr $C$DW$T$155, DW_AT_decl_column(0x12)
    2358                    $C$DW$T$98      .dwtag  DW_TAG_const_type
    2359                            .dwattr $C$DW$T$98, DW_AT_type(*$C$DW$T$31)
    2360                    $C$DW$T$99      .dwtag  DW_TAG_pointer_type
    2361                            .dwattr $C$DW$T$99, DW_AT_type(*$C$DW$T$98)
    2362                            .dwattr $C$DW$T$99, DW_AT_address_class(0x20)
    2363                    
    2364                    $C$DW$T$156     .dwtag  DW_TAG_array_type
    2365                            .dwattr $C$DW$T$156, DW_AT_type(*$C$DW$T$31)
    2366                            .dwattr $C$DW$T$156, DW_AT_language(DW_LANG_C)
    2367                    $C$DW$193       .dwtag  DW_TAG_subrange_type
TMS320C6x Assembler PC v7.4.2 Thu Mar 19 12:42:26 2015

Tools Copyright (c) 1996-2012 Texas Instruments Incorporated
package/lib/Regression/regress_d_c/./../packages/ti/vlib/src/VLIB_initVarWithConstS16/VLIB_initVarWithConstS16_d.se66 PAGE   49

    2368                            .dwendtag $C$DW$T$156
    2369                    
    2370                    
    2371                    $C$DW$T$35      .dwtag  DW_TAG_structure_type
    2372                            .dwattr $C$DW$T$35, DW_AT_name("__simd128_int32_t")
    2373                            .dwattr $C$DW$T$35, DW_AT_byte_size(0x10)
    2374                    $C$DW$194       .dwtag  DW_TAG_member
    2375                            .dwattr $C$DW$194, DW_AT_type(*$C$DW$T$34)
    2376                            .dwattr $C$DW$194, DW_AT_name("_v")
    2377                            .dwattr $C$DW$194, DW_AT_TI_symbol_name("_v")
    2378                            .dwattr $C$DW$194, DW_AT_data_member_location[DW_OP_plus_uconst 0x0]
    2379                            .dwattr $C$DW$194, DW_AT_accessibility(DW_ACCESS_public)
    2380                            .dwattr $C$DW$194, DW_AT_decl_file("C:\VLIB_Tools\CCSV5_4_0\ccsv5\tools\compiler\C6000\include
    2381                            .dwattr $C$DW$194, DW_AT_decl_line(0x44)
    2382                            .dwattr $C$DW$194, DW_AT_decl_column(0x01)
    2383                            .dwendtag $C$DW$T$35
    2384                    
    2385                            .dwattr $C$DW$T$35, DW_AT_decl_file("C:\VLIB_Tools\CCSV5_4_0\ccsv5\tools\compiler\C6000\includ
    2386                            .dwattr $C$DW$T$35, DW_AT_decl_line(0x44)
    2387                            .dwattr $C$DW$T$35, DW_AT_decl_column(0x01)
    2388                    $C$DW$T$157     .dwtag  DW_TAG_typedef, DW_AT_name("int32x4_t")
    2389                            .dwattr $C$DW$T$157, DW_AT_type(*$C$DW$T$35)
    2390                            .dwattr $C$DW$T$157, DW_AT_language(DW_LANG_C)
    2391                            .dwattr $C$DW$T$157, DW_AT_decl_file("C:\VLIB_Tools\CCSV5_4_0\ccsv5\tools\compiler\C6000\inclu
    2392                            .dwattr $C$DW$T$157, DW_AT_decl_line(0x44)
    2393                            .dwattr $C$DW$T$157, DW_AT_decl_column(0x01)
    2394                    $C$DW$T$158     .dwtag  DW_TAG_typedef, DW_AT_name("__x128_t")
    2395                            .dwattr $C$DW$T$158, DW_AT_type(*$C$DW$T$157)
    2396                            .dwattr $C$DW$T$158, DW_AT_language(DW_LANG_C)
    2397                            .dwattr $C$DW$T$158, DW_AT_decl_file("C:\VLIB_Tools\CCSV5_4_0\ccsv5\tools\compiler\C6000\inclu
    2398                            .dwattr $C$DW$T$158, DW_AT_decl_line(0x46)
    2399                            .dwattr $C$DW$T$158, DW_AT_decl_column(0x13)
    2400                    
    2401                    $C$DW$T$36      .dwtag  DW_TAG_structure_type
    2402                            .dwattr $C$DW$T$36, DW_AT_name("tm")
    2403                            .dwattr $C$DW$T$36, DW_AT_byte_size(0x24)
    2404                    $C$DW$195       .dwtag  DW_TAG_member
    2405                            .dwattr $C$DW$195, DW_AT_type(*$C$DW$T$10)
    2406                            .dwattr $C$DW$195, DW_AT_name("tm_sec")
    2407                            .dwattr $C$DW$195, DW_AT_TI_symbol_name("tm_sec")
    2408                            .dwattr $C$DW$195, DW_AT_data_member_location[DW_OP_plus_uconst 0x0]
    2409                            .dwattr $C$DW$195, DW_AT_accessibility(DW_ACCESS_public)
    2410                            .dwattr $C$DW$195, DW_AT_decl_file("C:/VLIB_Tools/CCSV5_4_0/ccsv5/tools/compiler/C6000/include
    2411                            .dwattr $C$DW$195, DW_AT_decl_line(0x41)
    2412                            .dwattr $C$DW$195, DW_AT_decl_column(0x09)
    2413                    $C$DW$196       .dwtag  DW_TAG_member
    2414                            .dwattr $C$DW$196, DW_AT_type(*$C$DW$T$10)
    2415                            .dwattr $C$DW$196, DW_AT_name("tm_min")
    2416                            .dwattr $C$DW$196, DW_AT_TI_symbol_name("tm_min")
    2417                            .dwattr $C$DW$196, DW_AT_data_member_location[DW_OP_plus_uconst 0x4]
    2418                            .dwattr $C$DW$196, DW_AT_accessibility(DW_ACCESS_public)
    2419                            .dwattr $C$DW$196, DW_AT_decl_file("C:/VLIB_Tools/CCSV5_4_0/ccsv5/tools/compiler/C6000/include
    2420                            .dwattr $C$DW$196, DW_AT_decl_line(0x42)
    2421                            .dwattr $C$DW$196, DW_AT_decl_column(0x09)
    2422                    $C$DW$197       .dwtag  DW_TAG_member
TMS320C6x Assembler PC v7.4.2 Thu Mar 19 12:42:26 2015

Tools Copyright (c) 1996-2012 Texas Instruments Incorporated
package/lib/Regression/regress_d_c/./../packages/ti/vlib/src/VLIB_initVarWithConstS16/VLIB_initVarWithConstS16_d.se66 PAGE   50

    2423                            .dwattr $C$DW$197, DW_AT_type(*$C$DW$T$10)
    2424                            .dwattr $C$DW$197, DW_AT_name("tm_hour")
    2425                            .dwattr $C$DW$197, DW_AT_TI_symbol_name("tm_hour")
    2426                            .dwattr $C$DW$197, DW_AT_data_member_location[DW_OP_plus_uconst 0x8]
    2427                            .dwattr $C$DW$197, DW_AT_accessibility(DW_ACCESS_public)
    2428                            .dwattr $C$DW$197, DW_AT_decl_file("C:/VLIB_Tools/CCSV5_4_0/ccsv5/tools/compiler/C6000/include
    2429                            .dwattr $C$DW$197, DW_AT_decl_line(0x43)
    2430                            .dwattr $C$DW$197, DW_AT_decl_column(0x09)
    2431                    $C$DW$198       .dwtag  DW_TAG_member
    2432                            .dwattr $C$DW$198, DW_AT_type(*$C$DW$T$10)
    2433                            .dwattr $C$DW$198, DW_AT_name("tm_mday")
    2434                            .dwattr $C$DW$198, DW_AT_TI_symbol_name("tm_mday")
    2435                            .dwattr $C$DW$198, DW_AT_data_member_location[DW_OP_plus_uconst 0xc]
    2436                            .dwattr $C$DW$198, DW_AT_accessibility(DW_ACCESS_public)
    2437                            .dwattr $C$DW$198, DW_AT_decl_file("C:/VLIB_Tools/CCSV5_4_0/ccsv5/tools/compiler/C6000/include
    2438                            .dwattr $C$DW$198, DW_AT_decl_line(0x44)
    2439                            .dwattr $C$DW$198, DW_AT_decl_column(0x09)
    2440                    $C$DW$199       .dwtag  DW_TAG_member
    2441                            .dwattr $C$DW$199, DW_AT_type(*$C$DW$T$10)
    2442                            .dwattr $C$DW$199, DW_AT_name("tm_mon")
    2443                            .dwattr $C$DW$199, DW_AT_TI_symbol_name("tm_mon")
    2444                            .dwattr $C$DW$199, DW_AT_data_member_location[DW_OP_plus_uconst 0x10]
    2445                            .dwattr $C$DW$199, DW_AT_accessibility(DW_ACCESS_public)
    2446                            .dwattr $C$DW$199, DW_AT_decl_file("C:/VLIB_Tools/CCSV5_4_0/ccsv5/tools/compiler/C6000/include
    2447                            .dwattr $C$DW$199, DW_AT_decl_line(0x45)
    2448                            .dwattr $C$DW$199, DW_AT_decl_column(0x09)
    2449                    $C$DW$200       .dwtag  DW_TAG_member
    2450                            .dwattr $C$DW$200, DW_AT_type(*$C$DW$T$10)
    2451                            .dwattr $C$DW$200, DW_AT_name("tm_year")
    2452                            .dwattr $C$DW$200, DW_AT_TI_symbol_name("tm_year")
    2453                            .dwattr $C$DW$200, DW_AT_data_member_location[DW_OP_plus_uconst 0x14]
    2454                            .dwattr $C$DW$200, DW_AT_accessibility(DW_ACCESS_public)
    2455                            .dwattr $C$DW$200, DW_AT_decl_file("C:/VLIB_Tools/CCSV5_4_0/ccsv5/tools/compiler/C6000/include
    2456                            .dwattr $C$DW$200, DW_AT_decl_line(0x46)
    2457                            .dwattr $C$DW$200, DW_AT_decl_column(0x09)
    2458                    $C$DW$201       .dwtag  DW_TAG_member
    2459                            .dwattr $C$DW$201, DW_AT_type(*$C$DW$T$10)
    2460                            .dwattr $C$DW$201, DW_AT_name("tm_wday")
    2461                            .dwattr $C$DW$201, DW_AT_TI_symbol_name("tm_wday")
    2462                            .dwattr $C$DW$201, DW_AT_data_member_location[DW_OP_plus_uconst 0x18]
    2463                            .dwattr $C$DW$201, DW_AT_accessibility(DW_ACCESS_public)
    2464                            .dwattr $C$DW$201, DW_AT_decl_file("C:/VLIB_Tools/CCSV5_4_0/ccsv5/tools/compiler/C6000/include
    2465                            .dwattr $C$DW$201, DW_AT_decl_line(0x47)
    2466                            .dwattr $C$DW$201, DW_AT_decl_column(0x09)
    2467                    $C$DW$202       .dwtag  DW_TAG_member
    2468                            .dwattr $C$DW$202, DW_AT_type(*$C$DW$T$10)
    2469                            .dwattr $C$DW$202, DW_AT_name("tm_yday")
    2470                            .dwattr $C$DW$202, DW_AT_TI_symbol_name("tm_yday")
    2471                            .dwattr $C$DW$202, DW_AT_data_member_location[DW_OP_plus_uconst 0x1c]
    2472                            .dwattr $C$DW$202, DW_AT_accessibility(DW_ACCESS_public)
    2473                            .dwattr $C$DW$202, DW_AT_decl_file("C:/VLIB_Tools/CCSV5_4_0/ccsv5/tools/compiler/C6000/include
    2474                            .dwattr $C$DW$202, DW_AT_decl_line(0x48)
    2475                            .dwattr $C$DW$202, DW_AT_decl_column(0x09)
    2476                    $C$DW$203       .dwtag  DW_TAG_member
    2477                            .dwattr $C$DW$203, DW_AT_type(*$C$DW$T$10)
TMS320C6x Assembler PC v7.4.2 Thu Mar 19 12:42:26 2015

Tools Copyright (c) 1996-2012 Texas Instruments Incorporated
package/lib/Regression/regress_d_c/./../packages/ti/vlib/src/VLIB_initVarWithConstS16/VLIB_initVarWithConstS16_d.se66 PAGE   51

    2478                            .dwattr $C$DW$203, DW_AT_name("tm_isdst")
    2479                            .dwattr $C$DW$203, DW_AT_TI_symbol_name("tm_isdst")
    2480                            .dwattr $C$DW$203, DW_AT_data_member_location[DW_OP_plus_uconst 0x20]
    2481                            .dwattr $C$DW$203, DW_AT_accessibility(DW_ACCESS_public)
    2482                            .dwattr $C$DW$203, DW_AT_decl_file("C:/VLIB_Tools/CCSV5_4_0/ccsv5/tools/compiler/C6000/include
    2483                            .dwattr $C$DW$203, DW_AT_decl_line(0x49)
    2484                            .dwattr $C$DW$203, DW_AT_decl_column(0x09)
    2485                            .dwendtag $C$DW$T$36
    2486                    
    2487                            .dwattr $C$DW$T$36, DW_AT_decl_file("C:/VLIB_Tools/CCSV5_4_0/ccsv5/tools/compiler/C6000/includ
    2488                            .dwattr $C$DW$T$36, DW_AT_decl_line(0x3f)
    2489                            .dwattr $C$DW$T$36, DW_AT_decl_column(0x08)
    2490                            .dwattr $C$DW$CU, DW_AT_language(DW_LANG_C)
    2491                    
    2492                    ;***************************************************************
    2493                    ;* DWARF CIE ENTRIES                                           *
    2494                    ;***************************************************************
    2495                    
    2496                    $C$DW$CIE       .dwcie 19
    2497                            .dwcfi  cfa_register, 31
    2498                            .dwcfi  cfa_offset, 0
    2499                            .dwcfi  undefined, 0
    2500                            .dwcfi  undefined, 1
    2501                            .dwcfi  undefined, 2
    2502                            .dwcfi  undefined, 3
    2503                            .dwcfi  undefined, 4
    2504                            .dwcfi  undefined, 5
    2505                            .dwcfi  undefined, 6
    2506                            .dwcfi  undefined, 7
    2507                            .dwcfi  undefined, 8
    2508                            .dwcfi  undefined, 9
    2509                            .dwcfi  same_value, 10
    2510                            .dwcfi  same_value, 11
    2511                            .dwcfi  same_value, 12
    2512                            .dwcfi  same_value, 13
    2513                            .dwcfi  same_value, 14
    2514                            .dwcfi  same_value, 15
    2515                            .dwcfi  undefined, 16
    2516                            .dwcfi  undefined, 17
    2517                            .dwcfi  undefined, 18
    2518                            .dwcfi  undefined, 19
    2519                            .dwcfi  undefined, 20
    2520                            .dwcfi  undefined, 21
    2521                            .dwcfi  undefined, 22
    2522                            .dwcfi  undefined, 23
    2523                            .dwcfi  undefined, 24
    2524                            .dwcfi  undefined, 25
    2525                            .dwcfi  same_value, 26
    2526                            .dwcfi  same_value, 27
    2527                            .dwcfi  same_value, 28
    2528                            .dwcfi  same_value, 29
    2529                            .dwcfi  same_value, 30
    2530                            .dwcfi  same_value, 31
    2531                            .dwcfi  same_value, 32
    2532                            .dwcfi  undefined, 33
TMS320C6x Assembler PC v7.4.2 Thu Mar 19 12:42:26 2015

Tools Copyright (c) 1996-2012 Texas Instruments Incorporated
package/lib/Regression/regress_d_c/./../packages/ti/vlib/src/VLIB_initVarWithConstS16/VLIB_initVarWithConstS16_d.se66 PAGE   52

    2533                            .dwcfi  undefined, 34
    2534                            .dwcfi  undefined, 35
    2535                            .dwcfi  undefined, 36
    2536                            .dwcfi  undefined, 37
    2537                            .dwcfi  undefined, 38
    2538                            .dwcfi  undefined, 39
    2539                            .dwcfi  undefined, 40
    2540                            .dwcfi  undefined, 41
    2541                            .dwcfi  undefined, 42
    2542                            .dwcfi  undefined, 43
    2543                            .dwcfi  undefined, 44
    2544                            .dwcfi  undefined, 45
    2545                            .dwcfi  undefined, 46
    2546                            .dwcfi  undefined, 47
    2547                            .dwcfi  undefined, 48
    2548                            .dwcfi  undefined, 49
    2549                            .dwcfi  undefined, 50
    2550                            .dwcfi  undefined, 51
    2551                            .dwcfi  undefined, 52
    2552                            .dwcfi  undefined, 53
    2553                            .dwcfi  undefined, 54
    2554                            .dwcfi  undefined, 55
    2555                            .dwcfi  undefined, 56
    2556                            .dwcfi  undefined, 57
    2557                            .dwcfi  undefined, 58
    2558                            .dwcfi  undefined, 59
    2559                            .dwcfi  undefined, 60
    2560                            .dwcfi  undefined, 61
    2561                            .dwcfi  undefined, 62
    2562                            .dwcfi  undefined, 63
    2563                            .dwcfi  undefined, 64
    2564                            .dwcfi  undefined, 65
    2565                            .dwcfi  undefined, 66
    2566                            .dwcfi  undefined, 67
    2567                            .dwcfi  undefined, 68
    2568                            .dwcfi  undefined, 69
    2569                            .dwcfi  undefined, 70
    2570                            .dwcfi  undefined, 71
    2571                            .dwcfi  undefined, 72
    2572                            .dwcfi  undefined, 73
    2573                            .dwcfi  undefined, 74
    2574                            .dwcfi  undefined, 75
    2575                            .dwcfi  undefined, 76
    2576                            .dwcfi  undefined, 77
    2577                            .dwcfi  undefined, 78
    2578                            .dwcfi  undefined, 79
    2579                            .dwcfi  undefined, 80
    2580                            .dwcfi  undefined, 81
    2581                            .dwcfi  undefined, 82
    2582                            .dwcfi  undefined, 83
    2583                            .dwcfi  undefined, 84
    2584                            .dwcfi  undefined, 85
    2585                            .dwcfi  undefined, 86
    2586                            .dwcfi  undefined, 87
    2587                            .dwcfi  undefined, 88
TMS320C6x Assembler PC v7.4.2 Thu Mar 19 12:42:26 2015

Tools Copyright (c) 1996-2012 Texas Instruments Incorporated
package/lib/Regression/regress_d_c/./../packages/ti/vlib/src/VLIB_initVarWithConstS16/VLIB_initVarWithConstS16_d.se66 PAGE   53

    2588                            .dwcfi  undefined, 89
    2589                            .dwcfi  undefined, 90
    2590                            .dwcfi  undefined, 91
    2591                            .dwcfi  undefined, 92
    2592                            .dwcfi  undefined, 93
    2593                            .dwcfi  undefined, 94
    2594                            .dwcfi  undefined, 95
    2595                            .dwcfi  undefined, 96
    2596                            .dwcfi  undefined, 97
    2597                            .dwcfi  undefined, 98
    2598                            .dwcfi  undefined, 99
    2599                            .dwcfi  undefined, 100
    2600                            .dwcfi  undefined, 101
    2601                            .dwcfi  undefined, 102
    2602                            .dwcfi  undefined, 103
    2603                            .dwcfi  undefined, 104
    2604                            .dwcfi  undefined, 105
    2605                            .dwcfi  undefined, 106
    2606                            .dwcfi  undefined, 107
    2607                            .dwcfi  undefined, 108
    2608                            .dwcfi  undefined, 109
    2609                            .dwcfi  undefined, 110
    2610                            .dwcfi  undefined, 111
    2611                            .dwcfi  undefined, 112
    2612                            .dwcfi  undefined, 113
    2613                            .dwcfi  undefined, 114
    2614                            .dwcfi  undefined, 115
    2615                            .dwcfi  undefined, 116
    2616                            .dwcfi  undefined, 117
    2617                            .dwcfi  undefined, 118
    2618                            .dwcfi  undefined, 119
    2619                            .dwcfi  undefined, 120
    2620                            .dwcfi  undefined, 121
    2621                            .dwcfi  undefined, 122
    2622                            .dwcfi  undefined, 123
    2623                            .dwcfi  undefined, 124
    2624                            .dwcfi  undefined, 125
    2625                            .dwcfi  undefined, 126
    2626                            .dwcfi  undefined, 127
    2627                            .dwendentry
    2628                            .dwendtag $C$DW$CU
    2629                    

No Assembly Errors, No Assembly Warnings
