TMS320C6x Assembler PC v7.4.2 Thu Mar 19 12:41:29 2015

Tools Copyright (c) 1996-2012 Texas Instruments Incorporated
package/lib/Regression/regress_d_c/./../packages/ti/vlib/src/VLIB_grayscale_morphology/VLIB_grayscale_morphology_d.se66 PAGE    1

       1                    ;******************************************************************************
       2                    ;* TMS320C6x C/C++ Codegen                                          PC v7.4.2 *
       3                    ;* Date/Time created: Thu Mar 19 12:41:28 2015                                *
       4                    ;******************************************************************************
       5                            .compiler_opts --abi=eabi --c64p_l1d_workaround=off --endian=little --hll_source=on --long_pre
       6                    
       7                    ;******************************************************************************
       8                    ;* GLOBAL FILE PARAMETERS                                                     *
       9                    ;*                                                                            *
      10                    ;*   Architecture      : TMS320C66xx                                          *
      11                    ;*   Optimization      : Enabled at level 3                                   *
      12                    ;*   Optimizing for    : Speed                                                *
      13                    ;*                       Based on options: -o3, no -ms                        *
      14                    ;*   Endian            : Little                                               *
      15                    ;*   Interrupt Thrshld : 10000                                                *
      16                    ;*   Data Access Model : Far                                                  *
      17                    ;*   Pipelining        : Enabled                                              *
      18                    ;*   Speculate Loads   : Enabled with threshold = 0                           *
      19                    ;*   Memory Aliases    : Presume are aliases (pessimistic)                    *
      20                    ;*   Debug Info        : DWARF Debug w/Optimization                           *
      21                    ;*                                                                            *
      22                    ;******************************************************************************
      23                    
      24                            .asg    A15, FP
      25                            .asg    B14, DP
      26                            .asg    B15, SP
      27                            .global $bss
      28                    
      29                    
      30                    $C$DW$CU        .dwtag  DW_TAG_compile_unit
      31                            .dwattr $C$DW$CU, DW_AT_name("./../packages/ti/vlib/src/VLIB_grayscale_morphology/VLIB_graysca
      32                            .dwattr $C$DW$CU, DW_AT_producer("TI TMS320C6x C/C++ Codegen PC v7.4.2 Copyright (c) 1996-2012
      33                            .dwattr $C$DW$CU, DW_AT_TI_version(0x01)
      34                            .dwattr $C$DW$CU, DW_AT_comp_dir("c:\nightlybuilds\vlib\ti\vlib\vlib\examples")
      35                    
      36                    $C$DW$1 .dwtag  DW_TAG_subprogram, DW_AT_name("_itoll")
      37                            .dwattr $C$DW$1, DW_AT_TI_symbol_name("_itoll")
      38                            .dwattr $C$DW$1, DW_AT_type(*$C$DW$T$14)
      39                            .dwattr $C$DW$1, DW_AT_declaration
      40                            .dwattr $C$DW$1, DW_AT_external
      41                            .dwattr $C$DW$1, DW_AT_decl_file("C:/VLIB_Tools/CCSV5_4_0/ccsv5/tools/compiler/C6000/include/c
      42                            .dwattr $C$DW$1, DW_AT_decl_line(0xdf)
      43                            .dwattr $C$DW$1, DW_AT_decl_column(0x0b)
      44                    $C$DW$2 .dwtag  DW_TAG_formal_parameter
      45                            .dwattr $C$DW$2, DW_AT_type(*$C$DW$T$11)
      46                    $C$DW$3 .dwtag  DW_TAG_formal_parameter
      47                            .dwattr $C$DW$3, DW_AT_type(*$C$DW$T$11)
      48                            .dwendtag $C$DW$1
      49                    
      50                    
      51                    $C$DW$4 .dwtag  DW_TAG_subprogram, DW_AT_name("printf")
      52                            .dwattr $C$DW$4, DW_AT_TI_symbol_name("printf")
      53                            .dwattr $C$DW$4, DW_AT_type(*$C$DW$T$10)
      54                            .dwattr $C$DW$4, DW_AT_declaration
      55                            .dwattr $C$DW$4, DW_AT_external
TMS320C6x Assembler PC v7.4.2 Thu Mar 19 12:41:29 2015

Tools Copyright (c) 1996-2012 Texas Instruments Incorporated
package/lib/Regression/regress_d_c/./../packages/ti/vlib/src/VLIB_grayscale_morphology/VLIB_grayscale_morphology_d.se66 PAGE    2

      56                            .dwattr $C$DW$4, DW_AT_decl_file("C:/VLIB_Tools/CCSV5_4_0/ccsv5/tools/compiler/C6000/include/s
      57                            .dwattr $C$DW$4, DW_AT_decl_line(0xb8)
      58                            .dwattr $C$DW$4, DW_AT_decl_column(0x19)
      59                    $C$DW$5 .dwtag  DW_TAG_formal_parameter
      60                            .dwattr $C$DW$5, DW_AT_type(*$C$DW$T$119)
      61                    $C$DW$6 .dwtag  DW_TAG_unspecified_parameters
      62                            .dwendtag $C$DW$4
      63                    
      64                    
      65                    $C$DW$7 .dwtag  DW_TAG_subprogram, DW_AT_name("sprintf")
      66                            .dwattr $C$DW$7, DW_AT_TI_symbol_name("sprintf")
      67                            .dwattr $C$DW$7, DW_AT_type(*$C$DW$T$10)
      68                            .dwattr $C$DW$7, DW_AT_declaration
      69                            .dwattr $C$DW$7, DW_AT_external
      70                            .dwattr $C$DW$7, DW_AT_decl_file("C:/VLIB_Tools/CCSV5_4_0/ccsv5/tools/compiler/C6000/include/s
      71                            .dwattr $C$DW$7, DW_AT_decl_line(0xbc)
      72                            .dwattr $C$DW$7, DW_AT_decl_column(0x19)
      73                    $C$DW$8 .dwtag  DW_TAG_formal_parameter
      74                            .dwattr $C$DW$8, DW_AT_type(*$C$DW$T$23)
      75                    $C$DW$9 .dwtag  DW_TAG_formal_parameter
      76                            .dwattr $C$DW$9, DW_AT_type(*$C$DW$T$119)
      77                    $C$DW$10        .dwtag  DW_TAG_unspecified_parameters
      78                            .dwendtag $C$DW$7
      79                    
      80                    
      81                    $C$DW$11        .dwtag  DW_TAG_subprogram, DW_AT_name("memset")
      82                            .dwattr $C$DW$11, DW_AT_TI_symbol_name("memset")
      83                            .dwattr $C$DW$11, DW_AT_type(*$C$DW$T$3)
      84                            .dwattr $C$DW$11, DW_AT_declaration
      85                            .dwattr $C$DW$11, DW_AT_external
      86                            .dwattr $C$DW$11, DW_AT_decl_file("C:/VLIB_Tools/CCSV5_4_0/ccsv5/tools/compiler/C6000/include/
      87                            .dwattr $C$DW$11, DW_AT_decl_line(0x5b)
      88                            .dwattr $C$DW$11, DW_AT_decl_column(0x16)
      89                    $C$DW$12        .dwtag  DW_TAG_formal_parameter
      90                            .dwattr $C$DW$12, DW_AT_type(*$C$DW$T$3)
      91                    $C$DW$13        .dwtag  DW_TAG_formal_parameter
      92                            .dwattr $C$DW$13, DW_AT_type(*$C$DW$T$10)
      93                    $C$DW$14        .dwtag  DW_TAG_formal_parameter
      94                            .dwattr $C$DW$14, DW_AT_type(*$C$DW$T$55)
      95                            .dwendtag $C$DW$11
      96                    
      97                    
      98                    $C$DW$15        .dwtag  DW_TAG_subprogram, DW_AT_name("free")
      99                            .dwattr $C$DW$15, DW_AT_TI_symbol_name("free")
     100                            .dwattr $C$DW$15, DW_AT_declaration
     101                            .dwattr $C$DW$15, DW_AT_external
     102                            .dwattr $C$DW$15, DW_AT_decl_file("C:/VLIB_Tools/CCSV5_4_0/ccsv5/tools/compiler/C6000/include/
     103                            .dwattr $C$DW$15, DW_AT_decl_line(0x86)
     104                            .dwattr $C$DW$15, DW_AT_decl_column(0x19)
     105                    $C$DW$16        .dwtag  DW_TAG_formal_parameter
     106                            .dwattr $C$DW$16, DW_AT_type(*$C$DW$T$3)
     107                            .dwendtag $C$DW$15
     108                    
     109                    
     110                    $C$DW$17        .dwtag  DW_TAG_subprogram, DW_AT_name("memalign")
TMS320C6x Assembler PC v7.4.2 Thu Mar 19 12:41:29 2015

Tools Copyright (c) 1996-2012 Texas Instruments Incorporated
package/lib/Regression/regress_d_c/./../packages/ti/vlib/src/VLIB_grayscale_morphology/VLIB_grayscale_morphology_d.se66 PAGE    3

     111                            .dwattr $C$DW$17, DW_AT_TI_symbol_name("memalign")
     112                            .dwattr $C$DW$17, DW_AT_type(*$C$DW$T$3)
     113                            .dwattr $C$DW$17, DW_AT_declaration
     114                            .dwattr $C$DW$17, DW_AT_external
     115                            .dwattr $C$DW$17, DW_AT_decl_file("C:/VLIB_Tools/CCSV5_4_0/ccsv5/tools/compiler/C6000/include/
     116                            .dwattr $C$DW$17, DW_AT_decl_line(0x87)
     117                            .dwattr $C$DW$17, DW_AT_decl_column(0x19)
     118                    $C$DW$18        .dwtag  DW_TAG_formal_parameter
     119                            .dwattr $C$DW$18, DW_AT_type(*$C$DW$T$55)
     120                    $C$DW$19        .dwtag  DW_TAG_formal_parameter
     121                            .dwattr $C$DW$19, DW_AT_type(*$C$DW$T$55)
     122                            .dwendtag $C$DW$17
     123                    
     124                    
     125                    $C$DW$20        .dwtag  DW_TAG_subprogram, DW_AT_name("VLIB_cache_inval")
     126                            .dwattr $C$DW$20, DW_AT_TI_symbol_name("VLIB_cache_inval")
     127                            .dwattr $C$DW$20, DW_AT_type(*$C$DW$T$10)
     128                            .dwattr $C$DW$20, DW_AT_declaration
     129                            .dwattr $C$DW$20, DW_AT_external
     130                            .dwattr $C$DW$20, DW_AT_decl_file(".\..\packages\ti\vlib\src\VLIB_grayscale_morphology\..\comm
     131                            .dwattr $C$DW$20, DW_AT_decl_line(0x58)
     132                            .dwattr $C$DW$20, DW_AT_decl_column(0x05)
     133                    
     134                    $C$DW$21        .dwtag  DW_TAG_subprogram, DW_AT_name("VLIB_profile_init")
     135                            .dwattr $C$DW$21, DW_AT_TI_symbol_name("VLIB_profile_init")
     136                            .dwattr $C$DW$21, DW_AT_declaration
     137                            .dwattr $C$DW$21, DW_AT_external
     138                            .dwattr $C$DW$21, DW_AT_decl_file(".\..\packages\ti\vlib\src\VLIB_grayscale_morphology\..\comm
     139                            .dwattr $C$DW$21, DW_AT_decl_line(0x7b)
     140                            .dwattr $C$DW$21, DW_AT_decl_column(0x06)
     141                    $C$DW$22        .dwtag  DW_TAG_formal_parameter
     142                            .dwattr $C$DW$22, DW_AT_type(*$C$DW$T$10)
     143                    $C$DW$23        .dwtag  DW_TAG_formal_parameter
     144                            .dwattr $C$DW$23, DW_AT_type(*$C$DW$T$23)
     145                            .dwendtag $C$DW$21
     146                    
     147                    
     148                    $C$DW$24        .dwtag  DW_TAG_subprogram, DW_AT_name("VLIB_formula_add_test")
     149                            .dwattr $C$DW$24, DW_AT_TI_symbol_name("VLIB_formula_add_test")
     150                            .dwattr $C$DW$24, DW_AT_declaration
     151                            .dwattr $C$DW$24, DW_AT_external
     152                            .dwattr $C$DW$24, DW_AT_decl_file(".\..\packages\ti\vlib\src\VLIB_grayscale_morphology\..\comm
     153                            .dwattr $C$DW$24, DW_AT_decl_line(0x7d)
     154                            .dwattr $C$DW$24, DW_AT_decl_column(0x06)
     155                    $C$DW$25        .dwtag  DW_TAG_formal_parameter
     156                            .dwattr $C$DW$25, DW_AT_type(*$C$DW$T$10)
     157                    $C$DW$26        .dwtag  DW_TAG_formal_parameter
     158                            .dwattr $C$DW$26, DW_AT_type(*$C$DW$T$10)
     159                    $C$DW$27        .dwtag  DW_TAG_formal_parameter
     160                            .dwattr $C$DW$27, DW_AT_type(*$C$DW$T$10)
     161                    $C$DW$28        .dwtag  DW_TAG_formal_parameter
     162                            .dwattr $C$DW$28, DW_AT_type(*$C$DW$T$10)
     163                    $C$DW$29        .dwtag  DW_TAG_formal_parameter
     164                            .dwattr $C$DW$29, DW_AT_type(*$C$DW$T$23)
     165                    $C$DW$30        .dwtag  DW_TAG_formal_parameter
TMS320C6x Assembler PC v7.4.2 Thu Mar 19 12:41:29 2015

Tools Copyright (c) 1996-2012 Texas Instruments Incorporated
package/lib/Regression/regress_d_c/./../packages/ti/vlib/src/VLIB_grayscale_morphology/VLIB_grayscale_morphology_d.se66 PAGE    4

     166                            .dwattr $C$DW$30, DW_AT_type(*$C$DW$T$10)
     167                            .dwendtag $C$DW$24
     168                    
     169                    
     170                    $C$DW$31        .dwtag  DW_TAG_subprogram, DW_AT_name("VLIB_skip_test")
     171                            .dwattr $C$DW$31, DW_AT_TI_symbol_name("VLIB_skip_test")
     172                            .dwattr $C$DW$31, DW_AT_declaration
     173                            .dwattr $C$DW$31, DW_AT_external
     174                            .dwattr $C$DW$31, DW_AT_decl_file(".\..\packages\ti\vlib\src\VLIB_grayscale_morphology\..\comm
     175                            .dwattr $C$DW$31, DW_AT_decl_line(0x7e)
     176                            .dwattr $C$DW$31, DW_AT_decl_column(0x06)
     177                    $C$DW$32        .dwtag  DW_TAG_formal_parameter
     178                            .dwattr $C$DW$32, DW_AT_type(*$C$DW$T$23)
     179                            .dwendtag $C$DW$31
     180                    
     181                    
     182                    $C$DW$33        .dwtag  DW_TAG_subprogram, DW_AT_name("VLIB_profile_cycle_report")
     183                            .dwattr $C$DW$33, DW_AT_TI_symbol_name("VLIB_profile_cycle_report")
     184                            .dwattr $C$DW$33, DW_AT_declaration
     185                            .dwattr $C$DW$33, DW_AT_external
     186                            .dwattr $C$DW$33, DW_AT_decl_file(".\..\packages\ti\vlib\src\VLIB_grayscale_morphology\..\comm
     187                            .dwattr $C$DW$33, DW_AT_decl_line(0x7f)
     188                            .dwattr $C$DW$33, DW_AT_decl_column(0x06)
     189                    $C$DW$34        .dwtag  DW_TAG_formal_parameter
     190                            .dwattr $C$DW$34, DW_AT_type(*$C$DW$T$10)
     191                    $C$DW$35        .dwtag  DW_TAG_formal_parameter
     192                            .dwattr $C$DW$35, DW_AT_type(*$C$DW$T$23)
     193                    $C$DW$36        .dwtag  DW_TAG_formal_parameter
     194                            .dwattr $C$DW$36, DW_AT_type(*$C$DW$T$23)
     195                            .dwendtag $C$DW$33
     196                    
     197                    
     198                    $C$DW$37        .dwtag  DW_TAG_subprogram, DW_AT_name("initStack")
     199                            .dwattr $C$DW$37, DW_AT_TI_symbol_name("initStack")
     200                            .dwattr $C$DW$37, DW_AT_declaration
     201                            .dwattr $C$DW$37, DW_AT_external
     202                            .dwattr $C$DW$37, DW_AT_decl_file(".\..\packages\ti\vlib\src\VLIB_grayscale_morphology\..\comm
     203                            .dwattr $C$DW$37, DW_AT_decl_line(0x80)
     204                            .dwattr $C$DW$37, DW_AT_decl_column(0x06)
     205                    $C$DW$38        .dwtag  DW_TAG_formal_parameter
     206                            .dwattr $C$DW$38, DW_AT_type(*$C$DW$T$70)
     207                            .dwendtag $C$DW$37
     208                    
     209                    
     210                    $C$DW$39        .dwtag  DW_TAG_subprogram, DW_AT_name("setStackDepth")
     211                            .dwattr $C$DW$39, DW_AT_TI_symbol_name("setStackDepth")
     212                            .dwattr $C$DW$39, DW_AT_declaration
     213                            .dwattr $C$DW$39, DW_AT_external
     214                            .dwattr $C$DW$39, DW_AT_decl_file(".\..\packages\ti\vlib\src\VLIB_grayscale_morphology\..\comm
     215                            .dwattr $C$DW$39, DW_AT_decl_line(0x81)
     216                            .dwattr $C$DW$39, DW_AT_decl_column(0x06)
     217                    
     218                    $C$DW$40        .dwtag  DW_TAG_subprogram, DW_AT_name("getSP")
     219                            .dwattr $C$DW$40, DW_AT_TI_symbol_name("getSP")
     220                            .dwattr $C$DW$40, DW_AT_type(*$C$DW$T$70)
TMS320C6x Assembler PC v7.4.2 Thu Mar 19 12:41:29 2015

Tools Copyright (c) 1996-2012 Texas Instruments Incorporated
package/lib/Regression/regress_d_c/./../packages/ti/vlib/src/VLIB_grayscale_morphology/VLIB_grayscale_morphology_d.se66 PAGE    5

     221                            .dwattr $C$DW$40, DW_AT_declaration
     222                            .dwattr $C$DW$40, DW_AT_external
     223                            .dwattr $C$DW$40, DW_AT_decl_file(".\..\packages\ti\vlib\src\VLIB_grayscale_morphology\..\comm
     224                            .dwattr $C$DW$40, DW_AT_decl_line(0x82)
     225                            .dwattr $C$DW$40, DW_AT_decl_column(0x0a)
     226                    
     227                    $C$DW$41        .dwtag  DW_TAG_subprogram, DW_AT_name("VLIB_stack_memory")
     228                            .dwattr $C$DW$41, DW_AT_TI_symbol_name("VLIB_stack_memory")
     229                            .dwattr $C$DW$41, DW_AT_declaration
     230                            .dwattr $C$DW$41, DW_AT_external
     231                            .dwattr $C$DW$41, DW_AT_decl_file(".\..\packages\ti\vlib\src\VLIB_grayscale_morphology\..\comm
     232                            .dwattr $C$DW$41, DW_AT_decl_line(0x83)
     233                            .dwattr $C$DW$41, DW_AT_decl_column(0x06)
     234                    
     235                    $C$DW$42        .dwtag  DW_TAG_subprogram, DW_AT_name("copyRoi")
     236                            .dwattr $C$DW$42, DW_AT_TI_symbol_name("copyRoi")
     237                            .dwattr $C$DW$42, DW_AT_declaration
     238                            .dwattr $C$DW$42, DW_AT_external
     239                            .dwattr $C$DW$42, DW_AT_decl_file(".\..\packages\ti\vlib\src\VLIB_grayscale_morphology\../comm
     240                            .dwattr $C$DW$42, DW_AT_decl_line(0x76)
     241                            .dwattr $C$DW$42, DW_AT_decl_column(0x06)
     242                    $C$DW$43        .dwtag  DW_TAG_formal_parameter
     243                            .dwattr $C$DW$43, DW_AT_type(*$C$DW$T$3)
     244                    $C$DW$44        .dwtag  DW_TAG_formal_parameter
     245                            .dwattr $C$DW$44, DW_AT_type(*$C$DW$T$3)
     246                    $C$DW$45        .dwtag  DW_TAG_formal_parameter
     247                            .dwattr $C$DW$45, DW_AT_type(*$C$DW$T$21)
     248                    $C$DW$46        .dwtag  DW_TAG_formal_parameter
     249                            .dwattr $C$DW$46, DW_AT_type(*$C$DW$T$21)
     250                    $C$DW$47        .dwtag  DW_TAG_formal_parameter
     251                            .dwattr $C$DW$47, DW_AT_type(*$C$DW$T$21)
     252                    $C$DW$48        .dwtag  DW_TAG_formal_parameter
     253                            .dwattr $C$DW$48, DW_AT_type(*$C$DW$T$19)
     254                            .dwendtag $C$DW$42
     255                    
     256                    
     257                    $C$DW$49        .dwtag  DW_TAG_subprogram, DW_AT_name("VLIB_fillBuffer")
     258                            .dwattr $C$DW$49, DW_AT_TI_symbol_name("VLIB_fillBuffer")
     259                            .dwattr $C$DW$49, DW_AT_declaration
     260                            .dwattr $C$DW$49, DW_AT_external
     261                            .dwattr $C$DW$49, DW_AT_decl_file(".\..\packages\ti\vlib\src\VLIB_grayscale_morphology\../comm
     262                            .dwattr $C$DW$49, DW_AT_decl_line(0x77)
     263                            .dwattr $C$DW$49, DW_AT_decl_column(0x06)
     264                    $C$DW$50        .dwtag  DW_TAG_formal_parameter
     265                            .dwattr $C$DW$50, DW_AT_type(*$C$DW$T$19)
     266                    $C$DW$51        .dwtag  DW_TAG_formal_parameter
     267                            .dwattr $C$DW$51, DW_AT_type(*$C$DW$T$19)
     268                    $C$DW$52        .dwtag  DW_TAG_formal_parameter
     269                            .dwattr $C$DW$52, DW_AT_type(*$C$DW$T$3)
     270                    $C$DW$53        .dwtag  DW_TAG_formal_parameter
     271                            .dwattr $C$DW$53, DW_AT_type(*$C$DW$T$3)
     272                    $C$DW$54        .dwtag  DW_TAG_formal_parameter
     273                            .dwattr $C$DW$54, DW_AT_type(*$C$DW$T$21)
     274                    $C$DW$55        .dwtag  DW_TAG_formal_parameter
     275                            .dwattr $C$DW$55, DW_AT_type(*$C$DW$T$21)
TMS320C6x Assembler PC v7.4.2 Thu Mar 19 12:41:29 2015

Tools Copyright (c) 1996-2012 Texas Instruments Incorporated
package/lib/Regression/regress_d_c/./../packages/ti/vlib/src/VLIB_grayscale_morphology/VLIB_grayscale_morphology_d.se66 PAGE    6

     276                    $C$DW$56        .dwtag  DW_TAG_formal_parameter
     277                            .dwattr $C$DW$56, DW_AT_type(*$C$DW$T$21)
     278                    $C$DW$57        .dwtag  DW_TAG_formal_parameter
     279                            .dwattr $C$DW$57, DW_AT_type(*$C$DW$T$19)
     280                    $C$DW$58        .dwtag  DW_TAG_formal_parameter
     281                            .dwattr $C$DW$58, DW_AT_type(*$C$DW$T$23)
     282                            .dwendtag $C$DW$49
     283                    
     284                    
     285                    $C$DW$59        .dwtag  DW_TAG_subprogram, DW_AT_name("VLIB_memalign")
     286                            .dwattr $C$DW$59, DW_AT_TI_symbol_name("VLIB_memalign")
     287                            .dwattr $C$DW$59, DW_AT_type(*$C$DW$T$3)
     288                            .dwattr $C$DW$59, DW_AT_declaration
     289                            .dwattr $C$DW$59, DW_AT_external
     290                            .dwattr $C$DW$59, DW_AT_decl_file(".\..\packages\ti\vlib\src\VLIB_grayscale_morphology\../comm
     291                            .dwattr $C$DW$59, DW_AT_decl_line(0xae)
     292                            .dwattr $C$DW$59, DW_AT_decl_column(0x07)
     293                    $C$DW$60        .dwtag  DW_TAG_formal_parameter
     294                            .dwattr $C$DW$60, DW_AT_type(*$C$DW$T$55)
     295                    $C$DW$61        .dwtag  DW_TAG_formal_parameter
     296                            .dwattr $C$DW$61, DW_AT_type(*$C$DW$T$55)
     297                            .dwendtag $C$DW$59
     298                    
     299                    
     300                    $C$DW$62        .dwtag  DW_TAG_subprogram, DW_AT_name("VLIB_align_free")
     301                            .dwattr $C$DW$62, DW_AT_TI_symbol_name("VLIB_align_free")
     302                            .dwattr $C$DW$62, DW_AT_declaration
     303                            .dwattr $C$DW$62, DW_AT_external
     304                            .dwattr $C$DW$62, DW_AT_decl_file(".\..\packages\ti\vlib\src\VLIB_grayscale_morphology\../comm
     305                            .dwattr $C$DW$62, DW_AT_decl_line(0xb3)
     306                            .dwattr $C$DW$62, DW_AT_decl_column(0x07)
     307                    $C$DW$63        .dwtag  DW_TAG_formal_parameter
     308                            .dwattr $C$DW$63, DW_AT_type(*$C$DW$T$3)
     309                            .dwendtag $C$DW$62
     310                    
     311                    
     312                    $C$DW$64        .dwtag  DW_TAG_subprogram, DW_AT_name("VLIB_grayscale_morphology")
     313                            .dwattr $C$DW$64, DW_AT_TI_symbol_name("VLIB_grayscale_morphology")
     314                            .dwattr $C$DW$64, DW_AT_declaration
     315                            .dwattr $C$DW$64, DW_AT_external
     316                            .dwattr $C$DW$64, DW_AT_decl_file(".\..\packages\ti\vlib\src\VLIB_grayscale_morphology\c66/VLI
     317                            .dwattr $C$DW$64, DW_AT_decl_line(0x80)
     318                            .dwattr $C$DW$64, DW_AT_decl_column(0x09)
     319                    $C$DW$65        .dwtag  DW_TAG_formal_parameter
     320                            .dwattr $C$DW$65, DW_AT_type(*$C$DW$T$21)
     321                    $C$DW$66        .dwtag  DW_TAG_formal_parameter
     322                            .dwattr $C$DW$66, DW_AT_type(*$C$DW$T$21)
     323                    $C$DW$67        .dwtag  DW_TAG_formal_parameter
     324                            .dwattr $C$DW$67, DW_AT_type(*$C$DW$T$21)
     325                    $C$DW$68        .dwtag  DW_TAG_formal_parameter
     326                            .dwattr $C$DW$68, DW_AT_type(*$C$DW$T$81)
     327                    $C$DW$69        .dwtag  DW_TAG_formal_parameter
     328                            .dwattr $C$DW$69, DW_AT_type(*$C$DW$T$21)
     329                    $C$DW$70        .dwtag  DW_TAG_formal_parameter
     330                            .dwattr $C$DW$70, DW_AT_type(*$C$DW$T$21)
TMS320C6x Assembler PC v7.4.2 Thu Mar 19 12:41:29 2015

Tools Copyright (c) 1996-2012 Texas Instruments Incorporated
package/lib/Regression/regress_d_c/./../packages/ti/vlib/src/VLIB_grayscale_morphology/VLIB_grayscale_morphology_d.se66 PAGE    7

     331                    $C$DW$71        .dwtag  DW_TAG_formal_parameter
     332                            .dwattr $C$DW$71, DW_AT_type(*$C$DW$T$81)
     333                    $C$DW$72        .dwtag  DW_TAG_formal_parameter
     334                            .dwattr $C$DW$72, DW_AT_type(*$C$DW$T$81)
     335                    $C$DW$73        .dwtag  DW_TAG_formal_parameter
     336                            .dwattr $C$DW$73, DW_AT_type(*$C$DW$T$20)
     337                    $C$DW$74        .dwtag  DW_TAG_formal_parameter
     338                            .dwattr $C$DW$74, DW_AT_type(*$C$DW$T$20)
     339                    $C$DW$75        .dwtag  DW_TAG_formal_parameter
     340                            .dwattr $C$DW$75, DW_AT_type(*$C$DW$T$20)
     341                    $C$DW$76        .dwtag  DW_TAG_formal_parameter
     342                            .dwattr $C$DW$76, DW_AT_type(*$C$DW$T$19)
     343                            .dwendtag $C$DW$64
     344                    
     345                    
     346                    $C$DW$77        .dwtag  DW_TAG_subprogram, DW_AT_name("VLIB_grayscale_morphology_cn")
     347                            .dwattr $C$DW$77, DW_AT_TI_symbol_name("VLIB_grayscale_morphology_cn")
     348                            .dwattr $C$DW$77, DW_AT_declaration
     349                            .dwattr $C$DW$77, DW_AT_external
     350                            .dwattr $C$DW$77, DW_AT_decl_file(".\..\packages\ti\vlib\src\VLIB_grayscale_morphology\VLIB_gr
     351                            .dwattr $C$DW$77, DW_AT_decl_line(0x24)
     352                            .dwattr $C$DW$77, DW_AT_decl_column(0x09)
     353                    $C$DW$78        .dwtag  DW_TAG_formal_parameter
     354                            .dwattr $C$DW$78, DW_AT_type(*$C$DW$T$21)
     355                    $C$DW$79        .dwtag  DW_TAG_formal_parameter
     356                            .dwattr $C$DW$79, DW_AT_type(*$C$DW$T$21)
     357                    $C$DW$80        .dwtag  DW_TAG_formal_parameter
     358                            .dwattr $C$DW$80, DW_AT_type(*$C$DW$T$21)
     359                    $C$DW$81        .dwtag  DW_TAG_formal_parameter
     360                            .dwattr $C$DW$81, DW_AT_type(*$C$DW$T$81)
     361                    $C$DW$82        .dwtag  DW_TAG_formal_parameter
     362                            .dwattr $C$DW$82, DW_AT_type(*$C$DW$T$21)
     363                    $C$DW$83        .dwtag  DW_TAG_formal_parameter
     364                            .dwattr $C$DW$83, DW_AT_type(*$C$DW$T$21)
     365                    $C$DW$84        .dwtag  DW_TAG_formal_parameter
     366                            .dwattr $C$DW$84, DW_AT_type(*$C$DW$T$81)
     367                    $C$DW$85        .dwtag  DW_TAG_formal_parameter
     368                            .dwattr $C$DW$85, DW_AT_type(*$C$DW$T$81)
     369                    $C$DW$86        .dwtag  DW_TAG_formal_parameter
     370                            .dwattr $C$DW$86, DW_AT_type(*$C$DW$T$20)
     371                    $C$DW$87        .dwtag  DW_TAG_formal_parameter
     372                            .dwattr $C$DW$87, DW_AT_type(*$C$DW$T$20)
     373                    $C$DW$88        .dwtag  DW_TAG_formal_parameter
     374                            .dwattr $C$DW$88, DW_AT_type(*$C$DW$T$20)
     375                    $C$DW$89        .dwtag  DW_TAG_formal_parameter
     376                            .dwattr $C$DW$89, DW_AT_type(*$C$DW$T$38)
     377                            .dwendtag $C$DW$77
     378                    
     379                    
     380                    $C$DW$90        .dwtag  DW_TAG_subprogram, DW_AT_name("grayScaleMorph_getTestParams")
     381                            .dwattr $C$DW$90, DW_AT_TI_symbol_name("grayScaleMorph_getTestParams")
     382                            .dwattr $C$DW$90, DW_AT_declaration
     383                            .dwattr $C$DW$90, DW_AT_external
     384                            .dwattr $C$DW$90, DW_AT_decl_file(".\..\packages\ti\vlib\src\VLIB_grayscale_morphology\VLIB_gr
     385                            .dwattr $C$DW$90, DW_AT_decl_line(0x31)
TMS320C6x Assembler PC v7.4.2 Thu Mar 19 12:41:29 2015

Tools Copyright (c) 1996-2012 Texas Instruments Incorporated
package/lib/Regression/regress_d_c/./../packages/ti/vlib/src/VLIB_grayscale_morphology/VLIB_grayscale_morphology_d.se66 PAGE    8

     386                            .dwattr $C$DW$90, DW_AT_decl_column(0x06)
     387                    $C$DW$91        .dwtag  DW_TAG_formal_parameter
     388                            .dwattr $C$DW$91, DW_AT_type(*$C$DW$T$47)
     389                    $C$DW$92        .dwtag  DW_TAG_formal_parameter
     390                            .dwattr $C$DW$92, DW_AT_type(*$C$DW$T$86)
     391                            .dwendtag $C$DW$90
     392                    
     393                    $C$DW$93        .dwtag  DW_TAG_variable, DW_AT_name("test_cases")
     394                            .dwattr $C$DW$93, DW_AT_TI_symbol_name("test_cases")
     395                            .dwattr $C$DW$93, DW_AT_type(*$C$DW$T$30)
     396                            .dwattr $C$DW$93, DW_AT_declaration
     397                            .dwattr $C$DW$93, DW_AT_external
     398                            .dwattr $C$DW$93, DW_AT_decl_file(".\..\packages\ti\vlib\src\VLIB_grayscale_morphology\../comm
     399                            .dwattr $C$DW$93, DW_AT_decl_line(0x60)
     400                            .dwattr $C$DW$93, DW_AT_decl_column(0x13)
     401                    $C$DW$94        .dwtag  DW_TAG_variable, DW_AT_name("act_kernel")
     402                            .dwattr $C$DW$94, DW_AT_TI_symbol_name("act_kernel")
     403                            .dwattr $C$DW$94, DW_AT_type(*$C$DW$T$10)
     404                            .dwattr $C$DW$94, DW_AT_declaration
     405                            .dwattr $C$DW$94, DW_AT_external
     406                            .dwattr $C$DW$94, DW_AT_decl_file(".\..\packages\ti\vlib\src\VLIB_grayscale_morphology\../comm
     407                            .dwattr $C$DW$94, DW_AT_decl_line(0x62)
     408                            .dwattr $C$DW$94, DW_AT_decl_column(0x13)
     409                    $C$DW$95        .dwtag  DW_TAG_variable, DW_AT_name("desc")
     410                            .dwattr $C$DW$95, DW_AT_TI_symbol_name("desc")
     411                            .dwattr $C$DW$95, DW_AT_type(*$C$DW$T$170)
     412                            .dwattr $C$DW$95, DW_AT_declaration
     413                            .dwattr $C$DW$95, DW_AT_external
     414                            .dwattr $C$DW$95, DW_AT_decl_file(".\..\packages\ti\vlib\src\VLIB_grayscale_morphology\../comm
     415                            .dwattr $C$DW$95, DW_AT_decl_line(0x63)
     416                            .dwattr $C$DW$95, DW_AT_decl_column(0x13)
     417                    $C$DW$96        .dwtag  DW_TAG_variable, DW_AT_name("testPatternString")
     418                            .dwattr $C$DW$96, DW_AT_TI_symbol_name("testPatternString")
     419                            .dwattr $C$DW$96, DW_AT_type(*$C$DW$T$170)
     420                            .dwattr $C$DW$96, DW_AT_declaration
     421                            .dwattr $C$DW$96, DW_AT_external
     422                            .dwattr $C$DW$96, DW_AT_decl_file(".\..\packages\ti\vlib\src\VLIB_grayscale_morphology\../comm
     423                            .dwattr $C$DW$96, DW_AT_decl_line(0x64)
     424                            .dwattr $C$DW$96, DW_AT_decl_column(0x13)
     425                    $C$DW$97        .dwtag  DW_TAG_variable, DW_AT_name("est_test")
     426                            .dwattr $C$DW$97, DW_AT_TI_symbol_name("est_test")
     427                            .dwattr $C$DW$97, DW_AT_type(*$C$DW$T$10)
     428                            .dwattr $C$DW$97, DW_AT_declaration
     429                            .dwattr $C$DW$97, DW_AT_external
     430                            .dwattr $C$DW$97, DW_AT_decl_file(".\..\packages\ti\vlib\src\VLIB_grayscale_morphology\..\comm
     431                            .dwattr $C$DW$97, DW_AT_decl_line(0x75)
     432                            .dwattr $C$DW$97, DW_AT_decl_column(0x14)
     433                    $C$DW$98        .dwtag  DW_TAG_variable, DW_AT_name("beg_count")
     434                            .dwattr $C$DW$98, DW_AT_TI_symbol_name("beg_count")
     435                            .dwattr $C$DW$98, DW_AT_type(*$C$DW$T$159)
     436                            .dwattr $C$DW$98, DW_AT_declaration
     437                            .dwattr $C$DW$98, DW_AT_external
     438                            .dwattr $C$DW$98, DW_AT_decl_file(".\..\packages\ti\vlib\src\VLIB_grayscale_morphology\..\comm
     439                            .dwattr $C$DW$98, DW_AT_decl_line(0x76)
     440                            .dwattr $C$DW$98, DW_AT_decl_column(0x14)
TMS320C6x Assembler PC v7.4.2 Thu Mar 19 12:41:29 2015

Tools Copyright (c) 1996-2012 Texas Instruments Incorporated
package/lib/Regression/regress_d_c/./../packages/ti/vlib/src/VLIB_grayscale_morphology/VLIB_grayscale_morphology_d.se66 PAGE    9

     441                    $C$DW$99        .dwtag  DW_TAG_variable, DW_AT_name("end_count")
     442                            .dwattr $C$DW$99, DW_AT_TI_symbol_name("end_count")
     443                            .dwattr $C$DW$99, DW_AT_type(*$C$DW$T$159)
     444                            .dwattr $C$DW$99, DW_AT_declaration
     445                            .dwattr $C$DW$99, DW_AT_external
     446                            .dwattr $C$DW$99, DW_AT_decl_file(".\..\packages\ti\vlib\src\VLIB_grayscale_morphology\..\comm
     447                            .dwattr $C$DW$99, DW_AT_decl_line(0x77)
     448                            .dwattr $C$DW$99, DW_AT_decl_column(0x14)
     449                    $C$DW$100       .dwtag  DW_TAG_variable, DW_AT_name("overhead")
     450                            .dwattr $C$DW$100, DW_AT_TI_symbol_name("overhead")
     451                            .dwattr $C$DW$100, DW_AT_type(*$C$DW$T$159)
     452                            .dwattr $C$DW$100, DW_AT_declaration
     453                            .dwattr $C$DW$100, DW_AT_external
     454                            .dwattr $C$DW$100, DW_AT_decl_file(".\..\packages\ti\vlib\src\VLIB_grayscale_morphology\..\com
     455                            .dwattr $C$DW$100, DW_AT_decl_line(0x78)
     456                            .dwattr $C$DW$100, DW_AT_decl_column(0x14)
     457                    $C$DW$101       .dwtag  DW_TAG_variable, DW_AT_name("cycles")
     458                            .dwattr $C$DW$101, DW_AT_TI_symbol_name("cycles")
     459                            .dwattr $C$DW$101, DW_AT_type(*$C$DW$T$160)
     460                            .dwattr $C$DW$101, DW_AT_declaration
     461                            .dwattr $C$DW$101, DW_AT_external
     462                            .dwattr $C$DW$101, DW_AT_decl_file(".\..\packages\ti\vlib\src\VLIB_grayscale_morphology\..\com
     463                            .dwattr $C$DW$101, DW_AT_decl_line(0x79)
     464                            .dwattr $C$DW$101, DW_AT_decl_column(0x14)
     465                    ;       C:\VLIB_Tools\CCSV5_4_0\ccsv5\tools\compiler\C6000\bin\opt6x.exe C:\\Users\\gtbldadm\\AppData\
     466 00000000                   .sect   ".text"
     467                            .clink
     468                            .global VLIB_grayscale_morphology_d
     469                    
     470                    $C$DW$102       .dwtag  DW_TAG_subprogram, DW_AT_name("VLIB_grayscale_morphology_d")
     471                            .dwattr $C$DW$102, DW_AT_low_pc(VLIB_grayscale_morphology_d)
     472                            .dwattr $C$DW$102, DW_AT_high_pc(0x00)
     473                            .dwattr $C$DW$102, DW_AT_TI_symbol_name("VLIB_grayscale_morphology_d")
     474                            .dwattr $C$DW$102, DW_AT_external
     475                            .dwattr $C$DW$102, DW_AT_TI_begin_file("./../packages/ti/vlib/src/VLIB_grayscale_morphology/VL
     476                            .dwattr $C$DW$102, DW_AT_TI_begin_line(0x25)
     477                            .dwattr $C$DW$102, DW_AT_TI_begin_column(0x06)
     478                            .dwattr $C$DW$102, DW_AT_decl_file("./../packages/ti/vlib/src/VLIB_grayscale_morphology/VLIB_g
     479                            .dwattr $C$DW$102, DW_AT_decl_line(0x25)
     480                            .dwattr $C$DW$102, DW_AT_decl_column(0x06)
     481                            .dwattr $C$DW$102, DW_AT_TI_max_frame_size(0xa0)
     482                            .dwpsn  file "./../packages/ti/vlib/src/VLIB_grayscale_morphology/VLIB_grayscale_morphology_d.
     483                    
     484                            .dwfde $C$DW$CIE, VLIB_grayscale_morphology_d
     485                    $C$DW$103       .dwtag  DW_TAG_formal_parameter, DW_AT_name("LevelOfFeedback")
     486                            .dwattr $C$DW$103, DW_AT_TI_symbol_name("LevelOfFeedback")
     487                            .dwattr $C$DW$103, DW_AT_type(*$C$DW$T$19)
     488                            .dwattr $C$DW$103, DW_AT_location[DW_OP_reg4]
     489                    ;----------------------------------------------------------------------
     490                    ;  37 | void VLIB_grayscale_morphology_d(uint8_t LevelOfFeedback)              
     491                    ;----------------------------------------------------------------------
     492                    
     493                    ;******************************************************************************
     494                    ;* FUNCTION NAME: VLIB_grayscale_morphology_d                                 *
     495                    ;*                                                                            *
TMS320C6x Assembler PC v7.4.2 Thu Mar 19 12:41:29 2015

Tools Copyright (c) 1996-2012 Texas Instruments Incorporated
package/lib/Regression/regress_d_c/./../packages/ti/vlib/src/VLIB_grayscale_morphology/VLIB_grayscale_morphology_d.se66 PAGE   10

     496                    ;*   Regs Modified     : A0,A1,A2,A3,A4,A5,A6,A7,A8,A9,A10,A11,A12,A13,A14,   *
     497                    ;*                           A15,B0,B1,B2,B3,B4,B5,B6,B7,B8,B9,B10,B11,B12,   *
     498                    ;*                           B13,SP,A16,A17,A18,A19,A20,A21,A22,A23,A24,A25,  *
     499                    ;*                           A26,A27,A28,A29,A30,A31,B16,B17,B18,B19,B20,B21, *
     500                    ;*                           B22,B23,B24,B25,B26,B27,B28,B29,B30,B31          *
     501                    ;*   Regs Used         : A0,A1,A2,A3,A4,A5,A6,A7,A8,A9,A10,A11,A12,A13,A14,   *
     502                    ;*                           A15,B0,B1,B2,B3,B4,B5,B6,B7,B8,B9,B10,B11,B12,   *
     503                    ;*                           B13,DP,SP,A16,A17,A18,A19,A20,A21,A22,A23,A24,   *
     504                    ;*                           A25,A26,A27,A28,A29,A30,A31,B16,B17,B18,B19,B20, *
     505                    ;*                           B21,B22,B23,B24,B25,B26,B27,B28,B29,B30,B31      *
     506                    ;*   Local Frame Size  : 32 Args + 68 Auto + 56 Save = 156 byte               *
     507                    ;******************************************************************************
     508                    
     509                    ;******************************************************************************
     510                    ;*                                                                            *
     511                    ;* Using -g (debug) with optimization (-o3) may disable key optimizations!    *
     512                    ;*                                                                            *
     513                    ;******************************************************************************
     514 00000000           VLIB_grayscale_morphology_d:
     515                    ;** --------------------------------------------------------------------------*
     516                    ;          EXCLUSIVE CPU CYCLES: 15
     517                    ;** 45  -----------------------    grayScaleMorph_getTestParams(&prm, &test_cases);
     518                    ;** 47  -----------------------    operation = 0;
     519                    ;**     -----------------------    #pragma MUST_ITERATE(7, 7, 7)
     520                    ;**     -----------------------    #pragma LOOP_FLAGS(5120u)
     521                            .dwcfi  cfa_offset, 0
     522                    ;----------------------------------------------------------------------
     523                    ;  39 | int32_t                         tpi; /* test parameter index */        
     524                    ;  40 | GrayscaleMorphologyOperation    operation;                             
     525                    ;  43 | grayScaleMorph_testParams_t   *prm;                                    
     526                    ;----------------------------------------------------------------------
     527 00000000     25f7             STW     .D2T1   A11,*SP--(8)      ; |38| 
     528                            .dwcfi  cfa_offset, 8
     529                            .dwcfi  save_reg_to_mem, 11, 0
     530 00000002     2577             STW     .D2T1   A10,*SP--(8)      ; |38| 
     531                            .dwcfi  cfa_offset, 16
     532                            .dwcfi  save_reg_to_mem, 10, -8
     533 00000004     9677             STDW    .D2T2   B13:B12,*SP--     ; |38| 
     534                            .dwcfi  cfa_offset, 24
     535                            .dwcfi  save_reg_to_mem, 29, -12
     536                            .dwcfi  save_reg_to_mem, 28, -16
     537 00000006     9577             STDW    .D2T2   B11:B10,*SP--     ; |38| 
     538                            .dwcfi  cfa_offset, 32
     539                            .dwcfi  save_reg_to_mem, 27, -20
     540                            .dwcfi  save_reg_to_mem, 26, -24
     541 00000008     8777             STDW    .D2T1   A15:A14,*SP--     ; |38| 
     542                            .dwcfi  cfa_offset, 40
     543                            .dwcfi  save_reg_to_mem, 15, -28
     544                            .dwcfi  save_reg_to_mem, 14, -32
     545 0000000a     8677             STDW    .D2T1   A13:A12,*SP--     ; |38| 
     546                            .dwcfi  cfa_offset, 48
     547                            .dwcfi  save_reg_to_mem, 13, -36
     548                            .dwcfi  save_reg_to_mem, 12, -40
     549 0000000c 01bf94f6             STW     .D2T2   B3,*SP--(112)     ; |38| 
     550                            .dwcfi  cfa_offset, 160
TMS320C6x Assembler PC v7.4.2 Thu Mar 19 12:41:29 2015

Tools Copyright (c) 1996-2012 Texas Instruments Incorporated
package/lib/Regression/regress_d_c/./../packages/ti/vlib/src/VLIB_grayscale_morphology/VLIB_grayscale_morphology_d.se66 PAGE   11

     551                            .dwcfi  save_reg_to_mem, 19, 0
     552                    $C$DW$104       .dwtag  DW_TAG_variable, DW_AT_name("$O$C3")
     553                            .dwattr $C$DW$104, DW_AT_TI_symbol_name("$O$C3")
     554                            .dwattr $C$DW$104, DW_AT_type(*$C$DW$T$9)
     555                            .dwattr $C$DW$104, DW_AT_location[DW_OP_reg21]
     556                    $C$DW$105       .dwtag  DW_TAG_variable, DW_AT_name("$O$C4")
     557                            .dwattr $C$DW$105, DW_AT_TI_symbol_name("$O$C4")
     558                            .dwattr $C$DW$105, DW_AT_type(*$C$DW$T$9)
     559                            .dwattr $C$DW$105, DW_AT_location[DW_OP_reg20]
     560                    $C$DW$106       .dwtag  DW_TAG_variable, DW_AT_name("$O$C5")
     561                            .dwattr $C$DW$106, DW_AT_TI_symbol_name("$O$C5")
     562                            .dwattr $C$DW$106, DW_AT_type(*$C$DW$T$43)
     563                            .dwattr $C$DW$106, DW_AT_location[DW_OP_reg3]
     564                    $C$DW$107       .dwtag  DW_TAG_variable, DW_AT_name("$O$C6")
     565                            .dwattr $C$DW$107, DW_AT_TI_symbol_name("$O$C6")
     566                            .dwattr $C$DW$107, DW_AT_type(*$C$DW$T$10)
     567                            .dwattr $C$DW$107, DW_AT_location[DW_OP_reg4]
     568                    $C$DW$108       .dwtag  DW_TAG_variable, DW_AT_name("$O$C7")
     569                            .dwattr $C$DW$108, DW_AT_TI_symbol_name("$O$C7")
     570                            .dwattr $C$DW$108, DW_AT_type(*$C$DW$T$43)
     571                            .dwattr $C$DW$108, DW_AT_location[DW_OP_reg3]
     572                    $C$DW$109       .dwtag  DW_TAG_variable, DW_AT_name("$O$C8")
     573                            .dwattr $C$DW$109, DW_AT_TI_symbol_name("$O$C8")
     574                            .dwattr $C$DW$109, DW_AT_type(*$C$DW$T$10)
     575                            .dwattr $C$DW$109, DW_AT_location[DW_OP_reg8]
     576                    $C$DW$110       .dwtag  DW_TAG_variable, DW_AT_name("$O$C9")
     577                            .dwattr $C$DW$110, DW_AT_TI_symbol_name("$O$C9")
     578                            .dwattr $C$DW$110, DW_AT_type(*$C$DW$T$10)
     579                            .dwattr $C$DW$110, DW_AT_location[DW_OP_reg8]
     580                    $C$DW$111       .dwtag  DW_TAG_variable, DW_AT_name("$O$C10")
     581                            .dwattr $C$DW$111, DW_AT_TI_symbol_name("$O$C10")
     582                            .dwattr $C$DW$111, DW_AT_type(*$C$DW$T$9)
     583                            .dwattr $C$DW$111, DW_AT_location[DW_OP_reg6]
     584                    $C$DW$112       .dwtag  DW_TAG_variable, DW_AT_name("$O$C11")
     585                            .dwattr $C$DW$112, DW_AT_TI_symbol_name("$O$C11")
     586                            .dwattr $C$DW$112, DW_AT_type(*$C$DW$T$9)
     587                            .dwattr $C$DW$112, DW_AT_location[DW_OP_reg6]
     588                    $C$DW$113       .dwtag  DW_TAG_variable, DW_AT_name("$O$f2")
     589                            .dwattr $C$DW$113, DW_AT_TI_symbol_name("$O$f2")
     590                            .dwattr $C$DW$113, DW_AT_type(*$C$DW$T$10)
     591                            .dwattr $C$DW$113, DW_AT_location[DW_OP_reg0]
     592                    $C$DW$114       .dwtag  DW_TAG_variable, DW_AT_name("$O$U32")
     593                            .dwattr $C$DW$114, DW_AT_TI_symbol_name("$O$U32")
     594                            .dwattr $C$DW$114, DW_AT_type(*$C$DW$T$43)
     595                            .dwattr $C$DW$114, DW_AT_location[DW_OP_reg29]
     596                    $C$DW$115       .dwtag  DW_TAG_variable, DW_AT_name("$O$U31")
     597                            .dwattr $C$DW$115, DW_AT_TI_symbol_name("$O$U31")
     598                            .dwattr $C$DW$115, DW_AT_type(*$C$DW$T$10)
     599                            .dwattr $C$DW$115, DW_AT_location[DW_OP_reg14]
     600                    $C$DW$116       .dwtag  DW_TAG_variable, DW_AT_name("$O$U72")
     601                            .dwattr $C$DW$116, DW_AT_TI_symbol_name("$O$U72")
     602                            .dwattr $C$DW$116, DW_AT_type(*$C$DW$T$10)
     603                            .dwattr $C$DW$116, DW_AT_location[DW_OP_breg31 72]
     604                    $C$DW$117       .dwtag  DW_TAG_variable, DW_AT_name("$O$U78")
     605                            .dwattr $C$DW$117, DW_AT_TI_symbol_name("$O$U78")
TMS320C6x Assembler PC v7.4.2 Thu Mar 19 12:41:29 2015

Tools Copyright (c) 1996-2012 Texas Instruments Incorporated
package/lib/Regression/regress_d_c/./../packages/ti/vlib/src/VLIB_grayscale_morphology/VLIB_grayscale_morphology_d.se66 PAGE   12

     606                            .dwattr $C$DW$117, DW_AT_type(*$C$DW$T$43)
     607                            .dwattr $C$DW$117, DW_AT_location[DW_OP_reg3]
     608                    $C$DW$118       .dwtag  DW_TAG_variable, DW_AT_name("$O$K89")
     609                            .dwattr $C$DW$118, DW_AT_TI_symbol_name("$O$K89")
     610                            .dwattr $C$DW$118, DW_AT_type(*$C$DW$T$90)
     611                            .dwattr $C$DW$118, DW_AT_location[DW_OP_reg20]
     612                    $C$DW$119       .dwtag  DW_TAG_variable, DW_AT_name("$O$K102")
     613                            .dwattr $C$DW$119, DW_AT_TI_symbol_name("$O$K102")
     614                            .dwattr $C$DW$119, DW_AT_type(*$C$DW$T$10)
     615                            .dwattr $C$DW$119, DW_AT_location[DW_OP_reg20]
     616                    $C$DW$120       .dwtag  DW_TAG_variable, DW_AT_name("$O$U105")
     617                            .dwattr $C$DW$120, DW_AT_TI_symbol_name("$O$U105")
     618                            .dwattr $C$DW$120, DW_AT_type(*$C$DW$T$6)
     619                            .dwattr $C$DW$120, DW_AT_location[DW_OP_reg21]
     620                    $C$DW$121       .dwtag  DW_TAG_variable, DW_AT_name("$O$K111")
     621                            .dwattr $C$DW$121, DW_AT_TI_symbol_name("$O$K111")
     622                            .dwattr $C$DW$121, DW_AT_type(*$C$DW$T$158)
     623                            .dwattr $C$DW$121, DW_AT_location[DW_OP_reg13]
     624                    $C$DW$122       .dwtag  DW_TAG_variable, DW_AT_name("$O$U123")
     625                            .dwattr $C$DW$122, DW_AT_TI_symbol_name("$O$U123")
     626                            .dwattr $C$DW$122, DW_AT_type(*$C$DW$T$10)
     627                            .dwattr $C$DW$122, DW_AT_location[DW_OP_reg28]
     628                    $C$DW$123       .dwtag  DW_TAG_variable, DW_AT_name("$O$U93")
     629                            .dwattr $C$DW$123, DW_AT_TI_symbol_name("$O$U93")
     630                            .dwattr $C$DW$123, DW_AT_type(*$C$DW$T$9)
     631                            .dwattr $C$DW$123, DW_AT_location[DW_OP_reg10]
     632                    $C$DW$124       .dwtag  DW_TAG_variable, DW_AT_name("$O$U135")
     633                            .dwattr $C$DW$124, DW_AT_TI_symbol_name("$O$U135")
     634                            .dwattr $C$DW$124, DW_AT_type(*$C$DW$T$25)
     635                            .dwattr $C$DW$124, DW_AT_location[DW_OP_reg5]
     636                    $C$DW$125       .dwtag  DW_TAG_variable, DW_AT_name("$O$U131")
     637                            .dwattr $C$DW$125, DW_AT_TI_symbol_name("$O$U131")
     638                            .dwattr $C$DW$125, DW_AT_type(*$C$DW$T$25)
     639                            .dwattr $C$DW$125, DW_AT_location[DW_OP_reg22]
     640                    $C$DW$126       .dwtag  DW_TAG_variable, DW_AT_name("$O$K160")
     641                            .dwattr $C$DW$126, DW_AT_TI_symbol_name("$O$K160")
     642                            .dwattr $C$DW$126, DW_AT_type(*$C$DW$T$90)
     643                            .dwattr $C$DW$126, DW_AT_location[DW_OP_reg8]
     644                    $C$DW$127       .dwtag  DW_TAG_variable, DW_AT_name("$O$L2")
     645                            .dwattr $C$DW$127, DW_AT_TI_symbol_name("$O$L2")
     646                            .dwattr $C$DW$127, DW_AT_type(*$C$DW$T$10)
     647                            .dwattr $C$DW$127, DW_AT_location[DW_OP_reg15]
     648                    $C$DW$128       .dwtag  DW_TAG_variable, DW_AT_name("$O$L3")
     649                            .dwattr $C$DW$128, DW_AT_TI_symbol_name("$O$L3")
     650                            .dwattr $C$DW$128, DW_AT_type(*$C$DW$T$10)
     651                            .dwattr $C$DW$128, DW_AT_location[DW_OP_reg28]
     652                    $C$DW$129       .dwtag  DW_TAG_variable, DW_AT_name("outPadY")
     653                            .dwattr $C$DW$129, DW_AT_TI_symbol_name("outPadY")
     654                            .dwattr $C$DW$129, DW_AT_type(*$C$DW$T$30)
     655                            .dwattr $C$DW$129, DW_AT_location[DW_OP_breg31 72]
     656                    $C$DW$130       .dwtag  DW_TAG_variable, DW_AT_name("outPadX")
     657                            .dwattr $C$DW$130, DW_AT_TI_symbol_name("outPadX")
     658                            .dwattr $C$DW$130, DW_AT_type(*$C$DW$T$30)
     659                            .dwattr $C$DW$130, DW_AT_location[DW_OP_reg15]
     660                    $C$DW$131       .dwtag  DW_TAG_variable, DW_AT_name("j")
TMS320C6x Assembler PC v7.4.2 Thu Mar 19 12:41:29 2015

Tools Copyright (c) 1996-2012 Texas Instruments Incorporated
package/lib/Regression/regress_d_c/./../packages/ti/vlib/src/VLIB_grayscale_morphology/VLIB_grayscale_morphology_d.se66 PAGE   13

     661                            .dwattr $C$DW$131, DW_AT_TI_symbol_name("j")
     662                            .dwattr $C$DW$131, DW_AT_type(*$C$DW$T$30)
     663                            .dwattr $C$DW$131, DW_AT_location[DW_OP_reg21]
     664                    $C$DW$132       .dwtag  DW_TAG_variable, DW_AT_name("i")
     665                            .dwattr $C$DW$132, DW_AT_TI_symbol_name("i")
     666                            .dwattr $C$DW$132, DW_AT_type(*$C$DW$T$30)
     667                            .dwattr $C$DW$132, DW_AT_location[DW_OP_reg13]
     668                    $C$DW$133       .dwtag  DW_TAG_variable, DW_AT_name("struct_elem_refl")
     669                            .dwattr $C$DW$133, DW_AT_TI_symbol_name("struct_elem_refl")
     670                            .dwattr $C$DW$133, DW_AT_type(*$C$DW$T$20)
     671                            .dwattr $C$DW$133, DW_AT_location[DW_OP_breg31 76]
     672                    $C$DW$134       .dwtag  DW_TAG_variable, DW_AT_name("struct_elem")
     673                            .dwattr $C$DW$134, DW_AT_TI_symbol_name("struct_elem")
     674                            .dwattr $C$DW$134, DW_AT_type(*$C$DW$T$20)
     675                            .dwattr $C$DW$134, DW_AT_location[DW_OP_breg31 80]
     676                    $C$DW$135       .dwtag  DW_TAG_variable, DW_AT_name("scratch2")
     677                            .dwattr $C$DW$135, DW_AT_TI_symbol_name("scratch2")
     678                            .dwattr $C$DW$135, DW_AT_type(*$C$DW$T$20)
     679                            .dwattr $C$DW$135, DW_AT_location[DW_OP_breg31 84]
     680                    $C$DW$136       .dwtag  DW_TAG_variable, DW_AT_name("scratch1")
     681                            .dwattr $C$DW$136, DW_AT_TI_symbol_name("scratch1")
     682                            .dwattr $C$DW$136, DW_AT_type(*$C$DW$T$20)
     683                            .dwattr $C$DW$136, DW_AT_location[DW_OP_breg31 88]
     684                    $C$DW$137       .dwtag  DW_TAG_variable, DW_AT_name("output_cn")
     685                            .dwattr $C$DW$137, DW_AT_TI_symbol_name("output_cn")
     686                            .dwattr $C$DW$137, DW_AT_type(*$C$DW$T$20)
     687                            .dwattr $C$DW$137, DW_AT_location[DW_OP_breg31 92]
     688                    $C$DW$138       .dwtag  DW_TAG_variable, DW_AT_name("output_opt")
     689                            .dwattr $C$DW$138, DW_AT_TI_symbol_name("output_opt")
     690                            .dwattr $C$DW$138, DW_AT_type(*$C$DW$T$20)
     691                            .dwattr $C$DW$138, DW_AT_location[DW_OP_breg31 96]
     692                    $C$DW$139       .dwtag  DW_TAG_variable, DW_AT_name("input")
     693                            .dwattr $C$DW$139, DW_AT_TI_symbol_name("input")
     694                            .dwattr $C$DW$139, DW_AT_type(*$C$DW$T$20)
     695                            .dwattr $C$DW$139, DW_AT_location[DW_OP_breg31 100]
     696                    $C$DW$140       .dwtag  DW_TAG_variable, DW_AT_name("status_nat_vs_int")
     697                            .dwattr $C$DW$140, DW_AT_TI_symbol_name("status_nat_vs_int")
     698                            .dwattr $C$DW$140, DW_AT_type(*$C$DW$T$30)
     699                            .dwattr $C$DW$140, DW_AT_location[DW_OP_reg26]
     700                    $C$DW$141       .dwtag  DW_TAG_variable, DW_AT_name("prm")
     701                            .dwattr $C$DW$141, DW_AT_TI_symbol_name("prm")
     702                            .dwattr $C$DW$141, DW_AT_type(*$C$DW$T$46)
     703                            .dwattr $C$DW$141, DW_AT_location[DW_OP_breg31 36]
     704                    $C$DW$142       .dwtag  DW_TAG_variable, DW_AT_name("operation")
     705                            .dwattr $C$DW$142, DW_AT_TI_symbol_name("operation")
     706                            .dwattr $C$DW$142, DW_AT_type(*$C$DW$T$38)
     707                            .dwattr $C$DW$142, DW_AT_location[DW_OP_reg27]
     708                    $C$DW$143       .dwtag  DW_TAG_variable, DW_AT_name("tpi")
     709                            .dwattr $C$DW$143, DW_AT_TI_symbol_name("tpi")
     710                            .dwattr $C$DW$143, DW_AT_type(*$C$DW$T$30)
     711                            .dwattr $C$DW$143, DW_AT_location[DW_OP_reg11]
     712                    $C$DW$144       .dwtag  DW_TAG_variable, DW_AT_name("$O$v1")
     713                            .dwattr $C$DW$144, DW_AT_TI_symbol_name("$O$v1")
     714                            .dwattr $C$DW$144, DW_AT_type(*$C$DW$T$46)
     715                            .dwattr $C$DW$144, DW_AT_location[DW_OP_reg20]
TMS320C6x Assembler PC v7.4.2 Thu Mar 19 12:41:29 2015

Tools Copyright (c) 1996-2012 Texas Instruments Incorporated
package/lib/Regression/regress_d_c/./../packages/ti/vlib/src/VLIB_grayscale_morphology/VLIB_grayscale_morphology_d.se66 PAGE   14

     716                    $C$DW$145       .dwtag  DW_TAG_variable, DW_AT_name("$O$v1")
     717                            .dwattr $C$DW$145, DW_AT_TI_symbol_name("$O$v1")
     718                            .dwattr $C$DW$145, DW_AT_type(*$C$DW$T$46)
     719                            .dwattr $C$DW$145, DW_AT_location[DW_OP_reg12]
     720                    $C$DW$146       .dwtag  DW_TAG_variable, DW_AT_name("$O$v2")
     721                            .dwattr $C$DW$146, DW_AT_TI_symbol_name("$O$v2")
     722                            .dwattr $C$DW$146, DW_AT_type(*$C$DW$T$159)
     723                            .dwattr $C$DW$146, DW_AT_location[DW_OP_reg24]
     724                    $C$DW$147       .dwtag  DW_TAG_variable, DW_AT_name("$O$v2")
     725                            .dwattr $C$DW$147, DW_AT_TI_symbol_name("$O$v2")
     726                            .dwattr $C$DW$147, DW_AT_type(*$C$DW$T$159)
     727                            .dwattr $C$DW$147, DW_AT_location[DW_OP_reg20]
     728                    $C$DW$148       .dwtag  DW_TAG_variable, DW_AT_name("testName")
     729                            .dwattr $C$DW$148, DW_AT_TI_symbol_name("testName")
     730                            .dwattr $C$DW$148, DW_AT_type(*$C$DW$T$171)
     731                            .dwattr $C$DW$148, DW_AT_location[DW_OP_breg31 40]
     732 00000010 0200002a!            MVKL    .S2     test_cases,B4
     733 00000014 0200006a!            MVKH    .S2     test_cases,B4
     734                    $C$DW$149       .dwtag  DW_TAG_TI_branch
     735                            .dwattr $C$DW$149, DW_AT_low_pc(0x00)
     736                            .dwattr $C$DW$149, DW_AT_name("grayScaleMorph_getTestParams")
     737                            .dwattr $C$DW$149, DW_AT_TI_call
     738                    
     739 00000018 10000013!            CALLP   .S2     grayScaleMorph_getTestParams,B3
     740 00000020 120009fc  ||         ADDAW   .D1X    SP,9,A4           ; |45| 
     741                    
     742                            .dwpsn  file "./../packages/ti/vlib/src/VLIB_grayscale_morphology/VLIB_grayscale_morphology_d.
     743                    ;----------------------------------------------------------------------
     744                    ;  45 | grayScaleMorph_getTestParams(&prm, &test_cases);                       
     745                    ;----------------------------------------------------------------------
     746 00000024           $C$RL0:    ; CALL OCCURS {grayScaleMorph_getTestParams} {0}  ; |45| 
     747                    ;** --------------------------------------------------------------------------*
     748                    ;          EXCLUSIVE CPU CYCLES: 2
     749                    
     750 00000024 0580a35b             ZERO    .L2     B11               ; |47| 
     751 00000028 0200002a! ||         MVKL    .S2     $C$SW1,B4
     752                    
     753 0000002c 002ccbdb             CMPGTU  .L2     B11,6,B0          ; |51| 
     754 00000030 0200006a! ||         MVKH    .S2     $C$SW1,B4
     755                    
     756                    ;** --------------------------------------------------------------------------*
     757                    ;**   BEGIN LOOP $C$L1
     758                    ;** --------------------------------------------------------------------------*
     759 00000034           $C$L1:    
     760                            .dwpsn  file "./../packages/ti/vlib/src/VLIB_grayscale_morphology/VLIB_grayscale_morphology_d.
     761                    ;----------------------------------------------------------------------
     762                    ;  47 | for( operation = GRAYSCALE_MORPH_DILATE; operation <= GRAYSCALE_MORPH_G
     763                    ;     | RADIENT; operation++ ) {                                               
     764                    ;  49 |     char    testName[32];                                              
     765                    ;  51 |     switch( operation ) {                                              
     766                    ;  52 |         case GRAYSCALE_MORPH_DILATE :                                  
     767                    ;  53 |             strcpy(testName, "GRAYSCALE_MORPH_DILATE");                
     768                    ;  54 |             break;                                                     
     769                    ;  56 |         case GRAYSCALE_MORPH_ERODE :                                   
     770                    ;  57 |             strcpy(testName, "GRAYSCALE_MORPH_ERODE");                 
TMS320C6x Assembler PC v7.4.2 Thu Mar 19 12:41:29 2015

Tools Copyright (c) 1996-2012 Texas Instruments Incorporated
package/lib/Regression/regress_d_c/./../packages/ti/vlib/src/VLIB_grayscale_morphology/VLIB_grayscale_morphology_d.se66 PAGE   15

     771                    ;  58 |             break;                                                     
     772                    ;  60 |         case GRAYSCALE_MORPH_OPEN :                                    
     773                    ;  61 |             strcpy(testName, "GRAYSCALE_MORPH_OPEN");                  
     774                    ;  62 |             break;                                                     
     775                    ;  64 |         case GRAYSCALE_MORPH_CLOSE :                                   
     776                    ;  65 |             strcpy(testName, "GRAYSCALE_MORPH_CLOSE");                 
     777                    ;  66 |             break;                                                     
     778                    ;  68 |         case GRAYSCALE_MORPH_TOPHAT :                                  
     779                    ;  69 |             strcpy(testName, "GRAYSCALE_MORPH_TOPHAT");                
     780                    ;  70 |             break;                                                     
     781                    ;  72 |         case GRAYSCALE_MORPH_BOTHAT :                                  
     782                    ;  73 |             strcpy(testName, "GRAYSCALE_MORPH_BOTHAT");                
     783                    ;  74 |             break;                                                     
     784                    ;  76 |         case GRAYSCALE_MORPH_GRADIENT :                                
     785                    ;  77 |             strcpy(testName, "GRAYSCALE_MORPH_GRADIENT");              
     786                    ;  78 |             break;                                                     
     787                    ;----------------------------------------------------------------------
     788 00000034           $C$DW$L$VLIB_grayscale_morphology_d$3$B:
     789                    ;          EXCLUSIVE CPU CYCLES: 6
     790                    ;**     -----------------------g2:
     791                    ;** 51  -----------------------    switch ( operation ) {case 0: goto g9;, case 1: goto g8;, case 2: g
     792                    
     793 00000034 20003611     [ B0]   B       .S1     $C$L10            ; |51| 
     794 00000038 32116ae6  || [!B0]   LDW     .D2T2   *+B4[B11],B4      ; |51| 
     795                    
     796                            .dwpsn  file "./../packages/ti/vlib/src/VLIB_grayscale_morphology/VLIB_grayscale_morphology_d.
     797                    ;----------------------------------------------------------------------
     798                    ;  82 | VLIB_profile_init(2, testName);                                        
     799                    ;----------------------------------------------------------------------
     800                    $C$DW$150       .dwtag  DW_TAG_TI_branch
     801                            .dwattr $C$DW$150, DW_AT_low_pc(0x00)
     802                            .dwattr $C$DW$150, DW_AT_name("VLIB_profile_init")
     803                            .dwattr $C$DW$150, DW_AT_TI_call
     804 0000003c 20000010!    [ B0]   CALL    .S1     VLIB_profile_init ; |82| 
     805 00000040     6c6e             NOP             4
     806                            .dwpsn  file "./../packages/ti/vlib/src/VLIB_grayscale_morphology/VLIB_grayscale_morphology_d.
     807                               ; BRANCHCC OCCURS {$C$L10} {-8}   ; |51| 
     808 00000042           $C$DW$L$VLIB_grayscale_morphology_d$3$E:
     809                    ;** --------------------------------------------------------------------------*
     810 00000042           $C$DW$L$VLIB_grayscale_morphology_d$4$B:
     811                    ;          EXCLUSIVE CPU CYCLES: 6
     812 00000042     a26f             BNOP    .S2     B4,5              ; |51| 
     813                               ; BRANCH OCCURS {B4}              ; |51| 
     814 00000000                   .sect   ".switch:VLIB_grayscale_morphology_d"
     815                            .clink
     816 00000000 00000000! $C$SW1: .word   $C$L8   ; 0
     817 00000004 00000000!         .word   $C$L7   ; 1
     818 00000008 00000000!         .word   $C$L6   ; 2
     819 0000000c 00000000!         .word   $C$L5   ; 3
     820 00000010 00000000!         .word   $C$L4   ; 4
     821 00000014 00000000!         .word   $C$L3   ; 5
     822 00000018 00000000!         .word   $C$L2   ; 6
     823 00000044                   .sect   ".text"
     824 00000044           $C$DW$L$VLIB_grayscale_morphology_d$4$E:
     825                    ;** --------------------------------------------------------------------------*
TMS320C6x Assembler PC v7.4.2 Thu Mar 19 12:41:29 2015

Tools Copyright (c) 1996-2012 Texas Instruments Incorporated
package/lib/Regression/regress_d_c/./../packages/ti/vlib/src/VLIB_grayscale_morphology/VLIB_grayscale_morphology_d.se66 PAGE   16

     826 00000044           $C$L2:    
     827 00000044           $C$DW$L$VLIB_grayscale_morphology_d$5$B:
     828                    ;          EXCLUSIVE CPU CYCLES: 11
     829                    ;**     -----------------------g3:
     830                    ;** 77  -----------------------    memcpy(&testName, (const char *)"GRAYSCALE_MORPH_GRADIENT", 25u);
     831                    ;** 78  -----------------------    goto g10;
     832 00000044 04000028!            MVKL    .S1     $C$SL1+0,A8
     833 00000048 04000068!            MVKH    .S1     $C$SL1+0,A8
     834                            .dwpsn  file "./../packages/ti/vlib/src/VLIB_grayscale_morphology/VLIB_grayscale_morphology_d.
     835 0000004c 01a30224             LDB     .D1T1   *+A8(24),A3       ; |77| 
     836 00000050 03a02324             LDNDW   .D1T1   *+A8(8),A7:A6     ; |77| 
     837 00000054 02a04324             LDNDW   .D1T1   *+A8(16),A5:A4    ; |77| 
     838                    
     839 00000058 00003111             B       .S1     $C$L9             ; |78| 
     840 00000060 04a00324  ||         LDNDW   .D1T1   *A8,A9:A8         ; |77| 
     841                    
     842 00000064 12000afe             ADDAW   .D2     SP,10,B4          ; |77| 
     843 00000068 019302b4             STB     .D2T1   A3,*+B4(24)       ; |77| 
     844 0000006c 039023f4             STNDW   .D2T1   A7:A6,*+B4(8)     ; |77| 
     845 00000070 029043f4             STNDW   .D2T1   A5:A4,*+B4(16)    ; |77| 
     846 00000074 049003f4             STNDW   .D2T1   A9:A8,*B4         ; |77| 
     847                            .dwpsn  file "./../packages/ti/vlib/src/VLIB_grayscale_morphology/VLIB_grayscale_morphology_d.
     848                               ; BRANCH OCCURS {$C$L9}           ; |78| 
     849 00000078           $C$DW$L$VLIB_grayscale_morphology_d$5$E:
     850                    ;** --------------------------------------------------------------------------*
     851 00000078           $C$L3:    
     852                            .dwpsn  file "./../packages/ti/vlib/src/VLIB_grayscale_morphology/VLIB_grayscale_morphology_d.
     853 00000078           $C$DW$L$VLIB_grayscale_morphology_d$6$B:
     854                    ;          EXCLUSIVE CPU CYCLES: 14
     855                    ;**     -----------------------g4:
     856                    ;** 73  -----------------------    memcpy(&testName, (const char *)"GRAYSCALE_MORPH_BOTHAT", 23u);
     857                    ;** 74  -----------------------    goto g10;
     858 00000078 03000028!            MVKL    .S1     $C$SL2+0,A6
     859 0000007c 03000068!            MVKH    .S1     $C$SL2+0,A6
     860                            .dwpsn  file "./../packages/ti/vlib/src/VLIB_grayscale_morphology/VLIB_grayscale_morphology_d.
     861 00000080 019ac224             LDB     .D1T1   *+A6(22),A3       ; |73| 
     862 00000084 08188334             LDNW    .D1T1   *+A6(16),A16      ; |73| 
     863 00000088 049a8224             LDB     .D1T1   *+A6(20),A9       ; |73| 
     864 0000008c 041aa224             LDB     .D1T1   *+A6(21),A8       ; |73| 
     865 00000090     095c             LDNDW   .D1T1   *+A6(8),A5:A4     ; |73| 
     866                    
     867 00000092     017c             LDNDW   .D1T1   *A6,A7:A6         ; |73| 
     868 00000094 12000afe  ||         ADDAW   .D2     SP,10,B4          ; |73| 
     869                    
     870 00000098 00002911             B       .S1     $C$L9             ; |74| 
     871 000000a0 081083d4  ||         STNW    .D2T1   A16,*+B4(16)      ; |73| 
     872                    
     873 000000a4 049282b4             STB     .D2T1   A9,*+B4(20)       ; |73| 
     874 000000a8 0412a2b4             STB     .D2T1   A8,*+B4(21)       ; |73| 
     875 000000ac 0192c2b4             STB     .D2T1   A3,*+B4(22)       ; |73| 
     876 000000b0     0855             STNDW   .D2T1   A5:A4,*+B4(8)     ; |73| 
     877 000000b2     0075             STNDW   .D2T1   A7:A6,*B4         ; |73| 
     878                            .dwpsn  file "./../packages/ti/vlib/src/VLIB_grayscale_morphology/VLIB_grayscale_morphology_d.
     879                               ; BRANCH OCCURS {$C$L9}           ; |74| 
     880 000000b4           $C$DW$L$VLIB_grayscale_morphology_d$6$E:
TMS320C6x Assembler PC v7.4.2 Thu Mar 19 12:41:29 2015

Tools Copyright (c) 1996-2012 Texas Instruments Incorporated
package/lib/Regression/regress_d_c/./../packages/ti/vlib/src/VLIB_grayscale_morphology/VLIB_grayscale_morphology_d.se66 PAGE   17

     881                    ;** --------------------------------------------------------------------------*
     882 000000b4           $C$L4:    
     883                            .dwpsn  file "./../packages/ti/vlib/src/VLIB_grayscale_morphology/VLIB_grayscale_morphology_d.
     884 000000b4           $C$DW$L$VLIB_grayscale_morphology_d$7$B:
     885                    ;          EXCLUSIVE CPU CYCLES: 14
     886                    ;**     -----------------------g5:
     887                    ;** 69  -----------------------    memcpy(&testName, (const char *)"GRAYSCALE_MORPH_TOPHAT", 23u);
     888                    ;** 70  -----------------------    goto g10;
     889 000000b4 03000028!            MVKL    .S1     $C$SL3+0,A6
     890 000000b8 03000068!            MVKH    .S1     $C$SL3+0,A6
     891                            .dwpsn  file "./../packages/ti/vlib/src/VLIB_grayscale_morphology/VLIB_grayscale_morphology_d.
     892 000000c0 019ac224             LDB     .D1T1   *+A6(22),A3       ; |69| 
     893 000000c4 08188334             LDNW    .D1T1   *+A6(16),A16      ; |69| 
     894 000000c8 049a8224             LDB     .D1T1   *+A6(20),A9       ; |69| 
     895 000000cc 041aa224             LDB     .D1T1   *+A6(21),A8       ; |69| 
     896 000000d0     095c             LDNDW   .D1T1   *+A6(8),A5:A4     ; |69| 
     897                    
     898 000000d2     017c             LDNDW   .D1T1   *A6,A7:A6         ; |69| 
     899 000000d4 12000afe  ||         ADDAW   .D2     SP,10,B4          ; |69| 
     900                    
     901 000000d8 00002111             B       .S1     $C$L9             ; |70| 
     902 000000e0 081083d4  ||         STNW    .D2T1   A16,*+B4(16)      ; |69| 
     903                    
     904 000000e4 049282b4             STB     .D2T1   A9,*+B4(20)       ; |69| 
     905 000000e8 0412a2b4             STB     .D2T1   A8,*+B4(21)       ; |69| 
     906 000000ec 0192c2b4             STB     .D2T1   A3,*+B4(22)       ; |69| 
     907 000000f0     0855             STNDW   .D2T1   A5:A4,*+B4(8)     ; |69| 
     908 000000f2     0075             STNDW   .D2T1   A7:A6,*B4         ; |69| 
     909                            .dwpsn  file "./../packages/ti/vlib/src/VLIB_grayscale_morphology/VLIB_grayscale_morphology_d.
     910                               ; BRANCH OCCURS {$C$L9}           ; |70| 
     911 000000f4           $C$DW$L$VLIB_grayscale_morphology_d$7$E:
     912                    ;** --------------------------------------------------------------------------*
     913 000000f4           $C$L5:    
     914                            .dwpsn  file "./../packages/ti/vlib/src/VLIB_grayscale_morphology/VLIB_grayscale_morphology_d.
     915 000000f4           $C$DW$L$VLIB_grayscale_morphology_d$8$B:
     916                    ;          EXCLUSIVE CPU CYCLES: 12
     917                    ;**     -----------------------g6:
     918                    ;** 65  -----------------------    memcpy(&testName, (const char *)"GRAYSCALE_MORPH_CLOSE", 22u);
     919                    ;** 66  -----------------------    goto g10;
     920 000000f4 03000028!            MVKL    .S1     $C$SL4+0,A6
     921 000000f8 03000068!            MVKH    .S1     $C$SL4+0,A6
     922                            .dwpsn  file "./../packages/ti/vlib/src/VLIB_grayscale_morphology/VLIB_grayscale_morphology_d.
     923 00000100 04988334             LDNW    .D1T1   *+A6(16),A9       ; |65| 
     924 00000104 041a8224             LDB     .D1T1   *+A6(20),A8       ; |65| 
     925 00000108 019aa224             LDB     .D1T1   *+A6(21),A3       ; |65| 
     926 0000010c     095c             LDNDW   .D1T1   *+A6(8),A5:A4     ; |65| 
     927                    
     928 00000110 00001911             B       .S1     $C$L9             ; |66| 
     929 0000010e     017c  ||         LDNDW   .D1T1   *A6,A7:A6         ; |65| 
     930 00000114 12000afe  ||         ADDAW   .D2     SP,10,B4          ; |65| 
     931                    
     932 00000118 049083d4             STNW    .D2T1   A9,*+B4(16)       ; |65| 
     933 00000120 041282b4             STB     .D2T1   A8,*+B4(20)       ; |65| 
     934 00000124 0192a2b4             STB     .D2T1   A3,*+B4(21)       ; |65| 
     935 00000128     0855             STNDW   .D2T1   A5:A4,*+B4(8)     ; |65| 
TMS320C6x Assembler PC v7.4.2 Thu Mar 19 12:41:29 2015

Tools Copyright (c) 1996-2012 Texas Instruments Incorporated
package/lib/Regression/regress_d_c/./../packages/ti/vlib/src/VLIB_grayscale_morphology/VLIB_grayscale_morphology_d.se66 PAGE   18

     936 0000012a     0075             STNDW   .D2T1   A7:A6,*B4         ; |65| 
     937                            .dwpsn  file "./../packages/ti/vlib/src/VLIB_grayscale_morphology/VLIB_grayscale_morphology_d.
     938                               ; BRANCH OCCURS {$C$L9}           ; |66| 
     939 0000012c           $C$DW$L$VLIB_grayscale_morphology_d$8$E:
     940                    ;** --------------------------------------------------------------------------*
     941 0000012c           $C$L6:    
     942                            .dwpsn  file "./../packages/ti/vlib/src/VLIB_grayscale_morphology/VLIB_grayscale_morphology_d.
     943 0000012c           $C$DW$L$VLIB_grayscale_morphology_d$9$B:
     944                    ;          EXCLUSIVE CPU CYCLES: 11
     945                    ;**     -----------------------g7:
     946                    ;** 61  -----------------------    memcpy(&testName, (const char *)"GRAYSCALE_MORPH_OPEN", 21u);
     947                    ;** 62  -----------------------    goto g10;
     948 0000012c 03000028!            MVKL    .S1     $C$SL5+0,A6
     949 00000130 03000068!            MVKH    .S1     $C$SL5+0,A6
     950                            .dwpsn  file "./../packages/ti/vlib/src/VLIB_grayscale_morphology/VLIB_grayscale_morphology_d.
     951 00000134 04188334             LDNW    .D1T1   *+A6(16),A8       ; |61| 
     952 00000138 019a8224             LDB     .D1T1   *+A6(20),A3       ; |61| 
     953 00000140     095c             LDNDW   .D1T1   *+A6(8),A5:A4     ; |61| 
     954                    
     955 00000144 00001110             B       .S1     $C$L9             ; |62| 
     956 00000142     017c  ||         LDNDW   .D1T1   *A6,A7:A6         ; |61| 
     957                    
     958 00000148 12000afe             ADDAW   .D2     SP,10,B4          ; |61| 
     959 0000014c 041083d4             STNW    .D2T1   A8,*+B4(16)       ; |61| 
     960 00000150 019282b4             STB     .D2T1   A3,*+B4(20)       ; |61| 
     961 00000154     0855             STNDW   .D2T1   A5:A4,*+B4(8)     ; |61| 
     962 00000156     0075             STNDW   .D2T1   A7:A6,*B4         ; |61| 
     963                            .dwpsn  file "./../packages/ti/vlib/src/VLIB_grayscale_morphology/VLIB_grayscale_morphology_d.
     964                               ; BRANCH OCCURS {$C$L9}           ; |62| 
     965 00000158           $C$DW$L$VLIB_grayscale_morphology_d$9$E:
     966                    ;** --------------------------------------------------------------------------*
     967 00000158           $C$L7:    
     968                            .dwpsn  file "./../packages/ti/vlib/src/VLIB_grayscale_morphology/VLIB_grayscale_morphology_d.
     969 00000158           $C$DW$L$VLIB_grayscale_morphology_d$10$B:
     970                    ;          EXCLUSIVE CPU CYCLES: 12
     971                    ;**     -----------------------g8:
     972                    ;** 57  -----------------------    memcpy(&testName, (const char *)"GRAYSCALE_MORPH_ERODE", 22u);
     973                    ;** 58  -----------------------    goto g10;
     974 00000158 03000028!            MVKL    .S1     $C$SL6+0,A6
     975 00000160 03000068!            MVKH    .S1     $C$SL6+0,A6
     976                            .dwpsn  file "./../packages/ti/vlib/src/VLIB_grayscale_morphology/VLIB_grayscale_morphology_d.
     977 00000164 04988334             LDNW    .D1T1   *+A6(16),A9       ; |57| 
     978 00000168 041a8224             LDB     .D1T1   *+A6(20),A8       ; |57| 
     979 0000016c 019aa224             LDB     .D1T1   *+A6(21),A3       ; |57| 
     980 00000170     095c             LDNDW   .D1T1   *+A6(8),A5:A4     ; |57| 
     981                    
     982 00000172     0d0a             B       .S1     $C$L9             ; |58| 
     983 00000174     017c  ||         LDNDW   .D1T1   *A6,A7:A6         ; |57| 
     984 00000176     4e37  ||         ADDAW   .D2     SP,10,B4          ; |57| 
     985                    
     986 00000178 049083d4             STNW    .D2T1   A9,*+B4(16)       ; |57| 
     987 00000180 041282b4             STB     .D2T1   A8,*+B4(20)       ; |57| 
     988 00000184 0192a2b4             STB     .D2T1   A3,*+B4(21)       ; |57| 
     989 00000188     0855             STNDW   .D2T1   A5:A4,*+B4(8)     ; |57| 
     990 0000018a     0075             STNDW   .D2T1   A7:A6,*B4         ; |57| 
TMS320C6x Assembler PC v7.4.2 Thu Mar 19 12:41:29 2015

Tools Copyright (c) 1996-2012 Texas Instruments Incorporated
package/lib/Regression/regress_d_c/./../packages/ti/vlib/src/VLIB_grayscale_morphology/VLIB_grayscale_morphology_d.se66 PAGE   19

     991                            .dwpsn  file "./../packages/ti/vlib/src/VLIB_grayscale_morphology/VLIB_grayscale_morphology_d.
     992                               ; BRANCH OCCURS {$C$L9}           ; |58| 
     993 0000018c           $C$DW$L$VLIB_grayscale_morphology_d$10$E:
     994                    ;** --------------------------------------------------------------------------*
     995 0000018c           $C$L8:    
     996                            .dwpsn  file "./../packages/ti/vlib/src/VLIB_grayscale_morphology/VLIB_grayscale_morphology_d.
     997 0000018c           $C$DW$L$VLIB_grayscale_morphology_d$11$B:
     998                    ;          EXCLUSIVE CPU CYCLES: 14
     999                    ;**     -----------------------g9:
    1000                    ;** 53  -----------------------    memcpy(&testName, (const char *)"GRAYSCALE_MORPH_DILATE", 23u);
    1001 0000018c 03000028!            MVKL    .S1     $C$SL7+0,A6
    1002 00000190 03000068!            MVKH    .S1     $C$SL7+0,A6
    1003                            .dwpsn  file "./../packages/ti/vlib/src/VLIB_grayscale_morphology/VLIB_grayscale_morphology_d.
    1004 00000194 019ac224             LDB     .D1T1   *+A6(22),A3       ; |53| 
    1005 00000198 08188334             LDNW    .D1T1   *+A6(16),A16      ; |53| 
    1006 000001a0 049a8224             LDB     .D1T1   *+A6(20),A9       ; |53| 
    1007 000001a4 041aa224             LDB     .D1T1   *+A6(21),A8       ; |53| 
    1008 000001a8     095c             LDNDW   .D1T1   *+A6(8),A5:A4     ; |53| 
    1009                    
    1010 000001aa     017c             LDNDW   .D1T1   *A6,A7:A6         ; |53| 
    1011 000001ac 12000afe  ||         ADDAW   .D2     SP,10,B4          ; |53| 
    1012                    
    1013 000001b0 081083d4             STNW    .D2T1   A16,*+B4(16)      ; |53| 
    1014 000001b4 049282b4             STB     .D2T1   A9,*+B4(20)       ; |53| 
    1015 000001b8 0412a2b4             STB     .D2T1   A8,*+B4(21)       ; |53| 
    1016 000001c0 0192c2b4             STB     .D2T1   A3,*+B4(22)       ; |53| 
    1017 000001c4     0855             STNDW   .D2T1   A5:A4,*+B4(8)     ; |53| 
    1018 000001c6     0075             STNDW   .D2T1   A7:A6,*B4         ; |53| 
    1019 000001c8           $C$DW$L$VLIB_grayscale_morphology_d$11$E:
    1020                    ;** --------------------------------------------------------------------------*
    1021 000001c8           $C$L9:    
    1022 000001c8           $C$DW$L$VLIB_grayscale_morphology_d$12$B:
    1023                    ;          EXCLUSIVE CPU CYCLES: 5
    1024                            .dwpsn  file "./../packages/ti/vlib/src/VLIB_grayscale_morphology/VLIB_grayscale_morphology_d.
    1025                    $C$DW$151       .dwtag  DW_TAG_TI_branch
    1026                            .dwattr $C$DW$151, DW_AT_low_pc(0x00)
    1027                            .dwattr $C$DW$151, DW_AT_name("VLIB_profile_init")
    1028                            .dwattr $C$DW$151, DW_AT_TI_call
    1029 000001c8 00000010!            CALL    .S1     VLIB_profile_init ; |82| 
    1030 000001cc 00006000             NOP             4
    1031 000001d0           $C$DW$L$VLIB_grayscale_morphology_d$12$E:
    1032                    ;** --------------------------------------------------------------------------*
    1033 000001d0           $C$L10:    
    1034                            .dwpsn  file "./../packages/ti/vlib/src/VLIB_grayscale_morphology/VLIB_grayscale_morphology_d.
    1035 000001d0           $C$DW$L$VLIB_grayscale_morphology_d$13$B:
    1036                    ;          EXCLUSIVE CPU CYCLES: 1
    1037                    ;**     -----------------------g10:
    1038                    ;** 82  -----------------------    VLIB_profile_init(2, &testName);
    1039                    ;** 85  -----------------------    if ( test_cases <= 0 ) goto g27;
    1040                    
    1041 000001d0     4626             MVK     .L1     0x2,A4            ; |82| 
    1042 000001d2     4e37  ||         ADDAW   .D2     SP,10,B4          ; |82| 
    1043 000001d4 01860162  ||         ADDKPC  .S2     $C$RL1,B3,0       ; |82| 
    1044                    
    1045                            .dwpsn  file "./../packages/ti/vlib/src/VLIB_grayscale_morphology/VLIB_grayscale_morphology_d.
TMS320C6x Assembler PC v7.4.2 Thu Mar 19 12:41:29 2015

Tools Copyright (c) 1996-2012 Texas Instruments Incorporated
package/lib/Regression/regress_d_c/./../packages/ti/vlib/src/VLIB_grayscale_morphology/VLIB_grayscale_morphology_d.se66 PAGE   20

    1046 000001d8           $C$RL1:    ; CALL OCCURS {VLIB_profile_init} {0}  ; |82| 
    1047 000001d8           $C$DW$L$VLIB_grayscale_morphology_d$13$E:
    1048                    ;** --------------------------------------------------------------------------*
    1049 000001d8           $C$DW$L$VLIB_grayscale_morphology_d$14$B:
    1050                    ;          EXCLUSIVE CPU CYCLES: 14
    1051 000001d8 01800028!            MVKL    .S1     test_cases,A3
    1052 000001e0 01800068!            MVKH    .S1     test_cases,A3
    1053                            .dwpsn  file "./../packages/ti/vlib/src/VLIB_grayscale_morphology/VLIB_grayscale_morphology_d.
    1054                    ;----------------------------------------------------------------------
    1055                    ;  85 | for( tpi=0; tpi < test_cases; tpi++ ) {                                
    1056                    ;  88 |     int32_t    status_nat_vs_int  = vlib_KERNEL_PASS; /* Test status :
    1057                    ;     | Natural c vs. Optimized */                                             
    1058                    ;----------------------------------------------------------------------
    1059 000001e4 018c0264             LDW     .D1T1   *A3,A3            ; |85| 
    1060 000001e8 06bd22e6             LDW     .D2T2   *+SP(36),B13
    1061 000001ec     4c6e             NOP             3
    1062 000001ee     11a6             CMPGT   .L1     A3,0,A0           ; |85| 
    1063                    
    1064 000001f0 d3548123     [!A0]   BNOP    .S2     $C$L21,4          ; |85| 
    1065 000001f4 c580a359  || [ A0]   ZERO    .L1     A11               ; |85| 
    1066 000001f8 c7000029  || [ A0]   ZERO    .S1     A14               ; |85| 
    1067 00000200 c2b56287  || [ A0]   LDHU    .D2T2   *+B13(22),B5      ; |91| 
    1068 00000204 c2010040  || [ A0]   MVK     .D1     0x8,A4            ; |91| 
    1069                    
    1070                            .dwpsn  file "./../packages/ti/vlib/src/VLIB_grayscale_morphology/VLIB_grayscale_morphology_d.
    1071                    ;----------------------------------------------------------------------
    1072                    ;  91 | uint8_t   *input             = (uint8_t *) VLIB_memalign(8, prm[tpi].im
    1073                    ;     | agePitch * prm[tpi].imageHeight);                                      
    1074                    ;----------------------------------------------------------------------
    1075 00000208 c2358286     [ A0]   LDHU    .D2T2   *+B13(24),B4      ; |91| 
    1076                            .dwpsn  file "./../packages/ti/vlib/src/VLIB_grayscale_morphology/VLIB_grayscale_morphology_d.
    1077                               ; BRANCHCC OCCURS {$C$L21}        ; |85| 
    1078 0000020c           $C$DW$L$VLIB_grayscale_morphology_d$14$E:
    1079                    ;** --------------------------------------------------------------------------*
    1080 0000020c           $C$DW$L$VLIB_grayscale_morphology_d$15$B:
    1081                    ;**     -----------------------    K$160 = &desc[0];
    1082                    ;**     -----------------------    U$32 = prm;
    1083                    ;**     -----------------------    U$31 = 0;
    1084                    ;** 85  -----------------------    tpi = 0;
    1085                    ;**     -----------------------    #pragma LOOP_FLAGS(5120u)
    1086 0000020c           $C$DW$L$VLIB_grayscale_morphology_d$15$E:
    1087                    ;** --------------------------------------------------------------------------*
    1088                    ;**   BEGIN LOOP $C$L11
    1089                    ;** --------------------------------------------------------------------------*
    1090 0000020c           $C$L11:    
    1091                            .dwpsn  file "./../packages/ti/vlib/src/VLIB_grayscale_morphology/VLIB_grayscale_morphology_d.
    1092 0000020c           $C$DW$L$VLIB_grayscale_morphology_d$16$B:
    1093                    ;          EXCLUSIVE CPU CYCLES: 6
    1094                    ;**     -----------------------g12:
    1095                    ;** 91  -----------------------    input = VLIB_memalign(8u, (unsigned)((*U$32).imagePitch*(*U$32).ima
    1096                    ;** 92  -----------------------    output_opt = VLIB_memalign(8u, (unsigned)((*U$32).imagePitch*(*U$32
    1097                    ;** 93  -----------------------    output_cn = memalign(8u, (unsigned)((*U$32).imagePitch*(*U$32).imag
    1098                    ;** 94  -----------------------    scratch1 = VLIB_memalign(8u, (unsigned)((*U$32).imagePitch*(*U$32).
    1099                    ;** 95  -----------------------    scratch2 = VLIB_memalign(8u, (unsigned)((*U$32).imagePitch*(*U$32).
    1100                    ;** 96  -----------------------    struct_elem = VLIB_memalign(8u, (unsigned)((*U$32).se_w*(*U$32).se_
TMS320C6x Assembler PC v7.4.2 Thu Mar 19 12:41:29 2015

Tools Copyright (c) 1996-2012 Texas Instruments Incorporated
package/lib/Regression/regress_d_c/./../packages/ti/vlib/src/VLIB_grayscale_morphology/VLIB_grayscale_morphology_d.se66 PAGE   21

    1101                    ;** 97  -----------------------    struct_elem_refl = VLIB_memalign(8u, (unsigned)((*U$32).se_w*(*U$32
    1102                    ;** 100 -----------------------    if ( !((input != NULL)&(output_opt != NULL)&(output_cn != NULL)&(sc
    1103                            .dwpsn  file "./../packages/ti/vlib/src/VLIB_grayscale_morphology/VLIB_grayscale_morphology_d.
    1104                    $C$DW$152       .dwtag  DW_TAG_TI_branch
    1105                            .dwattr $C$DW$152, DW_AT_low_pc(0x00)
    1106                            .dwattr $C$DW$152, DW_AT_name("VLIB_memalign")
    1107                            .dwattr $C$DW$152, DW_AT_TI_call
    1108 0000020c 00000010!            CALL    .S1     VLIB_memalign     ; |91| 
    1109 00000210 01874162             ADDKPC  .S2     $C$RL2,B3,2       ; |91| 
    1110 00000214 0210af82             MPYU    .M2     B5,B4,B4          ; |91| 
    1111 00000218 00000000             NOP             1
    1112 0000021c           $C$RL2:    ; CALL OCCURS {VLIB_memalign} {0}  ; |91| 
    1113 0000021c           $C$DW$L$VLIB_grayscale_morphology_d$16$E:
    1114                    ;** --------------------------------------------------------------------------*
    1115 0000021c           $C$DW$L$VLIB_grayscale_morphology_d$17$B:
    1116                    ;          EXCLUSIVE CPU CYCLES: 72
    1117                            .dwpsn  file "./../packages/ti/vlib/src/VLIB_grayscale_morphology/VLIB_grayscale_morphology_d.
    1118                    ;----------------------------------------------------------------------
    1119                    ;  92 | uint8_t   *output_opt        = (uint8_t *) VLIB_memalign(8, prm[tpi].im
    1120                    ;     | agePitch * prm[tpi].imageHeight);                                      
    1121                    ;----------------------------------------------------------------------
    1122 0000021c 02b56286             LDHU    .D2T2   *+B13(22),B5      ; |92| 
    1123 00000220 02358286             LDHU    .D2T2   *+B13(24),B4      ; |92| 
    1124                            .dwpsn  file "./../packages/ti/vlib/src/VLIB_grayscale_morphology/VLIB_grayscale_morphology_d.
    1125 00000224     af45             STW     .D2T1   A4,*+SP(100)      ; |91| 
    1126                            .dwpsn  file "./../packages/ti/vlib/src/VLIB_grayscale_morphology/VLIB_grayscale_morphology_d.
    1127 00000226     0e26             MVK     .L1     0x8,A4            ; |92| 
    1128 00000228 00002000             NOP             2
    1129                    $C$DW$153       .dwtag  DW_TAG_TI_branch
    1130                            .dwattr $C$DW$153, DW_AT_low_pc(0x00)
    1131                            .dwattr $C$DW$153, DW_AT_name("VLIB_memalign")
    1132                            .dwattr $C$DW$153, DW_AT_TI_call
    1133                    
    1134 0000022c 10000013!            CALLP   .S2     VLIB_memalign,B3
    1135 00000230 0210af82  ||         MPYU    .M2     B5,B4,B4          ; |92| 
    1136                    
    1137 00000234           $C$RL3:    ; CALL OCCURS {VLIB_memalign} {0}  ; |92| 
    1138                            .dwpsn  file "./../packages/ti/vlib/src/VLIB_grayscale_morphology/VLIB_grayscale_morphology_d.
    1139                    ;----------------------------------------------------------------------
    1140                    ;  93 | uint8_t   *output_cn         = (uint8_t *) memalign(8, prm[tpi].imagePi
    1141                    ;     | tch * prm[tpi].imageHeight);                                           
    1142                    ;----------------------------------------------------------------------
    1143 00000234 02b56286             LDHU    .D2T2   *+B13(22),B5      ; |93| 
    1144 00000238 02358286             LDHU    .D2T2   *+B13(24),B4      ; |93| 
    1145                            .dwpsn  file "./../packages/ti/vlib/src/VLIB_grayscale_morphology/VLIB_grayscale_morphology_d.
    1146 00000240     8f45             STW     .D2T1   A4,*+SP(96)       ; |92| 
    1147                            .dwpsn  file "./../packages/ti/vlib/src/VLIB_grayscale_morphology/VLIB_grayscale_morphology_d.
    1148 00000242     0e26             MVK     .L1     0x8,A4            ; |93| 
    1149 00000244 00002000             NOP             2
    1150                    $C$DW$154       .dwtag  DW_TAG_TI_branch
    1151                            .dwattr $C$DW$154, DW_AT_low_pc(0x00)
    1152                            .dwattr $C$DW$154, DW_AT_name("memalign")
    1153                            .dwattr $C$DW$154, DW_AT_TI_call
    1154                    
    1155 00000248 10000013!            CALLP   .S2     memalign,B3
TMS320C6x Assembler PC v7.4.2 Thu Mar 19 12:41:29 2015

Tools Copyright (c) 1996-2012 Texas Instruments Incorporated
package/lib/Regression/regress_d_c/./../packages/ti/vlib/src/VLIB_grayscale_morphology/VLIB_grayscale_morphology_d.se66 PAGE   22

    1156 0000024c 0210af82  ||         MPYU    .M2     B5,B4,B4          ; |93| 
    1157                    
    1158 00000250           $C$RL4:    ; CALL OCCURS {memalign} {0}      ; |93| 
    1159                            .dwpsn  file "./../packages/ti/vlib/src/VLIB_grayscale_morphology/VLIB_grayscale_morphology_d.
    1160                    ;----------------------------------------------------------------------
    1161                    ;  94 | uint8_t   *scratch1          = (uint8_t *) VLIB_memalign(8, prm[tpi].im
    1162                    ;     | agePitch * prm[tpi].imageHeight);                                      
    1163                    ;----------------------------------------------------------------------
    1164 00000250 02b56286             LDHU    .D2T2   *+B13(22),B5      ; |94| 
    1165 00000254 02358286             LDHU    .D2T2   *+B13(24),B4      ; |94| 
    1166                            .dwpsn  file "./../packages/ti/vlib/src/VLIB_grayscale_morphology/VLIB_grayscale_morphology_d.
    1167 00000258     eec5             STW     .D2T1   A4,*+SP(92)       ; |93| 
    1168                            .dwpsn  file "./../packages/ti/vlib/src/VLIB_grayscale_morphology/VLIB_grayscale_morphology_d.
    1169 0000025a     0e26             MVK     .L1     0x8,A4            ; |94| 
    1170 00000260 00002000             NOP             2
    1171                    $C$DW$155       .dwtag  DW_TAG_TI_branch
    1172                            .dwattr $C$DW$155, DW_AT_low_pc(0x00)
    1173                            .dwattr $C$DW$155, DW_AT_name("VLIB_memalign")
    1174                            .dwattr $C$DW$155, DW_AT_TI_call
    1175                    
    1176 00000264 10000013!            CALLP   .S2     VLIB_memalign,B3
    1177 00000268 0210af82  ||         MPYU    .M2     B5,B4,B4          ; |94| 
    1178                    
    1179 0000026c           $C$RL5:    ; CALL OCCURS {VLIB_memalign} {0}  ; |94| 
    1180                            .dwpsn  file "./../packages/ti/vlib/src/VLIB_grayscale_morphology/VLIB_grayscale_morphology_d.
    1181                    ;----------------------------------------------------------------------
    1182                    ;  95 | uint8_t   *scratch2          = (uint8_t *) VLIB_memalign(8, prm[tpi].im
    1183                    ;     | agePitch * prm[tpi].imageHeight);                                      
    1184                    ;----------------------------------------------------------------------
    1185 0000026c 02b56286             LDHU    .D2T2   *+B13(22),B5      ; |95| 
    1186 00000270 02358286             LDHU    .D2T2   *+B13(24),B4      ; |95| 
    1187                            .dwpsn  file "./../packages/ti/vlib/src/VLIB_grayscale_morphology/VLIB_grayscale_morphology_d.
    1188 00000274     cec5             STW     .D2T1   A4,*+SP(88)       ; |94| 
    1189                            .dwpsn  file "./../packages/ti/vlib/src/VLIB_grayscale_morphology/VLIB_grayscale_morphology_d.
    1190 00000276     0e26             MVK     .L1     0x8,A4            ; |95| 
    1191 00000278 00002000             NOP             2
    1192                    $C$DW$156       .dwtag  DW_TAG_TI_branch
    1193                            .dwattr $C$DW$156, DW_AT_low_pc(0x00)
    1194                            .dwattr $C$DW$156, DW_AT_name("VLIB_memalign")
    1195                            .dwattr $C$DW$156, DW_AT_TI_call
    1196                    
    1197 00000280 10000013!            CALLP   .S2     VLIB_memalign,B3
    1198 00000284 0210af82  ||         MPYU    .M2     B5,B4,B4          ; |95| 
    1199                    
    1200 00000288           $C$RL6:    ; CALL OCCURS {VLIB_memalign} {0}  ; |95| 
    1201                            .dwpsn  file "./../packages/ti/vlib/src/VLIB_grayscale_morphology/VLIB_grayscale_morphology_d.
    1202                    ;----------------------------------------------------------------------
    1203                    ;  96 | uint8_t   *struct_elem       = (uint8_t *) VLIB_memalign(8, prm[tpi].se
    1204                    ;     | _w * prm[tpi].se_h);                                                   
    1205                    ;----------------------------------------------------------------------
    1206 00000288 02b5c286             LDHU    .D2T2   *+B13(28),B5      ; |96| 
    1207 0000028c 0235a286             LDHU    .D2T2   *+B13(26),B4      ; |96| 
    1208                            .dwpsn  file "./../packages/ti/vlib/src/VLIB_grayscale_morphology/VLIB_grayscale_morphology_d.
    1209 00000290     aec5             STW     .D2T1   A4,*+SP(84)       ; |95| 
    1210                            .dwpsn  file "./../packages/ti/vlib/src/VLIB_grayscale_morphology/VLIB_grayscale_morphology_d.
TMS320C6x Assembler PC v7.4.2 Thu Mar 19 12:41:29 2015

Tools Copyright (c) 1996-2012 Texas Instruments Incorporated
package/lib/Regression/regress_d_c/./../packages/ti/vlib/src/VLIB_grayscale_morphology/VLIB_grayscale_morphology_d.se66 PAGE   23

    1211 00000292     0e26             MVK     .L1     0x8,A4            ; |96| 
    1212 00000294 00002000             NOP             2
    1213                    $C$DW$157       .dwtag  DW_TAG_TI_branch
    1214                            .dwattr $C$DW$157, DW_AT_low_pc(0x00)
    1215                            .dwattr $C$DW$157, DW_AT_name("VLIB_memalign")
    1216                            .dwattr $C$DW$157, DW_AT_TI_call
    1217                    
    1218 00000298 10000013!            CALLP   .S2     VLIB_memalign,B3
    1219 000002a0 0210af82  ||         MPYU    .M2     B5,B4,B4          ; |96| 
    1220                    
    1221 000002a4           $C$RL7:    ; CALL OCCURS {VLIB_memalign} {0}  ; |96| 
    1222                            .dwpsn  file "./../packages/ti/vlib/src/VLIB_grayscale_morphology/VLIB_grayscale_morphology_d.
    1223                    ;----------------------------------------------------------------------
    1224                    ;  97 | uint8_t   *struct_elem_refl  = (uint8_t *) VLIB_memalign(8, prm[tpi].se
    1225                    ;     | _w * prm[tpi].se_h);                                                   
    1226                    ;----------------------------------------------------------------------
    1227 000002a4 02b5c286             LDHU    .D2T2   *+B13(28),B5      ; |97| 
    1228 000002a8 0235a286             LDHU    .D2T2   *+B13(26),B4      ; |97| 
    1229                            .dwpsn  file "./../packages/ti/vlib/src/VLIB_grayscale_morphology/VLIB_grayscale_morphology_d.
    1230 000002ac     8ec5             STW     .D2T1   A4,*+SP(80)       ; |96| 
    1231                            .dwpsn  file "./../packages/ti/vlib/src/VLIB_grayscale_morphology/VLIB_grayscale_morphology_d.
    1232 000002ae     0e26             MVK     .L1     0x8,A4            ; |97| 
    1233 000002b0 00002000             NOP             2
    1234                    $C$DW$158       .dwtag  DW_TAG_TI_branch
    1235                            .dwattr $C$DW$158, DW_AT_low_pc(0x00)
    1236                            .dwattr $C$DW$158, DW_AT_name("VLIB_memalign")
    1237                            .dwattr $C$DW$158, DW_AT_TI_call
    1238                    
    1239 000002b8 10000012!            CALLP   .S2     VLIB_memalign,B3
    1240 000002b4 0210af83  ||         MPYU    .M2     B5,B4,B4          ; |97| 
    1241                    
    1242 000002c0           $C$RL8:    ; CALL OCCURS {VLIB_memalign} {0}  ; |97| 
    1243 000002c0           $C$DW$L$VLIB_grayscale_morphology_d$17$E:
    1244                    ;** --------------------------------------------------------------------------*
    1245 000002c0           $C$DW$L$VLIB_grayscale_morphology_d$18$B:
    1246                    ;          EXCLUSIVE CPU CYCLES: 22
    1247                    
    1248 000002c0     eead             LDW     .D2T1   *+SP(92),A2       ; |100| 
    1249 000002c2     0727  ||         ZERO    .L2     B6                ; |100| 
    1250 000002c4     05a6  ||         ZERO    .L1     A3                ; |100| 
    1251 000002c6     0293  ||         ZERO    .S2     B5                ; |100| 
    1252                    
    1253 000002c8     af0d             LDW     .D2T1   *+SP(100),A0      ; |100| 
    1254 000002ca     0627  ||         ZERO    .L2     B4                ; |100| 
    1255 000002cc     524f  ||         MV      .S2X    A4,B2             ; |100| 
    1256                    
    1257                            .dwpsn  file "./../packages/ti/vlib/src/VLIB_grayscale_morphology/VLIB_grayscale_morphology_d.
    1258                    ;----------------------------------------------------------------------
    1259                    ; 100 | if( input && output_opt && output_cn && scratch1 && scratch2 && struct_
    1260                    ;     | elem && struct_elem_refl ) {                                           
    1261                    ; 102 |     int32_t    fail;                                                   
    1262                    ; 103 |     int32_t    i, j;                                                   
    1263                    ; 104 |     int32_t    outPadX = ((operation == GRAYSCALE_MORPH_DILATE) || (ope
    1264                    ;     | ration == GRAYSCALE_MORPH_ERODE) ||                                    
    1265                    ; 105 |                           (operation == GRAYSCALE_MORPH_GRADIENT)) ? (p
TMS320C6x Assembler PC v7.4.2 Thu Mar 19 12:41:29 2015

Tools Copyright (c) 1996-2012 Texas Instruments Incorporated
package/lib/Regression/regress_d_c/./../packages/ti/vlib/src/VLIB_grayscale_morphology/VLIB_grayscale_morphology_d.se66 PAGE   24

    1266                    ;     | rm[tpi].se_w - 1) : 2 * (prm[tpi].se_w - 1);                           
    1267                    ; 106 |     int32_t    outPadY = ((operation == GRAYSCALE_MORPH_DILATE) || (ope
    1268                    ;     | ration == GRAYSCALE_MORPH_ERODE) ||                                    
    1269                    ; 107 |                           (operation == GRAYSCALE_MORPH_GRADIENT)) ? (p
    1270                    ;     | rm[tpi].se_h - 1) : 2 * (prm[tpi].se_h - 1);                           
    1271                    ;----------------------------------------------------------------------
    1272 000002ce     ce9d             LDW     .D2T1   *+SP(88),A1       ; |100| 
    1273 000002d0     9f0d             LDW     .D2T2   *+SP(96),B0       ; |100| 
    1274                    
    1275 000002d2     ee45             STW     .D2T1   A4,*+SP(76)       ; |97| 
    1276 000002d4     0626  ||         ZERO    .L1     A4                ; |100| 
    1277                    
    1278 000002d8 a304a35a     [ A2]   MVK     .L2     0x1,B6            ; |100| 
    1279 000002d6     aead  ||         LDW     .D2T1   *+SP(84),A2       ; |100| 
    1280                    
    1281 000002e0     2ae7     [ A0]   MVK     .L2     0x1,B5            ; |100| 
    1282                    
    1283 000002e4 8184a358     [ A1]   MVK     .L1     0x1,A3            ; |100| 
    1284 000002e2     8e9d  ||         LDW     .D2T1   *+SP(80),A1       ; |100| 
    1285                    
    1286 000002e8 2204a35a     [ B0]   MVK     .L2     0x1,B4            ; |100| 
    1287 000002ec 02148f7a             AND     .L2     B4,B5,B4          ; |100| 
    1288 000002f0 0210cf7a             AND     .L2     B6,B4,B4          ; |100| 
    1289 000002f4 a204a358     [ A2]   MVK     .L1     0x1,A4            ; |100| 
    1290                    
    1291 000002f8 02907f79             AND     .L1X    A3,B4,A5          ; |100| 
    1292 00000300     0192  ||         ZERO    .S1     A3                ; |100| 
    1293 00000302     0627  ||         ZERO    .L2     B4                ; |100| 
    1294                    
    1295 00000304 02148f79             AND     .L1     A4,A5,A4          ; |100| 
    1296 00000308 818000a9  || [ A1]   MVK     .S1     0x1,A3            ; |100| 
    1297 0000030c 6204a35a  || [ B2]   MVK     .L2     0x1,B4            ; |100| 
    1298                    
    1299 00000310 01906f78             AND     .L1     A3,A4,A3          ; |100| 
    1300                    
    1301 00000314     7608             AND     .L1X    B4,A3,A0          ; |100| 
    1302 00000316     bd4d  ||         LDW     .D2T2   *+SP(36),B4       ; |104| 
    1303                    
    1304 00000318 d0009a11     [!A0]   B       .S1     $C$L19            ; |100| 
    1305 00000324     2046  ||         MV      .L1     A0,A1             ; |100| branch predicate copy
    1306 00000320 c1afd9f1  || [ A0]   AND     .D1X    -2,B11,A3         ; |104| 
    1307                    
    1308 00000328 c20c0a59     [ A0]   CMPEQ   .L1     A3,0,A4           ; |104| 
    1309 00000326     3047  ||         MV      .L2X    A0,B1             ; guard predicate rewrite
    1310 0000032c 9335a286  || [!A1]   LDHU    .D2T2   *+B13(26),B6      ; |162| 
    1311                    
    1312 00000330 92b5c287     [!A1]   LDHU    .D2T2   *+B13(28),B5      ; |162| 
    1313 00000334 c2acda58  || [ A0]   CMPEQ   .L1X    B11,6,A5          ; |104| 
    1314                    
    1315 00000338 c190aff9     [ A0]   OR      .L1     A5,A4,A3          ; |104| 
    1316 00000340 94354286  || [!A1]   LDHU    .D2T2   *+B13(20),B8      ; |162| 
    1317                    
    1318 00000344 c00c0fd9     [ A0]   MV      .L1     A3,A0             ; |104| 
    1319 00000348 41be42f4  || [ B1]   STW     .D2T1   A3,*+SP(72)       ; |104| 
    1320                    
TMS320C6x Assembler PC v7.4.2 Thu Mar 19 12:41:29 2015

Tools Copyright (c) 1996-2012 Texas Instruments Incorporated
package/lib/Regression/regress_d_c/./../packages/ti/vlib/src/VLIB_grayscale_morphology/VLIB_grayscale_morphology_d.se66 PAGE   25

    1321 0000034c d191d079     [!A0]   ADD     .L1X    B4,A14,A3
    1322 00000350 923502e6  || [!A1]   LDW     .D2T2   *+B13(32),B4      ; |162| 
    1323                    
    1324                               ; BRANCHCC OCCURS {$C$L19}        ; |100| 
    1325 00000354           $C$DW$L$VLIB_grayscale_morphology_d$18$E:
    1326                    ;** --------------------------------------------------------------------------*
    1327 00000354           $C$DW$L$VLIB_grayscale_morphology_d$19$B:
    1328                    ;          EXCLUSIVE CPU CYCLES: 12
    1329                    ;** 104 -----------------------    v$1 = prm;
    1330                    ;**     -----------------------    K$102 = 255;
    1331                    ;**     -----------------------    U$105 = (unsigned char)operation;
    1332                    ;** 104 -----------------------    if ( U$72 = ((operation&0xfffffffe) == 0)|(operation == 6) ) goto g
    1333                    ;** 104 -----------------------    outPadX = ((*U$32).se_w-1)*2;
    1334                    ;**     -----------------------    U$78 = U$31+v$1;
    1335                    ;** 104 -----------------------    goto g16;
    1336                    ;**     -----------------------g15:
    1337                    ;** 104 -----------------------    U$78 = U$31+v$1;
    1338                    ;** 104 -----------------------    outPadX = (*U$78).se_w-1;
    1339                    ;**     -----------------------g16:
    1340                    ;** 106 -----------------------    U$72 ? (outPadY = (*U$78).se_h-1) : (outPadY = ((*U$78).se_h-1)*2);
    1341                    ;** 110 -----------------------    VLIB_fillBuffer((*U$78).testPattern, 0u, (void *)input, (*U$78).sta
    1342                    ;** 116 -----------------------    C$11 = (*U$32).se_w;
    1343                    ;** 116 -----------------------    copyRoi((void *)struct_elem, (*U$32).se_ptr, C$11, (*U$32).se_h, C$
    1344                    ;** 117 -----------------------    C$10 = (*U$32).se_w;
    1345                    ;** 117 -----------------------    copyRoi((void *)struct_elem_refl, (*U$32).se_reflc_ptr, C$10, (*U$3
    1346                    ;** 120 -----------------------    memset((void *)output_opt, 0, 4u);
    1347                    ;** 121 -----------------------    memset((void *)output_cn, K$102, 4u);
    1348                    ;** 137 -----------------------    act_kernel = 0;  // [16]
    1349                    ;** 140 -----------------------    VLIB_cache_inval();  // [16]
    1350                    ;** 143 -----------------------    initStack(getSP());  // [16]
    1351                    ;** 146 -----------------------    beg_count = _itoll(TSCH, TSCL);  // [16]
    1352                    ;** 125 -----------------------    VLIB_grayscale_morphology((*U$32).imageWidth, (*U$32).imagePitch, (
    1353                    ;** 153 -----------------------    v$2 = _itoll(TSCH, TSCL);  // [17]
    1354                    ;** 153 -----------------------    end_count = v$2;  // [17]
    1355                    ;**     -----------------------    K$111 = &cycles[0];
    1356                    ;** 156 -----------------------    C$9 = act_kernel;  // [17]
    1357                    ;** 156 -----------------------    *((C$9<<3)+K$111) = *((C$9<<3)+K$111)+(v$2-(beg_count+overhead));  
    1358                    ;** 159 -----------------------    setStackDepth();  // [17]
    1359                    ;** 137 -----------------------    act_kernel = 1;  // [16]
    1360                    ;** 140 -----------------------    VLIB_cache_inval();  // [16]
    1361                    
    1362 00000354 c191d079     [ A0]   ADD     .L1X    B4,A14,A3         ; |104| 
    1363 00000358 d68dc204  || [!A0]   LDHU    .D1T1   *+A3(28),A13      ; |106| 
    1364                    
    1365                            .dwpsn  file "./../packages/ti/vlib/src/VLIB_grayscale_morphology/VLIB_grayscale_morphology_d.
    1366                    ;----------------------------------------------------------------------
    1367                    ; 110 | VLIB_fillBuffer(prm[tpi].testPattern,                                  
    1368                    ; 111 |                 (uint8_t)0,                                            
    1369                    ; 112 |                 input, prm[tpi].staticIn,                              
    1370                    ; 113 |                 prm[tpi].imageWidth, prm[tpi].imageHeight, prm[tpi].ima
    1371                    ;     | gePitch,                                                               
    1372                    ; 114 |                 sizeof(uint8_t), testPatternString);                   
    1373                    ;----------------------------------------------------------------------
    1374 0000035c 040d6206             LDHU    .D1T2   *+A3(22),B8       ; |110| 
    1375 00000360 040d4204             LDHU    .D1T1   *+A3(20),A8       ; |110| 
TMS320C6x Assembler PC v7.4.2 Thu Mar 19 12:41:29 2015

Tools Copyright (c) 1996-2012 Texas Instruments Incorporated
package/lib/Regression/regress_d_c/./../packages/ti/vlib/src/VLIB_grayscale_morphology/VLIB_grayscale_morphology_d.se66 PAGE   26

    1376 00000364 050d8204             LDHU    .D1T1   *+A3(24),A10      ; |110| 
    1377 00000368 020c0214             LDBU    .D1T1   *A3,A4            ; |110| 
    1378                    
    1379 0000036c 030c2267             LDW     .D1T2   *+A3(4),B6        ; |110| 
    1380 00000370 d7b5a284  || [!A0]   LDHU    .D2T1   *+B13(26),A15     ; |104| 
    1381                    
    1382                    $C$DW$159       .dwtag  DW_TAG_TI_branch
    1383                            .dwattr $C$DW$159, DW_AT_low_pc(0x00)
    1384                            .dwattr $C$DW$159, DW_AT_name("VLIB_fillBuffer")
    1385                            .dwattr $C$DW$159, DW_AT_TI_call
    1386                    
    1387 00000374 00000011!            CALL    .S1     VLIB_fillBuffer   ; |110| 
    1388 00000378 c68da204  || [ A0]   LDHU    .D1T1   *+A3(26),A13      ; |104| 
    1389                    
    1390 0000037c c60dc207     [ A0]   LDHU    .D1T2   *+A3(28),B12      ; |106| 
    1391 00000380 033f22e4  ||         LDW     .D2T1   *+SP(100),A6      ; |106| 
    1392                    
    1393 00000384 06000028!            MVKL    .S1     testPatternString,A12
    1394 00000388 06000068!            MVKH    .S1     testPatternString,A12
    1395 0000038c 01860162             ADDKPC  .S2     $C$RL9,B3,0       ; |110| 
    1396                    
    1397 00000390 0504a35b             MVK     .L2     0x1,B10           ; |110| 
    1398 00000394 0200002a  ||         ZERO    .S2     B4                ; |110| 
    1399                    
    1400 00000398           $C$RL9:    ; CALL OCCURS {VLIB_fillBuffer} {0}  ; |110| 
    1401 00000398           $C$DW$L$VLIB_grayscale_morphology_d$19$E:
    1402                    ;** --------------------------------------------------------------------------*
    1403 00000398           $C$DW$L$VLIB_grayscale_morphology_d$20$B:
    1404                    ;          EXCLUSIVE CPU CYCLES: 115
    1405                            .dwpsn  file "./../packages/ti/vlib/src/VLIB_grayscale_morphology/VLIB_grayscale_morphology_d.
    1406                    ;----------------------------------------------------------------------
    1407                    ; 116 | copyRoi(struct_elem, prm[tpi].se_ptr, prm[tpi].se_w, prm[tpi].se_h, prm
    1408                    ;     | [tpi].se_w, sizeof (uint8_t));                                         
    1409                    ;----------------------------------------------------------------------
    1410 00000398 0335a284             LDHU    .D2T1   *+B13(26),A6      ; |116| 
    1411 0000039c 0335c286             LDHU    .D2T2   *+B13(28),B6      ; |116| 
    1412 000003a0 023e82e4             LDW     .D2T1   *+SP(80),A4       ; |116| 
    1413 000003a4 023462e6             LDW     .D2T2   *+B13(12),B4      ; |116| 
    1414 000003a8 04280fda             MV      .L2     B10,B8            ; |116| 
    1415                    $C$DW$160       .dwtag  DW_TAG_TI_branch
    1416                            .dwattr $C$DW$160, DW_AT_low_pc(0x00)
    1417                            .dwattr $C$DW$160, DW_AT_name("copyRoi")
    1418                            .dwattr $C$DW$160, DW_AT_TI_call
    1419                    
    1420 000003ac 10000013!            CALLP   .S2     copyRoi,B3
    1421 000003b0 04180fd8  ||         MV      .L1     A6,A8             ; |116| 
    1422                    
    1423 000003b4           $C$RL10:   ; CALL OCCURS {copyRoi} {0}       ; |116| 
    1424                            .dwpsn  file "./../packages/ti/vlib/src/VLIB_grayscale_morphology/VLIB_grayscale_morphology_d.
    1425                    ;----------------------------------------------------------------------
    1426                    ; 117 | copyRoi(struct_elem_refl, prm[tpi].se_reflc_ptr, prm[tpi].se_w, prm[tpi
    1427                    ;     | ].se_h, prm[tpi].se_w, sizeof (uint8_t));                              
    1428                    ;----------------------------------------------------------------------
    1429 000003b4 0335a284             LDHU    .D2T1   *+B13(26),A6      ; |117| 
    1430 000003b8 023482e6             LDW     .D2T2   *+B13(16),B4      ; |117| 
TMS320C6x Assembler PC v7.4.2 Thu Mar 19 12:41:29 2015

Tools Copyright (c) 1996-2012 Texas Instruments Incorporated
package/lib/Regression/regress_d_c/./../packages/ti/vlib/src/VLIB_grayscale_morphology/VLIB_grayscale_morphology_d.se66 PAGE   27

    1431 000003bc 023e62e4             LDW     .D2T1   *+SP(76),A4       ; |117| 
    1432 000003c0 0335c286             LDHU    .D2T2   *+B13(28),B6      ; |117| 
    1433 000003c4 04280fda             MV      .L2     B10,B8            ; |117| 
    1434                    $C$DW$161       .dwtag  DW_TAG_TI_branch
    1435                            .dwattr $C$DW$161, DW_AT_low_pc(0x00)
    1436                            .dwattr $C$DW$161, DW_AT_name("copyRoi")
    1437                            .dwattr $C$DW$161, DW_AT_TI_call
    1438                    
    1439 000003c8 10000013!            CALLP   .S2     copyRoi,B3
    1440 000003cc 04180fd8  ||         MV      .L1     A6,A8             ; |117| 
    1441                    
    1442                    $C$RL11:   ; CALL OCCURS {copyRoi} {0}       ; |117| 
    1443                    $C$DW$162       .dwtag  DW_TAG_TI_branch
    1444                            .dwattr $C$DW$162, DW_AT_low_pc(0x00)
    1445                            .dwattr $C$DW$162, DW_AT_name("memset")
    1446                            .dwattr $C$DW$162, DW_AT_TI_call
    1447                    
    1448 000003d0 10000013!            CALLP   .S2     memset,B3
    1449 000003d4     8f4d  ||         LDW     .D2T1   *+SP(96),A4       ; |120| 
    1450 000003d6     8726  ||         MVK     .L1     0x4,A6            ; |120| 
    1451 000003d8     0627  ||         ZERO    .L2     B4                ; |120| 
    1452                    
    1453                            .dwpsn  file "./../packages/ti/vlib/src/VLIB_grayscale_morphology/VLIB_grayscale_morphology_d.
    1454                    ;----------------------------------------------------------------------
    1455                    ; 120 | memset(output_opt, 0, sizeof(output_opt));                             
    1456                    ;----------------------------------------------------------------------
    1457 000003da           $C$RL12:   ; CALL OCCURS {memset} {0}        ; |120| 
    1458 000003da     fe73             MVK     .S2     0xff,B4
    1459                    $C$DW$163       .dwtag  DW_TAG_TI_branch
    1460                            .dwattr $C$DW$163, DW_AT_low_pc(0x00)
    1461                            .dwattr $C$DW$163, DW_AT_name("memset")
    1462                            .dwattr $C$DW$163, DW_AT_TI_call
    1463                    
    1464 000003e0 10000013!            CALLP   .S2     memset,B3
    1465 000003e4     eecd  ||         LDW     .D2T1   *+SP(92),A4       ; |121| 
    1466 000003e6     8726  ||         MVK     .L1     0x4,A6            ; |121| 
    1467                    
    1468                            .dwpsn  file "./../packages/ti/vlib/src/VLIB_grayscale_morphology/VLIB_grayscale_morphology_d.
    1469                    ;----------------------------------------------------------------------
    1470                    ; 121 | memset(output_cn, 0xff, sizeof(output_cn));                            
    1471                    ; 124 | VLIB_profile_start(vlib_KERNEL_OPT);                                   
    1472                    ; 125 | VLIB_grayscale_morphology(prm[tpi].imageWidth, prm[tpi].imagePitch, prm
    1473                    ;     | [tpi].imageHeight,                                                     
    1474                    ; 126 |                           input, prm[tpi].se_w, prm[tpi].se_h, struct_e
    1475                    ;     | lem, struct_elem_refl,                                                 
    1476                    ; 127 |                           scratch1, scratch2, output_opt, operation);  
    1477                    ; 128 | VLIB_profile_stop();                                                   
    1478                    ; 131 | VLIB_profile_start(vlib_KERNEL_CN);                                    
    1479                    ; 132 | VLIB_grayscale_morphology_cn(prm[tpi].imageWidth, prm[tpi].imagePitch,
    1480                    ;     | prm[tpi].imageHeight,                                                  
    1481                    ; 133 |                              input, prm[tpi].se_w, prm[tpi].se_h, struc
    1482                    ;     | t_elem, struct_elem_refl,                                              
    1483                    ; 134 |                              scratch1, scratch2, output_cn, operation);
    1484                    ; 135 | VLIB_profile_stop();                                                   
    1485                    ; 138 | for( i=0; i < (prm[tpi].imageHeight - outPadY); i++ ) {                
TMS320C6x Assembler PC v7.4.2 Thu Mar 19 12:41:29 2015

Tools Copyright (c) 1996-2012 Texas Instruments Incorporated
package/lib/Regression/regress_d_c/./../packages/ti/vlib/src/VLIB_grayscale_morphology/VLIB_grayscale_morphology_d.se66 PAGE   28

    1486                    ; 139 |     for( j=0; j < (prm[tpi].imageWidth - outPadX); j++ ) {             
    1487                    ;----------------------------------------------------------------------
    1488 000003e8           $C$RL13:   ; CALL OCCURS {memset} {0}        ; |121| 
    1489 000003e8 01800028!            MVKL    .S1     act_kernel,A3
    1490                    
    1491 000003ec 01800069!            MVKH    .S1     act_kernel,A3
    1492 000003f0 0200a35a  ||         ZERO    .L2     B4                ; |137| 
    1493                    
    1494                    $C$DW$164       .dwtag  DW_TAG_TI_branch
    1495                            .dwattr $C$DW$164, DW_AT_low_pc(0x00)
    1496                            .dwattr $C$DW$164, DW_AT_name("VLIB_cache_inval")
    1497                            .dwattr $C$DW$164, DW_AT_TI_call
    1498                    
    1499 000003f4 10000013!            CALLP   .S2     VLIB_cache_inval,B3
    1500 000003f8 020c0276  ||         STW     .D1T2   B4,*A3            ; |137| 
    1501                    
    1502                            .dwpsn  file ".\..\packages\ti\vlib\src\VLIB_grayscale_morphology\..\common\VLIB_profile.h",li
    1503                    ;----------------------------------------------------------------------
    1504                    ; 140 | if( output_opt[i * prm[tpi].imageWidth + j] != output_cn[i * prm[tpi].i
    1505                    ;     | magePitch + j] ) {                                                     
    1506                    ; 141 |     status_nat_vs_int = vlib_KERNEL_FAIL;                              
    1507                    ; 142 |     printf("row:%d, col:%d, out:%u, EOut:%u \n", i, j, output_opt[i * p
    1508                    ;     | rm[tpi].imageWidth + j], output_cn[i * prm[tpi].imageWidth + j]);      
    1509                    ;----------------------------------------------------------------------
    1510                    $C$RL14:   ; CALL OCCURS {VLIB_cache_inval} {0}  ; |140| 
    1511                    $C$DW$165       .dwtag  DW_TAG_TI_branch
    1512                            .dwattr $C$DW$165, DW_AT_low_pc(0x00)
    1513                            .dwattr $C$DW$165, DW_AT_name("getSP")
    1514                            .dwattr $C$DW$165, DW_AT_TI_call
    1515 00000400 10000012!            CALLP   .S2     getSP,B3
    1516                            .dwpsn  file ".\..\packages\ti\vlib\src\VLIB_grayscale_morphology\..\common\VLIB_profile.h",li
    1517                    ;----------------------------------------------------------------------
    1518                    ; 143 | break;                                                                 
    1519                    ;----------------------------------------------------------------------
    1520                    $C$RL15:   ; CALL OCCURS {getSP} {0}         ; |143| 
    1521                    $C$DW$166       .dwtag  DW_TAG_TI_branch
    1522                            .dwattr $C$DW$166, DW_AT_low_pc(0x00)
    1523                            .dwattr $C$DW$166, DW_AT_name("initStack")
    1524                            .dwattr $C$DW$166, DW_AT_TI_call
    1525 00000404 10000012!            CALLP   .S2     initStack,B3
    1526 00000408           $C$RL16:   ; CALL OCCURS {initStack} {0}     ; |143| 
    1527                            .dwpsn  file "./../packages/ti/vlib/src/VLIB_grayscale_morphology/VLIB_grayscale_morphology_d.
    1528 00000408 003e42e4             LDW     .D2T1   *+SP(72),A0       ; |110| 
    1529 0000040c 02af180a             EXTU    .S2     B11,24,24,B5
    1530 00000410 00004000             NOP             3
    1531                    
    1532 00000414 d1bfe059     [!A0]   SUB     .L1     A15,1,A3          ; |104| 
    1533 00000418 d237f05a  || [!A0]   SUB     .L2X    A13,1,B4          ; |106| 
    1534                    
    1535 0000041c d78c6079     [!A0]   ADD     .L1     A3,A3,A15         ; |104| 
    1536 00000420 d210807b  || [!A0]   ADD     .L2     B4,B4,B4          ; |106| 
    1537 00000424 c7b7e1a1  || [ A0]   SUB     .S1     A13,1,A15         ; |104| 
    1538 00000428 c23029c3  || [ A0]   SUB     .D2     B12,1,B4          ; |106| 
    1539 0000042c 032803e2  ||         MVC     .S2     TSCL,B6           ; |146| 
    1540                    
TMS320C6x Assembler PC v7.4.2 Thu Mar 19 12:41:29 2015

Tools Copyright (c) 1996-2012 Texas Instruments Incorporated
package/lib/Regression/regress_d_c/./../packages/ti/vlib/src/VLIB_grayscale_morphology/VLIB_grayscale_morphology_d.se66 PAGE   29

    1541                            .dwpsn  file ".\..\packages\ti\vlib\src\VLIB_grayscale_morphology\..\common\VLIB_profile.h",li
    1542                    ;----------------------------------------------------------------------
    1543                    ; 149 | fail = (status_nat_vs_int == vlib_KERNEL_FAIL) ? 1 : 0;                
    1544                    ; 151 | est_test=1;                                                            
    1545                    ;----------------------------------------------------------------------
    1546 00000430 c23e42f6     [ A0]   STW     .D2T2   B4,*+SP(72)       ; |146| 
    1547                    
    1548 00000434 d23e42f7     [!A0]   STW     .D2T2   B4,*+SP(72)       ; |146| 
    1549 00000438 022c03e2  ||         MVC     .S2     TSCH,B4           ; |146| 
    1550                    
    1551                            .dwpsn  file "./../packages/ti/vlib/src/VLIB_grayscale_morphology/VLIB_grayscale_morphology_d.
    1552 0000043c 01bf02e4             LDW     .D2T1   *+SP(96),A3       ; |125| 
    1553 00000440 02bd02b6             STB     .D2T2   B5,*+SP(8)        ; |125| 
    1554 00000444 02354284             LDHU    .D2T1   *+B13(20),A4      ; |125| 
    1555 00000448 03356284             LDHU    .D2T1   *+B13(22),A6      ; |125| 
    1556 0000044c 0435c286             LDHU    .D2T2   *+B13(28),B8      ; |125| 
    1557 00000450 0435a284             LDHU    .D2T1   *+B13(26),A8      ; |125| 
    1558 00000454 063ec2e4             LDW     .D2T1   *+SP(88),A12      ; |125| 
    1559 00000458 053e82e4             LDW     .D2T1   *+SP(80),A10      ; |125| 
    1560 0000045c 063ea2e6             LDW     .D2T2   *+SP(84),B12      ; |125| 
    1561                    
    1562 00000460 06800029!            MVKL    .S1     beg_count,A13
    1563 00000464 053e62e6  ||         LDW     .D2T2   *+SP(76),B10      ; |125| 
    1564                    
    1565 00000468 06800069!            MVKH    .S1     beg_count,A13
    1566 00000470     e247  ||         MV      .L2     B4,B7             ; |146| 
    1567 0000046c 02358287  ||         LDHU    .D2T2   *+B13(24),B4      ; |125| 
    1568                    
    1569 00000474 03340346             STDW    .D1T2   B7:B6,*A13        ; |146| 
    1570 00000472     ac35  ||         STW     .D2T1   A3,*+SP(4)        ; |125| 
    1571                    
    1572                    $C$DW$167       .dwtag  DW_TAG_TI_branch
    1573                            .dwattr $C$DW$167, DW_AT_low_pc(0x00)
    1574                            .dwattr $C$DW$167, DW_AT_name("VLIB_grayscale_morphology")
    1575                            .dwattr $C$DW$167, DW_AT_TI_call
    1576                    
    1577 00000478 10000013!            CALLP   .S2     VLIB_grayscale_morphology,B3
    1578 00000480 033f22e6  ||         LDW     .D2T2   *+SP(100),B6      ; |125| 
    1579                    
    1580 00000484           $C$RL17:   ; CALL OCCURS {VLIB_grayscale_morphology} {0}  ; |125| 
    1581                            .dwpsn  file ".\..\packages\ti\vlib\src\VLIB_grayscale_morphology\..\common\VLIB_profile.h",li
    1582                    ;----------------------------------------------------------------------
    1583                    ; 154 | sprintf(desc, "%s generated input | Opt and NatC results compared | blk
    1584                    ;     | _w= %d, blk_h= %d, se_w= %d, se_h= %d | %s",                           
    1585                    ; 155 |         testPatternString, prm[tpi].imageWidth, prm[tpi].imageHeight, p
    1586                    ;     | rm[tpi].se_w, prm[tpi].se_h, prm[tpi].desc);                           
    1587                    ;----------------------------------------------------------------------
    1588 00000484 042803e2             MVC     .S2     TSCL,B8           ; |153| 
    1589 00000488 04ac03e2             MVC     .S2     TSCH,B9           ; |153| 
    1590 0000048c 01800028!            MVKL    .S1     act_kernel,A3
    1591                    
    1592 00000490 01800069!            MVKH    .S1     act_kernel,A3
    1593 00000494 0200002a! ||         MVKL    .S2     overhead,B4
    1594                    
    1595 00000498 040c0265             LDW     .D1T1   *A3,A8            ; |156| 
TMS320C6x Assembler PC v7.4.2 Thu Mar 19 12:41:29 2015

Tools Copyright (c) 1996-2012 Texas Instruments Incorporated
package/lib/Regression/regress_d_c/./../packages/ti/vlib/src/VLIB_grayscale_morphology/VLIB_grayscale_morphology_d.se66 PAGE   30

    1596 0000049c 0200006a! ||         MVKH    .S2     overhead,B4
    1597                    
    1598 000004a0 0f80002b!            MVKL    .S2     cycles,B31
    1599 000004a4 05340fd8  ||         MV      .L1     A13,A10
    1600                    
    1601 000004a8 0f80006b!            MVKH    .S2     cycles,B31
    1602 000004ac 031003e7  ||         LDDW    .D2T2   *B4,B7:B6         ; |156| 
    1603 000004b0 02280364  ||         LDDW    .D1T1   *A10,A5:A4        ; |156| 
    1604                    
    1605 000004b4 01800028!            MVKL    .S1     end_count,A3
    1606 000004b8 06fc1fd8             MV      .L1X    B31,A13
    1607                            .dwpsn  file ".\..\packages\ti\vlib\src\VLIB_grayscale_morphology\..\common\VLIB_profile.h",li
    1608                    ;----------------------------------------------------------------------
    1609                    ; 157 | VLIB_formula_add_test((prm[tpi].imageWidth - prm[tpi].se_w + 1) * (prm[
    1610                    ;     | tpi].imageHeight - prm[tpi].se_h + 1) *                                
    1611                    ; 158 |                       prm[tpi].se_w * prm[tpi].se_h, NULL, NULL, fail,
    1612                    ;     | desc, NULL);                                                           
    1613                    ;----------------------------------------------------------------------
    1614 000004bc 03350b64             LDDW    .D1T1   *+A13[A8],A7:A6   ; |156| 
    1615 000004c0 01800068!            MVKH    .S1     end_count,A3
    1616 000004c4 0210d57a             ADDU    .L2X    B6,A4,B5:B4       ; |156| 
    1617                    
    1618 000004c8 021ca1e3             ADD     .S2     B5,B7,B4          ; |156| 
    1619 000004cc 031105fa  ||         SUBU    .L2     B8,B4,B7:B6       ; |156| 
    1620                    
    1621 000004d0 0814907a             ADD     .L2X    B4,A5,B16         ; |156| 
    1622 000004d4 0218d57a             ADDU    .L2X    A6,B6,B5:B4       ; |156| 
    1623                    
    1624 000004d8 034120fb             SUB     .L2     B9,B16,B6         ; |156| 
    1625 000004dc 039f184a  ||         EXT     .S2     B7,24,24,B7       ; |156| 
    1626                    
    1627 000004e0     9246             MV      .L1X    B4,A4             ; |156| 
    1628 000004e2     c3c1  ||         ADD     .L2     B6,B7,B4          ; |156| 
    1629                    
    1630 000004e4     f2d0             ADD     .L1X    B5,A7,A5          ; |156| 
    1631                    
    1632 000004e6     b250             ADD     .L1X    A5,B4,A5          ; |156| 
    1633 000004e8 040c0346  ||         STDW    .D1T2   B9:B8,*A3         ; |153| 
    1634                    
    1635                    $C$DW$168       .dwtag  DW_TAG_TI_branch
    1636                            .dwattr $C$DW$168, DW_AT_low_pc(0x00)
    1637                            .dwattr $C$DW$168, DW_AT_name("setStackDepth")
    1638                            .dwattr $C$DW$168, DW_AT_TI_call
    1639                    
    1640 000004ec 10000013!            CALLP   .S2     setStackDepth,B3
    1641 000004f0 02350b44  ||         STDW    .D1T1   A5:A4,*+A13[A8]   ; |156| 
    1642                    
    1643                            .dwpsn  file ".\..\packages\ti\vlib\src\VLIB_grayscale_morphology\..\common\VLIB_profile.h",li
    1644 000004f4           $C$RL18:   ; CALL OCCURS {setStackDepth} {0}  ; |159| 
    1645 000004f4 01800028!            MVKL    .S1     act_kernel,A3
    1646                    
    1647 000004f8 01800069!            MVKH    .S1     act_kernel,A3
    1648 00000500 0204a35a  ||         MVK     .L2     1,B4              ; |137| 
    1649                    
    1650                    $C$DW$169       .dwtag  DW_TAG_TI_branch
TMS320C6x Assembler PC v7.4.2 Thu Mar 19 12:41:29 2015

Tools Copyright (c) 1996-2012 Texas Instruments Incorporated
package/lib/Regression/regress_d_c/./../packages/ti/vlib/src/VLIB_grayscale_morphology/VLIB_grayscale_morphology_d.se66 PAGE   31

    1651                            .dwattr $C$DW$169, DW_AT_low_pc(0x00)
    1652                            .dwattr $C$DW$169, DW_AT_name("VLIB_cache_inval")
    1653                            .dwattr $C$DW$169, DW_AT_TI_call
    1654                    
    1655 00000504 10000013!            CALLP   .S2     VLIB_cache_inval,B3
    1656 00000508 020c0276  ||         STW     .D1T2   B4,*A3            ; |137| 
    1657                    
    1658                            .dwpsn  file ".\..\packages\ti\vlib\src\VLIB_grayscale_morphology\..\common\VLIB_profile.h",li
    1659                    $C$RL19:   ; CALL OCCURS {VLIB_cache_inval} {0}  ; |140| 
    1660                    $C$DW$L$VLIB_grayscale_morphology_d$20$E:
    1661                    ;** --------------------------------------------------------------------------*
    1662                    $C$DW$L$VLIB_grayscale_morphology_d$21$B:
    1663                    ;          EXCLUSIVE CPU CYCLES: 6
    1664                    ;** 143 -----------------------    initStack(getSP());  // [16]
    1665                    ;** 146 -----------------------    beg_count = _itoll(TSCH, TSCL);  // [16]
    1666                    ;** 132 -----------------------    VLIB_grayscale_morphology_cn((*U$32).imageWidth, (*U$32).imagePitch
    1667                    ;** 153 -----------------------    v$2 = _itoll(TSCH, TSCL);  // [17]
    1668                    ;** 153 -----------------------    end_count = v$2;  // [17]
    1669                    ;** 156 -----------------------    C$8 = act_kernel;  // [17]
    1670                    ;** 156 -----------------------    *((C$8<<3)+K$111) = *((C$8<<3)+K$111)+(v$2-(beg_count+overhead));  
    1671                    ;** 159 -----------------------    setStackDepth();  // [17]
    1672                    ;** 138 -----------------------    v$1 = prm;
    1673                    ;** 88  -----------------------    status_nat_vs_int = 1;
    1674                    ;** 138 -----------------------    if ( (*U$32).imageHeight-outPadY <= 0 ) goto g24;
    1675                    $C$DW$170       .dwtag  DW_TAG_TI_branch
    1676                            .dwattr $C$DW$170, DW_AT_low_pc(0x00)
    1677                            .dwattr $C$DW$170, DW_AT_name("getSP")
    1678                            .dwattr $C$DW$170, DW_AT_TI_call
    1679 0000050c 10000012!            CALLP   .S2     getSP,B3
    1680                            .dwpsn  file ".\..\packages\ti\vlib\src\VLIB_grayscale_morphology\..\common\VLIB_profile.h",li
    1681                    $C$RL20:   ; CALL OCCURS {getSP} {0}         ; |143| 
    1682                    $C$DW$L$VLIB_grayscale_morphology_d$21$E:
    1683                    ;** --------------------------------------------------------------------------*
    1684                    $C$DW$L$VLIB_grayscale_morphology_d$22$B:
    1685                    ;          EXCLUSIVE CPU CYCLES: 49
    1686                    $C$DW$171       .dwtag  DW_TAG_TI_branch
    1687                            .dwattr $C$DW$171, DW_AT_low_pc(0x00)
    1688                            .dwattr $C$DW$171, DW_AT_name("initStack")
    1689                            .dwattr $C$DW$171, DW_AT_TI_call
    1690 00000510 10000012!            CALLP   .S2     initStack,B3
    1691 00000514           $C$RL21:   ; CALL OCCURS {initStack} {0}     ; |143| 
    1692                            .dwpsn  file ".\..\packages\ti\vlib\src\VLIB_grayscale_morphology\..\common\VLIB_profile.h",li
    1693 00000514 032803e2             MVC     .S2     TSCL,B6           ; |146| 
    1694 00000518 022c03e2             MVC     .S2     TSCH,B4           ; |146| 
    1695 0000051c 023ee2e4             LDW     .D2T1   *+SP(92),A4       ; |146| 
    1696                            .dwpsn  file "./../packages/ti/vlib/src/VLIB_grayscale_morphology/VLIB_grayscale_morphology_d.
    1697 00000520 05bc42f6             STW     .D2T2   B11,*+SP(8)       ; |132| 
    1698 00000524 0435c286             LDHU    .D2T2   *+B13(28),B8      ; |132| 
    1699 00000528 0435a284             LDHU    .D2T1   *+B13(26),A8      ; |132| 
    1700 0000052c 03356284             LDHU    .D2T1   *+B13(22),A6      ; |132| 
    1701                    
    1702 00000530     6506             MV      .L1     A10,A3            ; |132| 
    1703 00000532     e247  ||         MV      .L2     B4,B7             ; |146| 
    1704 00000534 053e82e4  ||         LDW     .D2T1   *+SP(80),A10      ; |132| 
    1705                    
TMS320C6x Assembler PC v7.4.2 Thu Mar 19 12:41:29 2015

Tools Copyright (c) 1996-2012 Texas Instruments Incorporated
package/lib/Regression/regress_d_c/./../packages/ti/vlib/src/VLIB_grayscale_morphology/VLIB_grayscale_morphology_d.se66 PAGE   32

    1706 00000540 023c22f4             STW     .D2T1   A4,*+SP(4)        ; |132| 
    1707 00000538 030c0347  ||         STDW    .D1T2   B7:B6,*A3         ; |146| 
    1708                    
    1709 00000544 02358286             LDHU    .D2T2   *+B13(24),B4      ; |132| 
    1710 00000548 033f22e6             LDW     .D2T2   *+SP(100),B6      ; |132| 
    1711                    $C$DW$172       .dwtag  DW_TAG_TI_branch
    1712                            .dwattr $C$DW$172, DW_AT_low_pc(0x00)
    1713                            .dwattr $C$DW$172, DW_AT_name("VLIB_grayscale_morphology_cn")
    1714                            .dwattr $C$DW$172, DW_AT_TI_call
    1715                    
    1716 0000054c 10000013!            CALLP   .S2     VLIB_grayscale_morphology_cn,B3
    1717 00000550 02354284  ||         LDHU    .D2T1   *+B13(20),A4      ; |132| 
    1718                    
    1719 00000554           $C$RL22:   ; CALL OCCURS {VLIB_grayscale_morphology_cn} {0}  ; |132| 
    1720                            .dwpsn  file ".\..\packages\ti\vlib\src\VLIB_grayscale_morphology\..\common\VLIB_profile.h",li
    1721 00000554 022803e2             MVC     .S2     TSCL,B4           ; |153| 
    1722 00000558 02ac03e2             MVC     .S2     TSCH,B5           ; |153| 
    1723 0000055c 01800028!            MVKL    .S1     act_kernel,A3
    1724 00000560 02000028!            MVKL    .S1     overhead,A4
    1725 00000564 01800068!            MVKH    .S1     act_kernel,A3
    1726 00000568 02000068!            MVKH    .S1     overhead,A4
    1727                    
    1728 0000056c 040c0265             LDW     .D1T1   *A3,A8            ; |156| 
    1729 00000570 0f800028! ||         MVKL    .S1     beg_count,A31
    1730                    
    1731 00000578     d247             MV      .L2X    A4,B6             ; |156| 
    1732 00000574 0f800069! ||         MVKH    .S1     beg_count,A31
    1733                    
    1734 0000057a     116d             LDDW    .D2T2   *B6,B7:B6         ; |156| 
    1735 00000580 027c0364  ||         LDDW    .D1T1   *A31,A5:A4        ; |156| 
    1736                    
    1737 00000584 01800028!            MVKL    .S1     end_count,A3
    1738 00000588 01800068!            MVKH    .S1     end_count,A3
    1739                            .dwpsn  file ".\..\packages\ti\vlib\src\VLIB_grayscale_morphology\..\common\VLIB_profile.h",li
    1740 0000058c 03350b64             LDDW    .D1T1   *+A13[A8],A7:A6   ; |156| 
    1741                            .dwpsn  file ".\..\packages\ti\vlib\src\VLIB_grayscale_morphology\..\common\VLIB_profile.h",li
    1742 00000590 020c0346             STDW    .D1T2   B5:B4,*A3         ; |153| 
    1743                            .dwpsn  file ".\..\packages\ti\vlib\src\VLIB_grayscale_morphology\..\common\VLIB_profile.h",li
    1744 00000594 0410d57a             ADDU    .L2X    B6,A4,B9:B8       ; |156| 
    1745                    
    1746 00000598 041d21e3             ADD     .S2     B9,B7,B8          ; |156| 
    1747 0000059c 032085fa  ||         SUBU    .L2     B4,B8,B7:B6       ; |156| 
    1748                    
    1749 000005a0 0415107a             ADD     .L2X    B8,A5,B8          ; |156| 
    1750                    
    1751 000005a4 0218d579             ADDU    .L1X    A6,B6,A5:A4       ; |156| 
    1752 000005a8 0320a0fb  ||         SUB     .L2     B5,B8,B6          ; |156| 
    1753 000005ac     ebe3  ||         EXT     .S2     B7,24,24,B7       ; |156| 
    1754                    
    1755 000005ae     c3e1             ADD     .L2     B6,B7,B6          ; |156| 
    1756 000005b0     a3d0             ADD     .L1     A5,A7,A5          ; |156| 
    1757 000005b2     b350             ADD     .L1X    A5,B6,A5          ; |156| 
    1758                    $C$DW$173       .dwtag  DW_TAG_TI_branch
    1759                            .dwattr $C$DW$173, DW_AT_low_pc(0x00)
    1760                            .dwattr $C$DW$173, DW_AT_name("setStackDepth")
TMS320C6x Assembler PC v7.4.2 Thu Mar 19 12:41:29 2015

Tools Copyright (c) 1996-2012 Texas Instruments Incorporated
package/lib/Regression/regress_d_c/./../packages/ti/vlib/src/VLIB_grayscale_morphology/VLIB_grayscale_morphology_d.se66 PAGE   33

    1761                            .dwattr $C$DW$173, DW_AT_TI_call
    1762                    
    1763 000005b4 10000013!            CALLP   .S2     setStackDepth,B3
    1764 000005b8 02350b44  ||         STDW    .D1T1   A5:A4,*+A13[A8]   ; |156| 
    1765                    
    1766                            .dwpsn  file ".\..\packages\ti\vlib\src\VLIB_grayscale_morphology\..\common\VLIB_profile.h",li
    1767 000005c0           $C$RL23:   ; CALL OCCURS {setStackDepth} {0}  ; |159| 
    1768 000005c0           $C$DW$L$VLIB_grayscale_morphology_d$22$E:
    1769                    ;** --------------------------------------------------------------------------*
    1770 000005c0           $C$DW$L$VLIB_grayscale_morphology_d$23$B:
    1771                    ;          EXCLUSIVE CPU CYCLES: 14
    1772 000005c0 023e42e6             LDW     .D2T2   *+SP(72),B4
    1773                            .dwpsn  file "./../packages/ti/vlib/src/VLIB_grayscale_morphology/VLIB_grayscale_morphology_d.
    1774 000005c4 02b56286             LDHU    .D2T2   *+B13(22),B5      ; |138| 
    1775 000005c8 063d22e4             LDW     .D2T1   *+SP(36),A12      ; |138| 
    1776 000005cc 01acaca0             SHL     .S1     A11,5,A3
    1777 000005d0 018d7c40             ADDAW   .D1     A3,A11,A3
    1778                            .dwpsn  file "./../packages/ti/vlib/src/VLIB_grayscale_morphology/VLIB_grayscale_morphology_d.
    1779 000005d4 0504a35a             MVK     .L2     0x1,B10           ; |88| 
    1780                            .dwpsn  file "./../packages/ti/vlib/src/VLIB_grayscale_morphology/VLIB_grayscale_morphology_d.
    1781 000005d8     aa41             SUB     .L2     B5,B4,B4          ; |138| 
    1782                    
    1783 000005da     1227             CMPGT   .L2     B4,0,B0           ; |138| 
    1784 000005e0 018d8078  ||         ADD     .L1     A12,A3,A3
    1785                    
    1786 000005e4 30002711     [!B0]   B       .S1     $C$L18            ; |138| 
    1787 000005e8 250d4205  || [ B0]   LDHU    .D1T1   *+A3(20),A10
    1788 000005ec 223e42e6  || [ B0]   LDW     .D2T2   *+SP(72),B4
    1789                    
    1790 000005f0 218d6204     [ B0]   LDHU    .D1T1   *+A3(22),A3
    1791 000005f4 00004000             NOP             3
    1792 000005f8 023d40f9             SUB     .L1     A10,A15,A4
    1793                               ; BRANCHCC OCCURS {$C$L18}        ; |138| 
    1794 00000600           $C$DW$L$VLIB_grayscale_morphology_d$23$E:
    1795                    ;** --------------------------------------------------------------------------*
    1796 00000600           $C$DW$L$VLIB_grayscale_morphology_d$24$B:
    1797                    ;          EXCLUSIVE CPU CYCLES: 6
    1798                    ;**     -----------------------    C$7 = &v$1[tpi];
    1799                    ;**     -----------------------    U$93 = (*C$7).imageWidth;
    1800                    ;**     -----------------------    U$123 = U$93-outPadX;
    1801                    ;**     -----------------------    L$2 = (*C$7).imageHeight-outPadY;
    1802                    ;** 138 -----------------------    i = 0;
    1803                    ;**     -----------------------    #pragma MUST_ITERATE(1, 18446744073709551615, 1)
    1804                    ;**     -----------------------    #pragma LOOP_FLAGS(5120u)
    1805                    
    1806 00000600 079070f9             SUB     .L1X    A3,B4,A15
    1807 00000604 021072fb  ||         SUB     .L2X    A3,B4,B4
    1808 0000060c     81b2  ||         MVK     .S1     36,A3
    1809 00000608 06800041  ||         ZERO    .D1     A13               ; |138| 
    1810                    
    1811 00000610 032c6570             MPYLI   .M1     A3,A11,A7:A6
    1812 0000060e     9647  ||         MV      .L2X    A4,B12            ; Define a twin register
    1813                    
    1814                            .dwpsn  file "./../packages/ti/vlib/src/VLIB_grayscale_morphology/VLIB_grayscale_morphology_d.
    1815 00000614 00300ada             CMPGT   .L2     B12,0,B0          ; |139| 
TMS320C6x Assembler PC v7.4.2 Thu Mar 19 12:41:29 2015

Tools Copyright (c) 1996-2012 Texas Instruments Incorporated
package/lib/Regression/regress_d_c/./../packages/ti/vlib/src/VLIB_grayscale_morphology/VLIB_grayscale_morphology_d.se66 PAGE   34

    1816                    
    1817 00000618 2f3ee2e5     [ B0]   LDW     .D2T1   *+SP(92),A30
    1818 00000620 2004a358  || [ B0]   MVK     .L1     0x1,A0
    1819                    
    1820                            .dwpsn  file "./../packages/ti/vlib/src/VLIB_grayscale_morphology/VLIB_grayscale_morphology_d.
    1821 00000624 2fbf02e4     [ B0]   LDW     .D2T1   *+SP(96),A31      ; |140| 
    1822 00000628 01998078             ADD     .L1     A12,A6,A3
    1823 0000062c           $C$DW$L$VLIB_grayscale_morphology_d$24$E:
    1824                    ;** --------------------------------------------------------------------------*
    1825                    ;**   BEGIN LOOP $C$L12
    1826                    ;** --------------------------------------------------------------------------*
    1827 0000062c           $C$L12:    
    1828                            .dwpsn  file "./../packages/ti/vlib/src/VLIB_grayscale_morphology/VLIB_grayscale_morphology_d.
    1829 0000062c           $C$DW$L$VLIB_grayscale_morphology_d$25$B:
    1830                    ;          EXCLUSIVE CPU CYCLES: 6
    1831                    ;**     -----------------------g18:
    1832                    ;** 139 -----------------------    if ( U$123 <= 0 ) goto g23;
    1833                    
    1834 0000062c 3031a121     [!B0]   BNOP    .S1     $C$L16,5          ; |139| 
    1835 00000630 220d8205  || [ B0]   LDHU    .D1T1   *+A3(24),A4
    1836 00000634 21a9a800  || [ B0]   MPY32   .M1     A13,A10,A3
    1837                    
    1838                            .dwpsn  file "./../packages/ti/vlib/src/VLIB_grayscale_morphology/VLIB_grayscale_morphology_d.
    1839                               ; BRANCHCC OCCURS {$C$L16}        ; |139| 
    1840 00000638           $C$DW$L$VLIB_grayscale_morphology_d$25$E:
    1841                    ;** --------------------------------------------------------------------------*
    1842                            .dwpsn  file "./../packages/ti/vlib/src/VLIB_grayscale_morphology/VLIB_grayscale_morphology_d.
    1843 00000638           $C$DW$L$VLIB_grayscale_morphology_d$26$B:
    1844                    ;**     -----------------------    U$31 = _lo(_mpyli(36, tpi));
    1845                    ;**     -----------------------    U$131 = &output_opt[U$93*i];
    1846                    ;**     -----------------------    U$135 = &output_cn[(*(U$31+v$1)).imagePitch*i];
    1847                    ;** 140 -----------------------    L$3 = U$123;
    1848                    ;** 139 -----------------------    --U$135;
    1849                    ;** 139 -----------------------    --U$131;
    1850                    ;** 139 -----------------------    j = (-1);
    1851                    ;**     -----------------------    #pragma MUST_ITERATE(1, 18446744073709551615, 1)
    1852                    ;**     -----------------------    #pragma LOOP_FLAGS(4352u)
    1853                    ;**     -----------------------g20:
    1854                    ;** 140 -----------------------    f$2 = (*(++U$131) != *(++U$135))-1;
    1855                    ;** 139 -----------------------    ++j;
    1856                    ;** 139 -----------------------    L$3 = L$3-1;
    1857                    ;** 139 -----------------------    if ( L$3&f$2 ) goto g20;
    1858                    ;**     -----------------------    if ( f$2 ) goto g23;
    1859 00000638           $C$DW$L$VLIB_grayscale_morphology_d$26$E:
    1860                    ;*----------------------------------------------------------------------------*
    1861                    ;*   SOFTWARE PIPELINE INFORMATION
    1862                    ;*
    1863                    ;*      Loop found in file               : ./../packages/ti/vlib/src/VLIB_grayscale_morphology/VLIB_gr
    1864                    ;*      Loop source line                 : 139
    1865                    ;*      Loop opening brace source line   : 139
    1866                    ;*      Loop closing brace source line   : 145
    1867                    ;*      Known Minimum Trip Count         : 1                    
    1868                    ;*      Known Max Trip Count Factor      : 1
    1869                    ;*      Loop Carried Dependency Bound(^) : 1
    1870                    ;*      Unpartitioned Resource Bound     : 2
TMS320C6x Assembler PC v7.4.2 Thu Mar 19 12:41:29 2015

Tools Copyright (c) 1996-2012 Texas Instruments Incorporated
package/lib/Regression/regress_d_c/./../packages/ti/vlib/src/VLIB_grayscale_morphology/VLIB_grayscale_morphology_d.se66 PAGE   35

    1871                    ;*      Partitioned Resource Bound(*)    : 2
    1872                    ;*      Resource Partition:
    1873                    ;*                                A-side   B-side
    1874                    ;*      .L units                     1        0     
    1875                    ;*      .S units                     1        0     
    1876                    ;*      .D units                     1        1     
    1877                    ;*      .M units                     0        0     
    1878                    ;*      .X cross paths               1        0     
    1879                    ;*      .T address paths             1        1     
    1880                    ;*      Long read paths              0        0     
    1881                    ;*      Long write paths             0        0     
    1882                    ;*      Logical  ops (.LS)           0        0     (.L or .S unit)
    1883                    ;*      Addition ops (.LSD)          3        1     (.L or .S or .D unit)
    1884                    ;*      Bound(.L .S .LS)             1        0     
    1885                    ;*      Bound(.L .S .D .LS .LSD)     2*       1     
    1886                    ;*
    1887                    ;*      Searching for software pipeline schedule at ...
    1888                    ;*         ii = 4  Unsafe schedule for irregular loop
    1889                    ;*         ii = 4  Unsafe schedule for irregular loop
    1890                    ;*         ii = 4  Unsafe schedule for irregular loop
    1891                    ;*         ii = 4  Unsafe schedule for irregular loop
    1892                    ;*         ii = 4  Unsafe schedule for irregular loop
    1893                    ;*         ii = 4  Did not find schedule
    1894                    ;*         ii = 5  Unsafe schedule for irregular loop
    1895                    ;*         ii = 5  Unsafe schedule for irregular loop
    1896                    ;*         ii = 5  Unsafe schedule for irregular loop
    1897                    ;*         ii = 5  Unsafe schedule for irregular loop
    1898                    ;*         ii = 5  Unsafe schedule for irregular loop
    1899                    ;*         ii = 5  Did not find schedule
    1900                    ;*         ii = 6  Unsafe schedule for irregular loop
    1901                    ;*         ii = 6  Unsafe schedule for irregular loop
    1902                    ;*         ii = 6  Unsafe schedule for irregular loop
    1903                    ;*         ii = 6  Unsafe schedule for irregular loop
    1904                    ;*         ii = 6  Unsafe schedule for irregular loop
    1905                    ;*         ii = 6  Did not find schedule
    1906                    ;*         ii = 7  Unsafe schedule for irregular loop
    1907                    ;*         ii = 7  Unsafe schedule for irregular loop
    1908                    ;*         ii = 7  Unsafe schedule for irregular loop
    1909                    ;*         ii = 7  Unsafe schedule for irregular loop
    1910                    ;*         ii = 7  Unsafe schedule for irregular loop
    1911                    ;*         ii = 7  Did not find schedule
    1912                    ;*         ii = 8  Unsafe schedule for irregular loop
    1913                    ;*         ii = 8  Unsafe schedule for irregular loop
    1914                    ;*         ii = 8  Unsafe schedule for irregular loop
    1915                    ;*         ii = 8  Unsafe schedule for irregular loop
    1916                    ;*         ii = 8  Unsafe schedule for irregular loop
    1917                    ;*         ii = 8  Did not find schedule
    1918                    ;*         ii = 9  Schedule found with 2 iterations in parallel
    1919                    ;*
    1920                    ;*      Register Usage Table:
    1921                    ;*          +-----------------------------------------------------------------+
    1922                    ;*          |AAAAAAAAAAAAAAAAAAAAAAAAAAAAAAAA|BBBBBBBBBBBBBBBBBBBBBBBBBBBBBBBB|
    1923                    ;*          |00000000001111111111222222222233|00000000001111111111222222222233|
    1924                    ;*          |01234567890123456789012345678901|01234567890123456789012345678901|
    1925                    ;*          |--------------------------------+--------------------------------|
TMS320C6x Assembler PC v7.4.2 Thu Mar 19 12:41:29 2015

Tools Copyright (c) 1996-2012 Texas Instruments Incorporated
package/lib/Regression/regress_d_c/./../packages/ti/vlib/src/VLIB_grayscale_morphology/VLIB_grayscale_morphology_d.se66 PAGE   36

    1926                    ;*       0: |    ** *                        |    ***                         |
    1927                    ;*       1: |    ** *                        |    ***                         |
    1928                    ;*       2: |   *** *                        |    ***                         |
    1929                    ;*       3: |    ****                        |    ***                         |
    1930                    ;*       4: |   *** *                        |    ***                         |
    1931                    ;*       5: |*   ** *                        |    ***                         |
    1932                    ;*       6: |    ** *                        |    ***                         |
    1933                    ;*       7: |    ** *                        |    ***                         |
    1934                    ;*       8: |    ** *                        |    ***                         |
    1935                    ;*          +-----------------------------------------------------------------+
    1936                    ;*
    1937                    ;*      Done
    1938                    ;*
    1939                    ;*      Loop will be splooped
    1940                    ;*      Collapsed epilog stages       : 1
    1941                    ;*      Collapsed prolog stages       : 0
    1942                    ;*      Minimum required memory pad   : 0 bytes
    1943                    ;*
    1944                    ;*      For further improvement on this loop, try option -mh14
    1945                    ;*
    1946                    ;*      Minimum safe trip count       : 1
    1947                    ;*      Min. prof. trip count  (est.) : 3
    1948                    ;*
    1949                    ;*      Mem bank conflicts/iter(est.) : { min 0.000, est 0.125, max 1.000 }
    1950                    ;*      Mem bank perf. penalty (est.) : 1.4%
    1951                    ;*
    1952                    ;*      Effective ii                : { min 9.00, est 9.13, max 10.00 }
    1953                    ;*
    1954                    ;*
    1955                    ;*      Total cycles (est.)         : 9 + trip_cnt * 9        
    1956                    ;*----------------------------------------------------------------------------*
    1957                    ;*       SETUP CODE
    1958                    ;*
    1959                    ;*                  MVK             0x1,A0
    1960                    ;*
    1961                    ;*        SINGLE SCHEDULED ITERATION
    1962                    ;*
    1963                    ;*        $C$C71:
    1964                    ;*   5      [ A0]   LDBU    .D1T1   *++A5,A7          ; |140|  ^ 
    1965                    ;*     ||   [ A0]   LDBU    .D2T2   *++B6,B4          ; |140|  ^ 
    1966                    ;*   6              NOP             4
    1967                    ;*  10              CMPEQ   .L1X    B4,A7,A3          ; |140|  ^ 
    1968                    ;*  11              EXT     .S1     A3,31,31,A6       ; |140|  ^ 
    1969                    ;*     ||           SUB     .L1     A4,1,A4           ; |139|  ^ 
    1970                    ;*  12              AND     .L1     A6,A4,A3          ; |139|  ^ 
    1971                    ;*  13              MV      .L1     A3,A0             ; |139|  ^ 
    1972                    ;*  14      [ A0]   SPWBR           $C$C71
    1973                    ;*  15              NOP             2
    1974                    ;*  17              ADD     .L2     1,B5,B5           ; |139| 
    1975                    ;*  18              ; BRANCHCC OCCURS {$C$C71}        ; |139| 
    1976                    ;*----------------------------------------------------------------------------*
    1977 00000638           $C$L13:    ; PIPED LOOP PROLOG
    1978                    ;          EXCLUSIVE CPU CYCLES: 10
    1979                    
    1980 00000638 c403e001     [ A0]   SPLOOPW 9       ;18               ; (P) 
TMS320C6x Assembler PC v7.4.2 Thu Mar 19 12:41:29 2015

Tools Copyright (c) 1996-2012 Texas Instruments Incorporated
package/lib/Regression/regress_d_c/./../packages/ti/vlib/src/VLIB_grayscale_morphology/VLIB_grayscale_morphology_d.se66 PAGE   37

    1981 0000063c 0291a800  ||         MPY32   .M1     A13,A4,A5
    1982                    
    1983                    ;** --------------------------------------------------------------------------*
    1984 00000640           $C$L14:    ; PIPED LOOP KERNEL
    1985 00000640           $C$DW$L$VLIB_grayscale_morphology_d$28$B:
    1986                    ;          EXCLUSIVE CPU CYCLES: 9
    1987 00000640     2c6e             NOP             2
    1988                    
    1989 00000642     2c67             SPMASK          L1
    1990 00000644 020fe078  ||         ADD     .L1     A31,A3,A4
    1991                    
    1992 00000648 00070001             SPMASK          L1
    1993 0000064c 0197c078  ||         ADD     .L1     A30,A5,A3
    1994                    
    1995 00000650     2ce7             SPMASK          L1,L2
    1996 00000652     fe61  ||         SUB     .L2X    A4,1,B6           ; |139| 
    1997 00000654 028fe058  ||         SUB     .L1     A3,1,A5           ; |139| 
    1998                    
    1999 00000658 c3943215     [ A0]   LDBU    .D1T1   *++A5,A7          ; |140| (P) <0,5>  ^ 
    2000 00000660 c2183296  || [ A0]   LDBU    .D2T2   *++B6,B4          ; |140| (P) <0,5>  ^ 
    2001                    
    2002 00000664     2c6e             NOP             2
    2003                    
    2004 00000666     2de7             SPMASK          L1,S1,L2
    2005 00000668     9606  ||         MV      .L1X    B12,A4
    2006 0000066a     fea7  ||         MVK     .L2     0xffffffff,B5     ; |139| 
    2007 0000066c     c74e  ||         MV      .S1     A6,A14
    2008                    
    2009 0000066e     0c6e             NOP             1
    2010                            .dwpsn  file "./../packages/ti/vlib/src/VLIB_grayscale_morphology/VLIB_grayscale_morphology_d.
    2011 00000670 0190fa78             CMPEQ   .L1X    B4,A7,A3          ; |140| <0,10>  ^ 
    2012                    
    2013 00000678 0213e058             SUB     .L1     A4,1,A4           ; |139| <0,11>  ^ 
    2014 00000674 030fff49  ||         EXT     .S1     A3,31,31,A6       ; |140| <0,11>  ^ 
    2015                    
    2016                            .dwpsn  file "./../packages/ti/vlib/src/VLIB_grayscale_morphology/VLIB_grayscale_morphology_d.
    2017 00000680 0190cf78             AND     .L1     A6,A4,A3          ; |139| <0,12>  ^ 
    2018 00000684     01c6             MV      .L1     A3,A0             ; |139| <0,13>  ^ 
    2019 00000686     2c6e             NOP             2
    2020 00000688 00000000             NOP             1
    2021                    
    2022 0000068c 00034001             SPKERNEL 0,0
    2023 00000690     26d1  ||         ADD     .L2     1,B5,B5           ; |139| <0,17> 
    2024                    
    2025 00000692           $C$DW$L$VLIB_grayscale_morphology_d$28$E:
    2026                    ;** --------------------------------------------------------------------------*
    2027 00000692           $C$L15:    ; PIPED LOOP EPILOG
    2028                    ;** --------------------------------------------------------------------------*
    2029 00000692           $C$DW$L$VLIB_grayscale_morphology_d$30$B:
    2030                    ;          EXCLUSIVE CPU CYCLES: 7
    2031                    
    2032 00000692     0346             MV      .L1     A6,A0
    2033 00000694 01a9a800  ||         MPY32   .M1     A13,A10,A3        ; |142| 
    2034                    
    2035 00000698 c0000d11     [ A0]   B       .S1     $C$L17
TMS320C6x Assembler PC v7.4.2 Thu Mar 19 12:41:29 2015

Tools Copyright (c) 1996-2012 Texas Instruments Incorporated
package/lib/Regression/regress_d_c/./../packages/ti/vlib/src/VLIB_grayscale_morphology/VLIB_grayscale_morphology_d.se66 PAGE   38

    2036 000006a0 dfbf02e5  || [!A0]   LDW     .D2T1   *+SP(96),A31      ; |142| 
    2037 000006a4 d200002a! || [!A0]   MVKL    .S2     $C$SL8+0,B4
    2038                    
    2039 000006a8 d200006b!    [!A0]   MVKH    .S2     $C$SL8+0,B4
    2040 000006ac d2bc62f6  || [!A0]   STW     .D2T2   B5,*+SP(12)       ; |142| 
    2041                    
    2042                            .dwpsn  file "./../packages/ti/vlib/src/VLIB_grayscale_morphology/VLIB_grayscale_morphology_d.
    2043 000006b0 d23c22f6     [!A0]   STW     .D2T2   B4,*+SP(4)        ; |142| 
    2044                    
    2045 000006b4 d2147079     [!A0]   ADD     .L1X    B5,A3,A4          ; |142| 
    2046 000006b8 d6bc42f4  || [!A0]   STW     .D2T1   A13,*+SP(8)       ; |142| 
    2047                    
    2048 000006bc df3ee2e4     [!A0]   LDW     .D2T1   *+SP(92),A30      ; |142| 
    2049                    
    2050 000006c0 d193ea15     [!A0]   LDBU    .D1T1   *+A4[A31],A3      ; |142| 
    2051 000006c4 003fe058  ||         SUB     .L1     A15,1,A0          ; |138| 
    2052                    
    2053                               ; BRANCHCC OCCURS {$C$L17}  
    2054 000006c8           $C$DW$L$VLIB_grayscale_morphology_d$30$E:
    2055                    ;** --------------------------------------------------------------------------*
    2056 000006c8           $C$DW$L$VLIB_grayscale_morphology_d$31$B:
    2057                    ;          EXCLUSIVE CPU CYCLES: 11
    2058                    ;** 142 -----------------------    C$6 = U$93*i+j;
    2059                    ;** 142 -----------------------    printf((const char *)"row:%d, col:%d, out:%u, EOut:%u \n", i, j, (i
    2060                    ;** 141 -----------------------    status_nat_vs_int = 0;
    2061 000006c8     6c6e             NOP             4
    2062 000006ca     8cb5             STW     .D2T1   A3,*+SP(16)       ; |142| 
    2063                    $C$DW$174       .dwtag  DW_TAG_TI_branch
    2064                            .dwattr $C$DW$174, DW_AT_low_pc(0x04)
    2065                            .dwattr $C$DW$174, DW_AT_name("printf")
    2066                            .dwattr $C$DW$174, DW_AT_TI_call
    2067                    
    2068 000006cc 0193ca15             LDBU    .D1T1   *+A4[A30],A3      ; |142| 
    2069 000006d0 00000010! ||         CALL    .S1     printf            ; |142| 
    2070                    
    2071 000006d4 01886162             ADDKPC  .S2     $C$RL24,B3,3      ; |142| 
    2072 000006d8 01bca2f4             STW     .D2T1   A3,*+SP(20)       ; |142| 
    2073 000006e0           $C$RL24:   ; CALL OCCURS {printf} {0}        ; |142| 
    2074 000006e0           $C$DW$L$VLIB_grayscale_morphology_d$31$E:
    2075                    ;** --------------------------------------------------------------------------*
    2076 000006e0           $C$DW$L$VLIB_grayscale_morphology_d$32$B:
    2077                    ;          EXCLUSIVE CPU CYCLES: 1
    2078                            .dwpsn  file "./../packages/ti/vlib/src/VLIB_grayscale_morphology/VLIB_grayscale_morphology_d.
    2079 000006e0 0500a35a             ZERO    .L2     B10               ; |141| 
    2080 000006e4           $C$DW$L$VLIB_grayscale_morphology_d$32$E:
    2081                    ;** --------------------------------------------------------------------------*
    2082 000006e4           $C$L16:    
    2083 000006e4           $C$DW$L$VLIB_grayscale_morphology_d$33$B:
    2084                    ;          EXCLUSIVE CPU CYCLES: 1
    2085                            .dwpsn  file "./../packages/ti/vlib/src/VLIB_grayscale_morphology/VLIB_grayscale_morphology_d.
    2086 000006e4 003fe058             SUB     .L1     A15,1,A0          ; |138| 
    2087 000006e8           $C$DW$L$VLIB_grayscale_morphology_d$33$E:
    2088                    ;** --------------------------------------------------------------------------*
    2089 000006e8           $C$L17:    
    2090                            .dwpsn  file "./../packages/ti/vlib/src/VLIB_grayscale_morphology/VLIB_grayscale_morphology_d.
TMS320C6x Assembler PC v7.4.2 Thu Mar 19 12:41:29 2015

Tools Copyright (c) 1996-2012 Texas Instruments Incorporated
package/lib/Regression/regress_d_c/./../packages/ti/vlib/src/VLIB_grayscale_morphology/VLIB_grayscale_morphology_d.se66 PAGE   39

    2091 000006e8           $C$DW$L$VLIB_grayscale_morphology_d$34$B:
    2092                    ;          EXCLUSIVE CPU CYCLES: 6
    2093                    ;**     -----------------------g23:
    2094                    ;** 138 -----------------------    ++i;
    2095                    ;** 138 -----------------------    if ( L$2 = L$2-1 ) goto g18;
    2096                    
    2097 000006e8 01801229             MVK     .S1     36,A3
    2098 000006ec cfffe993  || [ A0]   B       .S2     $C$L12            ; |138| 
    2099 000006f0 00300adb  ||         CMPGT   .L2     B12,0,B0          ; |139| 
    2100 000006f4 023ffaf3  ||         SUB     .D2X    A15,1,B4          ; |138| 
    2101 000006f8 07bfe059  ||         SUB     .L1     A15,1,A15         ; |138| 
    2102 000006fc 06b42940  ||         ADD     .D1     1,A13,A13         ; |138| 
    2103                    
    2104 00000700 032c6571             MPYLI   .M1     A3,A11,A7:A6
    2105 00000704 01000fd8  ||         MV      .L1     A0,A2             ; guard predicate rewrite
    2106                    
    2107 00000708 2f3ee2e4     [ B0]   LDW     .D2T1   *+SP(92),A30
    2108 0000070c 2004a358     [ B0]   MVK     .L1     0x1,A0
    2109                            .dwpsn  file "./../packages/ti/vlib/src/VLIB_grayscale_morphology/VLIB_grayscale_morphology_d.
    2110 00000710 2fbf02e4     [ B0]   LDW     .D2T1   *+SP(96),A31      ; |140| 
    2111 00000714 a1998078     [ A2]   ADD     .L1     A12,A6,A3
    2112                            .dwpsn  file "./../packages/ti/vlib/src/VLIB_grayscale_morphology/VLIB_grayscale_morphology_d.
    2113                               ; BRANCHCC OCCURS {$C$L12}        ; |138| 
    2114 00000718           $C$DW$L$VLIB_grayscale_morphology_d$34$E:
    2115                    ;** --------------------------------------------------------------------------*
    2116 00000718           $C$L18:    
    2117 00000718           $C$DW$L$VLIB_grayscale_morphology_d$35$B:
    2118                    ;          EXCLUSIVE CPU CYCLES: 19
    2119                    ;**     -----------------------g24:
    2120                    ;** 151 -----------------------    est_test = 1;
    2121                    ;** 154 -----------------------    C$5 = U$31+v$1;
    2122                    ;** 154 -----------------------    sprintf(K$160, (const char *)"%s generated input | Opt and NatC res
    2123                    ;** 157 -----------------------    C$4 = (*U$32).se_h;
    2124                    ;** 157 -----------------------    C$3 = (*U$32).se_w;
    2125                    ;** 157 -----------------------    VLIB_formula_add_test(((*U$32).imageWidth-C$3+1)*((*U$32).imageHeig
    2126                    ;** 160 -----------------------    goto g26;
    2127                            .dwpsn  file "./../packages/ti/vlib/src/VLIB_grayscale_morphology/VLIB_grayscale_morphology_d.
    2128 00000718 01b98078             ADD     .L1     A12,A14,A3        ; |154| 
    2129 0000071c 020da204             LDHU    .D1T1   *+A3(26),A4       ; |154| 
    2130 00000720 0280002a!            MVKL    .S2     $C$SL9+0,B5
    2131 00000724 028d6204             LDHU    .D1T1   *+A3(22),A5       ; |154| 
    2132 00000728 0200002a!            MVKL    .S2     testPatternString,B4
    2133                    
    2134 0000072c 030d0265             LDW     .D1T1   *+A3(32),A6       ; |154| 
    2135 00000730 0300002a! ||         MVKL    .S2     est_test,B6
    2136                    
    2137 00000738     acc5             STW     .D2T1   A4,*+SP(20)       ; |154| 
    2138 00000734 0280006b! ||         MVKH    .S2     $C$SL9+0,B5
    2139                    
    2140 00000744 038dc204             LDHU    .D1T1   *+A3(28),A7       ; |154| 
    2141 00000740 0200006b! ||         MVKH    .S2     testPatternString,B4
    2142 0000073a     bc55  ||         STW     .D2T2   B5,*+SP(4)        ; |154| 
    2143                    
    2144 00000748 018d4205             LDHU    .D1T1   *+A3(20),A3       ; |154| 
    2145 0000074c 0300006b! ||         MVKH    .S2     est_test,B6
TMS320C6x Assembler PC v7.4.2 Thu Mar 19 12:41:29 2015

Tools Copyright (c) 1996-2012 Texas Instruments Incorporated
package/lib/Regression/regress_d_c/./../packages/ti/vlib/src/VLIB_grayscale_morphology/VLIB_grayscale_morphology_d.se66 PAGE   40

    2146 00000750 0404a359  ||         MVK     .L1     1,A8              ; |151| 
    2147 00000754 023c42f6  ||         STW     .D2T2   B4,*+SP(8)        ; |154| 
    2148                    
    2149                            .dwpsn  file "./../packages/ti/vlib/src/VLIB_grayscale_morphology/VLIB_grayscale_morphology_d.
    2150 00000758 041802f4             STW     .D2T1   A8,*B6            ; |151| 
    2151                            .dwpsn  file "./../packages/ti/vlib/src/VLIB_grayscale_morphology/VLIB_grayscale_morphology_d.
    2152 0000075c 033ce2f4             STW     .D2T1   A6,*+SP(28)       ; |154| 
    2153 00000760     8cd5             STW     .D2T1   A5,*+SP(16)       ; |154| 
    2154                    
    2155 00000764 02000028!            MVKL    .S1     desc,A4
    2156 00000762     ccf5  ||         STW     .D2T1   A7,*+SP(24)       ; |154| 
    2157                    
    2158                    $C$DW$175       .dwtag  DW_TAG_TI_branch
    2159                            .dwattr $C$DW$175, DW_AT_low_pc(0x00)
    2160                            .dwattr $C$DW$175, DW_AT_name("sprintf")
    2161                            .dwattr $C$DW$175, DW_AT_TI_call
    2162                    
    2163 00000768 10000013!            CALLP   .S2     sprintf,B3
    2164 0000076c 02000069! ||         MVKH    .S1     desc,A4
    2165 00000770 01bc62f4  ||         STW     .D2T1   A3,*+SP(12)       ; |154| 
    2166                    
    2167 00000774           $C$RL25:   ; CALL OCCURS {sprintf} {0}       ; |154| 
    2168 00000774           $C$DW$L$VLIB_grayscale_morphology_d$35$E:
    2169                    ;** --------------------------------------------------------------------------*
    2170 00000774           $C$DW$L$VLIB_grayscale_morphology_d$36$B:
    2171                    ;          EXCLUSIVE CPU CYCLES: 29
    2172                            .dwpsn  file "./../packages/ti/vlib/src/VLIB_grayscale_morphology/VLIB_grayscale_morphology_d.
    2173 00000774 03354286             LDHU    .D2T2   *+B13(20),B6      ; |157| 
    2174 00000778 02b5a286             LDHU    .D2T2   *+B13(26),B5      ; |157| 
    2175 00000780 03b56286             LDHU    .D2T2   *+B13(22),B7      ; |157| 
    2176 00000784 0235c286             LDHU    .D2T2   *+B13(28),B4      ; |157| 
    2177 00000788 04000028!            MVKL    .S1     desc,A8
    2178 0000078c 0400a35a             ZERO    .L2     B8                ; |157| 
    2179 00000790     cae1             SUB     .L2     B6,B5,B6          ; |157| 
    2180 00000792     2761             ADD     .L2     1,B6,B6           ; |157| 
    2181 00000794     ea71             SUB     .L2     B7,B4,B7          ; |157| 
    2182 00000796     27f1             ADD     .L2     1,B7,B7           ; |157| 
    2183 00000798 0318e802             MPY32   .M2     B7,B6,B6          ; |157| 
    2184 000007a0 04000068!            MVKH    .S1     desc,A8
    2185 000007a4     0726             ZERO    .L1     A6                ; |157| 
    2186 000007a6     0c6e             NOP             1
    2187 000007a8 0298a802             MPY32   .M2     B5,B6,B5          ; |157| 
    2188 000007ac 03280a5a             CMPEQ   .L2     B10,0,B6          ; |157| 
    2189 000007b0 00002000             NOP             2
    2190 000007b4 02948802             MPY32   .M2     B4,B5,B5          ; |157| 
    2191 000007b8     0627             ZERO    .L2     B4                ; |157| 
    2192 000007ba     4c6e             NOP             3
    2193                    $C$DW$176       .dwtag  DW_TAG_TI_branch
    2194                            .dwattr $C$DW$176, DW_AT_low_pc(0x00)
    2195                            .dwattr $C$DW$176, DW_AT_name("VLIB_formula_add_test")
    2196                            .dwattr $C$DW$176, DW_AT_TI_call
    2197                    
    2198 000007c0 10000013!            CALLP   .S2     VLIB_formula_add_test,B3
    2199 000007c4     92c6  ||         MV      .L1X    B5,A4             ; |157| 
    2200                    
TMS320C6x Assembler PC v7.4.2 Thu Mar 19 12:41:29 2015

Tools Copyright (c) 1996-2012 Texas Instruments Incorporated
package/lib/Regression/regress_d_c/./../packages/ti/vlib/src/VLIB_grayscale_morphology/VLIB_grayscale_morphology_d.se66 PAGE   41

    2201 000007c6           $C$RL26:   ; CALL OCCURS {VLIB_formula_add_test} {0}  ; |157| 
    2202 000007c6           $C$DW$L$VLIB_grayscale_morphology_d$36$E:
    2203                    ;** --------------------------------------------------------------------------*
    2204 000007c6           $C$DW$L$VLIB_grayscale_morphology_d$37$B:
    2205                    ;          EXCLUSIVE CPU CYCLES: 6
    2206                            .dwpsn  file "./../packages/ti/vlib/src/VLIB_grayscale_morphology/VLIB_grayscale_morphology_d.
    2207                    ;----------------------------------------------------------------------
    2208                    ; 160 | } else {                                                               
    2209                    ; 162 |     sprintf(desc, "blk_w= %d, blk_h= %d, se_w= %d, se_h= %d | %s",     
    2210                    ; 163 |             prm[tpi].imageWidth, prm[tpi].imageHeight, prm[tpi].se_w, p
    2211                    ;     | rm[tpi].se_h, prm[tpi].desc);                                          
    2212                    ; 164 |     VLIB_skip_test(desc);                                              
    2213                    ;----------------------------------------------------------------------
    2214 000007c6     0c0a             B       .S1     $C$L20            ; |160| 
    2215                            .dwpsn  file "./../packages/ti/vlib/src/VLIB_grayscale_morphology/VLIB_grayscale_morphology_d.
    2216                    ;----------------------------------------------------------------------
    2217                    ; 167 | VLIB_align_free(struct_elem_refl);                                     
    2218                    ;----------------------------------------------------------------------
    2219                    $C$DW$177       .dwtag  DW_TAG_TI_branch
    2220                            .dwattr $C$DW$177, DW_AT_low_pc(0x00)
    2221                            .dwattr $C$DW$177, DW_AT_name("VLIB_align_free")
    2222                            .dwattr $C$DW$177, DW_AT_TI_call
    2223 000007c8 00000010!            CALL    .S1     VLIB_align_free   ; |167| 
    2224 000007cc     ee4d             LDW     .D2T1   *+SP(76),A4       ; |167| 
    2225 000007ce     4c6e             NOP             3
    2226                            .dwpsn  file "./../packages/ti/vlib/src/VLIB_grayscale_morphology/VLIB_grayscale_morphology_d.
    2227                               ; BRANCH OCCURS {$C$L20}          ; |160| 
    2228 000007d0           $C$DW$L$VLIB_grayscale_morphology_d$37$E:
    2229                    ;** --------------------------------------------------------------------------*
    2230 000007d0           $C$L19:    
    2231                            .dwpsn  file "./../packages/ti/vlib/src/VLIB_grayscale_morphology/VLIB_grayscale_morphology_d.
    2232 000007d0           $C$DW$L$VLIB_grayscale_morphology_d$38$B:
    2233                    ;          EXCLUSIVE CPU CYCLES: 8
    2234                    ;**     -----------------------g25:
    2235                    ;** 162 -----------------------    sprintf(K$160, (const char *)"blk_w= %d, blk_h= %d, se_w= %d, se_h=
    2236                    ;** 164 -----------------------    VLIB_skip_test(K$160);
    2237                    
    2238 000007d0 03b56287             LDHU    .D2T2   *+B13(22),B7      ; |162| 
    2239 000007d4 0480002a! ||         MVKL    .S2     $C$SL10+0,B9
    2240                    
    2241 000007d8 0480006b!            MVKH    .S2     $C$SL10+0,B9
    2242 000007e0 02000029! ||         MVKL    .S1     desc,A4
    2243 000007e4 02bca2f6  ||         STW     .D2T2   B5,*+SP(20)       ; |162| 
    2244                    
    2245                    $C$DW$178       .dwtag  DW_TAG_TI_branch
    2246                            .dwattr $C$DW$178, DW_AT_low_pc(0x00)
    2247                            .dwattr $C$DW$178, DW_AT_name("sprintf")
    2248                            .dwattr $C$DW$178, DW_AT_TI_call
    2249                    
    2250 000007e8 00000013!            CALL    .S2     sprintf           ; |162| 
    2251 000007ec 04bc22f7  ||         STW     .D2T2   B9,*+SP(4)        ; |162| 
    2252 000007f0 02000068! ||         MVKH    .S1     desc,A4
    2253                    
    2254                            .dwpsn  file "./../packages/ti/vlib/src/VLIB_grayscale_morphology/VLIB_grayscale_morphology_d.
    2255 000007f4 043c42f6             STW     .D2T2   B8,*+SP(8)        ; |162| 
TMS320C6x Assembler PC v7.4.2 Thu Mar 19 12:41:29 2015

Tools Copyright (c) 1996-2012 Texas Instruments Incorporated
package/lib/Regression/regress_d_c/./../packages/ti/vlib/src/VLIB_grayscale_morphology/VLIB_grayscale_morphology_d.se66 PAGE   42

    2256 000007f8     dcc5             STW     .D2T2   B4,*+SP(24)       ; |162| 
    2257                    
    2258 000007fa     fc75             STW     .D2T2   B7,*+SP(12)       ; |162| 
    2259 00000800 01822162  ||         ADDKPC  .S2     $C$RL27,B3,1      ; |162| 
    2260                    
    2261 00000804 033c82f6             STW     .D2T2   B6,*+SP(16)       ; |162| 
    2262 00000808           $C$RL27:   ; CALL OCCURS {sprintf} {0}       ; |162| 
    2263 00000808           $C$DW$L$VLIB_grayscale_morphology_d$38$E:
    2264                    ;** --------------------------------------------------------------------------*
    2265 00000808           $C$DW$L$VLIB_grayscale_morphology_d$39$B:
    2266                    ;          EXCLUSIVE CPU CYCLES: 12
    2267 00000808 02000028!            MVKL    .S1     desc,A4
    2268                    $C$DW$179       .dwtag  DW_TAG_TI_branch
    2269                            .dwattr $C$DW$179, DW_AT_low_pc(0x00)
    2270                            .dwattr $C$DW$179, DW_AT_name("VLIB_skip_test")
    2271                            .dwattr $C$DW$179, DW_AT_TI_call
    2272                    
    2273 0000080c 10000013!            CALLP   .S2     VLIB_skip_test,B3
    2274 00000810 02000068! ||         MVKH    .S1     desc,A4
    2275                    
    2276                            .dwpsn  file "./../packages/ti/vlib/src/VLIB_grayscale_morphology/VLIB_grayscale_morphology_d.
    2277 00000814           $C$RL28:   ; CALL OCCURS {VLIB_skip_test} {0}  ; |164| 
    2278                            .dwpsn  file "./../packages/ti/vlib/src/VLIB_grayscale_morphology/VLIB_grayscale_morphology_d.
    2279                    $C$DW$180       .dwtag  DW_TAG_TI_branch
    2280                            .dwattr $C$DW$180, DW_AT_low_pc(0x00)
    2281                            .dwattr $C$DW$180, DW_AT_name("VLIB_align_free")
    2282                            .dwattr $C$DW$180, DW_AT_TI_call
    2283 00000814 00000010!            CALL    .S1     VLIB_align_free   ; |167| 
    2284 00000818     ee4d             LDW     .D2T1   *+SP(76),A4       ; |167| 
    2285 0000081a     4c6e             NOP             3
    2286 00000820           $C$DW$L$VLIB_grayscale_morphology_d$39$E:
    2287                    ;** --------------------------------------------------------------------------*
    2288 00000820           $C$L20:    
    2289                            .dwpsn  file "./../packages/ti/vlib/src/VLIB_grayscale_morphology/VLIB_grayscale_morphology_d.
    2290 00000820           $C$DW$L$VLIB_grayscale_morphology_d$40$B:
    2291                    ;          EXCLUSIVE CPU CYCLES: 1
    2292                    ;**     -----------------------g26:
    2293                    ;** 167 -----------------------    VLIB_align_free((void *)struct_elem_refl);
    2294                    ;** 168 -----------------------    VLIB_align_free((void *)struct_elem);
    2295                    ;** 169 -----------------------    VLIB_align_free((void *)scratch2);
    2296                    ;** 170 -----------------------    VLIB_align_free((void *)scratch1);
    2297                    ;** 171 -----------------------    free((void *)output_cn);
    2298                    ;** 172 -----------------------    VLIB_align_free((void *)output_opt);
    2299                    ;** 173 -----------------------    VLIB_align_free((void *)input);
    2300                    ;** 85  -----------------------    U$31 += 36;
    2301                    ;** 85  -----------------------    U$32 += 36;
    2302                    ;** 85  -----------------------    if ( test_cases > (++tpi) ) goto g12;
    2303                            .dwpsn  file "./../packages/ti/vlib/src/VLIB_grayscale_morphology/VLIB_grayscale_morphology_d.
    2304 00000820 01810162             ADDKPC  .S2     $C$RL29,B3,0      ; |167| 
    2305                    $C$RL29:   ; CALL OCCURS {VLIB_align_free} {0}  ; |167| 
    2306                    $C$DW$L$VLIB_grayscale_morphology_d$40$E:
    2307                    ;** --------------------------------------------------------------------------*
    2308                    $C$DW$L$VLIB_grayscale_morphology_d$41$B:
    2309                    ;          EXCLUSIVE CPU CYCLES: 36
    2310                    $C$DW$181       .dwtag  DW_TAG_TI_branch
TMS320C6x Assembler PC v7.4.2 Thu Mar 19 12:41:29 2015

Tools Copyright (c) 1996-2012 Texas Instruments Incorporated
package/lib/Regression/regress_d_c/./../packages/ti/vlib/src/VLIB_grayscale_morphology/VLIB_grayscale_morphology_d.se66 PAGE   43

    2311                            .dwattr $C$DW$181, DW_AT_low_pc(0x00)
    2312                            .dwattr $C$DW$181, DW_AT_name("VLIB_align_free")
    2313                            .dwattr $C$DW$181, DW_AT_TI_call
    2314                    
    2315 00000824 10000013!            CALLP   .S2     VLIB_align_free,B3
    2316 00000828 023e82e4  ||         LDW     .D2T1   *+SP(80),A4       ; |168| 
    2317                    
    2318                            .dwpsn  file "./../packages/ti/vlib/src/VLIB_grayscale_morphology/VLIB_grayscale_morphology_d.
    2319                    ;----------------------------------------------------------------------
    2320                    ; 168 | VLIB_align_free(struct_elem);                                          
    2321                    ;----------------------------------------------------------------------
    2322                    $C$RL30:   ; CALL OCCURS {VLIB_align_free} {0}  ; |168| 
    2323                    $C$DW$182       .dwtag  DW_TAG_TI_branch
    2324                            .dwattr $C$DW$182, DW_AT_low_pc(0x00)
    2325                            .dwattr $C$DW$182, DW_AT_name("VLIB_align_free")
    2326                            .dwattr $C$DW$182, DW_AT_TI_call
    2327                    
    2328 0000082c 10000013!            CALLP   .S2     VLIB_align_free,B3
    2329 00000830 023ea2e4  ||         LDW     .D2T1   *+SP(84),A4       ; |169| 
    2330                    
    2331                            .dwpsn  file "./../packages/ti/vlib/src/VLIB_grayscale_morphology/VLIB_grayscale_morphology_d.
    2332                    ;----------------------------------------------------------------------
    2333                    ; 169 | VLIB_align_free(scratch2);                                             
    2334                    ;----------------------------------------------------------------------
    2335                    $C$RL31:   ; CALL OCCURS {VLIB_align_free} {0}  ; |169| 
    2336                    $C$DW$183       .dwtag  DW_TAG_TI_branch
    2337                            .dwattr $C$DW$183, DW_AT_low_pc(0x00)
    2338                            .dwattr $C$DW$183, DW_AT_name("VLIB_align_free")
    2339                            .dwattr $C$DW$183, DW_AT_TI_call
    2340                    
    2341 00000834 10000013!            CALLP   .S2     VLIB_align_free,B3
    2342 00000838 023ec2e5  ||         LDW     .D2T1   *+SP(88),A4       ; |170| 
    2343                    
    2344                            .dwpsn  file "./../packages/ti/vlib/src/VLIB_grayscale_morphology/VLIB_grayscale_morphology_d.
    2345                    ;----------------------------------------------------------------------
    2346                    ; 170 | VLIB_align_free(scratch1);                                             
    2347                    ;----------------------------------------------------------------------
    2348                    $C$RL32:   ; CALL OCCURS {VLIB_align_free} {0}  ; |170| 
    2349                    $C$DW$184       .dwtag  DW_TAG_TI_branch
    2350                            .dwattr $C$DW$184, DW_AT_low_pc(0x00)
    2351                            .dwattr $C$DW$184, DW_AT_name("free")
    2352                            .dwattr $C$DW$184, DW_AT_TI_call
    2353                    
    2354 00000840 10000013!            CALLP   .S2     free,B3
    2355 00000844 023ee2e4  ||         LDW     .D2T1   *+SP(92),A4       ; |171| 
    2356                    
    2357                            .dwpsn  file "./../packages/ti/vlib/src/VLIB_grayscale_morphology/VLIB_grayscale_morphology_d.
    2358                    ;----------------------------------------------------------------------
    2359                    ; 171 | align_free(output_cn);                                                 
    2360                    ;----------------------------------------------------------------------
    2361                    $C$RL33:   ; CALL OCCURS {free} {0}          ; |171| 
    2362                    $C$DW$185       .dwtag  DW_TAG_TI_branch
    2363                            .dwattr $C$DW$185, DW_AT_low_pc(0x00)
    2364                            .dwattr $C$DW$185, DW_AT_name("VLIB_align_free")
    2365                            .dwattr $C$DW$185, DW_AT_TI_call
TMS320C6x Assembler PC v7.4.2 Thu Mar 19 12:41:29 2015

Tools Copyright (c) 1996-2012 Texas Instruments Incorporated
package/lib/Regression/regress_d_c/./../packages/ti/vlib/src/VLIB_grayscale_morphology/VLIB_grayscale_morphology_d.se66 PAGE   44

    2366                    
    2367 00000848 10000013!            CALLP   .S2     VLIB_align_free,B3
    2368 0000084c 023f02e4  ||         LDW     .D2T1   *+SP(96),A4       ; |172| 
    2369                    
    2370                            .dwpsn  file "./../packages/ti/vlib/src/VLIB_grayscale_morphology/VLIB_grayscale_morphology_d.
    2371                    ;----------------------------------------------------------------------
    2372                    ; 172 | VLIB_align_free(output_opt);                                           
    2373                    ;----------------------------------------------------------------------
    2374                    $C$RL34:   ; CALL OCCURS {VLIB_align_free} {0}  ; |172| 
    2375                    $C$DW$186       .dwtag  DW_TAG_TI_branch
    2376                            .dwattr $C$DW$186, DW_AT_low_pc(0x00)
    2377                            .dwattr $C$DW$186, DW_AT_name("VLIB_align_free")
    2378                            .dwattr $C$DW$186, DW_AT_TI_call
    2379                    
    2380 00000850 10000013!            CALLP   .S2     VLIB_align_free,B3
    2381 00000854 023f22e4  ||         LDW     .D2T1   *+SP(100),A4      ; |173| 
    2382                    
    2383                            .dwpsn  file "./../packages/ti/vlib/src/VLIB_grayscale_morphology/VLIB_grayscale_morphology_d.
    2384                    ;----------------------------------------------------------------------
    2385                    ; 173 | VLIB_align_free(input);                                                
    2386                    ;----------------------------------------------------------------------
    2387 00000858           $C$RL35:   ; CALL OCCURS {VLIB_align_free} {0}  ; |173| 
    2388 00000858           $C$DW$L$VLIB_grayscale_morphology_d$41$E:
    2389                    ;** --------------------------------------------------------------------------*
    2390 00000858           $C$DW$L$VLIB_grayscale_morphology_d$42$B:
    2391                    ;          EXCLUSIVE CPU CYCLES: 14
    2392 00000858 01800028!            MVKL    .S1     test_cases,A3
    2393 0000085c 01800068!            MVKH    .S1     test_cases,A3
    2394                            .dwpsn  file "./../packages/ti/vlib/src/VLIB_grayscale_morphology/VLIB_grayscale_morphology_d.
    2395 00000860 018c0264             LDW     .D1T1   *A3,A3            ; |85| 
    2396 00000864 06801252             ADDK    .S2     36,B13            ; |85| 
    2397 00000868 05ac2058             ADD     .L1     1,A11,A11         ; |85| 
    2398 0000086c 07001250             ADDK    .S1     36,A14            ; |85| 
    2399 00000870 00000000             NOP             1
    2400 00000874 002c68f8             CMPGT   .L1     A3,A11,A0         ; |85| 
    2401                    
    2402 00000878 ce6b8121     [ A0]   BNOP    .S1     $C$L11,4          ; |85| 
    2403 0000087c c220a359  || [ A0]   MVK     .L1     0x8,A4            ; |91| 
    2404 00000880 c2b56286  || [ A0]   LDHU    .D2T2   *+B13(22),B5      ; |91| 
    2405                    
    2406                            .dwpsn  file "./../packages/ti/vlib/src/VLIB_grayscale_morphology/VLIB_grayscale_morphology_d.
    2407 00000884 c2358286     [ A0]   LDHU    .D2T2   *+B13(24),B4      ; |91| 
    2408                            .dwpsn  file "./../packages/ti/vlib/src/VLIB_grayscale_morphology/VLIB_grayscale_morphology_d.
    2409                               ; BRANCHCC OCCURS {$C$L11}        ; |85| 
    2410 00000888           $C$DW$L$VLIB_grayscale_morphology_d$42$E:
    2411                    ;** --------------------------------------------------------------------------*
    2412 00000888           $C$L21:    
    2413 00000888           $C$DW$L$VLIB_grayscale_morphology_d$43$B:
    2414                    ;          EXCLUSIVE CPU CYCLES: 7
    2415                    ;**     -----------------------g27:
    2416                    ;** 177 -----------------------    VLIB_profile_cycle_report(1, NULL, "((blk_w - se_w + 1) * (blk_h - 
    2417                    ;** 158 -----------------------    printf((const char *)"---------------------------------------------
    2418                    ;** 165 -----------------------    VLIB_stack_memory();  // [20]
    2419                    ;** 47  -----------------------    if ( (++operation) < 7 ) goto g2;
    2420 00000888 03000028!            MVKL    .S1     $C$SL11+0,A6
TMS320C6x Assembler PC v7.4.2 Thu Mar 19 12:41:29 2015

Tools Copyright (c) 1996-2012 Texas Instruments Incorporated
package/lib/Regression/regress_d_c/./../packages/ti/vlib/src/VLIB_grayscale_morphology/VLIB_grayscale_morphology_d.se66 PAGE   45

    2421                    $C$DW$187       .dwtag  DW_TAG_TI_branch
    2422                            .dwattr $C$DW$187, DW_AT_low_pc(0x00)
    2423                            .dwattr $C$DW$187, DW_AT_name("VLIB_profile_cycle_report")
    2424                            .dwattr $C$DW$187, DW_AT_TI_call
    2425                    
    2426 0000088c 10000013!            CALLP   .S2     VLIB_profile_cycle_report,B3
    2427 00000890 03000069! ||         MVKH    .S1     $C$SL11+0,A6
    2428 00000894     2626  ||         MVK     .L1     0x1,A4            ; |177| 
    2429 00000896     0627  ||         ZERO    .L2     B4                ; |177| 
    2430                    
    2431                            .dwpsn  file "./../packages/ti/vlib/src/VLIB_grayscale_morphology/VLIB_grayscale_morphology_d.
    2432                    ;----------------------------------------------------------------------
    2433                    ; 177 | VLIB_profile_cycle_report(vlib_PROFILE_RANGE,                          
    2434                    ; 178 |                           NULL,                                        
    2435                    ; 179 |                           "((blk_w - se_w + 1) * (blk_h - se_h + 1) * s
    2436                    ;     | e_w * se_h)");                                                         
    2437                    ; 182 | VLIB_kernel_memory();                                                  
    2438                    ;----------------------------------------------------------------------
    2439 00000898           $C$RL36:   ; CALL OCCURS {VLIB_profile_cycle_report} {0}  ; |177| 
    2440 00000898           $C$DW$L$VLIB_grayscale_morphology_d$43$E:
    2441                    ;** --------------------------------------------------------------------------*
    2442 00000898           $C$DW$L$VLIB_grayscale_morphology_d$44$B:
    2443                    ;          EXCLUSIVE CPU CYCLES: 14
    2444 00000898 0200002a!            MVKL    .S2     $C$SL12+0,B4
    2445 000008a0 0200006a!            MVKH    .S2     $C$SL12+0,B4
    2446                    $C$DW$188       .dwtag  DW_TAG_TI_branch
    2447                            .dwattr $C$DW$188, DW_AT_low_pc(0x00)
    2448                            .dwattr $C$DW$188, DW_AT_name("printf")
    2449                            .dwattr $C$DW$188, DW_AT_TI_call
    2450                    
    2451 000008a4 10000013!            CALLP   .S2     printf,B3
    2452 000008a8 023c22f6  ||         STW     .D2T2   B4,*+SP(4)        ; |158| 
    2453                    
    2454                            .dwpsn  file ".\..\packages\ti\vlib\src\VLIB_grayscale_morphology\../common/VLIB_memory.h",lin
    2455                    $C$RL37:   ; CALL OCCURS {printf} {0}        ; |158| 
    2456                    $C$DW$189       .dwtag  DW_TAG_TI_branch
    2457                            .dwattr $C$DW$189, DW_AT_low_pc(0x00)
    2458                            .dwattr $C$DW$189, DW_AT_name("VLIB_stack_memory")
    2459                            .dwattr $C$DW$189, DW_AT_TI_call
    2460 000008ac 10000012!            CALLP   .S2     VLIB_stack_memory,B3
    2461                            .dwpsn  file ".\..\packages\ti\vlib\src\VLIB_grayscale_morphology\../common/VLIB_memory.h",lin
    2462 000008b0           $C$RL38:   ; CALL OCCURS {VLIB_stack_memory} {0}  ; |165| 
    2463 000008b0           $C$DW$L$VLIB_grayscale_morphology_d$44$E:
    2464                    ;** --------------------------------------------------------------------------*
    2465 000008b0           $C$DW$L$VLIB_grayscale_morphology_d$45$B:
    2466                    ;          EXCLUSIVE CPU CYCLES: 8
    2467                    ;**     -----------------------    return;
    2468                    
    2469 000008b0 05ac205b             ADD     .L2     1,B11,B11         ; |47| 
    2470 000008b4 0200002a! ||         MVKL    .S2     $C$SW1,B4
    2471                    
    2472 000008b8 002ce8db             CMPLT   .L2     B11,7,B0          ; |47| 
    2473 000008bc 0200006a! ||         MVKH    .S2     $C$SW1,B4
    2474                    
    2475 000008c0 2bbaa121     [ B0]   BNOP    .S1     $C$L1,5           ; |47| 
TMS320C6x Assembler PC v7.4.2 Thu Mar 19 12:41:29 2015

Tools Copyright (c) 1996-2012 Texas Instruments Incorporated
package/lib/Regression/regress_d_c/./../packages/ti/vlib/src/VLIB_grayscale_morphology/VLIB_grayscale_morphology_d.se66 PAGE   46

    2476 000008c8 008006a2  ||         MV      .S2     B0,B1             ; guard predicate rewrite
    2477 000008c4 002ccbdb  ||         CMPGTU  .L2     B11,6,B0          ; |51| 
    2478                    
    2479                            .dwpsn  file "./../packages/ti/vlib/src/VLIB_grayscale_morphology/VLIB_grayscale_morphology_d.
    2480                               ; BRANCHCC OCCURS {$C$L1}         ; |47| 
    2481 000008cc           $C$DW$L$VLIB_grayscale_morphology_d$45$E:
    2482                    ;** --------------------------------------------------------------------------*
    2483                    ;          EXCLUSIVE CPU CYCLES: 13
    2484                            .dwpsn  file "./../packages/ti/vlib/src/VLIB_grayscale_morphology/VLIB_grayscale_morphology_d.
    2485 000008cc 01bf92e6             LDW     .D2T2   *++SP(112),B3     ; |184| 
    2486                            .dwcfi  cfa_offset, 48
    2487                            .dwcfi  restore_reg, 19
    2488 000008d0     c677             LDDW    .D2T1   *++SP,A13:A12
    2489                            .dwcfi  cfa_offset, 40
    2490                            .dwcfi  restore_reg, 13
    2491                            .dwcfi  restore_reg, 12
    2492 000008d2     c777             LDDW    .D2T1   *++SP,A15:A14
    2493                            .dwcfi  cfa_offset, 32
    2494                            .dwcfi  restore_reg, 15
    2495                            .dwcfi  restore_reg, 14
    2496 000008d4     d577             LDDW    .D2T2   *++SP,B11:B10
    2497                            .dwcfi  cfa_offset, 24
    2498                            .dwcfi  restore_reg, 27
    2499                            .dwcfi  restore_reg, 26
    2500 000008d6     d677             LDDW    .D2T2   *++SP,B13:B12
    2501                            .dwcfi  cfa_offset, 16
    2502                            .dwcfi  restore_reg, 29
    2503                            .dwcfi  restore_reg, 28
    2504 000008d8     6577             LDW     .D2T1   *++SP(8),A10
    2505                            .dwcfi  cfa_offset, 8
    2506                            .dwcfi  restore_reg, 10
    2507 000008da     65f7             LDW     .D2T1   *++SP(8),A11      ; |184| 
    2508                            .dwcfi  cfa_offset, 0
    2509                            .dwcfi  restore_reg, 11
    2510                            .dwcfi  cfa_offset, 0
    2511                    $C$DW$190       .dwtag  DW_TAG_TI_branch
    2512                            .dwattr $C$DW$190, DW_AT_low_pc(0x00)
    2513                            .dwattr $C$DW$190, DW_AT_TI_return
    2514 000008e0 008ca362             RETNOP  .S2     B3,5
    2515                               ; BRANCH OCCURS {B3}  
    2516                    
    2517                    $C$DW$191       .dwtag  DW_TAG_TI_loop
    2518                            .dwattr $C$DW$191, DW_AT_name("c:\nightlybuilds\vlib\ti\vlib\vlib\examples\package/lib/Regress
    2519                            .dwattr $C$DW$191, DW_AT_TI_begin_file("./../packages/ti/vlib/src/VLIB_grayscale_morphology/VL
    2520                            .dwattr $C$DW$191, DW_AT_TI_begin_line(0x2f)
    2521                            .dwattr $C$DW$191, DW_AT_TI_end_line(0xb7)
    2522                    $C$DW$192       .dwtag  DW_TAG_TI_loop_range
    2523                            .dwattr $C$DW$192, DW_AT_low_pc($C$DW$L$VLIB_grayscale_morphology_d$3$B)
    2524                            .dwattr $C$DW$192, DW_AT_high_pc($C$DW$L$VLIB_grayscale_morphology_d$3$E)
    2525                    $C$DW$193       .dwtag  DW_TAG_TI_loop_range
    2526                            .dwattr $C$DW$193, DW_AT_low_pc($C$DW$L$VLIB_grayscale_morphology_d$15$B)
    2527                            .dwattr $C$DW$193, DW_AT_high_pc($C$DW$L$VLIB_grayscale_morphology_d$15$E)
    2528                    $C$DW$194       .dwtag  DW_TAG_TI_loop_range
    2529                            .dwattr $C$DW$194, DW_AT_low_pc($C$DW$L$VLIB_grayscale_morphology_d$4$B)
    2530                            .dwattr $C$DW$194, DW_AT_high_pc($C$DW$L$VLIB_grayscale_morphology_d$4$E)
TMS320C6x Assembler PC v7.4.2 Thu Mar 19 12:41:29 2015

Tools Copyright (c) 1996-2012 Texas Instruments Incorporated
package/lib/Regression/regress_d_c/./../packages/ti/vlib/src/VLIB_grayscale_morphology/VLIB_grayscale_morphology_d.se66 PAGE   47

    2531                    $C$DW$195       .dwtag  DW_TAG_TI_loop_range
    2532                            .dwattr $C$DW$195, DW_AT_low_pc($C$DW$L$VLIB_grayscale_morphology_d$5$B)
    2533                            .dwattr $C$DW$195, DW_AT_high_pc($C$DW$L$VLIB_grayscale_morphology_d$5$E)
    2534                    $C$DW$196       .dwtag  DW_TAG_TI_loop_range
    2535                            .dwattr $C$DW$196, DW_AT_low_pc($C$DW$L$VLIB_grayscale_morphology_d$6$B)
    2536                            .dwattr $C$DW$196, DW_AT_high_pc($C$DW$L$VLIB_grayscale_morphology_d$6$E)
    2537                    $C$DW$197       .dwtag  DW_TAG_TI_loop_range
    2538                            .dwattr $C$DW$197, DW_AT_low_pc($C$DW$L$VLIB_grayscale_morphology_d$7$B)
    2539                            .dwattr $C$DW$197, DW_AT_high_pc($C$DW$L$VLIB_grayscale_morphology_d$7$E)
    2540                    $C$DW$198       .dwtag  DW_TAG_TI_loop_range
    2541                            .dwattr $C$DW$198, DW_AT_low_pc($C$DW$L$VLIB_grayscale_morphology_d$8$B)
    2542                            .dwattr $C$DW$198, DW_AT_high_pc($C$DW$L$VLIB_grayscale_morphology_d$8$E)
    2543                    $C$DW$199       .dwtag  DW_TAG_TI_loop_range
    2544                            .dwattr $C$DW$199, DW_AT_low_pc($C$DW$L$VLIB_grayscale_morphology_d$9$B)
    2545                            .dwattr $C$DW$199, DW_AT_high_pc($C$DW$L$VLIB_grayscale_morphology_d$9$E)
    2546                    $C$DW$200       .dwtag  DW_TAG_TI_loop_range
    2547                            .dwattr $C$DW$200, DW_AT_low_pc($C$DW$L$VLIB_grayscale_morphology_d$10$B)
    2548                            .dwattr $C$DW$200, DW_AT_high_pc($C$DW$L$VLIB_grayscale_morphology_d$10$E)
    2549                    $C$DW$201       .dwtag  DW_TAG_TI_loop_range
    2550                            .dwattr $C$DW$201, DW_AT_low_pc($C$DW$L$VLIB_grayscale_morphology_d$11$B)
    2551                            .dwattr $C$DW$201, DW_AT_high_pc($C$DW$L$VLIB_grayscale_morphology_d$11$E)
    2552                    $C$DW$202       .dwtag  DW_TAG_TI_loop_range
    2553                            .dwattr $C$DW$202, DW_AT_low_pc($C$DW$L$VLIB_grayscale_morphology_d$12$B)
    2554                            .dwattr $C$DW$202, DW_AT_high_pc($C$DW$L$VLIB_grayscale_morphology_d$12$E)
    2555                    $C$DW$203       .dwtag  DW_TAG_TI_loop_range
    2556                            .dwattr $C$DW$203, DW_AT_low_pc($C$DW$L$VLIB_grayscale_morphology_d$13$B)
    2557                            .dwattr $C$DW$203, DW_AT_high_pc($C$DW$L$VLIB_grayscale_morphology_d$13$E)
    2558                    $C$DW$204       .dwtag  DW_TAG_TI_loop_range
    2559                            .dwattr $C$DW$204, DW_AT_low_pc($C$DW$L$VLIB_grayscale_morphology_d$14$B)
    2560                            .dwattr $C$DW$204, DW_AT_high_pc($C$DW$L$VLIB_grayscale_morphology_d$14$E)
    2561                    $C$DW$205       .dwtag  DW_TAG_TI_loop_range
    2562                            .dwattr $C$DW$205, DW_AT_low_pc($C$DW$L$VLIB_grayscale_morphology_d$43$B)
    2563                            .dwattr $C$DW$205, DW_AT_high_pc($C$DW$L$VLIB_grayscale_morphology_d$43$E)
    2564                    $C$DW$206       .dwtag  DW_TAG_TI_loop_range
    2565                            .dwattr $C$DW$206, DW_AT_low_pc($C$DW$L$VLIB_grayscale_morphology_d$44$B)
    2566                            .dwattr $C$DW$206, DW_AT_high_pc($C$DW$L$VLIB_grayscale_morphology_d$44$E)
    2567                    $C$DW$207       .dwtag  DW_TAG_TI_loop_range
    2568                            .dwattr $C$DW$207, DW_AT_low_pc($C$DW$L$VLIB_grayscale_morphology_d$45$B)
    2569                            .dwattr $C$DW$207, DW_AT_high_pc($C$DW$L$VLIB_grayscale_morphology_d$45$E)
    2570                    
    2571                    $C$DW$208       .dwtag  DW_TAG_TI_loop
    2572                            .dwattr $C$DW$208, DW_AT_name("c:\nightlybuilds\vlib\ti\vlib\vlib\examples\package/lib/Regress
    2573                            .dwattr $C$DW$208, DW_AT_TI_begin_file("./../packages/ti/vlib/src/VLIB_grayscale_morphology/VL
    2574                            .dwattr $C$DW$208, DW_AT_TI_begin_line(0x55)
    2575                            .dwattr $C$DW$208, DW_AT_TI_end_line(0xae)
    2576                    $C$DW$209       .dwtag  DW_TAG_TI_loop_range
    2577                            .dwattr $C$DW$209, DW_AT_low_pc($C$DW$L$VLIB_grayscale_morphology_d$16$B)
    2578                            .dwattr $C$DW$209, DW_AT_high_pc($C$DW$L$VLIB_grayscale_morphology_d$16$E)
    2579                    $C$DW$210       .dwtag  DW_TAG_TI_loop_range
    2580                            .dwattr $C$DW$210, DW_AT_low_pc($C$DW$L$VLIB_grayscale_morphology_d$38$B)
    2581                            .dwattr $C$DW$210, DW_AT_high_pc($C$DW$L$VLIB_grayscale_morphology_d$38$E)
    2582                    $C$DW$211       .dwtag  DW_TAG_TI_loop_range
    2583                            .dwattr $C$DW$211, DW_AT_low_pc($C$DW$L$VLIB_grayscale_morphology_d$24$B)
    2584                            .dwattr $C$DW$211, DW_AT_high_pc($C$DW$L$VLIB_grayscale_morphology_d$24$E)
    2585                    $C$DW$212       .dwtag  DW_TAG_TI_loop_range
TMS320C6x Assembler PC v7.4.2 Thu Mar 19 12:41:29 2015

Tools Copyright (c) 1996-2012 Texas Instruments Incorporated
package/lib/Regression/regress_d_c/./../packages/ti/vlib/src/VLIB_grayscale_morphology/VLIB_grayscale_morphology_d.se66 PAGE   48

    2586                            .dwattr $C$DW$212, DW_AT_low_pc($C$DW$L$VLIB_grayscale_morphology_d$17$B)
    2587                            .dwattr $C$DW$212, DW_AT_high_pc($C$DW$L$VLIB_grayscale_morphology_d$17$E)
    2588                    $C$DW$213       .dwtag  DW_TAG_TI_loop_range
    2589                            .dwattr $C$DW$213, DW_AT_low_pc($C$DW$L$VLIB_grayscale_morphology_d$18$B)
    2590                            .dwattr $C$DW$213, DW_AT_high_pc($C$DW$L$VLIB_grayscale_morphology_d$18$E)
    2591                    $C$DW$214       .dwtag  DW_TAG_TI_loop_range
    2592                            .dwattr $C$DW$214, DW_AT_low_pc($C$DW$L$VLIB_grayscale_morphology_d$19$B)
    2593                            .dwattr $C$DW$214, DW_AT_high_pc($C$DW$L$VLIB_grayscale_morphology_d$19$E)
    2594                    $C$DW$215       .dwtag  DW_TAG_TI_loop_range
    2595                            .dwattr $C$DW$215, DW_AT_low_pc($C$DW$L$VLIB_grayscale_morphology_d$20$B)
    2596                            .dwattr $C$DW$215, DW_AT_high_pc($C$DW$L$VLIB_grayscale_morphology_d$20$E)
    2597                    $C$DW$216       .dwtag  DW_TAG_TI_loop_range
    2598                            .dwattr $C$DW$216, DW_AT_low_pc($C$DW$L$VLIB_grayscale_morphology_d$21$B)
    2599                            .dwattr $C$DW$216, DW_AT_high_pc($C$DW$L$VLIB_grayscale_morphology_d$21$E)
    2600                    $C$DW$217       .dwtag  DW_TAG_TI_loop_range
    2601                            .dwattr $C$DW$217, DW_AT_low_pc($C$DW$L$VLIB_grayscale_morphology_d$22$B)
    2602                            .dwattr $C$DW$217, DW_AT_high_pc($C$DW$L$VLIB_grayscale_morphology_d$22$E)
    2603                    $C$DW$218       .dwtag  DW_TAG_TI_loop_range
    2604                            .dwattr $C$DW$218, DW_AT_low_pc($C$DW$L$VLIB_grayscale_morphology_d$23$B)
    2605                            .dwattr $C$DW$218, DW_AT_high_pc($C$DW$L$VLIB_grayscale_morphology_d$23$E)
    2606                    $C$DW$219       .dwtag  DW_TAG_TI_loop_range
    2607                            .dwattr $C$DW$219, DW_AT_low_pc($C$DW$L$VLIB_grayscale_morphology_d$35$B)
    2608                            .dwattr $C$DW$219, DW_AT_high_pc($C$DW$L$VLIB_grayscale_morphology_d$35$E)
    2609                    $C$DW$220       .dwtag  DW_TAG_TI_loop_range
    2610                            .dwattr $C$DW$220, DW_AT_low_pc($C$DW$L$VLIB_grayscale_morphology_d$36$B)
    2611                            .dwattr $C$DW$220, DW_AT_high_pc($C$DW$L$VLIB_grayscale_morphology_d$36$E)
    2612                    $C$DW$221       .dwtag  DW_TAG_TI_loop_range
    2613                            .dwattr $C$DW$221, DW_AT_low_pc($C$DW$L$VLIB_grayscale_morphology_d$37$B)
    2614                            .dwattr $C$DW$221, DW_AT_high_pc($C$DW$L$VLIB_grayscale_morphology_d$37$E)
    2615                    $C$DW$222       .dwtag  DW_TAG_TI_loop_range
    2616                            .dwattr $C$DW$222, DW_AT_low_pc($C$DW$L$VLIB_grayscale_morphology_d$39$B)
    2617                            .dwattr $C$DW$222, DW_AT_high_pc($C$DW$L$VLIB_grayscale_morphology_d$39$E)
    2618                    $C$DW$223       .dwtag  DW_TAG_TI_loop_range
    2619                            .dwattr $C$DW$223, DW_AT_low_pc($C$DW$L$VLIB_grayscale_morphology_d$40$B)
    2620                            .dwattr $C$DW$223, DW_AT_high_pc($C$DW$L$VLIB_grayscale_morphology_d$40$E)
    2621                    $C$DW$224       .dwtag  DW_TAG_TI_loop_range
    2622                            .dwattr $C$DW$224, DW_AT_low_pc($C$DW$L$VLIB_grayscale_morphology_d$41$B)
    2623                            .dwattr $C$DW$224, DW_AT_high_pc($C$DW$L$VLIB_grayscale_morphology_d$41$E)
    2624                    $C$DW$225       .dwtag  DW_TAG_TI_loop_range
    2625                            .dwattr $C$DW$225, DW_AT_low_pc($C$DW$L$VLIB_grayscale_morphology_d$42$B)
    2626                            .dwattr $C$DW$225, DW_AT_high_pc($C$DW$L$VLIB_grayscale_morphology_d$42$E)
    2627                    
    2628                    $C$DW$226       .dwtag  DW_TAG_TI_loop
    2629                            .dwattr $C$DW$226, DW_AT_name("c:\nightlybuilds\vlib\ti\vlib\vlib\examples\package/lib/Regress
    2630                            .dwattr $C$DW$226, DW_AT_TI_begin_file("./../packages/ti/vlib/src/VLIB_grayscale_morphology/VL
    2631                            .dwattr $C$DW$226, DW_AT_TI_begin_line(0x8a)
    2632                            .dwattr $C$DW$226, DW_AT_TI_end_line(0x92)
    2633                    $C$DW$227       .dwtag  DW_TAG_TI_loop_range
    2634                            .dwattr $C$DW$227, DW_AT_low_pc($C$DW$L$VLIB_grayscale_morphology_d$25$B)
    2635                            .dwattr $C$DW$227, DW_AT_high_pc($C$DW$L$VLIB_grayscale_morphology_d$25$E)
    2636                    $C$DW$228       .dwtag  DW_TAG_TI_loop_range
    2637                            .dwattr $C$DW$228, DW_AT_low_pc($C$DW$L$VLIB_grayscale_morphology_d$31$B)
    2638                            .dwattr $C$DW$228, DW_AT_high_pc($C$DW$L$VLIB_grayscale_morphology_d$31$E)
    2639                    $C$DW$229       .dwtag  DW_TAG_TI_loop_range
    2640                            .dwattr $C$DW$229, DW_AT_low_pc($C$DW$L$VLIB_grayscale_morphology_d$32$B)
TMS320C6x Assembler PC v7.4.2 Thu Mar 19 12:41:29 2015

Tools Copyright (c) 1996-2012 Texas Instruments Incorporated
package/lib/Regression/regress_d_c/./../packages/ti/vlib/src/VLIB_grayscale_morphology/VLIB_grayscale_morphology_d.se66 PAGE   49

    2641                            .dwattr $C$DW$229, DW_AT_high_pc($C$DW$L$VLIB_grayscale_morphology_d$32$E)
    2642                    $C$DW$230       .dwtag  DW_TAG_TI_loop_range
    2643                            .dwattr $C$DW$230, DW_AT_low_pc($C$DW$L$VLIB_grayscale_morphology_d$26$B)
    2644                            .dwattr $C$DW$230, DW_AT_high_pc($C$DW$L$VLIB_grayscale_morphology_d$26$E)
    2645                    $C$DW$231       .dwtag  DW_TAG_TI_loop_range
    2646                            .dwattr $C$DW$231, DW_AT_low_pc($C$DW$L$VLIB_grayscale_morphology_d$30$B)
    2647                            .dwattr $C$DW$231, DW_AT_high_pc($C$DW$L$VLIB_grayscale_morphology_d$30$E)
    2648                    $C$DW$232       .dwtag  DW_TAG_TI_loop_range
    2649                            .dwattr $C$DW$232, DW_AT_low_pc($C$DW$L$VLIB_grayscale_morphology_d$33$B)
    2650                            .dwattr $C$DW$232, DW_AT_high_pc($C$DW$L$VLIB_grayscale_morphology_d$33$E)
    2651                    $C$DW$233       .dwtag  DW_TAG_TI_loop_range
    2652                            .dwattr $C$DW$233, DW_AT_low_pc($C$DW$L$VLIB_grayscale_morphology_d$34$B)
    2653                            .dwattr $C$DW$233, DW_AT_high_pc($C$DW$L$VLIB_grayscale_morphology_d$34$E)
    2654                    
    2655                    $C$DW$234       .dwtag  DW_TAG_TI_loop
    2656                            .dwattr $C$DW$234, DW_AT_name("c:\nightlybuilds\vlib\ti\vlib\vlib\examples\package/lib/Regress
    2657                            .dwattr $C$DW$234, DW_AT_TI_begin_file("./../packages/ti/vlib/src/VLIB_grayscale_morphology/VL
    2658                            .dwattr $C$DW$234, DW_AT_TI_begin_line(0x8b)
    2659                            .dwattr $C$DW$234, DW_AT_TI_end_line(0x91)
    2660                    $C$DW$235       .dwtag  DW_TAG_TI_loop_range
    2661                            .dwattr $C$DW$235, DW_AT_low_pc($C$DW$L$VLIB_grayscale_morphology_d$28$B)
    2662                            .dwattr $C$DW$235, DW_AT_high_pc($C$DW$L$VLIB_grayscale_morphology_d$28$E)
    2663                            .dwendtag $C$DW$234
    2664                    
    2665                            .dwendtag $C$DW$226
    2666                    
    2667                            .dwendtag $C$DW$208
    2668                    
    2669                            .dwendtag $C$DW$191
    2670                    
    2671                            .dwattr $C$DW$102, DW_AT_TI_end_file("./../packages/ti/vlib/src/VLIB_grayscale_morphology/VLIB
    2672                            .dwattr $C$DW$102, DW_AT_TI_end_line(0xb8)
    2673                            .dwattr $C$DW$102, DW_AT_TI_end_column(0x01)
    2674                            .dwendentry
    2675                            .dwendtag $C$DW$102
    2676                    
    2677                    ;; Inlined function references:
    2678                    ;; [ 16] VLIB_profile_start
    2679                    ;; [ 17] VLIB_profile_stop
    2680                    ;; [ 20] VLIB_kernel_memory
    2681                    ;******************************************************************************
    2682                    ;* STRINGS                                                                    *
    2683                    ;******************************************************************************
    2684 00000000                   .sect   ".const:.string"
    2685 00000000 00000047  $C$SL1: .string "GRAYSCALE_MORPH_GRADIENT",0
         00000001 00000052 
         00000002 00000041 
         00000003 00000059 
         00000004 00000053 
         00000005 00000043 
         00000006 00000041 
         00000007 0000004C 
         00000008 00000045 
         00000009 0000005F 
         0000000a 0000004D 
TMS320C6x Assembler PC v7.4.2 Thu Mar 19 12:41:29 2015

Tools Copyright (c) 1996-2012 Texas Instruments Incorporated
package/lib/Regression/regress_d_c/./../packages/ti/vlib/src/VLIB_grayscale_morphology/VLIB_grayscale_morphology_d.se66 PAGE   50

         0000000b 0000004F 
         0000000c 00000052 
         0000000d 00000050 
         0000000e 00000048 
         0000000f 0000005F 
         00000010 00000047 
         00000011 00000052 
         00000012 00000041 
         00000013 00000044 
         00000014 00000049 
         00000015 00000045 
         00000016 0000004E 
         00000017 00000054 
         00000018 00000000 
    2686 00000019 00000047  $C$SL2: .string "GRAYSCALE_MORPH_BOTHAT",0
         0000001a 00000052 
         0000001b 00000041 
         0000001c 00000059 
         0000001d 00000053 
         0000001e 00000043 
         0000001f 00000041 
         00000020 0000004C 
         00000021 00000045 
         00000022 0000005F 
         00000023 0000004D 
         00000024 0000004F 
         00000025 00000052 
         00000026 00000050 
         00000027 00000048 
         00000028 0000005F 
         00000029 00000042 
         0000002a 0000004F 
         0000002b 00000054 
         0000002c 00000048 
         0000002d 00000041 
         0000002e 00000054 
         0000002f 00000000 
    2687 00000030 00000047  $C$SL3: .string "GRAYSCALE_MORPH_TOPHAT",0
         00000031 00000052 
         00000032 00000041 
         00000033 00000059 
         00000034 00000053 
         00000035 00000043 
         00000036 00000041 
         00000037 0000004C 
         00000038 00000045 
         00000039 0000005F 
         0000003a 0000004D 
         0000003b 0000004F 
         0000003c 00000052 
         0000003d 00000050 
         0000003e 00000048 
         0000003f 0000005F 
         00000040 00000054 
         00000041 0000004F 
TMS320C6x Assembler PC v7.4.2 Thu Mar 19 12:41:29 2015

Tools Copyright (c) 1996-2012 Texas Instruments Incorporated
package/lib/Regression/regress_d_c/./../packages/ti/vlib/src/VLIB_grayscale_morphology/VLIB_grayscale_morphology_d.se66 PAGE   51

         00000042 00000050 
         00000043 00000048 
         00000044 00000041 
         00000045 00000054 
         00000046 00000000 
    2688 00000047 00000047  $C$SL4: .string "GRAYSCALE_MORPH_CLOSE",0
         00000048 00000052 
         00000049 00000041 
         0000004a 00000059 
         0000004b 00000053 
         0000004c 00000043 
         0000004d 00000041 
         0000004e 0000004C 
         0000004f 00000045 
         00000050 0000005F 
         00000051 0000004D 
         00000052 0000004F 
         00000053 00000052 
         00000054 00000050 
         00000055 00000048 
         00000056 0000005F 
         00000057 00000043 
         00000058 0000004C 
         00000059 0000004F 
         0000005a 00000053 
         0000005b 00000045 
         0000005c 00000000 
    2689 0000005d 00000047  $C$SL5: .string "GRAYSCALE_MORPH_OPEN",0
         0000005e 00000052 
         0000005f 00000041 
         00000060 00000059 
         00000061 00000053 
         00000062 00000043 
         00000063 00000041 
         00000064 0000004C 
         00000065 00000045 
         00000066 0000005F 
         00000067 0000004D 
         00000068 0000004F 
         00000069 00000052 
         0000006a 00000050 
         0000006b 00000048 
         0000006c 0000005F 
         0000006d 0000004F 
         0000006e 00000050 
         0000006f 00000045 
         00000070 0000004E 
         00000071 00000000 
    2690 00000072 00000047  $C$SL6: .string "GRAYSCALE_MORPH_ERODE",0
         00000073 00000052 
         00000074 00000041 
         00000075 00000059 
         00000076 00000053 
         00000077 00000043 
         00000078 00000041 
TMS320C6x Assembler PC v7.4.2 Thu Mar 19 12:41:29 2015

Tools Copyright (c) 1996-2012 Texas Instruments Incorporated
package/lib/Regression/regress_d_c/./../packages/ti/vlib/src/VLIB_grayscale_morphology/VLIB_grayscale_morphology_d.se66 PAGE   52

         00000079 0000004C 
         0000007a 00000045 
         0000007b 0000005F 
         0000007c 0000004D 
         0000007d 0000004F 
         0000007e 00000052 
         0000007f 00000050 
         00000080 00000048 
         00000081 0000005F 
         00000082 00000045 
         00000083 00000052 
         00000084 0000004F 
         00000085 00000044 
         00000086 00000045 
         00000087 00000000 
    2691 00000088 00000047  $C$SL7: .string "GRAYSCALE_MORPH_DILATE",0
         00000089 00000052 
         0000008a 00000041 
         0000008b 00000059 
         0000008c 00000053 
         0000008d 00000043 
         0000008e 00000041 
         0000008f 0000004C 
         00000090 00000045 
         00000091 0000005F 
         00000092 0000004D 
         00000093 0000004F 
         00000094 00000052 
         00000095 00000050 
         00000096 00000048 
         00000097 0000005F 
         00000098 00000044 
         00000099 00000049 
         0000009a 0000004C 
         0000009b 00000041 
         0000009c 00000054 
         0000009d 00000045 
         0000009e 00000000 
    2692 0000009f 00000072  $C$SL8: .string "row:%d, col:%d, out:%u, EOut:%u ",10,0
         000000a0 0000006F 
         000000a1 00000077 
         000000a2 0000003A 
         000000a3 00000025 
         000000a4 00000064 
         000000a5 0000002C 
         000000a6 00000020 
         000000a7 00000063 
         000000a8 0000006F 
         000000a9 0000006C 
         000000aa 0000003A 
         000000ab 00000025 
         000000ac 00000064 
         000000ad 0000002C 
         000000ae 00000020 
         000000af 0000006F 
TMS320C6x Assembler PC v7.4.2 Thu Mar 19 12:41:29 2015

Tools Copyright (c) 1996-2012 Texas Instruments Incorporated
package/lib/Regression/regress_d_c/./../packages/ti/vlib/src/VLIB_grayscale_morphology/VLIB_grayscale_morphology_d.se66 PAGE   53

         000000b0 00000075 
         000000b1 00000074 
         000000b2 0000003A 
         000000b3 00000025 
         000000b4 00000075 
         000000b5 0000002C 
         000000b6 00000020 
         000000b7 00000045 
         000000b8 0000004F 
         000000b9 00000075 
         000000ba 00000074 
         000000bb 0000003A 
         000000bc 00000025 
         000000bd 00000075 
         000000be 00000020 
         000000bf 0000000A 
         000000c0 00000000 
    2693 000000c1 00000025  $C$SL9: .string "%s generated input | Opt and NatC results compared | blk_w="
         000000c2 00000073 
         000000c3 00000020 
         000000c4 00000067 
         000000c5 00000065 
         000000c6 0000006E 
         000000c7 00000065 
         000000c8 00000072 
         000000c9 00000061 
         000000ca 00000074 
         000000cb 00000065 
         000000cc 00000064 
         000000cd 00000020 
         000000ce 00000069 
         000000cf 0000006E 
         000000d0 00000070 
         000000d1 00000075 
         000000d2 00000074 
         000000d3 00000020 
         000000d4 0000007C 
         000000d5 00000020 
         000000d6 0000004F 
         000000d7 00000070 
         000000d8 00000074 
         000000d9 00000020 
         000000da 00000061 
         000000db 0000006E 
         000000dc 00000064 
         000000dd 00000020 
         000000de 0000004E 
         000000df 00000061 
         000000e0 00000074 
         000000e1 00000043 
         000000e2 00000020 
         000000e3 00000072 
         000000e4 00000065 
         000000e5 00000073 
         000000e6 00000075 
TMS320C6x Assembler PC v7.4.2 Thu Mar 19 12:41:29 2015

Tools Copyright (c) 1996-2012 Texas Instruments Incorporated
package/lib/Regression/regress_d_c/./../packages/ti/vlib/src/VLIB_grayscale_morphology/VLIB_grayscale_morphology_d.se66 PAGE   54

         000000e7 0000006C 
         000000e8 00000074 
         000000e9 00000073 
         000000ea 00000020 
         000000eb 00000063 
         000000ec 0000006F 
         000000ed 0000006D 
         000000ee 00000070 
         000000ef 00000061 
         000000f0 00000072 
         000000f1 00000065 
         000000f2 00000064 
         000000f3 00000020 
         000000f4 0000007C 
         000000f5 00000020 
         000000f6 00000062 
         000000f7 0000006C 
         000000f8 0000006B 
         000000f9 0000005F 
         000000fa 00000077 
         000000fb 0000003D 
    2694 000000fc 00000020          .string " %d, blk_h= %d, se_w= %d, se_h= %d | %s",0
         000000fd 00000025 
         000000fe 00000064 
         000000ff 0000002C 
         00000100 00000020 
         00000101 00000062 
         00000102 0000006C 
         00000103 0000006B 
         00000104 0000005F 
         00000105 00000068 
         00000106 0000003D 
         00000107 00000020 
         00000108 00000025 
         00000109 00000064 
         0000010a 0000002C 
         0000010b 00000020 
         0000010c 00000073 
         0000010d 00000065 
         0000010e 0000005F 
         0000010f 00000077 
         00000110 0000003D 
         00000111 00000020 
         00000112 00000025 
         00000113 00000064 
         00000114 0000002C 
         00000115 00000020 
         00000116 00000073 
         00000117 00000065 
         00000118 0000005F 
         00000119 00000068 
         0000011a 0000003D 
         0000011b 00000020 
         0000011c 00000025 
         0000011d 00000064 
TMS320C6x Assembler PC v7.4.2 Thu Mar 19 12:41:29 2015

Tools Copyright (c) 1996-2012 Texas Instruments Incorporated
package/lib/Regression/regress_d_c/./../packages/ti/vlib/src/VLIB_grayscale_morphology/VLIB_grayscale_morphology_d.se66 PAGE   55

         0000011e 00000020 
         0000011f 0000007C 
         00000120 00000020 
         00000121 00000025 
         00000122 00000073 
         00000123 00000000 
    2695 00000124 00000062  $C$SL10:        .string "blk_w= %d, blk_h= %d, se_w= %d, se_h= %d | %s",0
         00000125 0000006C 
         00000126 0000006B 
         00000127 0000005F 
         00000128 00000077 
         00000129 0000003D 
         0000012a 00000020 
         0000012b 00000025 
         0000012c 00000064 
         0000012d 0000002C 
         0000012e 00000020 
         0000012f 00000062 
         00000130 0000006C 
         00000131 0000006B 
         00000132 0000005F 
         00000133 00000068 
         00000134 0000003D 
         00000135 00000020 
         00000136 00000025 
         00000137 00000064 
         00000138 0000002C 
         00000139 00000020 
         0000013a 00000073 
         0000013b 00000065 
         0000013c 0000005F 
         0000013d 00000077 
         0000013e 0000003D 
         0000013f 00000020 
         00000140 00000025 
         00000141 00000064 
         00000142 0000002C 
         00000143 00000020 
         00000144 00000073 
         00000145 00000065 
         00000146 0000005F 
         00000147 00000068 
         00000148 0000003D 
         00000149 00000020 
         0000014a 00000025 
         0000014b 00000064 
         0000014c 00000020 
         0000014d 0000007C 
         0000014e 00000020 
         0000014f 00000025 
         00000150 00000073 
         00000151 00000000 
    2696 00000152 00000028  $C$SL11:        .string "((blk_w - se_w + 1) * (blk_h - se_h + 1) * se_w * se_h)",0
         00000153 00000028 
         00000154 00000062 
TMS320C6x Assembler PC v7.4.2 Thu Mar 19 12:41:29 2015

Tools Copyright (c) 1996-2012 Texas Instruments Incorporated
package/lib/Regression/regress_d_c/./../packages/ti/vlib/src/VLIB_grayscale_morphology/VLIB_grayscale_morphology_d.se66 PAGE   56

         00000155 0000006C 
         00000156 0000006B 
         00000157 0000005F 
         00000158 00000077 
         00000159 00000020 
         0000015a 0000002D 
         0000015b 00000020 
         0000015c 00000073 
         0000015d 00000065 
         0000015e 0000005F 
         0000015f 00000077 
         00000160 00000020 
         00000161 0000002B 
         00000162 00000020 
         00000163 00000031 
         00000164 00000029 
         00000165 00000020 
         00000166 0000002A 
         00000167 00000020 
         00000168 00000028 
         00000169 00000062 
         0000016a 0000006C 
         0000016b 0000006B 
         0000016c 0000005F 
         0000016d 00000068 
         0000016e 00000020 
         0000016f 0000002D 
         00000170 00000020 
         00000171 00000073 
         00000172 00000065 
         00000173 0000005F 
         00000174 00000068 
         00000175 00000020 
         00000176 0000002B 
         00000177 00000020 
         00000178 00000031 
         00000179 00000029 
         0000017a 00000020 
         0000017b 0000002A 
         0000017c 00000020 
         0000017d 00000073 
         0000017e 00000065 
         0000017f 0000005F 
         00000180 00000077 
         00000181 00000020 
         00000182 0000002A 
         00000183 00000020 
         00000184 00000073 
         00000185 00000065 
         00000186 0000005F 
         00000187 00000068 
         00000188 00000029 
         00000189 00000000 
    2697 0000018a 0000002D  $C$SL12:        .string "-----------------------------------------------------------"
         0000018b 0000002D 
TMS320C6x Assembler PC v7.4.2 Thu Mar 19 12:41:29 2015

Tools Copyright (c) 1996-2012 Texas Instruments Incorporated
package/lib/Regression/regress_d_c/./../packages/ti/vlib/src/VLIB_grayscale_morphology/VLIB_grayscale_morphology_d.se66 PAGE   57

         0000018c 0000002D 
         0000018d 0000002D 
         0000018e 0000002D 
         0000018f 0000002D 
         00000190 0000002D 
         00000191 0000002D 
         00000192 0000002D 
         00000193 0000002D 
         00000194 0000002D 
         00000195 0000002D 
         00000196 0000002D 
         00000197 0000002D 
         00000198 0000002D 
         00000199 0000002D 
         0000019a 0000002D 
         0000019b 0000002D 
         0000019c 0000002D 
         0000019d 0000002D 
         0000019e 0000002D 
         0000019f 0000002D 
         000001a0 0000002D 
         000001a1 0000002D 
         000001a2 0000002D 
         000001a3 0000002D 
         000001a4 0000002D 
         000001a5 0000002D 
         000001a6 0000002D 
         000001a7 0000002D 
         000001a8 0000002D 
         000001a9 0000002D 
         000001aa 0000002D 
         000001ab 0000002D 
         000001ac 0000002D 
         000001ad 0000002D 
         000001ae 0000002D 
         000001af 0000002D 
         000001b0 0000002D 
         000001b1 0000002D 
         000001b2 0000002D 
         000001b3 0000002D 
         000001b4 0000002D 
         000001b5 0000002D 
         000001b6 0000002D 
         000001b7 0000002D 
         000001b8 0000002D 
         000001b9 0000002D 
         000001ba 0000002D 
         000001bb 0000002D 
         000001bc 0000002D 
         000001bd 0000002D 
         000001be 0000002D 
         000001bf 0000002D 
         000001c0 0000002D 
         000001c1 0000002D 
         000001c2 0000002D 
TMS320C6x Assembler PC v7.4.2 Thu Mar 19 12:41:29 2015

Tools Copyright (c) 1996-2012 Texas Instruments Incorporated
package/lib/Regression/regress_d_c/./../packages/ti/vlib/src/VLIB_grayscale_morphology/VLIB_grayscale_morphology_d.se66 PAGE   58

         000001c3 0000002D 
         000001c4 0000002D 
    2698 000001c5 0000002D          .string "-----------------------------------------------------------"
         000001c6 0000002D 
         000001c7 0000002D 
         000001c8 0000002D 
         000001c9 0000002D 
         000001ca 0000002D 
         000001cb 0000002D 
         000001cc 0000002D 
         000001cd 0000002D 
         000001ce 0000002D 
         000001cf 0000002D 
         000001d0 0000002D 
         000001d1 0000002D 
         000001d2 0000002D 
         000001d3 0000002D 
         000001d4 0000002D 
         000001d5 0000002D 
         000001d6 0000002D 
         000001d7 0000002D 
         000001d8 0000002D 
         000001d9 0000002D 
         000001da 0000002D 
         000001db 0000002D 
         000001dc 0000002D 
         000001dd 0000002D 
         000001de 0000002D 
         000001df 0000002D 
         000001e0 0000002D 
         000001e1 0000002D 
         000001e2 0000002D 
         000001e3 0000002D 
         000001e4 0000002D 
         000001e5 0000002D 
         000001e6 0000002D 
         000001e7 0000002D 
         000001e8 0000002D 
         000001e9 0000002D 
         000001ea 0000002D 
         000001eb 0000002D 
         000001ec 0000002D 
         000001ed 0000002D 
         000001ee 0000002D 
         000001ef 0000002D 
         000001f0 0000002D 
         000001f1 0000002D 
         000001f2 0000002D 
         000001f3 0000002D 
         000001f4 0000002D 
         000001f5 0000002D 
         000001f6 0000002D 
         000001f7 0000002D 
         000001f8 0000002D 
         000001f9 0000002D 
TMS320C6x Assembler PC v7.4.2 Thu Mar 19 12:41:29 2015

Tools Copyright (c) 1996-2012 Texas Instruments Incorporated
package/lib/Regression/regress_d_c/./../packages/ti/vlib/src/VLIB_grayscale_morphology/VLIB_grayscale_morphology_d.se66 PAGE   59

         000001fa 0000002D 
         000001fb 0000002D 
         000001fc 0000002D 
         000001fd 0000002D 
         000001fe 0000002D 
         000001ff 0000002D 
    2699 00000200 0000002D          .string "-----------------------",10,0
         00000201 0000002D 
         00000202 0000002D 
         00000203 0000002D 
         00000204 0000002D 
         00000205 0000002D 
         00000206 0000002D 
         00000207 0000002D 
         00000208 0000002D 
         00000209 0000002D 
         0000020a 0000002D 
         0000020b 0000002D 
         0000020c 0000002D 
         0000020d 0000002D 
         0000020e 0000002D 
         0000020f 0000002D 
         00000210 0000002D 
         00000211 0000002D 
         00000212 0000002D 
         00000213 0000002D 
         00000214 0000002D 
         00000215 0000002D 
         00000216 0000002D 
         00000217 0000000A 
         00000218 00000000 
    2700                    ;*****************************************************************************
    2701                    ;* UNDEFINED EXTERNAL REFERENCES                                             *
    2702                    ;*****************************************************************************
    2703                            .global printf
    2704                            .global sprintf
    2705                            .global memset
    2706                            .global free
    2707                            .global memalign
    2708                            .global VLIB_cache_inval
    2709                            .global VLIB_profile_init
    2710                            .global VLIB_formula_add_test
    2711                            .global VLIB_skip_test
    2712                            .global VLIB_profile_cycle_report
    2713                            .global initStack
    2714                            .global setStackDepth
