TMS320C6x Assembler PC v7.4.2 Thu Mar 19 12:40:38 2015

Tools Copyright (c) 1996-2012 Texas Instruments Incorporated
package/lib/Regression/regress_d_c/./../packages/ti/vlib/src/VLIB_coOccurrenceMatrix/VLIB_coOccurrenceMatrix_d.se66 PAGE    1

       1                    ;******************************************************************************
       2                    ;* TMS320C6x C/C++ Codegen                                          PC v7.4.2 *
       3                    ;* Date/Time created: Thu Mar 19 12:40:38 2015                                *
       4                    ;******************************************************************************
       5                            .compiler_opts --abi=eabi --c64p_l1d_workaround=off --endian=little --hll_source=on --long_pre
       6                    
       7                    ;******************************************************************************
       8                    ;* GLOBAL FILE PARAMETERS                                                     *
       9                    ;*                                                                            *
      10                    ;*   Architecture      : TMS320C66xx                                          *
      11                    ;*   Optimization      : Enabled at level 3                                   *
      12                    ;*   Optimizing for    : Speed                                                *
      13                    ;*                       Based on options: -o3, no -ms                        *
      14                    ;*   Endian            : Little                                               *
      15                    ;*   Interrupt Thrshld : 10000                                                *
      16                    ;*   Data Access Model : Far                                                  *
      17                    ;*   Pipelining        : Enabled                                              *
      18                    ;*   Speculate Loads   : Enabled with threshold = 0                           *
      19                    ;*   Memory Aliases    : Presume are aliases (pessimistic)                    *
      20                    ;*   Debug Info        : DWARF Debug w/Optimization                           *
      21                    ;*                                                                            *
      22                    ;******************************************************************************
      23                    
      24                            .asg    A15, FP
      25                            .asg    B14, DP
      26                            .asg    B15, SP
      27                            .global $bss
      28                    
      29                    
      30                    $C$DW$CU        .dwtag  DW_TAG_compile_unit
      31                            .dwattr $C$DW$CU, DW_AT_name("./../packages/ti/vlib/src/VLIB_coOccurrenceMatrix/VLIB_coOccurre
      32                            .dwattr $C$DW$CU, DW_AT_producer("TI TMS320C6x C/C++ Codegen PC v7.4.2 Copyright (c) 1996-2012
      33                            .dwattr $C$DW$CU, DW_AT_TI_version(0x01)
      34                            .dwattr $C$DW$CU, DW_AT_comp_dir("c:\nightlybuilds\vlib\ti\vlib\vlib\examples")
      35                    
      36                    $C$DW$1 .dwtag  DW_TAG_subprogram, DW_AT_name("_itoll")
      37                            .dwattr $C$DW$1, DW_AT_TI_symbol_name("_itoll")
      38                            .dwattr $C$DW$1, DW_AT_type(*$C$DW$T$14)
      39                            .dwattr $C$DW$1, DW_AT_declaration
      40                            .dwattr $C$DW$1, DW_AT_external
      41                            .dwattr $C$DW$1, DW_AT_decl_file("C:/VLIB_Tools/CCSV5_4_0/ccsv5/tools/compiler/C6000/include/c
      42                            .dwattr $C$DW$1, DW_AT_decl_line(0xdf)
      43                            .dwattr $C$DW$1, DW_AT_decl_column(0x0b)
      44                    $C$DW$2 .dwtag  DW_TAG_formal_parameter
      45                            .dwattr $C$DW$2, DW_AT_type(*$C$DW$T$11)
      46                    $C$DW$3 .dwtag  DW_TAG_formal_parameter
      47                            .dwattr $C$DW$3, DW_AT_type(*$C$DW$T$11)
      48                            .dwendtag $C$DW$1
      49                    
      50                    
      51                    $C$DW$4 .dwtag  DW_TAG_subprogram, DW_AT_name("printf")
      52                            .dwattr $C$DW$4, DW_AT_TI_symbol_name("printf")
      53                            .dwattr $C$DW$4, DW_AT_type(*$C$DW$T$10)
      54                            .dwattr $C$DW$4, DW_AT_declaration
      55                            .dwattr $C$DW$4, DW_AT_external
TMS320C6x Assembler PC v7.4.2 Thu Mar 19 12:40:38 2015

Tools Copyright (c) 1996-2012 Texas Instruments Incorporated
package/lib/Regression/regress_d_c/./../packages/ti/vlib/src/VLIB_coOccurrenceMatrix/VLIB_coOccurrenceMatrix_d.se66 PAGE    2

      56                            .dwattr $C$DW$4, DW_AT_decl_file("C:/VLIB_Tools/CCSV5_4_0/ccsv5/tools/compiler/C6000/include/s
      57                            .dwattr $C$DW$4, DW_AT_decl_line(0xb8)
      58                            .dwattr $C$DW$4, DW_AT_decl_column(0x19)
      59                    $C$DW$5 .dwtag  DW_TAG_formal_parameter
      60                            .dwattr $C$DW$5, DW_AT_type(*$C$DW$T$121)
      61                    $C$DW$6 .dwtag  DW_TAG_unspecified_parameters
      62                            .dwendtag $C$DW$4
      63                    
      64                    
      65                    $C$DW$7 .dwtag  DW_TAG_subprogram, DW_AT_name("sprintf")
      66                            .dwattr $C$DW$7, DW_AT_TI_symbol_name("sprintf")
      67                            .dwattr $C$DW$7, DW_AT_type(*$C$DW$T$10)
      68                            .dwattr $C$DW$7, DW_AT_declaration
      69                            .dwattr $C$DW$7, DW_AT_external
      70                            .dwattr $C$DW$7, DW_AT_decl_file("C:/VLIB_Tools/CCSV5_4_0/ccsv5/tools/compiler/C6000/include/s
      71                            .dwattr $C$DW$7, DW_AT_decl_line(0xbc)
      72                            .dwattr $C$DW$7, DW_AT_decl_column(0x19)
      73                    $C$DW$8 .dwtag  DW_TAG_formal_parameter
      74                            .dwattr $C$DW$8, DW_AT_type(*$C$DW$T$65)
      75                    $C$DW$9 .dwtag  DW_TAG_formal_parameter
      76                            .dwattr $C$DW$9, DW_AT_type(*$C$DW$T$121)
      77                    $C$DW$10        .dwtag  DW_TAG_unspecified_parameters
      78                            .dwendtag $C$DW$7
      79                    
      80                    
      81                    $C$DW$11        .dwtag  DW_TAG_subprogram, DW_AT_name("malloc")
      82                            .dwattr $C$DW$11, DW_AT_TI_symbol_name("malloc")
      83                            .dwattr $C$DW$11, DW_AT_type(*$C$DW$T$3)
      84                            .dwattr $C$DW$11, DW_AT_declaration
      85                            .dwattr $C$DW$11, DW_AT_external
      86                            .dwattr $C$DW$11, DW_AT_decl_file("C:/VLIB_Tools/CCSV5_4_0/ccsv5/tools/compiler/C6000/include/
      87                            .dwattr $C$DW$11, DW_AT_decl_line(0x82)
      88                            .dwattr $C$DW$11, DW_AT_decl_column(0x19)
      89                    $C$DW$12        .dwtag  DW_TAG_formal_parameter
      90                            .dwattr $C$DW$12, DW_AT_type(*$C$DW$T$60)
      91                            .dwendtag $C$DW$11
      92                    
      93                    
      94                    $C$DW$13        .dwtag  DW_TAG_subprogram, DW_AT_name("free")
      95                            .dwattr $C$DW$13, DW_AT_TI_symbol_name("free")
      96                            .dwattr $C$DW$13, DW_AT_declaration
      97                            .dwattr $C$DW$13, DW_AT_external
      98                            .dwattr $C$DW$13, DW_AT_decl_file("C:/VLIB_Tools/CCSV5_4_0/ccsv5/tools/compiler/C6000/include/
      99                            .dwattr $C$DW$13, DW_AT_decl_line(0x86)
     100                            .dwattr $C$DW$13, DW_AT_decl_column(0x19)
     101                    $C$DW$14        .dwtag  DW_TAG_formal_parameter
     102                            .dwattr $C$DW$14, DW_AT_type(*$C$DW$T$3)
     103                            .dwendtag $C$DW$13
     104                    
     105                    
     106                    $C$DW$15        .dwtag  DW_TAG_subprogram, DW_AT_name("VLIB_cache_inval")
     107                            .dwattr $C$DW$15, DW_AT_TI_symbol_name("VLIB_cache_inval")
     108                            .dwattr $C$DW$15, DW_AT_type(*$C$DW$T$10)
     109                            .dwattr $C$DW$15, DW_AT_declaration
     110                            .dwattr $C$DW$15, DW_AT_external
TMS320C6x Assembler PC v7.4.2 Thu Mar 19 12:40:38 2015

Tools Copyright (c) 1996-2012 Texas Instruments Incorporated
package/lib/Regression/regress_d_c/./../packages/ti/vlib/src/VLIB_coOccurrenceMatrix/VLIB_coOccurrenceMatrix_d.se66 PAGE    3

     111                            .dwattr $C$DW$15, DW_AT_decl_file(".\..\packages\ti\vlib\src\VLIB_coOccurrenceMatrix\..\common
     112                            .dwattr $C$DW$15, DW_AT_decl_line(0x58)
     113                            .dwattr $C$DW$15, DW_AT_decl_column(0x05)
     114                    
     115                    $C$DW$16        .dwtag  DW_TAG_subprogram, DW_AT_name("VLIB_profile_init")
     116                            .dwattr $C$DW$16, DW_AT_TI_symbol_name("VLIB_profile_init")
     117                            .dwattr $C$DW$16, DW_AT_declaration
     118                            .dwattr $C$DW$16, DW_AT_external
     119                            .dwattr $C$DW$16, DW_AT_decl_file(".\..\packages\ti\vlib\src\VLIB_coOccurrenceMatrix\..\common
     120                            .dwattr $C$DW$16, DW_AT_decl_line(0x7b)
     121                            .dwattr $C$DW$16, DW_AT_decl_column(0x06)
     122                    $C$DW$17        .dwtag  DW_TAG_formal_parameter
     123                            .dwattr $C$DW$17, DW_AT_type(*$C$DW$T$10)
     124                    $C$DW$18        .dwtag  DW_TAG_formal_parameter
     125                            .dwattr $C$DW$18, DW_AT_type(*$C$DW$T$65)
     126                            .dwendtag $C$DW$16
     127                    
     128                    
     129                    $C$DW$19        .dwtag  DW_TAG_subprogram, DW_AT_name("VLIB_profile_setMode")
     130                            .dwattr $C$DW$19, DW_AT_TI_symbol_name("VLIB_profile_setMode")
     131                            .dwattr $C$DW$19, DW_AT_declaration
     132                            .dwattr $C$DW$19, DW_AT_external
     133                            .dwattr $C$DW$19, DW_AT_decl_file(".\..\packages\ti\vlib\src\VLIB_coOccurrenceMatrix\..\common
     134                            .dwattr $C$DW$19, DW_AT_decl_line(0x7c)
     135                            .dwattr $C$DW$19, DW_AT_decl_column(0x06)
     136                    $C$DW$20        .dwtag  DW_TAG_formal_parameter
     137                            .dwattr $C$DW$20, DW_AT_type(*$C$DW$T$10)
     138                    $C$DW$21        .dwtag  DW_TAG_formal_parameter
     139                            .dwattr $C$DW$21, DW_AT_type(*$C$DW$T$10)
     140                    $C$DW$22        .dwtag  DW_TAG_formal_parameter
     141                            .dwattr $C$DW$22, DW_AT_type(*$C$DW$T$65)
     142                    $C$DW$23        .dwtag  DW_TAG_formal_parameter
     143                            .dwattr $C$DW$23, DW_AT_type(*$C$DW$T$10)
     144                            .dwendtag $C$DW$19
     145                    
     146                    
     147                    $C$DW$24        .dwtag  DW_TAG_subprogram, DW_AT_name("VLIB_formula_add_test")
     148                            .dwattr $C$DW$24, DW_AT_TI_symbol_name("VLIB_formula_add_test")
     149                            .dwattr $C$DW$24, DW_AT_declaration
     150                            .dwattr $C$DW$24, DW_AT_external
     151                            .dwattr $C$DW$24, DW_AT_decl_file(".\..\packages\ti\vlib\src\VLIB_coOccurrenceMatrix\..\common
     152                            .dwattr $C$DW$24, DW_AT_decl_line(0x7d)
     153                            .dwattr $C$DW$24, DW_AT_decl_column(0x06)
     154                    $C$DW$25        .dwtag  DW_TAG_formal_parameter
     155                            .dwattr $C$DW$25, DW_AT_type(*$C$DW$T$10)
     156                    $C$DW$26        .dwtag  DW_TAG_formal_parameter
     157                            .dwattr $C$DW$26, DW_AT_type(*$C$DW$T$10)
     158                    $C$DW$27        .dwtag  DW_TAG_formal_parameter
     159                            .dwattr $C$DW$27, DW_AT_type(*$C$DW$T$10)
     160                    $C$DW$28        .dwtag  DW_TAG_formal_parameter
     161                            .dwattr $C$DW$28, DW_AT_type(*$C$DW$T$10)
     162                    $C$DW$29        .dwtag  DW_TAG_formal_parameter
     163                            .dwattr $C$DW$29, DW_AT_type(*$C$DW$T$65)
     164                    $C$DW$30        .dwtag  DW_TAG_formal_parameter
     165                            .dwattr $C$DW$30, DW_AT_type(*$C$DW$T$10)
TMS320C6x Assembler PC v7.4.2 Thu Mar 19 12:40:38 2015

Tools Copyright (c) 1996-2012 Texas Instruments Incorporated
package/lib/Regression/regress_d_c/./../packages/ti/vlib/src/VLIB_coOccurrenceMatrix/VLIB_coOccurrenceMatrix_d.se66 PAGE    4

     166                            .dwendtag $C$DW$24
     167                    
     168                    
     169                    $C$DW$31        .dwtag  DW_TAG_subprogram, DW_AT_name("VLIB_skip_test")
     170                            .dwattr $C$DW$31, DW_AT_TI_symbol_name("VLIB_skip_test")
     171                            .dwattr $C$DW$31, DW_AT_declaration
     172                            .dwattr $C$DW$31, DW_AT_external
     173                            .dwattr $C$DW$31, DW_AT_decl_file(".\..\packages\ti\vlib\src\VLIB_coOccurrenceMatrix\..\common
     174                            .dwattr $C$DW$31, DW_AT_decl_line(0x7e)
     175                            .dwattr $C$DW$31, DW_AT_decl_column(0x06)
     176                    $C$DW$32        .dwtag  DW_TAG_formal_parameter
     177                            .dwattr $C$DW$32, DW_AT_type(*$C$DW$T$65)
     178                            .dwendtag $C$DW$31
     179                    
     180                    
     181                    $C$DW$33        .dwtag  DW_TAG_subprogram, DW_AT_name("VLIB_profile_cycle_report")
     182                            .dwattr $C$DW$33, DW_AT_TI_symbol_name("VLIB_profile_cycle_report")
     183                            .dwattr $C$DW$33, DW_AT_declaration
     184                            .dwattr $C$DW$33, DW_AT_external
     185                            .dwattr $C$DW$33, DW_AT_decl_file(".\..\packages\ti\vlib\src\VLIB_coOccurrenceMatrix\..\common
     186                            .dwattr $C$DW$33, DW_AT_decl_line(0x7f)
     187                            .dwattr $C$DW$33, DW_AT_decl_column(0x06)
     188                    $C$DW$34        .dwtag  DW_TAG_formal_parameter
     189                            .dwattr $C$DW$34, DW_AT_type(*$C$DW$T$10)
     190                    $C$DW$35        .dwtag  DW_TAG_formal_parameter
     191                            .dwattr $C$DW$35, DW_AT_type(*$C$DW$T$65)
     192                    $C$DW$36        .dwtag  DW_TAG_formal_parameter
     193                            .dwattr $C$DW$36, DW_AT_type(*$C$DW$T$65)
     194                            .dwendtag $C$DW$33
     195                    
     196                    
     197                    $C$DW$37        .dwtag  DW_TAG_subprogram, DW_AT_name("initStack")
     198                            .dwattr $C$DW$37, DW_AT_TI_symbol_name("initStack")
     199                            .dwattr $C$DW$37, DW_AT_declaration
     200                            .dwattr $C$DW$37, DW_AT_external
     201                            .dwattr $C$DW$37, DW_AT_decl_file(".\..\packages\ti\vlib\src\VLIB_coOccurrenceMatrix\..\common
     202                            .dwattr $C$DW$37, DW_AT_decl_line(0x80)
     203                            .dwattr $C$DW$37, DW_AT_decl_column(0x06)
     204                    $C$DW$38        .dwtag  DW_TAG_formal_parameter
     205                            .dwattr $C$DW$38, DW_AT_type(*$C$DW$T$76)
     206                            .dwendtag $C$DW$37
     207                    
     208                    
     209                    $C$DW$39        .dwtag  DW_TAG_subprogram, DW_AT_name("setStackDepth")
     210                            .dwattr $C$DW$39, DW_AT_TI_symbol_name("setStackDepth")
     211                            .dwattr $C$DW$39, DW_AT_declaration
     212                            .dwattr $C$DW$39, DW_AT_external
     213                            .dwattr $C$DW$39, DW_AT_decl_file(".\..\packages\ti\vlib\src\VLIB_coOccurrenceMatrix\..\common
     214                            .dwattr $C$DW$39, DW_AT_decl_line(0x81)
     215                            .dwattr $C$DW$39, DW_AT_decl_column(0x06)
     216                    
     217                    $C$DW$40        .dwtag  DW_TAG_subprogram, DW_AT_name("getSP")
     218                            .dwattr $C$DW$40, DW_AT_TI_symbol_name("getSP")
     219                            .dwattr $C$DW$40, DW_AT_type(*$C$DW$T$76)
     220                            .dwattr $C$DW$40, DW_AT_declaration
TMS320C6x Assembler PC v7.4.2 Thu Mar 19 12:40:38 2015

Tools Copyright (c) 1996-2012 Texas Instruments Incorporated
package/lib/Regression/regress_d_c/./../packages/ti/vlib/src/VLIB_coOccurrenceMatrix/VLIB_coOccurrenceMatrix_d.se66 PAGE    5

     221                            .dwattr $C$DW$40, DW_AT_external
     222                            .dwattr $C$DW$40, DW_AT_decl_file(".\..\packages\ti\vlib\src\VLIB_coOccurrenceMatrix\..\common
     223                            .dwattr $C$DW$40, DW_AT_decl_line(0x82)
     224                            .dwattr $C$DW$40, DW_AT_decl_column(0x0a)
     225                    
     226                    $C$DW$41        .dwtag  DW_TAG_subprogram, DW_AT_name("VLIB_stack_memory")
     227                            .dwattr $C$DW$41, DW_AT_TI_symbol_name("VLIB_stack_memory")
     228                            .dwattr $C$DW$41, DW_AT_declaration
     229                            .dwattr $C$DW$41, DW_AT_external
     230                            .dwattr $C$DW$41, DW_AT_decl_file(".\..\packages\ti\vlib\src\VLIB_coOccurrenceMatrix\..\common
     231                            .dwattr $C$DW$41, DW_AT_decl_line(0x83)
     232                            .dwattr $C$DW$41, DW_AT_decl_column(0x06)
     233                    
     234                    $C$DW$42        .dwtag  DW_TAG_subprogram, DW_AT_name("VLIB_fillBuffer")
     235                            .dwattr $C$DW$42, DW_AT_TI_symbol_name("VLIB_fillBuffer")
     236                            .dwattr $C$DW$42, DW_AT_declaration
     237                            .dwattr $C$DW$42, DW_AT_external
     238                            .dwattr $C$DW$42, DW_AT_decl_file(".\..\packages\ti\vlib\src\VLIB_coOccurrenceMatrix\../common
     239                            .dwattr $C$DW$42, DW_AT_decl_line(0x77)
     240                            .dwattr $C$DW$42, DW_AT_decl_column(0x06)
     241                    $C$DW$43        .dwtag  DW_TAG_formal_parameter
     242                            .dwattr $C$DW$43, DW_AT_type(*$C$DW$T$19)
     243                    $C$DW$44        .dwtag  DW_TAG_formal_parameter
     244                            .dwattr $C$DW$44, DW_AT_type(*$C$DW$T$19)
     245                    $C$DW$45        .dwtag  DW_TAG_formal_parameter
     246                            .dwattr $C$DW$45, DW_AT_type(*$C$DW$T$3)
     247                    $C$DW$46        .dwtag  DW_TAG_formal_parameter
     248                            .dwattr $C$DW$46, DW_AT_type(*$C$DW$T$3)
     249                    $C$DW$47        .dwtag  DW_TAG_formal_parameter
     250                            .dwattr $C$DW$47, DW_AT_type(*$C$DW$T$21)
     251                    $C$DW$48        .dwtag  DW_TAG_formal_parameter
     252                            .dwattr $C$DW$48, DW_AT_type(*$C$DW$T$21)
     253                    $C$DW$49        .dwtag  DW_TAG_formal_parameter
     254                            .dwattr $C$DW$49, DW_AT_type(*$C$DW$T$21)
     255                    $C$DW$50        .dwtag  DW_TAG_formal_parameter
     256                            .dwattr $C$DW$50, DW_AT_type(*$C$DW$T$19)
     257                    $C$DW$51        .dwtag  DW_TAG_formal_parameter
     258                            .dwattr $C$DW$51, DW_AT_type(*$C$DW$T$65)
     259                            .dwendtag $C$DW$42
     260                    
     261                    
     262                    $C$DW$52        .dwtag  DW_TAG_subprogram, DW_AT_name("VLIB_malloc")
     263                            .dwattr $C$DW$52, DW_AT_TI_symbol_name("VLIB_malloc")
     264                            .dwattr $C$DW$52, DW_AT_type(*$C$DW$T$3)
     265                            .dwattr $C$DW$52, DW_AT_declaration
     266                            .dwattr $C$DW$52, DW_AT_external
     267                            .dwattr $C$DW$52, DW_AT_decl_file(".\..\packages\ti\vlib\src\VLIB_coOccurrenceMatrix\../common
     268                            .dwattr $C$DW$52, DW_AT_decl_line(0xaf)
     269                            .dwattr $C$DW$52, DW_AT_decl_column(0x07)
     270                    $C$DW$53        .dwtag  DW_TAG_formal_parameter
     271                            .dwattr $C$DW$53, DW_AT_type(*$C$DW$T$60)
     272                            .dwendtag $C$DW$52
     273                    
     274                    
     275                    $C$DW$54        .dwtag  DW_TAG_subprogram, DW_AT_name("VLIB_free")
TMS320C6x Assembler PC v7.4.2 Thu Mar 19 12:40:38 2015

Tools Copyright (c) 1996-2012 Texas Instruments Incorporated
package/lib/Regression/regress_d_c/./../packages/ti/vlib/src/VLIB_coOccurrenceMatrix/VLIB_coOccurrenceMatrix_d.se66 PAGE    6

     276                            .dwattr $C$DW$54, DW_AT_TI_symbol_name("VLIB_free")
     277                            .dwattr $C$DW$54, DW_AT_declaration
     278                            .dwattr $C$DW$54, DW_AT_external
     279                            .dwattr $C$DW$54, DW_AT_decl_file(".\..\packages\ti\vlib\src\VLIB_coOccurrenceMatrix\../common
     280                            .dwattr $C$DW$54, DW_AT_decl_line(0xb4)
     281                            .dwattr $C$DW$54, DW_AT_decl_column(0x07)
     282                    $C$DW$55        .dwtag  DW_TAG_formal_parameter
     283                            .dwattr $C$DW$55, DW_AT_type(*$C$DW$T$3)
     284                            .dwendtag $C$DW$54
     285                    
     286                    
     287                    $C$DW$56        .dwtag  DW_TAG_subprogram, DW_AT_name("VLIB_coOccurrenceMatrix")
     288                            .dwattr $C$DW$56, DW_AT_TI_symbol_name("VLIB_coOccurrenceMatrix")
     289                            .dwattr $C$DW$56, DW_AT_type(*$C$DW$T$76)
     290                            .dwattr $C$DW$56, DW_AT_declaration
     291                            .dwattr $C$DW$56, DW_AT_external
     292                            .dwattr $C$DW$56, DW_AT_decl_file(".\..\packages\ti\vlib\src\VLIB_coOccurrenceMatrix\c66/VLIB_
     293                            .dwattr $C$DW$56, DW_AT_decl_line(0x98)
     294                            .dwattr $C$DW$56, DW_AT_decl_column(0x0a)
     295                    $C$DW$57        .dwtag  DW_TAG_formal_parameter
     296                            .dwattr $C$DW$57, DW_AT_type(*$C$DW$T$109)
     297                    $C$DW$58        .dwtag  DW_TAG_formal_parameter
     298                            .dwattr $C$DW$58, DW_AT_type(*$C$DW$T$116)
     299                    $C$DW$59        .dwtag  DW_TAG_formal_parameter
     300                            .dwattr $C$DW$59, DW_AT_type(*$C$DW$T$118)
     301                    $C$DW$60        .dwtag  DW_TAG_formal_parameter
     302                            .dwattr $C$DW$60, DW_AT_type(*$C$DW$T$118)
     303                    $C$DW$61        .dwtag  DW_TAG_formal_parameter
     304                            .dwattr $C$DW$61, DW_AT_type(*$C$DW$T$118)
     305                    $C$DW$62        .dwtag  DW_TAG_formal_parameter
     306                            .dwattr $C$DW$62, DW_AT_type(*$C$DW$T$107)
     307                    $C$DW$63        .dwtag  DW_TAG_formal_parameter
     308                            .dwattr $C$DW$63, DW_AT_type(*$C$DW$T$107)
     309                    $C$DW$64        .dwtag  DW_TAG_formal_parameter
     310                            .dwattr $C$DW$64, DW_AT_type(*$C$DW$T$118)
     311                    $C$DW$65        .dwtag  DW_TAG_formal_parameter
     312                            .dwattr $C$DW$65, DW_AT_type(*$C$DW$T$107)
     313                    $C$DW$66        .dwtag  DW_TAG_formal_parameter
     314                            .dwattr $C$DW$66, DW_AT_type(*$C$DW$T$105)
     315                    $C$DW$67        .dwtag  DW_TAG_formal_parameter
     316                            .dwattr $C$DW$67, DW_AT_type(*$C$DW$T$105)
     317                    $C$DW$68        .dwtag  DW_TAG_formal_parameter
     318                            .dwattr $C$DW$68, DW_AT_type(*$C$DW$T$20)
     319                            .dwendtag $C$DW$56
     320                    
     321                    
     322                    $C$DW$69        .dwtag  DW_TAG_subprogram, DW_AT_name("VLIB_coOccurrenceMatrix_cn")
     323                            .dwattr $C$DW$69, DW_AT_TI_symbol_name("VLIB_coOccurrenceMatrix_cn")
     324                            .dwattr $C$DW$69, DW_AT_type(*$C$DW$T$76)
     325                            .dwattr $C$DW$69, DW_AT_declaration
     326                            .dwattr $C$DW$69, DW_AT_external
     327                            .dwattr $C$DW$69, DW_AT_decl_file(".\..\packages\ti\vlib\src\VLIB_coOccurrenceMatrix\VLIB_coOc
     328                            .dwattr $C$DW$69, DW_AT_decl_line(0x57)
     329                            .dwattr $C$DW$69, DW_AT_decl_column(0x0d)
     330                    $C$DW$70        .dwtag  DW_TAG_formal_parameter
TMS320C6x Assembler PC v7.4.2 Thu Mar 19 12:40:38 2015

Tools Copyright (c) 1996-2012 Texas Instruments Incorporated
package/lib/Regression/regress_d_c/./../packages/ti/vlib/src/VLIB_coOccurrenceMatrix/VLIB_coOccurrenceMatrix_d.se66 PAGE    7

     331                            .dwattr $C$DW$70, DW_AT_type(*$C$DW$T$20)
     332                    $C$DW$71        .dwtag  DW_TAG_formal_parameter
     333                            .dwattr $C$DW$71, DW_AT_type(*$C$DW$T$117)
     334                    $C$DW$72        .dwtag  DW_TAG_formal_parameter
     335                            .dwattr $C$DW$72, DW_AT_type(*$C$DW$T$21)
     336                    $C$DW$73        .dwtag  DW_TAG_formal_parameter
     337                            .dwattr $C$DW$73, DW_AT_type(*$C$DW$T$21)
     338                    $C$DW$74        .dwtag  DW_TAG_formal_parameter
     339                            .dwattr $C$DW$74, DW_AT_type(*$C$DW$T$21)
     340                    $C$DW$75        .dwtag  DW_TAG_formal_parameter
     341                            .dwattr $C$DW$75, DW_AT_type(*$C$DW$T$19)
     342                    $C$DW$76        .dwtag  DW_TAG_formal_parameter
     343                            .dwattr $C$DW$76, DW_AT_type(*$C$DW$T$19)
     344                    $C$DW$77        .dwtag  DW_TAG_formal_parameter
     345                            .dwattr $C$DW$77, DW_AT_type(*$C$DW$T$21)
     346                    $C$DW$78        .dwtag  DW_TAG_formal_parameter
     347                            .dwattr $C$DW$78, DW_AT_type(*$C$DW$T$19)
     348                    $C$DW$79        .dwtag  DW_TAG_formal_parameter
     349                            .dwattr $C$DW$79, DW_AT_type(*$C$DW$T$102)
     350                    $C$DW$80        .dwtag  DW_TAG_formal_parameter
     351                            .dwattr $C$DW$80, DW_AT_type(*$C$DW$T$102)
     352                    $C$DW$81        .dwtag  DW_TAG_formal_parameter
     353                            .dwattr $C$DW$81, DW_AT_type(*$C$DW$T$20)
     354                            .dwendtag $C$DW$69
     355                    
     356                    
     357                    $C$DW$82        .dwtag  DW_TAG_subprogram, DW_AT_name("coOccurrence_getTestParams")
     358                            .dwattr $C$DW$82, DW_AT_TI_symbol_name("coOccurrence_getTestParams")
     359                            .dwattr $C$DW$82, DW_AT_declaration
     360                            .dwattr $C$DW$82, DW_AT_external
     361                            .dwattr $C$DW$82, DW_AT_decl_file(".\..\packages\ti\vlib\src\VLIB_coOccurrenceMatrix\VLIB_coOc
     362                            .dwattr $C$DW$82, DW_AT_decl_line(0x33)
     363                            .dwattr $C$DW$82, DW_AT_decl_column(0x06)
     364                    $C$DW$83        .dwtag  DW_TAG_formal_parameter
     365                            .dwattr $C$DW$83, DW_AT_type(*$C$DW$T$51)
     366                    $C$DW$84        .dwtag  DW_TAG_formal_parameter
     367                            .dwattr $C$DW$84, DW_AT_type(*$C$DW$T$84)
     368                            .dwendtag $C$DW$82
     369                    
     370                    $C$DW$85        .dwtag  DW_TAG_variable, DW_AT_name("test_cases")
     371                            .dwattr $C$DW$85, DW_AT_TI_symbol_name("test_cases")
     372                            .dwattr $C$DW$85, DW_AT_type(*$C$DW$T$31)
     373                            .dwattr $C$DW$85, DW_AT_declaration
     374                            .dwattr $C$DW$85, DW_AT_external
     375                            .dwattr $C$DW$85, DW_AT_decl_file(".\..\packages\ti\vlib\src\VLIB_coOccurrenceMatrix\../common
     376                            .dwattr $C$DW$85, DW_AT_decl_line(0x60)
     377                            .dwattr $C$DW$85, DW_AT_decl_column(0x13)
     378                    $C$DW$86        .dwtag  DW_TAG_variable, DW_AT_name("act_kernel")
     379                            .dwattr $C$DW$86, DW_AT_TI_symbol_name("act_kernel")
     380                            .dwattr $C$DW$86, DW_AT_type(*$C$DW$T$10)
     381                            .dwattr $C$DW$86, DW_AT_declaration
     382                            .dwattr $C$DW$86, DW_AT_external
     383                            .dwattr $C$DW$86, DW_AT_decl_file(".\..\packages\ti\vlib\src\VLIB_coOccurrenceMatrix\../common
     384                            .dwattr $C$DW$86, DW_AT_decl_line(0x62)
     385                            .dwattr $C$DW$86, DW_AT_decl_column(0x13)
TMS320C6x Assembler PC v7.4.2 Thu Mar 19 12:40:38 2015

Tools Copyright (c) 1996-2012 Texas Instruments Incorporated
package/lib/Regression/regress_d_c/./../packages/ti/vlib/src/VLIB_coOccurrenceMatrix/VLIB_coOccurrenceMatrix_d.se66 PAGE    8

     386                    $C$DW$87        .dwtag  DW_TAG_variable, DW_AT_name("desc")
     387                            .dwattr $C$DW$87, DW_AT_TI_symbol_name("desc")
     388                            .dwattr $C$DW$87, DW_AT_type(*$C$DW$T$178)
     389                            .dwattr $C$DW$87, DW_AT_declaration
     390                            .dwattr $C$DW$87, DW_AT_external
     391                            .dwattr $C$DW$87, DW_AT_decl_file(".\..\packages\ti\vlib\src\VLIB_coOccurrenceMatrix\../common
     392                            .dwattr $C$DW$87, DW_AT_decl_line(0x63)
     393                            .dwattr $C$DW$87, DW_AT_decl_column(0x13)
     394                    $C$DW$88        .dwtag  DW_TAG_variable, DW_AT_name("testPatternString")
     395                            .dwattr $C$DW$88, DW_AT_TI_symbol_name("testPatternString")
     396                            .dwattr $C$DW$88, DW_AT_type(*$C$DW$T$178)
     397                            .dwattr $C$DW$88, DW_AT_declaration
     398                            .dwattr $C$DW$88, DW_AT_external
     399                            .dwattr $C$DW$88, DW_AT_decl_file(".\..\packages\ti\vlib\src\VLIB_coOccurrenceMatrix\../common
     400                            .dwattr $C$DW$88, DW_AT_decl_line(0x64)
     401                            .dwattr $C$DW$88, DW_AT_decl_column(0x13)
     402                    $C$DW$89        .dwtag  DW_TAG_variable, DW_AT_name("est_test")
     403                            .dwattr $C$DW$89, DW_AT_TI_symbol_name("est_test")
     404                            .dwattr $C$DW$89, DW_AT_type(*$C$DW$T$10)
     405                            .dwattr $C$DW$89, DW_AT_declaration
     406                            .dwattr $C$DW$89, DW_AT_external
     407                            .dwattr $C$DW$89, DW_AT_decl_file(".\..\packages\ti\vlib\src\VLIB_coOccurrenceMatrix\..\common
     408                            .dwattr $C$DW$89, DW_AT_decl_line(0x75)
     409                            .dwattr $C$DW$89, DW_AT_decl_column(0x14)
     410                    $C$DW$90        .dwtag  DW_TAG_variable, DW_AT_name("beg_count")
     411                            .dwattr $C$DW$90, DW_AT_TI_symbol_name("beg_count")
     412                            .dwattr $C$DW$90, DW_AT_type(*$C$DW$T$168)
     413                            .dwattr $C$DW$90, DW_AT_declaration
     414                            .dwattr $C$DW$90, DW_AT_external
     415                            .dwattr $C$DW$90, DW_AT_decl_file(".\..\packages\ti\vlib\src\VLIB_coOccurrenceMatrix\..\common
     416                            .dwattr $C$DW$90, DW_AT_decl_line(0x76)
     417                            .dwattr $C$DW$90, DW_AT_decl_column(0x14)
     418                    $C$DW$91        .dwtag  DW_TAG_variable, DW_AT_name("end_count")
     419                            .dwattr $C$DW$91, DW_AT_TI_symbol_name("end_count")
     420                            .dwattr $C$DW$91, DW_AT_type(*$C$DW$T$168)
     421                            .dwattr $C$DW$91, DW_AT_declaration
     422                            .dwattr $C$DW$91, DW_AT_external
     423                            .dwattr $C$DW$91, DW_AT_decl_file(".\..\packages\ti\vlib\src\VLIB_coOccurrenceMatrix\..\common
     424                            .dwattr $C$DW$91, DW_AT_decl_line(0x77)
     425                            .dwattr $C$DW$91, DW_AT_decl_column(0x14)
     426                    $C$DW$92        .dwtag  DW_TAG_variable, DW_AT_name("overhead")
     427                            .dwattr $C$DW$92, DW_AT_TI_symbol_name("overhead")
     428                            .dwattr $C$DW$92, DW_AT_type(*$C$DW$T$168)
     429                            .dwattr $C$DW$92, DW_AT_declaration
     430                            .dwattr $C$DW$92, DW_AT_external
     431                            .dwattr $C$DW$92, DW_AT_decl_file(".\..\packages\ti\vlib\src\VLIB_coOccurrenceMatrix\..\common
     432                            .dwattr $C$DW$92, DW_AT_decl_line(0x78)
     433                            .dwattr $C$DW$92, DW_AT_decl_column(0x14)
     434                    $C$DW$93        .dwtag  DW_TAG_variable, DW_AT_name("cycles")
     435                            .dwattr $C$DW$93, DW_AT_TI_symbol_name("cycles")
     436                            .dwattr $C$DW$93, DW_AT_type(*$C$DW$T$169)
     437                            .dwattr $C$DW$93, DW_AT_declaration
     438                            .dwattr $C$DW$93, DW_AT_external
     439                            .dwattr $C$DW$93, DW_AT_decl_file(".\..\packages\ti\vlib\src\VLIB_coOccurrenceMatrix\..\common
     440                            .dwattr $C$DW$93, DW_AT_decl_line(0x79)
TMS320C6x Assembler PC v7.4.2 Thu Mar 19 12:40:38 2015

Tools Copyright (c) 1996-2012 Texas Instruments Incorporated
package/lib/Regression/regress_d_c/./../packages/ti/vlib/src/VLIB_coOccurrenceMatrix/VLIB_coOccurrenceMatrix_d.se66 PAGE    9

     441                            .dwattr $C$DW$93, DW_AT_decl_column(0x14)
     442                    ;       C:\VLIB_Tools\CCSV5_4_0\ccsv5\tools\compiler\C6000\bin\opt6x.exe C:\\Users\\gtbldadm\\AppData\
     443                    
     444                    
     445                    ; The following local variables in VLIB_coOccurrenceMatrix_d() will be grouped together
     446                    ; to share stack space among distinct scoping blocks.  References
     447                    ; in the source interlisting will look like "O$1.s3_1.l3_2" or "&$O$O1+0".
     448                    ;
     449                    ;    --offset--    --reference--                 --variable--
     450                    ;
     451                    ;         0       O$1.s3_1.l3_2                  unsigned short *outMatrix_cn[4]  [./../packages/ti/vl
     452                    ;        16       O$1.s3_1.l3_3                  unsigned short *outMatrix[4]  [./../packages/ti/vlib/
     453                    
     454 00000000                   .sect   ".text"
     455                            .clink
     456                            .global VLIB_coOccurrenceMatrix_d
     457                    
     458                    $C$DW$94        .dwtag  DW_TAG_subprogram, DW_AT_name("VLIB_coOccurrenceMatrix_d")
     459                            .dwattr $C$DW$94, DW_AT_low_pc(VLIB_coOccurrenceMatrix_d)
     460                            .dwattr $C$DW$94, DW_AT_high_pc(0x00)
     461                            .dwattr $C$DW$94, DW_AT_TI_symbol_name("VLIB_coOccurrenceMatrix_d")
     462                            .dwattr $C$DW$94, DW_AT_external
     463                            .dwattr $C$DW$94, DW_AT_TI_begin_file("./../packages/ti/vlib/src/VLIB_coOccurrenceMatrix/VLIB_
     464                            .dwattr $C$DW$94, DW_AT_TI_begin_line(0x2d)
     465                            .dwattr $C$DW$94, DW_AT_TI_begin_column(0x06)
     466                            .dwattr $C$DW$94, DW_AT_decl_file("./../packages/ti/vlib/src/VLIB_coOccurrenceMatrix/VLIB_coOc
     467                            .dwattr $C$DW$94, DW_AT_decl_line(0x2d)
     468                            .dwattr $C$DW$94, DW_AT_decl_column(0x06)
     469                            .dwattr $C$DW$94, DW_AT_TI_max_frame_size(0x98)
     470                            .dwpsn  file "./../packages/ti/vlib/src/VLIB_coOccurrenceMatrix/VLIB_coOccurrenceMatrix_d.c",l
     471                    
     472                            .dwfde $C$DW$CIE, VLIB_coOccurrenceMatrix_d
     473                    $C$DW$95        .dwtag  DW_TAG_formal_parameter, DW_AT_name("LevelOfFeedback")
     474                            .dwattr $C$DW$95, DW_AT_TI_symbol_name("LevelOfFeedback")
     475                            .dwattr $C$DW$95, DW_AT_type(*$C$DW$T$19)
     476                            .dwattr $C$DW$95, DW_AT_location[DW_OP_reg4]
     477                    ;----------------------------------------------------------------------
     478                    ;  45 | void VLIB_coOccurrenceMatrix_d(uint8_t LevelOfFeedback)                
     479                    ;----------------------------------------------------------------------
     480                    
     481                    ;******************************************************************************
     482                    ;* FUNCTION NAME: VLIB_coOccurrenceMatrix_d                                   *
     483                    ;*                                                                            *
     484                    ;*   Regs Modified     : A0,A1,A2,A3,A4,A5,A6,A7,A8,A9,A10,A11,A12,A13,A14,   *
     485                    ;*                           A15,B0,B1,B2,B3,B4,B5,B6,B7,B8,B9,B10,B11,B12,   *
     486                    ;*                           B13,SP,A16,A17,A18,A19,A20,A21,A22,A23,A24,A25,  *
     487                    ;*                           A26,A27,A28,A29,A30,A31,B16,B17,B18,B19,B20,B21, *
     488                    ;*                           B22,B23,B24,B25,B26,B27,B28,B29,B30,B31          *
     489                    ;*   Regs Used         : A0,A1,A2,A3,A4,A5,A6,A7,A8,A9,A10,A11,A12,A13,A14,   *
     490                    ;*                           A15,B0,B1,B2,B3,B4,B5,B6,B7,B8,B9,B10,B11,B12,   *
     491                    ;*                           B13,DP,SP,A16,A17,A18,A19,A20,A21,A22,A23,A24,   *
     492                    ;*                           A25,A26,A27,A28,A29,A30,A31,B16,B17,B18,B19,B20, *
     493                    ;*                           B21,B22,B23,B24,B25,B26,B27,B28,B29,B30,B31      *
     494                    ;*   Local Frame Size  : 32 Args + 60 Auto + 56 Save = 148 byte               *
     495                    ;******************************************************************************
TMS320C6x Assembler PC v7.4.2 Thu Mar 19 12:40:38 2015

Tools Copyright (c) 1996-2012 Texas Instruments Incorporated
package/lib/Regression/regress_d_c/./../packages/ti/vlib/src/VLIB_coOccurrenceMatrix/VLIB_coOccurrenceMatrix_d.se66 PAGE   10

     496                    
     497                    ;******************************************************************************
     498                    ;*                                                                            *
     499                    ;* Using -g (debug) with optimization (-o3) may disable key optimizations!    *
     500                    ;*                                                                            *
     501                    ;******************************************************************************
     502 00000000           VLIB_coOccurrenceMatrix_d:
     503                    ;** --------------------------------------------------------------------------*
     504                    ;          EXCLUSIVE CPU CYCLES: 15
     505                    ;** 52  -----------------------    coOccurrence_getTestParams(&prm, &test_cases);
     506                    ;** 55  -----------------------    VLIB_profile_init(4, "VLIB_coOccurrenceMatrix");
     507                    ;** 58  -----------------------    if ( test_cases <= 0 ) goto g46;
     508                            .dwcfi  cfa_offset, 0
     509                    ;----------------------------------------------------------------------
     510                    ;  47 | int32_t    tpi;                      /* test parameter index */        
     511                    ;  50 | coOccurrence_testParams_t   *prm;                                      
     512                    ;----------------------------------------------------------------------
     513 00000000     25f7             STW     .D2T1   A11,*SP--(8)      ; |46| 
     514                            .dwcfi  cfa_offset, 8
     515                            .dwcfi  save_reg_to_mem, 11, 0
     516 00000002     2577             STW     .D2T1   A10,*SP--(8)      ; |46| 
     517                            .dwcfi  cfa_offset, 16
     518                            .dwcfi  save_reg_to_mem, 10, -8
     519 00000004     9677             STDW    .D2T2   B13:B12,*SP--     ; |46| 
     520                            .dwcfi  cfa_offset, 24
     521                            .dwcfi  save_reg_to_mem, 29, -12
     522                            .dwcfi  save_reg_to_mem, 28, -16
     523 00000006     9577             STDW    .D2T2   B11:B10,*SP--     ; |46| 
     524                            .dwcfi  cfa_offset, 32
     525                            .dwcfi  save_reg_to_mem, 27, -20
     526                            .dwcfi  save_reg_to_mem, 26, -24
     527 00000008     8777             STDW    .D2T1   A15:A14,*SP--     ; |46| 
     528                            .dwcfi  cfa_offset, 40
     529                            .dwcfi  save_reg_to_mem, 15, -28
     530                            .dwcfi  save_reg_to_mem, 14, -32
     531 0000000a     8677             STDW    .D2T1   A13:A12,*SP--     ; |46| 
     532                            .dwcfi  cfa_offset, 48
     533                            .dwcfi  save_reg_to_mem, 13, -36
     534                            .dwcfi  save_reg_to_mem, 12, -40
     535 0000000c 01bf54f6             STW     .D2T2   B3,*SP--(104)     ; |46| 
     536                            .dwcfi  cfa_offset, 152
     537                            .dwcfi  save_reg_to_mem, 19, 0
     538                    $C$DW$96        .dwtag  DW_TAG_variable, DW_AT_name("$O$C5")
     539                            .dwattr $C$DW$96, DW_AT_TI_symbol_name("$O$C5")
     540                            .dwattr $C$DW$96, DW_AT_type(*$C$DW$T$88)
     541                            .dwattr $C$DW$96, DW_AT_location[DW_OP_reg10]
     542                    $C$DW$97        .dwtag  DW_TAG_variable, DW_AT_name("$O$C6")
     543                            .dwattr $C$DW$97, DW_AT_TI_symbol_name("$O$C6")
     544                            .dwattr $C$DW$97, DW_AT_type(*$C$DW$T$47)
     545                            .dwattr $C$DW$97, DW_AT_location[DW_OP_reg3]
     546                    $C$DW$98        .dwtag  DW_TAG_variable, DW_AT_name("$O$C7")
     547                            .dwattr $C$DW$98, DW_AT_TI_symbol_name("$O$C7")
     548                            .dwattr $C$DW$98, DW_AT_type(*$C$DW$T$9)
     549                            .dwattr $C$DW$98, DW_AT_location[DW_OP_reg3]
     550                    $C$DW$99        .dwtag  DW_TAG_variable, DW_AT_name("$O$C8")
TMS320C6x Assembler PC v7.4.2 Thu Mar 19 12:40:38 2015

Tools Copyright (c) 1996-2012 Texas Instruments Incorporated
package/lib/Regression/regress_d_c/./../packages/ti/vlib/src/VLIB_coOccurrenceMatrix/VLIB_coOccurrenceMatrix_d.se66 PAGE   11

     551                            .dwattr $C$DW$99, DW_AT_TI_symbol_name("$O$C8")
     552                            .dwattr $C$DW$99, DW_AT_type(*$C$DW$T$6)
     553                            .dwattr $C$DW$99, DW_AT_location[DW_OP_reg6]
     554                    $C$DW$100       .dwtag  DW_TAG_variable, DW_AT_name("$O$C9")
     555                            .dwattr $C$DW$100, DW_AT_TI_symbol_name("$O$C9")
     556                            .dwattr $C$DW$100, DW_AT_type(*$C$DW$T$9)
     557                            .dwattr $C$DW$100, DW_AT_location[DW_OP_reg22]
     558                    $C$DW$101       .dwtag  DW_TAG_variable, DW_AT_name("$O$C10")
     559                            .dwattr $C$DW$101, DW_AT_TI_symbol_name("$O$C10")
     560                            .dwattr $C$DW$101, DW_AT_type(*$C$DW$T$10)
     561                            .dwattr $C$DW$101, DW_AT_location[DW_OP_reg3]
     562                    $C$DW$102       .dwtag  DW_TAG_variable, DW_AT_name("$O$C11")
     563                            .dwattr $C$DW$102, DW_AT_TI_symbol_name("$O$C11")
     564                            .dwattr $C$DW$102, DW_AT_type(*$C$DW$T$11)
     565                            .dwattr $C$DW$102, DW_AT_location[DW_OP_reg5]
     566                    $C$DW$103       .dwtag  DW_TAG_variable, DW_AT_name("$O$C12")
     567                            .dwattr $C$DW$103, DW_AT_TI_symbol_name("$O$C12")
     568                            .dwattr $C$DW$103, DW_AT_type(*$C$DW$T$6)
     569                            .dwattr $C$DW$103, DW_AT_location[DW_OP_reg16]
     570                    $C$DW$104       .dwtag  DW_TAG_variable, DW_AT_name("$O$C13")
     571                            .dwattr $C$DW$104, DW_AT_TI_symbol_name("$O$C13")
     572                            .dwattr $C$DW$104, DW_AT_type(*$C$DW$T$11)
     573                            .dwattr $C$DW$104, DW_AT_location[DW_OP_reg7]
     574                    $C$DW$105       .dwtag  DW_TAG_variable, DW_AT_name("$O$C14")
     575                            .dwattr $C$DW$105, DW_AT_TI_symbol_name("$O$C14")
     576                            .dwattr $C$DW$105, DW_AT_type(*$C$DW$T$10)
     577                            .dwattr $C$DW$105, DW_AT_location[DW_OP_reg5]
     578                    $C$DW$106       .dwtag  DW_TAG_variable, DW_AT_name("$O$C15")
     579                            .dwattr $C$DW$106, DW_AT_TI_symbol_name("$O$C15")
     580                            .dwattr $C$DW$106, DW_AT_type(*$C$DW$T$167)
     581                            .dwattr $C$DW$106, DW_AT_location[DW_OP_reg20]
     582                    $C$DW$107       .dwtag  DW_TAG_variable, DW_AT_name("$O$C16")
     583                            .dwattr $C$DW$107, DW_AT_TI_symbol_name("$O$C16")
     584                            .dwattr $C$DW$107, DW_AT_type(*$C$DW$T$47)
     585                            .dwattr $C$DW$107, DW_AT_location[DW_OP_reg20]
     586                    $C$DW$108       .dwtag  DW_TAG_variable, DW_AT_name("$O$f3")
     587                            .dwattr $C$DW$108, DW_AT_TI_symbol_name("$O$f3")
     588                            .dwattr $C$DW$108, DW_AT_type(*$C$DW$T$10)
     589                            .dwattr $C$DW$108, DW_AT_location[DW_OP_reg0]
     590                    $C$DW$109       .dwtag  DW_TAG_variable, DW_AT_name("$O$f4")
     591                            .dwattr $C$DW$109, DW_AT_TI_symbol_name("$O$f4")
     592                            .dwattr $C$DW$109, DW_AT_type(*$C$DW$T$10)
     593                            .dwattr $C$DW$109, DW_AT_location[DW_OP_reg0]
     594                    $C$DW$110       .dwtag  DW_TAG_variable, DW_AT_name("$O$U12")
     595                            .dwattr $C$DW$110, DW_AT_TI_symbol_name("$O$U12")
     596                            .dwattr $C$DW$110, DW_AT_type(*$C$DW$T$47)
     597                            .dwattr $C$DW$110, DW_AT_location[DW_OP_reg11]
     598                    $C$DW$111       .dwtag  DW_TAG_variable, DW_AT_name("$O$U31")
     599                            .dwattr $C$DW$111, DW_AT_TI_symbol_name("$O$U31")
     600                            .dwattr $C$DW$111, DW_AT_type(*$C$DW$T$11)
     601                            .dwattr $C$DW$111, DW_AT_location[DW_OP_reg14]
     602                    $C$DW$112       .dwtag  DW_TAG_variable, DW_AT_name("$O$U11")
     603                            .dwattr $C$DW$112, DW_AT_TI_symbol_name("$O$U11")
     604                            .dwattr $C$DW$112, DW_AT_type(*$C$DW$T$10)
     605                            .dwattr $C$DW$112, DW_AT_location[DW_OP_reg13]
TMS320C6x Assembler PC v7.4.2 Thu Mar 19 12:40:38 2015

Tools Copyright (c) 1996-2012 Texas Instruments Incorporated
package/lib/Regression/regress_d_c/./../packages/ti/vlib/src/VLIB_coOccurrenceMatrix/VLIB_coOccurrenceMatrix_d.se66 PAGE   12

     606                    $C$DW$113       .dwtag  DW_TAG_variable, DW_AT_name("$O$U61")
     607                            .dwattr $C$DW$113, DW_AT_TI_symbol_name("$O$U61")
     608                            .dwattr $C$DW$113, DW_AT_type(*$C$DW$T$113)
     609                            .dwattr $C$DW$113, DW_AT_location[DW_OP_reg21]
     610                    $C$DW$114       .dwtag  DW_TAG_variable, DW_AT_name("$O$U83")
     611                            .dwattr $C$DW$114, DW_AT_TI_symbol_name("$O$U83")
     612                            .dwattr $C$DW$114, DW_AT_type(*$C$DW$T$88)
     613                            .dwattr $C$DW$114, DW_AT_location[DW_OP_reg15]
     614                    $C$DW$115       .dwtag  DW_TAG_variable, DW_AT_name("$O$U85")
     615                            .dwattr $C$DW$115, DW_AT_TI_symbol_name("$O$U85")
     616                            .dwattr $C$DW$115, DW_AT_type(*$C$DW$T$88)
     617                            .dwattr $C$DW$115, DW_AT_location[DW_OP_reg28]
     618                    $C$DW$116       .dwtag  DW_TAG_variable, DW_AT_name("$O$K95")
     619                            .dwattr $C$DW$116, DW_AT_TI_symbol_name("$O$K95")
     620                            .dwattr $C$DW$116, DW_AT_type(*$C$DW$T$167)
     621                            .dwattr $C$DW$116, DW_AT_location[DW_OP_reg3]
     622                    $C$DW$117       .dwtag  DW_TAG_variable, DW_AT_name("$O$U119")
     623                            .dwattr $C$DW$117, DW_AT_TI_symbol_name("$O$U119")
     624                            .dwattr $C$DW$117, DW_AT_type(*$C$DW$T$37)
     625                            .dwattr $C$DW$117, DW_AT_location[DW_OP_reg6]
     626                    $C$DW$118       .dwtag  DW_TAG_variable, DW_AT_name("$O$U120")
     627                            .dwattr $C$DW$118, DW_AT_TI_symbol_name("$O$U120")
     628                            .dwattr $C$DW$118, DW_AT_type(*$C$DW$T$9)
     629                            .dwattr $C$DW$118, DW_AT_location[DW_OP_reg5]
     630                    $C$DW$119       .dwtag  DW_TAG_variable, DW_AT_name("$O$U45")
     631                            .dwattr $C$DW$119, DW_AT_TI_symbol_name("$O$U45")
     632                            .dwattr $C$DW$119, DW_AT_type(*$C$DW$T$47)
     633                            .dwattr $C$DW$119, DW_AT_location[DW_OP_reg28]
     634                    $C$DW$120       .dwtag  DW_TAG_variable, DW_AT_name("$O$U150")
     635                            .dwattr $C$DW$120, DW_AT_TI_symbol_name("$O$U150")
     636                            .dwattr $C$DW$120, DW_AT_type(*$C$DW$T$37)
     637                            .dwattr $C$DW$120, DW_AT_location[DW_OP_reg22]
     638                    $C$DW$121       .dwtag  DW_TAG_variable, DW_AT_name("$O$U151")
     639                            .dwattr $C$DW$121, DW_AT_TI_symbol_name("$O$U151")
     640                            .dwattr $C$DW$121, DW_AT_type(*$C$DW$T$9)
     641                            .dwattr $C$DW$121, DW_AT_location[DW_OP_reg21]
     642                    $C$DW$122       .dwtag  DW_TAG_variable, DW_AT_name("$O$K73")
     643                            .dwattr $C$DW$122, DW_AT_TI_symbol_name("$O$K73")
     644                            .dwattr $C$DW$122, DW_AT_type(*$C$DW$T$88)
     645                            .dwattr $C$DW$122, DW_AT_location[DW_OP_reg26]
     646                    $C$DW$123       .dwtag  DW_TAG_variable, DW_AT_name("$O$K189")
     647                            .dwattr $C$DW$123, DW_AT_TI_symbol_name("$O$K189")
     648                            .dwattr $C$DW$123, DW_AT_type(*$C$DW$T$88)
     649                            .dwattr $C$DW$123, DW_AT_location[DW_OP_reg8]
     650                    $C$DW$124       .dwtag  DW_TAG_variable, DW_AT_name("$O$U139")
     651                            .dwattr $C$DW$124, DW_AT_TI_symbol_name("$O$U139")
     652                            .dwattr $C$DW$124, DW_AT_type(*$C$DW$T$37)
     653                            .dwattr $C$DW$124, DW_AT_location[DW_OP_breg31 72]
     654                    $C$DW$125       .dwtag  DW_TAG_variable, DW_AT_name("$O$U131")
     655                            .dwattr $C$DW$125, DW_AT_TI_symbol_name("$O$U131")
     656                            .dwattr $C$DW$125, DW_AT_type(*$C$DW$T$11)
     657                            .dwattr $C$DW$125, DW_AT_location[DW_OP_reg12]
     658                    $C$DW$126       .dwtag  DW_TAG_variable, DW_AT_name("$O$L1")
     659                            .dwattr $C$DW$126, DW_AT_TI_symbol_name("$O$L1")
     660                            .dwattr $C$DW$126, DW_AT_type(*$C$DW$T$10)
TMS320C6x Assembler PC v7.4.2 Thu Mar 19 12:40:38 2015

Tools Copyright (c) 1996-2012 Texas Instruments Incorporated
package/lib/Regression/regress_d_c/./../packages/ti/vlib/src/VLIB_coOccurrenceMatrix/VLIB_coOccurrenceMatrix_d.se66 PAGE   13

     661                            .dwattr $C$DW$126, DW_AT_location[DW_OP_reg12]
     662                    $C$DW$127       .dwtag  DW_TAG_variable, DW_AT_name("$O$L2")
     663                            .dwattr $C$DW$127, DW_AT_TI_symbol_name("$O$L2")
     664                            .dwattr $C$DW$127, DW_AT_type(*$C$DW$T$10)
     665                            .dwattr $C$DW$127, DW_AT_location[DW_OP_reg4]
     666                    $C$DW$128       .dwtag  DW_TAG_variable, DW_AT_name("$O$L3")
     667                            .dwattr $C$DW$128, DW_AT_TI_symbol_name("$O$L3")
     668                            .dwattr $C$DW$128, DW_AT_type(*$C$DW$T$10)
     669                            .dwattr $C$DW$128, DW_AT_location[DW_OP_reg29]
     670                    $C$DW$129       .dwtag  DW_TAG_variable, DW_AT_name("$O$L4")
     671                            .dwattr $C$DW$129, DW_AT_TI_symbol_name("$O$L4")
     672                            .dwattr $C$DW$129, DW_AT_type(*$C$DW$T$10)
     673                            .dwattr $C$DW$129, DW_AT_location[DW_OP_reg7]
     674                    $C$DW$130       .dwtag  DW_TAG_variable, DW_AT_name("tpi")
     675                            .dwattr $C$DW$130, DW_AT_TI_symbol_name("tpi")
     676                            .dwattr $C$DW$130, DW_AT_type(*$C$DW$T$31)
     677                            .dwattr $C$DW$130, DW_AT_location[DW_OP_breg31 76]
     678                    $C$DW$131       .dwtag  DW_TAG_variable, DW_AT_name("prm")
     679                            .dwattr $C$DW$131, DW_AT_TI_symbol_name("prm")
     680                            .dwattr $C$DW$131, DW_AT_type(*$C$DW$T$50)
     681                            .dwattr $C$DW$131, DW_AT_location[DW_OP_breg31 36]
     682                    $C$DW$132       .dwtag  DW_TAG_variable, DW_AT_name("outWidth")
     683                            .dwattr $C$DW$132, DW_AT_TI_symbol_name("outWidth")
     684                            .dwattr $C$DW$132, DW_AT_type(*$C$DW$T$21)
     685                            .dwattr $C$DW$132, DW_AT_location[DW_OP_breg31 80]
     686                    $C$DW$133       .dwtag  DW_TAG_variable, DW_AT_name("outHeight")
     687                            .dwattr $C$DW$133, DW_AT_TI_symbol_name("outHeight")
     688                            .dwattr $C$DW$133, DW_AT_type(*$C$DW$T$21)
     689                            .dwattr $C$DW$133, DW_AT_location[DW_OP_breg31 84]
     690                    $C$DW$134       .dwtag  DW_TAG_variable, DW_AT_name("retVal")
     691                            .dwattr $C$DW$134, DW_AT_TI_symbol_name("retVal")
     692                            .dwattr $C$DW$134, DW_AT_type(*$C$DW$T$76)
     693                            .dwattr $C$DW$134, DW_AT_location[DW_OP_reg12]
     694                    $C$DW$135       .dwtag  DW_TAG_variable, DW_AT_name("fail")
     695                            .dwattr $C$DW$135, DW_AT_TI_symbol_name("fail")
     696                            .dwattr $C$DW$135, DW_AT_type(*$C$DW$T$76)
     697                            .dwattr $C$DW$135, DW_AT_location[DW_OP_reg29]
     698                    $C$DW$136       .dwtag  DW_TAG_variable, DW_AT_name("mode")
     699                            .dwattr $C$DW$136, DW_AT_TI_symbol_name("mode")
     700                            .dwattr $C$DW$136, DW_AT_type(*$C$DW$T$76)
     701                            .dwattr $C$DW$136, DW_AT_location[DW_OP_reg27]
     702                    $C$DW$137       .dwtag  DW_TAG_variable, DW_AT_name("scratch")
     703                            .dwattr $C$DW$137, DW_AT_TI_symbol_name("scratch")
     704                            .dwattr $C$DW$137, DW_AT_type(*$C$DW$T$20)
     705                            .dwattr $C$DW$137, DW_AT_location[DW_OP_breg31 88]
     706                    $C$DW$138       .dwtag  DW_TAG_variable, DW_AT_name("status_nat_vs_int")
     707                            .dwattr $C$DW$138, DW_AT_TI_symbol_name("status_nat_vs_int")
     708                            .dwattr $C$DW$138, DW_AT_type(*$C$DW$T$31)
     709                            .dwattr $C$DW$138, DW_AT_location[DW_OP_reg14]
     710                    $C$DW$139       .dwtag  DW_TAG_variable, DW_AT_name("status_nat_vs_ref")
     711                            .dwattr $C$DW$139, DW_AT_TI_symbol_name("status_nat_vs_ref")
     712                            .dwattr $C$DW$139, DW_AT_type(*$C$DW$T$31)
     713                            .dwattr $C$DW$139, DW_AT_location[DW_OP_reg8]
     714                    $C$DW$140       .dwtag  DW_TAG_variable, DW_AT_name("input")
     715                            .dwattr $C$DW$140, DW_AT_TI_symbol_name("input")
TMS320C6x Assembler PC v7.4.2 Thu Mar 19 12:40:38 2015

Tools Copyright (c) 1996-2012 Texas Instruments Incorporated
package/lib/Regression/regress_d_c/./../packages/ti/vlib/src/VLIB_coOccurrenceMatrix/VLIB_coOccurrenceMatrix_d.se66 PAGE   14

     716                            .dwattr $C$DW$140, DW_AT_type(*$C$DW$T$20)
     717                            .dwattr $C$DW$140, DW_AT_location[DW_OP_breg31 92]
     718                    $C$DW$141       .dwtag  DW_TAG_variable, DW_AT_name("$O$U35")
     719                            .dwattr $C$DW$141, DW_AT_TI_symbol_name("$O$U35")
     720                            .dwattr $C$DW$141, DW_AT_type(*$C$DW$T$113)
     721                            .dwattr $C$DW$141, DW_AT_location[DW_OP_reg12]
     722                    $C$DW$142       .dwtag  DW_TAG_variable, DW_AT_name("$O$U35")
     723                            .dwattr $C$DW$142, DW_AT_TI_symbol_name("$O$U35")
     724                            .dwattr $C$DW$142, DW_AT_type(*$C$DW$T$113)
     725                            .dwattr $C$DW$142, DW_AT_location[DW_OP_reg10]
     726                    $C$DW$143       .dwtag  DW_TAG_variable, DW_AT_name("$O$U117")
     727                            .dwattr $C$DW$143, DW_AT_TI_symbol_name("$O$U117")
     728                            .dwattr $C$DW$143, DW_AT_type(*$C$DW$T$37)
     729                            .dwattr $C$DW$143, DW_AT_location[DW_OP_reg22]
     730                    $C$DW$144       .dwtag  DW_TAG_variable, DW_AT_name("$O$U117")
     731                            .dwattr $C$DW$144, DW_AT_TI_symbol_name("$O$U117")
     732                            .dwattr $C$DW$144, DW_AT_type(*$C$DW$T$37)
     733                            .dwattr $C$DW$144, DW_AT_location[DW_OP_reg6]
     734                    $C$DW$145       .dwtag  DW_TAG_variable, DW_AT_name("$O$U118")
     735                            .dwattr $C$DW$145, DW_AT_TI_symbol_name("$O$U118")
     736                            .dwattr $C$DW$145, DW_AT_type(*$C$DW$T$9)
     737                            .dwattr $C$DW$145, DW_AT_location[DW_OP_reg21]
     738                    $C$DW$146       .dwtag  DW_TAG_variable, DW_AT_name("$O$U118")
     739                            .dwattr $C$DW$146, DW_AT_TI_symbol_name("$O$U118")
     740                            .dwattr $C$DW$146, DW_AT_type(*$C$DW$T$9)
     741                            .dwattr $C$DW$146, DW_AT_location[DW_OP_reg5]
     742                    $C$DW$147       .dwtag  DW_TAG_variable, DW_AT_name("i")
     743                            .dwattr $C$DW$147, DW_AT_TI_symbol_name("i")
     744                            .dwattr $C$DW$147, DW_AT_type(*$C$DW$T$76)
     745                            .dwattr $C$DW$147, DW_AT_location[DW_OP_reg10]
     746                    $C$DW$148       .dwtag  DW_TAG_variable, DW_AT_name("i")
     747                            .dwattr $C$DW$148, DW_AT_TI_symbol_name("i")
     748                            .dwattr $C$DW$148, DW_AT_type(*$C$DW$T$76)
     749                            .dwattr $C$DW$148, DW_AT_location[DW_OP_reg15]
     750                    $C$DW$149       .dwtag  DW_TAG_variable, DW_AT_name("j")
     751                            .dwattr $C$DW$149, DW_AT_TI_symbol_name("j")
     752                            .dwattr $C$DW$149, DW_AT_type(*$C$DW$T$76)
     753                            .dwattr $C$DW$149, DW_AT_location[DW_OP_reg20]
     754                    $C$DW$150       .dwtag  DW_TAG_variable, DW_AT_name("j")
     755                            .dwattr $C$DW$150, DW_AT_TI_symbol_name("j")
     756                            .dwattr $C$DW$150, DW_AT_type(*$C$DW$T$76)
     757                            .dwattr $C$DW$150, DW_AT_location[DW_OP_reg20]
     758                    $C$DW$151       .dwtag  DW_TAG_variable, DW_AT_name("k")
     759                            .dwattr $C$DW$151, DW_AT_TI_symbol_name("k")
     760                            .dwattr $C$DW$151, DW_AT_type(*$C$DW$T$76)
     761                            .dwattr $C$DW$151, DW_AT_location[DW_OP_reg10]
     762                    $C$DW$152       .dwtag  DW_TAG_variable, DW_AT_name("k")
     763                            .dwattr $C$DW$152, DW_AT_TI_symbol_name("k")
     764                            .dwattr $C$DW$152, DW_AT_type(*$C$DW$T$76)
     765                            .dwattr $C$DW$152, DW_AT_location[DW_OP_reg26]
     766                    $C$DW$153       .dwtag  DW_TAG_variable, DW_AT_name("k")
     767                            .dwattr $C$DW$153, DW_AT_TI_symbol_name("k")
     768                            .dwattr $C$DW$153, DW_AT_type(*$C$DW$T$76)
     769                            .dwattr $C$DW$153, DW_AT_location[DW_OP_reg10]
     770                    $C$DW$154       .dwtag  DW_TAG_variable, DW_AT_name("k")
TMS320C6x Assembler PC v7.4.2 Thu Mar 19 12:40:38 2015

Tools Copyright (c) 1996-2012 Texas Instruments Incorporated
package/lib/Regression/regress_d_c/./../packages/ti/vlib/src/VLIB_coOccurrenceMatrix/VLIB_coOccurrenceMatrix_d.se66 PAGE   15

     771                            .dwattr $C$DW$154, DW_AT_TI_symbol_name("k")
     772                            .dwattr $C$DW$154, DW_AT_type(*$C$DW$T$76)
     773                            .dwattr $C$DW$154, DW_AT_location[DW_OP_reg12]
     774                    $C$DW$155       .dwtag  DW_TAG_variable, DW_AT_name("$O$v1")
     775                            .dwattr $C$DW$155, DW_AT_TI_symbol_name("$O$v1")
     776                            .dwattr $C$DW$155, DW_AT_type(*$C$DW$T$50)
     777                            .dwattr $C$DW$155, DW_AT_location[DW_OP_reg22]
     778                    $C$DW$156       .dwtag  DW_TAG_variable, DW_AT_name("$O$v1")
     779                            .dwattr $C$DW$156, DW_AT_TI_symbol_name("$O$v1")
     780                            .dwattr $C$DW$156, DW_AT_type(*$C$DW$T$50)
     781                            .dwattr $C$DW$156, DW_AT_location[DW_OP_reg28]
     782                    $C$DW$157       .dwtag  DW_TAG_variable, DW_AT_name("$O$v2")
     783                            .dwattr $C$DW$157, DW_AT_TI_symbol_name("$O$v2")
     784                            .dwattr $C$DW$157, DW_AT_type(*$C$DW$T$168)
     785                            .dwattr $C$DW$157, DW_AT_location[DW_OP_regx 0x35]
     786                    $C$DW$158       .dwtag  DW_TAG_variable, DW_AT_name("$O$v2")
     787                            .dwattr $C$DW$158, DW_AT_TI_symbol_name("$O$v2")
     788                            .dwattr $C$DW$158, DW_AT_type(*$C$DW$T$168)
     789                            .dwattr $C$DW$158, DW_AT_location[DW_OP_reg24]
     790                    $C$DW$159       .dwtag  DW_TAG_variable, DW_AT_name("$O$O1")
     791                            .dwattr $C$DW$159, DW_AT_TI_symbol_name("$O$O1")
     792                            .dwattr $C$DW$159, DW_AT_type(*$C$DW$T$36)
     793                            .dwattr $C$DW$159, DW_AT_location[DW_OP_breg31 40]
     794 00000010 0200002a!            MVKL    .S2     test_cases,B4
     795 00000014 0200006a!            MVKH    .S2     test_cases,B4
     796                    $C$DW$160       .dwtag  DW_TAG_TI_branch
     797                            .dwattr $C$DW$160, DW_AT_low_pc(0x00)
     798                            .dwattr $C$DW$160, DW_AT_name("coOccurrence_getTestParams")
     799                            .dwattr $C$DW$160, DW_AT_TI_call
     800                    
     801 00000018 10000013!            CALLP   .S2     coOccurrence_getTestParams,B3
     802 00000020 120009fc  ||         ADDAW   .D1X    SP,9,A4           ; |52| 
     803                    
     804                            .dwpsn  file "./../packages/ti/vlib/src/VLIB_coOccurrenceMatrix/VLIB_coOccurrenceMatrix_d.c",l
     805                    ;----------------------------------------------------------------------
     806                    ;  52 | coOccurrence_getTestParams(&prm, &test_cases);                         
     807                    ;----------------------------------------------------------------------
     808 00000024           $C$RL0:    ; CALL OCCURS {coOccurrence_getTestParams} {0}  ; |52| 
     809                    ;** --------------------------------------------------------------------------*
     810                    ;          EXCLUSIVE CPU CYCLES: 8
     811 00000024 0200002a!            MVKL    .S2     $C$SL1+0,B4
     812 00000028 0200006a!            MVKH    .S2     $C$SL1+0,B4
     813                    $C$DW$161       .dwtag  DW_TAG_TI_branch
     814                            .dwattr $C$DW$161, DW_AT_low_pc(0x00)
     815                            .dwattr $C$DW$161, DW_AT_name("VLIB_profile_init")
     816                            .dwattr $C$DW$161, DW_AT_TI_call
     817                    
     818 0000002c 10000013!            CALLP   .S2     VLIB_profile_init,B3
     819 00000030 0210a358  ||         MVK     .L1     0x4,A4            ; |55| 
     820                    
     821                            .dwpsn  file "./../packages/ti/vlib/src/VLIB_coOccurrenceMatrix/VLIB_coOccurrenceMatrix_d.c",l
     822                    ;----------------------------------------------------------------------
     823                    ;  55 | VLIB_profile_init(4, "VLIB_coOccurrenceMatrix");                       
     824                    ;  58 | for( tpi=0; tpi < test_cases; tpi++ ) {                                
     825                    ;----------------------------------------------------------------------
TMS320C6x Assembler PC v7.4.2 Thu Mar 19 12:40:38 2015

Tools Copyright (c) 1996-2012 Texas Instruments Incorporated
package/lib/Regression/regress_d_c/./../packages/ti/vlib/src/VLIB_coOccurrenceMatrix/VLIB_coOccurrenceMatrix_d.se66 PAGE   16

     826 00000034           $C$RL1:    ; CALL OCCURS {VLIB_profile_init} {0}  ; |55| 
     827                    ;** --------------------------------------------------------------------------*
     828                    ;          EXCLUSIVE CPU CYCLES: 14
     829                    ;**     -----------------------    U$12 = prm-32;
     830                    ;**     -----------------------    K$189 = &desc[0];
     831                    ;**     -----------------------    U$11 = 0;
     832                    ;** 58  -----------------------    tpi = 0;
     833                    ;**     -----------------------    #pragma LOOP_FLAGS(5120u)
     834                    
     835 00000034 01800029!            MVKL    .S1     test_cases,A3
     836 00000038 023d22e6  ||         LDW     .D2T2   *+SP(36),B4
     837                    
     838 0000003c 01800068!            MVKH    .S1     test_cases,A3
     839                    
     840 00000044     05a6             ZERO    .L1     A3
     841 00000040 020c0265  ||         LDW     .D1T1   *A3,A4            ; |58| 
     842                    
     843 00000046     02b2             MVK     .S1     32,A5
     844 00000048 01be62f4             STW     .D2T1   A3,*+SP(76)
     845 0000004c 059492f8             SUB     .L1X    B4,A5,A11
     846                            .dwpsn  file "./../packages/ti/vlib/src/VLIB_coOccurrenceMatrix/VLIB_coOccurrenceMatrix_d.c",l
     847                    ;----------------------------------------------------------------------
     848                    ;  60 | uint16_t    outWidth     = prm[tpi].numLevels;                         
     849                    ;  61 | uint16_t    outHeight    = prm[tpi].numLevels;                         
     850                    ;  62 | uint32_t    retVal;                                                    
     851                    ;  63 | uint32_t    i, j, k, fail, mode;                                       
     852                    ;  64 | uint16_t   *outMatrix[MAX_OUT_MATRIX];                                 
     853                    ;  65 | uint16_t   *outMatrix_cn[MAX_OUT_MATRIX];                              
     854                    ;  66 | uint8_t    *scratch;                                                   
     855                    ;  69 | int32_t    status_nat_vs_int  = vlib_KERNEL_PASS; /* Test status : Natu
     856                    ;     | ral c vs. Optimized */                                                 
     857                    ;  70 | int32_t    status_nat_vs_ref  = vlib_KERNEL_PASS; /* Test status : Natu
     858                    ;     | ral c vs. Static Reference */                                          
     859                    ;----------------------------------------------------------------------
     860 00000050 05801050             ADDK    .S1     32,A11            ; |60| 
     861                            .dwpsn  file "./../packages/ti/vlib/src/VLIB_coOccurrenceMatrix/VLIB_coOccurrenceMatrix_d.c",l
     862 00000054 00100ad8             CMPGT   .L1     A4,0,A0           ; |58| 
     863                    
     864 00000058 d000ef11     [!A0]   B       .S1     $C$L32            ; |58| 
     865 00000060 c22ce204  || [ A0]   LDHU    .D1T1   *+A11(14),A4      ; |73| 
     866                    
     867                            .dwpsn  file "./../packages/ti/vlib/src/VLIB_coOccurrenceMatrix/VLIB_coOccurrenceMatrix_d.c",l
     868                    ;----------------------------------------------------------------------
     869                    ;  73 | uint8_t   *input        = (uint8_t *) VLIB_malloc(prm[tpi].imagePitch *
     870                    ;     |  prm[tpi].imageHeight);                                                
     871                    ;----------------------------------------------------------------------
     872 00000064 c1ad0204     [ A0]   LDHU    .D1T1   *+A11(16),A3      ; |73| 
     873 00000068 0680a358             ZERO    .L1     A13
     874 0000006c 00004000             NOP             3
     875                            .dwpsn  file "./../packages/ti/vlib/src/VLIB_coOccurrenceMatrix/VLIB_coOccurrenceMatrix_d.c",l
     876                               ; BRANCHCC OCCURS {$C$L32}        ; |58| 
     877                    ;** --------------------------------------------------------------------------*
     878                    ;**   BEGIN LOOP $C$L1
     879                    ;** --------------------------------------------------------------------------*
     880 00000070           $C$L1:    
TMS320C6x Assembler PC v7.4.2 Thu Mar 19 12:40:38 2015

Tools Copyright (c) 1996-2012 Texas Instruments Incorporated
package/lib/Regression/regress_d_c/./../packages/ti/vlib/src/VLIB_coOccurrenceMatrix/VLIB_coOccurrenceMatrix_d.se66 PAGE   17

     881                            .dwpsn  file "./../packages/ti/vlib/src/VLIB_coOccurrenceMatrix/VLIB_coOccurrenceMatrix_d.c",l
     882                    $C$DW$L$VLIB_coOccurrenceMatrix_d$4$B:
     883                    ;          EXCLUSIVE CPU CYCLES: 6
     884                    ;**     -----------------------g3:
     885                    ;** 60  -----------------------    outWidth = (*(U$12 += 32)).numLevels;
     886                    ;** 61  -----------------------    outHeight = outWidth;
     887                    ;** 73  -----------------------    input = VLIB_malloc((unsigned)((*U$12).imagePitch*(*U$12).imageHeig
     888                    ;** 75  -----------------------    v$4 = prm;
     889                    ;** 75  -----------------------    v$1 = v$4;
     890                    ;** 75  -----------------------    if ( !(*U$12).numOffsets ) goto g6;
     891                    $C$DW$162       .dwtag  DW_TAG_TI_branch
     892                            .dwattr $C$DW$162, DW_AT_low_pc(0x00)
     893                            .dwattr $C$DW$162, DW_AT_name("VLIB_malloc")
     894                            .dwattr $C$DW$162, DW_AT_TI_call
     895                    
     896 00000070 00000011!            CALL    .S1     VLIB_malloc       ; |73| 
     897 00000074 020c8f81  ||         MPYU    .M1     A4,A3,A4          ; |73| 
     898 00000078 01ad4204  ||         LDHU    .D1T1   *+A11(20),A3      ; |60| 
     899                    
     900                            .dwpsn  file "./../packages/ti/vlib/src/VLIB_coOccurrenceMatrix/VLIB_coOccurrenceMatrix_d.c",l
     901 0000007c 01896162             ADDKPC  .S2     $C$RL2,B3,3       ; |73| 
     902 00000080 01be82f4             STW     .D2T1   A3,*+SP(80)       ; |73| 
     903 00000084           $C$RL2:    ; CALL OCCURS {VLIB_malloc} {0}   ; |73| 
     904 00000084           $C$DW$L$VLIB_coOccurrenceMatrix_d$4$E:
     905                    ;** --------------------------------------------------------------------------*
     906 00000084           $C$DW$L$VLIB_coOccurrenceMatrix_d$5$B:
     907                    ;          EXCLUSIVE CPU CYCLES: 11
     908                            .dwpsn  file "./../packages/ti/vlib/src/VLIB_coOccurrenceMatrix/VLIB_coOccurrenceMatrix_d.c",l
     909                    ;----------------------------------------------------------------------
     910                    ;  75 | for( k=0; k < prm[tpi].numOffsets; k++ ) {                             
     911                    ;----------------------------------------------------------------------
     912 00000084 002ec214             LDBU    .D1T1   *+A11(22),A0      ; |75| 
     913 00000088     bd6d             LDW     .D2T2   *+SP(36),B6       ; |75| 
     914 0000008a     8ebd             LDW     .D2T1   *+SP(80),A3
     915 0000008c 16000afc             ADDAW   .D1X    SP,10,A12
     916                            .dwpsn  file "./../packages/ti/vlib/src/VLIB_coOccurrenceMatrix/VLIB_coOccurrenceMatrix_d.c",l
     917 00000090     eec5             STW     .D2T1   A4,*+SP(92)       ; |73| 
     918                            .dwpsn  file "./../packages/ti/vlib/src/VLIB_coOccurrenceMatrix/VLIB_coOccurrenceMatrix_d.c",l
     919 00000092     2bba     [!A0]   BNOP    .S1     $C$L3,1           ; |75| 
     920                            .dwpsn  file "./../packages/ti/vlib/src/VLIB_coOccurrenceMatrix/VLIB_coOccurrenceMatrix_d.c",l
     921 00000094 01bea2f4             STW     .D2T1   A3,*+SP(84)       ; |61| 
     922 00000098 c18c6f80     [ A0]   MPYU    .M1     A3,A3,A3
     923                            .dwpsn  file "./../packages/ti/vlib/src/VLIB_coOccurrenceMatrix/VLIB_coOccurrenceMatrix_d.c",l
     924 000000a0 c500a358     [ A0]   ZERO    .L1     A10               ; |75| 
     925 000000a4 c70c6078     [ A0]   ADD     .L1     A3,A3,A14
     926                            .dwpsn  file "./../packages/ti/vlib/src/VLIB_coOccurrenceMatrix/VLIB_coOccurrenceMatrix_d.c",l
     927                               ; BRANCHCC OCCURS {$C$L3}         ; |75| 
     928 000000a8           $C$DW$L$VLIB_coOccurrenceMatrix_d$5$E:
     929                    ;** --------------------------------------------------------------------------*
     930 000000a8           $C$DW$L$VLIB_coOccurrenceMatrix_d$6$B:
     931                    ;**     -----------------------    U$31 = _mpyu(outHeight, outHeight)*2;
     932                    ;**     -----------------------    U$35 = &O$1;
     933                    ;** 75  -----------------------    k = 0u;
     934                    ;**     -----------------------    #pragma LOOP_FLAGS(5120u)
     935 000000a8           $C$DW$L$VLIB_coOccurrenceMatrix_d$6$E:
TMS320C6x Assembler PC v7.4.2 Thu Mar 19 12:40:38 2015

Tools Copyright (c) 1996-2012 Texas Instruments Incorporated
package/lib/Regression/regress_d_c/./../packages/ti/vlib/src/VLIB_coOccurrenceMatrix/VLIB_coOccurrenceMatrix_d.se66 PAGE   18

     936                    ;*----------------------------------------------------------------------------*
     937                    ;*   SOFTWARE PIPELINE INFORMATION
     938                    ;*      Disqualified loop: Loop contains a call
     939                    ;*      Disqualified loop: Loop contains non-pipelinable instructions
     940                    ;*      Disqualified loop: Loop contains a call
     941                    ;*      Disqualified loop: Loop contains non-pipelinable instructions
     942                    ;*----------------------------------------------------------------------------*
     943 000000a8           $C$L2:    
     944                            .dwpsn  file "./../packages/ti/vlib/src/VLIB_coOccurrenceMatrix/VLIB_coOccurrenceMatrix_d.c",l
     945 000000a8           $C$DW$L$VLIB_coOccurrenceMatrix_d$7$B:
     946                    ;          EXCLUSIVE CPU CYCLES: 6
     947                    ;**     -----------------------g5:
     948                    ;** 76  -----------------------    U$35[4] = VLIB_malloc(U$31);
     949                    ;** 77  -----------------------    *U$35++ = malloc(U$31);
     950                    ;** 75  -----------------------    v$4 = prm;
     951                    ;** 75  -----------------------    v$1 = v$4;
     952                    ;** 75  -----------------------    if ( (unsigned)(*U$12).numOffsets > (++k) ) goto g5;
     953                            .dwpsn  file "./../packages/ti/vlib/src/VLIB_coOccurrenceMatrix/VLIB_coOccurrenceMatrix_d.c",l
     954                    ;----------------------------------------------------------------------
     955                    ;  76 | outMatrix[k]    = (uint16_t *) VLIB_malloc(outWidth * outHeight * sizeo
     956                    ;     | f(uint16_t));                                                          
     957                    ;----------------------------------------------------------------------
     958                    $C$DW$163       .dwtag  DW_TAG_TI_branch
     959                            .dwattr $C$DW$163, DW_AT_low_pc(0x00)
     960                            .dwattr $C$DW$163, DW_AT_name("VLIB_malloc")
     961                            .dwattr $C$DW$163, DW_AT_TI_call
     962 000000a8 00000010!            CALL    .S1     VLIB_malloc       ; |76| 
     963 000000ac 01856162             ADDKPC  .S2     $C$RL3,B3,3       ; |76| 
     964 000000b0 02380fd8             MV      .L1     A14,A4            ; |76| 
     965                    $C$RL3:    ; CALL OCCURS {VLIB_malloc} {0}   ; |76| 
     966                    $C$DW$L$VLIB_coOccurrenceMatrix_d$7$E:
     967                    ;** --------------------------------------------------------------------------*
     968                    $C$DW$L$VLIB_coOccurrenceMatrix_d$8$B:
     969                    ;          EXCLUSIVE CPU CYCLES: 6
     970                    $C$DW$164       .dwtag  DW_TAG_TI_branch
     971                            .dwattr $C$DW$164, DW_AT_low_pc(0x00)
     972                            .dwattr $C$DW$164, DW_AT_name("malloc")
     973                            .dwattr $C$DW$164, DW_AT_TI_call
     974                    
     975 000000b4 10000013!            CALLP   .S2     malloc,B3
     976 000000b8 02308275  ||         STW     .D1T1   A4,*+A12(16)      ; |76| 
     977 000000bc 02380fd8  ||         MV      .L1     A14,A4            ; |77| 
     978                    
     979                            .dwpsn  file "./../packages/ti/vlib/src/VLIB_coOccurrenceMatrix/VLIB_coOccurrenceMatrix_d.c",l
     980                    ;----------------------------------------------------------------------
     981                    ;  77 | outMatrix_cn[k] = (uint16_t *) malloc(outWidth * outHeight * sizeof(uin
     982                    ;     | t16_t));                                                               
     983                    ;----------------------------------------------------------------------
     984 000000c0           $C$RL4:    ; CALL OCCURS {malloc} {0}        ; |77| 
     985 000000c0           $C$DW$L$VLIB_coOccurrenceMatrix_d$8$E:
     986                    ;** --------------------------------------------------------------------------*
     987 000000c0           $C$DW$L$VLIB_coOccurrenceMatrix_d$9$B:
     988                    ;          EXCLUSIVE CPU CYCLES: 13
     989 000000c0 02303674             STW     .D1T1   A4,*A12++         ; |77| 
     990                            .dwpsn  file "./../packages/ti/vlib/src/VLIB_coOccurrenceMatrix/VLIB_coOccurrenceMatrix_d.c",l
TMS320C6x Assembler PC v7.4.2 Thu Mar 19 12:40:38 2015

Tools Copyright (c) 1996-2012 Texas Instruments Incorporated
package/lib/Regression/regress_d_c/./../packages/ti/vlib/src/VLIB_coOccurrenceMatrix/VLIB_coOccurrenceMatrix_d.se66 PAGE   19

     991 000000c4 01aec214             LDBU    .D1T1   *+A11(22),A3      ; |75| 
     992 000000c8 033d22e6             LDW     .D2T2   *+SP(36),B6       ; |75| 
     993 000000cc 05282058             ADD     .L1     1,A10,A10         ; |75| 
     994 000000d0 00002000             NOP             2
     995 000000d4 002869f8             CMPGTU  .L1     A3,A10,A0         ; |75| 
     996 000000d8 cffaa120     [ A0]   BNOP    .S1     $C$L2,5           ; |75| 
     997                               ; BRANCHCC OCCURS {$C$L2}         ; |75| 
     998 000000dc           $C$DW$L$VLIB_coOccurrenceMatrix_d$9$E:
     999                    ;** --------------------------------------------------------------------------*
    1000 000000dc           $C$L3:    
    1001 000000dc           $C$DW$L$VLIB_coOccurrenceMatrix_d$10$B:
    1002                    ;          EXCLUSIVE CPU CYCLES: 12
    1003                    ;**     -----------------------g6:
    1004                    ;** 80  -----------------------    if ( (*(U$11+v$1)).scratchFlow ) goto g8;
    1005                    ;** 86  -----------------------    scratch = NULL;
    1006                    ;** 86  -----------------------    goto g9;
    1007                            .dwpsn  file "./../packages/ti/vlib/src/VLIB_coOccurrenceMatrix/VLIB_coOccurrenceMatrix_d.c",l
    1008                    ;----------------------------------------------------------------------
    1009                    ;  80 | if( prm[tpi].scratchFlow ) {                                           
    1010                    ;  84 |     scratch = (uint8_t *) malloc(outWidth * outHeight * 4 * sizeof(uint
    1011                    ;     | 16_t));                                                                
    1012                    ;  85 | } else {                                                               
    1013                    ;----------------------------------------------------------------------
    1014 000000dc 0199b078             ADD     .L1X    B6,A13,A3         ; |80| 
    1015 000000e0 000fe214             LDBU    .D1T1   *+A3(31),A0       ; |80| 
    1016 000000e4     aecd             LDW     .D2T1   *+SP(84),A4
    1017                            .dwpsn  file "./../packages/ti/vlib/src/VLIB_coOccurrenceMatrix/VLIB_coOccurrenceMatrix_d.c",l
    1018                    ;----------------------------------------------------------------------
    1019                    ;  86 | scratch = NULL;                                                        
    1020                    ;----------------------------------------------------------------------
    1021 000000e6     0627             ZERO    .L2     B4                ; |86| 
    1022 000000e8     2c6e             NOP             2
    1023                    
    1024 000000ea     06ba     [!A0]   B       .S1     $C$L4             ; |86| 
    1025 000000ec d23ec2f6  || [!A0]   STW     .D2T2   B4,*+SP(88)       ; |86| 
    1026                    
    1027                    $C$DW$165       .dwtag  DW_TAG_TI_branch
    1028                            .dwattr $C$DW$165, DW_AT_low_pc(0x00)
    1029                            .dwattr $C$DW$165, DW_AT_name("malloc")
    1030                            .dwattr $C$DW$165, DW_AT_TI_call
    1031                    
    1032 000000f0 c0000011!    [ A0]   CALL    .S1     malloc            ; |84| 
    1033 000000f4 d03ee2e4  || [!A0]   LDW     .D2T1   *+SP(92),A0
    1034                    
    1035 000000f8 01900fd8             MV      .L1     A4,A3
    1036                            .dwpsn  file "./../packages/ti/vlib/src/VLIB_coOccurrenceMatrix/VLIB_coOccurrenceMatrix_d.c",l
    1037 00000100 018c8f80             MPYU    .M1     A4,A3,A3          ; |84| 
    1038 00000104     2c6e             NOP             2
    1039                            .dwpsn  file "./../packages/ti/vlib/src/VLIB_coOccurrenceMatrix/VLIB_coOccurrenceMatrix_d.c",l
    1040                               ; BRANCHCC OCCURS {$C$L4}         ; |86| 
    1041 00000106           $C$DW$L$VLIB_coOccurrenceMatrix_d$10$E:
    1042                    ;** --------------------------------------------------------------------------*
    1043                            .dwpsn  file "./../packages/ti/vlib/src/VLIB_coOccurrenceMatrix/VLIB_coOccurrenceMatrix_d.c",l
    1044 00000106           $C$DW$L$VLIB_coOccurrenceMatrix_d$11$B:
    1045                    ;          EXCLUSIVE CPU CYCLES: 1
TMS320C6x Assembler PC v7.4.2 Thu Mar 19 12:40:38 2015

Tools Copyright (c) 1996-2012 Texas Instruments Incorporated
package/lib/Regression/regress_d_c/./../packages/ti/vlib/src/VLIB_coOccurrenceMatrix/VLIB_coOccurrenceMatrix_d.se66 PAGE   20

    1046                    ;**     -----------------------g8:
    1047                    ;** 84  -----------------------    scratch = malloc((unsigned)(outWidth*outHeight<<3));
    1048                    ;** 85  -----------------------    v$4 = prm;
    1049                    ;** 85  -----------------------    v$1 = v$4;
    1050                    
    1051 00000106     65ca             SHL     .S1     A3,3,A4           ; |84| 
    1052 00000108 01830162  ||         ADDKPC  .S2     $C$RL5,B3,0       ; |84| 
    1053                    
    1054                            .dwpsn  file "./../packages/ti/vlib/src/VLIB_coOccurrenceMatrix/VLIB_coOccurrenceMatrix_d.c",l
    1055 0000010c           $C$RL5:    ; CALL OCCURS {malloc} {0}        ; |84| 
    1056 0000010c           $C$DW$L$VLIB_coOccurrenceMatrix_d$11$E:
    1057                    ;** --------------------------------------------------------------------------*
    1058 0000010c           $C$DW$L$VLIB_coOccurrenceMatrix_d$12$B:
    1059                    ;          EXCLUSIVE CPU CYCLES: 6
    1060                            .dwpsn  file "./../packages/ti/vlib/src/VLIB_coOccurrenceMatrix/VLIB_coOccurrenceMatrix_d.c",l
    1061 0000010c     bd6d             LDW     .D2T2   *+SP(36),B6       ; |85| 
    1062 0000010e     ee8d             LDW     .D2T1   *+SP(92),A0
    1063                            .dwpsn  file "./../packages/ti/vlib/src/VLIB_coOccurrenceMatrix/VLIB_coOccurrenceMatrix_d.c",l
    1064 00000110     cec5             STW     .D2T1   A4,*+SP(88)       ; |84| 
    1065 00000112     4c6e             NOP             3
    1066 00000114           $C$DW$L$VLIB_coOccurrenceMatrix_d$12$E:
    1067                    ;** --------------------------------------------------------------------------*
    1068 00000114           $C$L4:    
    1069                            .dwpsn  file "./../packages/ti/vlib/src/VLIB_coOccurrenceMatrix/VLIB_coOccurrenceMatrix_d.c",l
    1070 00000114           $C$DW$L$VLIB_coOccurrenceMatrix_d$13$B:
    1071                    ;          EXCLUSIVE CPU CYCLES: 6
    1072                    ;**     -----------------------g9:
    1073                    ;** 90  -----------------------    if ( input == NULL ) goto g39;
    1074                    
    1075 00000114 0234d07b             ADD     .L2X    B6,A13,B4         ; |90| 
    1076 00000118 d000bb10  || [!A0]   B       .S1     $C$L25            ; |90| 
    1077                    
    1078                            .dwpsn  file "./../packages/ti/vlib/src/VLIB_coOccurrenceMatrix/VLIB_coOccurrenceMatrix_d.c",l
    1079                    ;----------------------------------------------------------------------
    1080                    ;  90 | if( input && outMatrix[prm[tpi].numOffsets - 1] && outMatrix_cn[prm[tpi
    1081                    ;     | ].numOffsets - 1] ) {                                                  
    1082                    ;  93 |     VLIB_fillBuffer(prm[tpi].testPattern,                              
    1083                    ;  94 |                     (uint8_t)255,                                      
    1084                    ;  95 |                     input, prm[tpi].staticIn,                          
    1085                    ;  96 |                     prm[tpi].imageWidth, prm[tpi].imageHeight, prm[tpi]
    1086                    ;     | .imagePitch,                                                           
    1087                    ;  97 |                     sizeof(uint8_t), testPatternString);               
    1088                    ; 100 |     VLIB_profile_start(vlib_KERNEL_OPT);                               
    1089                    ; 101 |     retVal =  VLIB_coOccurrenceMatrix(input,                           
    1090                    ; 102 |                                       outMatrix,                       
    1091                    ; 103 |                                       prm[tpi].imageWidth,             
    1092                    ; 104 |                                       prm[tpi].imageHeight,            
    1093                    ; 105 |                                       prm[tpi].imagePitch,             
    1094                    ; 106 |                                       prm[tpi].loPixelVal,             
    1095                    ; 107 |                                       prm[tpi].hiPixelVal,             
    1096                    ; 108 |                                       prm[tpi].numLevels,              
    1097                    ; 109 |                                       prm[tpi].numOffsets,             
    1098                    ; 110 |                                       prm[tpi].rowOffsets,             
    1099                    ; 111 |                                       prm[tpi].colOffsets,             
    1100                    ; 112 |                                       scratch);                        
TMS320C6x Assembler PC v7.4.2 Thu Mar 19 12:40:38 2015

Tools Copyright (c) 1996-2012 Texas Instruments Incorporated
package/lib/Regression/regress_d_c/./../packages/ti/vlib/src/VLIB_coOccurrenceMatrix/VLIB_coOccurrenceMatrix_d.se66 PAGE   21

    1101                    ; 113 |     VLIB_profile_stop();                                               
    1102                    ; 115 |     if( retVal == 0x0 ) {                                              
    1103                    ; 116 |         status_nat_vs_int = vlib_KERNEL_FAIL;                          
    1104                    ; 120 |     VLIB_profile_start(vlib_KERNEL_CN);                                
    1105                    ; 121 |     retVal =  VLIB_coOccurrenceMatrix_cn(input,                        
    1106                    ; 122 |                                          outMatrix_cn,                 
    1107                    ; 123 |                                          prm[tpi].imageWidth,          
    1108                    ; 124 |                                          prm[tpi].imageHeight,         
    1109                    ; 125 |                                          prm[tpi].imagePitch,          
    1110                    ; 126 |                                          prm[tpi].loPixelVal,          
    1111                    ; 127 |                                          prm[tpi].hiPixelVal,          
    1112                    ; 128 |                                          prm[tpi].numLevels,           
    1113                    ; 129 |                                          prm[tpi].numOffsets,          
    1114                    ; 130 |                                          prm[tpi].rowOffsets,          
    1115                    ; 131 |                                          prm[tpi].colOffsets,          
    1116                    ; 132 |                                          scratch);                     
    1117                    ; 133 |     VLIB_profile_stop();                                               
    1118                    ; 136 |     for( k=0; k < (prm[tpi].numOffsets); k++ ) {                       
    1119                    ; 137 |         for( i=0; i < (outHeight); i++ ) {                             
    1120                    ; 138 |             for( j=0; j < (outWidth); j++ ) {                          
    1121                    ; 139 |                 if((outMatrix_cn[k][i * outWidth + j] != outMatrix[k][i
    1122                    ;     |  * outWidth + j])) {                                                   
    1123                    ; 140 |                     status_nat_vs_int = vlib_KERNEL_FAIL;              
    1124                    ; 141 |                     printf("Matrix:%d, row:%d, col:%d, out:%u, EOut:%u
    1125                    ;     | \n", k, i, j,\                                                         
    1126                    ; 142 |                            outMatrix[k][i * outWidth + j], outMatrix_cn
    1127                    ;     | [k][i * outWidth + j]);                                                
    1128                    ; 143 |                     break;                                             
    1129                    ; 150 |     if( prm[tpi].staticOut != NULL ) {                                 
    1130                    ; 151 |         for( k=0; k < prm[tpi].numOffsets; k++ ) {                     
    1131                    ; 152 |             for( i=0; i < (outHeight); i++ ) {                         
    1132                    ; 153 |                 for( j=0; j < (outWidth); j++ ) {                      
    1133                    ; 154 |                     if((prm[tpi].staticOut[k * outWidth * outHeight + i
    1134                    ;     |  * outWidth + j] != outMatrix_cn[k][i * outWidth + j])) {              
    1135                    ; 155 |                         status_nat_vs_ref = vlib_KERNEL_FAIL;          
    1136                    ; 156 |                         printf("Matrix:%d, row:%d, col:%d, Eout:%u, Out
    1137                    ;     | :%u \n", k, i, j,\                                                     
    1138                    ; 157 |                                prm[tpi].staticOut[k * outWidth * outHei
    1139                    ;     | ght + i * outWidth + j], outMatrix_cn[k][i * outWidth + j]);           
    1140                    ; 158 |                         break;                                         
    1141                    ; 166 |     fail = ((status_nat_vs_int == vlib_KERNEL_FAIL) || (status_nat_vs_r
    1142                    ;     | ef == vlib_KERNEL_FAIL)) ? 1 : 0;                                      
    1143                    ; 168 |     est_test=1;                                                        
    1144                    ; 170 |     if( prm[tpi].scratchFlow ) {                                       
    1145                    ; 171 |         if( ppwr2((prm[tpi].hiPixelVal - prm[tpi].loPixelVal + 1) / prm
    1146                    ;     | [tpi].numLevels) && (prm[tpi].numLevels <= 64)) {                      
    1147                    ; 172 |             mode = 1;                                                  
    1148                    ; 173 |         } else {                                                       
    1149                    ; 174 |             mode = 2;                                                  
    1150                    ; 176 |     } else {                                                           
    1151                    ; 177 |         mode = 3;                                                      
    1152                    ; 181 |     sprintf(desc, "%s generated input | Opt and NatC results compared |
    1153                    ;     |  imageWidth= %d, imageHeight= %d, outWidth= %d, outHeight= %d mode =%d"
    1154                    ;     | ,                                                                      
    1155                    ; 182 |             testPatternString, prm[tpi].imageWidth, prm[tpi].imageHeigh
TMS320C6x Assembler PC v7.4.2 Thu Mar 19 12:40:38 2015

Tools Copyright (c) 1996-2012 Texas Instruments Incorporated
package/lib/Regression/regress_d_c/./../packages/ti/vlib/src/VLIB_coOccurrenceMatrix/VLIB_coOccurrenceMatrix_d.se66 PAGE   22

    1156                    ;     | t, outWidth, outHeight, mode);                                         
    1157                    ; 183 |     VLIB_formula_add_test(prm[tpi].imageWidth * prm[tpi].imageHeight *
    1158                    ;     | prm[tpi].numOffsets,                                                   
    1159                    ; 184 |                           prm[tpi].imageHeight * prm[tpi].numOffsets,  
    1160                    ; 185 |                           prm[tpi].numOffsets, fail, desc, mode);      
    1161                    ; 187 | } else {                                                               
    1162                    ;----------------------------------------------------------------------
    1163 00000120 c292c296     [ A0]   LDBU    .D2T2   *+B4(22),B5       ; |90| 
    1164 00000124 00006000             NOP             4
    1165                               ; BRANCHCC OCCURS {$C$L25}        ; |90| 
    1166 00000128           $C$DW$L$VLIB_coOccurrenceMatrix_d$13$E:
    1167                    ;** --------------------------------------------------------------------------*
    1168 00000128           $C$DW$L$VLIB_coOccurrenceMatrix_d$14$B:
    1169                    ;          EXCLUSIVE CPU CYCLES: 13
    1170                    ;** 90  -----------------------    v$1 = v$4;
    1171                    ;** 90  -----------------------    C$16 = U$11+v$1;
    1172                    ;** 90  -----------------------    U$61 = (*C$16).numOffsets*4+&O$1-4;
    1173                    ;** 90  -----------------------    if ( U$61[4] == NULL ) goto g39;
    1174 00000128 02bcbc42             ADDAW   .D2     SP,B5,B5          ; |90| 
    1175 0000012c 02953d42             ADDAW   .D2     B5,9,B5           ; |90| 
    1176 00000130     908d             LDW     .D2T2   *+B5(16),B0       ; |90| 
    1177 00000132     6c6e             NOP             4
    1178                    
    1179 00000134 32e22121     [!B0]   BNOP    .S1     $C$L26,1          ; |90| 
    1180 00000138     4047  ||         MV      .L2     B0,B2             ; branch predicate copy
    1181 0000013a     204f  ||         MV      .S2     B0,B1             ; guard predicate rewrite
    1182 00000140 201402e6  || [ B0]   LDW     .D2T2   *B5,B0            ; |90| 
    1183                    
    1184                            .dwpsn  file "./../packages/ti/vlib/src/VLIB_coOccurrenceMatrix/VLIB_coOccurrenceMatrix_d.c",l
    1185                    ;----------------------------------------------------------------------
    1186                    ; 189 | sprintf(desc, "imageWidth= %d, imageHeight= %d, outWidth= %d, outHeight
    1187                    ;     | = %d ",                                                                
    1188                    ;----------------------------------------------------------------------
    1189 00000144 7199b078     [!B2]   ADD     .L1X    B6,A13,A3         ; |189| 
    1190                            .dwpsn  file "./../packages/ti/vlib/src/VLIB_coOccurrenceMatrix/VLIB_coOccurrenceMatrix_d.c",l
    1191 00000148 5004a35a     [!B1]   MVK     .L2     0x1,B0            ; |90| nullify predicate
    1192                            .dwpsn  file "./../packages/ti/vlib/src/VLIB_coOccurrenceMatrix/VLIB_coOccurrenceMatrix_d.c",l
    1193                    ;----------------------------------------------------------------------
    1194                    ; 190 | prm[tpi].imageWidth, prm[tpi].imageHeight, outWidth, outHeight);       
    1195                    ; 191 | VLIB_skip_test(desc);                                                  
    1196                    ;----------------------------------------------------------------------
    1197 0000014c 720ce204     [!B2]   LDHU    .D1T1   *+A3(14),A4       ; |189| 
    1198                            .dwpsn  file "./../packages/ti/vlib/src/VLIB_coOccurrenceMatrix/VLIB_coOccurrenceMatrix_d.c",l
    1199 00000150 3000b590     [!B0]   B       .S1     $C$L27            ; |90| 
    1200                               ; BRANCHCC OCCURS {$C$L26}        ; |90| 
    1201 00000154           $C$DW$L$VLIB_coOccurrenceMatrix_d$14$E:
    1202                    ;** --------------------------------------------------------------------------*
    1203 00000154           $C$DW$L$VLIB_coOccurrenceMatrix_d$15$B:
    1204                    ;          EXCLUSIVE CPU CYCLES: 5
    1205                    ;** 90  -----------------------    if ( *U$61 == NULL ) goto g39;
    1206                    
    1207 00000154 3199b079     [!B0]   ADD     .L1X    B6,A13,A3         ; |189| 
    1208 00000158 25110284  || [ B0]   LDHU    .D2T1   *+B4(16),A10      ; |93| 
    1209                    
    1210 0000015c 231022e7     [ B0]   LDW     .D2T2   *+B4(4),B6        ; |93| 
TMS320C6x Assembler PC v7.4.2 Thu Mar 19 12:40:38 2015

Tools Copyright (c) 1996-2012 Texas Instruments Incorporated
package/lib/Regression/regress_d_c/./../packages/ti/vlib/src/VLIB_coOccurrenceMatrix/VLIB_coOccurrenceMatrix_d.se66 PAGE   23

    1211 00000160 328cc204  || [!B0]   LDHU    .D1T1   *+A3(12),A5       ; |189| 
    1212                    
    1213                            .dwpsn  file "./../packages/ti/vlib/src/VLIB_coOccurrenceMatrix/VLIB_coOccurrenceMatrix_d.c",l
    1214 00000164 22100294     [ B0]   LDBU    .D2T1   *B4,A4            ; |93| 
    1215                    $C$DW$166       .dwtag  DW_TAG_TI_branch
    1216                            .dwattr $C$DW$166, DW_AT_low_pc(0x00)
    1217                            .dwattr $C$DW$166, DW_AT_name("VLIB_fillBuffer")
    1218                            .dwattr $C$DW$166, DW_AT_TI_call
    1219                    
    1220 00000168 20000011!    [ B0]   CALL    .S1     VLIB_fillBuffer   ; |93| 
    1221 0000016c 2410c284  || [ B0]   LDHU    .D2T1   *+B4(12),A8       ; |93| 
    1222                    
    1223 00000170 320ce205     [!B0]   LDHU    .D1T1   *+A3(14),A4       ; |189| 
    1224 00000174 2410e286  || [ B0]   LDHU    .D2T2   *+B4(14),B8       ; |93| 
    1225                    
    1226                            .dwpsn  file "./../packages/ti/vlib/src/VLIB_coOccurrenceMatrix/VLIB_coOccurrenceMatrix_d.c",l
    1227                               ; BRANCHCC OCCURS {$C$L27}        ; |90| 
    1228 00000178           $C$DW$L$VLIB_coOccurrenceMatrix_d$15$E:
    1229                    ;** --------------------------------------------------------------------------*
    1230 00000178           $C$DW$L$VLIB_coOccurrenceMatrix_d$16$B:
    1231                    ;          EXCLUSIVE CPU CYCLES: 4
    1232                    ;** 93  -----------------------    VLIB_fillBuffer((*C$16).testPattern, 0xffu, (void *)input, (*C$16).
    1233                    ;** 137 -----------------------    act_kernel = 0;  // [15]
    1234                    ;** 140 -----------------------    VLIB_cache_inval();  // [15]
    1235                    ;** 143 -----------------------    initStack(getSP());  // [15]
    1236                    ;** 146 -----------------------    beg_count = _itoll(TSCH, TSCL);  // [15]
    1237                    ;** 101 -----------------------    U$83 = (char (*)[4])U$12+27;
    1238                    ;** 101 -----------------------    U$85 = (char (*)[4])U$12+23;
    1239                    ;** 101 -----------------------    retVal = VLIB_coOccurrenceMatrix(input, &O$1+16, (*U$12).imageWidth
    1240                    ;** 153 -----------------------    v$2 = _itoll(TSCH, TSCL);  // [16]
    1241                    ;** 153 -----------------------    end_count = v$2;  // [16]
    1242                    ;** 156 -----------------------    C$15 = (act_kernel<<3)+&cycles;  // [16]
    1243                    ;** 156 -----------------------    *C$15 = *C$15+(v$2-(beg_count+overhead));  // [16]
    1244                    ;** 159 -----------------------    setStackDepth();  // [16]
    1245                    ;** 69  -----------------------    status_nat_vs_int = retVal != 0u;
    1246                    ;** 137 -----------------------    act_kernel = 1;  // [15]
    1247                    ;** 140 -----------------------    VLIB_cache_inval();  // [15]
    1248                    ;** 143 -----------------------    initStack(getSP());  // [15]
    1249                    ;** 146 -----------------------    beg_count = _itoll(TSCH, TSCL);  // [15]
    1250                    ;** 121 -----------------------    VLIB_coOccurrenceMatrix_cn(input, &O$1, (*U$12).imageWidth, (*U$12)
    1251                    ;** 153 -----------------------    v$2 = _itoll(TSCH, TSCL);  // [16]
    1252                    ;** 153 -----------------------    end_count = v$2;  // [16]
    1253                    ;** 156 -----------------------    K$95 = &cycles[0];  // [16]
    1254                    ;** 156 -----------------------    C$14 = act_kernel;  // [16]
    1255                    ;** 156 -----------------------    *((C$14<<3)+K$95) = *((C$14<<3)+K$95)+(v$2-(beg_count+overhead));  
    1256                    ;** 159 -----------------------    setStackDepth();  // [16]
    1257 00000178 06000028!            MVKL    .S1     testPatternString,A12
    1258 0000017c 06000068!            MVKH    .S1     testPatternString,A12
    1259                            .dwpsn  file "./../packages/ti/vlib/src/VLIB_coOccurrenceMatrix/VLIB_coOccurrenceMatrix_d.c",l
    1260 00000180 01830162             ADDKPC  .S2     $C$RL6,B3,0       ; |93| 
    1261                    
    1262 00000184     fe73             MVK     .S2     0xff,B4           ; |93| 
    1263 00000186     c046  ||         MV      .L1     A0,A6             ; |93| 
    1264 00000188 0504a35a  ||         MVK     .L2     0x1,B10           ; |93| 
    1265                    
TMS320C6x Assembler PC v7.4.2 Thu Mar 19 12:40:38 2015

Tools Copyright (c) 1996-2012 Texas Instruments Incorporated
package/lib/Regression/regress_d_c/./../packages/ti/vlib/src/VLIB_coOccurrenceMatrix/VLIB_coOccurrenceMatrix_d.se66 PAGE   24

    1266 0000018c           $C$RL6:    ; CALL OCCURS {VLIB_fillBuffer} {0}  ; |93| 
    1267 0000018c           $C$DW$L$VLIB_coOccurrenceMatrix_d$16$E:
    1268                    ;** --------------------------------------------------------------------------*
    1269 0000018c           $C$DW$L$VLIB_coOccurrenceMatrix_d$17$B:
    1270                    ;          EXCLUSIVE CPU CYCLES: 122
    1271 0000018c 07000028!            MVKL    .S1     act_kernel,A14
    1272                    
    1273 00000190 07000069!            MVKH    .S1     act_kernel,A14
    1274 00000194 0200a35a  ||         ZERO    .L2     B4                ; |137| 
    1275                    
    1276                    $C$DW$167       .dwtag  DW_TAG_TI_branch
    1277                            .dwattr $C$DW$167, DW_AT_low_pc(0x00)
    1278                            .dwattr $C$DW$167, DW_AT_name("VLIB_cache_inval")
    1279                            .dwattr $C$DW$167, DW_AT_TI_call
    1280                    
    1281 00000198 10000013!            CALLP   .S2     VLIB_cache_inval,B3
    1282 000001a0 02380276  ||         STW     .D1T2   B4,*A14           ; |137| 
    1283                    
    1284                            .dwpsn  file ".\..\packages\ti\vlib\src\VLIB_coOccurrenceMatrix\..\common\VLIB_profile.h",line
    1285                    $C$RL7:    ; CALL OCCURS {VLIB_cache_inval} {0}  ; |140| 
    1286                    $C$DW$168       .dwtag  DW_TAG_TI_branch
    1287                            .dwattr $C$DW$168, DW_AT_low_pc(0x00)
    1288                            .dwattr $C$DW$168, DW_AT_name("getSP")
    1289                            .dwattr $C$DW$168, DW_AT_TI_call
    1290 000001a4 10000012!            CALLP   .S2     getSP,B3
    1291                            .dwpsn  file ".\..\packages\ti\vlib\src\VLIB_coOccurrenceMatrix\..\common\VLIB_profile.h",line
    1292                    $C$RL8:    ; CALL OCCURS {getSP} {0}         ; |143| 
    1293                    $C$DW$169       .dwtag  DW_TAG_TI_branch
    1294                            .dwattr $C$DW$169, DW_AT_low_pc(0x00)
    1295                            .dwattr $C$DW$169, DW_AT_name("initStack")
    1296                            .dwattr $C$DW$169, DW_AT_TI_call
    1297 000001a8 10000012!            CALLP   .S2     initStack,B3
    1298 000001ac           $C$RL9:    ; CALL OCCURS {initStack} {0}     ; |143| 
    1299                            .dwpsn  file ".\..\packages\ti\vlib\src\VLIB_coOccurrenceMatrix\..\common\VLIB_profile.h",line
    1300 000001ac 032803e2             MVC     .S2     TSCL,B6           ; |146| 
    1301 000001b0 022c03e2             MVC     .S2     TSCH,B4           ; |146| 
    1302                            .dwpsn  file "./../packages/ti/vlib/src/VLIB_coOccurrenceMatrix/VLIB_coOccurrenceMatrix_d.c",l
    1303 000001b4 01aee940             ADD     .D1     A11,23,A3         ; |101| 
    1304 000001b8 07af6940             ADD     .D1     A11,27,A15        ; |101| 
    1305 000001bc 052e6214             LDBU    .D1T1   *+A11(19),A10     ; |101| 
    1306                    
    1307 000001c4 02bec2e6             LDW     .D2T2   *+SP(88),B5       ; |101| 
    1308 000001c0 042d0205  ||         LDHU    .D1T1   *+A11(16),A8      ; |101| 
    1309                    
    1310 000001c8 032cc204             LDHU    .D1T1   *+A11(12),A6      ; |101| 
    1311                    
    1312 000001cc 02000029!            MVKL    .S1     beg_count,A4
    1313 000001d0 042e4217  ||         LDBU    .D1T2   *+A11(18),B8      ; |101| 
    1314 000001d4     ce35  ||         STW     .D2T1   A3,*+SP(72)       ; |101| 
    1315                    
    1316 000001d8 02000069!            MVKH    .S1     beg_count,A4
    1317 000001d6     e247  ||         MV      .L2     B4,B7             ; |146| 
    1318 000001e0 052d4207  ||         LDHU    .D1T2   *+A11(20),B10     ; |101| 
    1319 000001e4 07bc22f4  ||         STW     .D2T1   A15,*+SP(4)       ; |101| 
    1320                    
TMS320C6x Assembler PC v7.4.2 Thu Mar 19 12:40:38 2015

Tools Copyright (c) 1996-2012 Texas Instruments Incorporated
package/lib/Regression/regress_d_c/./../packages/ti/vlib/src/VLIB_coOccurrenceMatrix/VLIB_coOccurrenceMatrix_d.se66 PAGE   25

    1321 000001e8 03100347             STDW    .D1T2   B7:B6,*A4         ; |146| 
    1322 000001ec     ce37  ||         ADDAW   .D2     SP,14,B4          ; |101| 
    1323                    
    1324 000001f0 062ec214             LDBU    .D1T1   *+A11(22),A12     ; |101| 
    1325 000001ee     dc55  ||         STW     .D2T2   B5,*+SP(8)        ; |101| 
    1326                    
    1327                    $C$DW$170       .dwtag  DW_TAG_TI_branch
    1328                            .dwattr $C$DW$170, DW_AT_low_pc(0x00)
    1329                            .dwattr $C$DW$170, DW_AT_name("VLIB_coOccurrenceMatrix")
    1330                            .dwattr $C$DW$170, DW_AT_TI_call
    1331                    
    1332 000001f8 10000013!            CALLP   .S2     VLIB_coOccurrenceMatrix,B3
    1333 00000200 032ce206  ||         LDHU    .D1T2   *+A11(14),B6      ; |101| 
    1334 000001f4     eecd  ||         LDW     .D2T1   *+SP(92),A4       ; |101| 
    1335 000001f6     95c7  ||         MV      .L2X    A3,B12            ; |101| 
    1336                    
    1337 00000204           $C$RL10:   ; CALL OCCURS {VLIB_coOccurrenceMatrix} {0}  ; |101| 
    1338                    
    1339 00000204 06100fd9             MV      .L1     A4,A12            ; |101| 
    1340 00000208 082803e2  ||         MVC     .S2     TSCL,B16          ; |153| 
    1341                    
    1342                            .dwpsn  file ".\..\packages\ti\vlib\src\VLIB_coOccurrenceMatrix\..\common\VLIB_profile.h",line
    1343 0000020c 02ac03e2             MVC     .S2     TSCH,B5           ; |153| 
    1344                    
    1345 00000210 0680002b!            MVKL    .S2     overhead,B13
    1346 00000214 05000028! ||         MVKL    .S1     beg_count,A10
    1347                    
    1348 00000218 0680006b!            MVKH    .S2     overhead,B13
    1349 0000021c 05000068! ||         MVKH    .S1     beg_count,A10
    1350                    
    1351 00000220 03280365             LDDW    .D1T1   *A10,A7:A6        ; |156| 
    1352 00000224 033403e6  ||         LDDW    .D2T2   *B13,B7:B6        ; |156| 
    1353                    
    1354                            .dwpsn  file ".\..\packages\ti\vlib\src\VLIB_coOccurrenceMatrix\..\common\VLIB_profile.h",line
    1355 00000228 04380266             LDW     .D1T2   *A14,B8           ; |156| 
    1356 0000022c 0200002a!            MVKL    .S2     cycles,B4
    1357 00000230 0200006a!            MVKH    .S2     cycles,B4
    1358                            .dwpsn  file ".\..\packages\ti\vlib\src\VLIB_coOccurrenceMatrix\..\common\VLIB_profile.h",line
    1359 00000234 08940fda             MV      .L2     B5,B17            ; |153| 
    1360                            .dwpsn  file ".\..\packages\ti\vlib\src\VLIB_coOccurrenceMatrix\..\common\VLIB_profile.h",line
    1361 00000238 0218d578             ADDU    .L1X    B6,A6,A5:A4       ; |156| 
    1362                    
    1363 0000023c 02111e43             ADDAD   .D2     B4,B8,B4          ; |156| 
    1364 00000240     b3b0  ||         ADD     .L1X    A5,B7,A3          ; |156| 
    1365                    
    1366 00000244 041003e6             LDDW    .D2T2   *B4,B9:B8         ; |156| 
    1367 00000242     63b0  ||         ADD     .L1     A3,A7,A3          ; |156| 
    1368                    
    1369 00000248 021217f8             SUBU    .L1X    B16,A4,A5:A4      ; |156| 
    1370 0000024c 028cb0fa             SUB     .L2X    B5,A3,B5          ; |156| 
    1371 00000250 0f971848             EXT     .S1     A5,24,24,A31      ; |156| 
    1372 00000254 0197f078             ADD     .L1X    B5,A31,A3         ; |156| 
    1373 00000258 02209578             ADDU    .L1X    B8,A4,A5:A4       ; |156| 
    1374 00000260 02a4b078             ADD     .L1X    A5,B9,A5          ; |156| 
    1375                    
TMS320C6x Assembler PC v7.4.2 Thu Mar 19 12:40:38 2015

Tools Copyright (c) 1996-2012 Texas Instruments Incorporated
package/lib/Regression/regress_d_c/./../packages/ti/vlib/src/VLIB_coOccurrenceMatrix/VLIB_coOccurrenceMatrix_d.se66 PAGE   26

    1376 00000268 028ca078             ADD     .L1     A5,A3,A5          ; |156| 
    1377 00000264 01800029! ||         MVKL    .S1     end_count,A3
    1378                    
    1379 0000026c 01800068!            MVKH    .S1     end_count,A3
    1380                    $C$DW$171       .dwtag  DW_TAG_TI_branch
    1381                            .dwattr $C$DW$171, DW_AT_low_pc(0x00)
    1382                            .dwattr $C$DW$171, DW_AT_name("setStackDepth")
    1383                            .dwattr $C$DW$171, DW_AT_TI_call
    1384                    
    1385 00000270 10000013!            CALLP   .S2     setStackDepth,B3
    1386 00000274 080c0347  ||         STDW    .D1T2   B17:B16,*A3       ; |153| 
    1387 00000278     0045  ||         STDW    .D2T1   A5:A4,*B4         ; |156| 
    1388                    
    1389                            .dwpsn  file ".\..\packages\ti\vlib\src\VLIB_coOccurrenceMatrix\..\common\VLIB_profile.h",line
    1390 00000280           $C$RL11:   ; CALL OCCURS {setStackDepth} {0}  ; |159| 
    1391                    
    1392 00000280     6706             MV      .L1     A14,A3            ; |137| 
    1393 00000282     2627  ||         MVK     .L2     1,B4              ; |137| 
    1394                    
    1395                    $C$DW$172       .dwtag  DW_TAG_TI_branch
    1396                            .dwattr $C$DW$172, DW_AT_low_pc(0x00)
    1397                            .dwattr $C$DW$172, DW_AT_name("VLIB_cache_inval")
    1398                            .dwattr $C$DW$172, DW_AT_TI_call
    1399                    
    1400 00000284 10000013!            CALLP   .S2     VLIB_cache_inval,B3
    1401 00000288 020c0276  ||         STW     .D1T2   B4,*A3            ; |137| 
    1402                    
    1403                            .dwpsn  file ".\..\packages\ti\vlib\src\VLIB_coOccurrenceMatrix\..\common\VLIB_profile.h",line
    1404                    $C$RL12:   ; CALL OCCURS {VLIB_cache_inval} {0}  ; |140| 
    1405                    $C$DW$173       .dwtag  DW_TAG_TI_branch
    1406                            .dwattr $C$DW$173, DW_AT_low_pc(0x00)
    1407                            .dwattr $C$DW$173, DW_AT_name("getSP")
    1408                            .dwattr $C$DW$173, DW_AT_TI_call
    1409 0000028c 10000012!            CALLP   .S2     getSP,B3
    1410                            .dwpsn  file ".\..\packages\ti\vlib\src\VLIB_coOccurrenceMatrix\..\common\VLIB_profile.h",line
    1411                    $C$RL13:   ; CALL OCCURS {getSP} {0}         ; |143| 
    1412                    $C$DW$174       .dwtag  DW_TAG_TI_branch
    1413                            .dwattr $C$DW$174, DW_AT_low_pc(0x00)
    1414                            .dwattr $C$DW$174, DW_AT_name("initStack")
    1415                            .dwattr $C$DW$174, DW_AT_TI_call
    1416 00000290 10000012!            CALLP   .S2     initStack,B3
    1417 00000294           $C$RL14:   ; CALL OCCURS {initStack} {0}     ; |143| 
    1418                            .dwpsn  file "./../packages/ti/vlib/src/VLIB_coOccurrenceMatrix/VLIB_coOccurrenceMatrix_d.c",l
    1419 00000294 01b00a58             CMPEQ   .L1     A12,0,A3          ; |69| 
    1420                    
    1421 00000298 070c2dd9             XOR     .L1     1,A3,A14          ; |69| 
    1422 000002a0 042803e2  ||         MVC     .S2     TSCL,B8           ; |146| 
    1423                    
    1424                            .dwpsn  file ".\..\packages\ti\vlib\src\VLIB_coOccurrenceMatrix\..\common\VLIB_profile.h",line
    1425 000002a4 022c03e2             MVC     .S2     TSCH,B4           ; |146| 
    1426                            .dwpsn  file "./../packages/ti/vlib/src/VLIB_coOccurrenceMatrix/VLIB_coOccurrenceMatrix_d.c",l
    1427 000002a8 032ce206             LDHU    .D1T2   *+A11(14),B6      ; |121| 
    1428                    
    1429 000002ac     2647             MV      .L2     B4,B9             ; |146| 
    1430 000002ae     decd  ||         LDW     .D2T2   *+SP(88),B4       ; |121| 
TMS320C6x Assembler PC v7.4.2 Thu Mar 19 12:40:38 2015

Tools Copyright (c) 1996-2012 Texas Instruments Incorporated
package/lib/Regression/regress_d_c/./../packages/ti/vlib/src/VLIB_coOccurrenceMatrix/VLIB_coOccurrenceMatrix_d.se66 PAGE   27

    1431 000002b0 032cc204  ||         LDHU    .D1T1   *+A11(12),A6      ; |121| 
    1432                    
    1433 000002b4 062ec214             LDBU    .D1T1   *+A11(22),A12     ; |121| 
    1434                    
    1435 000002b8 01800029!            MVKL    .S1     beg_count,A3
    1436 000002c0 052e6214  ||         LDBU    .D1T1   *+A11(19),A10     ; |121| 
    1437                    
    1438 000002c4 01800069!            MVKH    .S1     beg_count,A3
    1439 000002c8 052d4207  ||         LDHU    .D1T2   *+A11(20),B10     ; |121| 
    1440 000002cc 07bc22f4  ||         STW     .D2T1   A15,*+SP(4)       ; |121| 
    1441                    
    1442 000002d0 040c0347             STDW    .D1T2   B9:B8,*A3         ; |146| 
    1443 000002d4     eecd  ||         LDW     .D2T1   *+SP(92),A4       ; |146| 
    1444                    
    1445 000002d8 042d0204             LDHU    .D1T1   *+A11(16),A8      ; |121| 
    1446 000002d6     dc45  ||         STW     .D2T2   B4,*+SP(8)        ; |121| 
    1447                    
    1448                    $C$DW$175       .dwtag  DW_TAG_TI_branch
    1449                            .dwattr $C$DW$175, DW_AT_low_pc(0x00)
    1450                            .dwattr $C$DW$175, DW_AT_name("VLIB_coOccurrenceMatrix_cn")
    1451                            .dwattr $C$DW$175, DW_AT_TI_call
    1452                    
    1453 000002e0 10000013!            CALLP   .S2     VLIB_coOccurrenceMatrix_cn,B3
    1454 000002e4 042e4217  ||         LDBU    .D1T2   *+A11(18),B8      ; |121| 
    1455 000002e8 12000afe  ||         ADDAW   .D2     SP,10,B4          ; |121| 
    1456                    
    1457 000002ec           $C$RL15:   ; CALL OCCURS {VLIB_coOccurrenceMatrix_cn} {0}  ; |121| 
    1458                            .dwpsn  file ".\..\packages\ti\vlib\src\VLIB_coOccurrenceMatrix\..\common\VLIB_profile.h",line
    1459 000002ec 042803e2             MVC     .S2     TSCL,B8           ; |153| 
    1460 000002f0 022c03e2             MVC     .S2     TSCH,B4           ; |153| 
    1461 000002f4 01800028!            MVKL    .S1     act_kernel,A3
    1462 000002f8 01800068!            MVKH    .S1     act_kernel,A3
    1463                    
    1464 000002fc 020c0fd9             MV      .L1     A3,A4
    1465 00000300 0f800028! ||         MVKL    .S1     beg_count,A31
    1466                    
    1467 00000304 02900265             LDW     .D1T1   *A4,A5            ; |156| 
    1468 00000308 0f800068! ||         MVKH    .S1     beg_count,A31
    1469                    
    1470 0000030c 047c0365             LDDW    .D1T1   *A31,A9:A8        ; |156| 
    1471 00000310 033403e6  ||         LDDW    .D2T2   *B13,B7:B6        ; |156| 
    1472                    
    1473 00000314 01800028!            MVKL    .S1     cycles,A3
    1474 00000318 01800068!            MVKH    .S1     cycles,A3
    1475 0000031c 02000028!            MVKL    .S1     end_count,A4
    1476                            .dwpsn  file ".\..\packages\ti\vlib\src\VLIB_coOccurrenceMatrix\..\common\VLIB_profile.h",line
    1477 00000320 030cab64             LDDW    .D1T1   *+A3[A5],A7:A6    ; |156| 
    1478                    
    1479 00000324 0820d57b             ADDU    .L2X    B6,A8,B17:B16     ; |156| 
    1480 00000328 02000068! ||         MVKH    .S1     end_count,A4
    1481                    
    1482 0000032c     a807             MV      .L2     B16,B5            ; |156| 
    1483 0000032e     264f  ||         MV      .S2     B4,B9             ; |153| 
    1484                    
    1485 00000330 029e21e3             ADD     .S2     B17,B7,B5         ; |156| 
TMS320C6x Assembler PC v7.4.2 Thu Mar 19 12:40:38 2015

Tools Copyright (c) 1996-2012 Texas Instruments Incorporated
package/lib/Regression/regress_d_c/./../packages/ti/vlib/src/VLIB_coOccurrenceMatrix/VLIB_coOccurrenceMatrix_d.se66 PAGE   28

    1486 00000334 031505fb  ||         SUBU    .L2     B8,B5,B7:B6       ; |156| 
    1487 00000338 021018f2  ||         MV      .D2X    A4,B4
    1488                    
    1489 00000340 02a4b07a             ADD     .L2X    B5,A9,B5          ; |156| 
    1490                    
    1491 00000344 02a4a8c3             SUB     .D2     B9,B5,B5          ; |156| 
    1492 00000348 081f184b  ||         EXT     .S2     B7,24,24,B16      ; |156| 
    1493 0000034c 0318d57a  ||         ADDU    .L2X    A6,B6,B7:B6       ; |156| 
    1494                    
    1495 00000354     f3d1             ADD     .L2X    B7,A7,B5          ; |156| 
    1496 00000350 03c0a1e3  ||         ADD     .S2     B5,B16,B7         ; |156| 
    1497                    
    1498 00000356     a3f1             ADD     .L2     B5,B7,B7          ; |156| 
    1499 00000358 041003c6  ||         STDW    .D2T2   B9:B8,*B4         ; |153| 
    1500                    
    1501                    $C$DW$176       .dwtag  DW_TAG_TI_branch
    1502                            .dwattr $C$DW$176, DW_AT_low_pc(0x00)
    1503                            .dwattr $C$DW$176, DW_AT_name("setStackDepth")
    1504                            .dwattr $C$DW$176, DW_AT_TI_call
    1505                    
    1506 00000360 10000013!            CALLP   .S2     setStackDepth,B3
    1507 00000364 030cab46  ||         STDW    .D1T2   B7:B6,*+A3[A5]    ; |156| 
    1508                    
    1509                            .dwpsn  file ".\..\packages\ti\vlib\src\VLIB_coOccurrenceMatrix\..\common\VLIB_profile.h",line
    1510 00000368           $C$RL16:   ; CALL OCCURS {setStackDepth} {0}  ; |159| 
    1511 00000368           $C$DW$L$VLIB_coOccurrenceMatrix_d$17$E:
    1512                    ;** --------------------------------------------------------------------------*
    1513 00000368           $C$DW$L$VLIB_coOccurrenceMatrix_d$18$B:
    1514                    ;          EXCLUSIVE CPU CYCLES: 11
    1515                    ;** 136 -----------------------    v$1 = prm;
    1516                    ;** 136 -----------------------    if ( !(*U$12).numOffsets ) goto g23;
    1517                            .dwpsn  file "./../packages/ti/vlib/src/VLIB_coOccurrenceMatrix/VLIB_coOccurrenceMatrix_d.c",l
    1518 00000368 002ec214             LDBU    .D1T1   *+A11(22),A0      ; |136| 
    1519 0000036c 01be62e4             LDW     .D2T1   *+SP(76),A3
    1520 00000370 063d22e6             LDW     .D2T2   *+SP(36),B12      ; |136| 
    1521 00000374 00002000             NOP             2
    1522 00000378 d0002490     [!A0]   B       .S1     $C$L13            ; |136| 
    1523                            .dwpsn  file "./../packages/ti/vlib/src/VLIB_coOccurrenceMatrix/VLIB_coOccurrenceMatrix_d.c",l
    1524 0000037c 018caca0             SHL     .S1     A3,5,A3           ; |137| 
    1525                            .dwpsn  file "./../packages/ti/vlib/src/VLIB_coOccurrenceMatrix/VLIB_coOccurrenceMatrix_d.c",l
    1526 00000380 c500a35a     [ A0]   ZERO    .L2     B10               ; |136| 
    1527                            .dwpsn  file "./../packages/ti/vlib/src/VLIB_coOccurrenceMatrix/VLIB_coOccurrenceMatrix_d.c",l
    1528 00000384 020d907a             ADD     .L2X    B12,A3,B4         ; |137| 
    1529 00000388 c612c294     [ A0]   LDBU    .D2T1   *+B4(22),A12      ; |137| 
    1530 0000038c     ae8d             LDW     .D2T1   *+SP(84),A0
    1531                            .dwpsn  file "./../packages/ti/vlib/src/VLIB_coOccurrenceMatrix/VLIB_coOccurrenceMatrix_d.c",l
    1532                               ; BRANCHCC OCCURS {$C$L13}        ; |136| 
    1533 0000038e           $C$DW$L$VLIB_coOccurrenceMatrix_d$18$E:
    1534                    ;** --------------------------------------------------------------------------*
    1535 0000038e           $C$DW$L$VLIB_coOccurrenceMatrix_d$19$B:
    1536                    ;          EXCLUSIVE CPU CYCLES: 4
    1537                    ;** 137 -----------------------    L$1 = (unsigned)(*((tpi<<5)+v$1)).numOffsets;
    1538                    ;** 136 -----------------------    k = 0u;
    1539                    ;**     -----------------------    #pragma MUST_ITERATE(1, 255, 1)
    1540                    ;**     -----------------------    #pragma LOOP_FLAGS(5120u)
TMS320C6x Assembler PC v7.4.2 Thu Mar 19 12:40:38 2015

Tools Copyright (c) 1996-2012 Texas Instruments Incorporated
package/lib/Regression/regress_d_c/./../packages/ti/vlib/src/VLIB_coOccurrenceMatrix/VLIB_coOccurrenceMatrix_d.se66 PAGE   29

    1541 0000038e     6c6e             NOP             4
    1542 00000390           $C$DW$L$VLIB_coOccurrenceMatrix_d$19$E:
    1543                    ;** --------------------------------------------------------------------------*
    1544                    ;**   BEGIN LOOP $C$L5
    1545                    ;** --------------------------------------------------------------------------*
    1546 00000390           $C$L5:    
    1547                            .dwpsn  file "./../packages/ti/vlib/src/VLIB_coOccurrenceMatrix/VLIB_coOccurrenceMatrix_d.c",l
    1548 00000390           $C$DW$L$VLIB_coOccurrenceMatrix_d$20$B:
    1549                    ;          EXCLUSIVE CPU CYCLES: 6
    1550                    ;**     -----------------------g14:
    1551                    ;** 137 -----------------------    if ( !outHeight ) goto g22;
    1552                    
    1553 00000390     de3a     [!A0]   BNOP    .S1     $C$L12,5          ; |137| 
    1554 00000392     8e8d  ||         LDW     .D2T1   *+SP(80),A0
    1555                    
    1556                            .dwpsn  file "./../packages/ti/vlib/src/VLIB_coOccurrenceMatrix/VLIB_coOccurrenceMatrix_d.c",l
    1557                               ; BRANCHCC OCCURS {$C$L12}        ; |137| 
    1558 00000394           $C$DW$L$VLIB_coOccurrenceMatrix_d$20$E:
    1559                    ;** --------------------------------------------------------------------------*
    1560 00000394           $C$DW$L$VLIB_coOccurrenceMatrix_d$21$B:
    1561                    ;          EXCLUSIVE CPU CYCLES: 1
    1562                    ;** 137 -----------------------    i = 0u;
    1563                    ;**     -----------------------    #pragma MUST_ITERATE(1, 65535, 1)
    1564                    ;**     -----------------------    #pragma LOOP_FLAGS(1024u)
    1565                    
    1566 00000394 0500a359             ZERO    .L1     A10               ; |137| 
    1567 00000398 c23d5c42  || [ A0]   ADDAW   .D2     SP,B10,B4
    1568                    
    1569 000003a0           $C$DW$L$VLIB_coOccurrenceMatrix_d$21$E:
    1570                    ;** --------------------------------------------------------------------------*
    1571                    ;**   BEGIN LOOP $C$L6
    1572                    ;** --------------------------------------------------------------------------*
    1573 000003a0           $C$L6:    
    1574                            .dwpsn  file "./../packages/ti/vlib/src/VLIB_coOccurrenceMatrix/VLIB_coOccurrenceMatrix_d.c",l
    1575 000003a0           $C$DW$L$VLIB_coOccurrenceMatrix_d$22$B:
    1576                    ;          EXCLUSIVE CPU CYCLES: 6
    1577                    ;**     -----------------------g16:
    1578                    ;** 138 -----------------------    if ( !outWidth ) goto g21;
    1579                    
    1580 000003a0 d0001611     [!A0]   B       .S1     $C$L10            ; |138| 
    1581 000003a4 c2bd5c43  || [ A0]   ADDAW   .D2     SP,B10,B5
    1582 000003a8 c2000fd8  || [ A0]   MV      .L1     A0,A4
    1583                    
    1584 000003ac c3914800     [ A0]   MPY32   .M1     A10,A4,A7
    1585 000003b0 c2000fd8     [ A0]   MV      .L1     A0,A4
    1586 000003b4 c19542e4     [ A0]   LDW     .D2T1   *+B5(40),A3
    1587 000003b8 c291c2e4     [ A0]   LDW     .D2T1   *+B4(56),A5
    1588 000003bc c004a358     [ A0]   MVK     .L1     0x1,A0
    1589                            .dwpsn  file "./../packages/ti/vlib/src/VLIB_coOccurrenceMatrix/VLIB_coOccurrenceMatrix_d.c",l
    1590                               ; BRANCHCC OCCURS {$C$L10}        ; |138| 
    1591 000003c0           $C$DW$L$VLIB_coOccurrenceMatrix_d$22$E:
    1592                    ;** --------------------------------------------------------------------------*
    1593                            .dwpsn  file "./../packages/ti/vlib/src/VLIB_coOccurrenceMatrix/VLIB_coOccurrenceMatrix_d.c",l
    1594 000003c0           $C$DW$L$VLIB_coOccurrenceMatrix_d$23$B:
    1595                    ;**     -----------------------    C$13 = outWidth*i;
TMS320C6x Assembler PC v7.4.2 Thu Mar 19 12:40:38 2015

Tools Copyright (c) 1996-2012 Texas Instruments Incorporated
package/lib/Regression/regress_d_c/./../packages/ti/vlib/src/VLIB_coOccurrenceMatrix/VLIB_coOccurrenceMatrix_d.se66 PAGE   30

    1596                    ;**     -----------------------    U$117 = C$13*2+*(k*4+&O$1);
    1597                    ;**     -----------------------    U$119 = C$13*2+*(k*4+&O$1+16);
    1598                    ;** 139 -----------------------    L$2 = (unsigned)outWidth;
    1599                    ;** 138 -----------------------    --U$119;
    1600                    ;** 138 -----------------------    --U$117;
    1601                    ;** 138 -----------------------    j = 0xffffffffu;
    1602                    ;**     -----------------------    #pragma MUST_ITERATE(1, 65535, 1)
    1603                    ;**     -----------------------    #pragma LOOP_FLAGS(4352u)
    1604                    ;**     -----------------------g18:
    1605                    ;** 139 -----------------------    U$120 = *(++U$119);
    1606                    ;** 139 -----------------------    U$118 = *(++U$117);
    1607                    ;** 139 -----------------------    f$3 = (U$118 != U$120)-1;
    1608                    ;** 138 -----------------------    ++j;
    1609                    ;** 138 -----------------------    L$2 = L$2-1;
    1610                    ;** 138 -----------------------    if ( L$2&f$3 ) goto g18;
    1611                    ;**     -----------------------    if ( f$3 ) goto g21;
    1612 000003c0           $C$DW$L$VLIB_coOccurrenceMatrix_d$23$E:
    1613                    ;*----------------------------------------------------------------------------*
    1614                    ;*   SOFTWARE PIPELINE INFORMATION
    1615                    ;*
    1616                    ;*      Loop found in file               : ./../packages/ti/vlib/src/VLIB_coOccurrenceMatrix/VLIB_coOc
    1617                    ;*      Loop source line                 : 138
    1618                    ;*      Loop opening brace source line   : 138
    1619                    ;*      Loop closing brace source line   : 145
    1620                    ;*      Known Minimum Trip Count         : 1                    
    1621                    ;*      Known Maximum Trip Count         : 65535                    
    1622                    ;*      Known Max Trip Count Factor      : 1
    1623                    ;*      Loop Carried Dependency Bound(^) : 1
    1624                    ;*      Unpartitioned Resource Bound     : 2
    1625                    ;*      Partitioned Resource Bound(*)    : 2
    1626                    ;*      Resource Partition:
    1627                    ;*                                A-side   B-side
    1628                    ;*      .L units                     1        0     
    1629                    ;*      .S units                     1        0     
    1630                    ;*      .D units                     1        1     
    1631                    ;*      .M units                     0        0     
    1632                    ;*      .X cross paths               1        0     
    1633                    ;*      .T address paths             1        1     
    1634                    ;*      Long read paths              0        0     
    1635                    ;*      Long write paths             0        0     
    1636                    ;*      Logical  ops (.LS)           0        0     (.L or .S unit)
    1637                    ;*      Addition ops (.LSD)          3        1     (.L or .S or .D unit)
    1638                    ;*      Bound(.L .S .LS)             1        0     
    1639                    ;*      Bound(.L .S .D .LS .LSD)     2*       1     
    1640                    ;*
    1641                    ;*      Searching for software pipeline schedule at ...
    1642                    ;*         ii = 4  Unsafe schedule for irregular loop
    1643                    ;*         ii = 4  Unsafe schedule for irregular loop
    1644                    ;*         ii = 4  Unsafe schedule for irregular loop
    1645                    ;*         ii = 4  Unsafe schedule for irregular loop
    1646                    ;*         ii = 4  Unsafe schedule for irregular loop
    1647                    ;*         ii = 4  Did not find schedule
    1648                    ;*         ii = 5  Unsafe schedule for irregular loop
    1649                    ;*         ii = 5  Unsafe schedule for irregular loop
    1650                    ;*         ii = 5  Unsafe schedule for irregular loop
TMS320C6x Assembler PC v7.4.2 Thu Mar 19 12:40:38 2015

Tools Copyright (c) 1996-2012 Texas Instruments Incorporated
package/lib/Regression/regress_d_c/./../packages/ti/vlib/src/VLIB_coOccurrenceMatrix/VLIB_coOccurrenceMatrix_d.se66 PAGE   31

    1651                    ;*         ii = 5  Unsafe schedule for irregular loop
    1652                    ;*         ii = 5  Unsafe schedule for irregular loop
    1653                    ;*         ii = 5  Did not find schedule
    1654                    ;*         ii = 6  Unsafe schedule for irregular loop
    1655                    ;*         ii = 6  Unsafe schedule for irregular loop
    1656                    ;*         ii = 6  Unsafe schedule for irregular loop
    1657                    ;*         ii = 6  Unsafe schedule for irregular loop
    1658                    ;*         ii = 6  Unsafe schedule for irregular loop
    1659                    ;*         ii = 6  Did not find schedule
    1660                    ;*         ii = 7  Unsafe schedule for irregular loop
    1661                    ;*         ii = 7  Unsafe schedule for irregular loop
    1662                    ;*         ii = 7  Unsafe schedule for irregular loop
    1663                    ;*         ii = 7  Unsafe schedule for irregular loop
    1664                    ;*         ii = 7  Unsafe schedule for irregular loop
    1665                    ;*         ii = 7  Did not find schedule
    1666                    ;*         ii = 8  Unsafe schedule for irregular loop
    1667                    ;*         ii = 8  Unsafe schedule for irregular loop
    1668                    ;*         ii = 8  Unsafe schedule for irregular loop
    1669                    ;*         ii = 8  Unsafe schedule for irregular loop
    1670                    ;*         ii = 8  Unsafe schedule for irregular loop
    1671                    ;*         ii = 8  Did not find schedule
    1672                    ;*         ii = 9  Schedule found with 2 iterations in parallel
    1673                    ;*
    1674                    ;*      Register Usage Table:
    1675                    ;*          +-----------------------------------------------------------------+
    1676                    ;*          |AAAAAAAAAAAAAAAAAAAAAAAAAAAAAAAA|BBBBBBBBBBBBBBBBBBBBBBBBBBBBBBBB|
    1677                    ;*          |00000000001111111111222222222233|00000000001111111111222222222233|
    1678                    ;*          |01234567890123456789012345678901|01234567890123456789012345678901|
    1679                    ;*          |--------------------------------+--------------------------------|
    1680                    ;*       0: |    ***                         |    ***                         |
    1681                    ;*       1: |    ***                         |    ***                         |
    1682                    ;*       2: |   ****                         |    ***                         |
    1683                    ;*       3: |    ****                        |    ***                         |
    1684                    ;*       4: |   ****                         |    ***                         |
    1685                    ;*       5: |*   ***                         |    ***                         |
    1686                    ;*       6: |    ***                         |    ***                         |
    1687                    ;*       7: |    ***                         |    ***                         |
    1688                    ;*       8: |    ***                         |    ***                         |
    1689                    ;*          +-----------------------------------------------------------------+
    1690                    ;*
    1691                    ;*      Done
    1692                    ;*
    1693                    ;*      Loop will be splooped
    1694                    ;*      Collapsed epilog stages       : 1
    1695                    ;*      Collapsed prolog stages       : 0
    1696                    ;*      Minimum required memory pad   : 0 bytes
    1697                    ;*
    1698                    ;*      For further improvement on this loop, try option -mh28
    1699                    ;*
    1700                    ;*      Minimum safe trip count       : 1
    1701                    ;*      Min. prof. trip count  (est.) : 3
    1702                    ;*
    1703                    ;*      Mem bank conflicts/iter(est.) : { min 0.000, est 0.125, max 1.000 }
    1704                    ;*      Mem bank perf. penalty (est.) : 1.4%
    1705                    ;*
TMS320C6x Assembler PC v7.4.2 Thu Mar 19 12:40:38 2015

Tools Copyright (c) 1996-2012 Texas Instruments Incorporated
package/lib/Regression/regress_d_c/./../packages/ti/vlib/src/VLIB_coOccurrenceMatrix/VLIB_coOccurrenceMatrix_d.se66 PAGE   32

    1706                    ;*      Effective ii                : { min 9.00, est 9.13, max 10.00 }
    1707                    ;*
    1708                    ;*
    1709                    ;*      Total cycles (est.)         : 9 + trip_cnt * 9        
    1710                    ;*----------------------------------------------------------------------------*
    1711                    ;*       SETUP CODE
    1712                    ;*
    1713                    ;*                  MVK             0x1,A0
    1714                    ;*
    1715                    ;*        SINGLE SCHEDULED ITERATION
    1716                    ;*
    1717                    ;*        $C$C117:
    1718                    ;*   5      [ A0]   LDHU    .D1T1   *++A6,A5          ; |139|  ^ 
    1719                    ;*     ||   [ A0]   LDHU    .D2T2   *++B6,B5          ; |139|  ^ 
    1720                    ;*   6              NOP             4
    1721                    ;*  10              CMPEQ   .L1X    B5,A5,A3          ; |139|  ^ 
    1722                    ;*  11              EXT     .S1     A3,31,31,A7       ; |139|  ^ 
    1723                    ;*     ||           SUB     .L1     A4,1,A4           ; |138|  ^ 
    1724                    ;*  12              AND     .L1     A7,A4,A3          ; |138|  ^ 
    1725                    ;*  13              MV      .L1     A3,A0             ; |138|  ^ 
    1726                    ;*  14      [ A0]   SPWBR           $C$C117
    1727                    ;*  15              NOP             2
    1728                    ;*  17              ADD     .L2     1,B4,B4           ; |138| 
    1729                    ;*  18              ; BRANCHCC OCCURS {$C$C117}       ; |138| 
    1730                    ;*----------------------------------------------------------------------------*
    1731 000003c0           $C$L7:    ; PIPED LOOP PROLOG
    1732                    ;          EXCLUSIVE CPU CYCLES: 10
    1733 000003c0 c403e000     [ A0]   SPLOOPW 9       ;18               ; (P) 
    1734                    ;** --------------------------------------------------------------------------*
    1735 000003c4           $C$L8:    ; PIPED LOOP KERNEL
    1736 000003c4           $C$DW$L$VLIB_coOccurrenceMatrix_d$25$B:
    1737                    ;          EXCLUSIVE CPU CYCLES: 9
    1738 000003c4     2c6e             NOP             2
    1739                    
    1740 000003c6     6c66             SPMASK          D1
    1741 000003c8 030cfa40  ||         ADDAH   .D1     A3,A7,A6
    1742                    
    1743 000003cc 00430001             SPMASK          D1
    1744 000003d0 0194fa40  ||         ADDAH   .D1     A5,A7,A3
    1745                    
    1746 000003d4     2ce7             SPMASK          L1,L2
    1747 000003d6     cde0  ||         SUB     .L1     A3,2,A6           ; |138| 
    1748 000003d8 031bd05a  ||         SUB     .L2X    A6,2,B6           ; |138| 
    1749                    
    1750 000003e0 c2983205     [ A0]   LDHU    .D1T1   *++A6,A5          ; |139| (P) <0,5>  ^ 
    1751 000003e4 c2983286  || [ A0]   LDHU    .D2T2   *++B6,B5          ; |139| (P) <0,5>  ^ 
    1752                    
    1753 000003e8     2c6e             NOP             2
    1754                    
    1755 000003ea     2ce6             SPMASK          L2
    1756 000003ec     fe27  ||         MVK     .L2     0xffffffff,B4     ; |138| 
    1757                    
    1758 000003ee     0c6e             NOP             1
    1759                            .dwpsn  file "./../packages/ti/vlib/src/VLIB_coOccurrenceMatrix/VLIB_coOccurrenceMatrix_d.c",l
    1760 000003f0 0194ba78             CMPEQ   .L1X    B5,A5,A3          ; |139| <0,10>  ^ 
TMS320C6x Assembler PC v7.4.2 Thu Mar 19 12:40:38 2015

Tools Copyright (c) 1996-2012 Texas Instruments Incorporated
package/lib/Regression/regress_d_c/./../packages/ti/vlib/src/VLIB_coOccurrenceMatrix/VLIB_coOccurrenceMatrix_d.se66 PAGE   33

    1761                    
    1762 000003f8 0213e058             SUB     .L1     A4,1,A4           ; |138| <0,11>  ^ 
    1763 000003f4 038fff49  ||         EXT     .S1     A3,31,31,A7       ; |139| <0,11>  ^ 
    1764                    
    1765                            .dwpsn  file "./../packages/ti/vlib/src/VLIB_coOccurrenceMatrix/VLIB_coOccurrenceMatrix_d.c",l
    1766 00000400 0190ef78             AND     .L1     A7,A4,A3          ; |138| <0,12>  ^ 
    1767 00000404     01c6             MV      .L1     A3,A0             ; |138| <0,13>  ^ 
    1768 00000406     2c6e             NOP             2
    1769 00000408 00000000             NOP             1
    1770                    
    1771 0000040c 00034001             SPKERNEL 0,0
    1772 00000410     2641  ||         ADD     .L2     1,B4,B4           ; |138| <0,17> 
    1773                    
    1774 00000412           $C$DW$L$VLIB_coOccurrenceMatrix_d$25$E:
    1775                    ;** --------------------------------------------------------------------------*
    1776 00000412           $C$L9:    ; PIPED LOOP EPILOG
    1777                    ;** --------------------------------------------------------------------------*
    1778 00000412           $C$DW$L$VLIB_coOccurrenceMatrix_d$27$B:
    1779                    ;          EXCLUSIVE CPU CYCLES: 7
    1780 00000412     03c6             MV      .L1     A7,A0
    1781                    
    1782 00000414 c0324121     [ A0]   BNOP    .S1     $C$L11,2
    1783 00000418 c1bea2e5  || [ A0]   LDW     .D2T1   *+SP(84),A3       ; |137| 
    1784 00000420 d300002b! || [!A0]   MVKL    .S2     $C$SL2+0,B6
    1785 00000424 c5282058  || [ A0]   ADD     .L1     1,A10,A10         ; |137| 
    1786                    
    1787                            .dwpsn  file "./../packages/ti/vlib/src/VLIB_coOccurrenceMatrix/VLIB_coOccurrenceMatrix_d.c",l
    1788 00000428 d53c42f6     [!A0]   STW     .D2T2   B10,*+SP(8)       ; |141| 
    1789 0000042c d300006a!    [!A0]   MVKH    .S2     $C$SL2+0,B6
    1790                    $C$DW$177       .dwtag  DW_TAG_TI_branch
    1791                            .dwattr $C$DW$177, DW_AT_low_pc(0x00)
    1792                            .dwattr $C$DW$177, DW_AT_name("printf")
    1793                            .dwattr $C$DW$177, DW_AT_TI_call
    1794                    
    1795 00000430 d0000011!    [!A0]   CALL    .S1     printf            ; |141| 
    1796 00000434 c02869f8  || [ A0]   CMPGTU  .L1     A3,A10,A0         ; |137| 
    1797                    
    1798                               ; BRANCHCC OCCURS {$C$L11}  
    1799 00000438           $C$DW$L$VLIB_coOccurrenceMatrix_d$27$E:
    1800                    ;** --------------------------------------------------------------------------*
    1801 00000438           $C$DW$L$VLIB_coOccurrenceMatrix_d$28$B:
    1802                    ;          EXCLUSIVE CPU CYCLES: 5
    1803                    ;** 141 -----------------------    printf((const char *)"Matrix:%d, row:%d, col:%d, out:%u, EOut:%u \n
    1804                    ;** 140 -----------------------    status_nat_vs_int = 0;
    1805 00000438     bc65             STW     .D2T2   B6,*+SP(4)        ; |141| 
    1806 0000043a     dcd5             STW     .D2T2   B5,*+SP(24)       ; |141| 
    1807 00000440     acd5             STW     .D2T1   A5,*+SP(20)       ; |141| 
    1808 00000442     9cc5             STW     .D2T2   B4,*+SP(16)       ; |141| 
    1809                    
    1810 00000444 053c62f5             STW     .D2T1   A10,*+SP(12)      ; |141| 
    1811 00000448 01830162  ||         ADDKPC  .S2     $C$RL17,B3,0      ; |141| 
    1812                    
    1813 0000044c           $C$RL17:   ; CALL OCCURS {printf} {0}        ; |141| 
    1814 0000044c           $C$DW$L$VLIB_coOccurrenceMatrix_d$28$E:
    1815                    ;** --------------------------------------------------------------------------*
TMS320C6x Assembler PC v7.4.2 Thu Mar 19 12:40:38 2015

Tools Copyright (c) 1996-2012 Texas Instruments Incorporated
package/lib/Regression/regress_d_c/./../packages/ti/vlib/src/VLIB_coOccurrenceMatrix/VLIB_coOccurrenceMatrix_d.se66 PAGE   34

    1816 0000044c           $C$DW$L$VLIB_coOccurrenceMatrix_d$29$B:
    1817                    ;          EXCLUSIVE CPU CYCLES: 1
    1818                            .dwpsn  file "./../packages/ti/vlib/src/VLIB_coOccurrenceMatrix/VLIB_coOccurrenceMatrix_d.c",l
    1819 0000044c 0700a358             ZERO    .L1     A14               ; |140| 
    1820 00000450           $C$DW$L$VLIB_coOccurrenceMatrix_d$29$E:
    1821                    ;** --------------------------------------------------------------------------*
    1822 00000450           $C$L10:    
    1823 00000450           $C$DW$L$VLIB_coOccurrenceMatrix_d$30$B:
    1824                    ;          EXCLUSIVE CPU CYCLES: 6
    1825                            .dwpsn  file "./../packages/ti/vlib/src/VLIB_coOccurrenceMatrix/VLIB_coOccurrenceMatrix_d.c",l
    1826 00000450 01bea2e4             LDW     .D2T1   *+SP(84),A3       ; |137| 
    1827 00000454 05282058             ADD     .L1     1,A10,A10         ; |137| 
    1828 00000458 00004000             NOP             3
    1829 00000460 002869f8             CMPGTU  .L1     A3,A10,A0         ; |137| 
    1830 00000464           $C$DW$L$VLIB_coOccurrenceMatrix_d$30$E:
    1831                    ;** --------------------------------------------------------------------------*
    1832 00000464           $C$L11:    
    1833                            .dwpsn  file "./../packages/ti/vlib/src/VLIB_coOccurrenceMatrix/VLIB_coOccurrenceMatrix_d.c",l
    1834 00000464           $C$DW$L$VLIB_coOccurrenceMatrix_d$31$B:
    1835                    ;          EXCLUSIVE CPU CYCLES: 6
    1836                    ;**     -----------------------g21:
    1837                    ;** 137 -----------------------    if ( (unsigned)outHeight > (++i) ) goto g16;
    1838                    
    1839 00000464 cfd08121     [ A0]   BNOP    .S1     $C$L6,4           ; |137| 
    1840 00000468 003e82e4  ||         LDW     .D2T1   *+SP(80),A0
    1841                    
    1842 0000046c c23d5c42     [ A0]   ADDAW   .D2     SP,B10,B4
    1843                            .dwpsn  file "./../packages/ti/vlib/src/VLIB_coOccurrenceMatrix/VLIB_coOccurrenceMatrix_d.c",l
    1844                               ; BRANCHCC OCCURS {$C$L6}         ; |137| 
    1845 00000470           $C$DW$L$VLIB_coOccurrenceMatrix_d$31$E:
    1846                    ;** --------------------------------------------------------------------------*
    1847 00000470           $C$L12:    
    1848 00000470           $C$DW$L$VLIB_coOccurrenceMatrix_d$32$B:
    1849                    ;          EXCLUSIVE CPU CYCLES: 7
    1850                    ;**     -----------------------g22:
    1851                    ;** 136 -----------------------    ++k;
    1852                    ;** 136 -----------------------    if ( L$1 = L$1-1 ) goto g14;
    1853                    
    1854 00000470 0033e059             SUB     .L1     A12,1,A0          ; |136| 
    1855 00000474 0528205b  ||         ADD     .L2     1,B10,B10         ; |136| 
    1856 00000478 0633e1a0  ||         SUB     .S1     A12,1,A12         ; |136| 
    1857                    
    1858 0000047c cfcca121     [ A0]   BNOP    .S1     $C$L5,5           ; |136| 
    1859 00000480 003ea2e4  ||         LDW     .D2T1   *+SP(84),A0
    1860                    
    1861                            .dwpsn  file "./../packages/ti/vlib/src/VLIB_coOccurrenceMatrix/VLIB_coOccurrenceMatrix_d.c",l
    1862                               ; BRANCHCC OCCURS {$C$L5}         ; |136| 
    1863 00000484           $C$DW$L$VLIB_coOccurrenceMatrix_d$32$E:
    1864                    ;** --------------------------------------------------------------------------*
    1865 00000484           $C$L13:    
    1866 00000484           $C$DW$L$VLIB_coOccurrenceMatrix_d$33$B:
    1867                    ;          EXCLUSIVE CPU CYCLES: 13
    1868                    ;**     -----------------------g23:
    1869                    ;** 150 -----------------------    U$45 = U$11+v$1;
    1870                    ;** 150 -----------------------    U$139 = (*U$45).staticOut;
TMS320C6x Assembler PC v7.4.2 Thu Mar 19 12:40:38 2015

Tools Copyright (c) 1996-2012 Texas Instruments Incorporated
package/lib/Regression/regress_d_c/./../packages/ti/vlib/src/VLIB_coOccurrenceMatrix/VLIB_coOccurrenceMatrix_d.se66 PAGE   35

    1871                    ;** 70  -----------------------    status_nat_vs_ref = 1;
    1872                    ;** 93  -----------------------    K$73 = &testPatternString[0];
    1873                    ;** 150 -----------------------    if ( U$139 == NULL ) goto g35;
    1874                            .dwpsn  file "./../packages/ti/vlib/src/VLIB_coOccurrenceMatrix/VLIB_coOccurrenceMatrix_d.c",l
    1875 00000484 0635907a             ADD     .L2X    B12,A13,B12       ; |150| 
    1876 00000488 01b042e4             LDW     .D2T1   *+B12(8),A3       ; |150| 
    1877                            .dwpsn  file "./../packages/ti/vlib/src/VLIB_coOccurrenceMatrix/VLIB_coOccurrenceMatrix_d.c",l
    1878 0000048c 0404a358             MVK     .L1     0x1,A8            ; |70| 
    1879 00000490 0500002a!            MVKL    .S2     testPatternString,B10
    1880 00000494 0500006a!            MVKH    .S2     testPatternString,B10
    1881 00000498     0c6e             NOP             1
    1882                    
    1883 0000049a     01c6             MV      .L1     A3,A0             ; |70| 
    1884 000004a0     ce35  ||         STW     .D2T1   A3,*+SP(72)       ; |150| 
    1885                    
    1886 000004a8 d0a48120     [!A0]   BNOP    .S1     $C$L23,4          ; |150| 
    1887 000004a4 c032c297  || [ A0]   LDBU    .D2T2   *+B12(22),B0      ; |151| 
    1888 000004a2     6867  || [!A0]   MVK     .L2     0x1,B0            ; |151| nullify predicate
    1889                    
    1890 000004ac 30002891     [!B0]   B       .S1     $C$L22            ; |151| 
    1891 000004b0 d033e296  || [!A0]   LDBU    .D2T2   *+B12(31),B0      ; |170| 
    1892                    
    1893                            .dwpsn  file "./../packages/ti/vlib/src/VLIB_coOccurrenceMatrix/VLIB_coOccurrenceMatrix_d.c",l
    1894                               ; BRANCHCC OCCURS {$C$L23}        ; |150| 
    1895 000004b4           $C$DW$L$VLIB_coOccurrenceMatrix_d$33$E:
    1896                    ;** --------------------------------------------------------------------------*
    1897 000004b4           $C$DW$L$VLIB_coOccurrenceMatrix_d$34$B:
    1898                    ;          EXCLUSIVE CPU CYCLES: 5
    1899                    ;** 151 -----------------------    if ( !(C$12 = (*U$45).numOffsets) ) goto g35;
    1900 000004b4     ae8d             LDW     .D2T1   *+SP(84),A0
    1901 000004b6     6c6e             NOP             4
    1902                            .dwpsn  file "./../packages/ti/vlib/src/VLIB_coOccurrenceMatrix/VLIB_coOccurrenceMatrix_d.c",l
    1903                               ; BRANCHCC OCCURS {$C$L22}        ; |151| 
    1904 000004c0           $C$DW$L$VLIB_coOccurrenceMatrix_d$34$E:
    1905                    ;** --------------------------------------------------------------------------*
    1906 000004c0           $C$DW$L$VLIB_coOccurrenceMatrix_d$35$B:
    1907                    ;          EXCLUSIVE CPU CYCLES: 1
    1908                    ;** 152 -----------------------    L$3 = (unsigned)C$12;
    1909                    ;** 151 -----------------------    k = 0u;
    1910                    ;**     -----------------------    #pragma MUST_ITERATE(1, 255, 1)
    1911                    ;**     -----------------------    #pragma LOOP_FLAGS(5120u)
    1912                    
    1913 000004c0     a447             MV      .L2     B0,B13            ; |152| 
    1914 000004c4 0500a358  ||         ZERO    .L1     A10               ; |151| 
    1915 000004c2     844e  ||         MV      .S1     A0,A12            ; |152| 
    1916                    
    1917 000004c8           $C$DW$L$VLIB_coOccurrenceMatrix_d$35$E:
    1918                    ;** --------------------------------------------------------------------------*
    1919                    ;**   BEGIN LOOP $C$L14
    1920                    ;** --------------------------------------------------------------------------*
    1921 000004c8           $C$L14:    
    1922                            .dwpsn  file "./../packages/ti/vlib/src/VLIB_coOccurrenceMatrix/VLIB_coOccurrenceMatrix_d.c",l
    1923 000004c8           $C$DW$L$VLIB_coOccurrenceMatrix_d$36$B:
    1924                    ;          EXCLUSIVE CPU CYCLES: 6
    1925                    ;**     -----------------------g26:
TMS320C6x Assembler PC v7.4.2 Thu Mar 19 12:40:38 2015

Tools Copyright (c) 1996-2012 Texas Instruments Incorporated
package/lib/Regression/regress_d_c/./../packages/ti/vlib/src/VLIB_coOccurrenceMatrix/VLIB_coOccurrenceMatrix_d.se66 PAGE   36

    1926                    ;** 152 -----------------------    if ( !outHeight ) goto g34;
    1927                    
    1928 000004c8     e1ba     [!A0]   BNOP    .S1     $C$L21,5          ; |152| 
    1929 000004ca     8e8d  ||         LDW     .D2T1   *+SP(80),A0
    1930                    
    1931                            .dwpsn  file "./../packages/ti/vlib/src/VLIB_coOccurrenceMatrix/VLIB_coOccurrenceMatrix_d.c",l
    1932                               ; BRANCHCC OCCURS {$C$L21}        ; |152| 
    1933 000004cc           $C$DW$L$VLIB_coOccurrenceMatrix_d$36$E:
    1934                    ;** --------------------------------------------------------------------------*
    1935 000004cc           $C$DW$L$VLIB_coOccurrenceMatrix_d$37$B:
    1936                    ;          EXCLUSIVE CPU CYCLES: 2
    1937                    ;**     -----------------------    U$131 = (unsigned)outHeight;
    1938                    ;** 152 -----------------------    i = 0u;
    1939                    ;**     -----------------------    #pragma MUST_ITERATE(1, 65535, 1)
    1940                    ;**     -----------------------    #pragma LOOP_FLAGS(1024u)
    1941                    
    1942 000004cc 0780a359             ZERO    .L1     A15               ; |152| 
    1943 000004d4 018006a0  ||         MV      .S1     A0,A3
    1944 000004d0 cfbc18f1  || [ A0]   MV      .D1X    SP,A31            ; Register A/B partition copy
    1945                    
    1946 000004d8 c2000fd8     [ A0]   MV      .L1     A0,A4
    1947 000004e0           $C$DW$L$VLIB_coOccurrenceMatrix_d$37$E:
    1948                    ;** --------------------------------------------------------------------------*
    1949                    ;**   BEGIN LOOP $C$L15
    1950                    ;** --------------------------------------------------------------------------*
    1951 000004e0           $C$L15:    
    1952                            .dwpsn  file "./../packages/ti/vlib/src/VLIB_coOccurrenceMatrix/VLIB_coOccurrenceMatrix_d.c",l
    1953 000004e0           $C$DW$L$VLIB_coOccurrenceMatrix_d$38$B:
    1954                    ;          EXCLUSIVE CPU CYCLES: 6
    1955                    ;**     -----------------------g28:
    1956                    ;** 153 -----------------------    if ( !outWidth ) goto g33;
    1957                    
    1958 000004e0 d0001891     [!A0]   B       .S1     $C$L19            ; |153| 
    1959 000004e4 018d4801  ||         MPY32   .M1     A10,A3,A3
    1960 000004e8 00800fd9  ||         MV      .L1     A0,A1             ; guard predicate rewrite
    1961 000004ec c38008f1  || [ A0]   MV      .D1     A0,A7
    1962 000004f0 cebe42e4  || [ A0]   LDW     .D2T1   *+SP(72),A29
    1963                    
    1964 000004f4 c291e800     [ A0]   MPY32   .M1     A15,A4,A5
    1965 000004f8 c27d5c40     [ A0]   ADDAW   .D1     A31,A10,A4
    1966 000004fc c004a358     [ A0]   MVK     .L1     0x1,A0
    1967 00000500 8f114264     [ A1]   LDW     .D1T1   *+A4(40),A30
    1968 00000504 018d8800             MPY32   .M1     A12,A3,A3
    1969                            .dwpsn  file "./../packages/ti/vlib/src/VLIB_coOccurrenceMatrix/VLIB_coOccurrenceMatrix_d.c",l
    1970                               ; BRANCHCC OCCURS {$C$L19}        ; |153| 
    1971 00000508           $C$DW$L$VLIB_coOccurrenceMatrix_d$38$E:
    1972                    ;** --------------------------------------------------------------------------*
    1973                            .dwpsn  file "./../packages/ti/vlib/src/VLIB_coOccurrenceMatrix/VLIB_coOccurrenceMatrix_d.c",l
    1974 00000508           $C$DW$L$VLIB_coOccurrenceMatrix_d$39$B:
    1975                    ;          EXCLUSIVE CPU CYCLES: 1
    1976                    ;**     -----------------------    C$11 = outWidth*i;
    1977                    ;**     -----------------------    U$117 = C$11*2+*(k*4+&O$1);
    1978                    ;**     -----------------------    U$150 = &U$139[(int)C$11+outWidth*k*U$131];
    1979                    ;** 154 -----------------------    L$4 = (unsigned)outWidth;
    1980                    ;** 153 -----------------------    --U$150;
TMS320C6x Assembler PC v7.4.2 Thu Mar 19 12:40:38 2015

Tools Copyright (c) 1996-2012 Texas Instruments Incorporated
package/lib/Regression/regress_d_c/./../packages/ti/vlib/src/VLIB_coOccurrenceMatrix/VLIB_coOccurrenceMatrix_d.se66 PAGE   37

    1981                    ;** 153 -----------------------    --U$117;
    1982                    ;** 153 -----------------------    j = 0xffffffffu;
    1983                    ;**     -----------------------    #pragma MUST_ITERATE(1, 65535, 1)
    1984                    ;**     -----------------------    #pragma LOOP_FLAGS(4352u)
    1985                    ;**     -----------------------g30:
    1986                    ;** 154 -----------------------    U$118 = *(++U$117);
    1987                    ;** 154 -----------------------    U$151 = *(++U$150);
    1988                    ;** 154 -----------------------    f$4 = (U$151 != U$118)-1;
    1989                    ;** 153 -----------------------    ++j;
    1990                    ;** 153 -----------------------    L$4 = L$4-1;
    1991                    ;** 153 -----------------------    if ( L$4&f$4 ) goto g30;
    1992                    ;**     -----------------------    if ( f$4 ) goto g33;
    1993 00000508 00000000             NOP             1
    1994 0000050c           $C$DW$L$VLIB_coOccurrenceMatrix_d$39$E:
    1995                    ;*----------------------------------------------------------------------------*
    1996                    ;*   SOFTWARE PIPELINE INFORMATION
    1997                    ;*
    1998                    ;*      Loop found in file               : ./../packages/ti/vlib/src/VLIB_coOccurrenceMatrix/VLIB_coOc
    1999                    ;*      Loop source line                 : 153
    2000                    ;*      Loop opening brace source line   : 153
    2001                    ;*      Loop closing brace source line   : 160
    2002                    ;*      Known Minimum Trip Count         : 1                    
    2003                    ;*      Known Maximum Trip Count         : 65535                    
    2004                    ;*      Known Max Trip Count Factor      : 1
    2005                    ;*      Loop Carried Dependency Bound(^) : 1
    2006                    ;*      Unpartitioned Resource Bound     : 2
    2007                    ;*      Partitioned Resource Bound(*)    : 2
    2008                    ;*      Resource Partition:
    2009                    ;*                                A-side   B-side
    2010                    ;*      .L units                     1        0     
    2011                    ;*      .S units                     1        0     
    2012                    ;*      .D units                     1        1     
    2013                    ;*      .M units                     0        0     
    2014                    ;*      .X cross paths               1        0     
    2015                    ;*      .T address paths             1        1     
    2016                    ;*      Long read paths              0        0     
    2017                    ;*      Long write paths             0        0     
    2018                    ;*      Logical  ops (.LS)           0        0     (.L or .S unit)
    2019                    ;*      Addition ops (.LSD)          3        1     (.L or .S or .D unit)
    2020                    ;*      Bound(.L .S .LS)             1        0     
    2021                    ;*      Bound(.L .S .D .LS .LSD)     2*       1     
    2022                    ;*
    2023                    ;*      Searching for software pipeline schedule at ...
    2024                    ;*         ii = 4  Unsafe schedule for irregular loop
    2025                    ;*         ii = 4  Unsafe schedule for irregular loop
    2026                    ;*         ii = 4  Unsafe schedule for irregular loop
    2027                    ;*         ii = 4  Unsafe schedule for irregular loop
    2028                    ;*         ii = 4  Unsafe schedule for irregular loop
    2029                    ;*         ii = 4  Did not find schedule
    2030                    ;*         ii = 5  Unsafe schedule for irregular loop
    2031                    ;*         ii = 5  Unsafe schedule for irregular loop
    2032                    ;*         ii = 5  Unsafe schedule for irregular loop
    2033                    ;*         ii = 5  Unsafe schedule for irregular loop
    2034                    ;*         ii = 5  Unsafe schedule for irregular loop
    2035                    ;*         ii = 5  Did not find schedule
TMS320C6x Assembler PC v7.4.2 Thu Mar 19 12:40:38 2015

Tools Copyright (c) 1996-2012 Texas Instruments Incorporated
package/lib/Regression/regress_d_c/./../packages/ti/vlib/src/VLIB_coOccurrenceMatrix/VLIB_coOccurrenceMatrix_d.se66 PAGE   38

    2036                    ;*         ii = 6  Unsafe schedule for irregular loop
    2037                    ;*         ii = 6  Unsafe schedule for irregular loop
    2038                    ;*         ii = 6  Unsafe schedule for irregular loop
    2039                    ;*         ii = 6  Unsafe schedule for irregular loop
    2040                    ;*         ii = 6  Unsafe schedule for irregular loop
    2041                    ;*         ii = 6  Did not find schedule
    2042                    ;*         ii = 7  Unsafe schedule for irregular loop
    2043                    ;*         ii = 7  Unsafe schedule for irregular loop
    2044                    ;*         ii = 7  Unsafe schedule for irregular loop
    2045                    ;*         ii = 7  Unsafe schedule for irregular loop
    2046                    ;*         ii = 7  Unsafe schedule for irregular loop
    2047                    ;*         ii = 7  Did not find schedule
    2048                    ;*         ii = 8  Unsafe schedule for irregular loop
    2049                    ;*         ii = 8  Unsafe schedule for irregular loop
    2050                    ;*         ii = 8  Unsafe schedule for irregular loop
    2051                    ;*         ii = 8  Unsafe schedule for irregular loop
    2052                    ;*         ii = 8  Unsafe schedule for irregular loop
    2053                    ;*         ii = 8  Did not find schedule
    2054                    ;*         ii = 9  Schedule found with 2 iterations in parallel
    2055                    ;*
    2056                    ;*      Register Usage Table:
    2057                    ;*          +-----------------------------------------------------------------+
    2058                    ;*          |AAAAAAAAAAAAAAAAAAAAAAAAAAAAAAAA|BBBBBBBBBBBBBBBBBBBBBBBBBBBBBBBB|
    2059                    ;*          |00000000001111111111222222222233|00000000001111111111222222222233|
    2060                    ;*          |01234567890123456789012345678901|01234567890123456789012345678901|
    2061                    ;*          |--------------------------------+--------------------------------|
    2062                    ;*       0: |     ***                        |    ***                         |
    2063                    ;*       1: |     ***                        |    ***                         |
    2064                    ;*       2: |   * ***                        |    ***                         |
    2065                    ;*       3: |    ****                        |    ***                         |
    2066                    ;*       4: |   * ***                        |    ***                         |
    2067                    ;*       5: |*    ***                        |    ***                         |
    2068                    ;*       6: |     ***                        |    ***                         |
    2069                    ;*       7: |     ***                        |    ***                         |
    2070                    ;*       8: |     ***                        |    ***                         |
    2071                    ;*          +-----------------------------------------------------------------+
    2072                    ;*
    2073                    ;*      Done
    2074                    ;*
    2075                    ;*      Loop will be splooped
    2076                    ;*      Collapsed epilog stages       : 1
    2077                    ;*      Collapsed prolog stages       : 0
    2078                    ;*      Minimum required memory pad   : 0 bytes
    2079                    ;*
    2080                    ;*      For further improvement on this loop, try option -mh28
    2081                    ;*
    2082                    ;*      Minimum safe trip count       : 1
    2083                    ;*      Min. prof. trip count  (est.) : 3
    2084                    ;*
    2085                    ;*      Mem bank conflicts/iter(est.) : { min 0.000, est 0.125, max 1.000 }
    2086                    ;*      Mem bank perf. penalty (est.) : 1.4%
    2087                    ;*
    2088                    ;*      Effective ii                : { min 9.00, est 9.13, max 10.00 }
    2089                    ;*
    2090                    ;*
TMS320C6x Assembler PC v7.4.2 Thu Mar 19 12:40:38 2015

Tools Copyright (c) 1996-2012 Texas Instruments Incorporated
package/lib/Regression/regress_d_c/./../packages/ti/vlib/src/VLIB_coOccurrenceMatrix/VLIB_coOccurrenceMatrix_d.se66 PAGE   39

    2091                    ;*      Total cycles (est.)         : 9 + trip_cnt * 9        
    2092                    ;*----------------------------------------------------------------------------*
    2093                    ;*       SETUP CODE
    2094                    ;*
    2095                    ;*                  MVK             0x1,A0
    2096                    ;*
    2097                    ;*        SINGLE SCHEDULED ITERATION
    2098                    ;*
    2099                    ;*        $C$C63:
    2100                    ;*   5      [ A0]   LDHU    .D1T1   *++A6,A5          ; |154|  ^ 
    2101                    ;*     ||   [ A0]   LDHU    .D2T2   *++B6,B5          ; |154|  ^ 
    2102                    ;*   6              NOP             4
    2103                    ;*  10              CMPEQ   .L1X    B5,A5,A3          ; |154|  ^ 
    2104                    ;*  11              EXT     .S1     A3,31,31,A4       ; |154|  ^ 
    2105                    ;*     ||           SUB     .L1     A7,1,A7           ; |153|  ^ 
    2106                    ;*  12              AND     .L1     A4,A7,A3          ; |153|  ^ 
    2107                    ;*  13              MV      .L1     A3,A0             ; |153|  ^ 
    2108                    ;*  14      [ A0]   SPWBR           $C$C63
    2109                    ;*  15              NOP             2
    2110                    ;*  17              ADD     .L2     1,B4,B4           ; |153| 
    2111                    ;*  18              ; BRANCHCC OCCURS {$C$C63}        ; |153| 
    2112                    ;*----------------------------------------------------------------------------*
    2113 0000050c           $C$L16:    ; PIPED LOOP PROLOG
    2114                    ;          EXCLUSIVE CPU CYCLES: 10
    2115 0000050c c403e000     [ A0]   SPLOOPW 9       ;18               ; (P) 
    2116                    ;** --------------------------------------------------------------------------*
    2117 00000510           $C$L17:    ; PIPED LOOP KERNEL
    2118 00000510           $C$DW$L$VLIB_coOccurrenceMatrix_d$41$B:
    2119                    ;          EXCLUSIVE CPU CYCLES: 9
    2120 00000510     0c6e             NOP             1
    2121                    
    2122 00000512     2c67             SPMASK          L1
    2123 00000514     62b0  ||         ADD     .L1     A3,A5,A3
    2124                    
    2125 00000516     6c66             SPMASK          D1
    2126 00000518 01f47a40  ||         ADDAH   .D1     A29,A3,A3
    2127                    
    2128 00000520 00430001             SPMASK          D1
    2129 00000524 0278ba40  ||         ADDAH   .D1     A30,A5,A4
    2130                    
    2131 00000528     2ce7             SPMASK          L1,L2
    2132 0000052a     ce60  ||         SUB     .L1     A4,2,A6           ; |153| 
    2133 0000052c 030fd05a  ||         SUB     .L2X    A3,2,B6           ; |153| 
    2134                    
    2135 00000530 c2983205     [ A0]   LDHU    .D1T1   *++A6,A5          ; |154| (P) <0,5>  ^ 
    2136 00000534 c2983286  || [ A0]   LDHU    .D2T2   *++B6,B5          ; |154| (P) <0,5>  ^ 
    2137                    
    2138 00000538     2c6e             NOP             2
    2139                    
    2140 0000053a     2ce6             SPMASK          L2
    2141 00000540     fe27  ||         MVK     .L2     0xffffffff,B4     ; |153| 
    2142                    
    2143 00000542     0c6e             NOP             1
    2144                            .dwpsn  file "./../packages/ti/vlib/src/VLIB_coOccurrenceMatrix/VLIB_coOccurrenceMatrix_d.c",l
    2145 00000544 0194ba78             CMPEQ   .L1X    B5,A5,A3          ; |154| <0,10>  ^ 
TMS320C6x Assembler PC v7.4.2 Thu Mar 19 12:40:38 2015

Tools Copyright (c) 1996-2012 Texas Instruments Incorporated
package/lib/Regression/regress_d_c/./../packages/ti/vlib/src/VLIB_coOccurrenceMatrix/VLIB_coOccurrenceMatrix_d.se66 PAGE   40

    2146                    
    2147 0000054c 039fe058             SUB     .L1     A7,1,A7           ; |153| <0,11>  ^ 
    2148 00000548 020fff49  ||         EXT     .S1     A3,31,31,A4       ; |154| <0,11>  ^ 
    2149                    
    2150                            .dwpsn  file "./../packages/ti/vlib/src/VLIB_coOccurrenceMatrix/VLIB_coOccurrenceMatrix_d.c",l
    2151 00000550 019c8f78             AND     .L1     A4,A7,A3          ; |153| <0,12>  ^ 
    2152 00000554     01c6             MV      .L1     A3,A0             ; |153| <0,13>  ^ 
    2153 00000556     2c6e             NOP             2
    2154 00000558 00000000             NOP             1
    2155                    
    2156 00000560 00034001             SPKERNEL 0,0
    2157 00000564     2641  ||         ADD     .L2     1,B4,B4           ; |153| <0,17> 
    2158                    
    2159 00000566           $C$DW$L$VLIB_coOccurrenceMatrix_d$41$E:
    2160                    ;** --------------------------------------------------------------------------*
    2161 00000566           $C$L18:    ; PIPED LOOP EPILOG
    2162                    ;** --------------------------------------------------------------------------*
    2163 00000566           $C$DW$L$VLIB_coOccurrenceMatrix_d$43$B:
    2164                    ;          EXCLUSIVE CPU CYCLES: 7
    2165 00000566     0246             MV      .L1     A4,A0
    2166                    
    2167 00000568 c02a4121     [ A0]   BNOP    .S1     $C$L20,2
    2168 0000056c c1bea2e5  || [ A0]   LDW     .D2T1   *+SP(84),A3       ; |152| 
    2169 00000570 d300002b! || [!A0]   MVKL    .S2     $C$SL3+0,B6
    2170 00000574 c7bc2058  || [ A0]   ADD     .L1     1,A15,A15         ; |152| 
    2171                    
    2172                            .dwpsn  file "./../packages/ti/vlib/src/VLIB_coOccurrenceMatrix/VLIB_coOccurrenceMatrix_d.c",l
    2173 00000578 d53c42f4     [!A0]   STW     .D2T1   A10,*+SP(8)       ; |156| 
    2174 00000580 d300006a!    [!A0]   MVKH    .S2     $C$SL3+0,B6
    2175                    $C$DW$178       .dwtag  DW_TAG_TI_branch
    2176                            .dwattr $C$DW$178, DW_AT_low_pc(0x00)
    2177                            .dwattr $C$DW$178, DW_AT_name("printf")
    2178                            .dwattr $C$DW$178, DW_AT_TI_call
    2179                    
    2180 00000584 d0000011!    [!A0]   CALL    .S1     printf            ; |156| 
    2181 00000588 c03c69f8  || [ A0]   CMPGTU  .L1     A3,A15,A0         ; |152| 
    2182                    
    2183                               ; BRANCHCC OCCURS {$C$L20}  
    2184 0000058c           $C$DW$L$VLIB_coOccurrenceMatrix_d$43$E:
    2185                    ;** --------------------------------------------------------------------------*
    2186 0000058c           $C$DW$L$VLIB_coOccurrenceMatrix_d$44$B:
    2187                    ;          EXCLUSIVE CPU CYCLES: 5
    2188                    ;** 156 -----------------------    printf((const char *)"Matrix:%d, row:%d, col:%d, Eout:%u, Out:%u \n
    2189                    ;** 155 -----------------------    status_nat_vs_ref = 0;
    2190 0000058c     bc65             STW     .D2T2   B6,*+SP(4)        ; |156| 
    2191 0000058e     ccd5             STW     .D2T1   A5,*+SP(24)       ; |156| 
    2192 00000590     bcd5             STW     .D2T2   B5,*+SP(20)       ; |156| 
    2193 00000592     9cc5             STW     .D2T2   B4,*+SP(16)       ; |156| 
    2194                    
    2195 00000594 07bc62f5             STW     .D2T1   A15,*+SP(12)      ; |156| 
    2196 00000598 01880162  ||         ADDKPC  .S2     $C$RL18,B3,0      ; |156| 
    2197                    
    2198 000005a0           $C$RL18:   ; CALL OCCURS {printf} {0}        ; |156| 
    2199 000005a0           $C$DW$L$VLIB_coOccurrenceMatrix_d$44$E:
    2200                    ;** --------------------------------------------------------------------------*
TMS320C6x Assembler PC v7.4.2 Thu Mar 19 12:40:38 2015

Tools Copyright (c) 1996-2012 Texas Instruments Incorporated
package/lib/Regression/regress_d_c/./../packages/ti/vlib/src/VLIB_coOccurrenceMatrix/VLIB_coOccurrenceMatrix_d.se66 PAGE   41

    2201 000005a0           $C$DW$L$VLIB_coOccurrenceMatrix_d$45$B:
    2202                    ;          EXCLUSIVE CPU CYCLES: 1
    2203                            .dwpsn  file "./../packages/ti/vlib/src/VLIB_coOccurrenceMatrix/VLIB_coOccurrenceMatrix_d.c",l
    2204 000005a0 0400a358             ZERO    .L1     A8                ; |155| 
    2205 000005a4           $C$DW$L$VLIB_coOccurrenceMatrix_d$45$E:
    2206                    ;** --------------------------------------------------------------------------*
    2207 000005a4           $C$L19:    
    2208 000005a4           $C$DW$L$VLIB_coOccurrenceMatrix_d$46$B:
    2209                    ;          EXCLUSIVE CPU CYCLES: 6
    2210                            .dwpsn  file "./../packages/ti/vlib/src/VLIB_coOccurrenceMatrix/VLIB_coOccurrenceMatrix_d.c",l
    2211 000005a4 01bea2e4             LDW     .D2T1   *+SP(84),A3       ; |152| 
    2212 000005a8 07bc2058             ADD     .L1     1,A15,A15         ; |152| 
    2213 000005ac 00004000             NOP             3
    2214 000005b0 003c69f8             CMPGTU  .L1     A3,A15,A0         ; |152| 
    2215 000005b4           $C$DW$L$VLIB_coOccurrenceMatrix_d$46$E:
    2216                    ;** --------------------------------------------------------------------------*
    2217 000005b4           $C$L20:    
    2218                            .dwpsn  file "./../packages/ti/vlib/src/VLIB_coOccurrenceMatrix/VLIB_coOccurrenceMatrix_d.c",l
    2219 000005b4           $C$DW$L$VLIB_coOccurrenceMatrix_d$47$B:
    2220                    ;          EXCLUSIVE CPU CYCLES: 6
    2221                    ;**     -----------------------g33:
    2222                    ;** 152 -----------------------    U$131 = (unsigned)outHeight;
    2223                    ;** 152 -----------------------    if ( (unsigned)outHeight > (++i) ) goto g28;
    2224                    
    2225 000005b4 cfa08121     [ A0]   BNOP    .S1     $C$L15,4          ; |152| 
    2226 000005b8     4046  ||         MV      .L1     A0,A2             ; guard predicate rewrite
    2227 000005ba     8e8d  ||         LDW     .D2T1   *+SP(80),A0
    2228                    
    2229 000005c0 01800fd9             MV      .L1     A0,A3
    2230 000005c4 cfbc16a1  || [ A0]   MV      .S1X    SP,A31            ; Register A/B partition copy
    2231 000005c8 c20008f0  || [ A0]   MV      .D1     A0,A4
    2232                    
    2233                            .dwpsn  file "./../packages/ti/vlib/src/VLIB_coOccurrenceMatrix/VLIB_coOccurrenceMatrix_d.c",l
    2234                               ; BRANCHCC OCCURS {$C$L15}        ; |152| 
    2235 000005cc           $C$DW$L$VLIB_coOccurrenceMatrix_d$47$E:
    2236                    ;** --------------------------------------------------------------------------*
    2237 000005cc           $C$L21:    
    2238 000005cc           $C$DW$L$VLIB_coOccurrenceMatrix_d$48$B:
    2239                    ;          EXCLUSIVE CPU CYCLES: 7
    2240                    ;**     -----------------------g34:
    2241                    ;** 151 -----------------------    ++k;
    2242                    ;** 151 -----------------------    if ( L$3 = L$3-1 ) goto g26;
    2243                    
    2244 000005cc 0037e05b             SUB     .L2     B13,1,B0          ; |151| 
    2245 000005d0 003ea2e5  ||         LDW     .D2T1   *+SP(84),A0
    2246 000005d4 06b7e1a3  ||         SUB     .S2     B13,1,B13         ; |151| 
    2247 000005d8 05282058  ||         ADD     .L1     1,A10,A10         ; |151| 
    2248                    
    2249                            .dwpsn  file "./../packages/ti/vlib/src/VLIB_coOccurrenceMatrix/VLIB_coOccurrenceMatrix_d.c",l
    2250 000005dc 2fc28120     [ B0]   BNOP    .S1     $C$L14,4          ; |151| 
    2251                            .dwpsn  file "./../packages/ti/vlib/src/VLIB_coOccurrenceMatrix/VLIB_coOccurrenceMatrix_d.c",l
    2252 000005e0 26000fd8     [ B0]   MV      .L1     A0,A12            ; |152| 
    2253                            .dwpsn  file "./../packages/ti/vlib/src/VLIB_coOccurrenceMatrix/VLIB_coOccurrenceMatrix_d.c",l
    2254                               ; BRANCHCC OCCURS {$C$L14}        ; |151| 
    2255 000005e4           $C$DW$L$VLIB_coOccurrenceMatrix_d$48$E:
TMS320C6x Assembler PC v7.4.2 Thu Mar 19 12:40:38 2015

Tools Copyright (c) 1996-2012 Texas Instruments Incorporated
package/lib/Regression/regress_d_c/./../packages/ti/vlib/src/VLIB_coOccurrenceMatrix/VLIB_coOccurrenceMatrix_d.se66 PAGE   42

    2256                    ;** --------------------------------------------------------------------------*
    2257 000005e4           $C$L22:    
    2258 000005e4           $C$DW$L$VLIB_coOccurrenceMatrix_d$49$B:
    2259                    ;          EXCLUSIVE CPU CYCLES: 1
    2260                            .dwpsn  file "./../packages/ti/vlib/src/VLIB_coOccurrenceMatrix/VLIB_coOccurrenceMatrix_d.c",l
    2261 000005e4 0033e296             LDBU    .D2T2   *+B12(31),B0      ; |170| 
    2262 000005e8           $C$DW$L$VLIB_coOccurrenceMatrix_d$49$E:
    2263                    ;** --------------------------------------------------------------------------*
    2264 000005e8           $C$L23:    
    2265                            .dwpsn  file "./../packages/ti/vlib/src/VLIB_coOccurrenceMatrix/VLIB_coOccurrenceMatrix_d.c",l
    2266 000005e8           $C$DW$L$VLIB_coOccurrenceMatrix_d$50$B:
    2267                    ;          EXCLUSIVE CPU CYCLES: 10
    2268                    ;**     -----------------------g35:
    2269                    ;** 166 -----------------------    fail = (unsigned)(status_nat_vs_int == 0)|(unsigned)(status_nat_vs_
    2270                    ;** 168 -----------------------    est_test = 1;
    2271                    ;** 170 -----------------------    if ( (*U$45).scratchFlow ) goto g37;
    2272                    ;** 177 -----------------------    mode = 3u;
    2273                    ;** 177 -----------------------    goto g38;
    2274                    
    2275 000005e8 02201a5b             CMPEQ   .L2X    A8,0,B4           ; |166| 
    2276 000005ec 02000029! ||         MVKL    .S1     est_test,A4
    2277 000005f0 0284a358  ||         MVK     .L1     1,A5              ; |168| 
    2278                    
    2279                            .dwpsn  file "./../packages/ti/vlib/src/VLIB_coOccurrenceMatrix/VLIB_coOccurrenceMatrix_d.c",l
    2280 000005f4 01b80a58             CMPEQ   .L1     A14,0,A3          ; |166| 
    2281 000005f8 02000068!            MVKH    .S1     est_test,A4
    2282 000005fc 068c9ffa             OR      .L2X    B4,A3,B13         ; |166| 
    2283                    
    2284 00000600 30000c91     [!B0]   B       .S1     $C$L24            ; |177| 
    2285 00000604 22b24296  || [ B0]   LDBU    .D2T2   *+B12(18),B5      ; |41| 
    2286                    
    2287                            .dwpsn  file "./../packages/ti/vlib/src/VLIB_coOccurrenceMatrix/VLIB_coOccurrenceMatrix_d.c",l
    2288 00000608 23b26296     [ B0]   LDBU    .D2T2   *+B12(19),B7      ; |41| 
    2289                            .dwpsn  file "./../packages/ti/vlib/src/VLIB_coOccurrenceMatrix/VLIB_coOccurrenceMatrix_d.c",l
    2290 0000060c 31be82e4     [!B0]   LDW     .D2T1   *+SP(80),A3       ; |181| 
    2291                    $C$DW$179       .dwtag  DW_TAG_TI_branch
    2292                            .dwattr $C$DW$179, DW_AT_low_pc(0x00)
    2293                            .dwattr $C$DW$179, DW_AT_name("__c6xabi_divi")
    2294                            .dwattr $C$DW$179, DW_AT_TI_call
    2295                    
    2296 00000610 20000011!    [ B0]   CALL    .S1     __c6xabi_divi     ; |41| 
    2297 00000614 23314286  || [ B0]   LDHU    .D2T2   *+B12(20),B6      ; |41| 
    2298                    
    2299                            .dwpsn  file "./../packages/ti/vlib/src/VLIB_coOccurrenceMatrix/VLIB_coOccurrenceMatrix_d.c",l
    2300 00000618 02900274             STW     .D1T1   A5,*A4            ; |168| 
    2301                            .dwpsn  file "./../packages/ti/vlib/src/VLIB_coOccurrenceMatrix/VLIB_coOccurrenceMatrix_d.c",l
    2302 0000061c 358ca35a     [!B0]   MVK     .L2     0x3,B11           ; |177| 
    2303                               ; BRANCHCC OCCURS {$C$L24}        ; |177| 
    2304 00000620           $C$DW$L$VLIB_coOccurrenceMatrix_d$50$E:
    2305                    ;** --------------------------------------------------------------------------*
    2306                            .dwpsn  file "./../packages/ti/vlib/src/VLIB_coOccurrenceMatrix/VLIB_coOccurrenceMatrix_d.c",l
    2307 00000620           $C$DW$L$VLIB_coOccurrenceMatrix_d$51$B:
    2308                    ;          EXCLUSIVE CPU CYCLES: 3
    2309                    ;**     -----------------------g37:
    2310                    ;** 41  -----------------------    C$9 = (*U$45).numLevels;  // [24]
TMS320C6x Assembler PC v7.4.2 Thu Mar 19 12:40:38 2015

Tools Copyright (c) 1996-2012 Texas Instruments Incorporated
package/lib/Regression/regress_d_c/./../packages/ti/vlib/src/VLIB_coOccurrenceMatrix/VLIB_coOccurrenceMatrix_d.se66 PAGE   43

    2311                    ;** 41  -----------------------    C$10 = ((*U$45).hiPixelVal-(*U$45).loPixelVal+1)/C$9;  // [24]
    2312                    ;** 174 -----------------------    ((C$10 <= 0)|C$10-1&C$10|(C$9 >= 65)) ? (mode = 2u) : (mode = 1u);
    2313                            .dwpsn  file "./../packages/ti/vlib/src/VLIB_coOccurrenceMatrix/VLIB_coOccurrenceMatrix_d.c",l
    2314 00000620 0294e0fa             SUB     .L2     B7,B5,B5          ; |41| 
    2315 00000624 01830162             ADDKPC  .S2     $C$RL19,B3,0      ; |41| 
    2316                    
    2317 00000628     8347             MV      .L2     B6,B4             ; |41| 
    2318 0000062a     36c0  ||         ADD     .L1X    1,B5,A4           ; |41| 
    2319                    
    2320 0000062c           $C$RL19:   ; CALL OCCURS {__c6xabi_divi} {0}  ; |41| 
    2321 0000062c           $C$DW$L$VLIB_coOccurrenceMatrix_d$51$E:
    2322                    ;** --------------------------------------------------------------------------*
    2323 0000062c           $C$DW$L$VLIB_coOccurrenceMatrix_d$52$B:
    2324                    ;          EXCLUSIVE CPU CYCLES: 8
    2325                            .dwpsn  file "./../packages/ti/vlib/src/VLIB_coOccurrenceMatrix/VLIB_coOccurrenceMatrix_d.c",l
    2326 0000062c     2253             MVK     .S2     65,B4             ; |174| 
    2327                    
    2328 00000630 0210cbfb             CMPLTU  .L2     B6,B4,B4          ; |174| 
    2329 0000062e     624e  ||         MV      .S1     A4,A3             ; |41| 
    2330 00000634 029029c1  ||         SUB     .D1     A4,1,A5           ; |174| 
    2331 00000638 02100ad8  ||         CMPGT   .L1     A4,0,A4           ; |174| 
    2332                    
    2333 00000648 02102dda             XOR     .L2     1,B4,B4           ; |174| 
    2334 00000644 02146f79  ||         AND     .L1     A3,A5,A4          ; |174| 
    2335 00000640 019022a1  ||         XOR     .S1     1,A4,A3           ; |174| 
    2336                    
    2337 0000064c 018c8ff8             OR      .L1     A4,A3,A3          ; |174| 
    2338                    
    2339 00000650     7628             OR      .L1X    B4,A3,A0          ; |174| 
    2340 00000652     8ebd  ||         LDW     .D2T1   *+SP(80),A3       ; |181| 
    2341                    
    2342 00000654 d584a35a     [!A0]   MVK     .L2     0x1,B11           ; |174| 
    2343 00000658 c588a35a     [ A0]   MVK     .L2     0x2,B11           ; |174| 
    2344 00000660 00000000             NOP             1
    2345 00000664           $C$DW$L$VLIB_coOccurrenceMatrix_d$52$E:
    2346                    ;** --------------------------------------------------------------------------*
    2347 00000664           $C$L24:    
    2348                            .dwpsn  file "./../packages/ti/vlib/src/VLIB_coOccurrenceMatrix/VLIB_coOccurrenceMatrix_d.c",l
    2349 00000664           $C$DW$L$VLIB_coOccurrenceMatrix_d$53$B:
    2350                    ;          EXCLUSIVE CPU CYCLES: 10
    2351                    ;**     -----------------------g38:
    2352                    ;** 181 -----------------------    sprintf(K$189, (const char *)"%s generated input | Opt and NatC res
    2353                    ;** 183 -----------------------    C$8 = (*U$12).numOffsets;
    2354                    ;** 183 -----------------------    C$7 = (*U$12).imageHeight;
    2355                    ;** 183 -----------------------    VLIB_formula_add_test(_mpyu((*U$12).imageWidth, C$7)*C$8, (int)_mpy
    2356                    ;** 187 -----------------------    goto g40;
    2357                    
    2358 00000664 0280002b!            MVKL    .S2     $C$SL4+0,B5
    2359 00000668 02000029! ||         MVKL    .S1     desc,A4
    2360 0000066c 0230e286  ||         LDHU    .D2T2   *+B12(14),B4      ; |181| 
    2361                    
    2362 00000670 0280006b!            MVKH    .S2     $C$SL4+0,B5
    2363 00000674 02000069! ||         MVKH    .S1     desc,A4
    2364 00000678     acb5  ||         STW     .D2T1   A3,*+SP(20)       ; |181| 
    2365                    
TMS320C6x Assembler PC v7.4.2 Thu Mar 19 12:40:38 2015

Tools Copyright (c) 1996-2012 Texas Instruments Incorporated
package/lib/Regression/regress_d_c/./../packages/ti/vlib/src/VLIB_coOccurrenceMatrix/VLIB_coOccurrenceMatrix_d.se66 PAGE   44

    2366                            .dwpsn  file "./../packages/ti/vlib/src/VLIB_coOccurrenceMatrix/VLIB_coOccurrenceMatrix_d.c",l
    2367 0000067a     aebd             LDW     .D2T1   *+SP(84),A3       ; |181| 
    2368 00000680 0330c286             LDHU    .D2T2   *+B12(12),B6      ; |181| 
    2369                    $C$DW$180       .dwtag  DW_TAG_TI_branch
    2370                            .dwattr $C$DW$180, DW_AT_low_pc(0x04)
    2371                            .dwattr $C$DW$180, DW_AT_name("sprintf")
    2372                            .dwattr $C$DW$180, DW_AT_TI_call
    2373                    
    2374 00000688     bc55             STW     .D2T2   B5,*+SP(4)        ; |181| 
    2375 00000684 00000011! ||         CALL    .S1     sprintf           ; |181| 
    2376                    
    2377 0000068a     9cc5             STW     .D2T2   B4,*+SP(16)       ; |181| 
    2378 0000068c 053c42f6             STW     .D2T2   B10,*+SP(8)       ; |181| 
    2379 00000690     ccb5             STW     .D2T1   A3,*+SP(24)       ; |181| 
    2380                    
    2381 00000694 01880162             ADDKPC  .S2     $C$RL20,B3,0      ; |181| 
    2382 00000692     fc65  ||         STW     .D2T2   B6,*+SP(12)       ; |181| 
    2383                    
    2384 00000698 05bce2f6             STW     .D2T2   B11,*+SP(28)      ; |181| 
    2385 000006a0           $C$RL20:   ; CALL OCCURS {sprintf} {0}       ; |181| 
    2386 000006a0           $C$DW$L$VLIB_coOccurrenceMatrix_d$53$E:
    2387                    ;** --------------------------------------------------------------------------*
    2388 000006a0           $C$DW$L$VLIB_coOccurrenceMatrix_d$54$B:
    2389                    ;          EXCLUSIVE CPU CYCLES: 16
    2390                            .dwpsn  file "./../packages/ti/vlib/src/VLIB_coOccurrenceMatrix/VLIB_coOccurrenceMatrix_d.c",l
    2391 000006a0 01ace204             LDHU    .D1T1   *+A11(14),A3      ; |183| 
    2392 000006a4 022cc204             LDHU    .D1T1   *+A11(12),A4      ; |183| 
    2393 000006a8 032ec214             LDBU    .D1T1   *+A11(22),A6      ; |183| 
    2394 000006ac 04000028!            MVKL    .S1     desc,A8
    2395 000006b0 03340fda             MV      .L2     B13,B6            ; |183| 
    2396 000006b4 04000068!            MVKH    .S1     desc,A8
    2397 000006b8 020c8f80             MPYU    .M1     A4,A3,A4          ; |183| 
    2398 000006bc 01986f80             MPYU    .M1     A3,A6,A3          ; |183| 
    2399 000006c0 042c0fda             MV      .L2     B11,B8            ; |183| 
    2400 000006c4 0210c800             MPY32   .M1     A6,A4,A4          ; |183| 
    2401                    $C$DW$181       .dwtag  DW_TAG_TI_branch
    2402                            .dwattr $C$DW$181, DW_AT_low_pc(0x04)
    2403                            .dwattr $C$DW$181, DW_AT_name("VLIB_formula_add_test")
    2404                            .dwattr $C$DW$181, DW_AT_TI_call
    2405                    
    2406 000006cc     91c7             MV      .L2X    A3,B4             ; |183| 
    2407 000006c8 10000013! ||         CALLP   .S2     VLIB_formula_add_test,B3
    2408                    
    2409 000006ce           $C$RL21:   ; CALL OCCURS {VLIB_formula_add_test} {0}  ; |183| 
    2410 000006ce           $C$DW$L$VLIB_coOccurrenceMatrix_d$54$E:
    2411                    ;** --------------------------------------------------------------------------*
    2412 000006ce           $C$DW$L$VLIB_coOccurrenceMatrix_d$55$B:
    2413                    ;          EXCLUSIVE CPU CYCLES: 6
    2414                            .dwpsn  file "./../packages/ti/vlib/src/VLIB_coOccurrenceMatrix/VLIB_coOccurrenceMatrix_d.c",l
    2415 000006ce     0d8a             B       .S1     $C$L28            ; |187| 
    2416                            .dwpsn  file "./../packages/ti/vlib/src/VLIB_coOccurrenceMatrix/VLIB_coOccurrenceMatrix_d.c",l
    2417                    ;----------------------------------------------------------------------
    2418                    ; 194 | VLIB_free(input);                                                      
    2419                    ;----------------------------------------------------------------------
    2420                    $C$DW$182       .dwtag  DW_TAG_TI_branch
TMS320C6x Assembler PC v7.4.2 Thu Mar 19 12:40:38 2015

Tools Copyright (c) 1996-2012 Texas Instruments Incorporated
package/lib/Regression/regress_d_c/./../packages/ti/vlib/src/VLIB_coOccurrenceMatrix/VLIB_coOccurrenceMatrix_d.se66 PAGE   45

    2421                            .dwattr $C$DW$182, DW_AT_low_pc(0x00)
    2422                            .dwattr $C$DW$182, DW_AT_name("VLIB_free")
    2423                            .dwattr $C$DW$182, DW_AT_TI_call
    2424 000006d0 00000010!            CALL    .S1     VLIB_free         ; |194| 
    2425 000006d4     eecd             LDW     .D2T1   *+SP(92),A4       ; |194| 
    2426 000006d6     4c6e             NOP             3
    2427                            .dwpsn  file "./../packages/ti/vlib/src/VLIB_coOccurrenceMatrix/VLIB_coOccurrenceMatrix_d.c",l
    2428                               ; BRANCH OCCURS {$C$L28}          ; |187| 
    2429 000006d8           $C$DW$L$VLIB_coOccurrenceMatrix_d$55$E:
    2430                    ;** --------------------------------------------------------------------------*
    2431 000006d8           $C$L25:    
    2432 000006d8           $C$DW$L$VLIB_coOccurrenceMatrix_d$56$B:
    2433                    ;          EXCLUSIVE CPU CYCLES: 2
    2434                            .dwpsn  file "./../packages/ti/vlib/src/VLIB_coOccurrenceMatrix/VLIB_coOccurrenceMatrix_d.c",l
    2435 000006d8 0199b078             ADD     .L1X    B6,A13,A3         ; |189| 
    2436 000006e0 020ce204             LDHU    .D1T1   *+A3(14),A4       ; |189| 
    2437 000006e4           $C$DW$L$VLIB_coOccurrenceMatrix_d$56$E:
    2438                    ;** --------------------------------------------------------------------------*
    2439 000006e4           $C$L26:    
    2440 000006e4           $C$DW$L$VLIB_coOccurrenceMatrix_d$57$B:
    2441                    ;          EXCLUSIVE CPU CYCLES: 2
    2442 000006e4 028cc204             LDHU    .D1T1   *+A3(12),A5       ; |189| 
    2443 000006e8 00000000             NOP             1
    2444 000006ec           $C$DW$L$VLIB_coOccurrenceMatrix_d$57$E:
    2445                    ;** --------------------------------------------------------------------------*
    2446 000006ec           $C$L27:    
    2447                            .dwpsn  file "./../packages/ti/vlib/src/VLIB_coOccurrenceMatrix/VLIB_coOccurrenceMatrix_d.c",l
    2448 000006ec           $C$DW$L$VLIB_coOccurrenceMatrix_d$58$B:
    2449                    ;          EXCLUSIVE CPU CYCLES: 7
    2450                    ;**     -----------------------g39:
    2451                    ;** 189 -----------------------    C$6 = U$11+v$1;
    2452                    ;** 189 -----------------------    sprintf(K$189, (const char *)"imageWidth= %d, imageHeight= %d, outW
    2453                    ;** 191 -----------------------    VLIB_skip_test(K$189);
    2454                    
    2455 000006ec 01be82e5             LDW     .D2T1   *+SP(80),A3       ; |189| 
    2456 000006f0 0200002a! ||         MVKL    .S2     $C$SL5+0,B4
    2457                    
    2458                    $C$DW$183       .dwtag  DW_TAG_TI_branch
    2459                            .dwattr $C$DW$183, DW_AT_low_pc(0x04)
    2460                            .dwattr $C$DW$183, DW_AT_name("sprintf")
    2461                            .dwattr $C$DW$183, DW_AT_TI_call
    2462                    
    2463 000006f4 0200006b!            MVKH    .S2     $C$SL5+0,B4
    2464 000006f8 00000010! ||         CALL    .S1     sprintf           ; |189| 
    2465                    
    2466                            .dwpsn  file "./../packages/ti/vlib/src/VLIB_coOccurrenceMatrix/VLIB_coOccurrenceMatrix_d.c",l
    2467 000006fc 023c22f6             STW     .D2T2   B4,*+SP(4)        ; |189| 
    2468 00000700     cc55             STW     .D2T1   A5,*+SP(8)        ; |189| 
    2469                    
    2470 00000702     ec45             STW     .D2T1   A4,*+SP(12)       ; |189| 
    2471 00000704 02000028! ||         MVKL    .S1     desc,A4
    2472                    
    2473 0000070c     8cb5             STW     .D2T1   A3,*+SP(16)       ; |189| 
    2474 00000708 02000069! ||         MVKH    .S1     desc,A4
    2475                    
TMS320C6x Assembler PC v7.4.2 Thu Mar 19 12:40:38 2015

Tools Copyright (c) 1996-2012 Texas Instruments Incorporated
package/lib/Regression/regress_d_c/./../packages/ti/vlib/src/VLIB_coOccurrenceMatrix/VLIB_coOccurrenceMatrix_d.se66 PAGE   46

    2476 0000070e     acb5             STW     .D2T1   A3,*+SP(20)       ; |189| 
    2477 00000710 01850162  ||         ADDKPC  .S2     $C$RL22,B3,0      ; |189| 
    2478                    
    2479 00000714           $C$RL22:   ; CALL OCCURS {sprintf} {0}       ; |189| 
    2480 00000714           $C$DW$L$VLIB_coOccurrenceMatrix_d$58$E:
    2481                    ;** --------------------------------------------------------------------------*
    2482 00000714           $C$DW$L$VLIB_coOccurrenceMatrix_d$59$B:
    2483                    ;          EXCLUSIVE CPU CYCLES: 12
    2484 00000714 02000028!            MVKL    .S1     desc,A4
    2485                    $C$DW$184       .dwtag  DW_TAG_TI_branch
    2486                            .dwattr $C$DW$184, DW_AT_low_pc(0x00)
    2487                            .dwattr $C$DW$184, DW_AT_name("VLIB_skip_test")
    2488                            .dwattr $C$DW$184, DW_AT_TI_call
    2489                    
    2490 00000718 10000013!            CALLP   .S2     VLIB_skip_test,B3
    2491 00000720 02000068! ||         MVKH    .S1     desc,A4
    2492                    
    2493                            .dwpsn  file "./../packages/ti/vlib/src/VLIB_coOccurrenceMatrix/VLIB_coOccurrenceMatrix_d.c",l
    2494 00000724           $C$RL23:   ; CALL OCCURS {VLIB_skip_test} {0}  ; |191| 
    2495                            .dwpsn  file "./../packages/ti/vlib/src/VLIB_coOccurrenceMatrix/VLIB_coOccurrenceMatrix_d.c",l
    2496                    $C$DW$185       .dwtag  DW_TAG_TI_branch
    2497                            .dwattr $C$DW$185, DW_AT_low_pc(0x00)
    2498                            .dwattr $C$DW$185, DW_AT_name("VLIB_free")
    2499                            .dwattr $C$DW$185, DW_AT_TI_call
    2500 00000724 00000010!            CALL    .S1     VLIB_free         ; |194| 
    2501 00000728     eecd             LDW     .D2T1   *+SP(92),A4       ; |194| 
    2502 0000072a     4c6e             NOP             3
    2503 0000072c           $C$DW$L$VLIB_coOccurrenceMatrix_d$59$E:
    2504                    ;** --------------------------------------------------------------------------*
    2505 0000072c           $C$L28:    
    2506                            .dwpsn  file "./../packages/ti/vlib/src/VLIB_coOccurrenceMatrix/VLIB_coOccurrenceMatrix_d.c",l
    2507 0000072c           $C$DW$L$VLIB_coOccurrenceMatrix_d$60$B:
    2508                    ;          EXCLUSIVE CPU CYCLES: 1
    2509                    ;**     -----------------------g40:
    2510                    ;** 194 -----------------------    VLIB_free((void *)input);
    2511                    ;** 196 -----------------------    if ( !(*U$12).numOffsets ) goto g43;
    2512                            .dwpsn  file "./../packages/ti/vlib/src/VLIB_coOccurrenceMatrix/VLIB_coOccurrenceMatrix_d.c",l
    2513 0000072c 01840162             ADDKPC  .S2     $C$RL24,B3,0      ; |194| 
    2514 00000730           $C$RL24:   ; CALL OCCURS {VLIB_free} {0}     ; |194| 
    2515 00000730           $C$DW$L$VLIB_coOccurrenceMatrix_d$60$E:
    2516                    ;** --------------------------------------------------------------------------*
    2517 00000730           $C$DW$L$VLIB_coOccurrenceMatrix_d$61$B:
    2518                    ;          EXCLUSIVE CPU CYCLES: 11
    2519                            .dwpsn  file "./../packages/ti/vlib/src/VLIB_coOccurrenceMatrix/VLIB_coOccurrenceMatrix_d.c",l
    2520                    ;----------------------------------------------------------------------
    2521                    ; 196 | for( k=0; k < prm[tpi].numOffsets; k++ ) {                             
    2522                    ;----------------------------------------------------------------------
    2523 00000730 002ec214             LDBU    .D1T1   *+A11(22),A0      ; |196| 
    2524 00000734     6c6e             NOP             4
    2525 00000736     a9fa     [!A0]   BNOP    .S1     $C$L30,5          ; |196| 
    2526                               ; BRANCHCC OCCURS {$C$L30}        ; |196| 
    2527 00000740           $C$DW$L$VLIB_coOccurrenceMatrix_d$61$E:
    2528                    ;** --------------------------------------------------------------------------*
    2529 00000740           $C$DW$L$VLIB_coOccurrenceMatrix_d$62$B:
    2530                    ;          EXCLUSIVE CPU CYCLES: 1
TMS320C6x Assembler PC v7.4.2 Thu Mar 19 12:40:38 2015

Tools Copyright (c) 1996-2012 Texas Instruments Incorporated
package/lib/Regression/regress_d_c/./../packages/ti/vlib/src/VLIB_coOccurrenceMatrix/VLIB_coOccurrenceMatrix_d.se66 PAGE   47

    2531                    ;**     -----------------------    U$35 = &O$1;
    2532                    ;** 196 -----------------------    k = 0u;
    2533                    ;**     -----------------------    #pragma LOOP_FLAGS(5120u)
    2534                    
    2535 00000740 0600a359             ZERO    .L1     A12               ; |196| 
    2536 00000744 15000afc  ||         ADDAW   .D1X    SP,10,A10
    2537                    
    2538 00000748           $C$DW$L$VLIB_coOccurrenceMatrix_d$62$E:
    2539                    ;*----------------------------------------------------------------------------*
    2540                    ;*   SOFTWARE PIPELINE INFORMATION
    2541                    ;*      Disqualified loop: Loop contains a call
    2542                    ;*      Disqualified loop: Loop contains non-pipelinable instructions
    2543                    ;*      Disqualified loop: Loop contains a call
    2544                    ;*      Disqualified loop: Loop contains non-pipelinable instructions
    2545                    ;*----------------------------------------------------------------------------*
    2546 00000748           $C$L29:    
    2547                            .dwpsn  file "./../packages/ti/vlib/src/VLIB_coOccurrenceMatrix/VLIB_coOccurrenceMatrix_d.c",l
    2548 00000748           $C$DW$L$VLIB_coOccurrenceMatrix_d$63$B:
    2549                    ;          EXCLUSIVE CPU CYCLES: 6
    2550                    ;**     -----------------------g42:
    2551                    ;** 197 -----------------------    VLIB_free(U$35[4]);
    2552                    ;** 198 -----------------------    free(*U$35++);
    2553                    ;** 196 -----------------------    if ( (unsigned)(*U$12).numOffsets > (++k) ) goto g42;
    2554                            .dwpsn  file "./../packages/ti/vlib/src/VLIB_coOccurrenceMatrix/VLIB_coOccurrenceMatrix_d.c",l
    2555                    ;----------------------------------------------------------------------
    2556                    ; 197 | VLIB_free(outMatrix[k]);                                               
    2557                    ;----------------------------------------------------------------------
    2558                    $C$DW$186       .dwtag  DW_TAG_TI_branch
    2559                            .dwattr $C$DW$186, DW_AT_low_pc(0x00)
    2560                            .dwattr $C$DW$186, DW_AT_name("VLIB_free")
    2561                            .dwattr $C$DW$186, DW_AT_TI_call
    2562 00000748 00000010!            CALL    .S1     VLIB_free         ; |197| 
    2563 0000074c 02288264             LDW     .D1T1   *+A10(16),A4      ; |197| 
    2564 00000750 01856162             ADDKPC  .S2     $C$RL25,B3,3      ; |197| 
    2565                    $C$RL25:   ; CALL OCCURS {VLIB_free} {0}     ; |197| 
    2566                    $C$DW$L$VLIB_coOccurrenceMatrix_d$63$E:
    2567                    ;** --------------------------------------------------------------------------*
    2568                    $C$DW$L$VLIB_coOccurrenceMatrix_d$64$B:
    2569                    ;          EXCLUSIVE CPU CYCLES: 6
    2570                    $C$DW$187       .dwtag  DW_TAG_TI_branch
    2571                            .dwattr $C$DW$187, DW_AT_low_pc(0x00)
    2572                            .dwattr $C$DW$187, DW_AT_name("free")
    2573                            .dwattr $C$DW$187, DW_AT_TI_call
    2574                    
    2575 00000754 10000013!            CALLP   .S2     free,B3
    2576 00000758 02283664  ||         LDW     .D1T1   *A10++,A4         ; |198| 
    2577                    
    2578                            .dwpsn  file "./../packages/ti/vlib/src/VLIB_coOccurrenceMatrix/VLIB_coOccurrenceMatrix_d.c",l
    2579                    ;----------------------------------------------------------------------
    2580                    ; 198 | free(outMatrix_cn[k]);                                                 
    2581                    ;----------------------------------------------------------------------
    2582 0000075c           $C$RL26:   ; CALL OCCURS {free} {0}          ; |198| 
    2583 0000075c           $C$DW$L$VLIB_coOccurrenceMatrix_d$64$E:
    2584                    ;** --------------------------------------------------------------------------*
    2585 0000075c           $C$DW$L$VLIB_coOccurrenceMatrix_d$65$B:
TMS320C6x Assembler PC v7.4.2 Thu Mar 19 12:40:38 2015

Tools Copyright (c) 1996-2012 Texas Instruments Incorporated
package/lib/Regression/regress_d_c/./../packages/ti/vlib/src/VLIB_coOccurrenceMatrix/VLIB_coOccurrenceMatrix_d.se66 PAGE   48

    2586                    ;          EXCLUSIVE CPU CYCLES: 12
    2587                            .dwpsn  file "./../packages/ti/vlib/src/VLIB_coOccurrenceMatrix/VLIB_coOccurrenceMatrix_d.c",l
    2588 0000075c 01aec214             LDBU    .D1T1   *+A11(22),A3      ; |196| 
    2589 00000760 06302058             ADD     .L1     1,A12,A12         ; |196| 
    2590 00000764 00004000             NOP             3
    2591 00000768 003069f8             CMPGTU  .L1     A3,A12,A0         ; |196| 
    2592 0000076c     bd2a     [ A0]   BNOP    .S1     $C$L29,5          ; |196| 
    2593                               ; BRANCHCC OCCURS {$C$L29}        ; |196| 
    2594 0000076e           $C$DW$L$VLIB_coOccurrenceMatrix_d$65$E:
    2595                    ;** --------------------------------------------------------------------------*
    2596 0000076e           $C$L30:    
    2597 0000076e           $C$DW$L$VLIB_coOccurrenceMatrix_d$66$B:
    2598                    ;          EXCLUSIVE CPU CYCLES: 11
    2599                    ;**     -----------------------g43:
    2600                    ;** 201 -----------------------    if ( scratch == NULL ) goto g45;
    2601 0000076e     ce8d             LDW     .D2T1   *+SP(88),A0
    2602 00000770     6c6e             NOP             4
    2603                            .dwpsn  file "./../packages/ti/vlib/src/VLIB_coOccurrenceMatrix/VLIB_coOccurrenceMatrix_d.c",l
    2604                    ;----------------------------------------------------------------------
    2605                    ; 201 | if( scratch != NULL ) {                                                
    2606                    ;----------------------------------------------------------------------
    2607 00000772     053a     [!A0]   B       .S1     $C$L31            ; |201| 
    2608                            .dwpsn  file "./../packages/ti/vlib/src/VLIB_coOccurrenceMatrix/VLIB_coOccurrenceMatrix_d.c",l
    2609                    ;----------------------------------------------------------------------
    2610                    ; 202 | free(scratch);                                                         
    2611                    ;----------------------------------------------------------------------
    2612                    $C$DW$188       .dwtag  DW_TAG_TI_branch
    2613                            .dwattr $C$DW$188, DW_AT_low_pc(0x00)
    2614                            .dwattr $C$DW$188, DW_AT_name("free")
    2615                            .dwattr $C$DW$188, DW_AT_TI_call
    2616 00000774 c0000010!    [ A0]   CALL    .S1     free              ; |202| 
    2617 00000778     6c6e             NOP             4
    2618                            .dwpsn  file "./../packages/ti/vlib/src/VLIB_coOccurrenceMatrix/VLIB_coOccurrenceMatrix_d.c",l
    2619                               ; BRANCHCC OCCURS {$C$L31}        ; |201| 
    2620 00000780           $C$DW$L$VLIB_coOccurrenceMatrix_d$66$E:
    2621                    ;** --------------------------------------------------------------------------*
    2622 00000780           $C$DW$L$VLIB_coOccurrenceMatrix_d$67$B:
    2623                    ;          EXCLUSIVE CPU CYCLES: 1
    2624                    ;** 202 -----------------------    free((void *)scratch);
    2625                    
    2626 00000780 02000fd9             MV      .L1     A0,A4             ; |202| 
    2627 00000784 01820162  ||         ADDKPC  .S2     $C$RL27,B3,0      ; |202| 
    2628                    
    2629                            .dwpsn  file "./../packages/ti/vlib/src/VLIB_coOccurrenceMatrix/VLIB_coOccurrenceMatrix_d.c",l
    2630 00000788           $C$RL27:   ; CALL OCCURS {free} {0}          ; |202| 
    2631 00000788           $C$DW$L$VLIB_coOccurrenceMatrix_d$67$E:
    2632                    ;** --------------------------------------------------------------------------*
    2633 00000788           $C$L31:    
    2634                            .dwpsn  file "./../packages/ti/vlib/src/VLIB_coOccurrenceMatrix/VLIB_coOccurrenceMatrix_d.c",l
    2635 00000788           $C$DW$L$VLIB_coOccurrenceMatrix_d$68$B:
    2636                    ;          EXCLUSIVE CPU CYCLES: 14
    2637                    ;**     -----------------------g45:
    2638                    ;** 58  -----------------------    U$11 += 32;
    2639                    ;** 58  -----------------------    if ( test_cases > (++tpi) ) goto g3;
    2640                    
TMS320C6x Assembler PC v7.4.2 Thu Mar 19 12:40:38 2015

Tools Copyright (c) 1996-2012 Texas Instruments Incorporated
package/lib/Regression/regress_d_c/./../packages/ti/vlib/src/VLIB_coOccurrenceMatrix/VLIB_coOccurrenceMatrix_d.se66 PAGE   49

    2641 00000788 01800029!            MVKL    .S1     test_cases,A3
    2642 0000078c 0fbe62e4  ||         LDW     .D2T1   *+SP(76),A31
    2643                    
    2644 00000790 01800068!            MVKH    .S1     test_cases,A3
    2645                            .dwpsn  file "./../packages/ti/vlib/src/VLIB_coOccurrenceMatrix/VLIB_coOccurrenceMatrix_d.c",l
    2646 00000794 020c0264             LDW     .D1T1   *A3,A4            ; |58| 
    2647                            .dwpsn  file "./../packages/ti/vlib/src/VLIB_coOccurrenceMatrix/VLIB_coOccurrenceMatrix_d.c",l
    2648 00000798 05801050             ADDK    .S1     32,A11            ; |60| 
    2649                            .dwpsn  file "./../packages/ti/vlib/src/VLIB_coOccurrenceMatrix/VLIB_coOccurrenceMatrix_d.c",l
    2650 0000079c 06801050             ADDK    .S1     32,A13            ; |58| 
    2651 000007a0 01fc2058             ADD     .L1     1,A31,A3          ; |58| 
    2652 000007a4     ee35             STW     .D2T1   A3,*+SP(76)       ; |58| 
    2653 000007a6     8da8             CMPGT   .L1     A4,A3,A0          ; |58| 
    2654                    
    2655 000007a8 cfff1a11     [ A0]   B       .S1     $C$L1             ; |58| 
    2656 000007ac c22ce204  || [ A0]   LDHU    .D1T1   *+A11(14),A4      ; |73| 
    2657                    
    2658                            .dwpsn  file "./../packages/ti/vlib/src/VLIB_coOccurrenceMatrix/VLIB_coOccurrenceMatrix_d.c",l
    2659 000007b0 c1ad0204     [ A0]   LDHU    .D1T1   *+A11(16),A3      ; |73| 
    2660 000007b4 00006000             NOP             4
    2661                            .dwpsn  file "./../packages/ti/vlib/src/VLIB_coOccurrenceMatrix/VLIB_coOccurrenceMatrix_d.c",l
    2662                               ; BRANCHCC OCCURS {$C$L1}         ; |58| 
    2663 000007b8           $C$DW$L$VLIB_coOccurrenceMatrix_d$68$E:
    2664                    ;** --------------------------------------------------------------------------*
    2665 000007b8           $C$L32:    
    2666                    ;          EXCLUSIVE CPU CYCLES: 7
    2667                    ;**     -----------------------g46:
    2668                    ;** 207 -----------------------    VLIB_profile_setMode(1, 4, "Scratch used; internal LUT not required
    2669                    ;** 208 -----------------------    VLIB_profile_cycle_report(1, NULL, C$5 = "imageWidth*imageHeight*nu
    2670                    ;** 212 -----------------------    VLIB_profile_setMode(2, 4, "Scratch used; internal LUT required", 0
    2671                    ;** 213 -----------------------    VLIB_profile_cycle_report(1, NULL, C$5);
    2672                    ;** 217 -----------------------    VLIB_profile_setMode(3, 4, "Scratch not used; internal LUT required
    2673                    ;** 218 -----------------------    VLIB_profile_cycle_report(1, NULL, C$5);
    2674                    ;** 158 -----------------------    printf((const char *)"---------------------------------------------
    2675                    ;** 165 -----------------------    VLIB_stack_memory();  // [18]
    2676                    ;**     -----------------------    return;
    2677 000007b8 03000028!            MVKL    .S1     $C$SL6+0,A6
    2678                    $C$DW$189       .dwtag  DW_TAG_TI_branch
    2679                            .dwattr $C$DW$189, DW_AT_low_pc(0x00)
    2680                            .dwattr $C$DW$189, DW_AT_name("VLIB_profile_setMode")
    2681                            .dwattr $C$DW$189, DW_AT_TI_call
    2682                    
    2683 000007c0 10000013!            CALLP   .S2     VLIB_profile_setMode,B3
    2684 000007c4 03000069! ||         MVKH    .S1     $C$SL6+0,A6
    2685 000007c8     2626  ||         MVK     .L1     0x1,A4            ; |207| 
    2686 000007ca     8627  ||         MVK     .L2     0x4,B4            ; |207| 
    2687 000007cc 03000042  ||         ZERO    .D2     B6                ; |207| 
    2688                    
    2689                            .dwpsn  file "./../packages/ti/vlib/src/VLIB_coOccurrenceMatrix/VLIB_coOccurrenceMatrix_d.c",l
    2690                    ;----------------------------------------------------------------------
    2691                    ; 207 | VLIB_profile_setMode(1, 4, "Scratch used; internal LUT not required", 0
    2692                    ;     | ); /* Mode 1 */                                                        
    2693                    ;----------------------------------------------------------------------
    2694 000007d0           $C$RL28:   ; CALL OCCURS {VLIB_profile_setMode} {0}  ; |207| 
    2695                    ;** --------------------------------------------------------------------------*
TMS320C6x Assembler PC v7.4.2 Thu Mar 19 12:40:38 2015

Tools Copyright (c) 1996-2012 Texas Instruments Incorporated
package/lib/Regression/regress_d_c/./../packages/ti/vlib/src/VLIB_coOccurrenceMatrix/VLIB_coOccurrenceMatrix_d.se66 PAGE   50

    2696                    ;          EXCLUSIVE CPU CYCLES: 48
    2697 000007d0 05000028!            MVKL    .S1     $C$SL7+0,A10
    2698 000007d4 05000068!            MVKH    .S1     $C$SL7+0,A10
    2699                    $C$DW$190       .dwtag  DW_TAG_TI_branch
    2700                            .dwattr $C$DW$190, DW_AT_low_pc(0x00)
    2701                            .dwattr $C$DW$190, DW_AT_name("VLIB_profile_cycle_report")
    2702                            .dwattr $C$DW$190, DW_AT_TI_call
    2703                    
    2704 000007d8 10000013!            CALLP   .S2     VLIB_profile_cycle_report,B3
    2705 000007e0     c506  ||         MV      .L1     A10,A6            ; |208| 
    2706 000007e2     2212  ||         MVK     .S1     0x1,A4            ; |208| 
    2707 000007e4 0200a35a  ||         ZERO    .L2     B4                ; |208| 
    2708                    
    2709                            .dwpsn  file "./../packages/ti/vlib/src/VLIB_coOccurrenceMatrix/VLIB_coOccurrenceMatrix_d.c",l
    2710                    ;----------------------------------------------------------------------
    2711                    ; 208 | VLIB_profile_cycle_report(vlib_PROFILE_RANGE,                          
    2712                    ; 209 |                           NULL,                                        
    2713                    ; 210 |                           "imageWidth*imageHeight*numOffsets");        
    2714                    ;----------------------------------------------------------------------
    2715 000007e8           $C$RL29:   ; CALL OCCURS {VLIB_profile_cycle_report} {0}  ; |208| 
    2716 000007e8 03000028!            MVKL    .S1     $C$SL8+0,A6
    2717                    $C$DW$191       .dwtag  DW_TAG_TI_branch
    2718                            .dwattr $C$DW$191, DW_AT_low_pc(0x00)
    2719                            .dwattr $C$DW$191, DW_AT_name("VLIB_profile_setMode")
    2720                            .dwattr $C$DW$191, DW_AT_TI_call
    2721                    
    2722 000007ec 10000013!            CALLP   .S2     VLIB_profile_setMode,B3
    2723 000007f0 03000069! ||         MVKH    .S1     $C$SL8+0,A6
    2724 000007f4     0727  ||         ZERO    .L2     B6                ; |212| 
    2725 000007f6     4626  ||         MVK     .L1     0x2,A4            ; |212| 
    2726 000007f8 02008042  ||         MVK     .D2     0x4,B4            ; |212| 
    2727                    
    2728                            .dwpsn  file "./../packages/ti/vlib/src/VLIB_coOccurrenceMatrix/VLIB_coOccurrenceMatrix_d.c",l
    2729                    ;----------------------------------------------------------------------
    2730                    ; 212 | VLIB_profile_setMode(2, 4, "Scratch used; internal LUT required", 0);
    2731                    ;     |    /* Mode 2 */                                                        
    2732                    ;----------------------------------------------------------------------
    2733                    $C$RL30:   ; CALL OCCURS {VLIB_profile_setMode} {0}  ; |212| 
    2734                    $C$DW$192       .dwtag  DW_TAG_TI_branch
    2735                            .dwattr $C$DW$192, DW_AT_low_pc(0x00)
    2736                            .dwattr $C$DW$192, DW_AT_name("VLIB_profile_cycle_report")
    2737                            .dwattr $C$DW$192, DW_AT_TI_call
    2738                    
    2739 00000800 10000013!            CALLP   .S2     VLIB_profile_cycle_report,B3
    2740 00000804     c506  ||         MV      .L1     A10,A6            ; |213| 
    2741 00000806     2212  ||         MVK     .S1     0x1,A4            ; |213| 
    2742 00000808 0200a35a  ||         ZERO    .L2     B4                ; |213| 
    2743                    
    2744                            .dwpsn  file "./../packages/ti/vlib/src/VLIB_coOccurrenceMatrix/VLIB_coOccurrenceMatrix_d.c",l
    2745                    ;----------------------------------------------------------------------
    2746                    ; 213 | VLIB_profile_cycle_report(vlib_PROFILE_RANGE,                          
    2747                    ; 214 |                           NULL,                                        
    2748                    ; 215 |                           "imageWidth*imageHeight*numOffsets");        
    2749                    ;----------------------------------------------------------------------
    2750 0000080c           $C$RL31:   ; CALL OCCURS {VLIB_profile_cycle_report} {0}  ; |213| 
TMS320C6x Assembler PC v7.4.2 Thu Mar 19 12:40:38 2015

Tools Copyright (c) 1996-2012 Texas Instruments Incorporated
package/lib/Regression/regress_d_c/./../packages/ti/vlib/src/VLIB_coOccurrenceMatrix/VLIB_coOccurrenceMatrix_d.se66 PAGE   51

    2751 0000080c 03000028!            MVKL    .S1     $C$SL9+0,A6
    2752                    $C$DW$193       .dwtag  DW_TAG_TI_branch
    2753                            .dwattr $C$DW$193, DW_AT_low_pc(0x00)
    2754                            .dwattr $C$DW$193, DW_AT_name("VLIB_profile_setMode")
    2755                            .dwattr $C$DW$193, DW_AT_TI_call
    2756                    
    2757 00000810 10000013!            CALLP   .S2     VLIB_profile_setMode,B3
    2758 00000814 03000069! ||         MVKH    .S1     $C$SL9+0,A6
    2759 00000818     2727  ||         MVK     .L2     0x1,B6            ; |217| 
    2760 0000081a     6626  ||         MVK     .L1     0x3,A4            ; |217| 
    2761 00000820 02008042  ||         MVK     .D2     0x4,B4            ; |217| 
    2762                    
    2763                            .dwpsn  file "./../packages/ti/vlib/src/VLIB_coOccurrenceMatrix/VLIB_coOccurrenceMatrix_d.c",l
    2764                    ;----------------------------------------------------------------------
    2765                    ; 217 | VLIB_profile_setMode(3, 4, "Scratch not used; internal LUT required", 1
    2766                    ;     | ); /* Mode 3 */                                                        
    2767                    ;----------------------------------------------------------------------
    2768                    $C$RL32:   ; CALL OCCURS {VLIB_profile_setMode} {0}  ; |217| 
    2769                    $C$DW$194       .dwtag  DW_TAG_TI_branch
    2770                            .dwattr $C$DW$194, DW_AT_low_pc(0x00)
    2771                            .dwattr $C$DW$194, DW_AT_name("VLIB_profile_cycle_report")
    2772                            .dwattr $C$DW$194, DW_AT_TI_call
    2773                    
    2774 00000824 10000013!            CALLP   .S2     VLIB_profile_cycle_report,B3
    2775 00000828     c506  ||         MV      .L1     A10,A6            ; |218| 
    2776 0000082a     2212  ||         MVK     .S1     0x1,A4            ; |218| 
    2777 0000082c 0200a35a  ||         ZERO    .L2     B4                ; |218| 
    2778                    
    2779                            .dwpsn  file "./../packages/ti/vlib/src/VLIB_coOccurrenceMatrix/VLIB_coOccurrenceMatrix_d.c",l
    2780                    ;----------------------------------------------------------------------
    2781                    ; 218 | VLIB_profile_cycle_report(vlib_PROFILE_RANGE,                          
    2782                    ; 219 |                           NULL,                                        
    2783                    ; 220 |                           "imageWidth*imageHeight*numOffsets");        
    2784                    ; 223 | VLIB_kernel_memory();                                                  
    2785                    ;----------------------------------------------------------------------
    2786 00000830           $C$RL33:   ; CALL OCCURS {VLIB_profile_cycle_report} {0}  ; |218| 
    2787 00000830 0200002a!            MVKL    .S2     $C$SL10+0,B4
    2788 00000834 0200006a!            MVKH    .S2     $C$SL10+0,B4
    2789                    $C$DW$195       .dwtag  DW_TAG_TI_branch
    2790                            .dwattr $C$DW$195, DW_AT_low_pc(0x00)
    2791                            .dwattr $C$DW$195, DW_AT_name("printf")
    2792                            .dwattr $C$DW$195, DW_AT_TI_call
    2793                    
    2794 00000838 10000013!            CALLP   .S2     printf,B3
    2795 00000840 023c22f6  ||         STW     .D2T2   B4,*+SP(4)        ; |158| 
    2796                    
    2797                            .dwpsn  file ".\..\packages\ti\vlib\src\VLIB_coOccurrenceMatrix\../common/VLIB_memory.h",line 
    2798                    $C$RL34:   ; CALL OCCURS {printf} {0}        ; |158| 
    2799                    $C$DW$196       .dwtag  DW_TAG_TI_branch
    2800                            .dwattr $C$DW$196, DW_AT_low_pc(0x00)
    2801                            .dwattr $C$DW$196, DW_AT_name("VLIB_stack_memory")
    2802                            .dwattr $C$DW$196, DW_AT_TI_call
    2803 00000844 10000012!            CALLP   .S2     VLIB_stack_memory,B3
    2804                            .dwpsn  file ".\..\packages\ti\vlib\src\VLIB_coOccurrenceMatrix\../common/VLIB_memory.h",line 
    2805 00000848           $C$RL35:   ; CALL OCCURS {VLIB_stack_memory} {0}  ; |165| 
TMS320C6x Assembler PC v7.4.2 Thu Mar 19 12:40:38 2015

Tools Copyright (c) 1996-2012 Texas Instruments Incorporated
package/lib/Regression/regress_d_c/./../packages/ti/vlib/src/VLIB_coOccurrenceMatrix/VLIB_coOccurrenceMatrix_d.se66 PAGE   52

    2806                    ;** --------------------------------------------------------------------------*
    2807                    ;          EXCLUSIVE CPU CYCLES: 13
    2808                            .dwpsn  file "./../packages/ti/vlib/src/VLIB_coOccurrenceMatrix/VLIB_coOccurrenceMatrix_d.c",l
    2809 00000848 01bf52e6             LDW     .D2T2   *++SP(104),B3     ; |225| 
    2810                            .dwcfi  cfa_offset, 48
    2811                            .dwcfi  restore_reg, 19
    2812 0000084c     c677             LDDW    .D2T1   *++SP,A13:A12
    2813                            .dwcfi  cfa_offset, 40
    2814                            .dwcfi  restore_reg, 13
    2815                            .dwcfi  restore_reg, 12
    2816 0000084e     c777             LDDW    .D2T1   *++SP,A15:A14
    2817                            .dwcfi  cfa_offset, 32
    2818                            .dwcfi  restore_reg, 15
    2819                            .dwcfi  restore_reg, 14
    2820 00000850     d577             LDDW    .D2T2   *++SP,B11:B10
    2821                            .dwcfi  cfa_offset, 24
    2822                            .dwcfi  restore_reg, 27
    2823                            .dwcfi  restore_reg, 26
    2824 00000852     d677             LDDW    .D2T2   *++SP,B13:B12
    2825                            .dwcfi  cfa_offset, 16
    2826                            .dwcfi  restore_reg, 29
    2827                            .dwcfi  restore_reg, 28
    2828 00000854     6577             LDW     .D2T1   *++SP(8),A10
    2829                            .dwcfi  cfa_offset, 8
    2830                            .dwcfi  restore_reg, 10
    2831 00000856     65f7             LDW     .D2T1   *++SP(8),A11      ; |225| 
    2832                            .dwcfi  cfa_offset, 0
    2833                            .dwcfi  restore_reg, 11
    2834                            .dwcfi  cfa_offset, 0
    2835                    $C$DW$197       .dwtag  DW_TAG_TI_branch
    2836                            .dwattr $C$DW$197, DW_AT_low_pc(0x00)
    2837                            .dwattr $C$DW$197, DW_AT_TI_return
    2838 00000858 008ca362             RETNOP  .S2     B3,5
    2839                               ; BRANCH OCCURS {B3}  
    2840                    
    2841                    $C$DW$198       .dwtag  DW_TAG_TI_loop
    2842                            .dwattr $C$DW$198, DW_AT_name("c:\nightlybuilds\vlib\ti\vlib\vlib\examples\package/lib/Regress
    2843                            .dwattr $C$DW$198, DW_AT_TI_begin_file("./../packages/ti/vlib/src/VLIB_coOccurrenceMatrix/VLIB
    2844                            .dwattr $C$DW$198, DW_AT_TI_begin_line(0x3a)
    2845                            .dwattr $C$DW$198, DW_AT_TI_end_line(0xcc)
    2846                    $C$DW$199       .dwtag  DW_TAG_TI_loop_range
    2847                            .dwattr $C$DW$199, DW_AT_low_pc($C$DW$L$VLIB_coOccurrenceMatrix_d$4$B)
    2848                            .dwattr $C$DW$199, DW_AT_high_pc($C$DW$L$VLIB_coOccurrenceMatrix_d$4$E)
    2849                    $C$DW$200       .dwtag  DW_TAG_TI_loop_range
    2850                            .dwattr $C$DW$200, DW_AT_low_pc($C$DW$L$VLIB_coOccurrenceMatrix_d$62$B)
    2851                            .dwattr $C$DW$200, DW_AT_high_pc($C$DW$L$VLIB_coOccurrenceMatrix_d$62$E)
    2852                    $C$DW$201       .dwtag  DW_TAG_TI_loop_range
    2853                            .dwattr $C$DW$201, DW_AT_low_pc($C$DW$L$VLIB_coOccurrenceMatrix_d$56$B)
    2854                            .dwattr $C$DW$201, DW_AT_high_pc($C$DW$L$VLIB_coOccurrenceMatrix_d$56$E)
    2855                    $C$DW$202       .dwtag  DW_TAG_TI_loop_range
    2856                            .dwattr $C$DW$202, DW_AT_low_pc($C$DW$L$VLIB_coOccurrenceMatrix_d$57$B)
    2857                            .dwattr $C$DW$202, DW_AT_high_pc($C$DW$L$VLIB_coOccurrenceMatrix_d$57$E)
    2858                    $C$DW$203       .dwtag  DW_TAG_TI_loop_range
    2859                            .dwattr $C$DW$203, DW_AT_low_pc($C$DW$L$VLIB_coOccurrenceMatrix_d$58$B)
    2860                            .dwattr $C$DW$203, DW_AT_high_pc($C$DW$L$VLIB_coOccurrenceMatrix_d$58$E)
TMS320C6x Assembler PC v7.4.2 Thu Mar 19 12:40:38 2015

Tools Copyright (c) 1996-2012 Texas Instruments Incorporated
package/lib/Regression/regress_d_c/./../packages/ti/vlib/src/VLIB_coOccurrenceMatrix/VLIB_coOccurrenceMatrix_d.se66 PAGE   53

    2861                    $C$DW$204       .dwtag  DW_TAG_TI_loop_range
    2862                            .dwattr $C$DW$204, DW_AT_low_pc($C$DW$L$VLIB_coOccurrenceMatrix_d$51$B)
    2863                            .dwattr $C$DW$204, DW_AT_high_pc($C$DW$L$VLIB_coOccurrenceMatrix_d$51$E)
    2864                    $C$DW$205       .dwtag  DW_TAG_TI_loop_range
    2865                            .dwattr $C$DW$205, DW_AT_low_pc($C$DW$L$VLIB_coOccurrenceMatrix_d$35$B)
    2866                            .dwattr $C$DW$205, DW_AT_high_pc($C$DW$L$VLIB_coOccurrenceMatrix_d$35$E)
    2867                    $C$DW$206       .dwtag  DW_TAG_TI_loop_range
    2868                            .dwattr $C$DW$206, DW_AT_low_pc($C$DW$L$VLIB_coOccurrenceMatrix_d$34$B)
    2869                            .dwattr $C$DW$206, DW_AT_high_pc($C$DW$L$VLIB_coOccurrenceMatrix_d$34$E)
    2870                    $C$DW$207       .dwtag  DW_TAG_TI_loop_range
    2871                            .dwattr $C$DW$207, DW_AT_low_pc($C$DW$L$VLIB_coOccurrenceMatrix_d$19$B)
    2872                            .dwattr $C$DW$207, DW_AT_high_pc($C$DW$L$VLIB_coOccurrenceMatrix_d$19$E)
    2873                    $C$DW$208       .dwtag  DW_TAG_TI_loop_range
    2874                            .dwattr $C$DW$208, DW_AT_low_pc($C$DW$L$VLIB_coOccurrenceMatrix_d$11$B)
    2875                            .dwattr $C$DW$208, DW_AT_high_pc($C$DW$L$VLIB_coOccurrenceMatrix_d$11$E)
    2876                    $C$DW$209       .dwtag  DW_TAG_TI_loop_range
    2877                            .dwattr $C$DW$209, DW_AT_low_pc($C$DW$L$VLIB_coOccurrenceMatrix_d$6$B)
    2878                            .dwattr $C$DW$209, DW_AT_high_pc($C$DW$L$VLIB_coOccurrenceMatrix_d$6$E)
    2879                    $C$DW$210       .dwtag  DW_TAG_TI_loop_range
    2880                            .dwattr $C$DW$210, DW_AT_low_pc($C$DW$L$VLIB_coOccurrenceMatrix_d$5$B)
    2881                            .dwattr $C$DW$210, DW_AT_high_pc($C$DW$L$VLIB_coOccurrenceMatrix_d$5$E)
    2882                    $C$DW$211       .dwtag  DW_TAG_TI_loop_range
    2883                            .dwattr $C$DW$211, DW_AT_low_pc($C$DW$L$VLIB_coOccurrenceMatrix_d$10$B)
    2884                            .dwattr $C$DW$211, DW_AT_high_pc($C$DW$L$VLIB_coOccurrenceMatrix_d$10$E)
    2885                    $C$DW$212       .dwtag  DW_TAG_TI_loop_range
    2886                            .dwattr $C$DW$212, DW_AT_low_pc($C$DW$L$VLIB_coOccurrenceMatrix_d$12$B)
    2887                            .dwattr $C$DW$212, DW_AT_high_pc($C$DW$L$VLIB_coOccurrenceMatrix_d$12$E)
    2888                    $C$DW$213       .dwtag  DW_TAG_TI_loop_range
    2889                            .dwattr $C$DW$213, DW_AT_low_pc($C$DW$L$VLIB_coOccurrenceMatrix_d$13$B)
    2890                            .dwattr $C$DW$213, DW_AT_high_pc($C$DW$L$VLIB_coOccurrenceMatrix_d$13$E)
    2891                    $C$DW$214       .dwtag  DW_TAG_TI_loop_range
    2892                            .dwattr $C$DW$214, DW_AT_low_pc($C$DW$L$VLIB_coOccurrenceMatrix_d$14$B)
    2893                            .dwattr $C$DW$214, DW_AT_high_pc($C$DW$L$VLIB_coOccurrenceMatrix_d$14$E)
    2894                    $C$DW$215       .dwtag  DW_TAG_TI_loop_range
    2895                            .dwattr $C$DW$215, DW_AT_low_pc($C$DW$L$VLIB_coOccurrenceMatrix_d$15$B)
    2896                            .dwattr $C$DW$215, DW_AT_high_pc($C$DW$L$VLIB_coOccurrenceMatrix_d$15$E)
    2897                    $C$DW$216       .dwtag  DW_TAG_TI_loop_range
    2898                            .dwattr $C$DW$216, DW_AT_low_pc($C$DW$L$VLIB_coOccurrenceMatrix_d$16$B)
    2899                            .dwattr $C$DW$216, DW_AT_high_pc($C$DW$L$VLIB_coOccurrenceMatrix_d$16$E)
    2900                    $C$DW$217       .dwtag  DW_TAG_TI_loop_range
    2901                            .dwattr $C$DW$217, DW_AT_low_pc($C$DW$L$VLIB_coOccurrenceMatrix_d$17$B)
    2902                            .dwattr $C$DW$217, DW_AT_high_pc($C$DW$L$VLIB_coOccurrenceMatrix_d$17$E)
    2903                    $C$DW$218       .dwtag  DW_TAG_TI_loop_range
    2904                            .dwattr $C$DW$218, DW_AT_low_pc($C$DW$L$VLIB_coOccurrenceMatrix_d$18$B)
    2905                            .dwattr $C$DW$218, DW_AT_high_pc($C$DW$L$VLIB_coOccurrenceMatrix_d$18$E)
    2906                    $C$DW$219       .dwtag  DW_TAG_TI_loop_range
    2907                            .dwattr $C$DW$219, DW_AT_low_pc($C$DW$L$VLIB_coOccurrenceMatrix_d$33$B)
    2908                            .dwattr $C$DW$219, DW_AT_high_pc($C$DW$L$VLIB_coOccurrenceMatrix_d$33$E)
    2909                    $C$DW$220       .dwtag  DW_TAG_TI_loop_range
    2910                            .dwattr $C$DW$220, DW_AT_low_pc($C$DW$L$VLIB_coOccurrenceMatrix_d$49$B)
    2911                            .dwattr $C$DW$220, DW_AT_high_pc($C$DW$L$VLIB_coOccurrenceMatrix_d$49$E)
    2912                    $C$DW$221       .dwtag  DW_TAG_TI_loop_range
    2913                            .dwattr $C$DW$221, DW_AT_low_pc($C$DW$L$VLIB_coOccurrenceMatrix_d$50$B)
    2914                            .dwattr $C$DW$221, DW_AT_high_pc($C$DW$L$VLIB_coOccurrenceMatrix_d$50$E)
    2915                    $C$DW$222       .dwtag  DW_TAG_TI_loop_range
TMS320C6x Assembler PC v7.4.2 Thu Mar 19 12:40:38 2015

Tools Copyright (c) 1996-2012 Texas Instruments Incorporated
package/lib/Regression/regress_d_c/./../packages/ti/vlib/src/VLIB_coOccurrenceMatrix/VLIB_coOccurrenceMatrix_d.se66 PAGE   54

    2916                            .dwattr $C$DW$222, DW_AT_low_pc($C$DW$L$VLIB_coOccurrenceMatrix_d$52$B)
    2917                            .dwattr $C$DW$222, DW_AT_high_pc($C$DW$L$VLIB_coOccurrenceMatrix_d$52$E)
    2918                    $C$DW$223       .dwtag  DW_TAG_TI_loop_range
    2919                            .dwattr $C$DW$223, DW_AT_low_pc($C$DW$L$VLIB_coOccurrenceMatrix_d$53$B)
    2920                            .dwattr $C$DW$223, DW_AT_high_pc($C$DW$L$VLIB_coOccurrenceMatrix_d$53$E)
    2921                    $C$DW$224       .dwtag  DW_TAG_TI_loop_range
    2922                            .dwattr $C$DW$224, DW_AT_low_pc($C$DW$L$VLIB_coOccurrenceMatrix_d$54$B)
    2923                            .dwattr $C$DW$224, DW_AT_high_pc($C$DW$L$VLIB_coOccurrenceMatrix_d$54$E)
    2924                    $C$DW$225       .dwtag  DW_TAG_TI_loop_range
