TMS320C6x Assembler PC v7.4.2 Thu Mar 19 12:43:10 2015

Tools Copyright (c) 1996-2012 Texas Instruments Incorporated
package/lib/Regression/regress_d_c/./../packages/ti/vlib/src/VLIB_L2_norm_f32/VLIB_L2_norm_f32_d.se66 PAGE    1

       1                    ;******************************************************************************
       2                    ;* TMS320C6x C/C++ Codegen                                          PC v7.4.2 *
       3                    ;* Date/Time created: Thu Mar 19 12:43:10 2015                                *
       4                    ;******************************************************************************
       5                            .compiler_opts --abi=eabi --c64p_l1d_workaround=off --endian=little --hll_source=on --long_pre
       6                    
       7                    ;******************************************************************************
       8                    ;* GLOBAL FILE PARAMETERS                                                     *
       9                    ;*                                                                            *
      10                    ;*   Architecture      : TMS320C66xx                                          *
      11                    ;*   Optimization      : Enabled at level 3                                   *
      12                    ;*   Optimizing for    : Speed                                                *
      13                    ;*                       Based on options: -o3, no -ms                        *
      14                    ;*   Endian            : Little                                               *
      15                    ;*   Interrupt Thrshld : 10000                                                *
      16                    ;*   Data Access Model : Far                                                  *
      17                    ;*   Pipelining        : Enabled                                              *
      18                    ;*   Speculate Loads   : Enabled with threshold = 0                           *
      19                    ;*   Memory Aliases    : Presume are aliases (pessimistic)                    *
      20                    ;*   Debug Info        : DWARF Debug w/Optimization                           *
      21                    ;*                                                                            *
      22                    ;******************************************************************************
      23                    
      24                            .asg    A15, FP
      25                            .asg    B14, DP
      26                            .asg    B15, SP
      27                            .global $bss
      28                    
      29                    
      30                    $C$DW$CU        .dwtag  DW_TAG_compile_unit
      31                            .dwattr $C$DW$CU, DW_AT_name("./../packages/ti/vlib/src/VLIB_L2_norm_f32/VLIB_L2_norm_f32_d.c"
      32                            .dwattr $C$DW$CU, DW_AT_producer("TI TMS320C6x C/C++ Codegen PC v7.4.2 Copyright (c) 1996-2012
      33                            .dwattr $C$DW$CU, DW_AT_TI_version(0x01)
      34                            .dwattr $C$DW$CU, DW_AT_comp_dir("c:\nightlybuilds\vlib\ti\vlib\vlib\examples")
      35                    
      36                    $C$DW$1 .dwtag  DW_TAG_subprogram, DW_AT_name("abs")
      37                            .dwattr $C$DW$1, DW_AT_TI_symbol_name("abs")
      38                            .dwattr $C$DW$1, DW_AT_type(*$C$DW$T$10)
      39                            .dwattr $C$DW$1, DW_AT_declaration
      40                            .dwattr $C$DW$1, DW_AT_external
      41                            .dwattr $C$DW$1, DW_AT_decl_file("C:/VLIB_Tools/CCSV5_4_0/ccsv5/tools/compiler/C6000/include/s
      42                            .dwattr $C$DW$1, DW_AT_decl_line(0x65)
      43                            .dwattr $C$DW$1, DW_AT_decl_column(0x1d)
      44                    $C$DW$2 .dwtag  DW_TAG_formal_parameter
      45                            .dwattr $C$DW$2, DW_AT_type(*$C$DW$T$10)
      46                            .dwendtag $C$DW$1
      47                    
      48                    
      49                    $C$DW$3 .dwtag  DW_TAG_subprogram, DW_AT_name("_itoll")
      50                            .dwattr $C$DW$3, DW_AT_TI_symbol_name("_itoll")
      51                            .dwattr $C$DW$3, DW_AT_type(*$C$DW$T$14)
      52                            .dwattr $C$DW$3, DW_AT_declaration
      53                            .dwattr $C$DW$3, DW_AT_external
      54                            .dwattr $C$DW$3, DW_AT_decl_file("C:/VLIB_Tools/CCSV5_4_0/ccsv5/tools/compiler/C6000/include/c
      55                            .dwattr $C$DW$3, DW_AT_decl_line(0xdf)
TMS320C6x Assembler PC v7.4.2 Thu Mar 19 12:43:10 2015

Tools Copyright (c) 1996-2012 Texas Instruments Incorporated
package/lib/Regression/regress_d_c/./../packages/ti/vlib/src/VLIB_L2_norm_f32/VLIB_L2_norm_f32_d.se66 PAGE    2

      56                            .dwattr $C$DW$3, DW_AT_decl_column(0x0b)
      57                    $C$DW$4 .dwtag  DW_TAG_formal_parameter
      58                            .dwattr $C$DW$4, DW_AT_type(*$C$DW$T$11)
      59                    $C$DW$5 .dwtag  DW_TAG_formal_parameter
      60                            .dwattr $C$DW$5, DW_AT_type(*$C$DW$T$11)
      61                            .dwendtag $C$DW$3
      62                    
      63                    
      64                    $C$DW$6 .dwtag  DW_TAG_subprogram, DW_AT_name("printf")
      65                            .dwattr $C$DW$6, DW_AT_TI_symbol_name("printf")
      66                            .dwattr $C$DW$6, DW_AT_type(*$C$DW$T$10)
      67                            .dwattr $C$DW$6, DW_AT_declaration
      68                            .dwattr $C$DW$6, DW_AT_external
      69                            .dwattr $C$DW$6, DW_AT_decl_file("C:/VLIB_Tools/CCSV5_4_0/ccsv5/tools/compiler/C6000/include/s
      70                            .dwattr $C$DW$6, DW_AT_decl_line(0xb8)
      71                            .dwattr $C$DW$6, DW_AT_decl_column(0x19)
      72                    $C$DW$7 .dwtag  DW_TAG_formal_parameter
      73                            .dwattr $C$DW$7, DW_AT_type(*$C$DW$T$99)
      74                    $C$DW$8 .dwtag  DW_TAG_unspecified_parameters
      75                            .dwendtag $C$DW$6
      76                    
      77                    
      78                    $C$DW$9 .dwtag  DW_TAG_subprogram, DW_AT_name("sprintf")
      79                            .dwattr $C$DW$9, DW_AT_TI_symbol_name("sprintf")
      80                            .dwattr $C$DW$9, DW_AT_type(*$C$DW$T$10)
      81                            .dwattr $C$DW$9, DW_AT_declaration
      82                            .dwattr $C$DW$9, DW_AT_external
      83                            .dwattr $C$DW$9, DW_AT_decl_file("C:/VLIB_Tools/CCSV5_4_0/ccsv5/tools/compiler/C6000/include/s
      84                            .dwattr $C$DW$9, DW_AT_decl_line(0xbc)
      85                            .dwattr $C$DW$9, DW_AT_decl_column(0x19)
      86                    $C$DW$10        .dwtag  DW_TAG_formal_parameter
      87                            .dwattr $C$DW$10, DW_AT_type(*$C$DW$T$56)
      88                    $C$DW$11        .dwtag  DW_TAG_formal_parameter
      89                            .dwattr $C$DW$11, DW_AT_type(*$C$DW$T$99)
      90                    $C$DW$12        .dwtag  DW_TAG_unspecified_parameters
      91                            .dwendtag $C$DW$9
      92                    
      93                    
      94                    $C$DW$13        .dwtag  DW_TAG_subprogram, DW_AT_name("VLIB_cache_inval")
      95                            .dwattr $C$DW$13, DW_AT_TI_symbol_name("VLIB_cache_inval")
      96                            .dwattr $C$DW$13, DW_AT_type(*$C$DW$T$10)
      97                            .dwattr $C$DW$13, DW_AT_declaration
      98                            .dwattr $C$DW$13, DW_AT_external
      99                            .dwattr $C$DW$13, DW_AT_decl_file(".\..\packages\ti\vlib\src\VLIB_L2_norm_f32\..\common\c6x/VL
     100                            .dwattr $C$DW$13, DW_AT_decl_line(0x58)
     101                            .dwattr $C$DW$13, DW_AT_decl_column(0x05)
     102                    
     103                    $C$DW$14        .dwtag  DW_TAG_subprogram, DW_AT_name("VLIB_profile_init")
     104                            .dwattr $C$DW$14, DW_AT_TI_symbol_name("VLIB_profile_init")
     105                            .dwattr $C$DW$14, DW_AT_declaration
     106                            .dwattr $C$DW$14, DW_AT_external
     107                            .dwattr $C$DW$14, DW_AT_decl_file(".\..\packages\ti\vlib\src\VLIB_L2_norm_f32\..\common\VLIB_p
     108                            .dwattr $C$DW$14, DW_AT_decl_line(0x7b)
     109                            .dwattr $C$DW$14, DW_AT_decl_column(0x06)
     110                    $C$DW$15        .dwtag  DW_TAG_formal_parameter
TMS320C6x Assembler PC v7.4.2 Thu Mar 19 12:43:10 2015

Tools Copyright (c) 1996-2012 Texas Instruments Incorporated
package/lib/Regression/regress_d_c/./../packages/ti/vlib/src/VLIB_L2_norm_f32/VLIB_L2_norm_f32_d.se66 PAGE    3

     111                            .dwattr $C$DW$15, DW_AT_type(*$C$DW$T$10)
     112                    $C$DW$16        .dwtag  DW_TAG_formal_parameter
     113                            .dwattr $C$DW$16, DW_AT_type(*$C$DW$T$56)
     114                            .dwendtag $C$DW$14
     115                    
     116                    
     117                    $C$DW$17        .dwtag  DW_TAG_subprogram, DW_AT_name("VLIB_formula_add_test")
     118                            .dwattr $C$DW$17, DW_AT_TI_symbol_name("VLIB_formula_add_test")
     119                            .dwattr $C$DW$17, DW_AT_declaration
     120                            .dwattr $C$DW$17, DW_AT_external
     121                            .dwattr $C$DW$17, DW_AT_decl_file(".\..\packages\ti\vlib\src\VLIB_L2_norm_f32\..\common\VLIB_p
     122                            .dwattr $C$DW$17, DW_AT_decl_line(0x7d)
     123                            .dwattr $C$DW$17, DW_AT_decl_column(0x06)
     124                    $C$DW$18        .dwtag  DW_TAG_formal_parameter
     125                            .dwattr $C$DW$18, DW_AT_type(*$C$DW$T$10)
     126                    $C$DW$19        .dwtag  DW_TAG_formal_parameter
     127                            .dwattr $C$DW$19, DW_AT_type(*$C$DW$T$10)
     128                    $C$DW$20        .dwtag  DW_TAG_formal_parameter
     129                            .dwattr $C$DW$20, DW_AT_type(*$C$DW$T$10)
     130                    $C$DW$21        .dwtag  DW_TAG_formal_parameter
     131                            .dwattr $C$DW$21, DW_AT_type(*$C$DW$T$10)
     132                    $C$DW$22        .dwtag  DW_TAG_formal_parameter
     133                            .dwattr $C$DW$22, DW_AT_type(*$C$DW$T$56)
     134                    $C$DW$23        .dwtag  DW_TAG_formal_parameter
     135                            .dwattr $C$DW$23, DW_AT_type(*$C$DW$T$10)
     136                            .dwendtag $C$DW$17
     137                    
     138                    
     139                    $C$DW$24        .dwtag  DW_TAG_subprogram, DW_AT_name("VLIB_skip_test")
     140                            .dwattr $C$DW$24, DW_AT_TI_symbol_name("VLIB_skip_test")
     141                            .dwattr $C$DW$24, DW_AT_declaration
     142                            .dwattr $C$DW$24, DW_AT_external
     143                            .dwattr $C$DW$24, DW_AT_decl_file(".\..\packages\ti\vlib\src\VLIB_L2_norm_f32\..\common\VLIB_p
     144                            .dwattr $C$DW$24, DW_AT_decl_line(0x7e)
     145                            .dwattr $C$DW$24, DW_AT_decl_column(0x06)
     146                    $C$DW$25        .dwtag  DW_TAG_formal_parameter
     147                            .dwattr $C$DW$25, DW_AT_type(*$C$DW$T$56)
     148                            .dwendtag $C$DW$24
     149                    
     150                    
     151                    $C$DW$26        .dwtag  DW_TAG_subprogram, DW_AT_name("VLIB_profile_cycle_report")
     152                            .dwattr $C$DW$26, DW_AT_TI_symbol_name("VLIB_profile_cycle_report")
     153                            .dwattr $C$DW$26, DW_AT_declaration
     154                            .dwattr $C$DW$26, DW_AT_external
     155                            .dwattr $C$DW$26, DW_AT_decl_file(".\..\packages\ti\vlib\src\VLIB_L2_norm_f32\..\common\VLIB_p
     156                            .dwattr $C$DW$26, DW_AT_decl_line(0x7f)
     157                            .dwattr $C$DW$26, DW_AT_decl_column(0x06)
     158                    $C$DW$27        .dwtag  DW_TAG_formal_parameter
     159                            .dwattr $C$DW$27, DW_AT_type(*$C$DW$T$10)
     160                    $C$DW$28        .dwtag  DW_TAG_formal_parameter
     161                            .dwattr $C$DW$28, DW_AT_type(*$C$DW$T$56)
     162                    $C$DW$29        .dwtag  DW_TAG_formal_parameter
     163                            .dwattr $C$DW$29, DW_AT_type(*$C$DW$T$56)
     164                            .dwendtag $C$DW$26
     165                    
TMS320C6x Assembler PC v7.4.2 Thu Mar 19 12:43:10 2015

Tools Copyright (c) 1996-2012 Texas Instruments Incorporated
package/lib/Regression/regress_d_c/./../packages/ti/vlib/src/VLIB_L2_norm_f32/VLIB_L2_norm_f32_d.se66 PAGE    4

     166                    
     167                    $C$DW$30        .dwtag  DW_TAG_subprogram, DW_AT_name("initStack")
     168                            .dwattr $C$DW$30, DW_AT_TI_symbol_name("initStack")
     169                            .dwattr $C$DW$30, DW_AT_declaration
     170                            .dwattr $C$DW$30, DW_AT_external
     171                            .dwattr $C$DW$30, DW_AT_decl_file(".\..\packages\ti\vlib\src\VLIB_L2_norm_f32\..\common\VLIB_p
     172                            .dwattr $C$DW$30, DW_AT_decl_line(0x80)
     173                            .dwattr $C$DW$30, DW_AT_decl_column(0x06)
     174                    $C$DW$31        .dwtag  DW_TAG_formal_parameter
     175                            .dwattr $C$DW$31, DW_AT_type(*$C$DW$T$65)
     176                            .dwendtag $C$DW$30
     177                    
     178                    
     179                    $C$DW$32        .dwtag  DW_TAG_subprogram, DW_AT_name("setStackDepth")
     180                            .dwattr $C$DW$32, DW_AT_TI_symbol_name("setStackDepth")
     181                            .dwattr $C$DW$32, DW_AT_declaration
     182                            .dwattr $C$DW$32, DW_AT_external
     183                            .dwattr $C$DW$32, DW_AT_decl_file(".\..\packages\ti\vlib\src\VLIB_L2_norm_f32\..\common\VLIB_p
     184                            .dwattr $C$DW$32, DW_AT_decl_line(0x81)
     185                            .dwattr $C$DW$32, DW_AT_decl_column(0x06)
     186                    
     187                    $C$DW$33        .dwtag  DW_TAG_subprogram, DW_AT_name("getSP")
     188                            .dwattr $C$DW$33, DW_AT_TI_symbol_name("getSP")
     189                            .dwattr $C$DW$33, DW_AT_type(*$C$DW$T$65)
     190                            .dwattr $C$DW$33, DW_AT_declaration
     191                            .dwattr $C$DW$33, DW_AT_external
     192                            .dwattr $C$DW$33, DW_AT_decl_file(".\..\packages\ti\vlib\src\VLIB_L2_norm_f32\..\common\VLIB_p
     193                            .dwattr $C$DW$33, DW_AT_decl_line(0x82)
     194                            .dwattr $C$DW$33, DW_AT_decl_column(0x0a)
     195                    
     196                    $C$DW$34        .dwtag  DW_TAG_subprogram, DW_AT_name("VLIB_stack_memory")
     197                            .dwattr $C$DW$34, DW_AT_TI_symbol_name("VLIB_stack_memory")
     198                            .dwattr $C$DW$34, DW_AT_declaration
     199                            .dwattr $C$DW$34, DW_AT_external
     200                            .dwattr $C$DW$34, DW_AT_decl_file(".\..\packages\ti\vlib\src\VLIB_L2_norm_f32\..\common\VLIB_p
     201                            .dwattr $C$DW$34, DW_AT_decl_line(0x83)
     202                            .dwattr $C$DW$34, DW_AT_decl_column(0x06)
     203                    
     204                    $C$DW$35        .dwtag  DW_TAG_subprogram, DW_AT_name("VLIB_fillBuffer")
     205                            .dwattr $C$DW$35, DW_AT_TI_symbol_name("VLIB_fillBuffer")
     206                            .dwattr $C$DW$35, DW_AT_declaration
     207                            .dwattr $C$DW$35, DW_AT_external
     208                            .dwattr $C$DW$35, DW_AT_decl_file(".\..\packages\ti\vlib\src\VLIB_L2_norm_f32\../common/VLIB_m
     209                            .dwattr $C$DW$35, DW_AT_decl_line(0x77)
     210                            .dwattr $C$DW$35, DW_AT_decl_column(0x06)
     211                    $C$DW$36        .dwtag  DW_TAG_formal_parameter
     212                            .dwattr $C$DW$36, DW_AT_type(*$C$DW$T$19)
     213                    $C$DW$37        .dwtag  DW_TAG_formal_parameter
     214                            .dwattr $C$DW$37, DW_AT_type(*$C$DW$T$19)
     215                    $C$DW$38        .dwtag  DW_TAG_formal_parameter
     216                            .dwattr $C$DW$38, DW_AT_type(*$C$DW$T$3)
     217                    $C$DW$39        .dwtag  DW_TAG_formal_parameter
     218                            .dwattr $C$DW$39, DW_AT_type(*$C$DW$T$3)
     219                    $C$DW$40        .dwtag  DW_TAG_formal_parameter
     220                            .dwattr $C$DW$40, DW_AT_type(*$C$DW$T$71)
TMS320C6x Assembler PC v7.4.2 Thu Mar 19 12:43:10 2015

Tools Copyright (c) 1996-2012 Texas Instruments Incorporated
package/lib/Regression/regress_d_c/./../packages/ti/vlib/src/VLIB_L2_norm_f32/VLIB_L2_norm_f32_d.se66 PAGE    5

     221                    $C$DW$41        .dwtag  DW_TAG_formal_parameter
     222                            .dwattr $C$DW$41, DW_AT_type(*$C$DW$T$71)
     223                    $C$DW$42        .dwtag  DW_TAG_formal_parameter
     224                            .dwattr $C$DW$42, DW_AT_type(*$C$DW$T$71)
     225                    $C$DW$43        .dwtag  DW_TAG_formal_parameter
     226                            .dwattr $C$DW$43, DW_AT_type(*$C$DW$T$19)
     227                    $C$DW$44        .dwtag  DW_TAG_formal_parameter
     228                            .dwattr $C$DW$44, DW_AT_type(*$C$DW$T$56)
     229                            .dwendtag $C$DW$35
     230                    
     231                    
     232                    $C$DW$45        .dwtag  DW_TAG_subprogram, DW_AT_name("VLIB_malloc")
     233                            .dwattr $C$DW$45, DW_AT_TI_symbol_name("VLIB_malloc")
     234                            .dwattr $C$DW$45, DW_AT_type(*$C$DW$T$3)
     235                            .dwattr $C$DW$45, DW_AT_declaration
     236                            .dwattr $C$DW$45, DW_AT_external
     237                            .dwattr $C$DW$45, DW_AT_decl_file(".\..\packages\ti\vlib\src\VLIB_L2_norm_f32\../common/VLIB_m
     238                            .dwattr $C$DW$45, DW_AT_decl_line(0xaf)
     239                            .dwattr $C$DW$45, DW_AT_decl_column(0x07)
     240                    $C$DW$46        .dwtag  DW_TAG_formal_parameter
     241                            .dwattr $C$DW$46, DW_AT_type(*$C$DW$T$53)
     242                            .dwendtag $C$DW$45
     243                    
     244                    
     245                    $C$DW$47        .dwtag  DW_TAG_subprogram, DW_AT_name("VLIB_free")
     246                            .dwattr $C$DW$47, DW_AT_TI_symbol_name("VLIB_free")
     247                            .dwattr $C$DW$47, DW_AT_declaration
     248                            .dwattr $C$DW$47, DW_AT_external
     249                            .dwattr $C$DW$47, DW_AT_decl_file(".\..\packages\ti\vlib\src\VLIB_L2_norm_f32\../common/VLIB_m
     250                            .dwattr $C$DW$47, DW_AT_decl_line(0xb4)
     251                            .dwattr $C$DW$47, DW_AT_decl_column(0x07)
     252                    $C$DW$48        .dwtag  DW_TAG_formal_parameter
     253                            .dwattr $C$DW$48, DW_AT_type(*$C$DW$T$3)
     254                            .dwendtag $C$DW$47
     255                    
     256                    
     257                    $C$DW$49        .dwtag  DW_TAG_subprogram, DW_AT_name("VLIB_L2_norm_f32")
     258                            .dwattr $C$DW$49, DW_AT_TI_symbol_name("VLIB_L2_norm_f32")
     259                            .dwattr $C$DW$49, DW_AT_type(*$C$DW$T$22)
     260                            .dwattr $C$DW$49, DW_AT_declaration
     261                            .dwattr $C$DW$49, DW_AT_external
     262                            .dwattr $C$DW$49, DW_AT_decl_file(".\..\packages\ti\vlib\src\VLIB_L2_norm_f32\c66/VLIB_L2_norm
     263                            .dwattr $C$DW$49, DW_AT_decl_line(0x69)
     264                            .dwattr $C$DW$49, DW_AT_decl_column(0x0a)
     265                    $C$DW$50        .dwtag  DW_TAG_formal_parameter
     266                            .dwattr $C$DW$50, DW_AT_type(*$C$DW$T$145)
     267                    $C$DW$51        .dwtag  DW_TAG_formal_parameter
     268                            .dwattr $C$DW$51, DW_AT_type(*$C$DW$T$23)
     269                            .dwendtag $C$DW$49
     270                    
     271                    
     272                    $C$DW$52        .dwtag  DW_TAG_subprogram, DW_AT_name("L2_norm_f32_getTestParams")
     273                            .dwattr $C$DW$52, DW_AT_TI_symbol_name("L2_norm_f32_getTestParams")
     274                            .dwattr $C$DW$52, DW_AT_declaration
     275                            .dwattr $C$DW$52, DW_AT_external
TMS320C6x Assembler PC v7.4.2 Thu Mar 19 12:43:10 2015

Tools Copyright (c) 1996-2012 Texas Instruments Incorporated
package/lib/Regression/regress_d_c/./../packages/ti/vlib/src/VLIB_L2_norm_f32/VLIB_L2_norm_f32_d.se66 PAGE    6

     276                            .dwattr $C$DW$52, DW_AT_decl_file(".\..\packages\ti\vlib\src\VLIB_L2_norm_f32\VLIB_L2_norm_f32
     277                            .dwattr $C$DW$52, DW_AT_decl_line(0x2a)
     278                            .dwattr $C$DW$52, DW_AT_decl_column(0x06)
     279                    $C$DW$53        .dwtag  DW_TAG_formal_parameter
     280                            .dwattr $C$DW$53, DW_AT_type(*$C$DW$T$43)
     281                    $C$DW$54        .dwtag  DW_TAG_formal_parameter
     282                            .dwattr $C$DW$54, DW_AT_type(*$C$DW$T$76)
     283                            .dwendtag $C$DW$52
     284                    
     285                    $C$DW$55        .dwtag  DW_TAG_variable, DW_AT_name("test_cases")
     286                            .dwattr $C$DW$55, DW_AT_TI_symbol_name("test_cases")
     287                            .dwattr $C$DW$55, DW_AT_type(*$C$DW$T$23)
     288                            .dwattr $C$DW$55, DW_AT_declaration
     289                            .dwattr $C$DW$55, DW_AT_external
     290                            .dwattr $C$DW$55, DW_AT_decl_file(".\..\packages\ti\vlib\src\VLIB_L2_norm_f32\../common/VLIB_t
     291                            .dwattr $C$DW$55, DW_AT_decl_line(0x60)
     292                            .dwattr $C$DW$55, DW_AT_decl_column(0x13)
     293                    $C$DW$56        .dwtag  DW_TAG_variable, DW_AT_name("act_kernel")
     294                            .dwattr $C$DW$56, DW_AT_TI_symbol_name("act_kernel")
     295                            .dwattr $C$DW$56, DW_AT_type(*$C$DW$T$10)
     296                            .dwattr $C$DW$56, DW_AT_declaration
     297                            .dwattr $C$DW$56, DW_AT_external
     298                            .dwattr $C$DW$56, DW_AT_decl_file(".\..\packages\ti\vlib\src\VLIB_L2_norm_f32\../common/VLIB_t
     299                            .dwattr $C$DW$56, DW_AT_decl_line(0x62)
     300                            .dwattr $C$DW$56, DW_AT_decl_column(0x13)
     301                    $C$DW$57        .dwtag  DW_TAG_variable, DW_AT_name("desc")
     302                            .dwattr $C$DW$57, DW_AT_TI_symbol_name("desc")
     303                            .dwattr $C$DW$57, DW_AT_type(*$C$DW$T$153)
     304                            .dwattr $C$DW$57, DW_AT_declaration
     305                            .dwattr $C$DW$57, DW_AT_external
     306                            .dwattr $C$DW$57, DW_AT_decl_file(".\..\packages\ti\vlib\src\VLIB_L2_norm_f32\../common/VLIB_t
     307                            .dwattr $C$DW$57, DW_AT_decl_line(0x63)
     308                            .dwattr $C$DW$57, DW_AT_decl_column(0x13)
     309                    $C$DW$58        .dwtag  DW_TAG_variable, DW_AT_name("testPatternString")
     310                            .dwattr $C$DW$58, DW_AT_TI_symbol_name("testPatternString")
     311                            .dwattr $C$DW$58, DW_AT_type(*$C$DW$T$153)
     312                            .dwattr $C$DW$58, DW_AT_declaration
     313                            .dwattr $C$DW$58, DW_AT_external
     314                            .dwattr $C$DW$58, DW_AT_decl_file(".\..\packages\ti\vlib\src\VLIB_L2_norm_f32\../common/VLIB_t
     315                            .dwattr $C$DW$58, DW_AT_decl_line(0x64)
     316                            .dwattr $C$DW$58, DW_AT_decl_column(0x13)
     317                    $C$DW$59        .dwtag  DW_TAG_variable, DW_AT_name("est_test")
     318                            .dwattr $C$DW$59, DW_AT_TI_symbol_name("est_test")
     319                            .dwattr $C$DW$59, DW_AT_type(*$C$DW$T$10)
     320                            .dwattr $C$DW$59, DW_AT_declaration
     321                            .dwattr $C$DW$59, DW_AT_external
     322                            .dwattr $C$DW$59, DW_AT_decl_file(".\..\packages\ti\vlib\src\VLIB_L2_norm_f32\..\common\VLIB_p
     323                            .dwattr $C$DW$59, DW_AT_decl_line(0x75)
     324                            .dwattr $C$DW$59, DW_AT_decl_column(0x14)
     325                    $C$DW$60        .dwtag  DW_TAG_variable, DW_AT_name("beg_count")
     326                            .dwattr $C$DW$60, DW_AT_TI_symbol_name("beg_count")
     327                            .dwattr $C$DW$60, DW_AT_type(*$C$DW$T$139)
     328                            .dwattr $C$DW$60, DW_AT_declaration
     329                            .dwattr $C$DW$60, DW_AT_external
     330                            .dwattr $C$DW$60, DW_AT_decl_file(".\..\packages\ti\vlib\src\VLIB_L2_norm_f32\..\common\VLIB_p
TMS320C6x Assembler PC v7.4.2 Thu Mar 19 12:43:10 2015

Tools Copyright (c) 1996-2012 Texas Instruments Incorporated
package/lib/Regression/regress_d_c/./../packages/ti/vlib/src/VLIB_L2_norm_f32/VLIB_L2_norm_f32_d.se66 PAGE    7

     331                            .dwattr $C$DW$60, DW_AT_decl_line(0x76)
     332                            .dwattr $C$DW$60, DW_AT_decl_column(0x14)
     333                    $C$DW$61        .dwtag  DW_TAG_variable, DW_AT_name("end_count")
     334                            .dwattr $C$DW$61, DW_AT_TI_symbol_name("end_count")
     335                            .dwattr $C$DW$61, DW_AT_type(*$C$DW$T$139)
     336                            .dwattr $C$DW$61, DW_AT_declaration
     337                            .dwattr $C$DW$61, DW_AT_external
     338                            .dwattr $C$DW$61, DW_AT_decl_file(".\..\packages\ti\vlib\src\VLIB_L2_norm_f32\..\common\VLIB_p
     339                            .dwattr $C$DW$61, DW_AT_decl_line(0x77)
     340                            .dwattr $C$DW$61, DW_AT_decl_column(0x14)
     341                    $C$DW$62        .dwtag  DW_TAG_variable, DW_AT_name("overhead")
     342                            .dwattr $C$DW$62, DW_AT_TI_symbol_name("overhead")
     343                            .dwattr $C$DW$62, DW_AT_type(*$C$DW$T$139)
     344                            .dwattr $C$DW$62, DW_AT_declaration
     345                            .dwattr $C$DW$62, DW_AT_external
     346                            .dwattr $C$DW$62, DW_AT_decl_file(".\..\packages\ti\vlib\src\VLIB_L2_norm_f32\..\common\VLIB_p
     347                            .dwattr $C$DW$62, DW_AT_decl_line(0x78)
     348                            .dwattr $C$DW$62, DW_AT_decl_column(0x14)
     349                    $C$DW$63        .dwtag  DW_TAG_variable, DW_AT_name("cycles")
     350                            .dwattr $C$DW$63, DW_AT_TI_symbol_name("cycles")
     351                            .dwattr $C$DW$63, DW_AT_type(*$C$DW$T$140)
     352                            .dwattr $C$DW$63, DW_AT_declaration
     353                            .dwattr $C$DW$63, DW_AT_external
     354                            .dwattr $C$DW$63, DW_AT_decl_file(".\..\packages\ti\vlib\src\VLIB_L2_norm_f32\..\common\VLIB_p
     355                            .dwattr $C$DW$63, DW_AT_decl_line(0x79)
     356                            .dwattr $C$DW$63, DW_AT_decl_column(0x14)
     357                    ;       C:\VLIB_Tools\CCSV5_4_0\ccsv5\tools\compiler\C6000\bin\opt6x.exe C:\\Users\\gtbldadm\\AppData\
     358 00000000                   .sect   ".text"
     359                            .clink
     360                            .global VLIB_L2_norm_f32_d
     361                    
     362                    $C$DW$64        .dwtag  DW_TAG_subprogram, DW_AT_name("VLIB_L2_norm_f32_d")
     363                            .dwattr $C$DW$64, DW_AT_low_pc(VLIB_L2_norm_f32_d)
     364                            .dwattr $C$DW$64, DW_AT_high_pc(0x00)
     365                            .dwattr $C$DW$64, DW_AT_TI_symbol_name("VLIB_L2_norm_f32_d")
     366                            .dwattr $C$DW$64, DW_AT_external
     367                            .dwattr $C$DW$64, DW_AT_TI_begin_file("./../packages/ti/vlib/src/VLIB_L2_norm_f32/VLIB_L2_norm
     368                            .dwattr $C$DW$64, DW_AT_TI_begin_line(0x28)
     369                            .dwattr $C$DW$64, DW_AT_TI_begin_column(0x06)
     370                            .dwattr $C$DW$64, DW_AT_decl_file("./../packages/ti/vlib/src/VLIB_L2_norm_f32/VLIB_L2_norm_f32
     371                            .dwattr $C$DW$64, DW_AT_decl_line(0x28)
     372                            .dwattr $C$DW$64, DW_AT_decl_column(0x06)
     373                            .dwattr $C$DW$64, DW_AT_TI_max_frame_size(0x50)
     374                            .dwpsn  file "./../packages/ti/vlib/src/VLIB_L2_norm_f32/VLIB_L2_norm_f32_d.c",line 41,column 
     375                    
     376                            .dwfde $C$DW$CIE, VLIB_L2_norm_f32_d
     377                    $C$DW$65        .dwtag  DW_TAG_formal_parameter, DW_AT_name("LevelOfFeedback")
     378                            .dwattr $C$DW$65, DW_AT_TI_symbol_name("LevelOfFeedback")
     379                            .dwattr $C$DW$65, DW_AT_type(*$C$DW$T$19)
     380                            .dwattr $C$DW$65, DW_AT_location[DW_OP_reg4]
     381                    ;----------------------------------------------------------------------
     382                    ;  40 | void VLIB_L2_norm_f32_d (uint8_t LevelOfFeedback)                      
     383                    ;----------------------------------------------------------------------
     384                    
     385                    ;******************************************************************************
TMS320C6x Assembler PC v7.4.2 Thu Mar 19 12:43:10 2015

Tools Copyright (c) 1996-2012 Texas Instruments Incorporated
package/lib/Regression/regress_d_c/./../packages/ti/vlib/src/VLIB_L2_norm_f32/VLIB_L2_norm_f32_d.se66 PAGE    8

     386                    ;* FUNCTION NAME: VLIB_L2_norm_f32_d                                          *
     387                    ;*                                                                            *
     388                    ;*   Regs Modified     : A0,A1,A2,A3,A4,A5,A6,A7,A8,A9,A10,A11,A12,A13,A14,   *
     389                    ;*                           A15,B0,B1,B2,B3,B4,B5,B6,B7,B8,B9,B10,B11,B12,   *
     390                    ;*                           B13,SP,A16,A17,A18,A19,A20,A21,A22,A23,A24,A25,  *
     391                    ;*                           A26,A27,A28,A29,A30,A31,B16,B17,B18,B19,B20,B21, *
     392                    ;*                           B22,B23,B24,B25,B26,B27,B28,B29,B30,B31          *
     393                    ;*   Regs Used         : A0,A1,A2,A3,A4,A5,A6,A7,A8,A9,A10,A11,A12,A13,A14,   *
     394                    ;*                           A15,B0,B1,B2,B3,B4,B5,B6,B7,B8,B9,B10,B11,B12,   *
     395                    ;*                           B13,DP,SP,A16,A17,A18,A19,A20,A21,A22,A23,A24,   *
     396                    ;*                           A25,A26,A27,A28,A29,A30,A31,B16,B17,B18,B19,B20, *
     397                    ;*                           B21,B22,B23,B24,B25,B26,B27,B28,B29,B30,B31      *
     398                    ;*   Local Frame Size  : 16 Args + 8 Auto + 56 Save = 80 byte                 *
     399                    ;******************************************************************************
     400                    
     401                    ;******************************************************************************
     402                    ;*                                                                            *
     403                    ;* Using -g (debug) with optimization (-o3) may disable key optimizations!    *
     404                    ;*                                                                            *
     405                    ;******************************************************************************
     406 00000000           VLIB_L2_norm_f32_d:
     407                    ;** --------------------------------------------------------------------------*
     408                    ;          EXCLUSIVE CPU CYCLES: 16
     409                    ;** 47  -----------------------    L2_norm_f32_getTestParams(&prm, &test_cases);
     410                    ;** 50  -----------------------    VLIB_profile_init(2, "VLIB_L2_norm_f32");
     411                    ;** 53  -----------------------    if ( test_cases <= 0 ) goto g9;
     412                            .dwcfi  cfa_offset, 0
     413                    ;----------------------------------------------------------------------
     414                    ;  42 | int32_t    tpi;  /* test parameter index */                            
     415                    ;  45 | L2_norm_f32_testParams_t   *prm;                                       
     416                    ;----------------------------------------------------------------------
     417 00000000     25f7             STW     .D2T1   A11,*SP--(8)      ; |41| 
     418                            .dwcfi  cfa_offset, 8
     419                            .dwcfi  save_reg_to_mem, 11, 0
     420 00000002     2577             STW     .D2T1   A10,*SP--(8)      ; |41| 
     421                            .dwcfi  cfa_offset, 16
     422                            .dwcfi  save_reg_to_mem, 10, -8
     423 00000004     9677             STDW    .D2T2   B13:B12,*SP--     ; |41| 
     424                            .dwcfi  cfa_offset, 24
     425                            .dwcfi  save_reg_to_mem, 29, -12
     426                            .dwcfi  save_reg_to_mem, 28, -16
     427 00000006     9577             STDW    .D2T2   B11:B10,*SP--     ; |41| 
     428                            .dwcfi  cfa_offset, 32
     429                            .dwcfi  save_reg_to_mem, 27, -20
     430                            .dwcfi  save_reg_to_mem, 26, -24
     431 00000008     8777             STDW    .D2T1   A15:A14,*SP--     ; |41| 
     432                            .dwcfi  cfa_offset, 40
     433                            .dwcfi  save_reg_to_mem, 15, -28
     434                            .dwcfi  save_reg_to_mem, 14, -32
     435 0000000a     8677             STDW    .D2T1   A13:A12,*SP--     ; |41| 
     436                            .dwcfi  cfa_offset, 48
     437                            .dwcfi  save_reg_to_mem, 13, -36
     438                            .dwcfi  save_reg_to_mem, 12, -40
     439 0000000c 01bd14f6             STW     .D2T2   B3,*SP--(32)      ; |41| 
     440                            .dwcfi  cfa_offset, 80
TMS320C6x Assembler PC v7.4.2 Thu Mar 19 12:43:10 2015

Tools Copyright (c) 1996-2012 Texas Instruments Incorporated
package/lib/Regression/regress_d_c/./../packages/ti/vlib/src/VLIB_L2_norm_f32/VLIB_L2_norm_f32_d.se66 PAGE    9

     441                            .dwcfi  save_reg_to_mem, 19, 0
     442                    $C$DW$66        .dwtag  DW_TAG_variable, DW_AT_name("$O$C1")
     443                            .dwattr $C$DW$66, DW_AT_TI_symbol_name("$O$C1")
     444                            .dwattr $C$DW$66, DW_AT_type(*$C$DW$T$17)
     445                            .dwattr $C$DW$66, DW_AT_location[DW_OP_reg10]
     446                    $C$DW$67        .dwtag  DW_TAG_variable, DW_AT_name("$O$C2")
     447                            .dwattr $C$DW$67, DW_AT_TI_symbol_name("$O$C2")
     448                            .dwattr $C$DW$67, DW_AT_type(*$C$DW$T$10)
     449                            .dwattr $C$DW$67, DW_AT_location[DW_OP_reg3]
     450                    $C$DW$68        .dwtag  DW_TAG_variable, DW_AT_name("$O$C3")
     451                            .dwattr $C$DW$68, DW_AT_TI_symbol_name("$O$C3")
     452                            .dwattr $C$DW$68, DW_AT_type(*$C$DW$T$10)
     453                            .dwattr $C$DW$68, DW_AT_location[DW_OP_reg3]
     454                    $C$DW$69        .dwtag  DW_TAG_variable, DW_AT_name("$O$C4")
     455                            .dwattr $C$DW$69, DW_AT_TI_symbol_name("$O$C4")
     456                            .dwattr $C$DW$69, DW_AT_type(*$C$DW$T$10)
     457                            .dwattr $C$DW$69, DW_AT_location[DW_OP_reg3]
     458                    $C$DW$70        .dwtag  DW_TAG_variable, DW_AT_name("$O$U12")
     459                            .dwattr $C$DW$70, DW_AT_TI_symbol_name("$O$U12")
     460                            .dwattr $C$DW$70, DW_AT_type(*$C$DW$T$44)
     461                            .dwattr $C$DW$70, DW_AT_location[DW_OP_reg14]
     462                    $C$DW$71        .dwtag  DW_TAG_variable, DW_AT_name("$O$K23")
     463                            .dwattr $C$DW$71, DW_AT_TI_symbol_name("$O$K23")
     464                            .dwattr $C$DW$71, DW_AT_type(*$C$DW$T$80)
     465                            .dwattr $C$DW$71, DW_AT_location[DW_OP_reg12]
     466                    $C$DW$72        .dwtag  DW_TAG_variable, DW_AT_name("$O$K38")
     467                            .dwattr $C$DW$72, DW_AT_TI_symbol_name("$O$K38")
     468                            .dwattr $C$DW$72, DW_AT_type(*$C$DW$T$138)
     469                            .dwattr $C$DW$72, DW_AT_location[DW_OP_reg4]
     470                    $C$DW$73        .dwtag  DW_TAG_variable, DW_AT_name("$O$U11")
     471                            .dwattr $C$DW$73, DW_AT_TI_symbol_name("$O$U11")
     472                            .dwattr $C$DW$73, DW_AT_type(*$C$DW$T$10)
     473                            .dwattr $C$DW$73, DW_AT_location[DW_OP_reg28]
     474                    $C$DW$74        .dwtag  DW_TAG_variable, DW_AT_name("$O$K73")
     475                            .dwattr $C$DW$74, DW_AT_TI_symbol_name("$O$K73")
     476                            .dwattr $C$DW$74, DW_AT_type(*$C$DW$T$80)
     477                            .dwattr $C$DW$74, DW_AT_location[DW_OP_reg29]
     478                    $C$DW$75        .dwtag  DW_TAG_variable, DW_AT_name("tpi")
     479                            .dwattr $C$DW$75, DW_AT_TI_symbol_name("tpi")
     480                            .dwattr $C$DW$75, DW_AT_type(*$C$DW$T$23)
     481                            .dwattr $C$DW$75, DW_AT_location[DW_OP_reg15]
     482                    $C$DW$76        .dwtag  DW_TAG_variable, DW_AT_name("prm")
     483                            .dwattr $C$DW$76, DW_AT_TI_symbol_name("prm")
     484                            .dwattr $C$DW$76, DW_AT_type(*$C$DW$T$42)
     485                            .dwattr $C$DW$76, DW_AT_location[DW_OP_breg31 20]
     486                    $C$DW$77        .dwtag  DW_TAG_variable, DW_AT_name("status_nat_vs_int")
     487                            .dwattr $C$DW$77, DW_AT_TI_symbol_name("status_nat_vs_int")
     488                            .dwattr $C$DW$77, DW_AT_type(*$C$DW$T$23)
     489                            .dwattr $C$DW$77, DW_AT_location[DW_OP_regx 0x44]
     490                    $C$DW$78        .dwtag  DW_TAG_variable, DW_AT_name("status_nat_vs_ref")
     491                            .dwattr $C$DW$78, DW_AT_TI_symbol_name("status_nat_vs_ref")
     492                            .dwattr $C$DW$78, DW_AT_type(*$C$DW$T$23)
     493                            .dwattr $C$DW$78, DW_AT_location[DW_OP_reg20]
     494                    $C$DW$79        .dwtag  DW_TAG_variable, DW_AT_name("pData")
     495                            .dwattr $C$DW$79, DW_AT_TI_symbol_name("pData")
TMS320C6x Assembler PC v7.4.2 Thu Mar 19 12:43:10 2015

Tools Copyright (c) 1996-2012 Texas Instruments Incorporated
package/lib/Regression/regress_d_c/./../packages/ti/vlib/src/VLIB_L2_norm_f32/VLIB_L2_norm_f32_d.se66 PAGE   10

     496                            .dwattr $C$DW$79, DW_AT_type(*$C$DW$T$21)
     497                            .dwattr $C$DW$79, DW_AT_location[DW_OP_breg31 24]
     498                    $C$DW$80        .dwtag  DW_TAG_variable, DW_AT_name("norm")
     499                            .dwattr $C$DW$80, DW_AT_TI_symbol_name("norm")
     500                            .dwattr $C$DW$80, DW_AT_type(*$C$DW$T$22)
     501                            .dwattr $C$DW$80, DW_AT_location[DW_OP_reg26]
     502                    $C$DW$81        .dwtag  DW_TAG_variable, DW_AT_name("norm_cn")
     503                            .dwattr $C$DW$81, DW_AT_TI_symbol_name("norm_cn")
     504                            .dwattr $C$DW$81, DW_AT_type(*$C$DW$T$22)
     505                            .dwattr $C$DW$81, DW_AT_location[DW_OP_reg12]
     506                    $C$DW$82        .dwtag  DW_TAG_variable, DW_AT_name("$O$v1")
     507                            .dwattr $C$DW$82, DW_AT_TI_symbol_name("$O$v1")
     508                            .dwattr $C$DW$82, DW_AT_type(*$C$DW$T$42)
     509                            .dwattr $C$DW$82, DW_AT_location[DW_OP_reg20]
     510                    $C$DW$83        .dwtag  DW_TAG_variable, DW_AT_name("$O$v2")
     511                            .dwattr $C$DW$83, DW_AT_TI_symbol_name("$O$v2")
     512                            .dwattr $C$DW$83, DW_AT_type(*$C$DW$T$139)
     513                            .dwattr $C$DW$83, DW_AT_location[DW_OP_reg24]
     514                    $C$DW$84        .dwtag  DW_TAG_variable, DW_AT_name("$O$v2")
     515                            .dwattr $C$DW$84, DW_AT_TI_symbol_name("$O$v2")
     516                            .dwattr $C$DW$84, DW_AT_type(*$C$DW$T$139)
     517                            .dwattr $C$DW$84, DW_AT_location[DW_OP_regx 0x35]
     518 00000010 05000028!            MVKL    .S1     test_cases,A10
     519 00000014 05000068!            MVKH    .S1     test_cases,A10
     520                            .dwpsn  file "./../packages/ti/vlib/src/VLIB_L2_norm_f32/VLIB_L2_norm_f32_d.c",line 47,column 
     521                    ;----------------------------------------------------------------------
     522                    ;  47 | L2_norm_f32_getTestParams(&prm, &test_cases);                          
     523                    ;----------------------------------------------------------------------
     524 00000018     a636             ADDAW   .D1X    SP,5,A4           ; |47| 
     525                    $C$DW$85        .dwtag  DW_TAG_TI_branch
     526                            .dwattr $C$DW$85, DW_AT_low_pc(0x00)
     527                            .dwattr $C$DW$85, DW_AT_name("L2_norm_f32_getTestParams")
     528                            .dwattr $C$DW$85, DW_AT_TI_call
     529                    
     530 00000020 10000012!            CALLP   .S2     L2_norm_f32_getTestParams,B3
     531 0000001a     9507  ||         MV      .L2X    A10,B4            ; |47| 
     532                    
     533 00000024           $C$RL0:    ; CALL OCCURS {L2_norm_f32_getTestParams} {0}  ; |47| 
     534                    ;** --------------------------------------------------------------------------*
     535                    ;          EXCLUSIVE CPU CYCLES: 8
     536 00000024 0200002a!            MVKL    .S2     $C$SL1+0,B4
     537 00000028 0200006a!            MVKH    .S2     $C$SL1+0,B4
     538                    $C$DW$86        .dwtag  DW_TAG_TI_branch
     539                            .dwattr $C$DW$86, DW_AT_low_pc(0x00)
     540                            .dwattr $C$DW$86, DW_AT_name("VLIB_profile_init")
     541                            .dwattr $C$DW$86, DW_AT_TI_call
     542                    
     543 0000002c 10000013!            CALLP   .S2     VLIB_profile_init,B3
     544 00000030 0208a358  ||         MVK     .L1     0x2,A4            ; |50| 
     545                    
     546                            .dwpsn  file "./../packages/ti/vlib/src/VLIB_L2_norm_f32/VLIB_L2_norm_f32_d.c",line 50,column 
     547                    ;----------------------------------------------------------------------
     548                    ;  50 | VLIB_profile_init(2, "VLIB_L2_norm_f32");                              
     549                    ;----------------------------------------------------------------------
     550 00000034           $C$RL1:    ; CALL OCCURS {VLIB_profile_init} {0}  ; |50| 
TMS320C6x Assembler PC v7.4.2 Thu Mar 19 12:43:10 2015

Tools Copyright (c) 1996-2012 Texas Instruments Incorporated
package/lib/Regression/regress_d_c/./../packages/ti/vlib/src/VLIB_L2_norm_f32/VLIB_L2_norm_f32_d.se66 PAGE   11

     551                    ;** --------------------------------------------------------------------------*
     552                    ;          EXCLUSIVE CPU CYCLES: 12
     553                            .dwpsn  file "./../packages/ti/vlib/src/VLIB_L2_norm_f32/VLIB_L2_norm_f32_d.c",line 53,column 
     554                    ;----------------------------------------------------------------------
     555                    ;  53 | for( tpi=0; tpi < test_cases; tpi++ ) {                                
     556                    ;----------------------------------------------------------------------
     557 00000034 02280264             LDW     .D1T1   *A10,A4           ; |53| 
     558 00000038 02bca2e4             LDW     .D2T1   *+SP(20),A5
     559                            .dwpsn  file "./../packages/ti/vlib/src/VLIB_L2_norm_f32/VLIB_L2_norm_f32_d.c",line 53,column 
     560                    ;----------------------------------------------------------------------
     561                    ;  56 | int32_t    status_nat_vs_int = vlib_KERNEL_PASS; /* Test status : Natur
     562                    ;     | al c vs. Optimized */                                                  
     563                    ;  57 | int32_t    status_nat_vs_ref = vlib_KERNEL_PASS; /* Test status : Natur
     564                    ;     | al c vs. Static Reference */                                           
     565                    ;----------------------------------------------------------------------
     566 0000003c 0600a35a             ZERO    .L2     B12               ; |53| 
     567 00000040 0780a358             ZERO    .L1     A15               ; |53| 
     568 00000044 0680002a!            MVKL    .S2     desc,B13
     569                            .dwpsn  file "./../packages/ti/vlib/src/VLIB_L2_norm_f32/VLIB_L2_norm_f32_d.c",line 53,column 
     570 00000048 00100ad8             CMPGT   .L1     A4,0,A0           ; |53| 
     571                    
     572 0000004c d0006591     [!A0]   B       .S1     $C$L4             ; |53| 
     573 00000050 071709c0  ||         SUB     .D1     A5,24,A14
     574                    
     575                            .dwpsn  file "./../packages/ti/vlib/src/VLIB_L2_norm_f32/VLIB_L2_norm_f32_d.c",line 60,column 
     576                    ;----------------------------------------------------------------------
     577                    ;  60 | VLIB_F32   *pData  = (VLIB_F32 *) VLIB_malloc(prm[tpi].len * sizeof(VLI
     578                    ;     | B_F32));                                                               
     579                    ;----------------------------------------------------------------------
     580 00000054 07000c50             ADDK    .S1     24,A14            ; |60| 
     581 00000058 c1b88264     [ A0]   LDW     .D1T1   *+A14(16),A3      ; |60| 
     582 0000005c 0680006a!            MVKH    .S2     desc,B13
     583 00000060     2c6e             NOP             2
     584                            .dwpsn  file "./../packages/ti/vlib/src/VLIB_L2_norm_f32/VLIB_L2_norm_f32_d.c",line 53,column 
     585                               ; BRANCHCC OCCURS {$C$L4}         ; |53| 
     586                    ;** --------------------------------------------------------------------------*
     587                    ;          EXCLUSIVE CPU CYCLES: 2
     588                    ;**     -----------------------    K$23 = &testPatternString[0];
     589                    ;**     -----------------------    K$38 = &cycles[0];
     590                    ;**     -----------------------    K$73 = &desc[0];
     591                    ;**     -----------------------    U$12 = prm-24;
     592                    ;**     -----------------------    U$11 = 0;
     593                    ;** 53  -----------------------    tpi = 0;
     594                    ;**     -----------------------    #pragma LOOP_FLAGS(5120u)
     595 00000062     0c6e             NOP             1
     596                            .dwpsn  file "./../packages/ti/vlib/src/VLIB_L2_norm_f32/VLIB_L2_norm_f32_d.c",line 60,column 
     597                    ;----------------------------------------------------------------------
     598                    ;  61 | VLIB_D64    norm;                                                      
     599                    ;  62 | VLIB_D64    norm_cn;                                                   
     600                    ;  65 | if( pData ) {                                                          
     601                    ;  67 |     int32_t    fail;                                                   
     602                    ;----------------------------------------------------------------------
     603 00000064 020c4ca0             SHL     .S1     A3,2,A4           ; |60| 
     604                    ;*----------------------------------------------------------------------------*
     605                    ;*   SOFTWARE PIPELINE INFORMATION
TMS320C6x Assembler PC v7.4.2 Thu Mar 19 12:43:10 2015

Tools Copyright (c) 1996-2012 Texas Instruments Incorporated
package/lib/Regression/regress_d_c/./../packages/ti/vlib/src/VLIB_L2_norm_f32/VLIB_L2_norm_f32_d.se66 PAGE   12

     606                    ;*      Disqualified loop: Loop contains a call
     607                    ;*      Disqualified loop: Loop contains non-pipelinable instructions
     608                    ;*      Disqualified loop: Loop contains control code
     609                    ;*----------------------------------------------------------------------------*
     610 00000068           $C$L1:    
     611                            .dwpsn  file "./../packages/ti/vlib/src/VLIB_L2_norm_f32/VLIB_L2_norm_f32_d.c",line 53,column 
     612 00000068           $C$DW$L$VLIB_L2_norm_f32_d$5$B:
     613                    ;          EXCLUSIVE CPU CYCLES: 6
     614                    ;**     -----------------------g3:
     615                    ;** 60  -----------------------    pData = VLIB_malloc((unsigned)((*(U$12 += 24)).len*4));
     616                    ;** 65  -----------------------    if ( pData == NULL ) goto g7;
     617                            .dwpsn  file "./../packages/ti/vlib/src/VLIB_L2_norm_f32/VLIB_L2_norm_f32_d.c",line 60,column 
     618                    $C$DW$87        .dwtag  DW_TAG_TI_branch
     619                            .dwattr $C$DW$87, DW_AT_low_pc(0x00)
     620                            .dwattr $C$DW$87, DW_AT_name("VLIB_malloc")
     621                            .dwattr $C$DW$87, DW_AT_TI_call
     622 00000068 00000010!            CALL    .S1     VLIB_malloc       ; |60| 
     623 0000006c 01848162             ADDKPC  .S2     $C$RL2,B3,4       ; |60| 
     624 00000070           $C$RL2:    ; CALL OCCURS {VLIB_malloc} {0}   ; |60| 
     625 00000070           $C$DW$L$VLIB_L2_norm_f32_d$5$E:
     626                    ;** --------------------------------------------------------------------------*
     627 00000070           $C$DW$L$VLIB_L2_norm_f32_d$6$B:
     628                    ;          EXCLUSIVE CPU CYCLES: 7
     629 00000070 00100fd8             MV      .L1     A4,A0             ; |60| 
     630                    
     631 00000074 d0005713     [!A0]   B       .S2     $C$L2             ; |65| 
     632 00000078 c1b88265  || [ A0]   LDW     .D1T1   *+A14(16),A3      ; |70| 
     633 00000080 c404a35b  || [ A0]   MVK     .L2     0x1,B8            ; |70| 
     634 00000084 c6000028! || [ A0]   MVKL    .S1     testPatternString,A12
     635                    
     636 00000088 d200002b!    [!A0]   MVKL    .S2     $C$SL3+0,B4
     637 0000008c c3382267  || [ A0]   LDW     .D1T2   *+A14(4),B6       ; |70| 
     638 00000090 003cc2f4  ||         STW     .D2T1   A0,*+SP(24)       ; |60| 
     639                    
     640                            .dwpsn  file "./../packages/ti/vlib/src/VLIB_L2_norm_f32/VLIB_L2_norm_f32_d.c",line 70,column 
     641                    ;----------------------------------------------------------------------
     642                    ;  70 | VLIB_fillBuffer(prm[tpi].testPattern,                                  
     643                    ;  71 |                 (uint32_t)1,                                           
     644                    ;  72 |                 pData, prm[tpi].staticIn,                              
     645                    ;  73 |                 prm[tpi].len, 1, prm[tpi].len * sizeof(pData[0]),      
     646                    ;  74 |                 sizeof(pData[0]), testPatternString);                  
     647                    ;  78 | VLIB_profile_start(vlib_KERNEL_OPT);                                   
     648                    ;  79 | norm = VLIB_L2_norm_f32(pData, prm[tpi].len);                          
     649                    ;  80 | VLIB_profile_stop();                                                   
     650                    ;  84 | VLIB_profile_start(vlib_KERNEL_CN);                                    
     651                    ;  85 | norm_cn = VLIB_L2_norm_f32(pData, prm[tpi].len);                       
     652                    ;  86 | VLIB_profile_stop();                                                   
     653                    ;  89 | if( abs(norm - norm_cn) > EPSILON ) {                                  
     654                    ;  90 |     status_nat_vs_int = vlib_KERNEL_FAIL;                              
     655                    ;  94 | if( prm[tpi].staticOut != 0x0 ) {                                      
     656                    ;  95 |     if( abs(prm[tpi].staticOut - norm_cn) > EPSILON ) {                
     657                    ;  96 |         status_nat_vs_ref = vlib_KERNEL_FAIL;                          
     658                    ; 101 | fail = ((status_nat_vs_int == vlib_KERNEL_FAIL) || (status_nat_vs_ref =
     659                    ;     | = vlib_KERNEL_FAIL)) ? 1 : 0;                                          
     660                    ; 103 | est_test=1;                                                            
TMS320C6x Assembler PC v7.4.2 Thu Mar 19 12:43:10 2015

Tools Copyright (c) 1996-2012 Texas Instruments Incorporated
package/lib/Regression/regress_d_c/./../packages/ti/vlib/src/VLIB_L2_norm_f32/VLIB_L2_norm_f32_d.se66 PAGE   13

     661                    ; 106 | sprintf(desc, "%s generated input | Opt results compared to NatC result
     662                    ;     | s | len=%d",                                                           
     663                    ; 107 |         testPatternString, prm[tpi].len);                              
     664                    ; 108 | VLIB_formula_add_test(prm[tpi].len, NULL, NULL, fail, desc, NULL);     
     665                    ; 110 | } else {                                                               
     666                    ;----------------------------------------------------------------------
     667 00000094 c2380214     [ A0]   LDBU    .D1T1   *A14,A4           ; |70| 
     668                    $C$DW$88        .dwtag  DW_TAG_TI_branch
     669                            .dwattr $C$DW$88, DW_AT_low_pc(0x00)
     670                            .dwattr $C$DW$88, DW_AT_name("VLIB_fillBuffer")
     671                            .dwattr $C$DW$88, DW_AT_TI_call
     672                    
     673 00000098 c0000011!    [ A0]   CALL    .S1     VLIB_fillBuffer   ; |70| 
     674 0000009c d1b88264  || [!A0]   LDW     .D1T1   *+A14(16),A3      ; |112| 
     675                    
     676                            .dwpsn  file "./../packages/ti/vlib/src/VLIB_L2_norm_f32/VLIB_L2_norm_f32_d.c",line 112,column
     677                    ;----------------------------------------------------------------------
     678                    ; 112 | sprintf(desc, "len=%d",                                                
     679                    ; 113 |         prm[tpi].len);                                                 
     680                    ; 114 | VLIB_skip_test(desc);                                                  
     681                    ; 118 | VLIB_free(pData);                                                      
     682                    ; 122 | VLIB_profile_cycle_report(vlib_PROFILE_FORMULA_RANGE,                  
     683                    ; 123 |                   "N = len",                                           
     684                    ; 124 |                   "len");                                              
     685                    ; 127 | VLIB_kernel_memory();                                                  
     686                    ; 131 | #ifndef __ONESHOTTEST                                                  
     687                    ; 133 | main() {                                                               
     688                    ; 134 | if( VLIB_cache_init()) {                                               
     689                    ; 135 | VLIB_memError("VLIB_L2_norm_f32");                                     
     690                    ; 136 | } else {                                                               
     691                    ; 137 | VLIB_L2_norm_f32_d(0);                                                 
     692                    ;----------------------------------------------------------------------
     693                    $C$DW$89        .dwtag  DW_TAG_TI_branch
     694                            .dwattr $C$DW$89, DW_AT_low_pc(0x00)
     695                            .dwattr $C$DW$89, DW_AT_name("sprintf")
     696                            .dwattr $C$DW$89, DW_AT_TI_call
     697 000000a0 d0000010!    [!A0]   CALL    .S1     sprintf           ; |112| 
     698 000000a4 d200006a!    [!A0]   MVKH    .S2     $C$SL3+0,B4
     699                            .dwpsn  file "./../packages/ti/vlib/src/VLIB_L2_norm_f32/VLIB_L2_norm_f32_d.c",line 65,column 
     700                               ; BRANCHCC OCCURS {$C$L2}         ; |65| 
     701 000000a8           $C$DW$L$VLIB_L2_norm_f32_d$6$E:
     702                    ;** --------------------------------------------------------------------------*
     703 000000a8           $C$DW$L$VLIB_L2_norm_f32_d$7$B:
     704                    ;          EXCLUSIVE CPU CYCLES: 3
     705                    ;** 70  -----------------------    C$4 = (*U$12).len;
     706                    ;** 70  -----------------------    VLIB_fillBuffer((*U$12).testPattern, 1u, (void *)pData, (*U$12).sta
     707                    ;** 137 -----------------------    act_kernel = 0;  // [13]
     708                    ;** 140 -----------------------    VLIB_cache_inval();  // [13]
     709                    ;** 143 -----------------------    initStack(getSP());  // [13]
     710                    ;** 146 -----------------------    beg_count = _itoll(TSCH, TSCL);  // [13]
     711                    ;** 79  -----------------------    norm = VLIB_L2_norm_f32(pData, (*U$12).len);
     712                    ;** 153 -----------------------    v$2 = _itoll(TSCH, TSCL);  // [14]
     713                    ;** 153 -----------------------    end_count = v$2;  // [14]
     714                    ;** 156 -----------------------    C$3 = act_kernel;  // [14]
     715                    ;** 156 -----------------------    *((C$3<<3)+K$38) = *((C$3<<3)+K$38)+(v$2-(beg_count+overhead));  //
TMS320C6x Assembler PC v7.4.2 Thu Mar 19 12:43:10 2015

Tools Copyright (c) 1996-2012 Texas Instruments Incorporated
package/lib/Regression/regress_d_c/./../packages/ti/vlib/src/VLIB_L2_norm_f32/VLIB_L2_norm_f32_d.se66 PAGE   14

     716                    ;** 159 -----------------------    setStackDepth();  // [14]
     717                    ;** 137 -----------------------    act_kernel = 1;  // [13]
     718                    ;** 140 -----------------------    VLIB_cache_inval();  // [13]
     719                    ;** 143 -----------------------    initStack(getSP());  // [13]
     720                    ;** 146 -----------------------    beg_count = _itoll(TSCH, TSCL);  // [13]
     721                    ;** 85  -----------------------    norm_cn = VLIB_L2_norm_f32(pData, (*U$12).len);
     722                    ;** 153 -----------------------    v$2 = _itoll(TSCH, TSCL);  // [14]
     723                    ;** 153 -----------------------    end_count = v$2;  // [14]
     724                    ;** 156 -----------------------    C$2 = act_kernel;  // [14]
     725                    ;** 156 -----------------------    *((C$2<<3)+K$38) = *((C$2<<3)+K$38)+(v$2-(beg_count+overhead));  //
     726                    ;** 159 -----------------------    setStackDepth();  // [14]
     727                            .dwpsn  file "./../packages/ti/vlib/src/VLIB_L2_norm_f32/VLIB_L2_norm_f32_d.c",line 70,column 
     728 000000a8 050e5008             EXTU    .S1     A3,18,16,A10      ; |70| 
     729 000000ac 040e1008             EXTU    .S1     A3,16,16,A8       ; |70| 
     730                    
     731 000000b0 06000069!            MVKH    .S1     testPatternString,A12
     732 000000b4 0510a35b  ||         MVK     .L2     0x4,B10           ; |70| 
     733 000000b8     6446  ||         MV      .L1     A0,A11            ; |70| 
     734 000000ba     c056  ||         MV      .D1     A0,A6             ; |70| 
     735 000000c4 022008f2  ||         MV      .D2     B8,B4             ; |70| 
     736 000000c0 01820163  ||         ADDKPC  .S2     $C$RL3,B3,0       ; |70| 
     737                    
     738 000000c8           $C$RL3:    ; CALL OCCURS {VLIB_fillBuffer} {0}  ; |70| 
     739 000000c8           $C$DW$L$VLIB_L2_norm_f32_d$7$E:
     740                    ;** --------------------------------------------------------------------------*
     741 000000c8           $C$DW$L$VLIB_L2_norm_f32_d$8$B:
     742                    ;          EXCLUSIVE CPU CYCLES: 110
     743 000000c8 0280002a!            MVKL    .S2     act_kernel,B5
     744                    
     745 000000cc 0280006b!            MVKH    .S2     act_kernel,B5
     746 000000d0     0627  ||         ZERO    .L2     B4                ; |137| 
     747                    
     748                    $C$DW$90        .dwtag  DW_TAG_TI_branch
     749                            .dwattr $C$DW$90, DW_AT_low_pc(0x00)
     750                            .dwattr $C$DW$90, DW_AT_name("VLIB_cache_inval")
     751                            .dwattr $C$DW$90, DW_AT_TI_call
     752                    
     753 000000d4 10000012!            CALLP   .S2     VLIB_cache_inval,B3
     754 000000d2     10c5  ||         STW     .D2T2   B4,*B5            ; |137| 
     755                    
     756                            .dwpsn  file ".\..\packages\ti\vlib\src\VLIB_L2_norm_f32\..\common\VLIB_profile.h",line 140,co
     757                    ;----------------------------------------------------------------------
     758                    ; 140 | #endif /* __ONESHOTTEST */                                             
     759                    ;----------------------------------------------------------------------
     760                    $C$RL4:    ; CALL OCCURS {VLIB_cache_inval} {0}  ; |140| 
     761                    $C$DW$91        .dwtag  DW_TAG_TI_branch
     762                            .dwattr $C$DW$91, DW_AT_low_pc(0x00)
     763                            .dwattr $C$DW$91, DW_AT_name("getSP")
     764                            .dwattr $C$DW$91, DW_AT_TI_call
     765 000000d8 10000012!            CALLP   .S2     getSP,B3
     766                            .dwpsn  file ".\..\packages\ti\vlib\src\VLIB_L2_norm_f32\..\common\VLIB_profile.h",line 143,co
     767                    $C$RL5:    ; CALL OCCURS {getSP} {0}         ; |143| 
     768                    $C$DW$92        .dwtag  DW_TAG_TI_branch
     769                            .dwattr $C$DW$92, DW_AT_low_pc(0x00)
     770                            .dwattr $C$DW$92, DW_AT_name("initStack")
TMS320C6x Assembler PC v7.4.2 Thu Mar 19 12:43:10 2015

Tools Copyright (c) 1996-2012 Texas Instruments Incorporated
package/lib/Regression/regress_d_c/./../packages/ti/vlib/src/VLIB_L2_norm_f32/VLIB_L2_norm_f32_d.se66 PAGE   15

     771                            .dwattr $C$DW$92, DW_AT_TI_call
     772 000000e0 10000012!            CALLP   .S2     initStack,B3
     773 000000e4           $C$RL6:    ; CALL OCCURS {initStack} {0}     ; |143| 
     774                            .dwpsn  file ".\..\packages\ti\vlib\src\VLIB_L2_norm_f32\..\common\VLIB_profile.h",line 146,co
     775                    ;----------------------------------------------------------------------
     776                    ; 146 |                                                                        
     777                    ;----------------------------------------------------------------------
     778 000000e4 022803e2             MVC     .S2     TSCL,B4           ; |146| 
     779 000000e8 02ac03e2             MVC     .S2     TSCH,B5           ; |146| 
     780 000000ec 0300002a!            MVKL    .S2     beg_count,B6
     781 000000f0 0300006a!            MVKH    .S2     beg_count,B6
     782 000000f4     1145             STDW    .D2T2   B5:B4,*B6         ; |146| 
     783                    $C$DW$93        .dwtag  DW_TAG_TI_branch
     784                            .dwattr $C$DW$93, DW_AT_low_pc(0x00)
     785                            .dwattr $C$DW$93, DW_AT_name("VLIB_L2_norm_f32")
     786                            .dwattr $C$DW$93, DW_AT_TI_call
     787                    
     788 00000104 10000012!            CALLP   .S2     VLIB_L2_norm_f32,B3
     789 000000f8 02388267  ||         LDW     .D1T2   *+A14(16),B4      ; |79| 
     790 00000100 052c0fd9  ||         MV      .L1     A11,A10           ; |79| 
     791 000000f6     858e  ||         MV      .S1     A11,A4            ; |79| 
     792                    
     793                            .dwpsn  file "./../packages/ti/vlib/src/VLIB_L2_norm_f32/VLIB_L2_norm_f32_d.c",line 79,column 
     794 00000108           $C$RL7:    ; CALL OCCURS {VLIB_L2_norm_f32} {0}  ; |79| 
     795                    
     796 00000108 0510145b             DADD    .L2X    0,A5:A4,B11:B10   ; |79| 
     797 0000010c 042803e2  ||         MVC     .S2     TSCL,B8           ; |153| 
     798                    
     799                            .dwpsn  file ".\..\packages\ti\vlib\src\VLIB_L2_norm_f32\..\common\VLIB_profile.h",line 153,co
     800 00000110 022c03e2             MVC     .S2     TSCH,B4           ; |153| 
     801 00000114 02000028!            MVKL    .S1     beg_count,A4
     802 00000118 01800028!            MVKL    .S1     act_kernel,A3
     803                    
     804 0000011c 01800069!            MVKH    .S1     act_kernel,A3
     805 00000120 0280002a! ||         MVKL    .S2     overhead,B5
     806                    
     807 00000124 018c0265             LDW     .D1T1   *A3,A3            ; |156| 
     808 00000128 02000069! ||         MVKH    .S1     beg_count,A4
     809 0000012c 0280006a! ||         MVKH    .S2     overhead,B5
     810                    
     811 00000130     10ed             LDDW    .D2T2   *B5,B7:B6         ; |156| 
     812 00000132     006c  ||         LDDW    .D1T1   *A4,A7:A6         ; |156| 
     813                    
     814 00000134 0f800028!            MVKL    .S1     cycles,A31
     815 00000138 0f800068!            MVKH    .S1     cycles,A31
     816 00000140 04900fda             MV      .L2     B4,B9             ; |153| 
     817                            .dwpsn  file ".\..\packages\ti\vlib\src\VLIB_L2_norm_f32\..\common\VLIB_profile.h",line 156,co
     818 00000144 047c6b64             LDDW    .D1T1   *+A31[A3],A9:A8   ; |156| 
     819 00000148 0218d57a             ADDU    .L2X    B6,A6,B5:B4       ; |156| 
     820 0000014c     a3e1             ADD     .L2     B5,B7,B6          ; |156| 
     821                    
     822 0000014e     d3eb             ADD     .S2X    B6,A7,B6          ; |156| 
     823 00000150 021105fa  ||         SUBU    .L2     B8,B4,B5:B4       ; |156| 
     824                    
     825 00000154 0f9920fb             SUB     .L2     B9,B6,B31         ; |156| 
TMS320C6x Assembler PC v7.4.2 Thu Mar 19 12:43:10 2015

Tools Copyright (c) 1996-2012 Texas Instruments Incorporated
package/lib/Regression/regress_d_c/./../packages/ti/vlib/src/VLIB_L2_norm_f32/VLIB_L2_norm_f32_d.se66 PAGE   16

     826 00000160 0297184a  ||         EXT     .S2     B5,24,24,B5       ; |156| 
     827 00000158 0f000029! ||         MVKL    .S1     end_count,A30
     828                    
     829 00000164 02111579             ADDU    .L1X    A8,B4,A5:A4       ; |156| 
     830 00000168 0217e07b  ||         ADD     .L2     B31,B5,B4         ; |156| 
     831 0000016c 0f000068! ||         MVKH    .S1     end_count,A30
     832                    
     833 00000170 02a4a079             ADD     .L1     A5,A9,A5          ; |156| 
     834 00000174 03000028! ||         MVKL    .S1     cycles,A6
     835                    
     836 00000178 0290b079             ADD     .L1X    A5,B4,A5          ; |156| 
     837 0000017c 03000069! ||         MVKH    .S1     cycles,A6
     838 00000180 04780346  ||         STDW    .D1T2   B9:B8,*A30        ; |153| 
     839                    
     840                    $C$DW$94        .dwtag  DW_TAG_TI_branch
     841                            .dwattr $C$DW$94, DW_AT_low_pc(0x00)
     842                            .dwattr $C$DW$94, DW_AT_name("setStackDepth")
     843                            .dwattr $C$DW$94, DW_AT_TI_call
     844                    
     845 00000184 10000013!            CALLP   .S2     setStackDepth,B3
     846 00000188 02186b44  ||         STDW    .D1T1   A5:A4,*+A6[A3]    ; |156| 
     847                    
     848                            .dwpsn  file ".\..\packages\ti\vlib\src\VLIB_L2_norm_f32\..\common\VLIB_profile.h",line 159,co
     849 0000018c           $C$RL8:    ; CALL OCCURS {setStackDepth} {0}  ; |159| 
     850 0000018c 0280002a!            MVKL    .S2     act_kernel,B5
     851                    
     852 00000190 0280006b!            MVKH    .S2     act_kernel,B5
     853 00000194     2627  ||         MVK     .L2     1,B4              ; |137| 
     854                    
     855                    $C$DW$95        .dwtag  DW_TAG_TI_branch
     856                            .dwattr $C$DW$95, DW_AT_low_pc(0x00)
     857                            .dwattr $C$DW$95, DW_AT_name("VLIB_cache_inval")
     858                            .dwattr $C$DW$95, DW_AT_TI_call
     859                    
     860 00000198 10000012!            CALLP   .S2     VLIB_cache_inval,B3
     861 00000196     10c5  ||         STW     .D2T2   B4,*B5            ; |137| 
     862                    
     863                            .dwpsn  file ".\..\packages\ti\vlib\src\VLIB_L2_norm_f32\..\common\VLIB_profile.h",line 140,co
     864                    $C$RL9:    ; CALL OCCURS {VLIB_cache_inval} {0}  ; |140| 
     865                    $C$DW$96        .dwtag  DW_TAG_TI_branch
     866                            .dwattr $C$DW$96, DW_AT_low_pc(0x00)
     867                            .dwattr $C$DW$96, DW_AT_name("getSP")
     868                            .dwattr $C$DW$96, DW_AT_TI_call
     869 000001a0 10000012!            CALLP   .S2     getSP,B3
     870                            .dwpsn  file ".\..\packages\ti\vlib\src\VLIB_L2_norm_f32\..\common\VLIB_profile.h",line 143,co
     871                    $C$RL10:   ; CALL OCCURS {getSP} {0}         ; |143| 
     872                    $C$DW$97        .dwtag  DW_TAG_TI_branch
     873                            .dwattr $C$DW$97, DW_AT_low_pc(0x00)
     874                            .dwattr $C$DW$97, DW_AT_name("initStack")
     875                            .dwattr $C$DW$97, DW_AT_TI_call
     876 000001a4 10000012!            CALLP   .S2     initStack,B3
     877 000001a8           $C$RL11:   ; CALL OCCURS {initStack} {0}     ; |143| 
     878                            .dwpsn  file ".\..\packages\ti\vlib\src\VLIB_L2_norm_f32\..\common\VLIB_profile.h",line 146,co
     879 000001a8 032803e2             MVC     .S2     TSCL,B6           ; |146| 
     880 000001ac 022c03e2             MVC     .S2     TSCH,B4           ; |146| 
TMS320C6x Assembler PC v7.4.2 Thu Mar 19 12:43:10 2015

Tools Copyright (c) 1996-2012 Texas Instruments Incorporated
package/lib/Regression/regress_d_c/./../packages/ti/vlib/src/VLIB_L2_norm_f32/VLIB_L2_norm_f32_d.se66 PAGE   17

     881 000001b0 0280002a!            MVKL    .S2     beg_count,B5
     882                    
     883 000001b4 03900fdb             MV      .L2     B4,B7             ; |146| 
     884 000001b8 02388267  ||         LDW     .D1T2   *+A14(16),B4      ; |85| 
     885 000001bc 0280006a! ||         MVKH    .S2     beg_count,B5
     886                    
     887                    $C$DW$98        .dwtag  DW_TAG_TI_branch
     888                            .dwattr $C$DW$98, DW_AT_low_pc(0x00)
     889                            .dwattr $C$DW$98, DW_AT_name("VLIB_L2_norm_f32")
     890                            .dwattr $C$DW$98, DW_AT_TI_call
     891                    
     892 000001c0 10000013!            CALLP   .S2     VLIB_L2_norm_f32,B3
     893 000001c4     10e5  ||         STDW    .D2T2   B7:B6,*B5         ; |146| 
     894 000001c6     8506  ||         MV      .L1     A10,A4            ; |85| 
     895                    
     896                            .dwpsn  file "./../packages/ti/vlib/src/VLIB_L2_norm_f32/VLIB_L2_norm_f32_d.c",line 85,column 
     897 000001c8           $C$RL12:   ; CALL OCCURS {VLIB_L2_norm_f32} {0}  ; |85| 
     898                    
     899 000001c8 06100459             DADD    .L1     0,A5:A4,A13:A12   ; |85| 
     900 000001cc 082803e2  ||         MVC     .S2     TSCL,B16          ; |153| 
     901                    
     902                            .dwpsn  file ".\..\packages\ti\vlib\src\VLIB_L2_norm_f32\..\common\VLIB_profile.h",line 153,co
     903 000001d0 032c03e2             MVC     .S2     TSCH,B6           ; |153| 
     904 000001d4 0380002a!            MVKL    .S2     overhead,B7
     905                    
     906 000001d8 01800029!            MVKL    .S1     act_kernel,A3
     907 000001e0 0200002a! ||         MVKL    .S2     beg_count,B4
     908                    
     909 000001e4 01800069!            MVKH    .S1     act_kernel,A3
     910 000001e8 0200006a! ||         MVKH    .S2     beg_count,B4
     911                    
     912 000001ec 018c0265             LDW     .D1T1   *A3,A3            ; |156| 
     913 000001f0 0380006b! ||         MVKH    .S2     overhead,B7
     914 000001f4 021003e6  ||         LDDW    .D2T2   *B4,B5:B4         ; |156| 
     915                    
     916                            .dwpsn  file ".\..\packages\ti\vlib\src\VLIB_L2_norm_f32\..\common\VLIB_profile.h",line 156,co
     917 000001f8 041c03e6             LDDW    .D2T2   *B7,B9:B8         ; |156| 
     918 000001fc 02000028!            MVKL    .S1     cycles,A4
     919 00000200 02000068!            MVKH    .S1     cycles,A4
     920                            .dwpsn  file ".\..\packages\ti\vlib\src\VLIB_L2_norm_f32\..\common\VLIB_profile.h",line 153,co
     921 00000204     2b47             MV      .L2     B6,B17            ; |153| 
     922                            .dwpsn  file ".\..\packages\ti\vlib\src\VLIB_L2_norm_f32\..\common\VLIB_profile.h",line 156,co
     923 00000206     644c             LDDW    .D1T1   *+A4[A3],A5:A4    ; |156| 
     924 00000208 0311057a             ADDU    .L2     B8,B4,B7:B6       ; |156| 
     925                    
     926 0000020c 0224e1e3             ADD     .S2     B7,B9,B4          ; |156| 
     927 00000210 041a05fa  ||         SUBU    .L2     B16,B6,B9:B8      ; |156| 
     928                    
     929 00000214     82c1             ADD     .L2     B4,B5,B4          ; |156| 
     930                    
     931 00000216     d406             MV      .L1X    B8,A6             ; |156| 
     932 00000218 021220fb  ||         SUB     .L2     B17,B4,B4         ; |156| 
     933 00000220 02a7184a  ||         EXT     .S2     B9,24,24,B5       ; |156| 
     934                    
     935 00000224 03188579             ADDU    .L1     A4,A6,A7:A6       ; |156| 
TMS320C6x Assembler PC v7.4.2 Thu Mar 19 12:43:10 2015

Tools Copyright (c) 1996-2012 Texas Instruments Incorporated
package/lib/Regression/regress_d_c/./../packages/ti/vlib/src/VLIB_L2_norm_f32/VLIB_L2_norm_f32_d.se66 PAGE   18

     936 00000228     82c1  ||         ADD     .L2     B4,B5,B4          ; |156| 
     937                    
     938 0000022a     e2c0             ADD     .L1     A7,A5,A4          ; |156| 
     939                    
     940 00000234 03909078             ADD     .L1X    A4,B4,A7          ; |156| 
     941 00000230 02000029! ||         MVKL    .S1     cycles,A4
     942 0000022c 0300002b! ||         MVKL    .S2     end_count,B6
     943                    
     944 00000238 02000069!            MVKH    .S1     cycles,A4
     945 00000240 0300006a! ||         MVKH    .S2     end_count,B6
     946                    
     947                    $C$DW$99        .dwtag  DW_TAG_TI_branch
     948                            .dwattr $C$DW$99, DW_AT_low_pc(0x00)
     949                            .dwattr $C$DW$99, DW_AT_name("setStackDepth")
     950                            .dwattr $C$DW$99, DW_AT_TI_call
     951                    
     952 00000244 10000013!            CALLP   .S2     setStackDepth,B3
     953 0000024c     6464  ||         STDW    .D1T1   A7:A6,*+A4[A3]    ; |156| 
     954 00000248 081803c7  ||         STDW    .D2T2   B17:B16,*B6       ; |153| 
     955                    
     956                            .dwpsn  file ".\..\packages\ti\vlib\src\VLIB_L2_norm_f32\..\common\VLIB_profile.h",line 159,co
     957 0000024e           $C$RL13:   ; CALL OCCURS {setStackDepth} {0}  ; |159| 
     958 0000024e           $C$DW$L$VLIB_L2_norm_f32_d$8$E:
     959                    ;** --------------------------------------------------------------------------*
     960 0000024e           $C$DW$L$VLIB_L2_norm_f32_d$9$B:
     961                    ;          EXCLUSIVE CPU CYCLES: 18
     962                    ;** 90  -----------------------    status_nat_vs_int = (double)ABS((int)(norm-norm_cn)) <= 0.001;
     963                    ;** 94  -----------------------    v$1 = prm;
     964                    ;** 57  -----------------------    status_nat_vs_ref = 1;
     965                    ;** 94  -----------------------    C$1 = (*U$12).staticOut;
     966                    ;** 94  -----------------------    if ( !((C$1 != 0.0)&((double)ABS((int)(C$1-norm_cn)) > 0.001)) ) go
     967                    ;** 96  -----------------------    status_nat_vs_ref = 0;
     968                    ;**     -----------------------g6:
     969                    ;** 103 -----------------------    est_test = 1;
     970                    ;** 106 -----------------------    sprintf(K$73, (const char *)"%s generated input | Opt results compa
     971                    ;** 108 -----------------------    VLIB_formula_add_test((*U$12).len, 0, 0, (status_nat_vs_int == 0)|(
     972                    ;** 110 -----------------------    goto g8;
     973                            .dwpsn  file "./../packages/ti/vlib/src/VLIB_L2_norm_f32/VLIB_L2_norm_f32_d.c",line 94,column 
     974 0000024e     bccd             LDW     .D2T2   *+SP(20),B4       ; |94| 
     975 00000250 0300002a!            MVKL    .S2     $C$SL2+0,B6
     976 00000254 0300006a!            MVKH    .S2     $C$SL2+0,B6
     977 00000258 02000028!            MVKL    .S1     est_test,A4
     978                            .dwpsn  file "./../packages/ti/vlib/src/VLIB_L2_norm_f32/VLIB_L2_norm_f32_d.c",line 106,column
     979 00000260 033c22f6             STW     .D2T2   B6,*+SP(4)        ; |106| 
     980 00000264 0230807a             ADD     .L2     B4,B12,B4         ; |106| 
     981 00000268 029082e6             LDW     .D2T2   *+B4(16),B5       ; |106| 
     982 0000026c 0200002a!            MVKL    .S2     testPatternString,B4
     983                            .dwpsn  file "./../packages/ti/vlib/src/VLIB_L2_norm_f32/VLIB_L2_norm_f32_d.c",line 94,column 
     984 00000270 05382364             LDDW    .D1T1   *+A14(8),A11:A10  ; |94| 
     985 00000274 0200006a!            MVKH    .S2     testPatternString,B4
     986 00000278 02000068!            MVKH    .S1     est_test,A4
     987                    
     988 0000027c 0184a359             MVK     .L1     1,A3              ; |103| 
     989 00000280     fc55  ||         STW     .D2T2   B5,*+SP(12)       ; |106| 
     990                    
TMS320C6x Assembler PC v7.4.2 Thu Mar 19 12:43:10 2015

Tools Copyright (c) 1996-2012 Texas Instruments Incorporated
package/lib/Regression/regress_d_c/./../packages/ti/vlib/src/VLIB_L2_norm_f32/VLIB_L2_norm_f32_d.se66 PAGE   19

     991                    $C$DW$100       .dwtag  DW_TAG_TI_branch
     992                            .dwattr $C$DW$100, DW_AT_low_pc(0x00)
     993                            .dwattr $C$DW$100, DW_AT_name("sprintf")
     994                            .dwattr $C$DW$100, DW_AT_TI_call
     995                    
     996 00000284 10000013!            CALLP   .S2     sprintf,B3
     997 00000282     dc45  ||         STW     .D2T2   B4,*+SP(8)        ; |106| 
     998 00000288     0034  ||         STW     .D1T1   A3,*A4            ; |103| 
     999 0000028a     9686  ||         MV      .L1X    B13,A4            ; |106| 
    1000                    
    1001                            .dwpsn  file "./../packages/ti/vlib/src/VLIB_L2_norm_f32/VLIB_L2_norm_f32_d.c",line 106,column
    1002 0000028c           $C$RL14:   ; CALL OCCURS {sprintf} {0}       ; |106| 
    1003 0000028c           $C$DW$L$VLIB_L2_norm_f32_d$9$E:
    1004                    ;** --------------------------------------------------------------------------*
    1005 0000028c           $C$DW$L$VLIB_L2_norm_f32_d$10$B:
    1006                    ;          EXCLUSIVE CPU CYCLES: 27
    1007                            .dwpsn  file "./../packages/ti/vlib/src/VLIB_L2_norm_f32/VLIB_L2_norm_f32_d.c",line 94,column 
    1008 0000028c 02314fb0             FSUBDP  .S1     A11:A10,A13:A12,A5:A4 ; |94| 
    1009                            .dwpsn  file "./../packages/ti/vlib/src/VLIB_L2_norm_f32/VLIB_L2_norm_f32_d.c",line 90,column 
    1010 00000290 02315b3a             FSUBDP  .L2X    B11:B10,A13:A12,B5:B4 ; |90| 
    1011                            .dwpsn  file "./../packages/ti/vlib/src/VLIB_L2_norm_f32/VLIB_L2_norm_f32_d.c",line 94,column 
    1012 00000294 040004f8             ZERO    .L1     A9:A8             ; |94| 
    1013 00000298 01948038             DPTRUNC .L1     A5:A4,A3          ; |94| 
    1014                            .dwpsn  file "./../packages/ti/vlib/src/VLIB_L2_norm_f32/VLIB_L2_norm_f32_d.c",line 90,column 
    1015 000002a0 0214803a             DPTRUNC .L2     B5:B4,B4          ; |90| 
    1016                            .dwpsn  file "./../packages/ti/vlib/src/VLIB_L2_norm_f32/VLIB_L2_norm_f32_d.c",line 94,column 
    1017 000002a4 0fa14a20             CMPEQDP .S1     A11:A10,A9:A8,A31 ; |94| 
    1018                            .dwpsn  file "./../packages/ti/vlib/src/VLIB_L2_norm_f32/VLIB_L2_norm_f32_d.c",line 108,column
    1019 000002a8 043418f0             MV      .D1X    B13,A8            ; |108| 
    1020                            .dwpsn  file "./../packages/ti/vlib/src/VLIB_L2_norm_f32/VLIB_L2_norm_f32_d.c",line 94,column 
    1021 000002ac 018c0358             ABS     .L1     A3,A3             ; |94| 
    1022                            .dwpsn  file "./../packages/ti/vlib/src/VLIB_L2_norm_f32/VLIB_L2_norm_f32_d.c",line 90,column 
    1023 000002b0 0210035a             ABS     .L2     B4,B4             ; |90| 
    1024                    
    1025 000002b4 030c0739             INTDP   .L1     A3,A7:A6          ; |94| 
    1026 000002b8 0310073a  ||         INTDP   .L2     B4,B7:B6          ; |90| 
    1027                    
    1028 000002bc 0254fe28             MVKL    .S1     0xd2f1a9fc,A4
    1029 000002c0 02b126a8             MVKL    .S1     0x3f50624d,A5
    1030 000002c4 026978e8             MVKH    .S1     0xd2f1a9fc,A4
    1031 000002c8 029fa868             MVKH    .S1     0x3f50624d,A5
    1032                    
    1033 000002d0 04101fda             MV      .L2X    A4,B8             ; |94| 
    1034 000002cc 0210ca61  ||         CMPGTDP .S1     A7:A6,A5:A4,A4    ; |94| 
    1035                    
    1036                            .dwpsn  file "./../packages/ti/vlib/src/VLIB_L2_norm_f32/VLIB_L2_norm_f32_d.c",line 94,column 
    1037 000002d4 01fc2dd8             XOR     .L1     1,A31,A3          ; |94| 
    1038                    
    1039 000002d8     8588             AND     .L1     A4,A3,A0          ; |94| 
    1040 000002da     2627  ||         MVK     .L2     0x1,B4            ; |57| 
    1041 000002e0     36cf  ||         MV      .S2X    A5,B9             ; |94| 
    1042                    
    1043 000002e2     0a67     [ A0]   ZERO    .L2     B4                ; |96| 
    1044 000002e4 02a0ca62  ||         CMPGTDP .S2     B7:B6,B9:B8,B5    ; |90| 
    1045                    
TMS320C6x Assembler PC v7.4.2 Thu Mar 19 12:43:10 2015

Tools Copyright (c) 1996-2012 Texas Instruments Incorporated
package/lib/Regression/regress_d_c/./../packages/ti/vlib/src/VLIB_L2_norm_f32/VLIB_L2_norm_f32_d.se66 PAGE   20

    1046                            .dwpsn  file "./../packages/ti/vlib/src/VLIB_L2_norm_f32/VLIB_L2_norm_f32_d.c",line 108,column
    1047 000002e8 0400a35a             ZERO    .L2     B8                ; |108| 
    1048                    
    1049 000002ec 01901a59             CMPEQ   .L1X    B4,0,A3           ; |108| 
    1050 000002f0 0f942dda  ||         XOR     .L2     1,B5,B31          ; |90| 
    1051                    
    1052 000002f4 027c0a5a             CMPEQ   .L2     B31,0,B4          ; |108| 
    1053                    $C$DW$101       .dwtag  DW_TAG_TI_branch
    1054                            .dwattr $C$DW$101, DW_AT_low_pc(0x00)
    1055                            .dwattr $C$DW$101, DW_AT_name("VLIB_formula_add_test")
    1056                            .dwattr $C$DW$101, DW_AT_TI_call
    1057                    
    1058 000002f8 10000013!            CALLP   .S2     VLIB_formula_add_test,B3
    1059 00000300 02388265  ||         LDW     .D1T1   *+A14(16),A4      ; |108| 
    1060 00000304 030c9ffb  ||         OR      .L2X    A3,B4,B6          ; |108| 
    1061 00000308     1a77  ||         ZERO    .D2     B4                ; |108| 
    1062 0000030a     0726  ||         ZERO    .L1     A6                ; |108| 
    1063                    
    1064 0000030c           $C$RL15:   ; CALL OCCURS {VLIB_formula_add_test} {0}  ; |108| 
    1065 0000030c           $C$DW$L$VLIB_L2_norm_f32_d$10$E:
    1066                    ;** --------------------------------------------------------------------------*
    1067 0000030c           $C$DW$L$VLIB_L2_norm_f32_d$11$B:
    1068                    ;          EXCLUSIVE CPU CYCLES: 6
    1069                            .dwpsn  file "./../packages/ti/vlib/src/VLIB_L2_norm_f32/VLIB_L2_norm_f32_d.c",line 110,column
    1070 0000030c 00000710             B       .S1     $C$L3             ; |110| 
    1071                            .dwpsn  file "./../packages/ti/vlib/src/VLIB_L2_norm_f32/VLIB_L2_norm_f32_d.c",line 118,column
    1072                    $C$DW$102       .dwtag  DW_TAG_TI_branch
    1073                            .dwattr $C$DW$102, DW_AT_low_pc(0x00)
    1074                            .dwattr $C$DW$102, DW_AT_name("VLIB_free")
    1075                            .dwattr $C$DW$102, DW_AT_TI_call
    1076 00000310 00000010!            CALL    .S1     VLIB_free         ; |118| 
    1077 00000314     cccd             LDW     .D2T1   *+SP(24),A4       ; |118| 
    1078 00000316     4c6e             NOP             3
    1079                            .dwpsn  file "./../packages/ti/vlib/src/VLIB_L2_norm_f32/VLIB_L2_norm_f32_d.c",line 110,column
    1080                               ; BRANCH OCCURS {$C$L3}           ; |110| 
    1081 00000318           $C$DW$L$VLIB_L2_norm_f32_d$11$E:
    1082                    ;** --------------------------------------------------------------------------*
    1083 00000318           $C$L2:    
    1084                            .dwpsn  file "./../packages/ti/vlib/src/VLIB_L2_norm_f32/VLIB_L2_norm_f32_d.c",line 65,column 
    1085 00000318           $C$DW$L$VLIB_L2_norm_f32_d$12$B:
    1086                    ;          EXCLUSIVE CPU CYCLES: 4
    1087                    ;**     -----------------------g7:
    1088                    ;** 112 -----------------------    sprintf(K$73, (const char *)"len=%d", (*U$12).len);
    1089                    ;** 114 -----------------------    VLIB_skip_test(K$73);
    1090                            .dwpsn  file "./../packages/ti/vlib/src/VLIB_L2_norm_f32/VLIB_L2_norm_f32_d.c",line 112,column
    1091 00000318     bc45             STW     .D2T2   B4,*+SP(4)        ; |112| 
    1092 0000031a     9686             MV      .L1X    B13,A4            ; |112| 
    1093 00000320 01820162             ADDKPC  .S2     $C$RL16,B3,0      ; |112| 
    1094 00000324 01bc42f4             STW     .D2T1   A3,*+SP(8)        ; |112| 
    1095                    $C$RL16:   ; CALL OCCURS {sprintf} {0}       ; |112| 
    1096                    $C$DW$L$VLIB_L2_norm_f32_d$12$E:
    1097                    ;** --------------------------------------------------------------------------*
    1098                    $C$DW$L$VLIB_L2_norm_f32_d$13$B:
    1099                    ;          EXCLUSIVE CPU CYCLES: 11
    1100                    $C$DW$103       .dwtag  DW_TAG_TI_branch
TMS320C6x Assembler PC v7.4.2 Thu Mar 19 12:43:10 2015

Tools Copyright (c) 1996-2012 Texas Instruments Incorporated
package/lib/Regression/regress_d_c/./../packages/ti/vlib/src/VLIB_L2_norm_f32/VLIB_L2_norm_f32_d.se66 PAGE   21

    1101                            .dwattr $C$DW$103, DW_AT_low_pc(0x00)
    1102                            .dwattr $C$DW$103, DW_AT_name("VLIB_skip_test")
    1103                            .dwattr $C$DW$103, DW_AT_TI_call
    1104                    
    1105 00000328 10000013!            CALLP   .S2     VLIB_skip_test,B3
    1106 0000032c 02341fd8  ||         MV      .L1X    B13,A4            ; |114| 
    1107                    
    1108                            .dwpsn  file "./../packages/ti/vlib/src/VLIB_L2_norm_f32/VLIB_L2_norm_f32_d.c",line 114,column
    1109 00000330           $C$RL17:   ; CALL OCCURS {VLIB_skip_test} {0}  ; |114| 
    1110                            .dwpsn  file "./../packages/ti/vlib/src/VLIB_L2_norm_f32/VLIB_L2_norm_f32_d.c",line 118,column
    1111                    $C$DW$104       .dwtag  DW_TAG_TI_branch
    1112                            .dwattr $C$DW$104, DW_AT_low_pc(0x00)
    1113                            .dwattr $C$DW$104, DW_AT_name("VLIB_free")
    1114                            .dwattr $C$DW$104, DW_AT_TI_call
    1115 00000330 00000010!            CALL    .S1     VLIB_free         ; |118| 
    1116 00000334     cccd             LDW     .D2T1   *+SP(24),A4       ; |118| 
    1117 00000336     4c6e             NOP             3
    1118 00000338           $C$DW$L$VLIB_L2_norm_f32_d$13$E:
    1119                    ;** --------------------------------------------------------------------------*
    1120 00000338           $C$L3:    
    1121                            .dwpsn  file "./../packages/ti/vlib/src/VLIB_L2_norm_f32/VLIB_L2_norm_f32_d.c",line 110,column
    1122 00000338           $C$DW$L$VLIB_L2_norm_f32_d$14$B:
    1123                    ;          EXCLUSIVE CPU CYCLES: 1
    1124                    ;**     -----------------------g8:
    1125                    ;** 118 -----------------------    VLIB_free((void *)pData);
    1126                    ;** 53  -----------------------    U$11 += 24;
    1127                    ;** 53  -----------------------    if ( test_cases > (++tpi) ) goto g3;
    1128                            .dwpsn  file "./../packages/ti/vlib/src/VLIB_L2_norm_f32/VLIB_L2_norm_f32_d.c",line 118,column
    1129 00000338 01880162             ADDKPC  .S2     $C$RL18,B3,0      ; |118| 
    1130 00000340           $C$RL18:   ; CALL OCCURS {VLIB_free} {0}     ; |118| 
    1131 00000340           $C$DW$L$VLIB_L2_norm_f32_d$14$E:
    1132                    ;** --------------------------------------------------------------------------*
    1133 00000340           $C$DW$L$VLIB_L2_norm_f32_d$15$B:
    1134                    ;          EXCLUSIVE CPU CYCLES: 14
    1135 00000340 01800028!            MVKL    .S1     test_cases,A3
    1136 00000344 01800068!            MVKH    .S1     test_cases,A3
    1137                            .dwpsn  file "./../packages/ti/vlib/src/VLIB_L2_norm_f32/VLIB_L2_norm_f32_d.c",line 53,column 
    1138 00000348 018c0264             LDW     .D1T1   *A3,A3            ; |53| 
    1139 0000034c 06000c52             ADDK    .S2     24,B12            ; |53| 
    1140 00000350 07bc2058             ADD     .L1     1,A15,A15         ; |53| 
    1141                            .dwpsn  file "./../packages/ti/vlib/src/VLIB_L2_norm_f32/VLIB_L2_norm_f32_d.c",line 60,column 
    1142 00000354 07000c50             ADDK    .S1     24,A14            ; |60| 
    1143 00000358 00000000             NOP             1
    1144                            .dwpsn  file "./../packages/ti/vlib/src/VLIB_L2_norm_f32/VLIB_L2_norm_f32_d.c",line 53,column 
    1145 0000035c 003c68f8             CMPGT   .L1     A3,A15,A0         ; |53| 
    1146                    
    1147 00000360 cf428121     [ A0]   BNOP    .S1     $C$L1,4           ; |53| 
    1148 00000364 c1b88264  || [ A0]   LDW     .D1T1   *+A14(16),A3      ; |60| 
    1149                    
    1150                            .dwpsn  file "./../packages/ti/vlib/src/VLIB_L2_norm_f32/VLIB_L2_norm_f32_d.c",line 60,column 
    1151 00000368 020c4ca0             SHL     .S1     A3,2,A4           ; |60| 
    1152                            .dwpsn  file "./../packages/ti/vlib/src/VLIB_L2_norm_f32/VLIB_L2_norm_f32_d.c",line 53,column 
    1153                               ; BRANCHCC OCCURS {$C$L1}         ; |53| 
    1154 0000036c           $C$DW$L$VLIB_L2_norm_f32_d$15$E:
    1155                    ;** --------------------------------------------------------------------------*
TMS320C6x Assembler PC v7.4.2 Thu Mar 19 12:43:10 2015

Tools Copyright (c) 1996-2012 Texas Instruments Incorporated
package/lib/Regression/regress_d_c/./../packages/ti/vlib/src/VLIB_L2_norm_f32/VLIB_L2_norm_f32_d.se66 PAGE   22

    1156 0000036c           $C$L4:    
    1157                    ;          EXCLUSIVE CPU CYCLES: 8
    1158                    ;**     -----------------------g9:
    1159                    ;** 122 -----------------------    VLIB_profile_cycle_report(2, "N = len", "len");
    1160                    ;** 158 -----------------------    printf((const char *)"---------------------------------------------
    1161                    ;** 165 -----------------------    VLIB_stack_memory();  // [16]
    1162                    ;**     -----------------------    return;
    1163 0000036c 0200002a!            MVKL    .S2     $C$SL5+0,B4
    1164                    
    1165 00000370 03000029!            MVKL    .S1     $C$SL4+0,A6
    1166 00000374 0200006a! ||         MVKH    .S2     $C$SL5+0,B4
    1167                    
    1168                    $C$DW$105       .dwtag  DW_TAG_TI_branch
    1169                            .dwattr $C$DW$105, DW_AT_low_pc(0x00)
    1170                            .dwattr $C$DW$105, DW_AT_name("VLIB_profile_cycle_report")
    1171                            .dwattr $C$DW$105, DW_AT_TI_call
    1172                    
    1173 00000378 10000013!            CALLP   .S2     VLIB_profile_cycle_report,B3
    1174 0000037c 03000069! ||         MVKH    .S1     $C$SL4+0,A6
    1175 00000380 0208a358  ||         MVK     .L1     0x2,A4            ; |122| 
    1176                    
    1177                            .dwpsn  file "./../packages/ti/vlib/src/VLIB_L2_norm_f32/VLIB_L2_norm_f32_d.c",line 122,column
    1178 00000384           $C$RL19:   ; CALL OCCURS {VLIB_profile_cycle_report} {0}  ; |122| 
    1179                    ;** --------------------------------------------------------------------------*
    1180                    ;          EXCLUSIVE CPU CYCLES: 14
    1181 00000384 0200002a!            MVKL    .S2     $C$SL6+0,B4
    1182 00000388 0200006a!            MVKH    .S2     $C$SL6+0,B4
    1183                    $C$DW$106       .dwtag  DW_TAG_TI_branch
    1184                            .dwattr $C$DW$106, DW_AT_low_pc(0x00)
    1185                            .dwattr $C$DW$106, DW_AT_name("printf")
    1186                            .dwattr $C$DW$106, DW_AT_TI_call
    1187                    
    1188 0000038c 10000013!            CALLP   .S2     printf,B3
    1189 00000390 023c22f6  ||         STW     .D2T2   B4,*+SP(4)        ; |158| 
    1190                    
    1191                            .dwpsn  file ".\..\packages\ti\vlib\src\VLIB_L2_norm_f32\../common/VLIB_memory.h",line 158,col
    1192                    $C$RL20:   ; CALL OCCURS {printf} {0}        ; |158| 
    1193                    $C$DW$107       .dwtag  DW_TAG_TI_branch
    1194                            .dwattr $C$DW$107, DW_AT_low_pc(0x00)
    1195                            .dwattr $C$DW$107, DW_AT_name("VLIB_stack_memory")
    1196                            .dwattr $C$DW$107, DW_AT_TI_call
    1197 00000394 10000012!            CALLP   .S2     VLIB_stack_memory,B3
    1198                            .dwpsn  file ".\..\packages\ti\vlib\src\VLIB_L2_norm_f32\../common/VLIB_memory.h",line 165,col
    1199 00000398           $C$RL21:   ; CALL OCCURS {VLIB_stack_memory} {0}  ; |165| 
    1200                    ;** --------------------------------------------------------------------------*
    1201                    ;          EXCLUSIVE CPU CYCLES: 13
    1202                            .dwpsn  file "./../packages/ti/vlib/src/VLIB_L2_norm_f32/VLIB_L2_norm_f32_d.c",line 128,column
    1203 00000398 01bd12e6             LDW     .D2T2   *++SP(32),B3      ; |128| 
    1204                            .dwcfi  cfa_offset, 48
    1205                            .dwcfi  restore_reg, 19
    1206 0000039c 063c33e4             LDDW    .D2T1   *++SP,A13:A12
    1207                            .dwcfi  cfa_offset, 40
    1208                            .dwcfi  restore_reg, 13
    1209                            .dwcfi  restore_reg, 12
    1210 000003a0 073c33e4             LDDW    .D2T1   *++SP,A15:A14
TMS320C6x Assembler PC v7.4.2 Thu Mar 19 12:43:10 2015

Tools Copyright (c) 1996-2012 Texas Instruments Incorporated
package/lib/Regression/regress_d_c/./../packages/ti/vlib/src/VLIB_L2_norm_f32/VLIB_L2_norm_f32_d.se66 PAGE   23

    1211                            .dwcfi  cfa_offset, 32
    1212                            .dwcfi  restore_reg, 15
    1213                            .dwcfi  restore_reg, 14
    1214 000003a4 053c33e6             LDDW    .D2T2   *++SP,B11:B10
    1215                            .dwcfi  cfa_offset, 24
    1216                            .dwcfi  restore_reg, 27
    1217                            .dwcfi  restore_reg, 26
    1218 000003a8 063c33e6             LDDW    .D2T2   *++SP,B13:B12
    1219                            .dwcfi  cfa_offset, 16
    1220                            .dwcfi  restore_reg, 29
    1221                            .dwcfi  restore_reg, 28
    1222 000003ac 053c52e4             LDW     .D2T1   *++SP(8),A10
    1223                            .dwcfi  cfa_offset, 8
    1224                            .dwcfi  restore_reg, 10
    1225 000003b0 05bc52e4             LDW     .D2T1   *++SP(8),A11      ; |128| 
    1226                            .dwcfi  cfa_offset, 0
    1227                            .dwcfi  restore_reg, 11
    1228                            .dwcfi  cfa_offset, 0
    1229                    $C$DW$108       .dwtag  DW_TAG_TI_branch
    1230                            .dwattr $C$DW$108, DW_AT_low_pc(0x00)
    1231                            .dwattr $C$DW$108, DW_AT_TI_return
    1232 000003b4 008ca362             RETNOP  .S2     B3,5
    1233                               ; BRANCH OCCURS {B3}  
    1234                    
    1235                    $C$DW$109       .dwtag  DW_TAG_TI_loop
    1236                            .dwattr $C$DW$109, DW_AT_name("c:\nightlybuilds\vlib\ti\vlib\vlib\examples\package/lib/Regress
    1237                            .dwattr $C$DW$109, DW_AT_TI_begin_file("./../packages/ti/vlib/src/VLIB_L2_norm_f32/VLIB_L2_nor
    1238                            .dwattr $C$DW$109, DW_AT_TI_begin_line(0x35)
    1239                            .dwattr $C$DW$109, DW_AT_TI_end_line(0x77)
    1240                    $C$DW$110       .dwtag  DW_TAG_TI_loop_range
    1241                            .dwattr $C$DW$110, DW_AT_low_pc($C$DW$L$VLIB_L2_norm_f32_d$5$B)
    1242                            .dwattr $C$DW$110, DW_AT_high_pc($C$DW$L$VLIB_L2_norm_f32_d$5$E)
    1243                    $C$DW$111       .dwtag  DW_TAG_TI_loop_range
    1244                            .dwattr $C$DW$111, DW_AT_low_pc($C$DW$L$VLIB_L2_norm_f32_d$12$B)
    1245                            .dwattr $C$DW$111, DW_AT_high_pc($C$DW$L$VLIB_L2_norm_f32_d$12$E)
    1246                    $C$DW$112       .dwtag  DW_TAG_TI_loop_range
    1247                            .dwattr $C$DW$112, DW_AT_low_pc($C$DW$L$VLIB_L2_norm_f32_d$6$B)
    1248                            .dwattr $C$DW$112, DW_AT_high_pc($C$DW$L$VLIB_L2_norm_f32_d$6$E)
    1249                    $C$DW$113       .dwtag  DW_TAG_TI_loop_range
    1250                            .dwattr $C$DW$113, DW_AT_low_pc($C$DW$L$VLIB_L2_norm_f32_d$7$B)
    1251                            .dwattr $C$DW$113, DW_AT_high_pc($C$DW$L$VLIB_L2_norm_f32_d$7$E)
    1252                    $C$DW$114       .dwtag  DW_TAG_TI_loop_range
    1253                            .dwattr $C$DW$114, DW_AT_low_pc($C$DW$L$VLIB_L2_norm_f32_d$8$B)
    1254                            .dwattr $C$DW$114, DW_AT_high_pc($C$DW$L$VLIB_L2_norm_f32_d$8$E)
    1255                    $C$DW$115       .dwtag  DW_TAG_TI_loop_range
    1256                            .dwattr $C$DW$115, DW_AT_low_pc($C$DW$L$VLIB_L2_norm_f32_d$9$B)
    1257                            .dwattr $C$DW$115, DW_AT_high_pc($C$DW$L$VLIB_L2_norm_f32_d$9$E)
    1258                    $C$DW$116       .dwtag  DW_TAG_TI_loop_range
    1259                            .dwattr $C$DW$116, DW_AT_low_pc($C$DW$L$VLIB_L2_norm_f32_d$10$B)
    1260                            .dwattr $C$DW$116, DW_AT_high_pc($C$DW$L$VLIB_L2_norm_f32_d$10$E)
    1261                    $C$DW$117       .dwtag  DW_TAG_TI_loop_range
    1262                            .dwattr $C$DW$117, DW_AT_low_pc($C$DW$L$VLIB_L2_norm_f32_d$11$B)
    1263                            .dwattr $C$DW$117, DW_AT_high_pc($C$DW$L$VLIB_L2_norm_f32_d$11$E)
    1264                    $C$DW$118       .dwtag  DW_TAG_TI_loop_range
    1265                            .dwattr $C$DW$118, DW_AT_low_pc($C$DW$L$VLIB_L2_norm_f32_d$13$B)
TMS320C6x Assembler PC v7.4.2 Thu Mar 19 12:43:10 2015

Tools Copyright (c) 1996-2012 Texas Instruments Incorporated
package/lib/Regression/regress_d_c/./../packages/ti/vlib/src/VLIB_L2_norm_f32/VLIB_L2_norm_f32_d.se66 PAGE   24

    1266                            .dwattr $C$DW$118, DW_AT_high_pc($C$DW$L$VLIB_L2_norm_f32_d$13$E)
    1267                    $C$DW$119       .dwtag  DW_TAG_TI_loop_range
    1268                            .dwattr $C$DW$119, DW_AT_low_pc($C$DW$L$VLIB_L2_norm_f32_d$14$B)
    1269                            .dwattr $C$DW$119, DW_AT_high_pc($C$DW$L$VLIB_L2_norm_f32_d$14$E)
    1270                    $C$DW$120       .dwtag  DW_TAG_TI_loop_range
    1271                            .dwattr $C$DW$120, DW_AT_low_pc($C$DW$L$VLIB_L2_norm_f32_d$15$B)
    1272                            .dwattr $C$DW$120, DW_AT_high_pc($C$DW$L$VLIB_L2_norm_f32_d$15$E)
    1273                            .dwendtag $C$DW$109
    1274                    
    1275                            .dwattr $C$DW$64, DW_AT_TI_end_file("./../packages/ti/vlib/src/VLIB_L2_norm_f32/VLIB_L2_norm_f
    1276                            .dwattr $C$DW$64, DW_AT_TI_end_line(0x80)
    1277                            .dwattr $C$DW$64, DW_AT_TI_end_column(0x01)
    1278                            .dwendentry
    1279                            .dwendtag $C$DW$64
    1280                    
    1281                    ;; Inlined function references:
    1282                    ;; [ 13] VLIB_profile_start
    1283                    ;; [ 14] VLIB_profile_stop
    1284                    ;; [ 16] VLIB_kernel_memory
    1285                    ;******************************************************************************
    1286                    ;* STRINGS                                                                    *
    1287                    ;******************************************************************************
    1288 00000000                   .sect   ".const:.string"
    1289 00000000 00000056  $C$SL1: .string "VLIB_L2_norm_f32",0
         00000001 0000004C 
         00000002 00000049 
         00000003 00000042 
         00000004 0000005F 
         00000005 0000004C 
         00000006 00000032 
         00000007 0000005F 
         00000008 0000006E 
         00000009 0000006F 
         0000000a 00000072 
         0000000b 0000006D 
         0000000c 0000005F 
         0000000d 00000066 
         0000000e 00000033 
         0000000f 00000032 
         00000010 00000000 
    1290 00000011 00000025  $C$SL2: .string "%s generated input | Opt results compared to NatC results |"
         00000012 00000073 
         00000013 00000020 
         00000014 00000067 
         00000015 00000065 
         00000016 0000006E 
         00000017 00000065 
         00000018 00000072 
         00000019 00000061 
         0000001a 00000074 
         0000001b 00000065 
         0000001c 00000064 
         0000001d 00000020 
         0000001e 00000069 
         0000001f 0000006E 
TMS320C6x Assembler PC v7.4.2 Thu Mar 19 12:43:10 2015

Tools Copyright (c) 1996-2012 Texas Instruments Incorporated
package/lib/Regression/regress_d_c/./../packages/ti/vlib/src/VLIB_L2_norm_f32/VLIB_L2_norm_f32_d.se66 PAGE   25

         00000020 00000070 
         00000021 00000075 
         00000022 00000074 
         00000023 00000020 
         00000024 0000007C 
         00000025 00000020 
         00000026 0000004F 
         00000027 00000070 
         00000028 00000074 
         00000029 00000020 
         0000002a 00000072 
         0000002b 00000065 
         0000002c 00000073 
         0000002d 00000075 
         0000002e 0000006C 
         0000002f 00000074 
         00000030 00000073 
         00000031 00000020 
         00000032 00000063 
         00000033 0000006F 
         00000034 0000006D 
         00000035 00000070 
         00000036 00000061 
         00000037 00000072 
         00000038 00000065 
         00000039 00000064 
         0000003a 00000020 
         0000003b 00000074 
         0000003c 0000006F 
         0000003d 00000020 
         0000003e 0000004E 
         0000003f 00000061 
         00000040 00000074 
         00000041 00000043 
         00000042 00000020 
         00000043 00000072 
         00000044 00000065 
         00000045 00000073 
         00000046 00000075 
         00000047 0000006C 
         00000048 00000074 
         00000049 00000073 
         0000004a 00000020 
         0000004b 0000007C 
    1291 0000004c 00000020          .string " len=%d",0
         0000004d 0000006C 
         0000004e 00000065 
         0000004f 0000006E 
         00000050 0000003D 
         00000051 00000025 
         00000052 00000064 
         00000053 00000000 
    1292 00000054 0000006C  $C$SL3: .string "len=%d",0
         00000055 00000065 
         00000056 0000006E 
TMS320C6x Assembler PC v7.4.2 Thu Mar 19 12:43:10 2015

Tools Copyright (c) 1996-2012 Texas Instruments Incorporated
package/lib/Regression/regress_d_c/./../packages/ti/vlib/src/VLIB_L2_norm_f32/VLIB_L2_norm_f32_d.se66 PAGE   26

         00000057 0000003D 
         00000058 00000025 
         00000059 00000064 
         0000005a 00000000 
    1293 0000005b 0000006C  $C$SL4: .string "len",0
         0000005c 00000065 
         0000005d 0000006E 
         0000005e 00000000 
    1294 0000005f 0000004E  $C$SL5: .string "N = len",0
         00000060 00000020 
         00000061 0000003D 
         00000062 00000020 
         00000063 0000006C 
         00000064 00000065 
         00000065 0000006E 
         00000066 00000000 
    1295 00000067 0000002D  $C$SL6: .string "-----------------------------------------------------------"
         00000068 0000002D 
         00000069 0000002D 
         0000006a 0000002D 
         0000006b 0000002D 
         0000006c 0000002D 
         0000006d 0000002D 
         0000006e 0000002D 
         0000006f 0000002D 
         00000070 0000002D 
         00000071 0000002D 
         00000072 0000002D 
         00000073 0000002D 
         00000074 0000002D 
         00000075 0000002D 
         00000076 0000002D 
         00000077 0000002D 
         00000078 0000002D 
         00000079 0000002D 
         0000007a 0000002D 
         0000007b 0000002D 
         0000007c 0000002D 
         0000007d 0000002D 
         0000007e 0000002D 
         0000007f 0000002D 
         00000080 0000002D 
         00000081 0000002D 
         00000082 0000002D 
         00000083 0000002D 
         00000084 0000002D 
         00000085 0000002D 
         00000086 0000002D 
         00000087 0000002D 
         00000088 0000002D 
         00000089 0000002D 
         0000008a 0000002D 
         0000008b 0000002D 
         0000008c 0000002D 
         0000008d 0000002D 
TMS320C6x Assembler PC v7.4.2 Thu Mar 19 12:43:10 2015

Tools Copyright (c) 1996-2012 Texas Instruments Incorporated
package/lib/Regression/regress_d_c/./../packages/ti/vlib/src/VLIB_L2_norm_f32/VLIB_L2_norm_f32_d.se66 PAGE   27

         0000008e 0000002D 
         0000008f 0000002D 
         00000090 0000002D 
         00000091 0000002D 
         00000092 0000002D 
         00000093 0000002D 
         00000094 0000002D 
         00000095 0000002D 
         00000096 0000002D 
         00000097 0000002D 
         00000098 0000002D 
         00000099 0000002D 
         0000009a 0000002D 
         0000009b 0000002D 
         0000009c 0000002D 
         0000009d 0000002D 
         0000009e 0000002D 
         0000009f 0000002D 
         000000a0 0000002D 
         000000a1 0000002D 
    1296 000000a2 0000002D          .string "-----------------------------------------------------------"
         000000a3 0000002D 
         000000a4 0000002D 
         000000a5 0000002D 
         000000a6 0000002D 
         000000a7 0000002D 
         000000a8 0000002D 
         000000a9 0000002D 
         000000aa 0000002D 
         000000ab 0000002D 
         000000ac 0000002D 
         000000ad 0000002D 
         000000ae 0000002D 
         000000af 0000002D 
         000000b0 0000002D 
         000000b1 0000002D 
         000000b2 0000002D 
         000000b3 0000002D 
         000000b4 0000002D 
         000000b5 0000002D 
         000000b6 0000002D 
         000000b7 0000002D 
         000000b8 0000002D 
         000000b9 0000002D 
         000000ba 0000002D 
         000000bb 0000002D 
         000000bc 0000002D 
         000000bd 0000002D 
         000000be 0000002D 
         000000bf 0000002D 
         000000c0 0000002D 
         000000c1 0000002D 
         000000c2 0000002D 
         000000c3 0000002D 
         000000c4 0000002D 
TMS320C6x Assembler PC v7.4.2 Thu Mar 19 12:43:10 2015

Tools Copyright (c) 1996-2012 Texas Instruments Incorporated
package/lib/Regression/regress_d_c/./../packages/ti/vlib/src/VLIB_L2_norm_f32/VLIB_L2_norm_f32_d.se66 PAGE   28

         000000c5 0000002D 
         000000c6 0000002D 
         000000c7 0000002D 
         000000c8 0000002D 
         000000c9 0000002D 
         000000ca 0000002D 
         000000cb 0000002D 
         000000cc 0000002D 
         000000cd 0000002D 
         000000ce 0000002D 
         000000cf 0000002D 
         000000d0 0000002D 
         000000d1 0000002D 
         000000d2 0000002D 
         000000d3 0000002D 
         000000d4 0000002D 
         000000d5 0000002D 
         000000d6 0000002D 
         000000d7 0000002D 
         000000d8 0000002D 
         000000d9 0000002D 
         000000da 0000002D 
         000000db 0000002D 
         000000dc 0000002D 
    1297 000000dd 0000002D          .string "-----------------------",10,0
         000000de 0000002D 
         000000df 0000002D 
         000000e0 0000002D 
         000000e1 0000002D 
         000000e2 0000002D 
         000000e3 0000002D 
         000000e4 0000002D 
         000000e5 0000002D 
         000000e6 0000002D 
         000000e7 0000002D 
         000000e8 0000002D 
         000000e9 0000002D 
         000000ea 0000002D 
         000000eb 0000002D 
         000000ec 0000002D 
         000000ed 0000002D 
         000000ee 0000002D 
         000000ef 0000002D 
         000000f0 0000002D 
         000000f1 0000002D 
         000000f2 0000002D 
         000000f3 0000002D 
         000000f4 0000000A 
         000000f5 00000000 
    1298                    ;*****************************************************************************
    1299                    ;* UNDEFINED EXTERNAL REFERENCES                                             *
    1300                    ;*****************************************************************************
    1301                            .global printf
    1302                            .global sprintf
    1303                            .global VLIB_cache_inval
TMS320C6x Assembler PC v7.4.2 Thu Mar 19 12:43:10 2015

Tools Copyright (c) 1996-2012 Texas Instruments Incorporated
package/lib/Regression/regress_d_c/./../packages/ti/vlib/src/VLIB_L2_norm_f32/VLIB_L2_norm_f32_d.se66 PAGE   29

    1304                            .global VLIB_profile_init
    1305                            .global VLIB_formula_add_test
    1306                            .global VLIB_skip_test
    1307                            .global VLIB_profile_cycle_report
    1308                            .global initStack
    1309                            .global setStackDepth
    1310                            .global getSP
    1311                            .global VLIB_stack_memory
    1312                            .global VLIB_fillBuffer
    1313                            .global VLIB_malloc
    1314                            .global VLIB_free
    1315                            .global VLIB_L2_norm_f32
    1316                            .global L2_norm_f32_getTestParams
    1317                            .global test_cases
    1318                            .global act_kernel
    1319                            .global desc
    1320                            .global testPatternString
    1321                            .global est_test
    1322                            .global beg_count
    1323                            .global end_count
    1324                            .global overhead
    1325                            .global cycles
    1326                    
    1327                    ;******************************************************************************
    1328                    ;* BUILD ATTRIBUTES                                                           *
    1329                    ;******************************************************************************
    1330                            .battr "TI", Tag_File, 1, Tag_Long_Precision_Bits(2)
    1331                            .battr "TI", Tag_File, 1, Tag_Bitfield_layout(2)
    1332                            .battr "TI", Tag_File, 1, Tag_ABI_enum_size(2)
    1333                            .battr "c6xabi", Tag_File, 1, Tag_ABI_wchar_t(1)
    1334                            .battr "c6xabi", Tag_File, 1, Tag_ABI_array_object_alignment(0)
    1335                            .battr "c6xabi", Tag_File, 1, Tag_ABI_array_object_align_expected(0)
    1336                            .battr "c6xabi", Tag_File, 1, Tag_ABI_PIC(0)
    1337                            .battr "c6xabi", Tag_File, 1, Tag_ABI_PID(0)
    1338                            .battr "c6xabi", Tag_File, 1, Tag_ABI_DSBT(0)
    1339                            .battr "c6xabi", Tag_File, 1, Tag_ABI_stack_align_needed(0)
    1340                            .battr "c6xabi", Tag_File, 1, Tag_ABI_stack_align_preserved(0)
    1341                            .battr "TI", Tag_File, 1, Tag_Tramps_Use_SOC(1)
    1342                    
    1343                    ;******************************************************************************
    1344                    ;* TYPE INFORMATION                                                           *
    1345                    ;******************************************************************************
    1346                    
    1347                    $C$DW$T$37      .dwtag  DW_TAG_enumeration_type
    1348                            .dwattr $C$DW$T$37, DW_AT_byte_size(0x04)
    1349                    $C$DW$121       .dwtag  DW_TAG_enumerator, DW_AT_name("VLIB_NO_ERROR"), DW_AT_const_value(0x00)
    1350                            .dwattr $C$DW$121, DW_AT_decl_file(".\..\packages\ti\vlib\src\VLIB_L2_norm_f32\..\common\c66/V
    1351                            .dwattr $C$DW$121, DW_AT_decl_line(0x7a)
    1352                            .dwattr $C$DW$121, DW_AT_decl_column(0x05)
    1353                    $C$DW$122       .dwtag  DW_TAG_enumerator, DW_AT_name("VLIB_ERR_INPUT_INVALID"), DW_AT_const_value(0x0
    1354                            .dwattr $C$DW$122, DW_AT_decl_file(".\..\packages\ti\vlib\src\VLIB_L2_norm_f32\..\common\c66/V
    1355                            .dwattr $C$DW$122, DW_AT_decl_line(0x7b)
    1356                            .dwattr $C$DW$122, DW_AT_decl_column(0x05)
    1357                    $C$DW$123       .dwtag  DW_TAG_enumerator, DW_AT_name("VLIB_ERR_INPUT_NEGATIVE"), DW_AT_const_value(0x
    1358                            .dwattr $C$DW$123, DW_AT_decl_file(".\..\packages\ti\vlib\src\VLIB_L2_norm_f32\..\common\c66/V
TMS320C6x Assembler PC v7.4.2 Thu Mar 19 12:43:10 2015

Tools Copyright (c) 1996-2012 Texas Instruments Incorporated
package/lib/Regression/regress_d_c/./../packages/ti/vlib/src/VLIB_L2_norm_f32/VLIB_L2_norm_f32_d.se66 PAGE   30

    1359                            .dwattr $C$DW$123, DW_AT_decl_line(0x7c)
    1360                            .dwattr $C$DW$123, DW_AT_decl_column(0x05)
    1361                    $C$DW$124       .dwtag  DW_TAG_enumerator, DW_AT_name("VLIB_ERR_INPUT_EXCEEDED_RANGE"), DW_AT_const_va
    1362                            .dwattr $C$DW$124, DW_AT_decl_file(".\..\packages\ti\vlib\src\VLIB_L2_norm_f32\..\common\c66/V
    1363                            .dwattr $C$DW$124, DW_AT_decl_line(0x7d)
    1364                            .dwattr $C$DW$124, DW_AT_decl_column(0x05)
    1365                    $C$DW$125       .dwtag  DW_TAG_enumerator, DW_AT_name("VLIB_ERR_MEMORY_EXCEEDED_BOUNDARY"), DW_AT_cons
    1366                            .dwattr $C$DW$125, DW_AT_decl_file(".\..\packages\ti\vlib\src\VLIB_L2_norm_f32\..\common\c66/V
    1367                            .dwattr $C$DW$125, DW_AT_decl_line(0x7e)
    1368                            .dwattr $C$DW$125, DW_AT_decl_column(0x05)
    1369                    $C$DW$126       .dwtag  DW_TAG_enumerator, DW_AT_name("VLIB_ERR_MEMORY_ALLOCATION_FAILURE"), DW_AT_con
    1370                            .dwattr $C$DW$126, DW_AT_decl_file(".\..\packages\ti\vlib\src\VLIB_L2_norm_f32\..\common\c66/V
    1371                            .dwattr $C$DW$126, DW_AT_decl_line(0x7f)
    1372                            .dwattr $C$DW$126, DW_AT_decl_column(0x05)
    1373                    $C$DW$127       .dwtag  DW_TAG_enumerator, DW_AT_name("VLIB_ERR_MEMORY_POINTER_NULL"), DW_AT_const_val
    1374                            .dwattr $C$DW$127, DW_AT_decl_file(".\..\packages\ti\vlib\src\VLIB_L2_norm_f32\..\common\c66/V
    1375                            .dwattr $C$DW$127, DW_AT_decl_line(0x80)
    1376                            .dwattr $C$DW$127, DW_AT_decl_column(0x05)
    1377                    $C$DW$128       .dwtag  DW_TAG_enumerator, DW_AT_name("VLIB_ERR_DMA_FAILURE"), DW_AT_const_value(0x07)
    1378                            .dwattr $C$DW$128, DW_AT_decl_file(".\..\packages\ti\vlib\src\VLIB_L2_norm_f32\..\common\c66/V
    1379                            .dwattr $C$DW$128, DW_AT_decl_line(0x81)
    1380                            .dwattr $C$DW$128, DW_AT_decl_column(0x05)
    1381                    $C$DW$129       .dwtag  DW_TAG_enumerator, DW_AT_name("VLIB_ERR_FILE_OPEN_FAILURE"), DW_AT_const_value
    1382                            .dwattr $C$DW$129, DW_AT_decl_file(".\..\packages\ti\vlib\src\VLIB_L2_norm_f32\..\common\c66/V
    1383                            .dwattr $C$DW$129, DW_AT_decl_line(0x82)
    1384                            .dwattr $C$DW$129, DW_AT_decl_column(0x05)
    1385                    $C$DW$130       .dwtag  DW_TAG_enumerator, DW_AT_name("VLIB_ERR_FILE_READ_FAILURE"), DW_AT_const_value
    1386                            .dwattr $C$DW$130, DW_AT_decl_file(".\..\packages\ti\vlib\src\VLIB_L2_norm_f32\..\common\c66/V
    1387                            .dwattr $C$DW$130, DW_AT_decl_line(0x83)
    1388                            .dwattr $C$DW$130, DW_AT_decl_column(0x05)
    1389                    $C$DW$131       .dwtag  DW_TAG_enumerator, DW_AT_name("VLIB_ERR_FILE_WRITE_FAILURE"), DW_AT_const_valu
    1390                            .dwattr $C$DW$131, DW_AT_decl_file(".\..\packages\ti\vlib\src\VLIB_L2_norm_f32\..\common\c66/V
    1391                            .dwattr $C$DW$131, DW_AT_decl_line(0x84)
    1392                            .dwattr $C$DW$131, DW_AT_decl_column(0x05)
    1393                    $C$DW$132       .dwtag  DW_TAG_enumerator, DW_AT_name("VLIB_ERR_FILE_CLOSE_FAILURE"), DW_AT_const_valu
    1394                            .dwattr $C$DW$132, DW_AT_decl_file(".\..\packages\ti\vlib\src\VLIB_L2_norm_f32\..\common\c66/V
    1395                            .dwattr $C$DW$132, DW_AT_decl_line(0x85)
    1396                            .dwattr $C$DW$132, DW_AT_decl_column(0x05)
    1397                    $C$DW$133       .dwtag  DW_TAG_enumerator, DW_AT_name("VLIB_ERR_FILE_FORMAT_FAILURE"), DW_AT_const_val
    1398                            .dwattr $C$DW$133, DW_AT_decl_file(".\..\packages\ti\vlib\src\VLIB_L2_norm_f32\..\common\c66/V
    1399                            .dwattr $C$DW$133, DW_AT_decl_line(0x86)
    1400                            .dwattr $C$DW$133, DW_AT_decl_column(0x05)
    1401                    $C$DW$134       .dwtag  DW_TAG_enumerator, DW_AT_name("VLIB_WARNING_LOW_MEMORY"), DW_AT_const_value(0x
    1402                            .dwattr $C$DW$134, DW_AT_decl_file(".\..\packages\ti\vlib\src\VLIB_L2_norm_f32\..\common\c66/V
    1403                            .dwattr $C$DW$134, DW_AT_decl_line(0x87)
    1404                            .dwattr $C$DW$134, DW_AT_decl_column(0x05)
    1405                    $C$DW$135       .dwtag  DW_TAG_enumerator, DW_AT_name("VLIB_ERR_NOT_IMPLEMENTED"), DW_AT_const_value(0
    1406                            .dwattr $C$DW$135, DW_AT_decl_file(".\..\packages\ti\vlib\src\VLIB_L2_norm_f32\..\common\c66/V
    1407                            .dwattr $C$DW$135, DW_AT_decl_line(0x88)
    1408                            .dwattr $C$DW$135, DW_AT_decl_column(0x05)
    1409                    $C$DW$136       .dwtag  DW_TAG_enumerator, DW_AT_name("VLIB_ERROR_MAX"), DW_AT_const_value(0x0f)
    1410                            .dwattr $C$DW$136, DW_AT_decl_file(".\..\packages\ti\vlib\src\VLIB_L2_norm_f32\..\common\c66/V
    1411                            .dwattr $C$DW$136, DW_AT_decl_line(0x89)
    1412                            .dwattr $C$DW$136, DW_AT_decl_column(0x05)
    1413                            .dwendtag $C$DW$T$37
TMS320C6x Assembler PC v7.4.2 Thu Mar 19 12:43:10 2015

Tools Copyright (c) 1996-2012 Texas Instruments Incorporated
package/lib/Regression/regress_d_c/./../packages/ti/vlib/src/VLIB_L2_norm_f32/VLIB_L2_norm_f32_d.se66 PAGE   31

    1414                    
    1415                            .dwattr $C$DW$T$37, DW_AT_decl_file(".\..\packages\ti\vlib\src\VLIB_L2_norm_f32\..\common\c66/
    1416                            .dwattr $C$DW$T$37, DW_AT_decl_line(0x79)
    1417                            .dwattr $C$DW$T$37, DW_AT_decl_column(0x0e)
    1418                    $C$DW$T$38      .dwtag  DW_TAG_typedef, DW_AT_name("VLIB_STATUS")
    1419                            .dwattr $C$DW$T$38, DW_AT_type(*$C$DW$T$37)
    1420                            .dwattr $C$DW$T$38, DW_AT_language(DW_LANG_C)
    1421                            .dwattr $C$DW$T$38, DW_AT_decl_file(".\..\packages\ti\vlib\src\VLIB_L2_norm_f32\..\common\c66/
    1422                            .dwattr $C$DW$T$38, DW_AT_decl_line(0x8a)
    1423                            .dwattr $C$DW$T$38, DW_AT_decl_column(0x03)
    1424                    
    1425                    $C$DW$T$39      .dwtag  DW_TAG_enumeration_type
    1426                            .dwattr $C$DW$T$39, DW_AT_byte_size(0x04)
    1427                    $C$DW$137       .dwtag  DW_TAG_enumerator, DW_AT_name("vlib_KERNEL_OPT"), DW_AT_const_value(0x00)
    1428                            .dwattr $C$DW$137, DW_AT_decl_file(".\..\packages\ti\vlib\src\VLIB_L2_norm_f32\../common/VLIB_
    1429                            .dwattr $C$DW$137, DW_AT_decl_line(0x6a)
    1430                            .dwattr $C$DW$137, DW_AT_decl_column(0x05)
    1431                    $C$DW$138       .dwtag  DW_TAG_enumerator, DW_AT_name("vlib_KERNEL_CN"), DW_AT_const_value(0x01)
    1432                            .dwattr $C$DW$138, DW_AT_decl_file(".\..\packages\ti\vlib\src\VLIB_L2_norm_f32\../common/VLIB_
    1433                            .dwattr $C$DW$138, DW_AT_decl_line(0x6b)
    1434                            .dwattr $C$DW$138, DW_AT_decl_column(0x05)
    1435                    $C$DW$139       .dwtag  DW_TAG_enumerator, DW_AT_name("vlib_KERNEL_CNT"), DW_AT_const_value(0x02)
    1436                            .dwattr $C$DW$139, DW_AT_decl_file(".\..\packages\ti\vlib\src\VLIB_L2_norm_f32\../common/VLIB_
    1437                            .dwattr $C$DW$139, DW_AT_decl_line(0x6c)
    1438                            .dwattr $C$DW$139, DW_AT_decl_column(0x05)
    1439                            .dwendtag $C$DW$T$39
    1440                    
    1441                            .dwattr $C$DW$T$39, DW_AT_decl_file(".\..\packages\ti\vlib\src\VLIB_L2_norm_f32\../common/VLIB
    1442                            .dwattr $C$DW$T$39, DW_AT_decl_line(0x69)
    1443                            .dwattr $C$DW$T$39, DW_AT_decl_column(0x06)
    1444                    
    1445                    $C$DW$T$40      .dwtag  DW_TAG_enumeration_type
    1446                            .dwattr $C$DW$T$40, DW_AT_byte_size(0x04)
    1447                    $C$DW$140       .dwtag  DW_TAG_enumerator, DW_AT_name("vlib_KERNEL_FAIL"), DW_AT_const_value(0x00)
    1448                            .dwattr $C$DW$140, DW_AT_decl_file(".\..\packages\ti\vlib\src\VLIB_L2_norm_f32\../common/VLIB_
    1449                            .dwattr $C$DW$140, DW_AT_decl_line(0x72)
    1450                            .dwattr $C$DW$140, DW_AT_decl_column(0x05)
    1451                    $C$DW$141       .dwtag  DW_TAG_enumerator, DW_AT_name("vlib_KERNEL_PASS"), DW_AT_const_value(0x01)
    1452                            .dwattr $C$DW$141, DW_AT_decl_file(".\..\packages\ti\vlib\src\VLIB_L2_norm_f32\../common/VLIB_
    1453                            .dwattr $C$DW$141, DW_AT_decl_line(0x73)
    1454                            .dwattr $C$DW$141, DW_AT_decl_column(0x05)
    1455                            .dwendtag $C$DW$T$40
    1456                    
    1457                            .dwattr $C$DW$T$40, DW_AT_decl_file(".\..\packages\ti\vlib\src\VLIB_L2_norm_f32\../common/VLIB
    1458                            .dwattr $C$DW$T$40, DW_AT_decl_line(0x71)
    1459                            .dwattr $C$DW$T$40, DW_AT_decl_column(0x06)
    1460                    
    1461                    $C$DW$T$24      .dwtag  DW_TAG_structure_type
    1462                            .dwattr $C$DW$T$24, DW_AT_byte_size(0x18)
    1463                    $C$DW$142       .dwtag  DW_TAG_member
    1464                            .dwattr $C$DW$142, DW_AT_type(*$C$DW$T$19)
    1465                            .dwattr $C$DW$142, DW_AT_name("testPattern")
    1466                            .dwattr $C$DW$142, DW_AT_TI_symbol_name("testPattern")
    1467                            .dwattr $C$DW$142, DW_AT_data_member_location[DW_OP_plus_uconst 0x0]
    1468                            .dwattr $C$DW$142, DW_AT_accessibility(DW_ACCESS_public)
TMS320C6x Assembler PC v7.4.2 Thu Mar 19 12:43:10 2015

Tools Copyright (c) 1996-2012 Texas Instruments Incorporated
package/lib/Regression/regress_d_c/./../packages/ti/vlib/src/VLIB_L2_norm_f32/VLIB_L2_norm_f32_d.se66 PAGE   32

    1469                            .dwattr $C$DW$142, DW_AT_decl_file(".\..\packages\ti\vlib\src\VLIB_L2_norm_f32\VLIB_L2_norm_f3
    1470                            .dwattr $C$DW$142, DW_AT_decl_line(0x24)
    1471                            .dwattr $C$DW$142, DW_AT_decl_column(0x0f)
    1472                    $C$DW$143       .dwtag  DW_TAG_member
    1473                            .dwattr $C$DW$143, DW_AT_type(*$C$DW$T$21)
    1474                            .dwattr $C$DW$143, DW_AT_name("staticIn")
    1475                            .dwattr $C$DW$143, DW_AT_TI_symbol_name("staticIn")
    1476                            .dwattr $C$DW$143, DW_AT_data_member_location[DW_OP_plus_uconst 0x4]
    1477                            .dwattr $C$DW$143, DW_AT_accessibility(DW_ACCESS_public)
    1478                            .dwattr $C$DW$143, DW_AT_decl_file(".\..\packages\ti\vlib\src\VLIB_L2_norm_f32\VLIB_L2_norm_f3
    1479                            .dwattr $C$DW$143, DW_AT_decl_line(0x25)
    1480                            .dwattr $C$DW$143, DW_AT_decl_column(0x0f)
    1481                    $C$DW$144       .dwtag  DW_TAG_member
    1482                            .dwattr $C$DW$144, DW_AT_type(*$C$DW$T$22)
    1483                            .dwattr $C$DW$144, DW_AT_name("staticOut")
    1484                            .dwattr $C$DW$144, DW_AT_TI_symbol_name("staticOut")
    1485                            .dwattr $C$DW$144, DW_AT_data_member_location[DW_OP_plus_uconst 0x8]
    1486                            .dwattr $C$DW$144, DW_AT_accessibility(DW_ACCESS_public)
    1487                            .dwattr $C$DW$144, DW_AT_decl_file(".\..\packages\ti\vlib\src\VLIB_L2_norm_f32\VLIB_L2_norm_f3
    1488                            .dwattr $C$DW$144, DW_AT_decl_line(0x26)
    1489                            .dwattr $C$DW$144, DW_AT_decl_column(0x0f)
    1490                    $C$DW$145       .dwtag  DW_TAG_member
    1491                            .dwattr $C$DW$145, DW_AT_type(*$C$DW$T$23)
    1492                            .dwattr $C$DW$145, DW_AT_name("len")
    1493                            .dwattr $C$DW$145, DW_AT_TI_symbol_name("len")
    1494                            .dwattr $C$DW$145, DW_AT_data_member_location[DW_OP_plus_uconst 0x10]
    1495                            .dwattr $C$DW$145, DW_AT_accessibility(DW_ACCESS_public)
    1496                            .dwattr $C$DW$145, DW_AT_decl_file(".\..\packages\ti\vlib\src\VLIB_L2_norm_f32\VLIB_L2_norm_f3
    1497                            .dwattr $C$DW$145, DW_AT_decl_line(0x27)
    1498                            .dwattr $C$DW$145, DW_AT_decl_column(0x0f)
    1499                            .dwendtag $C$DW$T$24
    1500                    
    1501                            .dwattr $C$DW$T$24, DW_AT_decl_file(".\..\packages\ti\vlib\src\VLIB_L2_norm_f32\VLIB_L2_norm_f
    1502                            .dwattr $C$DW$T$24, DW_AT_decl_line(0x23)
    1503                            .dwattr $C$DW$T$24, DW_AT_decl_column(0x10)
    1504                    $C$DW$T$41      .dwtag  DW_TAG_typedef, DW_AT_name("L2_norm_f32_testParams_t")
    1505                            .dwattr $C$DW$T$41, DW_AT_type(*$C$DW$T$24)
    1506                            .dwattr $C$DW$T$41, DW_AT_language(DW_LANG_C)
    1507                            .dwattr $C$DW$T$41, DW_AT_decl_file(".\..\packages\ti\vlib\src\VLIB_L2_norm_f32\VLIB_L2_norm_f
    1508                            .dwattr $C$DW$T$41, DW_AT_decl_line(0x28)
    1509                            .dwattr $C$DW$T$41, DW_AT_decl_column(0x03)
    1510                    $C$DW$T$42      .dwtag  DW_TAG_pointer_type
    1511                            .dwattr $C$DW$T$42, DW_AT_type(*$C$DW$T$41)
    1512                            .dwattr $C$DW$T$42, DW_AT_address_class(0x20)
    1513                    $C$DW$T$43      .dwtag  DW_TAG_pointer_type
    1514                            .dwattr $C$DW$T$43, DW_AT_type(*$C$DW$T$42)
    1515                            .dwattr $C$DW$T$43, DW_AT_address_class(0x20)
    1516                    $C$DW$T$44      .dwtag  DW_TAG_pointer_type
    1517                            .dwattr $C$DW$T$44, DW_AT_type(*$C$DW$T$24)
    1518                            .dwattr $C$DW$T$44, DW_AT_address_class(0x20)
    1519                    
    1520                    $C$DW$T$26      .dwtag  DW_TAG_structure_type
    1521                            .dwattr $C$DW$T$26, DW_AT_byte_size(0x18)
    1522                    $C$DW$146       .dwtag  DW_TAG_member
    1523                            .dwattr $C$DW$146, DW_AT_type(*$C$DW$T$10)
TMS320C6x Assembler PC v7.4.2 Thu Mar 19 12:43:10 2015

Tools Copyright (c) 1996-2012 Texas Instruments Incorporated
package/lib/Regression/regress_d_c/./../packages/ti/vlib/src/VLIB_L2_norm_f32/VLIB_L2_norm_f32_d.se66 PAGE   33

    1524                            .dwattr $C$DW$146, DW_AT_name("fd")
    1525                            .dwattr $C$DW$146, DW_AT_TI_symbol_name("fd")
    1526                            .dwattr $C$DW$146, DW_AT_data_member_location[DW_OP_plus_uconst 0x0]
    1527                            .dwattr $C$DW$146, DW_AT_accessibility(DW_ACCESS_public)
    1528                            .dwattr $C$DW$146, DW_AT_decl_file("C:/VLIB_Tools/CCSV5_4_0/ccsv5/tools/compiler/C6000/include
    1529                            .dwattr $C$DW$146, DW_AT_decl_line(0x49)
    1530                            .dwattr $C$DW$146, DW_AT_decl_column(0x0b)
    1531                    $C$DW$147       .dwtag  DW_TAG_member
    1532                            .dwattr $C$DW$147, DW_AT_type(*$C$DW$T$25)
    1533                            .dwattr $C$DW$147, DW_AT_name("buf")
    1534                            .dwattr $C$DW$147, DW_AT_TI_symbol_name("buf")
    1535                            .dwattr $C$DW$147, DW_AT_data_member_location[DW_OP_plus_uconst 0x4]
    1536                            .dwattr $C$DW$147, DW_AT_accessibility(DW_ACCESS_public)
    1537                            .dwattr $C$DW$147, DW_AT_decl_file("C:/VLIB_Tools/CCSV5_4_0/ccsv5/tools/compiler/C6000/include
    1538                            .dwattr $C$DW$147, DW_AT_decl_line(0x4a)
    1539                            .dwattr $C$DW$147, DW_AT_decl_column(0x16)
    1540                    $C$DW$148       .dwtag  DW_TAG_member
    1541                            .dwattr $C$DW$148, DW_AT_type(*$C$DW$T$25)
    1542                            .dwattr $C$DW$148, DW_AT_name("pos")
    1543                            .dwattr $C$DW$148, DW_AT_TI_symbol_name("pos")
    1544                            .dwattr $C$DW$148, DW_AT_data_member_location[DW_OP_plus_uconst 0x8]
    1545                            .dwattr $C$DW$148, DW_AT_accessibility(DW_ACCESS_public)
    1546                            .dwattr $C$DW$148, DW_AT_decl_file("C:/VLIB_Tools/CCSV5_4_0/ccsv5/tools/compiler/C6000/include
    1547                            .dwattr $C$DW$148, DW_AT_decl_line(0x4b)
    1548                            .dwattr $C$DW$148, DW_AT_decl_column(0x16)
    1549                    $C$DW$149       .dwtag  DW_TAG_member
    1550                            .dwattr $C$DW$149, DW_AT_type(*$C$DW$T$25)
    1551                            .dwattr $C$DW$149, DW_AT_name("bufend")
    1552                            .dwattr $C$DW$149, DW_AT_TI_symbol_name("bufend")
    1553                            .dwattr $C$DW$149, DW_AT_data_member_location[DW_OP_plus_uconst 0xc]
    1554                            .dwattr $C$DW$149, DW_AT_accessibility(DW_ACCESS_public)
    1555                            .dwattr $C$DW$149, DW_AT_decl_file("C:/VLIB_Tools/CCSV5_4_0/ccsv5/tools/compiler/C6000/include
    1556                            .dwattr $C$DW$149, DW_AT_decl_line(0x4c)
    1557                            .dwattr $C$DW$149, DW_AT_decl_column(0x16)
    1558                    $C$DW$150       .dwtag  DW_TAG_member
    1559                            .dwattr $C$DW$150, DW_AT_type(*$C$DW$T$25)
    1560                            .dwattr $C$DW$150, DW_AT_name("buff_stop")
    1561                            .dwattr $C$DW$150, DW_AT_TI_symbol_name("buff_stop")
    1562                            .dwattr $C$DW$150, DW_AT_data_member_location[DW_OP_plus_uconst 0x10]
    1563                            .dwattr $C$DW$150, DW_AT_accessibility(DW_ACCESS_public)
    1564                            .dwattr $C$DW$150, DW_AT_decl_file("C:/VLIB_Tools/CCSV5_4_0/ccsv5/tools/compiler/C6000/include
    1565                            .dwattr $C$DW$150, DW_AT_decl_line(0x4d)
    1566                            .dwattr $C$DW$150, DW_AT_decl_column(0x16)
    1567                    $C$DW$151       .dwtag  DW_TAG_member
    1568                            .dwattr $C$DW$151, DW_AT_type(*$C$DW$T$11)
    1569                            .dwattr $C$DW$151, DW_AT_name("flags")
    1570                            .dwattr $C$DW$151, DW_AT_TI_symbol_name("flags")
    1571                            .dwattr $C$DW$151, DW_AT_data_member_location[DW_OP_plus_uconst 0x14]
    1572                            .dwattr $C$DW$151, DW_AT_accessibility(DW_ACCESS_public)
    1573                            .dwattr $C$DW$151, DW_AT_decl_file("C:/VLIB_Tools/CCSV5_4_0/ccsv5/tools/compiler/C6000/include
    1574                            .dwattr $C$DW$151, DW_AT_decl_line(0x4e)
    1575                            .dwattr $C$DW$151, DW_AT_decl_column(0x16)
    1576                            .dwendtag $C$DW$T$26
    1577                    
    1578                            .dwattr $C$DW$T$26, DW_AT_decl_file("C:/VLIB_Tools/CCSV5_4_0/ccsv5/tools/compiler/C6000/includ
TMS320C6x Assembler PC v7.4.2 Thu Mar 19 12:43:10 2015

Tools Copyright (c) 1996-2012 Texas Instruments Incorporated
package/lib/Regression/regress_d_c/./../packages/ti/vlib/src/VLIB_L2_norm_f32/VLIB_L2_norm_f32_d.se66 PAGE   34

    1579                            .dwattr $C$DW$T$26, DW_AT_decl_line(0x48)
    1580                            .dwattr $C$DW$T$26, DW_AT_decl_column(0x10)
    1581                    $C$DW$T$46      .dwtag  DW_TAG_typedef, DW_AT_name("FILE")
    1582                            .dwattr $C$DW$T$46, DW_AT_type(*$C$DW$T$26)
    1583                            .dwattr $C$DW$T$46, DW_AT_language(DW_LANG_C)
    1584                            .dwattr $C$DW$T$46, DW_AT_decl_file("C:/VLIB_Tools/CCSV5_4_0/ccsv5/tools/compiler/C6000/includ
    1585                            .dwattr $C$DW$T$46, DW_AT_decl_line(0x4f)
    1586                            .dwattr $C$DW$T$46, DW_AT_decl_column(0x03)
    1587                    
    1588                    $C$DW$T$27      .dwtag  DW_TAG_structure_type
    1589                            .dwattr $C$DW$T$27, DW_AT_byte_size(0x08)
    1590                    $C$DW$152       .dwtag  DW_TAG_member
    1591                            .dwattr $C$DW$152, DW_AT_type(*$C$DW$T$10)
    1592                            .dwattr $C$DW$152, DW_AT_name("quot")
    1593                            .dwattr $C$DW$152, DW_AT_TI_symbol_name("quot")
    1594                            .dwattr $C$DW$152, DW_AT_data_member_location[DW_OP_plus_uconst 0x0]
    1595                            .dwattr $C$DW$152, DW_AT_accessibility(DW_ACCESS_public)
    1596                            .dwattr $C$DW$152, DW_AT_decl_file("C:/VLIB_Tools/CCSV5_4_0/ccsv5/tools/compiler/C6000/include
    1597                            .dwattr $C$DW$152, DW_AT_decl_line(0x3e)
    1598                            .dwattr $C$DW$152, DW_AT_decl_column(0x16)
    1599                    $C$DW$153       .dwtag  DW_TAG_member
    1600                            .dwattr $C$DW$153, DW_AT_type(*$C$DW$T$10)
    1601                            .dwattr $C$DW$153, DW_AT_name("rem")
    1602                            .dwattr $C$DW$153, DW_AT_TI_symbol_name("rem")
    1603                            .dwattr $C$DW$153, DW_AT_data_member_location[DW_OP_plus_uconst 0x4]
    1604                            .dwattr $C$DW$153, DW_AT_accessibility(DW_ACCESS_public)
    1605                            .dwattr $C$DW$153, DW_AT_decl_file("C:/VLIB_Tools/CCSV5_4_0/ccsv5/tools/compiler/C6000/include
    1606                            .dwattr $C$DW$153, DW_AT_decl_line(0x3e)
    1607                            .dwattr $C$DW$153, DW_AT_decl_column(0x1c)
    1608                            .dwendtag $C$DW$T$27
    1609                    
    1610                            .dwattr $C$DW$T$27, DW_AT_decl_file("C:/VLIB_Tools/CCSV5_4_0/ccsv5/tools/compiler/C6000/includ
    1611                            .dwattr $C$DW$T$27, DW_AT_decl_line(0x3e)
    1612                            .dwattr $C$DW$T$27, DW_AT_decl_column(0x10)
    1613                    $C$DW$T$47      .dwtag  DW_TAG_typedef, DW_AT_name("div_t")
    1614                            .dwattr $C$DW$T$47, DW_AT_type(*$C$DW$T$27)
    1615                            .dwattr $C$DW$T$47, DW_AT_language(DW_LANG_C)
    1616                            .dwattr $C$DW$T$47, DW_AT_decl_file("C:/VLIB_Tools/CCSV5_4_0/ccsv5/tools/compiler/C6000/includ
    1617                            .dwattr $C$DW$T$47, DW_AT_decl_line(0x3e)
    1618                            .dwattr $C$DW$T$47, DW_AT_decl_column(0x23)
    1619                    
    1620                    $C$DW$T$28      .dwtag  DW_TAG_structure_type
    1621                            .dwattr $C$DW$T$28, DW_AT_byte_size(0x08)
    1622                    $C$DW$154       .dwtag  DW_TAG_member
    1623                            .dwattr $C$DW$154, DW_AT_type(*$C$DW$T$10)
    1624                            .dwattr $C$DW$154, DW_AT_name("quot")
    1625                            .dwattr $C$DW$154, DW_AT_TI_symbol_name("quot")
    1626                            .dwattr $C$DW$154, DW_AT_data_member_location[DW_OP_plus_uconst 0x0]
    1627                            .dwattr $C$DW$154, DW_AT_accessibility(DW_ACCESS_public)
    1628                            .dwattr $C$DW$154, DW_AT_decl_file("C:/VLIB_Tools/CCSV5_4_0/ccsv5/tools/compiler/C6000/include
    1629                            .dwattr $C$DW$154, DW_AT_decl_line(0x40)
    1630                            .dwattr $C$DW$154, DW_AT_decl_column(0x17)
    1631                    $C$DW$155       .dwtag  DW_TAG_member
    1632                            .dwattr $C$DW$155, DW_AT_type(*$C$DW$T$10)
    1633                            .dwattr $C$DW$155, DW_AT_name("rem")
TMS320C6x Assembler PC v7.4.2 Thu Mar 19 12:43:10 2015

Tools Copyright (c) 1996-2012 Texas Instruments Incorporated
package/lib/Regression/regress_d_c/./../packages/ti/vlib/src/VLIB_L2_norm_f32/VLIB_L2_norm_f32_d.se66 PAGE   35

    1634                            .dwattr $C$DW$155, DW_AT_TI_symbol_name("rem")
    1635                            .dwattr $C$DW$155, DW_AT_data_member_location[DW_OP_plus_uconst 0x4]
    1636                            .dwattr $C$DW$155, DW_AT_accessibility(DW_ACCESS_public)
    1637                            .dwattr $C$DW$155, DW_AT_decl_file("C:/VLIB_Tools/CCSV5_4_0/ccsv5/tools/compiler/C6000/include
    1638                            .dwattr $C$DW$155, DW_AT_decl_line(0x40)
    1639                            .dwattr $C$DW$155, DW_AT_decl_column(0x1d)
    1640                            .dwendtag $C$DW$T$28
    1641                    
    1642                            .dwattr $C$DW$T$28, DW_AT_decl_file("C:/VLIB_Tools/CCSV5_4_0/ccsv5/tools/compiler/C6000/includ
    1643                            .dwattr $C$DW$T$28, DW_AT_decl_line(0x40)
    1644                            .dwattr $C$DW$T$28, DW_AT_decl_column(0x10)
    1645                    $C$DW$T$48      .dwtag  DW_TAG_typedef, DW_AT_name("ldiv_t")
    1646                            .dwattr $C$DW$T$48, DW_AT_type(*$C$DW$T$28)
    1647                            .dwattr $C$DW$T$48, DW_AT_language(DW_LANG_C)
    1648                            .dwattr $C$DW$T$48, DW_AT_decl_file("C:/VLIB_Tools/CCSV5_4_0/ccsv5/tools/compiler/C6000/includ
    1649                            .dwattr $C$DW$T$48, DW_AT_decl_line(0x40)
    1650                            .dwattr $C$DW$T$48, DW_AT_decl_column(0x24)
    1651                    
    1652                    $C$DW$T$29      .dwtag  DW_TAG_structure_type
    1653                            .dwattr $C$DW$T$29, DW_AT_byte_size(0x10)
    1654                    $C$DW$156       .dwtag  DW_TAG_member
    1655                            .dwattr $C$DW$156, DW_AT_type(*$C$DW$T$14)
    1656                            .dwattr $C$DW$156, DW_AT_name("quot")
    1657                            .dwattr $C$DW$156, DW_AT_TI_symbol_name("quot")
    1658                            .dwattr $C$DW$156, DW_AT_data_member_location[DW_OP_plus_uconst 0x0]
    1659                            .dwattr $C$DW$156, DW_AT_accessibility(DW_ACCESS_public)
    1660                            .dwattr $C$DW$156, DW_AT_decl_file("C:/VLIB_Tools/CCSV5_4_0/ccsv5/tools/compiler/C6000/include
    1661                            .dwattr $C$DW$156, DW_AT_decl_line(0x43)
    1662                            .dwattr $C$DW$156, DW_AT_decl_column(0x1c)
    1663                    $C$DW$157       .dwtag  DW_TAG_member
    1664                            .dwattr $C$DW$157, DW_AT_type(*$C$DW$T$14)
    1665                            .dwattr $C$DW$157, DW_AT_name("rem")
    1666                            .dwattr $C$DW$157, DW_AT_TI_symbol_name("rem")
    1667                            .dwattr $C$DW$157, DW_AT_data_member_location[DW_OP_plus_uconst 0x8]
    1668                            .dwattr $C$DW$157, DW_AT_accessibility(DW_ACCESS_public)
    1669                            .dwattr $C$DW$157, DW_AT_decl_file("C:/VLIB_Tools/CCSV5_4_0/ccsv5/tools/compiler/C6000/include
    1670                            .dwattr $C$DW$157, DW_AT_decl_line(0x43)
    1671                            .dwattr $C$DW$157, DW_AT_decl_column(0x22)
    1672                            .dwendtag $C$DW$T$29
    1673                    
    1674                            .dwattr $C$DW$T$29, DW_AT_decl_file("C:/VLIB_Tools/CCSV5_4_0/ccsv5/tools/compiler/C6000/includ
    1675                            .dwattr $C$DW$T$29, DW_AT_decl_line(0x43)
    1676                            .dwattr $C$DW$T$29, DW_AT_decl_column(0x10)
    1677                    $C$DW$T$49      .dwtag  DW_TAG_typedef, DW_AT_name("lldiv_t")
    1678                            .dwattr $C$DW$T$49, DW_AT_type(*$C$DW$T$29)
    1679                            .dwattr $C$DW$T$49, DW_AT_language(DW_LANG_C)
    1680                            .dwattr $C$DW$T$49, DW_AT_decl_file("C:/VLIB_Tools/CCSV5_4_0/ccsv5/tools/compiler/C6000/includ
    1681                            .dwattr $C$DW$T$49, DW_AT_decl_line(0x43)
    1682                            .dwattr $C$DW$T$49, DW_AT_decl_column(0x29)
    1683                    
    1684                    $C$DW$T$30      .dwtag  DW_TAG_structure_type
    1685                            .dwattr $C$DW$T$30, DW_AT_byte_size(0x24)
    1686                    $C$DW$158       .dwtag  DW_TAG_member
    1687                            .dwattr $C$DW$158, DW_AT_type(*$C$DW$T$23)
    1688                            .dwattr $C$DW$158, DW_AT_name("area")
TMS320C6x Assembler PC v7.4.2 Thu Mar 19 12:43:10 2015

Tools Copyright (c) 1996-2012 Texas Instruments Incorporated
package/lib/Regression/regress_d_c/./../packages/ti/vlib/src/VLIB_L2_norm_f32/VLIB_L2_norm_f32_d.se66 PAGE   36

    1689                            .dwattr $C$DW$158, DW_AT_TI_symbol_name("area")
    1690                            .dwattr $C$DW$158, DW_AT_data_member_location[DW_OP_plus_uconst 0x0]
    1691                            .dwattr $C$DW$158, DW_AT_accessibility(DW_ACCESS_public)
    1692                            .dwattr $C$DW$158, DW_AT_decl_file(".\..\packages\ti\vlib\src\VLIB_L2_norm_f32\..\common\c66/V
    1693                            .dwattr $C$DW$158, DW_AT_decl_line(0x69)
    1694                            .dwattr $C$DW$158, DW_AT_decl_column(0x0d)
    1695                    $C$DW$159       .dwtag  DW_TAG_member
    1696                            .dwattr $C$DW$159, DW_AT_type(*$C$DW$T$23)
    1697                            .dwattr $C$DW$159, DW_AT_name("xsum")
    1698                            .dwattr $C$DW$159, DW_AT_TI_symbol_name("xsum")
    1699                            .dwattr $C$DW$159, DW_AT_data_member_location[DW_OP_plus_uconst 0x4]
    1700                            .dwattr $C$DW$159, DW_AT_accessibility(DW_ACCESS_public)
    1701                            .dwattr $C$DW$159, DW_AT_decl_file(".\..\packages\ti\vlib\src\VLIB_L2_norm_f32\..\common\c66/V
    1702                            .dwattr $C$DW$159, DW_AT_decl_line(0x6a)
    1703                            .dwattr $C$DW$159, DW_AT_decl_column(0x0d)
    1704                    $C$DW$160       .dwtag  DW_TAG_member
    1705                            .dwattr $C$DW$160, DW_AT_type(*$C$DW$T$23)
    1706                            .dwattr $C$DW$160, DW_AT_name("ysum")
    1707                            .dwattr $C$DW$160, DW_AT_TI_symbol_name("ysum")
    1708                            .dwattr $C$DW$160, DW_AT_data_member_location[DW_OP_plus_uconst 0x8]
    1709                            .dwattr $C$DW$160, DW_AT_accessibility(DW_ACCESS_public)
    1710                            .dwattr $C$DW$160, DW_AT_decl_file(".\..\packages\ti\vlib\src\VLIB_L2_norm_f32\..\common\c66/V
    1711                            .dwattr $C$DW$160, DW_AT_decl_line(0x6b)
    1712                            .dwattr $C$DW$160, DW_AT_decl_column(0x0d)
    1713                    $C$DW$161       .dwtag  DW_TAG_member
    1714                            .dwattr $C$DW$161, DW_AT_type(*$C$DW$T$23)
    1715                            .dwattr $C$DW$161, DW_AT_name("xmin")
    1716                            .dwattr $C$DW$161, DW_AT_TI_symbol_name("xmin")
    1717                            .dwattr $C$DW$161, DW_AT_data_member_location[DW_OP_plus_uconst 0xc]
    1718                            .dwattr $C$DW$161, DW_AT_accessibility(DW_ACCESS_public)
    1719                            .dwattr $C$DW$161, DW_AT_decl_file(".\..\packages\ti\vlib\src\VLIB_L2_norm_f32\..\common\c66/V
    1720                            .dwattr $C$DW$161, DW_AT_decl_line(0x6d)
    1721                            .dwattr $C$DW$161, DW_AT_decl_column(0x0d)
    1722                    $C$DW$162       .dwtag  DW_TAG_member
    1723                            .dwattr $C$DW$162, DW_AT_type(*$C$DW$T$23)
    1724                            .dwattr $C$DW$162, DW_AT_name("ymin")
    1725                            .dwattr $C$DW$162, DW_AT_TI_symbol_name("ymin")
    1726                            .dwattr $C$DW$162, DW_AT_data_member_location[DW_OP_plus_uconst 0x10]
    1727                            .dwattr $C$DW$162, DW_AT_accessibility(DW_ACCESS_public)
    1728                            .dwattr $C$DW$162, DW_AT_decl_file(".\..\packages\ti\vlib\src\VLIB_L2_norm_f32\..\common\c66/V
    1729                            .dwattr $C$DW$162, DW_AT_decl_line(0x6e)
    1730                            .dwattr $C$DW$162, DW_AT_decl_column(0x0d)
    1731                    $C$DW$163       .dwtag  DW_TAG_member
    1732                            .dwattr $C$DW$163, DW_AT_type(*$C$DW$T$23)
    1733                            .dwattr $C$DW$163, DW_AT_name("xmax")
    1734                            .dwattr $C$DW$163, DW_AT_TI_symbol_name("xmax")
    1735                            .dwattr $C$DW$163, DW_AT_data_member_location[DW_OP_plus_uconst 0x14]
    1736                            .dwattr $C$DW$163, DW_AT_accessibility(DW_ACCESS_public)
    1737                            .dwattr $C$DW$163, DW_AT_decl_file(".\..\packages\ti\vlib\src\VLIB_L2_norm_f32\..\common\c66/V
    1738                            .dwattr $C$DW$163, DW_AT_decl_line(0x6f)
    1739                            .dwattr $C$DW$163, DW_AT_decl_column(0x0d)
    1740                    $C$DW$164       .dwtag  DW_TAG_member
    1741                            .dwattr $C$DW$164, DW_AT_type(*$C$DW$T$23)
    1742                            .dwattr $C$DW$164, DW_AT_name("ymax")
    1743                            .dwattr $C$DW$164, DW_AT_TI_symbol_name("ymax")
TMS320C6x Assembler PC v7.4.2 Thu Mar 19 12:43:10 2015

Tools Copyright (c) 1996-2012 Texas Instruments Incorporated
package/lib/Regression/regress_d_c/./../packages/ti/vlib/src/VLIB_L2_norm_f32/VLIB_L2_norm_f32_d.se66 PAGE   37

    1744                            .dwattr $C$DW$164, DW_AT_data_member_location[DW_OP_plus_uconst 0x18]
    1745                            .dwattr $C$DW$164, DW_AT_accessibility(DW_ACCESS_public)
    1746                            .dwattr $C$DW$164, DW_AT_decl_file(".\..\packages\ti\vlib\src\VLIB_L2_norm_f32\..\common\c66/V
    1747                            .dwattr $C$DW$164, DW_AT_decl_line(0x70)
    1748                            .dwattr $C$DW$164, DW_AT_decl_column(0x0d)
    1749                    $C$DW$165       .dwtag  DW_TAG_member
    1750                            .dwattr $C$DW$165, DW_AT_type(*$C$DW$T$23)
    1751                            .dwattr $C$DW$165, DW_AT_name("seedx")
    1752                            .dwattr $C$DW$165, DW_AT_TI_symbol_name("seedx")
    1753                            .dwattr $C$DW$165, DW_AT_data_member_location[DW_OP_plus_uconst 0x1c]
    1754                            .dwattr $C$DW$165, DW_AT_accessibility(DW_ACCESS_public)
    1755                            .dwattr $C$DW$165, DW_AT_decl_file(".\..\packages\ti\vlib\src\VLIB_L2_norm_f32\..\common\c66/V
    1756                            .dwattr $C$DW$165, DW_AT_decl_line(0x72)
    1757                            .dwattr $C$DW$165, DW_AT_decl_column(0x0d)
    1758                    $C$DW$166       .dwtag  DW_TAG_member
    1759                            .dwattr $C$DW$166, DW_AT_type(*$C$DW$T$23)
    1760                            .dwattr $C$DW$166, DW_AT_name("seedy")
    1761                            .dwattr $C$DW$166, DW_AT_TI_symbol_name("seedy")
    1762                            .dwattr $C$DW$166, DW_AT_data_member_location[DW_OP_plus_uconst 0x20]
    1763                            .dwattr $C$DW$166, DW_AT_accessibility(DW_ACCESS_public)
    1764                            .dwattr $C$DW$166, DW_AT_decl_file(".\..\packages\ti\vlib\src\VLIB_L2_norm_f32\..\common\c66/V
    1765                            .dwattr $C$DW$166, DW_AT_decl_line(0x73)
    1766                            .dwattr $C$DW$166, DW_AT_decl_column(0x0d)
    1767                            .dwendtag $C$DW$T$30
    1768                    
    1769                            .dwattr $C$DW$T$30, DW_AT_decl_file(".\..\packages\ti\vlib\src\VLIB_L2_norm_f32\..\common\c66/
    1770                            .dwattr $C$DW$T$30, DW_AT_decl_line(0x68)
    1771                            .dwattr $C$DW$T$30, DW_AT_decl_column(0x10)
    1772                    $C$DW$T$50      .dwtag  DW_TAG_typedef, DW_AT_name("VLIB_CC")
    1773                            .dwattr $C$DW$T$50, DW_AT_type(*$C$DW$T$30)
    1774                            .dwattr $C$DW$T$50, DW_AT_language(DW_LANG_C)
    1775                            .dwattr $C$DW$T$50, DW_AT_decl_file(".\..\packages\ti\vlib\src\VLIB_L2_norm_f32\..\common\c66/
    1776                            .dwattr $C$DW$T$50, DW_AT_decl_line(0x75)
    1777                            .dwattr $C$DW$T$50, DW_AT_decl_column(0x03)
    1778                    
    1779                    $C$DW$T$33      .dwtag  DW_TAG_structure_type
    1780                            .dwattr $C$DW$T$33, DW_AT_byte_size(0x10)
    1781                    $C$DW$167       .dwtag  DW_TAG_member
    1782                            .dwattr $C$DW$167, DW_AT_type(*$C$DW$T$8)
    1783                            .dwattr $C$DW$167, DW_AT_name("daylight")
    1784                            .dwattr $C$DW$167, DW_AT_TI_symbol_name("daylight")
    1785                            .dwattr $C$DW$167, DW_AT_data_member_location[DW_OP_plus_uconst 0x0]
    1786                            .dwattr $C$DW$167, DW_AT_accessibility(DW_ACCESS_public)
    1787                            .dwattr $C$DW$167, DW_AT_decl_file("C:/VLIB_Tools/CCSV5_4_0/ccsv5/tools/compiler/C6000/include
    1788                            .dwattr $C$DW$167, DW_AT_decl_line(0x52)
    1789                            .dwattr $C$DW$167, DW_AT_decl_column(0x0b)
    1790                    $C$DW$168       .dwtag  DW_TAG_member
    1791                            .dwattr $C$DW$168, DW_AT_type(*$C$DW$T$10)
    1792                            .dwattr $C$DW$168, DW_AT_name("timezone")
    1793                            .dwattr $C$DW$168, DW_AT_TI_symbol_name("timezone")
    1794                            .dwattr $C$DW$168, DW_AT_data_member_location[DW_OP_plus_uconst 0x4]
    1795                            .dwattr $C$DW$168, DW_AT_accessibility(DW_ACCESS_public)
    1796                            .dwattr $C$DW$168, DW_AT_decl_file("C:/VLIB_Tools/CCSV5_4_0/ccsv5/tools/compiler/C6000/include
    1797                            .dwattr $C$DW$168, DW_AT_decl_line(0x53)
    1798                            .dwattr $C$DW$168, DW_AT_decl_column(0x0b)
TMS320C6x Assembler PC v7.4.2 Thu Mar 19 12:43:10 2015

Tools Copyright (c) 1996-2012 Texas Instruments Incorporated
package/lib/Regression/regress_d_c/./../packages/ti/vlib/src/VLIB_L2_norm_f32/VLIB_L2_norm_f32_d.se66 PAGE   38

    1799                    $C$DW$169       .dwtag  DW_TAG_member
    1800                            .dwattr $C$DW$169, DW_AT_type(*$C$DW$T$32)
    1801                            .dwattr $C$DW$169, DW_AT_name("tzname")
    1802                            .dwattr $C$DW$169, DW_AT_TI_symbol_name("tzname")
    1803                            .dwattr $C$DW$169, DW_AT_data_member_location[DW_OP_plus_uconst 0x8]
    1804                            .dwattr $C$DW$169, DW_AT_accessibility(DW_ACCESS_public)
    1805                            .dwattr $C$DW$169, DW_AT_decl_file("C:/VLIB_Tools/CCSV5_4_0/ccsv5/tools/compiler/C6000/include
    1806                            .dwattr $C$DW$169, DW_AT_decl_line(0x54)
    1807                            .dwattr $C$DW$169, DW_AT_decl_column(0x0b)
    1808                    $C$DW$170       .dwtag  DW_TAG_member
    1809                            .dwattr $C$DW$170, DW_AT_type(*$C$DW$T$32)
    1810                            .dwattr $C$DW$170, DW_AT_name("dstname")
    1811                            .dwattr $C$DW$170, DW_AT_TI_symbol_name("dstname")
    1812                            .dwattr $C$DW$170, DW_AT_data_member_location[DW_OP_plus_uconst 0xc]
    1813                            .dwattr $C$DW$170, DW_AT_accessibility(DW_ACCESS_public)
    1814                            .dwattr $C$DW$170, DW_AT_decl_file("C:/VLIB_Tools/CCSV5_4_0/ccsv5/tools/compiler/C6000/include
    1815                            .dwattr $C$DW$170, DW_AT_decl_line(0x55)
    1816                            .dwattr $C$DW$170, DW_AT_decl_column(0x0b)
    1817                            .dwendtag $C$DW$T$33
    1818                    
    1819                            .dwattr $C$DW$T$33, DW_AT_decl_file("C:/VLIB_Tools/CCSV5_4_0/ccsv5/tools/compiler/C6000/includ
    1820                            .dwattr $C$DW$T$33, DW_AT_decl_line(0x51)
    1821                            .dwattr $C$DW$T$33, DW_AT_decl_column(0x01)
    1822                    $C$DW$T$51      .dwtag  DW_TAG_typedef, DW_AT_name("TZ")
    1823                            .dwattr $C$DW$T$51, DW_AT_type(*$C$DW$T$33)
    1824                            .dwattr $C$DW$T$51, DW_AT_language(DW_LANG_C)
    1825                            .dwattr $C$DW$T$51, DW_AT_decl_file("C:/VLIB_Tools/CCSV5_4_0/ccsv5/tools/compiler/C6000/includ
    1826                            .dwattr $C$DW$T$51, DW_AT_decl_line(0x56)
    1827                            .dwattr $C$DW$T$51, DW_AT_decl_column(0x03)
    1828                    $C$DW$T$2       .dwtag  DW_TAG_unspecified_type
    1829                            .dwattr $C$DW$T$2, DW_AT_name("void")
    1830                    $C$DW$T$3       .dwtag  DW_TAG_pointer_type
    1831                            .dwattr $C$DW$T$3, DW_AT_type(*$C$DW$T$2)
    1832                            .dwattr $C$DW$T$3, DW_AT_address_class(0x20)
    1833                    $C$DW$T$52      .dwtag  DW_TAG_typedef, DW_AT_name("VLIB_PTR")
    1834                            .dwattr $C$DW$T$52, DW_AT_type(*$C$DW$T$3)
    1835                            .dwattr $C$DW$T$52, DW_AT_language(DW_LANG_C)
    1836                            .dwattr $C$DW$T$52, DW_AT_decl_file(".\..\packages\ti\vlib\src\VLIB_L2_norm_f32\..\common\c66/
    1837                            .dwattr $C$DW$T$52, DW_AT_decl_line(0x5c)
    1838                            .dwattr $C$DW$T$52, DW_AT_decl_column(0x19)
    1839                    $C$DW$T$4       .dwtag  DW_TAG_base_type
    1840                            .dwattr $C$DW$T$4, DW_AT_encoding(DW_ATE_boolean)
    1841                            .dwattr $C$DW$T$4, DW_AT_name("bool")
    1842                            .dwattr $C$DW$T$4, DW_AT_byte_size(0x01)
    1843                    $C$DW$T$5       .dwtag  DW_TAG_base_type
    1844                            .dwattr $C$DW$T$5, DW_AT_encoding(DW_ATE_signed_char)
    1845                            .dwattr $C$DW$T$5, DW_AT_name("signed char")
    1846                            .dwattr $C$DW$T$5, DW_AT_byte_size(0x01)
    1847                    $C$DW$T$80      .dwtag  DW_TAG_pointer_type
    1848                            .dwattr $C$DW$T$80, DW_AT_type(*$C$DW$T$5)
    1849                            .dwattr $C$DW$T$80, DW_AT_address_class(0x20)
    1850                    $C$DW$T$90      .dwtag  DW_TAG_typedef, DW_AT_name("int8_t")
    1851                            .dwattr $C$DW$T$90, DW_AT_type(*$C$DW$T$5)
    1852                            .dwattr $C$DW$T$90, DW_AT_language(DW_LANG_C)
    1853                            .dwattr $C$DW$T$90, DW_AT_decl_file("C:/VLIB_Tools/CCSV5_4_0/ccsv5/tools/compiler/C6000/includ
TMS320C6x Assembler PC v7.4.2 Thu Mar 19 12:43:10 2015

Tools Copyright (c) 1996-2012 Texas Instruments Incorporated
package/lib/Regression/regress_d_c/./../packages/ti/vlib/src/VLIB_L2_norm_f32/VLIB_L2_norm_f32_d.se66 PAGE   39

    1854                            .dwattr $C$DW$T$90, DW_AT_decl_line(0x2a)
    1855                            .dwattr $C$DW$T$90, DW_AT_decl_column(0x1d)
    1856                    $C$DW$T$91      .dwtag  DW_TAG_typedef, DW_AT_name("int_least8_t")
    1857                            .dwattr $C$DW$T$91, DW_AT_type(*$C$DW$T$90)
    1858                            .dwattr $C$DW$T$91, DW_AT_language(DW_LANG_C)
    1859                            .dwattr $C$DW$T$91, DW_AT_decl_file("C:/VLIB_Tools/CCSV5_4_0/ccsv5/tools/compiler/C6000/includ
    1860                            .dwattr $C$DW$T$91, DW_AT_decl_line(0x39)
    1861                            .dwattr $C$DW$T$91, DW_AT_decl_column(0x17)
    1862                    $C$DW$T$6       .dwtag  DW_TAG_base_type
    1863                            .dwattr $C$DW$T$6, DW_AT_encoding(DW_ATE_unsigned_char)
    1864                            .dwattr $C$DW$T$6, DW_AT_name("unsigned char")
    1865                            .dwattr $C$DW$T$6, DW_AT_byte_size(0x01)
    1866                    $C$DW$T$25      .dwtag  DW_TAG_pointer_type
    1867                            .dwattr $C$DW$T$25, DW_AT_type(*$C$DW$T$6)
    1868                            .dwattr $C$DW$T$25, DW_AT_address_class(0x20)
    1869                    $C$DW$T$19      .dwtag  DW_TAG_typedef, DW_AT_name("uint8_t")
    1870                            .dwattr $C$DW$T$19, DW_AT_type(*$C$DW$T$6)
    1871                            .dwattr $C$DW$T$19, DW_AT_language(DW_LANG_C)
    1872                            .dwattr $C$DW$T$19, DW_AT_decl_file("C:/VLIB_Tools/CCSV5_4_0/ccsv5/tools/compiler/C6000/includ
    1873                            .dwattr $C$DW$T$19, DW_AT_decl_line(0x2b)
    1874                            .dwattr $C$DW$T$19, DW_AT_decl_column(0x1c)
    1875                    $C$DW$T$92      .dwtag  DW_TAG_typedef, DW_AT_name("uint_least8_t")
    1876                            .dwattr $C$DW$T$92, DW_AT_type(*$C$DW$T$19)
    1877                            .dwattr $C$DW$T$92, DW_AT_language(DW_LANG_C)
    1878                            .dwattr $C$DW$T$92, DW_AT_decl_file("C:/VLIB_Tools/CCSV5_4_0/ccsv5/tools/compiler/C6000/includ
    1879                            .dwattr $C$DW$T$92, DW_AT_decl_line(0x3a)
    1880                            .dwattr $C$DW$T$92, DW_AT_decl_column(0x16)
    1881                    $C$DW$T$7       .dwtag  DW_TAG_base_type
    1882                            .dwattr $C$DW$T$7, DW_AT_encoding(DW_ATE_signed_char)
    1883                            .dwattr $C$DW$T$7, DW_AT_name("wchar_t")
    1884                            .dwattr $C$DW$T$7, DW_AT_byte_size(0x02)
    1885                    $C$DW$T$8       .dwtag  DW_TAG_base_type
    1886                            .dwattr $C$DW$T$8, DW_AT_encoding(DW_ATE_signed)
    1887                            .dwattr $C$DW$T$8, DW_AT_name("short")
    1888                            .dwattr $C$DW$T$8, DW_AT_byte_size(0x02)
    1889                    $C$DW$T$93      .dwtag  DW_TAG_typedef, DW_AT_name("int16_t")
    1890                            .dwattr $C$DW$T$93, DW_AT_type(*$C$DW$T$8)
    1891                            .dwattr $C$DW$T$93, DW_AT_language(DW_LANG_C)
    1892                            .dwattr $C$DW$T$93, DW_AT_decl_file("C:/VLIB_Tools/CCSV5_4_0/ccsv5/tools/compiler/C6000/includ
    1893                            .dwattr $C$DW$T$93, DW_AT_decl_line(0x2c)
    1894                            .dwattr $C$DW$T$93, DW_AT_decl_column(0x1d)
    1895                    $C$DW$T$94      .dwtag  DW_TAG_typedef, DW_AT_name("int_least16_t")
    1896                            .dwattr $C$DW$T$94, DW_AT_type(*$C$DW$T$93)
    1897                            .dwattr $C$DW$T$94, DW_AT_language(DW_LANG_C)
    1898                            .dwattr $C$DW$T$94, DW_AT_decl_file("C:/VLIB_Tools/CCSV5_4_0/ccsv5/tools/compiler/C6000/includ
    1899                            .dwattr $C$DW$T$94, DW_AT_decl_line(0x3c)
    1900                            .dwattr $C$DW$T$94, DW_AT_decl_column(0x17)
    1901                    $C$DW$T$9       .dwtag  DW_TAG_base_type
    1902                            .dwattr $C$DW$T$9, DW_AT_encoding(DW_ATE_unsigned)
    1903                            .dwattr $C$DW$T$9, DW_AT_name("unsigned short")
    1904                            .dwattr $C$DW$T$9, DW_AT_byte_size(0x02)
    1905                    $C$DW$T$71      .dwtag  DW_TAG_typedef, DW_AT_name("uint16_t")
    1906                            .dwattr $C$DW$T$71, DW_AT_type(*$C$DW$T$9)
    1907                            .dwattr $C$DW$T$71, DW_AT_language(DW_LANG_C)
    1908                            .dwattr $C$DW$T$71, DW_AT_decl_file("C:/VLIB_Tools/CCSV5_4_0/ccsv5/tools/compiler/C6000/includ
TMS320C6x Assembler PC v7.4.2 Thu Mar 19 12:43:10 2015

Tools Copyright (c) 1996-2012 Texas Instruments Incorporated
package/lib/Regression/regress_d_c/./../packages/ti/vlib/src/VLIB_L2_norm_f32/VLIB_L2_norm_f32_d.se66 PAGE   40

    1909                            .dwattr $C$DW$T$71, DW_AT_decl_line(0x2d)
    1910                            .dwattr $C$DW$T$71, DW_AT_decl_column(0x1c)
    1911                    $C$DW$T$96      .dwtag  DW_TAG_typedef, DW_AT_name("uint_least16_t")
    1912                            .dwattr $C$DW$T$96, DW_AT_type(*$C$DW$T$71)
    1913                            .dwattr $C$DW$T$96, DW_AT_language(DW_LANG_C)
    1914                            .dwattr $C$DW$T$96, DW_AT_decl_file("C:/VLIB_Tools/CCSV5_4_0/ccsv5/tools/compiler/C6000/includ
    1915                            .dwattr $C$DW$T$96, DW_AT_decl_line(0x3d)
    1916                            .dwattr $C$DW$T$96, DW_AT_decl_column(0x16)
    1917                    $C$DW$T$95      .dwtag  DW_TAG_typedef, DW_AT_name("wchar_t")
    1918                            .dwattr $C$DW$T$95, DW_AT_type(*$C$DW$T$9)
    1919                            .dwattr $C$DW$T$95, DW_AT_language(DW_LANG_C)
    1920                            .dwattr $C$DW$T$95, DW_AT_decl_file("C:/VLIB_Tools/CCSV5_4_0/ccsv5/tools/compiler/C6000/includ
    1921                            .dwattr $C$DW$T$95, DW_AT_decl_line(0x53)
    1922                            .dwattr $C$DW$T$95, DW_AT_decl_column(0x1a)
    1923                    $C$DW$T$10      .dwtag  DW_TAG_base_type
    1924                            .dwattr $C$DW$T$10, DW_AT_encoding(DW_ATE_signed)
    1925                            .dwattr $C$DW$T$10, DW_AT_name("int")
    1926                            .dwattr $C$DW$T$10, DW_AT_byte_size(0x04)
    1927                    $C$DW$T$113     .dwtag  DW_TAG_typedef, DW_AT_name("fpos_t")
    1928                            .dwattr $C$DW$T$113, DW_AT_type(*$C$DW$T$10)
    1929                            .dwattr $C$DW$T$113, DW_AT_language(DW_LANG_C)
    1930                            .dwattr $C$DW$T$113, DW_AT_decl_file("C:/VLIB_Tools/CCSV5_4_0/ccsv5/tools/compiler/C6000/inclu
    1931                            .dwattr $C$DW$T$113, DW_AT_decl_line(0x53)
    1932                            .dwattr $C$DW$T$113, DW_AT_decl_column(0x0d)
    1933                    $C$DW$T$23      .dwtag  DW_TAG_typedef, DW_AT_name("int32_t")
    1934                            .dwattr $C$DW$T$23, DW_AT_type(*$C$DW$T$10)
    1935                            .dwattr $C$DW$T$23, DW_AT_language(DW_LANG_C)
    1936                            .dwattr $C$DW$T$23, DW_AT_decl_file("C:/VLIB_Tools/CCSV5_4_0/ccsv5/tools/compiler/C6000/includ
    1937                            .dwattr $C$DW$T$23, DW_AT_decl_line(0x2e)
    1938                            .dwattr $C$DW$T$23, DW_AT_decl_column(0x1d)
    1939                    $C$DW$T$107     .dwtag  DW_TAG_typedef, DW_AT_name("VLIB_CCHandle")
    1940                            .dwattr $C$DW$T$107, DW_AT_type(*$C$DW$T$23)
    1941                            .dwattr $C$DW$T$107, DW_AT_language(DW_LANG_C)
    1942                            .dwattr $C$DW$T$107, DW_AT_decl_file(".\..\packages\ti\vlib\src\VLIB_L2_norm_f32\..\common\c66
    1943                            .dwattr $C$DW$T$107, DW_AT_decl_line(0x77)
    1944                            .dwattr $C$DW$T$107, DW_AT_decl_column(0x11)
    1945                    
    1946                    $C$DW$T$34      .dwtag  DW_TAG_array_type
    1947                            .dwattr $C$DW$T$34, DW_AT_type(*$C$DW$T$23)
    1948                            .dwattr $C$DW$T$34, DW_AT_language(DW_LANG_C)
    1949                            .dwattr $C$DW$T$34, DW_AT_byte_size(0x10)
    1950                    $C$DW$171       .dwtag  DW_TAG_subrange_type
    1951                            .dwattr $C$DW$171, DW_AT_upper_bound(0x03)
    1952                            .dwendtag $C$DW$T$34
    1953                    
    1954                    $C$DW$T$76      .dwtag  DW_TAG_pointer_type
    1955                            .dwattr $C$DW$T$76, DW_AT_type(*$C$DW$T$23)
    1956                            .dwattr $C$DW$T$76, DW_AT_address_class(0x20)
    1957                    $C$DW$T$108     .dwtag  DW_TAG_typedef, DW_AT_name("int_fast16_t")
    1958                            .dwattr $C$DW$T$108, DW_AT_type(*$C$DW$T$23)
    1959                            .dwattr $C$DW$T$108, DW_AT_language(DW_LANG_C)
    1960                            .dwattr $C$DW$T$108, DW_AT_decl_file("C:/VLIB_Tools/CCSV5_4_0/ccsv5/tools/compiler/C6000/inclu
    1961                            .dwattr $C$DW$T$108, DW_AT_decl_line(0x4b)
    1962                            .dwattr $C$DW$T$108, DW_AT_decl_column(0x17)
    1963                    $C$DW$T$109     .dwtag  DW_TAG_typedef, DW_AT_name("int_fast32_t")
TMS320C6x Assembler PC v7.4.2 Thu Mar 19 12:43:10 2015

Tools Copyright (c) 1996-2012 Texas Instruments Incorporated
package/lib/Regression/regress_d_c/./../packages/ti/vlib/src/VLIB_L2_norm_f32/VLIB_L2_norm_f32_d.se66 PAGE   41

    1964                            .dwattr $C$DW$T$109, DW_AT_type(*$C$DW$T$23)
    1965                            .dwattr $C$DW$T$109, DW_AT_language(DW_LANG_C)
    1966                            .dwattr $C$DW$T$109, DW_AT_decl_file("C:/VLIB_Tools/CCSV5_4_0/ccsv5/tools/compiler/C6000/inclu
    1967                            .dwattr $C$DW$T$109, DW_AT_decl_line(0x4e)
    1968                            .dwattr $C$DW$T$109, DW_AT_decl_column(0x17)
    1969                    $C$DW$T$110     .dwtag  DW_TAG_typedef, DW_AT_name("int_fast8_t")
    1970                            .dwattr $C$DW$T$110, DW_AT_type(*$C$DW$T$23)
    1971                            .dwattr $C$DW$T$110, DW_AT_language(DW_LANG_C)
    1972                            .dwattr $C$DW$T$110, DW_AT_decl_file("C:/VLIB_Tools/CCSV5_4_0/ccsv5/tools/compiler/C6000/inclu
    1973                            .dwattr $C$DW$T$110, DW_AT_decl_line(0x49)
    1974                            .dwattr $C$DW$T$110, DW_AT_decl_column(0x17)
    1975                    $C$DW$T$111     .dwtag  DW_TAG_typedef, DW_AT_name("int_least32_t")
    1976                            .dwattr $C$DW$T$111, DW_AT_type(*$C$DW$T$23)
    1977                            .dwattr $C$DW$T$111, DW_AT_language(DW_LANG_C)
    1978                            .dwattr $C$DW$T$111, DW_AT_decl_file("C:/VLIB_Tools/CCSV5_4_0/ccsv5/tools/compiler/C6000/inclu
    1979                            .dwattr $C$DW$T$111, DW_AT_decl_line(0x3e)
    1980                            .dwattr $C$DW$T$111, DW_AT_decl_column(0x17)
    1981                    $C$DW$T$112     .dwtag  DW_TAG_typedef, DW_AT_name("intptr_t")
    1982                            .dwattr $C$DW$T$112, DW_AT_type(*$C$DW$T$10)
    1983                            .dwattr $C$DW$T$112, DW_AT_language(DW_LANG_C)
    1984                            .dwattr $C$DW$T$112, DW_AT_decl_file("C:/VLIB_Tools/CCSV5_4_0/ccsv5/tools/compiler/C6000/inclu
    1985                            .dwattr $C$DW$T$112, DW_AT_decl_line(0x58)
    1986                            .dwattr $C$DW$T$112, DW_AT_decl_column(0x1a)
    1987                    $C$DW$T$11      .dwtag  DW_TAG_base_type
    1988                            .dwattr $C$DW$T$11, DW_AT_encoding(DW_ATE_unsigned)
    1989                            .dwattr $C$DW$T$11, DW_AT_name("unsigned int")
    1990                            .dwattr $C$DW$T$11, DW_AT_byte_size(0x04)
    1991                    $C$DW$T$114     .dwtag  DW_TAG_typedef, DW_AT_name("VLIB_VAL")
    1992                            .dwattr $C$DW$T$114, DW_AT_type(*$C$DW$T$11)
    1993                            .dwattr $C$DW$T$114, DW_AT_language(DW_LANG_C)
    1994                            .dwattr $C$DW$T$114, DW_AT_decl_file(".\..\packages\ti\vlib\src\VLIB_L2_norm_f32\..\common\c66
    1995                            .dwattr $C$DW$T$114, DW_AT_decl_line(0x5d)
    1996                            .dwattr $C$DW$T$114, DW_AT_decl_column(0x17)
    1997                    $C$DW$T$125     .dwtag  DW_TAG_typedef, DW_AT_name("clock_t")
    1998                            .dwattr $C$DW$T$125, DW_AT_type(*$C$DW$T$11)
    1999                            .dwattr $C$DW$T$125, DW_AT_language(DW_LANG_C)
    2000                            .dwattr $C$DW$T$125, DW_AT_decl_file("C:/VLIB_Tools/CCSV5_4_0/ccsv5/tools/compiler/C6000/inclu
    2001                            .dwattr $C$DW$T$125, DW_AT_decl_line(0x37)
    2002                            .dwattr $C$DW$T$125, DW_AT_decl_column(0x16)
    2003                    $C$DW$T$53      .dwtag  DW_TAG_typedef, DW_AT_name("size_t")
    2004                            .dwattr $C$DW$T$53, DW_AT_type(*$C$DW$T$11)
    2005                            .dwattr $C$DW$T$53, DW_AT_language(DW_LANG_C)
    2006                            .dwattr $C$DW$T$53, DW_AT_decl_file("C:/VLIB_Tools/CCSV5_4_0/ccsv5/tools/compiler/C6000/includ
    2007                            .dwattr $C$DW$T$53, DW_AT_decl_line(0x45)
    2008                            .dwattr $C$DW$T$53, DW_AT_decl_column(0x19)
    2009                    $C$DW$T$118     .dwtag  DW_TAG_typedef, DW_AT_name("time_t")
    2010                            .dwattr $C$DW$T$118, DW_AT_type(*$C$DW$T$11)
    2011                            .dwattr $C$DW$T$118, DW_AT_language(DW_LANG_C)
    2012                            .dwattr $C$DW$T$118, DW_AT_decl_file("C:/VLIB_Tools/CCSV5_4_0/ccsv5/tools/compiler/C6000/inclu
    2013                            .dwattr $C$DW$T$118, DW_AT_decl_line(0x38)
    2014                            .dwattr $C$DW$T$118, DW_AT_decl_column(0x16)
    2015                    $C$DW$T$65      .dwtag  DW_TAG_typedef, DW_AT_name("uint32_t")
    2016                            .dwattr $C$DW$T$65, DW_AT_type(*$C$DW$T$11)
    2017                            .dwattr $C$DW$T$65, DW_AT_language(DW_LANG_C)
    2018                            .dwattr $C$DW$T$65, DW_AT_decl_file("C:/VLIB_Tools/CCSV5_4_0/ccsv5/tools/compiler/C6000/includ
TMS320C6x Assembler PC v7.4.2 Thu Mar 19 12:43:10 2015

Tools Copyright (c) 1996-2012 Texas Instruments Incorporated
package/lib/Regression/regress_d_c/./../packages/ti/vlib/src/VLIB_L2_norm_f32/VLIB_L2_norm_f32_d.se66 PAGE   42

    2019                            .dwattr $C$DW$T$65, DW_AT_decl_line(0x2f)
    2020                            .dwattr $C$DW$T$65, DW_AT_decl_column(0x1c)
    2021                    $C$DW$T$120     .dwtag  DW_TAG_typedef, DW_AT_name("uint_fast16_t")
    2022                            .dwattr $C$DW$T$120, DW_AT_type(*$C$DW$T$65)
    2023                            .dwattr $C$DW$T$120, DW_AT_language(DW_LANG_C)
    2024                            .dwattr $C$DW$T$120, DW_AT_decl_file("C:/VLIB_Tools/CCSV5_4_0/ccsv5/tools/compiler/C6000/inclu
    2025                            .dwattr $C$DW$T$120, DW_AT_decl_line(0x4c)
    2026                            .dwattr $C$DW$T$120, DW_AT_decl_column(0x16)
    2027                    $C$DW$T$121     .dwtag  DW_TAG_typedef, DW_AT_name("uint_fast32_t")
    2028                            .dwattr $C$DW$T$121, DW_AT_type(*$C$DW$T$65)
    2029                            .dwattr $C$DW$T$121, DW_AT_language(DW_LANG_C)
    2030                            .dwattr $C$DW$T$121, DW_AT_decl_file("C:/VLIB_Tools/CCSV5_4_0/ccsv5/tools/compiler/C6000/inclu
    2031                            .dwattr $C$DW$T$121, DW_AT_decl_line(0x4f)
    2032                            .dwattr $C$DW$T$121, DW_AT_decl_column(0x16)
    2033                    $C$DW$T$122     .dwtag  DW_TAG_typedef, DW_AT_name("uint_fast8_t")
    2034                            .dwattr $C$DW$T$122, DW_AT_type(*$C$DW$T$65)
    2035                            .dwattr $C$DW$T$122, DW_AT_language(DW_LANG_C)
    2036                            .dwattr $C$DW$T$122, DW_AT_decl_file("C:/VLIB_Tools/CCSV5_4_0/ccsv5/tools/compiler/C6000/inclu
    2037                            .dwattr $C$DW$T$122, DW_AT_decl_line(0x4a)
    2038                            .dwattr $C$DW$T$122, DW_AT_decl_column(0x16)
    2039                    $C$DW$T$123     .dwtag  DW_TAG_typedef, DW_AT_name("uint_least32_t")
    2040                            .dwattr $C$DW$T$123, DW_AT_type(*$C$DW$T$65)
    2041                            .dwattr $C$DW$T$123, DW_AT_language(DW_LANG_C)
    2042                            .dwattr $C$DW$T$123, DW_AT_decl_file("C:/VLIB_Tools/CCSV5_4_0/ccsv5/tools/compiler/C6000/inclu
    2043                            .dwattr $C$DW$T$123, DW_AT_decl_line(0x3f)
    2044                            .dwattr $C$DW$T$123, DW_AT_decl_column(0x16)
    2045                    $C$DW$T$124     .dwtag  DW_TAG_typedef, DW_AT_name("uintptr_t")
    2046                            .dwattr $C$DW$T$124, DW_AT_type(*$C$DW$T$11)
    2047                            .dwattr $C$DW$T$124, DW_AT_language(DW_LANG_C)
    2048                            .dwattr $C$DW$T$124, DW_AT_decl_file("C:/VLIB_Tools/CCSV5_4_0/ccsv5/tools/compiler/C6000/inclu
    2049                            .dwattr $C$DW$T$124, DW_AT_decl_line(0x59)
    2050                            .dwattr $C$DW$T$124, DW_AT_decl_column(0x1a)
    2051                    $C$DW$T$12      .dwtag  DW_TAG_base_type
    2052                            .dwattr $C$DW$T$12, DW_AT_encoding(DW_ATE_signed)
    2053                            .dwattr $C$DW$T$12, DW_AT_name("__int40_t")
    2054                            .dwattr $C$DW$T$12, DW_AT_byte_size(0x08)
    2055                            .dwattr $C$DW$T$12, DW_AT_bit_size(0x28)
    2056                            .dwattr $C$DW$T$12, DW_AT_bit_offset(0x18)
    2057                    $C$DW$T$126     .dwtag  DW_TAG_typedef, DW_AT_name("int40_t")
    2058                            .dwattr $C$DW$T$126, DW_AT_type(*$C$DW$T$12)
    2059                            .dwattr $C$DW$T$126, DW_AT_language(DW_LANG_C)
    2060                            .dwattr $C$DW$T$126, DW_AT_decl_file("C:/VLIB_Tools/CCSV5_4_0/ccsv5/tools/compiler/C6000/inclu
    2061                            .dwattr $C$DW$T$126, DW_AT_decl_line(0x31)
    2062                            .dwattr $C$DW$T$126, DW_AT_decl_column(0x21)
    2063                    $C$DW$T$127     .dwtag  DW_TAG_typedef, DW_AT_name("int_fast40_t")
    2064                            .dwattr $C$DW$T$127, DW_AT_type(*$C$DW$T$126)
    2065                            .dwattr $C$DW$T$127, DW_AT_language(DW_LANG_C)
    2066                            .dwattr $C$DW$T$127, DW_AT_decl_file("C:/VLIB_Tools/CCSV5_4_0/ccsv5/tools/compiler/C6000/inclu
    2067                            .dwattr $C$DW$T$127, DW_AT_decl_line(0x51)
    2068                            .dwattr $C$DW$T$127, DW_AT_decl_column(0x17)
    2069                    $C$DW$T$128     .dwtag  DW_TAG_typedef, DW_AT_name("int_least40_t")
    2070                            .dwattr $C$DW$T$128, DW_AT_type(*$C$DW$T$126)
    2071                            .dwattr $C$DW$T$128, DW_AT_language(DW_LANG_C)
    2072                            .dwattr $C$DW$T$128, DW_AT_decl_file("C:/VLIB_Tools/CCSV5_4_0/ccsv5/tools/compiler/C6000/inclu
    2073                            .dwattr $C$DW$T$128, DW_AT_decl_line(0x41)
TMS320C6x Assembler PC v7.4.2 Thu Mar 19 12:43:10 2015

Tools Copyright (c) 1996-2012 Texas Instruments Incorporated
package/lib/Regression/regress_d_c/./../packages/ti/vlib/src/VLIB_L2_norm_f32/VLIB_L2_norm_f32_d.se66 PAGE   43

    2074                            .dwattr $C$DW$T$128, DW_AT_decl_column(0x17)
    2075                    $C$DW$T$13      .dwtag  DW_TAG_base_type
    2076                            .dwattr $C$DW$T$13, DW_AT_encoding(DW_ATE_unsigned)
    2077                            .dwattr $C$DW$T$13, DW_AT_name("unsigned __int40_t")
    2078                            .dwattr $C$DW$T$13, DW_AT_byte_size(0x08)
    2079                            .dwattr $C$DW$T$13, DW_AT_bit_size(0x28)
    2080                            .dwattr $C$DW$T$13, DW_AT_bit_offset(0x18)
    2081                    $C$DW$T$129     .dwtag  DW_TAG_typedef, DW_AT_name("uint40_t")
    2082                            .dwattr $C$DW$T$129, DW_AT_type(*$C$DW$T$13)
    2083                            .dwattr $C$DW$T$129, DW_AT_language(DW_LANG_C)
    2084                            .dwattr $C$DW$T$129, DW_AT_decl_file("C:/VLIB_Tools/CCSV5_4_0/ccsv5/tools/compiler/C6000/inclu
    2085                            .dwattr $C$DW$T$129, DW_AT_decl_line(0x32)
    2086                            .dwattr $C$DW$T$129, DW_AT_decl_column(0x20)
    2087                    $C$DW$T$130     .dwtag  DW_TAG_typedef, DW_AT_name("uint_fast40_t")
    2088                            .dwattr $C$DW$T$130, DW_AT_type(*$C$DW$T$129)
    2089                            .dwattr $C$DW$T$130, DW_AT_language(DW_LANG_C)
    2090                            .dwattr $C$DW$T$130, DW_AT_decl_file("C:/VLIB_Tools/CCSV5_4_0/ccsv5/tools/compiler/C6000/inclu
    2091                            .dwattr $C$DW$T$130, DW_AT_decl_line(0x52)
    2092                            .dwattr $C$DW$T$130, DW_AT_decl_column(0x16)
    2093                    $C$DW$T$131     .dwtag  DW_TAG_typedef, DW_AT_name("uint_least40_t")
    2094                            .dwattr $C$DW$T$131, DW_AT_type(*$C$DW$T$129)
    2095                            .dwattr $C$DW$T$131, DW_AT_language(DW_LANG_C)
    2096                            .dwattr $C$DW$T$131, DW_AT_decl_file("C:/VLIB_Tools/CCSV5_4_0/ccsv5/tools/compiler/C6000/inclu
    2097                            .dwattr $C$DW$T$131, DW_AT_decl_line(0x42)
    2098                            .dwattr $C$DW$T$131, DW_AT_decl_column(0x16)
    2099                    $C$DW$T$14      .dwtag  DW_TAG_base_type
    2100                            .dwattr $C$DW$T$14, DW_AT_encoding(DW_ATE_signed)
    2101                            .dwattr $C$DW$T$14, DW_AT_name("long long")
    2102                            .dwattr $C$DW$T$14, DW_AT_byte_size(0x08)
    2103                    $C$DW$T$133     .dwtag  DW_TAG_typedef, DW_AT_name("int64_t")
    2104                            .dwattr $C$DW$T$133, DW_AT_type(*$C$DW$T$14)
    2105                            .dwattr $C$DW$T$133, DW_AT_language(DW_LANG_C)
    2106                            .dwattr $C$DW$T$133, DW_AT_decl_file("C:/VLIB_Tools/CCSV5_4_0/ccsv5/tools/compiler/C6000/inclu
    2107                            .dwattr $C$DW$T$133, DW_AT_decl_line(0x34)
    2108                            .dwattr $C$DW$T$133, DW_AT_decl_column(0x21)
    2109                    $C$DW$T$134     .dwtag  DW_TAG_typedef, DW_AT_name("int_fast64_t")
    2110                            .dwattr $C$DW$T$134, DW_AT_type(*$C$DW$T$133)
    2111                            .dwattr $C$DW$T$134, DW_AT_language(DW_LANG_C)
    2112                            .dwattr $C$DW$T$134, DW_AT_decl_file("C:/VLIB_Tools/CCSV5_4_0/ccsv5/tools/compiler/C6000/inclu
    2113                            .dwattr $C$DW$T$134, DW_AT_decl_line(0x54)
    2114                            .dwattr $C$DW$T$134, DW_AT_decl_column(0x17)
    2115                    $C$DW$T$135     .dwtag  DW_TAG_typedef, DW_AT_name("int_least64_t")
    2116                            .dwattr $C$DW$T$135, DW_AT_type(*$C$DW$T$133)
    2117                            .dwattr $C$DW$T$135, DW_AT_language(DW_LANG_C)
    2118                            .dwattr $C$DW$T$135, DW_AT_decl_file("C:/VLIB_Tools/CCSV5_4_0/ccsv5/tools/compiler/C6000/inclu
    2119                            .dwattr $C$DW$T$135, DW_AT_decl_line(0x44)
    2120                            .dwattr $C$DW$T$135, DW_AT_decl_column(0x17)
    2121                    $C$DW$T$136     .dwtag  DW_TAG_typedef, DW_AT_name("intmax_t")
    2122                            .dwattr $C$DW$T$136, DW_AT_type(*$C$DW$T$14)
    2123                            .dwattr $C$DW$T$136, DW_AT_language(DW_LANG_C)
    2124                            .dwattr $C$DW$T$136, DW_AT_decl_file("C:/VLIB_Tools/CCSV5_4_0/ccsv5/tools/compiler/C6000/inclu
    2125                            .dwattr $C$DW$T$136, DW_AT_decl_line(0x5c)
    2126                            .dwattr $C$DW$T$136, DW_AT_decl_column(0x20)
    2127                    $C$DW$T$15      .dwtag  DW_TAG_base_type
    2128                            .dwattr $C$DW$T$15, DW_AT_encoding(DW_ATE_unsigned)
TMS320C6x Assembler PC v7.4.2 Thu Mar 19 12:43:10 2015

Tools Copyright (c) 1996-2012 Texas Instruments Incorporated
package/lib/Regression/regress_d_c/./../packages/ti/vlib/src/VLIB_L2_norm_f32/VLIB_L2_norm_f32_d.se66 PAGE   44

    2129                            .dwattr $C$DW$T$15, DW_AT_name("unsigned long long")
    2130                            .dwattr $C$DW$T$15, DW_AT_byte_size(0x08)
    2131                    $C$DW$T$138     .dwtag  DW_TAG_pointer_type
    2132                            .dwattr $C$DW$T$138, DW_AT_type(*$C$DW$T$15)
    2133                            .dwattr $C$DW$T$138, DW_AT_address_class(0x20)
    2134                    $C$DW$T$139     .dwtag  DW_TAG_typedef, DW_AT_name("uint64_t")
    2135                            .dwattr $C$DW$T$139, DW_AT_type(*$C$DW$T$15)
    2136                            .dwattr $C$DW$T$139, DW_AT_language(DW_LANG_C)
    2137                            .dwattr $C$DW$T$139, DW_AT_decl_file("C:/VLIB_Tools/CCSV5_4_0/ccsv5/tools/compiler/C6000/inclu
    2138                            .dwattr $C$DW$T$139, DW_AT_decl_line(0x35)
    2139                            .dwattr $C$DW$T$139, DW_AT_decl_column(0x20)
    2140                    
    2141                    $C$DW$T$140     .dwtag  DW_TAG_array_type
    2142                            .dwattr $C$DW$T$140, DW_AT_type(*$C$DW$T$139)
    2143                            .dwattr $C$DW$T$140, DW_AT_language(DW_LANG_C)
    2144                            .dwattr $C$DW$T$140, DW_AT_byte_size(0x10)
    2145                    $C$DW$172       .dwtag  DW_TAG_subrange_type
    2146                            .dwattr $C$DW$172, DW_AT_upper_bound(0x01)
    2147                            .dwendtag $C$DW$T$140
    2148                    
    2149                    $C$DW$T$141     .dwtag  DW_TAG_typedef, DW_AT_name("uint_fast64_t")
    2150                            .dwattr $C$DW$T$141, DW_AT_type(*$C$DW$T$139)
    2151                            .dwattr $C$DW$T$141, DW_AT_language(DW_LANG_C)
    2152                            .dwattr $C$DW$T$141, DW_AT_decl_file("C:/VLIB_Tools/CCSV5_4_0/ccsv5/tools/compiler/C6000/inclu
    2153                            .dwattr $C$DW$T$141, DW_AT_decl_line(0x55)
    2154                            .dwattr $C$DW$T$141, DW_AT_decl_column(0x16)
    2155                    $C$DW$T$142     .dwtag  DW_TAG_typedef, DW_AT_name("uint_least64_t")
    2156                            .dwattr $C$DW$T$142, DW_AT_type(*$C$DW$T$139)
    2157                            .dwattr $C$DW$T$142, DW_AT_language(DW_LANG_C)
    2158                            .dwattr $C$DW$T$142, DW_AT_decl_file("C:/VLIB_Tools/CCSV5_4_0/ccsv5/tools/compiler/C6000/inclu
    2159                            .dwattr $C$DW$T$142, DW_AT_decl_line(0x45)
    2160                            .dwattr $C$DW$T$142, DW_AT_decl_column(0x16)
    2161                    $C$DW$T$143     .dwtag  DW_TAG_typedef, DW_AT_name("uintmax_t")
    2162                            .dwattr $C$DW$T$143, DW_AT_type(*$C$DW$T$15)
    2163                            .dwattr $C$DW$T$143, DW_AT_language(DW_LANG_C)
    2164                            .dwattr $C$DW$T$143, DW_AT_decl_file("C:/VLIB_Tools/CCSV5_4_0/ccsv5/tools/compiler/C6000/inclu
    2165                            .dwattr $C$DW$T$143, DW_AT_decl_line(0x5d)
    2166                            .dwattr $C$DW$T$143, DW_AT_decl_column(0x20)
    2167                    $C$DW$T$16      .dwtag  DW_TAG_base_type
    2168                            .dwattr $C$DW$T$16, DW_AT_encoding(DW_ATE_float)
    2169                            .dwattr $C$DW$T$16, DW_AT_name("float")
    2170                            .dwattr $C$DW$T$16, DW_AT_byte_size(0x04)
    2171                    $C$DW$T$20      .dwtag  DW_TAG_typedef, DW_AT_name("VLIB_F32")
    2172                            .dwattr $C$DW$T$20, DW_AT_type(*$C$DW$T$16)
    2173                            .dwattr $C$DW$T$20, DW_AT_language(DW_LANG_C)
    2174                            .dwattr $C$DW$T$20, DW_AT_decl_file(".\..\packages\ti\vlib\src\VLIB_L2_norm_f32\..\common\c66/
    2175                            .dwattr $C$DW$T$20, DW_AT_decl_line(0x5b)
    2176                            .dwattr $C$DW$T$20, DW_AT_decl_column(0x0f)
    2177                    $C$DW$T$144     .dwtag  DW_TAG_const_type
    2178                            .dwattr $C$DW$T$144, DW_AT_type(*$C$DW$T$20)
    2179                    $C$DW$T$145     .dwtag  DW_TAG_pointer_type
    2180                            .dwattr $C$DW$T$145, DW_AT_type(*$C$DW$T$144)
    2181                            .dwattr $C$DW$T$145, DW_AT_address_class(0x20)
    2182                    $C$DW$T$21      .dwtag  DW_TAG_pointer_type
    2183                            .dwattr $C$DW$T$21, DW_AT_type(*$C$DW$T$20)
TMS320C6x Assembler PC v7.4.2 Thu Mar 19 12:43:10 2015

Tools Copyright (c) 1996-2012 Texas Instruments Incorporated
package/lib/Regression/regress_d_c/./../packages/ti/vlib/src/VLIB_L2_norm_f32/VLIB_L2_norm_f32_d.se66 PAGE   45

    2184                            .dwattr $C$DW$T$21, DW_AT_address_class(0x20)
    2185                    $C$DW$T$147     .dwtag  DW_TAG_typedef, DW_AT_name("float32_t")
    2186                            .dwattr $C$DW$T$147, DW_AT_type(*$C$DW$T$16)
    2187                            .dwattr $C$DW$T$147, DW_AT_language(DW_LANG_C)
    2188                            .dwattr $C$DW$T$147, DW_AT_decl_file("C:\VLIB_Tools\CCSV5_4_0\ccsv5\tools\compiler\C6000\inclu
    2189                            .dwattr $C$DW$T$147, DW_AT_decl_line(0x30)
    2190                            .dwattr $C$DW$T$147, DW_AT_decl_column(0x0f)
    2191                    $C$DW$T$17      .dwtag  DW_TAG_base_type
    2192                            .dwattr $C$DW$T$17, DW_AT_encoding(DW_ATE_float)
    2193                            .dwattr $C$DW$T$17, DW_AT_name("double")
    2194                            .dwattr $C$DW$T$17, DW_AT_byte_size(0x08)
    2195                    $C$DW$T$22      .dwtag  DW_TAG_typedef, DW_AT_name("VLIB_D64")
    2196                            .dwattr $C$DW$T$22, DW_AT_type(*$C$DW$T$17)
    2197                            .dwattr $C$DW$T$22, DW_AT_language(DW_LANG_C)
    2198                            .dwattr $C$DW$T$22, DW_AT_decl_file(".\..\packages\ti\vlib\src\VLIB_L2_norm_f32\..\common\c66/
    2199                            .dwattr $C$DW$T$22, DW_AT_decl_line(0x5a)
    2200                            .dwattr $C$DW$T$22, DW_AT_decl_column(0x10)
    2201                    $C$DW$T$151     .dwtag  DW_TAG_typedef, DW_AT_name("__float2_t")
    2202                            .dwattr $C$DW$T$151, DW_AT_type(*$C$DW$T$17)
    2203                            .dwattr $C$DW$T$151, DW_AT_language(DW_LANG_C)
    2204                            .dwattr $C$DW$T$151, DW_AT_decl_file("C:/VLIB_Tools/CCSV5_4_0/ccsv5/tools/compiler/C6000/inclu
    2205                            .dwattr $C$DW$T$151, DW_AT_decl_line(0x5f)
    2206                            .dwattr $C$DW$T$151, DW_AT_decl_column(0x14)
    2207                    $C$DW$T$18      .dwtag  DW_TAG_base_type
    2208                            .dwattr $C$DW$T$18, DW_AT_encoding(DW_ATE_float)
    2209                            .dwattr $C$DW$T$18, DW_AT_name("long double")
    2210                            .dwattr $C$DW$T$18, DW_AT_byte_size(0x08)
    2211                    $C$DW$T$31      .dwtag  DW_TAG_base_type
    2212                            .dwattr $C$DW$T$31, DW_AT_encoding(DW_ATE_signed_char)
    2213                            .dwattr $C$DW$T$31, DW_AT_name("signed char")
    2214                            .dwattr $C$DW$T$31, DW_AT_byte_size(0x01)
    2215                    
    2216                    $C$DW$T$32      .dwtag  DW_TAG_array_type
    2217                            .dwattr $C$DW$T$32, DW_AT_type(*$C$DW$T$31)
    2218                            .dwattr $C$DW$T$32, DW_AT_language(DW_LANG_C)
    2219                            .dwattr $C$DW$T$32, DW_AT_byte_size(0x04)
    2220                    $C$DW$173       .dwtag  DW_TAG_subrange_type
    2221                            .dwattr $C$DW$173, DW_AT_upper_bound(0x03)
    2222                            .dwendtag $C$DW$T$32
    2223                    
    2224                    $C$DW$T$56      .dwtag  DW_TAG_pointer_type
    2225                            .dwattr $C$DW$T$56, DW_AT_type(*$C$DW$T$31)
    2226                            .dwattr $C$DW$T$56, DW_AT_address_class(0x20)
    2227                    $C$DW$T$152     .dwtag  DW_TAG_typedef, DW_AT_name("va_list")
    2228                            .dwattr $C$DW$T$152, DW_AT_type(*$C$DW$T$56)
    2229                            .dwattr $C$DW$T$152, DW_AT_language(DW_LANG_C)
    2230                            .dwattr $C$DW$T$152, DW_AT_decl_file("C:/VLIB_Tools/CCSV5_4_0/ccsv5/tools/compiler/C6000/inclu
    2231                            .dwattr $C$DW$T$152, DW_AT_decl_line(0x2f)
    2232                            .dwattr $C$DW$T$152, DW_AT_decl_column(0x12)
    2233                    $C$DW$T$98      .dwtag  DW_TAG_const_type
    2234                            .dwattr $C$DW$T$98, DW_AT_type(*$C$DW$T$31)
    2235                    $C$DW$T$99      .dwtag  DW_TAG_pointer_type
    2236                            .dwattr $C$DW$T$99, DW_AT_type(*$C$DW$T$98)
    2237                            .dwattr $C$DW$T$99, DW_AT_address_class(0x20)
    2238                    
TMS320C6x Assembler PC v7.4.2 Thu Mar 19 12:43:10 2015

Tools Copyright (c) 1996-2012 Texas Instruments Incorporated
package/lib/Regression/regress_d_c/./../packages/ti/vlib/src/VLIB_L2_norm_f32/VLIB_L2_norm_f32_d.se66 PAGE   46

    2239                    $C$DW$T$153     .dwtag  DW_TAG_array_type
    2240                            .dwattr $C$DW$T$153, DW_AT_type(*$C$DW$T$31)
    2241                            .dwattr $C$DW$T$153, DW_AT_language(DW_LANG_C)
    2242                    $C$DW$174       .dwtag  DW_TAG_subrange_type
    2243                            .dwendtag $C$DW$T$153
    2244                    
    2245                    
    2246                    $C$DW$T$35      .dwtag  DW_TAG_structure_type
    2247                            .dwattr $C$DW$T$35, DW_AT_name("__simd128_int32_t")
    2248                            .dwattr $C$DW$T$35, DW_AT_byte_size(0x10)
    2249                    $C$DW$175       .dwtag  DW_TAG_member
    2250                            .dwattr $C$DW$175, DW_AT_type(*$C$DW$T$34)
    2251                            .dwattr $C$DW$175, DW_AT_name("_v")
    2252                            .dwattr $C$DW$175, DW_AT_TI_symbol_name("_v")
    2253                            .dwattr $C$DW$175, DW_AT_data_member_location[DW_OP_plus_uconst 0x0]
    2254                            .dwattr $C$DW$175, DW_AT_accessibility(DW_ACCESS_public)
    2255                            .dwattr $C$DW$175, DW_AT_decl_file("C:\VLIB_Tools\CCSV5_4_0\ccsv5\tools\compiler\C6000\include
    2256                            .dwattr $C$DW$175, DW_AT_decl_line(0x44)
    2257                            .dwattr $C$DW$175, DW_AT_decl_column(0x01)
    2258                            .dwendtag $C$DW$T$35
    2259                    
    2260                            .dwattr $C$DW$T$35, DW_AT_decl_file("C:\VLIB_Tools\CCSV5_4_0\ccsv5\tools\compiler\C6000\includ
    2261                            .dwattr $C$DW$T$35, DW_AT_decl_line(0x44)
    2262                            .dwattr $C$DW$T$35, DW_AT_decl_column(0x01)
    2263                    $C$DW$T$154     .dwtag  DW_TAG_typedef, DW_AT_name("int32x4_t")
    2264                            .dwattr $C$DW$T$154, DW_AT_type(*$C$DW$T$35)
    2265                            .dwattr $C$DW$T$154, DW_AT_language(DW_LANG_C)
    2266                            .dwattr $C$DW$T$154, DW_AT_decl_file("C:\VLIB_Tools\CCSV5_4_0\ccsv5\tools\compiler\C6000\inclu
    2267                            .dwattr $C$DW$T$154, DW_AT_decl_line(0x44)
    2268                            .dwattr $C$DW$T$154, DW_AT_decl_column(0x01)
    2269                    $C$DW$T$155     .dwtag  DW_TAG_typedef, DW_AT_name("__x128_t")
    2270                            .dwattr $C$DW$T$155, DW_AT_type(*$C$DW$T$154)
    2271                            .dwattr $C$DW$T$155, DW_AT_language(DW_LANG_C)
    2272                            .dwattr $C$DW$T$155, DW_AT_decl_file("C:\VLIB_Tools\CCSV5_4_0\ccsv5\tools\compiler\C6000\inclu
    2273                            .dwattr $C$DW$T$155, DW_AT_decl_line(0x46)
    2274                            .dwattr $C$DW$T$155, DW_AT_decl_column(0x13)
    2275                    
    2276                    $C$DW$T$36      .dwtag  DW_TAG_structure_type
    2277                            .dwattr $C$DW$T$36, DW_AT_name("tm")
    2278                            .dwattr $C$DW$T$36, DW_AT_byte_size(0x24)
    2279                    $C$DW$176       .dwtag  DW_TAG_member
    2280                            .dwattr $C$DW$176, DW_AT_type(*$C$DW$T$10)
    2281                            .dwattr $C$DW$176, DW_AT_name("tm_sec")
    2282                            .dwattr $C$DW$176, DW_AT_TI_symbol_name("tm_sec")
    2283                            .dwattr $C$DW$176, DW_AT_data_member_location[DW_OP_plus_uconst 0x0]
    2284                            .dwattr $C$DW$176, DW_AT_accessibility(DW_ACCESS_public)
    2285                            .dwattr $C$DW$176, DW_AT_decl_file("C:/VLIB_Tools/CCSV5_4_0/ccsv5/tools/compiler/C6000/include
    2286                            .dwattr $C$DW$176, DW_AT_decl_line(0x41)
    2287                            .dwattr $C$DW$176, DW_AT_decl_column(0x09)
    2288                    $C$DW$177       .dwtag  DW_TAG_member
    2289                            .dwattr $C$DW$177, DW_AT_type(*$C$DW$T$10)
    2290                            .dwattr $C$DW$177, DW_AT_name("tm_min")
    2291                            .dwattr $C$DW$177, DW_AT_TI_symbol_name("tm_min")
    2292                            .dwattr $C$DW$177, DW_AT_data_member_location[DW_OP_plus_uconst 0x4]
    2293                            .dwattr $C$DW$177, DW_AT_accessibility(DW_ACCESS_public)
TMS320C6x Assembler PC v7.4.2 Thu Mar 19 12:43:10 2015

Tools Copyright (c) 1996-2012 Texas Instruments Incorporated
package/lib/Regression/regress_d_c/./../packages/ti/vlib/src/VLIB_L2_norm_f32/VLIB_L2_norm_f32_d.se66 PAGE   47

    2294                            .dwattr $C$DW$177, DW_AT_decl_file("C:/VLIB_Tools/CCSV5_4_0/ccsv5/tools/compiler/C6000/include
    2295                            .dwattr $C$DW$177, DW_AT_decl_line(0x42)
    2296                            .dwattr $C$DW$177, DW_AT_decl_column(0x09)
    2297                    $C$DW$178       .dwtag  DW_TAG_member
    2298                            .dwattr $C$DW$178, DW_AT_type(*$C$DW$T$10)
    2299                            .dwattr $C$DW$178, DW_AT_name("tm_hour")
    2300                            .dwattr $C$DW$178, DW_AT_TI_symbol_name("tm_hour")
    2301                            .dwattr $C$DW$178, DW_AT_data_member_location[DW_OP_plus_uconst 0x8]
    2302                            .dwattr $C$DW$178, DW_AT_accessibility(DW_ACCESS_public)
    2303                            .dwattr $C$DW$178, DW_AT_decl_file("C:/VLIB_Tools/CCSV5_4_0/ccsv5/tools/compiler/C6000/include
    2304                            .dwattr $C$DW$178, DW_AT_decl_line(0x43)
    2305                            .dwattr $C$DW$178, DW_AT_decl_column(0x09)
    2306                    $C$DW$179       .dwtag  DW_TAG_member
    2307                            .dwattr $C$DW$179, DW_AT_type(*$C$DW$T$10)
    2308                            .dwattr $C$DW$179, DW_AT_name("tm_mday")
    2309                            .dwattr $C$DW$179, DW_AT_TI_symbol_name("tm_mday")
    2310                            .dwattr $C$DW$179, DW_AT_data_member_location[DW_OP_plus_uconst 0xc]
    2311                            .dwattr $C$DW$179, DW_AT_accessibility(DW_ACCESS_public)
    2312                            .dwattr $C$DW$179, DW_AT_decl_file("C:/VLIB_Tools/CCSV5_4_0/ccsv5/tools/compiler/C6000/include
    2313                            .dwattr $C$DW$179, DW_AT_decl_line(0x44)
    2314                            .dwattr $C$DW$179, DW_AT_decl_column(0x09)
    2315                    $C$DW$180       .dwtag  DW_TAG_member
    2316                            .dwattr $C$DW$180, DW_AT_type(*$C$DW$T$10)
    2317                            .dwattr $C$DW$180, DW_AT_name("tm_mon")
    2318                            .dwattr $C$DW$180, DW_AT_TI_symbol_name("tm_mon")
    2319                            .dwattr $C$DW$180, DW_AT_data_member_location[DW_OP_plus_uconst 0x10]
    2320                            .dwattr $C$DW$180, DW_AT_accessibility(DW_ACCESS_public)
    2321                            .dwattr $C$DW$180, DW_AT_decl_file("C:/VLIB_Tools/CCSV5_4_0/ccsv5/tools/compiler/C6000/include
    2322                            .dwattr $C$DW$180, DW_AT_decl_line(0x45)
    2323                            .dwattr $C$DW$180, DW_AT_decl_column(0x09)
    2324                    $C$DW$181       .dwtag  DW_TAG_member
    2325                            .dwattr $C$DW$181, DW_AT_type(*$C$DW$T$10)
    2326                            .dwattr $C$DW$181, DW_AT_name("tm_year")
    2327                            .dwattr $C$DW$181, DW_AT_TI_symbol_name("tm_year")
    2328                            .dwattr $C$DW$181, DW_AT_data_member_location[DW_OP_plus_uconst 0x14]
    2329                            .dwattr $C$DW$181, DW_AT_accessibility(DW_ACCESS_public)
    2330                            .dwattr $C$DW$181, DW_AT_decl_file("C:/VLIB_Tools/CCSV5_4_0/ccsv5/tools/compiler/C6000/include
    2331                            .dwattr $C$DW$181, DW_AT_decl_line(0x46)
    2332                            .dwattr $C$DW$181, DW_AT_decl_column(0x09)
    2333                    $C$DW$182       .dwtag  DW_TAG_member
    2334                            .dwattr $C$DW$182, DW_AT_type(*$C$DW$T$10)
    2335                            .dwattr $C$DW$182, DW_AT_name("tm_wday")
    2336                            .dwattr $C$DW$182, DW_AT_TI_symbol_name("tm_wday")
    2337                            .dwattr $C$DW$182, DW_AT_data_member_location[DW_OP_plus_uconst 0x18]
    2338                            .dwattr $C$DW$182, DW_AT_accessibility(DW_ACCESS_public)
    2339                            .dwattr $C$DW$182, DW_AT_decl_file("C:/VLIB_Tools/CCSV5_4_0/ccsv5/tools/compiler/C6000/include
    2340                            .dwattr $C$DW$182, DW_AT_decl_line(0x47)
    2341                            .dwattr $C$DW$182, DW_AT_decl_column(0x09)
    2342                    $C$DW$183       .dwtag  DW_TAG_member
    2343                            .dwattr $C$DW$183, DW_AT_type(*$C$DW$T$10)
    2344                            .dwattr $C$DW$183, DW_AT_name("tm_yday")
    2345                            .dwattr $C$DW$183, DW_AT_TI_symbol_name("tm_yday")
    2346                            .dwattr $C$DW$183, DW_AT_data_member_location[DW_OP_plus_uconst 0x1c]
    2347                            .dwattr $C$DW$183, DW_AT_accessibility(DW_ACCESS_public)
    2348                            .dwattr $C$DW$183, DW_AT_decl_file("C:/VLIB_Tools/CCSV5_4_0/ccsv5/tools/compiler/C6000/include
TMS320C6x Assembler PC v7.4.2 Thu Mar 19 12:43:10 2015

Tools Copyright (c) 1996-2012 Texas Instruments Incorporated
package/lib/Regression/regress_d_c/./../packages/ti/vlib/src/VLIB_L2_norm_f32/VLIB_L2_norm_f32_d.se66 PAGE   48

    2349                            .dwattr $C$DW$183, DW_AT_decl_line(0x48)
    2350                            .dwattr $C$DW$183, DW_AT_decl_column(0x09)
    2351                    $C$DW$184       .dwtag  DW_TAG_member
    2352                            .dwattr $C$DW$184, DW_AT_type(*$C$DW$T$10)
    2353                            .dwattr $C$DW$184, DW_AT_name("tm_isdst")
    2354                            .dwattr $C$DW$184, DW_AT_TI_symbol_name("tm_isdst")
    2355                            .dwattr $C$DW$184, DW_AT_data_member_location[DW_OP_plus_uconst 0x20]
    2356                            .dwattr $C$DW$184, DW_AT_accessibility(DW_ACCESS_public)
    2357                            .dwattr $C$DW$184, DW_AT_decl_file("C:/VLIB_Tools/CCSV5_4_0/ccsv5/tools/compiler/C6000/include
    2358                            .dwattr $C$DW$184, DW_AT_decl_line(0x49)
    2359                            .dwattr $C$DW$184, DW_AT_decl_column(0x09)
    2360                            .dwendtag $C$DW$T$36
    2361                    
    2362                            .dwattr $C$DW$T$36, DW_AT_decl_file("C:/VLIB_Tools/CCSV5_4_0/ccsv5/tools/compiler/C6000/includ
    2363                            .dwattr $C$DW$T$36, DW_AT_decl_line(0x3f)
    2364                            .dwattr $C$DW$T$36, DW_AT_decl_column(0x08)
    2365                            .dwattr $C$DW$CU, DW_AT_language(DW_LANG_C)
    2366                    
    2367                    ;***************************************************************
    2368                    ;* DWARF CIE ENTRIES                                           *
    2369                    ;***************************************************************
    2370                    
    2371                    $C$DW$CIE       .dwcie 19
    2372                            .dwcfi  cfa_register, 31
    2373                            .dwcfi  cfa_offset, 0
    2374                            .dwcfi  undefined, 0
    2375                            .dwcfi  undefined, 1
    2376                            .dwcfi  undefined, 2
    2377                            .dwcfi  undefined, 3
    2378                            .dwcfi  undefined, 4
    2379                            .dwcfi  undefined, 5
    2380                            .dwcfi  undefined, 6
    2381                            .dwcfi  undefined, 7
    2382                            .dwcfi  undefined, 8
    2383                            .dwcfi  undefined, 9
    2384                            .dwcfi  same_value, 10
    2385                            .dwcfi  same_value, 11
    2386                            .dwcfi  same_value, 12
    2387                            .dwcfi  same_value, 13
    2388                            .dwcfi  same_value, 14
    2389                            .dwcfi  same_value, 15
    2390                            .dwcfi  undefined, 16
    2391                            .dwcfi  undefined, 17
    2392                            .dwcfi  undefined, 18
    2393                            .dwcfi  undefined, 19
    2394                            .dwcfi  undefined, 20
    2395                            .dwcfi  undefined, 21
    2396                            .dwcfi  undefined, 22
    2397                            .dwcfi  undefined, 23
    2398                            .dwcfi  undefined, 24
    2399                            .dwcfi  undefined, 25
    2400                            .dwcfi  same_value, 26
    2401                            .dwcfi  same_value, 27
    2402                            .dwcfi  same_value, 28
    2403                            .dwcfi  same_value, 29
TMS320C6x Assembler PC v7.4.2 Thu Mar 19 12:43:10 2015

Tools Copyright (c) 1996-2012 Texas Instruments Incorporated
package/lib/Regression/regress_d_c/./../packages/ti/vlib/src/VLIB_L2_norm_f32/VLIB_L2_norm_f32_d.se66 PAGE   49

    2404                            .dwcfi  same_value, 30
    2405                            .dwcfi  same_value, 31
    2406                            .dwcfi  same_value, 32
    2407                            .dwcfi  undefined, 33
    2408                            .dwcfi  undefined, 34
    2409                            .dwcfi  undefined, 35
    2410                            .dwcfi  undefined, 36
    2411                            .dwcfi  undefined, 37
    2412                            .dwcfi  undefined, 38
    2413                            .dwcfi  undefined, 39
    2414                            .dwcfi  undefined, 40
    2415                            .dwcfi  undefined, 41
    2416                            .dwcfi  undefined, 42
    2417                            .dwcfi  undefined, 43
    2418                            .dwcfi  undefined, 44
    2419                            .dwcfi  undefined, 45
    2420                            .dwcfi  undefined, 46
    2421                            .dwcfi  undefined, 47
    2422                            .dwcfi  undefined, 48
    2423                            .dwcfi  undefined, 49
    2424                            .dwcfi  undefined, 50
    2425                            .dwcfi  undefined, 51
    2426                            .dwcfi  undefined, 52
    2427                            .dwcfi  undefined, 53
    2428                            .dwcfi  undefined, 54
    2429                            .dwcfi  undefined, 55
    2430                            .dwcfi  undefined, 56
    2431                            .dwcfi  undefined, 57
    2432                            .dwcfi  undefined, 58
    2433                            .dwcfi  undefined, 59
    2434                            .dwcfi  undefined, 60
    2435                            .dwcfi  undefined, 61
    2436                            .dwcfi  undefined, 62
    2437                            .dwcfi  undefined, 63
    2438                            .dwcfi  undefined, 64
    2439                            .dwcfi  undefined, 65
    2440                            .dwcfi  undefined, 66
    2441                            .dwcfi  undefined, 67
    2442                            .dwcfi  undefined, 68
    2443                            .dwcfi  undefined, 69
    2444                            .dwcfi  undefined, 70
    2445                            .dwcfi  undefined, 71
    2446                            .dwcfi  undefined, 72
    2447                            .dwcfi  undefined, 73
    2448                            .dwcfi  undefined, 74
    2449                            .dwcfi  undefined, 75
    2450                            .dwcfi  undefined, 76
    2451                            .dwcfi  undefined, 77
    2452                            .dwcfi  undefined, 78
    2453                            .dwcfi  undefined, 79
    2454                            .dwcfi  undefined, 80
    2455                            .dwcfi  undefined, 81
    2456                            .dwcfi  undefined, 82
    2457                            .dwcfi  undefined, 83
    2458                            .dwcfi  undefined, 84
TMS320C6x Assembler PC v7.4.2 Thu Mar 19 12:43:10 2015

Tools Copyright (c) 1996-2012 Texas Instruments Incorporated
package/lib/Regression/regress_d_c/./../packages/ti/vlib/src/VLIB_L2_norm_f32/VLIB_L2_norm_f32_d.se66 PAGE   50

    2459                            .dwcfi  undefined, 85
    2460                            .dwcfi  undefined, 86
    2461                            .dwcfi  undefined, 87
    2462                            .dwcfi  undefined, 88
    2463                            .dwcfi  undefined, 89
    2464                            .dwcfi  undefined, 90
    2465                            .dwcfi  undefined, 91
    2466                            .dwcfi  undefined, 92
    2467                            .dwcfi  undefined, 93
    2468                            .dwcfi  undefined, 94
    2469                            .dwcfi  undefined, 95
    2470                            .dwcfi  undefined, 96
    2471                            .dwcfi  undefined, 97
    2472                            .dwcfi  undefined, 98
    2473                            .dwcfi  undefined, 99
    2474                            .dwcfi  undefined, 100
    2475                            .dwcfi  undefined, 101
    2476                            .dwcfi  undefined, 102
    2477                            .dwcfi  undefined, 103
    2478                            .dwcfi  undefined, 104
    2479                            .dwcfi  undefined, 105
    2480                            .dwcfi  undefined, 106
    2481                            .dwcfi  undefined, 107
    2482                            .dwcfi  undefined, 108
    2483                            .dwcfi  undefined, 109
    2484                            .dwcfi  undefined, 110
    2485                            .dwcfi  undefined, 111
    2486                            .dwcfi  undefined, 112
    2487                            .dwcfi  undefined, 113
    2488                            .dwcfi  undefined, 114
    2489                            .dwcfi  undefined, 115
    2490                            .dwcfi  undefined, 116
    2491                            .dwcfi  undefined, 117
    2492                            .dwcfi  undefined, 118
    2493                            .dwcfi  undefined, 119
    2494                            .dwcfi  undefined, 120
    2495                            .dwcfi  undefined, 121
    2496                            .dwcfi  undefined, 122
    2497                            .dwcfi  undefined, 123
    2498                            .dwcfi  undefined, 124
    2499                            .dwcfi  undefined, 125
    2500                            .dwcfi  undefined, 126
    2501                            .dwcfi  undefined, 127
    2502                            .dwendentry
    2503                            .dwendtag $C$DW$CU
    2504                    

No Assembly Errors, No Assembly Warnings
