TMS320C6x Assembler PC v7.4.2 Thu Mar 19 12:44:14 2015

Tools Copyright (c) 1996-2012 Texas Instruments Incorporated
package/lib/Regression/regress_d_c/./../packages/ti/vlib/src/VLIB_originalfast12_score/VLIB_originalfast12_score_d.se66 PAGE    1

       1                    ;******************************************************************************
       2                    ;* TMS320C6x C/C++ Codegen                                          PC v7.4.2 *
       3                    ;* Date/Time created: Thu Mar 19 12:44:14 2015                                *
       4                    ;******************************************************************************
       5                            .compiler_opts --abi=eabi --c64p_l1d_workaround=off --endian=little --hll_source=on --long_pre
       6                    
       7                    ;******************************************************************************
       8                    ;* GLOBAL FILE PARAMETERS                                                     *
       9                    ;*                                                                            *
      10                    ;*   Architecture      : TMS320C66xx                                          *
      11                    ;*   Optimization      : Enabled at level 3                                   *
      12                    ;*   Optimizing for    : Speed                                                *
      13                    ;*                       Based on options: -o3, no -ms                        *
      14                    ;*   Endian            : Little                                               *
      15                    ;*   Interrupt Thrshld : 10000                                                *
      16                    ;*   Data Access Model : Far                                                  *
      17                    ;*   Pipelining        : Enabled                                              *
      18                    ;*   Speculate Loads   : Enabled with threshold = 0                           *
      19                    ;*   Memory Aliases    : Presume are aliases (pessimistic)                    *
      20                    ;*   Debug Info        : DWARF Debug w/Optimization                           *
      21                    ;*                                                                            *
      22                    ;******************************************************************************
      23                    
      24                            .asg    A15, FP
      25                            .asg    B14, DP
      26                            .asg    B15, SP
      27                            .global $bss
      28                    
      29                    
      30                    $C$DW$CU        .dwtag  DW_TAG_compile_unit
      31                            .dwattr $C$DW$CU, DW_AT_name("./../packages/ti/vlib/src/VLIB_originalfast12_score/VLIB_origina
      32                            .dwattr $C$DW$CU, DW_AT_producer("TI TMS320C6x C/C++ Codegen PC v7.4.2 Copyright (c) 1996-2012
      33                            .dwattr $C$DW$CU, DW_AT_TI_version(0x01)
      34                            .dwattr $C$DW$CU, DW_AT_comp_dir("c:\nightlybuilds\vlib\ti\vlib\vlib\examples")
      35                    
      36                    $C$DW$1 .dwtag  DW_TAG_subprogram, DW_AT_name("_itoll")
      37                            .dwattr $C$DW$1, DW_AT_TI_symbol_name("_itoll")
      38                            .dwattr $C$DW$1, DW_AT_type(*$C$DW$T$14)
      39                            .dwattr $C$DW$1, DW_AT_declaration
      40                            .dwattr $C$DW$1, DW_AT_external
      41                            .dwattr $C$DW$1, DW_AT_decl_file("C:/VLIB_Tools/CCSV5_4_0/ccsv5/tools/compiler/C6000/include/c
      42                            .dwattr $C$DW$1, DW_AT_decl_line(0xdf)
      43                            .dwattr $C$DW$1, DW_AT_decl_column(0x0b)
      44                    $C$DW$2 .dwtag  DW_TAG_formal_parameter
      45                            .dwattr $C$DW$2, DW_AT_type(*$C$DW$T$11)
      46                    $C$DW$3 .dwtag  DW_TAG_formal_parameter
      47                            .dwattr $C$DW$3, DW_AT_type(*$C$DW$T$11)
      48                            .dwendtag $C$DW$1
      49                    
      50                    
      51                    $C$DW$4 .dwtag  DW_TAG_subprogram, DW_AT_name("printf")
      52                            .dwattr $C$DW$4, DW_AT_TI_symbol_name("printf")
      53                            .dwattr $C$DW$4, DW_AT_type(*$C$DW$T$10)
      54                            .dwattr $C$DW$4, DW_AT_declaration
      55                            .dwattr $C$DW$4, DW_AT_external
TMS320C6x Assembler PC v7.4.2 Thu Mar 19 12:44:14 2015

Tools Copyright (c) 1996-2012 Texas Instruments Incorporated
package/lib/Regression/regress_d_c/./../packages/ti/vlib/src/VLIB_originalfast12_score/VLIB_originalfast12_score_d.se66 PAGE    2

      56                            .dwattr $C$DW$4, DW_AT_decl_file("C:/VLIB_Tools/CCSV5_4_0/ccsv5/tools/compiler/C6000/include/s
      57                            .dwattr $C$DW$4, DW_AT_decl_line(0xb8)
      58                            .dwattr $C$DW$4, DW_AT_decl_column(0x19)
      59                    $C$DW$5 .dwtag  DW_TAG_formal_parameter
      60                            .dwattr $C$DW$5, DW_AT_type(*$C$DW$T$150)
      61                    $C$DW$6 .dwtag  DW_TAG_unspecified_parameters
      62                            .dwendtag $C$DW$4
      63                    
      64                    
      65                    $C$DW$7 .dwtag  DW_TAG_subprogram, DW_AT_name("sprintf")
      66                            .dwattr $C$DW$7, DW_AT_TI_symbol_name("sprintf")
      67                            .dwattr $C$DW$7, DW_AT_type(*$C$DW$T$10)
      68                            .dwattr $C$DW$7, DW_AT_declaration
      69                            .dwattr $C$DW$7, DW_AT_external
      70                            .dwattr $C$DW$7, DW_AT_decl_file("C:/VLIB_Tools/CCSV5_4_0/ccsv5/tools/compiler/C6000/include/s
      71                            .dwattr $C$DW$7, DW_AT_decl_line(0xbc)
      72                            .dwattr $C$DW$7, DW_AT_decl_column(0x19)
      73                    $C$DW$8 .dwtag  DW_TAG_formal_parameter
      74                            .dwattr $C$DW$8, DW_AT_type(*$C$DW$T$31)
      75                    $C$DW$9 .dwtag  DW_TAG_formal_parameter
      76                            .dwattr $C$DW$9, DW_AT_type(*$C$DW$T$150)
      77                    $C$DW$10        .dwtag  DW_TAG_unspecified_parameters
      78                            .dwendtag $C$DW$7
      79                    
      80                    
      81                    $C$DW$11        .dwtag  DW_TAG_subprogram, DW_AT_name("malloc")
      82                            .dwattr $C$DW$11, DW_AT_TI_symbol_name("malloc")
      83                            .dwattr $C$DW$11, DW_AT_type(*$C$DW$T$3)
      84                            .dwattr $C$DW$11, DW_AT_declaration
      85                            .dwattr $C$DW$11, DW_AT_external
      86                            .dwattr $C$DW$11, DW_AT_decl_file("C:/VLIB_Tools/CCSV5_4_0/ccsv5/tools/compiler/C6000/include/
      87                            .dwattr $C$DW$11, DW_AT_decl_line(0x82)
      88                            .dwattr $C$DW$11, DW_AT_decl_column(0x19)
      89                    $C$DW$12        .dwtag  DW_TAG_formal_parameter
      90                            .dwattr $C$DW$12, DW_AT_type(*$C$DW$T$99)
      91                            .dwendtag $C$DW$11
      92                    
      93                    
      94                    $C$DW$13        .dwtag  DW_TAG_subprogram, DW_AT_name("free")
      95                            .dwattr $C$DW$13, DW_AT_TI_symbol_name("free")
      96                            .dwattr $C$DW$13, DW_AT_declaration
      97                            .dwattr $C$DW$13, DW_AT_external
      98                            .dwattr $C$DW$13, DW_AT_decl_file("C:/VLIB_Tools/CCSV5_4_0/ccsv5/tools/compiler/C6000/include/
      99                            .dwattr $C$DW$13, DW_AT_decl_line(0x86)
     100                            .dwattr $C$DW$13, DW_AT_decl_column(0x19)
     101                    $C$DW$14        .dwtag  DW_TAG_formal_parameter
     102                            .dwattr $C$DW$14, DW_AT_type(*$C$DW$T$3)
     103                            .dwendtag $C$DW$13
     104                    
     105                    
     106                    $C$DW$15        .dwtag  DW_TAG_subprogram, DW_AT_name("VLIB_cache_inval")
     107                            .dwattr $C$DW$15, DW_AT_TI_symbol_name("VLIB_cache_inval")
     108                            .dwattr $C$DW$15, DW_AT_type(*$C$DW$T$10)
     109                            .dwattr $C$DW$15, DW_AT_declaration
     110                            .dwattr $C$DW$15, DW_AT_external
TMS320C6x Assembler PC v7.4.2 Thu Mar 19 12:44:14 2015

Tools Copyright (c) 1996-2012 Texas Instruments Incorporated
package/lib/Regression/regress_d_c/./../packages/ti/vlib/src/VLIB_originalfast12_score/VLIB_originalfast12_score_d.se66 PAGE    3

     111                            .dwattr $C$DW$15, DW_AT_decl_file(".\..\packages\ti\vlib\src\VLIB_originalfast12_score\..\comm
     112                            .dwattr $C$DW$15, DW_AT_decl_line(0x58)
     113                            .dwattr $C$DW$15, DW_AT_decl_column(0x05)
     114                    
     115                    $C$DW$16        .dwtag  DW_TAG_subprogram, DW_AT_name("VLIB_profile_init")
     116                            .dwattr $C$DW$16, DW_AT_TI_symbol_name("VLIB_profile_init")
     117                            .dwattr $C$DW$16, DW_AT_declaration
     118                            .dwattr $C$DW$16, DW_AT_external
     119                            .dwattr $C$DW$16, DW_AT_decl_file(".\..\packages\ti\vlib\src\VLIB_originalfast12_score\..\comm
     120                            .dwattr $C$DW$16, DW_AT_decl_line(0x7b)
     121                            .dwattr $C$DW$16, DW_AT_decl_column(0x06)
     122                    $C$DW$17        .dwtag  DW_TAG_formal_parameter
     123                            .dwattr $C$DW$17, DW_AT_type(*$C$DW$T$10)
     124                    $C$DW$18        .dwtag  DW_TAG_formal_parameter
     125                            .dwattr $C$DW$18, DW_AT_type(*$C$DW$T$31)
     126                            .dwendtag $C$DW$16
     127                    
     128                    
     129                    $C$DW$19        .dwtag  DW_TAG_subprogram, DW_AT_name("VLIB_formula_add_test")
     130                            .dwattr $C$DW$19, DW_AT_TI_symbol_name("VLIB_formula_add_test")
     131                            .dwattr $C$DW$19, DW_AT_declaration
     132                            .dwattr $C$DW$19, DW_AT_external
     133                            .dwattr $C$DW$19, DW_AT_decl_file(".\..\packages\ti\vlib\src\VLIB_originalfast12_score\..\comm
     134                            .dwattr $C$DW$19, DW_AT_decl_line(0x7d)
     135                            .dwattr $C$DW$19, DW_AT_decl_column(0x06)
     136                    $C$DW$20        .dwtag  DW_TAG_formal_parameter
     137                            .dwattr $C$DW$20, DW_AT_type(*$C$DW$T$10)
     138                    $C$DW$21        .dwtag  DW_TAG_formal_parameter
     139                            .dwattr $C$DW$21, DW_AT_type(*$C$DW$T$10)
     140                    $C$DW$22        .dwtag  DW_TAG_formal_parameter
     141                            .dwattr $C$DW$22, DW_AT_type(*$C$DW$T$10)
     142                    $C$DW$23        .dwtag  DW_TAG_formal_parameter
     143                            .dwattr $C$DW$23, DW_AT_type(*$C$DW$T$10)
     144                    $C$DW$24        .dwtag  DW_TAG_formal_parameter
     145                            .dwattr $C$DW$24, DW_AT_type(*$C$DW$T$31)
     146                    $C$DW$25        .dwtag  DW_TAG_formal_parameter
     147                            .dwattr $C$DW$25, DW_AT_type(*$C$DW$T$10)
     148                            .dwendtag $C$DW$19
     149                    
     150                    
     151                    $C$DW$26        .dwtag  DW_TAG_subprogram, DW_AT_name("VLIB_skip_test")
     152                            .dwattr $C$DW$26, DW_AT_TI_symbol_name("VLIB_skip_test")
     153                            .dwattr $C$DW$26, DW_AT_declaration
     154                            .dwattr $C$DW$26, DW_AT_external
     155                            .dwattr $C$DW$26, DW_AT_decl_file(".\..\packages\ti\vlib\src\VLIB_originalfast12_score\..\comm
     156                            .dwattr $C$DW$26, DW_AT_decl_line(0x7e)
     157                            .dwattr $C$DW$26, DW_AT_decl_column(0x06)
     158                    $C$DW$27        .dwtag  DW_TAG_formal_parameter
     159                            .dwattr $C$DW$27, DW_AT_type(*$C$DW$T$31)
     160                            .dwendtag $C$DW$26
     161                    
     162                    
     163                    $C$DW$28        .dwtag  DW_TAG_subprogram, DW_AT_name("VLIB_profile_cycle_report")
     164                            .dwattr $C$DW$28, DW_AT_TI_symbol_name("VLIB_profile_cycle_report")
     165                            .dwattr $C$DW$28, DW_AT_declaration
TMS320C6x Assembler PC v7.4.2 Thu Mar 19 12:44:14 2015

Tools Copyright (c) 1996-2012 Texas Instruments Incorporated
package/lib/Regression/regress_d_c/./../packages/ti/vlib/src/VLIB_originalfast12_score/VLIB_originalfast12_score_d.se66 PAGE    4

     166                            .dwattr $C$DW$28, DW_AT_external
     167                            .dwattr $C$DW$28, DW_AT_decl_file(".\..\packages\ti\vlib\src\VLIB_originalfast12_score\..\comm
     168                            .dwattr $C$DW$28, DW_AT_decl_line(0x7f)
     169                            .dwattr $C$DW$28, DW_AT_decl_column(0x06)
     170                    $C$DW$29        .dwtag  DW_TAG_formal_parameter
     171                            .dwattr $C$DW$29, DW_AT_type(*$C$DW$T$10)
     172                    $C$DW$30        .dwtag  DW_TAG_formal_parameter
     173                            .dwattr $C$DW$30, DW_AT_type(*$C$DW$T$31)
     174                    $C$DW$31        .dwtag  DW_TAG_formal_parameter
     175                            .dwattr $C$DW$31, DW_AT_type(*$C$DW$T$31)
     176                            .dwendtag $C$DW$28
     177                    
     178                    
     179                    $C$DW$32        .dwtag  DW_TAG_subprogram, DW_AT_name("initStack")
     180                            .dwattr $C$DW$32, DW_AT_TI_symbol_name("initStack")
     181                            .dwattr $C$DW$32, DW_AT_declaration
     182                            .dwattr $C$DW$32, DW_AT_external
     183                            .dwattr $C$DW$32, DW_AT_decl_file(".\..\packages\ti\vlib\src\VLIB_originalfast12_score\..\comm
     184                            .dwattr $C$DW$32, DW_AT_decl_line(0x80)
     185                            .dwattr $C$DW$32, DW_AT_decl_column(0x06)
     186                    $C$DW$33        .dwtag  DW_TAG_formal_parameter
     187                            .dwattr $C$DW$33, DW_AT_type(*$C$DW$T$29)
     188                            .dwendtag $C$DW$32
     189                    
     190                    
     191                    $C$DW$34        .dwtag  DW_TAG_subprogram, DW_AT_name("setStackDepth")
     192                            .dwattr $C$DW$34, DW_AT_TI_symbol_name("setStackDepth")
     193                            .dwattr $C$DW$34, DW_AT_declaration
     194                            .dwattr $C$DW$34, DW_AT_external
     195                            .dwattr $C$DW$34, DW_AT_decl_file(".\..\packages\ti\vlib\src\VLIB_originalfast12_score\..\comm
     196                            .dwattr $C$DW$34, DW_AT_decl_line(0x81)
     197                            .dwattr $C$DW$34, DW_AT_decl_column(0x06)
     198                    
     199                    $C$DW$35        .dwtag  DW_TAG_subprogram, DW_AT_name("getSP")
     200                            .dwattr $C$DW$35, DW_AT_TI_symbol_name("getSP")
     201                            .dwattr $C$DW$35, DW_AT_type(*$C$DW$T$29)
     202                            .dwattr $C$DW$35, DW_AT_declaration
     203                            .dwattr $C$DW$35, DW_AT_external
     204                            .dwattr $C$DW$35, DW_AT_decl_file(".\..\packages\ti\vlib\src\VLIB_originalfast12_score\..\comm
     205                            .dwattr $C$DW$35, DW_AT_decl_line(0x82)
     206                            .dwattr $C$DW$35, DW_AT_decl_column(0x0a)
     207                    
     208                    $C$DW$36        .dwtag  DW_TAG_subprogram, DW_AT_name("VLIB_stack_memory")
     209                            .dwattr $C$DW$36, DW_AT_TI_symbol_name("VLIB_stack_memory")
     210                            .dwattr $C$DW$36, DW_AT_declaration
     211                            .dwattr $C$DW$36, DW_AT_external
     212                            .dwattr $C$DW$36, DW_AT_decl_file(".\..\packages\ti\vlib\src\VLIB_originalfast12_score\..\comm
     213                            .dwattr $C$DW$36, DW_AT_decl_line(0x83)
     214                            .dwattr $C$DW$36, DW_AT_decl_column(0x06)
     215                    
     216                    $C$DW$37        .dwtag  DW_TAG_subprogram, DW_AT_name("VLIB_fillBuffer")
     217                            .dwattr $C$DW$37, DW_AT_TI_symbol_name("VLIB_fillBuffer")
     218                            .dwattr $C$DW$37, DW_AT_declaration
     219                            .dwattr $C$DW$37, DW_AT_external
     220                            .dwattr $C$DW$37, DW_AT_decl_file(".\..\packages\ti\vlib\src\VLIB_originalfast12_score\../comm
TMS320C6x Assembler PC v7.4.2 Thu Mar 19 12:44:14 2015

Tools Copyright (c) 1996-2012 Texas Instruments Incorporated
package/lib/Regression/regress_d_c/./../packages/ti/vlib/src/VLIB_originalfast12_score/VLIB_originalfast12_score_d.se66 PAGE    5

     221                            .dwattr $C$DW$37, DW_AT_decl_line(0x77)
     222                            .dwattr $C$DW$37, DW_AT_decl_column(0x06)
     223                    $C$DW$38        .dwtag  DW_TAG_formal_parameter
     224                            .dwattr $C$DW$38, DW_AT_type(*$C$DW$T$20)
     225                    $C$DW$39        .dwtag  DW_TAG_formal_parameter
     226                            .dwattr $C$DW$39, DW_AT_type(*$C$DW$T$20)
     227                    $C$DW$40        .dwtag  DW_TAG_formal_parameter
     228                            .dwattr $C$DW$40, DW_AT_type(*$C$DW$T$3)
     229                    $C$DW$41        .dwtag  DW_TAG_formal_parameter
     230                            .dwattr $C$DW$41, DW_AT_type(*$C$DW$T$3)
     231                    $C$DW$42        .dwtag  DW_TAG_formal_parameter
     232                            .dwattr $C$DW$42, DW_AT_type(*$C$DW$T$27)
     233                    $C$DW$43        .dwtag  DW_TAG_formal_parameter
     234                            .dwattr $C$DW$43, DW_AT_type(*$C$DW$T$27)
     235                    $C$DW$44        .dwtag  DW_TAG_formal_parameter
     236                            .dwattr $C$DW$44, DW_AT_type(*$C$DW$T$27)
     237                    $C$DW$45        .dwtag  DW_TAG_formal_parameter
     238                            .dwattr $C$DW$45, DW_AT_type(*$C$DW$T$20)
     239                    $C$DW$46        .dwtag  DW_TAG_formal_parameter
     240                            .dwattr $C$DW$46, DW_AT_type(*$C$DW$T$31)
     241                            .dwendtag $C$DW$37
     242                    
     243                    
     244                    $C$DW$47        .dwtag  DW_TAG_subprogram, DW_AT_name("VLIB_malloc")
     245                            .dwattr $C$DW$47, DW_AT_TI_symbol_name("VLIB_malloc")
     246                            .dwattr $C$DW$47, DW_AT_type(*$C$DW$T$3)
     247                            .dwattr $C$DW$47, DW_AT_declaration
     248                            .dwattr $C$DW$47, DW_AT_external
     249                            .dwattr $C$DW$47, DW_AT_decl_file(".\..\packages\ti\vlib\src\VLIB_originalfast12_score\../comm
     250                            .dwattr $C$DW$47, DW_AT_decl_line(0xaf)
     251                            .dwattr $C$DW$47, DW_AT_decl_column(0x07)
     252                    $C$DW$48        .dwtag  DW_TAG_formal_parameter
     253                            .dwattr $C$DW$48, DW_AT_type(*$C$DW$T$99)
     254                            .dwendtag $C$DW$47
     255                    
     256                    
     257                    $C$DW$49        .dwtag  DW_TAG_subprogram, DW_AT_name("VLIB_free")
     258                            .dwattr $C$DW$49, DW_AT_TI_symbol_name("VLIB_free")
     259                            .dwattr $C$DW$49, DW_AT_declaration
     260                            .dwattr $C$DW$49, DW_AT_external
     261                            .dwattr $C$DW$49, DW_AT_decl_file(".\..\packages\ti\vlib\src\VLIB_originalfast12_score\../comm
     262                            .dwattr $C$DW$49, DW_AT_decl_line(0xb4)
     263                            .dwattr $C$DW$49, DW_AT_decl_column(0x07)
     264                    $C$DW$50        .dwtag  DW_TAG_formal_parameter
     265                            .dwattr $C$DW$50, DW_AT_type(*$C$DW$T$3)
     266                            .dwendtag $C$DW$49
     267                    
     268                    
     269                    $C$DW$51        .dwtag  DW_TAG_subprogram, DW_AT_name("getCORBParameters")
     270                            .dwattr $C$DW$51, DW_AT_TI_symbol_name("getCORBParameters")
     271                            .dwattr $C$DW$51, DW_AT_type(*$C$DW$T$74)
     272                            .dwattr $C$DW$51, DW_AT_declaration
     273                            .dwattr $C$DW$51, DW_AT_external
     274                            .dwattr $C$DW$51, DW_AT_decl_file(".\..\packages\ti\vlib\src\VLIB_originalfast12_score\../comm
     275                            .dwattr $C$DW$51, DW_AT_decl_line(0x46)
TMS320C6x Assembler PC v7.4.2 Thu Mar 19 12:44:14 2015

Tools Copyright (c) 1996-2012 Texas Instruments Incorporated
package/lib/Regression/regress_d_c/./../packages/ti/vlib/src/VLIB_originalfast12_score/VLIB_originalfast12_score_d.se66 PAGE    6

     276                            .dwattr $C$DW$51, DW_AT_decl_column(0x10)
     277                    $C$DW$52        .dwtag  DW_TAG_formal_parameter
     278                            .dwattr $C$DW$52, DW_AT_type(*$C$DW$T$10)
     279                    $C$DW$53        .dwtag  DW_TAG_formal_parameter
     280                            .dwattr $C$DW$53, DW_AT_type(*$C$DW$T$10)
     281                    $C$DW$54        .dwtag  DW_TAG_formal_parameter
     282                            .dwattr $C$DW$54, DW_AT_type(*$C$DW$T$10)
     283                    $C$DW$55        .dwtag  DW_TAG_formal_parameter
     284                            .dwattr $C$DW$55, DW_AT_type(*$C$DW$T$6)
     285                    $C$DW$56        .dwtag  DW_TAG_formal_parameter
     286                            .dwattr $C$DW$56, DW_AT_type(*$C$DW$T$10)
     287                            .dwendtag $C$DW$51
     288                    
     289                    
     290                    $C$DW$57        .dwtag  DW_TAG_subprogram, DW_AT_name("VLIB_originalfast12_score")
     291                            .dwattr $C$DW$57, DW_AT_TI_symbol_name("VLIB_originalfast12_score")
     292                            .dwattr $C$DW$57, DW_AT_declaration
     293                            .dwattr $C$DW$57, DW_AT_external
     294                            .dwattr $C$DW$57, DW_AT_decl_file(".\..\packages\ti\vlib\src\VLIB_originalfast12_score\c66/VLI
     295                            .dwattr $C$DW$57, DW_AT_decl_line(0x71)
     296                            .dwattr $C$DW$57, DW_AT_decl_column(0x06)
     297                    $C$DW$58        .dwtag  DW_TAG_formal_parameter
     298                            .dwattr $C$DW$58, DW_AT_type(*$C$DW$T$121)
     299                    $C$DW$59        .dwtag  DW_TAG_formal_parameter
     300                            .dwattr $C$DW$59, DW_AT_type(*$C$DW$T$19)
     301                    $C$DW$60        .dwtag  DW_TAG_formal_parameter
     302                            .dwattr $C$DW$60, DW_AT_type(*$C$DW$T$49)
     303                    $C$DW$61        .dwtag  DW_TAG_formal_parameter
     304                            .dwattr $C$DW$61, DW_AT_type(*$C$DW$T$19)
     305                    $C$DW$62        .dwtag  DW_TAG_formal_parameter
     306                            .dwattr $C$DW$62, DW_AT_type(*$C$DW$T$19)
     307                            .dwendtag $C$DW$57
     308                    
     309                    
     310                    $C$DW$63        .dwtag  DW_TAG_subprogram, DW_AT_name("VLIB_originalfast12_score_cn")
     311                            .dwattr $C$DW$63, DW_AT_TI_symbol_name("VLIB_originalfast12_score_cn")
     312                            .dwattr $C$DW$63, DW_AT_declaration
     313                            .dwattr $C$DW$63, DW_AT_external
     314                            .dwattr $C$DW$63, DW_AT_decl_file(".\..\packages\ti\vlib\src\VLIB_originalfast12_score\VLIB_or
     315                            .dwattr $C$DW$63, DW_AT_decl_line(0x23)
     316                            .dwattr $C$DW$63, DW_AT_decl_column(0x06)
     317                    $C$DW$64        .dwtag  DW_TAG_formal_parameter
     318                            .dwattr $C$DW$64, DW_AT_type(*$C$DW$T$120)
     319                    $C$DW$65        .dwtag  DW_TAG_formal_parameter
     320                            .dwattr $C$DW$65, DW_AT_type(*$C$DW$T$10)
     321                    $C$DW$66        .dwtag  DW_TAG_formal_parameter
     322                            .dwattr $C$DW$66, DW_AT_type(*$C$DW$T$49)
     323                    $C$DW$67        .dwtag  DW_TAG_formal_parameter
     324                            .dwattr $C$DW$67, DW_AT_type(*$C$DW$T$10)
     325                    $C$DW$68        .dwtag  DW_TAG_formal_parameter
     326                            .dwattr $C$DW$68, DW_AT_type(*$C$DW$T$10)
     327                            .dwendtag $C$DW$63
     328                    
     329                    
     330                    $C$DW$69        .dwtag  DW_TAG_subprogram, DW_AT_name("originalfast12_score_getTestParams")
TMS320C6x Assembler PC v7.4.2 Thu Mar 19 12:44:14 2015

Tools Copyright (c) 1996-2012 Texas Instruments Incorporated
package/lib/Regression/regress_d_c/./../packages/ti/vlib/src/VLIB_originalfast12_score/VLIB_originalfast12_score_d.se66 PAGE    7

     331                            .dwattr $C$DW$69, DW_AT_TI_symbol_name("originalfast12_score_getTestParams")
     332                            .dwattr $C$DW$69, DW_AT_declaration
     333                            .dwattr $C$DW$69, DW_AT_external
     334                            .dwattr $C$DW$69, DW_AT_decl_file(".\..\packages\ti\vlib\src\VLIB_originalfast12_score\VLIB_or
     335                            .dwattr $C$DW$69, DW_AT_decl_line(0x2f)
     336                            .dwattr $C$DW$69, DW_AT_decl_column(0x06)
     337                    $C$DW$70        .dwtag  DW_TAG_formal_parameter
     338                            .dwattr $C$DW$70, DW_AT_type(*$C$DW$T$84)
     339                    $C$DW$71        .dwtag  DW_TAG_formal_parameter
     340                            .dwattr $C$DW$71, DW_AT_type(*$C$DW$T$126)
     341                            .dwendtag $C$DW$69
     342                    
     343                    $C$DW$72        .dwtag  DW_TAG_variable, DW_AT_name("test_cases")
     344                            .dwattr $C$DW$72, DW_AT_TI_symbol_name("test_cases")
     345                            .dwattr $C$DW$72, DW_AT_type(*$C$DW$T$19)
     346                            .dwattr $C$DW$72, DW_AT_declaration
     347                            .dwattr $C$DW$72, DW_AT_external
     348                            .dwattr $C$DW$72, DW_AT_decl_file(".\..\packages\ti\vlib\src\VLIB_originalfast12_score\../comm
     349                            .dwattr $C$DW$72, DW_AT_decl_line(0x60)
     350                            .dwattr $C$DW$72, DW_AT_decl_column(0x13)
     351                    $C$DW$73        .dwtag  DW_TAG_variable, DW_AT_name("act_kernel")
     352                            .dwattr $C$DW$73, DW_AT_TI_symbol_name("act_kernel")
     353                            .dwattr $C$DW$73, DW_AT_type(*$C$DW$T$10)
     354                            .dwattr $C$DW$73, DW_AT_declaration
     355                            .dwattr $C$DW$73, DW_AT_external
     356                            .dwattr $C$DW$73, DW_AT_decl_file(".\..\packages\ti\vlib\src\VLIB_originalfast12_score\../comm
     357                            .dwattr $C$DW$73, DW_AT_decl_line(0x62)
     358                            .dwattr $C$DW$73, DW_AT_decl_column(0x13)
     359                    $C$DW$74        .dwtag  DW_TAG_variable, DW_AT_name("desc")
     360                            .dwattr $C$DW$74, DW_AT_TI_symbol_name("desc")
     361                            .dwattr $C$DW$74, DW_AT_type(*$C$DW$T$201)
     362                            .dwattr $C$DW$74, DW_AT_declaration
     363                            .dwattr $C$DW$74, DW_AT_external
     364                            .dwattr $C$DW$74, DW_AT_decl_file(".\..\packages\ti\vlib\src\VLIB_originalfast12_score\../comm
     365                            .dwattr $C$DW$74, DW_AT_decl_line(0x63)
     366                            .dwattr $C$DW$74, DW_AT_decl_column(0x13)
     367                    $C$DW$75        .dwtag  DW_TAG_variable, DW_AT_name("testPatternString")
     368                            .dwattr $C$DW$75, DW_AT_TI_symbol_name("testPatternString")
     369                            .dwattr $C$DW$75, DW_AT_type(*$C$DW$T$201)
     370                            .dwattr $C$DW$75, DW_AT_declaration
     371                            .dwattr $C$DW$75, DW_AT_external
     372                            .dwattr $C$DW$75, DW_AT_decl_file(".\..\packages\ti\vlib\src\VLIB_originalfast12_score\../comm
     373                            .dwattr $C$DW$75, DW_AT_decl_line(0x64)
     374                            .dwattr $C$DW$75, DW_AT_decl_column(0x13)
     375                    $C$DW$76        .dwtag  DW_TAG_variable, DW_AT_name("est_test")
     376                            .dwattr $C$DW$76, DW_AT_TI_symbol_name("est_test")
     377                            .dwattr $C$DW$76, DW_AT_type(*$C$DW$T$10)
     378                            .dwattr $C$DW$76, DW_AT_declaration
     379                            .dwattr $C$DW$76, DW_AT_external
     380                            .dwattr $C$DW$76, DW_AT_decl_file(".\..\packages\ti\vlib\src\VLIB_originalfast12_score\..\comm
     381                            .dwattr $C$DW$76, DW_AT_decl_line(0x75)
     382                            .dwattr $C$DW$76, DW_AT_decl_column(0x14)
     383                    $C$DW$77        .dwtag  DW_TAG_variable, DW_AT_name("beg_count")
     384                            .dwattr $C$DW$77, DW_AT_TI_symbol_name("beg_count")
     385                            .dwattr $C$DW$77, DW_AT_type(*$C$DW$T$192)
TMS320C6x Assembler PC v7.4.2 Thu Mar 19 12:44:14 2015

Tools Copyright (c) 1996-2012 Texas Instruments Incorporated
package/lib/Regression/regress_d_c/./../packages/ti/vlib/src/VLIB_originalfast12_score/VLIB_originalfast12_score_d.se66 PAGE    8

     386                            .dwattr $C$DW$77, DW_AT_declaration
     387                            .dwattr $C$DW$77, DW_AT_external
     388                            .dwattr $C$DW$77, DW_AT_decl_file(".\..\packages\ti\vlib\src\VLIB_originalfast12_score\..\comm
     389                            .dwattr $C$DW$77, DW_AT_decl_line(0x76)
     390                            .dwattr $C$DW$77, DW_AT_decl_column(0x14)
     391                    $C$DW$78        .dwtag  DW_TAG_variable, DW_AT_name("end_count")
     392                            .dwattr $C$DW$78, DW_AT_TI_symbol_name("end_count")
     393                            .dwattr $C$DW$78, DW_AT_type(*$C$DW$T$192)
     394                            .dwattr $C$DW$78, DW_AT_declaration
     395                            .dwattr $C$DW$78, DW_AT_external
     396                            .dwattr $C$DW$78, DW_AT_decl_file(".\..\packages\ti\vlib\src\VLIB_originalfast12_score\..\comm
     397                            .dwattr $C$DW$78, DW_AT_decl_line(0x77)
     398                            .dwattr $C$DW$78, DW_AT_decl_column(0x14)
     399                    $C$DW$79        .dwtag  DW_TAG_variable, DW_AT_name("overhead")
     400                            .dwattr $C$DW$79, DW_AT_TI_symbol_name("overhead")
     401                            .dwattr $C$DW$79, DW_AT_type(*$C$DW$T$192)
     402                            .dwattr $C$DW$79, DW_AT_declaration
     403                            .dwattr $C$DW$79, DW_AT_external
     404                            .dwattr $C$DW$79, DW_AT_decl_file(".\..\packages\ti\vlib\src\VLIB_originalfast12_score\..\comm
     405                            .dwattr $C$DW$79, DW_AT_decl_line(0x78)
     406                            .dwattr $C$DW$79, DW_AT_decl_column(0x14)
     407                    $C$DW$80        .dwtag  DW_TAG_variable, DW_AT_name("cycles")
     408                            .dwattr $C$DW$80, DW_AT_TI_symbol_name("cycles")
     409                            .dwattr $C$DW$80, DW_AT_type(*$C$DW$T$193)
     410                            .dwattr $C$DW$80, DW_AT_declaration
     411                            .dwattr $C$DW$80, DW_AT_external
     412                            .dwattr $C$DW$80, DW_AT_decl_file(".\..\packages\ti\vlib\src\VLIB_originalfast12_score\..\comm
     413                            .dwattr $C$DW$80, DW_AT_decl_line(0x79)
     414                            .dwattr $C$DW$80, DW_AT_decl_column(0x14)
     415                    ;       C:\VLIB_Tools\CCSV5_4_0\ccsv5\tools\compiler\C6000\bin\opt6x.exe C:\\Users\\gtbldadm\\AppData\
     416 00000000                   .sect   ".text"
     417                            .clink
     418                            .global VLIB_originalfast12_score_d
     419                    
     420                    $C$DW$81        .dwtag  DW_TAG_subprogram, DW_AT_name("VLIB_originalfast12_score_d")
     421                            .dwattr $C$DW$81, DW_AT_low_pc(VLIB_originalfast12_score_d)
     422                            .dwattr $C$DW$81, DW_AT_high_pc(0x00)
     423                            .dwattr $C$DW$81, DW_AT_TI_symbol_name("VLIB_originalfast12_score_d")
     424                            .dwattr $C$DW$81, DW_AT_external
     425                            .dwattr $C$DW$81, DW_AT_TI_begin_file("./../packages/ti/vlib/src/VLIB_originalfast12_score/VLI
     426                            .dwattr $C$DW$81, DW_AT_TI_begin_line(0x26)
     427                            .dwattr $C$DW$81, DW_AT_TI_begin_column(0x06)
     428                            .dwattr $C$DW$81, DW_AT_decl_file("./../packages/ti/vlib/src/VLIB_originalfast12_score/VLIB_or
     429                            .dwattr $C$DW$81, DW_AT_decl_line(0x26)
     430                            .dwattr $C$DW$81, DW_AT_decl_column(0x06)
     431                            .dwattr $C$DW$81, DW_AT_TI_max_frame_size(0x80)
     432                            .dwpsn  file "./../packages/ti/vlib/src/VLIB_originalfast12_score/VLIB_originalfast12_score_d.
     433                    
     434                            .dwfde $C$DW$CIE, VLIB_originalfast12_score_d
     435                    $C$DW$82        .dwtag  DW_TAG_formal_parameter, DW_AT_name("LevelOfFeedback")
     436                            .dwattr $C$DW$82, DW_AT_TI_symbol_name("LevelOfFeedback")
     437                            .dwattr $C$DW$82, DW_AT_type(*$C$DW$T$20)
     438                            .dwattr $C$DW$82, DW_AT_location[DW_OP_reg4]
     439                    ;----------------------------------------------------------------------
     440                    ;  38 | void VLIB_originalfast12_score_d(uint8_t LevelOfFeedback)              
TMS320C6x Assembler PC v7.4.2 Thu Mar 19 12:44:14 2015

Tools Copyright (c) 1996-2012 Texas Instruments Incorporated
package/lib/Regression/regress_d_c/./../packages/ti/vlib/src/VLIB_originalfast12_score/VLIB_originalfast12_score_d.se66 PAGE    9

     441                    ;----------------------------------------------------------------------
     442                    
     443                    ;******************************************************************************
     444                    ;* FUNCTION NAME: VLIB_originalfast12_score_d                                 *
     445                    ;*                                                                            *
     446                    ;*   Regs Modified     : A0,A1,A2,A3,A4,A5,A6,A7,A8,A9,A10,A11,A12,A13,A14,   *
     447                    ;*                           A15,B0,B1,B2,B3,B4,B5,B6,B7,B8,B9,B10,B11,B12,   *
     448                    ;*                           B13,SP,A16,A17,A18,A19,A20,A21,A22,A23,A24,A25,  *
     449                    ;*                           A26,A27,A28,A29,A30,A31,B16,B17,B18,B19,B20,B21, *
     450                    ;*                           B22,B23,B24,B25,B26,B27,B28,B29,B30,B31          *
     451                    ;*   Regs Used         : A0,A1,A2,A3,A4,A5,A6,A7,A8,A9,A10,A11,A12,A13,A14,   *
     452                    ;*                           A15,B0,B1,B2,B3,B4,B5,B6,B7,B8,B9,B10,B11,B12,   *
     453                    ;*                           B13,DP,SP,A16,A17,A18,A19,A20,A21,A22,A23,A24,   *
     454                    ;*                           A25,A26,A27,A28,A29,A30,A31,B16,B17,B18,B19,B20, *
     455                    ;*                           B21,B22,B23,B24,B25,B26,B27,B28,B29,B30,B31      *
     456                    ;*   Local Frame Size  : 24 Args + 44 Auto + 56 Save = 124 byte               *
     457                    ;******************************************************************************
     458                    
     459                    ;******************************************************************************
     460                    ;*                                                                            *
     461                    ;* Using -g (debug) with optimization (-o3) may disable key optimizations!    *
     462                    ;*                                                                            *
     463                    ;******************************************************************************
     464 00000000           VLIB_originalfast12_score_d:
     465                    ;** --------------------------------------------------------------------------*
     466                    ;          EXCLUSIVE CPU CYCLES: 15
     467                    ;** 45  -----------------------    originalfast12_score_getTestParams(&prm, &test_cases);
     468                    ;** 48  -----------------------    VLIB_profile_init(2, "VLIB_originalfast12_score");
     469                    ;** 51  -----------------------    if ( test_cases <= 0 ) goto g35;
     470                            .dwcfi  cfa_offset, 0
     471                    ;----------------------------------------------------------------------
     472                    ;  40 | int32_t    tpi;  /* test parameter index */                            
     473                    ;  43 | originalfast12_score_testParams_t   *prm;                              
     474                    ;----------------------------------------------------------------------
     475 00000000     25f7             STW     .D2T1   A11,*SP--(8)      ; |39| 
     476                            .dwcfi  cfa_offset, 8
     477                            .dwcfi  save_reg_to_mem, 11, 0
     478 00000002     2577             STW     .D2T1   A10,*SP--(8)      ; |39| 
     479                            .dwcfi  cfa_offset, 16
     480                            .dwcfi  save_reg_to_mem, 10, -8
     481 00000004     9677             STDW    .D2T2   B13:B12,*SP--     ; |39| 
     482                            .dwcfi  cfa_offset, 24
     483                            .dwcfi  save_reg_to_mem, 29, -12
     484                            .dwcfi  save_reg_to_mem, 28, -16
     485 00000006     9577             STDW    .D2T2   B11:B10,*SP--     ; |39| 
     486                            .dwcfi  cfa_offset, 32
     487                            .dwcfi  save_reg_to_mem, 27, -20
     488                            .dwcfi  save_reg_to_mem, 26, -24
     489 00000008     8777             STDW    .D2T1   A15:A14,*SP--     ; |39| 
     490                            .dwcfi  cfa_offset, 40
     491                            .dwcfi  save_reg_to_mem, 15, -28
     492                            .dwcfi  save_reg_to_mem, 14, -32
     493 0000000a     8677             STDW    .D2T1   A13:A12,*SP--     ; |39| 
     494                            .dwcfi  cfa_offset, 48
     495                            .dwcfi  save_reg_to_mem, 13, -36
TMS320C6x Assembler PC v7.4.2 Thu Mar 19 12:44:14 2015

Tools Copyright (c) 1996-2012 Texas Instruments Incorporated
package/lib/Regression/regress_d_c/./../packages/ti/vlib/src/VLIB_originalfast12_score/VLIB_originalfast12_score_d.se66 PAGE   10

     496                            .dwcfi  save_reg_to_mem, 12, -40
     497 0000000c 01be94f6             STW     .D2T2   B3,*SP--(80)      ; |39| 
     498                            .dwcfi  cfa_offset, 128
     499                            .dwcfi  save_reg_to_mem, 19, 0
     500                    $C$DW$83        .dwtag  DW_TAG_variable, DW_AT_name("$O$C6")
     501                            .dwattr $C$DW$83, DW_AT_TI_symbol_name("$O$C6")
     502                            .dwattr $C$DW$83, DW_AT_type(*$C$DW$T$80)
     503                            .dwattr $C$DW$83, DW_AT_location[DW_OP_reg20]
     504                    $C$DW$84        .dwtag  DW_TAG_variable, DW_AT_name("$O$C7")
     505                            .dwattr $C$DW$84, DW_AT_TI_symbol_name("$O$C7")
     506                            .dwattr $C$DW$84, DW_AT_type(*$C$DW$T$10)
     507                            .dwattr $C$DW$84, DW_AT_location[DW_OP_reg3]
     508                    $C$DW$85        .dwtag  DW_TAG_variable, DW_AT_name("$O$C8")
     509                            .dwattr $C$DW$85, DW_AT_TI_symbol_name("$O$C8")
     510                            .dwattr $C$DW$85, DW_AT_type(*$C$DW$T$10)
     511                            .dwattr $C$DW$85, DW_AT_location[DW_OP_reg29]
     512                    $C$DW$86        .dwtag  DW_TAG_variable, DW_AT_name("$O$C9")
     513                            .dwattr $C$DW$86, DW_AT_TI_symbol_name("$O$C9")
     514                            .dwattr $C$DW$86, DW_AT_type(*$C$DW$T$6)
     515                            .dwattr $C$DW$86, DW_AT_location[DW_OP_reg26]
     516                    $C$DW$87        .dwtag  DW_TAG_variable, DW_AT_name("$O$C10")
     517                            .dwattr $C$DW$87, DW_AT_TI_symbol_name("$O$C10")
     518                            .dwattr $C$DW$87, DW_AT_type(*$C$DW$T$10)
     519                            .dwattr $C$DW$87, DW_AT_location[DW_OP_reg3]
     520                    $C$DW$88        .dwtag  DW_TAG_variable, DW_AT_name("$O$C11")
     521                            .dwattr $C$DW$88, DW_AT_TI_symbol_name("$O$C11")
     522                            .dwattr $C$DW$88, DW_AT_type(*$C$DW$T$80)
     523                            .dwattr $C$DW$88, DW_AT_location[DW_OP_reg20]
     524                    $C$DW$89        .dwtag  DW_TAG_variable, DW_AT_name("$O$C12")
     525                            .dwattr $C$DW$89, DW_AT_TI_symbol_name("$O$C12")
     526                            .dwattr $C$DW$89, DW_AT_type(*$C$DW$T$9)
     527                            .dwattr $C$DW$89, DW_AT_location[DW_OP_reg21]
     528                    $C$DW$90        .dwtag  DW_TAG_variable, DW_AT_name("$O$C13")
     529                            .dwattr $C$DW$90, DW_AT_TI_symbol_name("$O$C13")
     530                            .dwattr $C$DW$90, DW_AT_type(*$C$DW$T$80)
     531                            .dwattr $C$DW$90, DW_AT_location[DW_OP_reg20]
     532                    $C$DW$91        .dwtag  DW_TAG_variable, DW_AT_name("$O$C14")
     533                            .dwattr $C$DW$91, DW_AT_TI_symbol_name("$O$C14")
     534                            .dwattr $C$DW$91, DW_AT_type(*$C$DW$T$79)
     535                            .dwattr $C$DW$91, DW_AT_location[DW_OP_reg0]
     536                    $C$DW$92        .dwtag  DW_TAG_variable, DW_AT_name("$O$C15")
     537                            .dwattr $C$DW$92, DW_AT_TI_symbol_name("$O$C15")
     538                            .dwattr $C$DW$92, DW_AT_type(*$C$DW$T$79)
     539                            .dwattr $C$DW$92, DW_AT_location[DW_OP_reg2]
     540                    $C$DW$93        .dwtag  DW_TAG_variable, DW_AT_name("$O$C16")
     541                            .dwattr $C$DW$93, DW_AT_TI_symbol_name("$O$C16")
     542                            .dwattr $C$DW$93, DW_AT_type(*$C$DW$T$11)
     543                            .dwattr $C$DW$93, DW_AT_location[DW_OP_reg26]
     544                    $C$DW$94        .dwtag  DW_TAG_variable, DW_AT_name("$O$f4")
     545                            .dwattr $C$DW$94, DW_AT_TI_symbol_name("$O$f4")
     546                            .dwattr $C$DW$94, DW_AT_type(*$C$DW$T$10)
     547                            .dwattr $C$DW$94, DW_AT_location[DW_OP_reg0]
     548                    $C$DW$95        .dwtag  DW_TAG_variable, DW_AT_name("$O$f5")
     549                            .dwattr $C$DW$95, DW_AT_TI_symbol_name("$O$f5")
     550                            .dwattr $C$DW$95, DW_AT_type(*$C$DW$T$10)
TMS320C6x Assembler PC v7.4.2 Thu Mar 19 12:44:14 2015

Tools Copyright (c) 1996-2012 Texas Instruments Incorporated
package/lib/Regression/regress_d_c/./../packages/ti/vlib/src/VLIB_originalfast12_score/VLIB_originalfast12_score_d.se66 PAGE   11

     551                            .dwattr $C$DW$95, DW_AT_location[DW_OP_reg0]
     552                    $C$DW$96        .dwtag  DW_TAG_variable, DW_AT_name("$O$T3")
     553                            .dwattr $C$DW$96, DW_AT_TI_symbol_name("$O$T3")
     554                            .dwattr $C$DW$96, DW_AT_type(*$C$DW$T$11)
     555                            .dwattr $C$DW$96, DW_AT_location[DW_OP_reg20]
     556                    $C$DW$97        .dwtag  DW_TAG_variable, DW_AT_name("$O$U13")
     557                            .dwattr $C$DW$97, DW_AT_TI_symbol_name("$O$U13")
     558                            .dwattr $C$DW$97, DW_AT_type(*$C$DW$T$80)
     559                            .dwattr $C$DW$97, DW_AT_location[DW_OP_reg13]
     560                    $C$DW$98        .dwtag  DW_TAG_variable, DW_AT_name("$O$K23")
     561                            .dwattr $C$DW$98, DW_AT_TI_symbol_name("$O$K23")
     562                            .dwattr $C$DW$98, DW_AT_type(*$C$DW$T$11)
     563                            .dwattr $C$DW$98, DW_AT_location[DW_OP_reg4]
     564                    $C$DW$99        .dwtag  DW_TAG_variable, DW_AT_name("$O$U68")
     565                            .dwattr $C$DW$99, DW_AT_TI_symbol_name("$O$U68")
     566                            .dwattr $C$DW$99, DW_AT_type(*$C$DW$T$146)
     567                            .dwattr $C$DW$99, DW_AT_location[DW_OP_reg6]
     568                    $C$DW$100       .dwtag  DW_TAG_variable, DW_AT_name("$O$U83")
     569                            .dwattr $C$DW$100, DW_AT_TI_symbol_name("$O$U83")
     570                            .dwattr $C$DW$100, DW_AT_type(*$C$DW$T$11)
     571                            .dwattr $C$DW$100, DW_AT_location[DW_OP_reg23]
     572                    $C$DW$101       .dwtag  DW_TAG_variable, DW_AT_name("$O$K87")
     573                            .dwattr $C$DW$101, DW_AT_TI_symbol_name("$O$K87")
     574                            .dwattr $C$DW$101, DW_AT_type(*$C$DW$T$130)
     575                            .dwattr $C$DW$101, DW_AT_location[DW_OP_reg20]
     576                    $C$DW$102       .dwtag  DW_TAG_variable, DW_AT_name("$O$U12")
     577                            .dwattr $C$DW$102, DW_AT_TI_symbol_name("$O$U12")
     578                            .dwattr $C$DW$102, DW_AT_type(*$C$DW$T$10)
     579                            .dwattr $C$DW$102, DW_AT_location[DW_OP_reg28]
     580                    $C$DW$103       .dwtag  DW_TAG_variable, DW_AT_name("$O$U40")
     581                            .dwattr $C$DW$103, DW_AT_TI_symbol_name("$O$U40")
     582                            .dwattr $C$DW$103, DW_AT_type(*$C$DW$T$51)
     583                            .dwattr $C$DW$103, DW_AT_location[DW_OP_reg14]
     584                    $C$DW$104       .dwtag  DW_TAG_variable, DW_AT_name("$O$K91")
     585                            .dwattr $C$DW$104, DW_AT_TI_symbol_name("$O$K91")
     586                            .dwattr $C$DW$104, DW_AT_type(*$C$DW$T$10)
     587                            .dwattr $C$DW$104, DW_AT_location[DW_OP_reg25]
     588                    $C$DW$105       .dwtag  DW_TAG_variable, DW_AT_name("$O$K101")
     589                            .dwattr $C$DW$105, DW_AT_TI_symbol_name("$O$K101")
     590                            .dwattr $C$DW$105, DW_AT_type(*$C$DW$T$191)
     591                            .dwattr $C$DW$105, DW_AT_location[DW_OP_reg10]
     592                    $C$DW$106       .dwtag  DW_TAG_variable, DW_AT_name("$O$U42")
     593                            .dwattr $C$DW$106, DW_AT_TI_symbol_name("$O$U42")
     594                            .dwattr $C$DW$106, DW_AT_type(*$C$DW$T$10)
     595                            .dwattr $C$DW$106, DW_AT_location[DW_OP_reg26]
     596                    $C$DW$107       .dwtag  DW_TAG_variable, DW_AT_name("$O$U133")
     597                            .dwattr $C$DW$107, DW_AT_TI_symbol_name("$O$U133")
     598                            .dwattr $C$DW$107, DW_AT_type(*$C$DW$T$146)
     599                            .dwattr $C$DW$107, DW_AT_location[DW_OP_reg5]
     600                    $C$DW$108       .dwtag  DW_TAG_variable, DW_AT_name("$O$K146")
     601                            .dwattr $C$DW$108, DW_AT_TI_symbol_name("$O$K146")
     602                            .dwattr $C$DW$108, DW_AT_type(*$C$DW$T$130)
     603                            .dwattr $C$DW$108, DW_AT_location[DW_OP_reg8]
     604                    $C$DW$109       .dwtag  DW_TAG_variable, DW_AT_name("$O$L1")
     605                            .dwattr $C$DW$109, DW_AT_TI_symbol_name("$O$L1")
TMS320C6x Assembler PC v7.4.2 Thu Mar 19 12:44:14 2015

Tools Copyright (c) 1996-2012 Texas Instruments Incorporated
package/lib/Regression/regress_d_c/./../packages/ti/vlib/src/VLIB_originalfast12_score/VLIB_originalfast12_score_d.se66 PAGE   12

     606                            .dwattr $C$DW$109, DW_AT_type(*$C$DW$T$10)
     607                            .dwattr $C$DW$109, DW_AT_location[DW_OP_reg5]
     608                    $C$DW$110       .dwtag  DW_TAG_variable, DW_AT_name("$O$L2")
     609                            .dwattr $C$DW$110, DW_AT_TI_symbol_name("$O$L2")
     610                            .dwattr $C$DW$110, DW_AT_type(*$C$DW$T$10)
     611                            .dwattr $C$DW$110, DW_AT_location[DW_OP_reg4]
     612                    $C$DW$111       .dwtag  DW_TAG_variable, DW_AT_name("LevelOfFeedback")
     613                            .dwattr $C$DW$111, DW_AT_TI_symbol_name("LevelOfFeedback")
     614                            .dwattr $C$DW$111, DW_AT_type(*$C$DW$T$119)
     615                            .dwattr $C$DW$111, DW_AT_location[DW_OP_breg31 52]
     616                    $C$DW$112       .dwtag  DW_TAG_variable, DW_AT_name("tpi")
     617                            .dwattr $C$DW$112, DW_AT_TI_symbol_name("tpi")
     618                            .dwattr $C$DW$112, DW_AT_type(*$C$DW$T$19)
     619                            .dwattr $C$DW$112, DW_AT_location[DW_OP_reg27]
     620                    $C$DW$113       .dwtag  DW_TAG_variable, DW_AT_name("prm")
     621                            .dwattr $C$DW$113, DW_AT_TI_symbol_name("prm")
     622                            .dwattr $C$DW$113, DW_AT_type(*$C$DW$T$83)
     623                            .dwattr $C$DW$113, DW_AT_location[DW_OP_breg31 28]
     624                    $C$DW$114       .dwtag  DW_TAG_variable, DW_AT_name("status_nat_vs_int")
     625                            .dwattr $C$DW$114, DW_AT_TI_symbol_name("status_nat_vs_int")
     626                            .dwattr $C$DW$114, DW_AT_type(*$C$DW$T$19)
     627                            .dwattr $C$DW$114, DW_AT_location[DW_OP_reg29]
     628                    $C$DW$115       .dwtag  DW_TAG_variable, DW_AT_name("status_nat_vs_ref")
     629                            .dwattr $C$DW$115, DW_AT_TI_symbol_name("status_nat_vs_ref")
     630                            .dwattr $C$DW$115, DW_AT_type(*$C$DW$T$19)
     631                            .dwattr $C$DW$115, DW_AT_location[DW_OP_reg11]
     632                    $C$DW$116       .dwtag  DW_TAG_variable, DW_AT_name("nfeatures")
     633                            .dwattr $C$DW$116, DW_AT_TI_symbol_name("nfeatures")
     634                            .dwattr $C$DW$116, DW_AT_type(*$C$DW$T$29)
     635                            .dwattr $C$DW$116, DW_AT_location[DW_OP_reg10]
     636                    $C$DW$117       .dwtag  DW_TAG_variable, DW_AT_name("dummyPtr")
     637                            .dwattr $C$DW$117, DW_AT_TI_symbol_name("dummyPtr")
     638                            .dwattr $C$DW$117, DW_AT_type(*$C$DW$T$44)
     639                            .dwattr $C$DW$117, DW_AT_location[DW_OP_breg31 56]
     640                    $C$DW$118       .dwtag  DW_TAG_variable, DW_AT_name("orbInput")
     641                            .dwattr $C$DW$118, DW_AT_TI_symbol_name("orbInput")
     642                            .dwattr $C$DW$118, DW_AT_type(*$C$DW$T$86)
     643                            .dwattr $C$DW$118, DW_AT_location[DW_OP_breg31 60]
     644                    $C$DW$119       .dwtag  DW_TAG_variable, DW_AT_name("orbOutput")
     645                            .dwattr $C$DW$119, DW_AT_TI_symbol_name("orbOutput")
     646                            .dwattr $C$DW$119, DW_AT_type(*$C$DW$T$89)
     647                            .dwattr $C$DW$119, DW_AT_location[DW_OP_breg31 64]
     648                    $C$DW$120       .dwtag  DW_TAG_variable, DW_AT_name("orbOutput_cn")
     649                            .dwattr $C$DW$120, DW_AT_TI_symbol_name("orbOutput_cn")
     650                            .dwattr $C$DW$120, DW_AT_type(*$C$DW$T$89)
     651                            .dwattr $C$DW$120, DW_AT_location[DW_OP_breg31 68]
     652                    $C$DW$121       .dwtag  DW_TAG_variable, DW_AT_name("$O$U71")
     653                            .dwattr $C$DW$121, DW_AT_TI_symbol_name("$O$U71")
     654                            .dwattr $C$DW$121, DW_AT_type(*$C$DW$T$79)
     655                            .dwattr $C$DW$121, DW_AT_location[DW_OP_reg2]
     656                    $C$DW$122       .dwtag  DW_TAG_variable, DW_AT_name("$O$U71")
     657                            .dwattr $C$DW$122, DW_AT_TI_symbol_name("$O$U71")
     658                            .dwattr $C$DW$122, DW_AT_type(*$C$DW$T$79)
     659                            .dwattr $C$DW$122, DW_AT_location[DW_OP_reg22]
     660                    $C$DW$123       .dwtag  DW_TAG_variable, DW_AT_name("$O$U74")
TMS320C6x Assembler PC v7.4.2 Thu Mar 19 12:44:14 2015

Tools Copyright (c) 1996-2012 Texas Instruments Incorporated
package/lib/Regression/regress_d_c/./../packages/ti/vlib/src/VLIB_originalfast12_score/VLIB_originalfast12_score_d.se66 PAGE   13

     661                            .dwattr $C$DW$123, DW_AT_TI_symbol_name("$O$U74")
     662                            .dwattr $C$DW$123, DW_AT_type(*$C$DW$T$79)
     663                            .dwattr $C$DW$123, DW_AT_location[DW_OP_reg0]
     664                    $C$DW$124       .dwtag  DW_TAG_variable, DW_AT_name("$O$U74")
     665                            .dwattr $C$DW$124, DW_AT_TI_symbol_name("$O$U74")
     666                            .dwattr $C$DW$124, DW_AT_type(*$C$DW$T$79)
     667                            .dwattr $C$DW$124, DW_AT_location[DW_OP_reg4]
     668                    $C$DW$125       .dwtag  DW_TAG_variable, DW_AT_name("$O$U74")
     669                            .dwattr $C$DW$125, DW_AT_TI_symbol_name("$O$U74")
     670                            .dwattr $C$DW$125, DW_AT_type(*$C$DW$T$79)
     671                            .dwattr $C$DW$125, DW_AT_location[DW_OP_reg22]
     672                    $C$DW$126       .dwtag  DW_TAG_variable, DW_AT_name("i")
     673                            .dwattr $C$DW$126, DW_AT_TI_symbol_name("i")
     674                            .dwattr $C$DW$126, DW_AT_type(*$C$DW$T$19)
     675                            .dwattr $C$DW$126, DW_AT_location[DW_OP_reg21]
     676                    $C$DW$127       .dwtag  DW_TAG_variable, DW_AT_name("i")
     677                            .dwattr $C$DW$127, DW_AT_TI_symbol_name("i")
     678                            .dwattr $C$DW$127, DW_AT_type(*$C$DW$T$19)
     679                            .dwattr $C$DW$127, DW_AT_location[DW_OP_reg21]
     680                    $C$DW$128       .dwtag  DW_TAG_variable, DW_AT_name("$O$v1")
     681                            .dwattr $C$DW$128, DW_AT_TI_symbol_name("$O$v1")
     682                            .dwattr $C$DW$128, DW_AT_type(*$C$DW$T$83)
     683                            .dwattr $C$DW$128, DW_AT_location[DW_OP_reg10]
     684                    $C$DW$129       .dwtag  DW_TAG_variable, DW_AT_name("$O$v1")
     685                            .dwattr $C$DW$129, DW_AT_TI_symbol_name("$O$v1")
     686                            .dwattr $C$DW$129, DW_AT_type(*$C$DW$T$83)
     687                            .dwattr $C$DW$129, DW_AT_location[DW_OP_regx 0x35]
     688                    $C$DW$130       .dwtag  DW_TAG_variable, DW_AT_name("$O$v2")
     689                            .dwattr $C$DW$130, DW_AT_TI_symbol_name("$O$v2")
     690                            .dwattr $C$DW$130, DW_AT_type(*$C$DW$T$192)
     691                            .dwattr $C$DW$130, DW_AT_location[DW_OP_reg24]
     692                    $C$DW$131       .dwtag  DW_TAG_variable, DW_AT_name("$O$v2")
     693                            .dwattr $C$DW$131, DW_AT_TI_symbol_name("$O$v2")
     694                            .dwattr $C$DW$131, DW_AT_type(*$C$DW$T$192)
     695                            .dwattr $C$DW$131, DW_AT_location[DW_OP_reg24]
     696                    $C$DW$132       .dwtag  DW_TAG_variable, DW_AT_name("orbParams")
     697                            .dwattr $C$DW$132, DW_AT_TI_symbol_name("orbParams")
     698                            .dwattr $C$DW$132, DW_AT_type(*$C$DW$T$75)
     699                            .dwattr $C$DW$132, DW_AT_location[DW_OP_breg31 32]
     700 00000010 0500002a!            MVKL    .S2     test_cases,B10
     701 00000014 0500006a!            MVKH    .S2     test_cases,B10
     702                    $C$DW$133       .dwtag  DW_TAG_TI_branch
     703                            .dwattr $C$DW$133, DW_AT_low_pc(0x00)
     704                            .dwattr $C$DW$133, DW_AT_name("originalfast12_score_getTestParams")
     705                            .dwattr $C$DW$133, DW_AT_TI_call
     706                    
     707 00000018 10000013!            CALLP   .S2     originalfast12_score_getTestParams,B3
     708 00000020     8507  ||         MV      .L2     B10,B4            ; |45| 
     709 00000022     adc5  ||         STW     .D2T1   A4,*+SP(52)       ; |39| 
     710 00000024 120007fc  ||         ADDAW   .D1X    SP,7,A4           ; |45| 
     711                    
     712                            .dwpsn  file "./../packages/ti/vlib/src/VLIB_originalfast12_score/VLIB_originalfast12_score_d.
     713                    ;----------------------------------------------------------------------
     714                    ;  45 | originalfast12_score_getTestParams(&prm, &test_cases);                 
     715                    ;----------------------------------------------------------------------
TMS320C6x Assembler PC v7.4.2 Thu Mar 19 12:44:14 2015

Tools Copyright (c) 1996-2012 Texas Instruments Incorporated
package/lib/Regression/regress_d_c/./../packages/ti/vlib/src/VLIB_originalfast12_score/VLIB_originalfast12_score_d.se66 PAGE   14

     716 00000028           $C$RL0:    ; CALL OCCURS {originalfast12_score_getTestParams} {0}  ; |45| 
     717                    ;** --------------------------------------------------------------------------*
     718                    ;          EXCLUSIVE CPU CYCLES: 8
     719 00000028 0200002a!            MVKL    .S2     $C$SL1+0,B4
     720 0000002c 0200006a!            MVKH    .S2     $C$SL1+0,B4
     721                    $C$DW$134       .dwtag  DW_TAG_TI_branch
     722                            .dwattr $C$DW$134, DW_AT_low_pc(0x00)
     723                            .dwattr $C$DW$134, DW_AT_name("VLIB_profile_init")
     724                            .dwattr $C$DW$134, DW_AT_TI_call
     725                    
     726 00000030 10000013!            CALLP   .S2     VLIB_profile_init,B3
     727 00000034     4626  ||         MVK     .L1     0x2,A4            ; |48| 
     728                    
     729                            .dwpsn  file "./../packages/ti/vlib/src/VLIB_originalfast12_score/VLIB_originalfast12_score_d.
     730                    ;----------------------------------------------------------------------
     731                    ;  48 | VLIB_profile_init(2, "VLIB_originalfast12_score");                     
     732                    ;----------------------------------------------------------------------
     733 00000036           $C$RL1:    ; CALL OCCURS {VLIB_profile_init} {0}  ; |48| 
     734                    ;** --------------------------------------------------------------------------*
     735                    ;          EXCLUSIVE CPU CYCLES: 13
     736                    ;**     -----------------------    U$13 = prm-32;
     737                    ;**     -----------------------    K$23 = 369696u;
     738                    ;**     -----------------------    K$146 = &desc[0];
     739                    ;**     -----------------------    U$12 = 0;
     740                    ;** 51  -----------------------    tpi = 0;
     741                    ;**     -----------------------    #pragma LOOP_FLAGS(5120u)
     742                    
     743 00000036     fcdd             LDW     .D2T2   *+SP(28),B5
     744 00000038     8507  ||         MV      .L2     B10,B4
     745                    
     746                            .dwpsn  file "./../packages/ti/vlib/src/VLIB_originalfast12_score/VLIB_originalfast12_score_d.
     747                    ;----------------------------------------------------------------------
     748                    ;  51 | for( tpi=0; tpi < test_cases; tpi++ ) {                                
     749                    ;----------------------------------------------------------------------
     750 0000003a     104d             LDW     .D2T2   *B4,B4            ; |51| 
     751                            .dwpsn  file "./../packages/ti/vlib/src/VLIB_originalfast12_score/VLIB_originalfast12_score_d.
     752                    ;----------------------------------------------------------------------
     753                    ;  54 | int32_t    status_nat_vs_int = vlib_KERNEL_PASS; /* Test status : Natur
     754                    ;     | al c vs. Optimized */                                                  
     755                    ;  55 | int32_t    status_nat_vs_ref = vlib_KERNEL_PASS; /* Test status : Natur
     756                    ;     | al c vs. Static Reference */                                           
     757                    ;  61 | //uint32_t    nfeatures = CORB_MAX_FEATURES;           /* Typical in pr
     758                    ;     | oduction */                                                            
     759                    ;  62 | uint32_t    nfeatures = prm[tpi].true_num_features;   /* Used for the s
     760                    ;     | ake of this test for memory savings */                                 
     761                    ;----------------------------------------------------------------------
     762 00000040 0600a35a             ZERO    .L2     B12               ; |51| 
     763 00000044 02001028             MVK     .S1     32,A4
     764 00000048 0580a35a             ZERO    .L2     B11               ; |51| 
     765 0000004c 0690b2f8             SUB     .L1X    B5,A4,A13
     766                    
     767 00000050 00100adb             CMPGT   .L2     B4,0,B0           ; |51| 
     768 00000054 06801050  ||         ADDK    .S1     32,A13            ; |62| 
     769                    
     770 00000058 31b52121     [!B0]   BNOP    .S1     $C$L25,1          ; |51| 
TMS320C6x Assembler PC v7.4.2 Thu Mar 19 12:44:14 2015

Tools Copyright (c) 1996-2012 Texas Instruments Incorporated
package/lib/Regression/regress_d_c/./../packages/ti/vlib/src/VLIB_originalfast12_score/VLIB_originalfast12_score_d.se66 PAGE   15

     771 0000005c 2534a265  || [ B0]   LDW     .D1T1   *+A13(20),A10     ; |62| 
     772 00000060 2328a358  || [ B0]   MVK     .L1     0xa,A6            ; |65| 
     773                    
     774                            .dwpsn  file "./../packages/ti/vlib/src/VLIB_originalfast12_score/VLIB_originalfast12_score_d.
     775                    ;----------------------------------------------------------------------
     776                    ;  65 | const CORBParameters    orbParams = getCORBParameters(prm[tpi].imageWid
     777                    ;     | th, prm[tpi].imageHeight, 10, prm[tpi].fastDifferenceThreshold, nfeatur
     778                    ;     | es);                                                                   
     779                    ;----------------------------------------------------------------------
     780 00000064 22352206     [ B0]   LDHU    .D1T2   *+A13(18),B4      ; |65| 
     781 00000068 23370216     [ B0]   LDBU    .D1T2   *+A13(24),B6      ; |65| 
     782 0000006c 22350204     [ B0]   LDHU    .D1T1   *+A13(16),A4      ; |65| 
     783 00000070 04280fd8             MV      .L1     A10,A8            ; |65| 
     784                            .dwpsn  file "./../packages/ti/vlib/src/VLIB_originalfast12_score/VLIB_originalfast12_score_d.
     785                               ; BRANCHCC OCCURS {$C$L25}        ; |51| 
     786                    ;** --------------------------------------------------------------------------*
     787                    ;**   BEGIN LOOP $C$L1
     788                    ;** --------------------------------------------------------------------------*
     789 00000074           $C$L1:    
     790                            .dwpsn  file "./../packages/ti/vlib/src/VLIB_originalfast12_score/VLIB_originalfast12_score_d.
     791 00000074           $C$DW$L$VLIB_originalfast12_score_d$4$B:
     792                    ;          EXCLUSIVE CPU CYCLES: 6
     793                    ;**     -----------------------g3:
     794                    ;** 62  -----------------------    nfeatures = (*(U$13 += 32)).true_num_features;
     795                    ;** 65  -----------------------    orbParams = getCORBParameters((int)(*U$13).imageWidth, (int)(*U$13)
     796                    ;** 69  -----------------------    orbInput = (struct $fake5 *)malloc(K$23);
     797                    ;** 70  -----------------------    orbOutput = (struct $fake6 *)VLIB_malloc(8u);
     798                    ;** 71  -----------------------    orbOutput_cn = (struct $fake6 *)malloc(8u);
     799                    ;** 73  -----------------------    if ( !((orbInput == NULL)|(orbOutput == NULL)|(orbOutput_cn == NULL
     800                    ;** 83  -----------------------    dummyPtr = NULL;
     801                    ;** 83  -----------------------    goto g6;
     802                            .dwpsn  file "./../packages/ti/vlib/src/VLIB_originalfast12_score/VLIB_originalfast12_score_d.
     803                    ;----------------------------------------------------------------------
     804                    ;  68 | uint32_t    *dummyPtr      = (uint32_t *)1;                            
     805                    ;----------------------------------------------------------------------
     806                    $C$DW$135       .dwtag  DW_TAG_TI_branch
     807                            .dwattr $C$DW$135, DW_AT_low_pc(0x00)
     808                            .dwattr $C$DW$135, DW_AT_name("getCORBParameters")
     809                            .dwattr $C$DW$135, DW_AT_TI_call
     810 00000074 00000010!            CALL    .S1     getCORBParameters ; |65| 
     811 00000078 01886162             ADDKPC  .S2     $C$RL2,B3,3       ; |65| 
     812 0000007c 118008fc             ADDAW   .D1X    SP,8,A3           ; |65| 
     813 00000080           $C$RL2:    ; CALL OCCURS {getCORBParameters} {0}  ; |65| 
     814 00000080           $C$DW$L$VLIB_originalfast12_score_d$4$E:
     815                    ;** --------------------------------------------------------------------------*
     816 00000080           $C$DW$L$VLIB_originalfast12_score_d$5$B:
     817                    ;          EXCLUSIVE CPU CYCLES: 19
     818 00000080 02521028             MVKL    .S1     0x5a420,A4
     819                    $C$DW$136       .dwtag  DW_TAG_TI_branch
     820                            .dwattr $C$DW$136, DW_AT_low_pc(0x00)
     821                            .dwattr $C$DW$136, DW_AT_name("malloc")
     822                            .dwattr $C$DW$136, DW_AT_TI_call
     823                    
     824 00000084 10000013!            CALLP   .S2     malloc,B3
     825 00000088 020002e8  ||         MVKH    .S1     0x5a420,A4
TMS320C6x Assembler PC v7.4.2 Thu Mar 19 12:44:14 2015

Tools Copyright (c) 1996-2012 Texas Instruments Incorporated
package/lib/Regression/regress_d_c/./../packages/ti/vlib/src/VLIB_originalfast12_score/VLIB_originalfast12_score_d.se66 PAGE   16

     826                    
     827                            .dwpsn  file "./../packages/ti/vlib/src/VLIB_originalfast12_score/VLIB_originalfast12_score_d.
     828                    ;----------------------------------------------------------------------
     829                    ;  69 | CORBInput    *orbInput      = (CORBInput  *) malloc(sizeof(CORBInput));
     830                    ;----------------------------------------------------------------------
     831                    $C$RL3:    ; CALL OCCURS {malloc} {0}        ; |69| 
     832                    $C$DW$137       .dwtag  DW_TAG_TI_branch
     833                            .dwattr $C$DW$137, DW_AT_low_pc(0x00)
     834                            .dwattr $C$DW$137, DW_AT_name("VLIB_malloc")
     835                            .dwattr $C$DW$137, DW_AT_TI_call
     836                    
     837 0000008c 10000013!            CALLP   .S2     VLIB_malloc,B3
     838 00000090     edc5  ||         STW     .D2T1   A4,*+SP(60)       ; |69| 
     839 00000092     0e26  ||         MVK     .L1     0x8,A4            ; |70| 
     840                    
     841                            .dwpsn  file "./../packages/ti/vlib/src/VLIB_originalfast12_score/VLIB_originalfast12_score_d.
     842                    ;----------------------------------------------------------------------
     843                    ;  70 | CORBOutput   *orbOutput     = (CORBOutput *) VLIB_malloc(sizeof(CORBOut
     844                    ;     | put));                                                                 
     845                    ;----------------------------------------------------------------------
     846                    $C$RL4:    ; CALL OCCURS {VLIB_malloc} {0}   ; |70| 
     847                    $C$DW$138       .dwtag  DW_TAG_TI_branch
     848                            .dwattr $C$DW$138, DW_AT_low_pc(0x00)
     849                            .dwattr $C$DW$138, DW_AT_name("malloc")
     850                            .dwattr $C$DW$138, DW_AT_TI_call
     851                    
     852 00000094 10000013!            CALLP   .S2     malloc,B3
     853 00000098     8e45  ||         STW     .D2T1   A4,*+SP(64)       ; |70| 
     854 0000009a     0e26  ||         MVK     .L1     0x8,A4            ; |71| 
     855                    
     856                            .dwpsn  file "./../packages/ti/vlib/src/VLIB_originalfast12_score/VLIB_originalfast12_score_d.
     857                    ;----------------------------------------------------------------------
     858                    ;  71 | CORBOutput   *orbOutput_cn  = (CORBOutput *) malloc(sizeof(CORBOutput))
     859                    ;     | ;                                                                      
     860                    ;----------------------------------------------------------------------
     861 000000a0           $C$RL5:    ; CALL OCCURS {malloc} {0}        ; |71| 
     862 000000a0           $C$DW$L$VLIB_originalfast12_score_d$5$E:
     863                    ;** --------------------------------------------------------------------------*
     864 000000a0           $C$DW$L$VLIB_originalfast12_score_d$6$B:
     865                    ;          EXCLUSIVE CPU CYCLES: 15
     866                    
     867 000000a0     06a7             ZERO    .L2     B5                ; |73| 
     868 000000a2     2246  ||         MV      .L1     A4,A1             ; |73| 
     869 000000a4     0213  ||         ZERO    .S2     B4                ; |73| 
     870 000000a6     8e0d  ||         LDW     .D2T1   *+SP(64),A0       ; |73| 
     871                    
     872                            .dwpsn  file "./../packages/ti/vlib/src/VLIB_originalfast12_score/VLIB_originalfast12_score_d.
     873                    ;----------------------------------------------------------------------
     874                    ;  73 | if( orbInput && orbOutput && orbOutput_cn ) {                          
     875                    ;----------------------------------------------------------------------
     876 000000a8     edad             LDW     .D2T1   *+SP(60),A2       ; |73| 
     877 000000aa     05a6             ZERO    .L1     A3                ; |73| 
     878 000000ac 9204a35a     [!A1]   MVK     .L2     0x1,B4            ; |73| 
     879                            .dwpsn  file "./../packages/ti/vlib/src/VLIB_originalfast12_score/VLIB_originalfast12_score_d.
     880 000000b0     ae45             STW     .D2T1   A4,*+SP(68)       ; |71| 
TMS320C6x Assembler PC v7.4.2 Thu Mar 19 12:44:14 2015

Tools Copyright (c) 1996-2012 Texas Instruments Incorporated
package/lib/Regression/regress_d_c/./../packages/ti/vlib/src/VLIB_originalfast12_score/VLIB_originalfast12_score_d.se66 PAGE   17

     881                            .dwpsn  file "./../packages/ti/vlib/src/VLIB_originalfast12_score/VLIB_originalfast12_score_d.
     882                    ;----------------------------------------------------------------------
     883                    ;  74 | orbInput->prefimage         = (uint8_t *) VLIB_malloc(prm[tpi].imageWid
     884                    ;     | th * prm[tpi].imageHeight * sizeof(uint8_t));                          
     885                    ;  76 | orbOutput->n_features       = prm[tpi].true_num_features;              
     886                    ;  77 | orbOutput->features         = (CORBFeature *) VLIB_malloc((nfeatures) *
     887                    ;     |  sizeof(CORBFeature));                                                 
     888                    ;  79 | orbOutput_cn->n_features    = prm[tpi].true_num_features;              
     889                    ;  80 | orbOutput_cn->features      = (CORBFeature *) malloc((nfeatures) * size
     890                    ;     | of(CORBFeature));                                                      
     891                    ;  82 | } else {                                                               
     892                    ;----------------------------------------------------------------------
     893 000000b2     69e6     [!A0]   MVK     .L1     0x1,A3            ; |73| 
     894 000000b4 b284a35a     [!A2]   MVK     .L2     0x1,B5            ; |73| 
     895 000000b8 028cbffa             OR      .L2X    A3,B5,B5          ; |73| 
     896 000000c0     86a9             OR      .L2     B4,B5,B0          ; |73| 
     897                    
     898 000000c4 20001211     [ B0]   B       .S1     $C$L2             ; |83| 
     899 000000c2     8a67  || [ B0]   ZERO    .L2     B4                ; |83| 
     900 000000c8 31b50204  || [!B0]   LDHU    .D1T1   *+A13(16),A3      ; |74| 
     901                    
     902 000000cc 223dc2f7     [ B0]   STW     .D2T2   B4,*+SP(56)       ; |83| 
     903 000000d0 32352204  || [!B0]   LDHU    .D1T1   *+A13(18),A4      ; |74| 
     904                    
     905                    $C$DW$139       .dwtag  DW_TAG_TI_branch
     906                            .dwattr $C$DW$139, DW_AT_low_pc(0x00)
     907                            .dwattr $C$DW$139, DW_AT_name("VLIB_malloc")
     908                            .dwattr $C$DW$139, DW_AT_TI_call
     909                    
     910 000000d4 30000011!    [!B0]   CALL    .S1     VLIB_malloc       ; |74| 
     911 000000d8 203dc2e4  || [ B0]   LDW     .D2T1   *+SP(56),A0
     912                    
     913 000000e0 00004000             NOP             3
     914                            .dwpsn  file "./../packages/ti/vlib/src/VLIB_originalfast12_score/VLIB_originalfast12_score_d.
     915                    ;----------------------------------------------------------------------
     916                    ;  83 | dummyPtr = NULL;                                                       
     917                    ;----------------------------------------------------------------------
     918                               ; BRANCHCC OCCURS {$C$L2}         ; |83| 
     919 000000e4           $C$DW$L$VLIB_originalfast12_score_d$6$E:
     920                    ;** --------------------------------------------------------------------------*
     921                            .dwpsn  file "./../packages/ti/vlib/src/VLIB_originalfast12_score/VLIB_originalfast12_score_d.
     922 000000e4           $C$DW$L$VLIB_originalfast12_score_d$7$B:
     923                    ;          EXCLUSIVE CPU CYCLES: 2
     924                    ;**     -----------------------g5:
     925                    ;** 74  -----------------------    (*orbInput).prefimage = VLIB_malloc((unsigned)((*U$13).imageWidth*(
     926                    ;** 76  -----------------------    (*orbOutput).n_features = (*U$13).true_num_features;
     927                    ;** 77  -----------------------    C$16 = nfeatures*56u;
     928                    ;** 77  -----------------------    (*orbOutput).features = (struct $fake1 *)VLIB_malloc(C$16);
     929                    ;** 79  -----------------------    (*orbOutput_cn).n_features = (*U$13).true_num_features;
     930                    ;** 80  -----------------------    (*orbOutput_cn).features = (struct $fake1 *)malloc(C$16);
     931                    ;** 68  -----------------------    dummyPtr = (unsigned *)0x1u;
     932                            .dwpsn  file "./../packages/ti/vlib/src/VLIB_originalfast12_score/VLIB_originalfast12_score_d.
     933 000000e4 020c8f80             MPYU    .M1     A4,A3,A4          ; |74| 
     934 000000e8 01830162             ADDKPC  .S2     $C$RL6,B3,0       ; |74| 
     935 000000ec           $C$RL6:    ; CALL OCCURS {VLIB_malloc} {0}   ; |74| 
TMS320C6x Assembler PC v7.4.2 Thu Mar 19 12:44:14 2015

Tools Copyright (c) 1996-2012 Texas Instruments Incorporated
package/lib/Regression/regress_d_c/./../packages/ti/vlib/src/VLIB_originalfast12_score/VLIB_originalfast12_score_d.se66 PAGE   18

     936 000000ec           $C$DW$L$VLIB_originalfast12_score_d$7$E:
     937                    ;** --------------------------------------------------------------------------*
     938 000000ec           $C$DW$L$VLIB_originalfast12_score_d$8$B:
     939                    ;          EXCLUSIVE CPU CYCLES: 36
     940 000000ec 01bde2e4             LDW     .D2T1   *+SP(60),A3
     941 000000f0 02b481a8             MVKL    .S1     0x16903,A5
     942 000000f4 028000e8             MVKH    .S1     0x16903,A5
     943                            .dwpsn  file "./../packages/ti/vlib/src/VLIB_originalfast12_score/VLIB_originalfast12_score_d.
     944 000000f8 02287ca2             SHL     .S2X    A10,3,B4          ; |77| 
     945 000000fc 02a8dca2             SHL     .S2X    A10,6,B5          ; |77| 
     946                            .dwpsn  file "./../packages/ti/vlib/src/VLIB_originalfast12_score/VLIB_originalfast12_score_d.
     947 00000100 020caa74             STW     .D1T1   A4,*+A3[A5]       ; |74| 
     948                            .dwpsn  file "./../packages/ti/vlib/src/VLIB_originalfast12_score/VLIB_originalfast12_score_d.
     949 00000104 0234a264             LDW     .D1T1   *+A13(20),A4      ; |76| 
     950                            .dwpsn  file "./../packages/ti/vlib/src/VLIB_originalfast12_score/VLIB_originalfast12_score_d.
     951 00000108 01be02e4             LDW     .D2T1   *+SP(64),A3       ; |77| 
     952 0000010c 0510a0fa             SUB     .L2     B5,B4,B10         ; |77| 
     953 00000110     4c6e             NOP             3
     954                    $C$DW$140       .dwtag  DW_TAG_TI_branch
     955                            .dwattr $C$DW$140, DW_AT_low_pc(0x00)
     956                            .dwattr $C$DW$140, DW_AT_name("VLIB_malloc")
     957                            .dwattr $C$DW$140, DW_AT_TI_call
     958                    
     959 00000118 10000012!            CALLP   .S2     VLIB_malloc,B3
     960 00000114 020c2275  ||         STW     .D1T1   A4,*+A3(4)        ; |76| 
     961 00000112     9506  ||         MV      .L1X    B10,A4            ; |77| 
     962                    
     963 00000120           $C$RL7:    ; CALL OCCURS {VLIB_malloc} {0}   ; |77| 
     964 00000120     8e3d             LDW     .D2T1   *+SP(64),A3       ; |77| 
     965 00000122     6c6e             NOP             4
     966 00000124 020c0274             STW     .D1T1   A4,*A3            ; |77| 
     967 00000128 01be22e4             LDW     .D2T1   *+SP(68),A3
     968                            .dwpsn  file "./../packages/ti/vlib/src/VLIB_originalfast12_score/VLIB_originalfast12_score_d.
     969 0000012c 0234a264             LDW     .D1T1   *+A13(20),A4      ; |79| 
     970 00000130     6c6e             NOP             4
     971                    $C$DW$141       .dwtag  DW_TAG_TI_branch
     972                            .dwattr $C$DW$141, DW_AT_low_pc(0x00)
     973                            .dwattr $C$DW$141, DW_AT_name("malloc")
     974                            .dwattr $C$DW$141, DW_AT_TI_call
     975                    
     976 00000138 10000012!            CALLP   .S2     malloc,B3
     977 00000134 020c2275  ||         STW     .D1T1   A4,*+A3(4)        ; |79| 
     978 00000132     9506  ||         MV      .L1X    B10,A4            ; |80| 
     979                    
     980                            .dwpsn  file "./../packages/ti/vlib/src/VLIB_originalfast12_score/VLIB_originalfast12_score_d.
     981 00000140           $C$RL8:    ; CALL OCCURS {malloc} {0}        ; |80| 
     982 00000140           $C$DW$L$VLIB_originalfast12_score_d$8$E:
     983                    ;** --------------------------------------------------------------------------*
     984 00000140           $C$DW$L$VLIB_originalfast12_score_d$9$B:
     985                    ;          EXCLUSIVE CPU CYCLES: 6
     986                    
     987 00000140     ae3d             LDW     .D2T1   *+SP(68),A3       ; |80| 
     988 00000142     2627  ||         MVK     .L2     0x1,B4            ; |68| 
     989                    
     990 00000144     ddc5             STW     .D2T2   B4,*+SP(56)       ; |80| 
TMS320C6x Assembler PC v7.4.2 Thu Mar 19 12:44:14 2015

Tools Copyright (c) 1996-2012 Texas Instruments Incorporated
package/lib/Regression/regress_d_c/./../packages/ti/vlib/src/VLIB_originalfast12_score/VLIB_originalfast12_score_d.se66 PAGE   19

     991 00000146     cd8d             LDW     .D2T1   *+SP(56),A0
     992 00000148 00002000             NOP             2
     993 0000014c 020c0274             STW     .D1T1   A4,*A3            ; |80| 
     994 00000150           $C$DW$L$VLIB_originalfast12_score_d$9$E:
     995                    ;** --------------------------------------------------------------------------*
     996 00000150           $C$L2:    
     997                            .dwpsn  file "./../packages/ti/vlib/src/VLIB_originalfast12_score/VLIB_originalfast12_score_d.
     998 00000150           $C$DW$L$VLIB_originalfast12_score_d$10$B:
     999                    ;          EXCLUSIVE CPU CYCLES: 7
    1000                    ;**     -----------------------g6:
    1001                    ;** 87  -----------------------    if ( dummyPtr == NULL ) goto g32;
    1002 00000150 01be02e4             LDW     .D2T1   *+SP(64),A3
    1003                    
    1004 00000154 d2866121     [!A0]   BNOP    .S1     $C$L21,3          ; |87| 
    1005 00000158 d83ce2e6  || [!A0]   LDW     .D2T2   *+SP(28),B16
    1006                    
    1007                            .dwpsn  file "./../packages/ti/vlib/src/VLIB_originalfast12_score/VLIB_originalfast12_score_d.
    1008                    ;----------------------------------------------------------------------
    1009                    ;  87 | if( dummyPtr && orbOutput->features && orbOutput_cn->features && orbInp
    1010                    ;     | ut->prefimage ) {                                                      
    1011                    ;  89 |     int32_t    fail;                                                   
    1012                    ;  90 |     int32_t    i;                                                      
    1013                    ;----------------------------------------------------------------------
    1014 00000160 c10c0264     [ A0]   LDW     .D1T1   *A3,A2            ; |87| 
    1015 00000164     0c6e             NOP             1
    1016                               ; BRANCHCC OCCURS {$C$L21}        ; |87| 
    1017 00000166           $C$DW$L$VLIB_originalfast12_score_d$10$E:
    1018                    ;** --------------------------------------------------------------------------*
    1019 00000166           $C$DW$L$VLIB_originalfast12_score_d$11$B:
    1020                    ;          EXCLUSIVE CPU CYCLES: 9
    1021                    ;** 87  -----------------------    C$15 = (*orbOutput).features;
    1022                    ;** 87  -----------------------    if ( C$15 == NULL ) goto g31;
    1023 00000166     ae3d             LDW     .D2T1   *+SP(68),A3
    1024 00000168 00002000             NOP             2
    1025                    
    1026 0000016c b0009c11     [!A2]   B       .S1     $C$L20            ; |87| 
    1027 00000170 b83ce2e6  || [!A2]   LDW     .D2T2   *+SP(28),B16
    1028                    
    1029 00000174 b0009f10     [!A2]   B       .S1     $C$L22
    1030 00000178 a00c0264     [ A2]   LDW     .D1T1   *A3,A0            ; |87| 
    1031 00000180 00004000             NOP             3
    1032                               ; BRANCHCC OCCURS {$C$L20}        ; |87| 
    1033 00000184           $C$DW$L$VLIB_originalfast12_score_d$11$E:
    1034                    ;** --------------------------------------------------------------------------*
    1035 00000184           $C$DW$L$VLIB_originalfast12_score_d$12$B:
    1036                    ;          EXCLUSIVE CPU CYCLES: 20
    1037                    ;** 87  -----------------------    C$14 = (*orbOutput_cn).features;
    1038                    ;** 87  -----------------------    if ( C$14 == NULL ) goto g30;
    1039                    ;** 87  -----------------------    v$1 = prm;
    1040                    ;** 87  -----------------------    U$40 = (*orbInput).prefimage;
    1041                    ;** 87  -----------------------    if ( U$40 == NULL ) goto g33;
    1042 00000184 07b481a8             MVKL    .S1     0x16903,A15
    1043 00000188 c1bde2e4     [ A0]   LDW     .D2T1   *+SP(60),A3
    1044 0000018c 078000e8             MVKH    .S1     0x16903,A15
    1045 00000190 c83ce2e6     [ A0]   LDW     .D2T2   *+SP(28),B16      ; |87| 
TMS320C6x Assembler PC v7.4.2 Thu Mar 19 12:44:14 2015

Tools Copyright (c) 1996-2012 Texas Instruments Incorporated
package/lib/Regression/regress_d_c/./../packages/ti/vlib/src/VLIB_originalfast12_score/VLIB_originalfast12_score_d.se66 PAGE   20

    1046 00000194 d83ce2e6     [!A0]   LDW     .D2T2   *+SP(28),B16
    1047 00000198 00000000             NOP             1
    1048 0000019c c70dea64     [ A0]   LDW     .D1T1   *+A3[A15],A14     ; |87| 
    1049 000001a0     6c6e             NOP             4
    1050 000001a2     2706             MV      .L1     A14,A1
    1051 000001a4     48e6     [!A0]   ZERO    .L1     A1
    1052 000001a6     0c6e             NOP             1
    1053                    
    1054 000001ac     10c7             MV      .L2X    A1,B0             ; branch predicate copy
    1055 000001a8 90009911  || [!A1]   B       .S1     $C$L23            ; |87| 
    1056                    
    1057 000001b0 3232007b     [!B0]   ADD     .L2     B16,B12,B4        ; |156| 
    1058 000001ae     30cf  ||         MV      .S2X    A1,B1             ; branch predicate copy
    1059 000001b4 80b4a264  || [ A1]   LDW     .D1T1   *+A13(20),A1      ; |93| 
    1060                    
    1061                    $C$DW$142       .dwtag  DW_TAG_TI_branch
    1062                            .dwattr $C$DW$142, DW_AT_low_pc(0x00)
    1063                            .dwattr $C$DW$142, DW_AT_name("sprintf")
    1064                            .dwattr $C$DW$142, DW_AT_TI_call
    1065                    
    1066 000001b8 50000011!    [!B1]   CALL    .S1     sprintf           ; |156| 
    1067 000001c0 5210a2e6  || [!B1]   LDW     .D2T2   *+B4(20),B4       ; |156| 
    1068                    
    1069 000001c4 32000028!    [!B0]   MVKL    .S1     desc,A4
    1070 000001c8 3280002a!    [!B0]   MVKL    .S2     $C$SL4+0,B5
    1071 000001cc 5280006a!    [!B1]   MVKH    .S2     $C$SL4+0,B5
    1072                               ; BRANCHCC OCCURS {$C$L23}        ; |87| 
    1073 000001d0           $C$DW$L$VLIB_originalfast12_score_d$12$E:
    1074                    ;** --------------------------------------------------------------------------*
    1075 000001d0           $C$DW$L$VLIB_originalfast12_score_d$13$B:
    1076                    ;          EXCLUSIVE CPU CYCLES: 6
    1077                    ;**     -----------------------    K$91 = 128;
    1078                    ;** 93  -----------------------    if ( !(*U$13).true_num_features ) goto g13;
    1079                    
    1080 000001d0 022caca3             SHL     .S2     B11,5,B4
    1081 000001d4 90000d10  || [!A1]   B       .S1     $C$L6             ; |93| 
    1082                    
    1083 000001d8 0212007a             ADD     .L2     B16,B4,B4
    1084 000001dc 829042e6     [ A1]   LDW     .D2T2   *+B4(8),B5
    1085 000001e0 0480402a             MVK     .S2     0x80,B9
    1086 000001e4     2c6e             NOP             2
    1087                            .dwpsn  file "./../packages/ti/vlib/src/VLIB_originalfast12_score/VLIB_originalfast12_score_d.
    1088                    ;----------------------------------------------------------------------
    1089                    ;  93 | for( i=0; i < prm[tpi].true_num_features; i++ ) {                      
    1090                    ;----------------------------------------------------------------------
    1091                               ; BRANCHCC OCCURS {$C$L6}         ; |93| 
    1092 000001e6           $C$DW$L$VLIB_originalfast12_score_d$13$E:
    1093                    ;** --------------------------------------------------------------------------*
    1094 000001e6           $C$DW$L$VLIB_originalfast12_score_d$14$B:
    1095                    ;          EXCLUSIVE CPU CYCLES: 2
    1096                    ;**     -----------------------    C$13 = (tpi<<5)+v$1;
    1097                    ;**     -----------------------    U$68 = (*C$13).staticInFeatures-4;
    1098                    ;**     -----------------------    U$71 = C$15;
    1099                    ;**     -----------------------    U$74 = C$14;
    1100                    ;**     -----------------------    U$83 = (*C$13).true_num_features;
TMS320C6x Assembler PC v7.4.2 Thu Mar 19 12:44:14 2015

Tools Copyright (c) 1996-2012 Texas Instruments Incorporated
package/lib/Regression/regress_d_c/./../packages/ti/vlib/src/VLIB_originalfast12_score/VLIB_originalfast12_score_d.se66 PAGE   21

    1101                    ;**     -----------------------    T$3 = 0u;
    1102                    ;**     -----------------------    #pragma MUST_ITERATE(1, 4294967295, 1)
    1103                    ;**     -----------------------    #pragma LOOP_FLAGS(0u)
    1104                    ;**     -----------------------g12:
    1105                    ;** 94  -----------------------    (*U$71).x = *(U$68 += 2);
    1106                    ;** 95  -----------------------    (*U$74).x = *U$68;
    1107                    ;** 96  -----------------------    (*U$71++{56}).y = U$68[1];
    1108                    ;** 97  -----------------------    (*U$74++{56}).y = U$68[1];
    1109                    ;** 93  -----------------------    if ( (++T$3) < U$83 ) goto g12;
    1110                    
    1111 000001e6     b07d             LDW     .D2T2   *+B4(20),B7
    1112 000001e8     0627  ||         ZERO    .L2     B4
    1113 000001ea     d14f  ||         MV      .S2X    A2,B6
    1114 000001ec     a046  ||         MV      .L1     A0,A5
    1115                    
    1116 000001ee     9ee0             SUB     .L1X    B5,4,A6
    1117 000001f0           $C$DW$L$VLIB_originalfast12_score_d$14$E:
    1118                    ;*----------------------------------------------------------------------------*
    1119                    ;*   SOFTWARE PIPELINE INFORMATION
    1120                    ;*
    1121                    ;*      Loop found in file               : ./../packages/ti/vlib/src/VLIB_originalfast12_score/VLIB_or
    1122                    ;*      Loop source line                 : 93
    1123                    ;*      Loop opening brace source line   : 93
    1124                    ;*      Loop closing brace source line   : 98
    1125                    ;*      Known Minimum Trip Count         : 1                    
    1126                    ;*      Known Max Trip Count Factor      : 1
    1127                    ;*      Loop Carried Dependency Bound(^) : 24
    1128                    ;*      Unpartitioned Resource Bound     : 5
    1129                    ;*      Partitioned Resource Bound(*)    : 6
    1130                    ;*      Resource Partition:
    1131                    ;*                                A-side   B-side
    1132                    ;*      .L units                     1        0     
    1133                    ;*      .S units                     1        1     
    1134                    ;*      .D units                     6*       3     
    1135                    ;*      .M units                     0        0     
    1136                    ;*      .X cross paths               0        0     
    1137                    ;*      .T address paths             4        4     
    1138                    ;*      Long read paths              0        0     
    1139                    ;*      Long write paths             0        0     
    1140                    ;*      Logical  ops (.LS)           0        0     (.L or .S unit)
    1141                    ;*      Addition ops (.LSD)          2        1     (.L or .S or .D unit)
    1142                    ;*      Bound(.L .S .LS)             1        1     
    1143                    ;*      Bound(.L .S .D .LS .LSD)     4        2     
    1144                    ;*
    1145                    ;*      Searching for software pipeline schedule at ...
    1146                    ;*         ii = 24 Schedule found with 1 iterations in parallel
    1147                    ;*
    1148                    ;*      Register Usage Table:
    1149                    ;*          +-----------------------------------------------------------------+
    1150                    ;*          |AAAAAAAAAAAAAAAAAAAAAAAAAAAAAAAA|BBBBBBBBBBBBBBBBBBBBBBBBBBBBBBBB|
    1151                    ;*          |00000000001111111111222222222233|00000000001111111111222222222233|
    1152                    ;*          |01234567890123456789012345678901|01234567890123456789012345678901|
    1153                    ;*          |--------------------------------+--------------------------------|
    1154                    ;*       0: |     **                         |    * **                        |
    1155                    ;*       1: |   ****                         |    * **                        |
TMS320C6x Assembler PC v7.4.2 Thu Mar 19 12:44:14 2015

Tools Copyright (c) 1996-2012 Texas Instruments Incorporated
package/lib/Regression/regress_d_c/./../packages/ti/vlib/src/VLIB_originalfast12_score/VLIB_originalfast12_score_d.se66 PAGE   22

    1156                    ;*       2: |   ****                         |    * **                        |
    1157                    ;*       3: |   ****                         |    * **                        |
    1158                    ;*       4: |   ****                         |    * **                        |
    1159                    ;*       5: |   ****                         |    * **                        |
    1160                    ;*       6: |    ***                         |    * **                        |
    1161                    ;*       7: |   ****                         |    * **                        |
    1162                    ;*       8: |   ****                         |    * **                        |
    1163                    ;*       9: |   ****                         |    * **                        |
    1164                    ;*      10: |   ****                         |    * **                        |
    1165                    ;*      11: |   ****                         |    * **                        |
    1166                    ;*      12: |    ***                         |    * **                        |
    1167                    ;*      13: |    ***                         |    ****                        |
    1168                    ;*      14: |    ***                         |    ****                        |
    1169                    ;*      15: |    ***                         |    ****                        |
    1170                    ;*      16: |    ***                         |    ****                        |
    1171                    ;*      17: |    ***                         |    *****                       |
    1172                    ;*      18: |    ***                         |*   * **                        |
    1173                    ;*      19: |   ****                         |    * **                        |
    1174                    ;*      20: |   ****                         |    * **                        |
    1175                    ;*      21: |   ****                         |    * **                        |
    1176                    ;*      22: |   ****                         |    * **                        |
    1177                    ;*      23: |   ****                         |    * **                        |
    1178                    ;*          +-----------------------------------------------------------------+
    1179                    ;*
    1180                    ;*      Done
    1181                    ;*
    1182                    ;*      Loop is interruptible
    1183                    ;*      Collapsed epilog stages       : 0
    1184                    ;*      Collapsed prolog stages       : 0
    1185                    ;*
    1186                    ;*      Minimum safe trip count       : 1
    1187                    ;*
    1188                    ;*
    1189                    ;*      Mem bank conflicts/iter(est.) : { min 0.000, est 0.000, max 0.000 }
    1190                    ;*      Mem bank perf. penalty (est.) : 0.0%
    1191                    ;*
    1192                    ;*
    1193                    ;*      Total cycles (est.)         : 0 + trip_cnt * 24        
    1194                    ;*----------------------------------------------------------------------------*
    1195                    ;*        SINGLE SCHEDULED ITERATION
    1196                    ;*
    1197                    ;*        $C$C186:
    1198                    ;*   0              LDHU    .D1T1   *++A6(4),A3       ; |94|  ^ 
    1199                    ;*     ||           MV      .L1     A5,A4             ; |97| 
    1200                    ;*   1              NOP             4
    1201                    ;*   5              STW     .D2T1   A3,*B6            ; |94|  ^ 
    1202                    ;*   6              LDHU    .D1T1   *A6,A3            ; |95|  ^ 
    1203                    ;*   7              NOP             4
    1204                    ;*  11              STW     .D1T1   A3,*A5            ; |95|  ^ 
    1205                    ;*  12              LDHU    .D1T2   *+A6(2),B5        ; |96|  ^ 
    1206                    ;*  13              NOP             3
    1207                    ;*  16              MV      .S2     B6,B8             ; |96| 
    1208                    ;*     ||           ADD     .L2     1,B4,B4           ; |93| 
    1209                    ;*  17              STW     .D2T2   B5,*+B8(4)        ; |96|  ^ 
    1210                    ;*     ||           CMPLTU  .L2     B4,B7,B0          ; |93| 
TMS320C6x Assembler PC v7.4.2 Thu Mar 19 12:44:14 2015

Tools Copyright (c) 1996-2012 Texas Instruments Incorporated
package/lib/Regression/regress_d_c/./../packages/ti/vlib/src/VLIB_originalfast12_score/VLIB_originalfast12_score_d.se66 PAGE   23

    1211                    ;*  18              LDHU    .D1T1   *+A6(2),A3        ; |97|  ^ 
    1212                    ;*     ||   [ B0]   B       .S2     $C$C186           ; |93| 
    1213                    ;*  19              NOP             4
    1214                    ;*  23              ADDAD   .D2     B6,7,B6           ; |96| 
    1215                    ;*     ||           ADDK    .S1     56,A5             ; |97| Define a twin register
    1216                    ;*     ||           STW     .D1T1   A3,*+A4(4)        ; |97|  ^ 
    1217                    ;*  24              ; BRANCHCC OCCURS {$C$C186}       ; |93| 
    1218                    ;*----------------------------------------------------------------------------*
    1219 000001f0           $C$L3:    ; PIPED LOOP PROLOG
    1220                    ;** --------------------------------------------------------------------------*
    1221 000001f0           $C$L4:    ; PIPED LOOP KERNEL
    1222 000001f0           $C$DW$L$VLIB_originalfast12_score_d$16$B:
    1223                    ;          EXCLUSIVE CPU CYCLES: 24
    1224                    
    1225 000001f0 02140fd9             MV      .L1     A5,A4             ; |97| <0,0> 
    1226 000001f4 01985204  ||         LDHU    .D1T1   *++A6(4),A3       ; |94| <0,0>  ^ 
    1227                    
    1228 000001f8     6c6e             NOP             4
    1229                            .dwpsn  file "./../packages/ti/vlib/src/VLIB_originalfast12_score/VLIB_originalfast12_score_d.
    1230                    ;----------------------------------------------------------------------
    1231                    ;  94 | orbOutput->features[i].x = prm[tpi].staticInFeatures[2 * i];           
    1232                    ;----------------------------------------------------------------------
    1233 000001fa     0135             STW     .D2T1   A3,*B6            ; |94| <0,5>  ^ 
    1234                            .dwpsn  file "./../packages/ti/vlib/src/VLIB_originalfast12_score/VLIB_originalfast12_score_d.
    1235                    ;----------------------------------------------------------------------
    1236                    ;  95 | orbOutput_cn->features[i].x = prm[tpi].staticInFeatures[2 * i];        
    1237                    ;----------------------------------------------------------------------
    1238 00000200     033c             LDHU    .D1T1   *A6,A3            ; |95| <0,6>  ^ 
    1239 00000202     6c6e             NOP             4
    1240 00000204     00b4             STW     .D1T1   A3,*A5            ; |95| <0,11>  ^ 
    1241                            .dwpsn  file "./../packages/ti/vlib/src/VLIB_originalfast12_score/VLIB_originalfast12_score_d.
    1242                    ;----------------------------------------------------------------------
    1243                    ;  96 | orbOutput->features[i].y = prm[tpi].staticInFeatures[2 * i + 1];       
    1244                    ;  97 | orbOutput_cn->features[i].y = prm[tpi].staticInFeatures[2 * i + 1];    
    1245                    ;----------------------------------------------------------------------
    1246 00000206     335c             LDHU    .D1T2   *+A6(2),B5        ; |96| <0,12>  ^ 
    1247 00000208     4c6e             NOP             3
    1248                    
    1249 0000020a     2641             ADD     .L2     1,B4,B4           ; |93| <0,16> 
    1250 0000020c     074f  ||         MV      .S2     B6,B8             ; |96| <0,16> 
    1251                    
    1252 0000020e     8fc9             CMPLTU  .L2     B4,B7,B0          ; |93| <0,17> 
    1253 00000210 02a022f6  ||         STW     .D2T2   B5,*+B8(4)        ; |96| <0,17>  ^ 
    1254                    
    1255 00000214 2ff88123     [ B0]   BNOP    .S2     $C$L4,4           ; |93| <0,18> 
    1256 00000218     233c  ||         LDHU    .D1T1   *+A6(2),A3        ; |97| <0,18>  ^ 
    1257                    
    1258 00000224 0318fec2             ADDAD   .D2     B6,7,B6           ; |96| <0,23> 
    1259 00000220 02801c51  ||         ADDK    .S1     56,A5             ; |97| <0,23> Define a twin register
    1260 0000021a     2034  ||         STW     .D1T1   A3,*+A4(4)        ; |97| <0,23>  ^ 
    1261                    
    1262 00000228           $C$DW$L$VLIB_originalfast12_score_d$16$E:
    1263                    ;** --------------------------------------------------------------------------*
    1264 00000228           $C$L5:    ; PIPED LOOP EPILOG
    1265                    ;** --------------------------------------------------------------------------*
TMS320C6x Assembler PC v7.4.2 Thu Mar 19 12:44:14 2015

Tools Copyright (c) 1996-2012 Texas Instruments Incorporated
package/lib/Regression/regress_d_c/./../packages/ti/vlib/src/VLIB_originalfast12_score/VLIB_originalfast12_score_d.se66 PAGE   24

    1266 00000228           $C$L6:    
    1267                            .dwpsn  file "./../packages/ti/vlib/src/VLIB_originalfast12_score/VLIB_originalfast12_score_d.
    1268 00000228           $C$DW$L$VLIB_originalfast12_score_d$18$B:
    1269                    ;          EXCLUSIVE CPU CYCLES: 13
    1270                    ;**     -----------------------g13:
    1271                    ;** 100 -----------------------    C$11 = U$12+v$1;
    1272                    ;** 100 -----------------------    C$12 = (*C$11).imageWidth;
    1273                    ;** 100 -----------------------    VLIB_fillBuffer((*C$11).testPattern, (unsigned char)K$91, U$40, (*C
    1274                    ;** 137 -----------------------    act_kernel = 0;  // [14]
    1275                    ;** 140 -----------------------    VLIB_cache_inval();  // [14]
    1276                    ;** 143 -----------------------    initStack(getSP());  // [14]
    1277                    ;** 146 -----------------------    beg_count = _itoll(TSCH, TSCL);  // [14]
    1278                    ;** 108 -----------------------    C$9 = orbParams.fastDifferenceThreshold;
    1279                    ;** 108 -----------------------    C$8 = orbParams.width;
    1280                    ;** 108 -----------------------    VLIB_originalfast12_score((*orbInput).prefimage, C$8, (*orbOutput).
    1281                    ;** 153 -----------------------    v$2 = _itoll(TSCH, TSCL);  // [15]
    1282                    ;** 153 -----------------------    end_count = v$2;  // [15]
    1283                    ;**     -----------------------    K$101 = &cycles[0];
    1284                    ;** 156 -----------------------    C$10 = act_kernel;  // [15]
    1285                    ;** 156 -----------------------    *((C$10<<3)+K$101) = *((C$10<<3)+K$101)+(v$2-(beg_count+overhead));
    1286                    ;** 159 -----------------------    setStackDepth();  // [15]
    1287                    ;** 137 -----------------------    act_kernel = 1;  // [14]
    1288                    ;** 140 -----------------------    VLIB_cache_inval();  // [14]
    1289                    ;** 143 -----------------------    initStack(getSP());  // [14]
    1290                    ;** 146 -----------------------    beg_count = _itoll(TSCH, TSCL);  // [14]
    1291                    ;** 113 -----------------------    VLIB_originalfast12_score_cn((*orbInput).prefimage, C$8, (*orbOutpu
    1292                    ;** 153 -----------------------    v$2 = _itoll(TSCH, TSCL);  // [15]
    1293                    ;** 153 -----------------------    end_count = v$2;  // [15]
    1294                    ;** 156 -----------------------    C$7 = act_kernel;  // [15]
    1295                    ;** 156 -----------------------    *((C$7<<3)+K$101) = *((C$7<<3)+K$101)+(v$2-(beg_count+overhead));  
    1296                    ;** 159 -----------------------    setStackDepth();  // [15]
    1297                            .dwpsn  file "./../packages/ti/vlib/src/VLIB_originalfast12_score/VLIB_originalfast12_score_d.
    1298                    ;----------------------------------------------------------------------
    1299                    ; 100 | VLIB_fillBuffer(prm[tpi].testPattern,                                  
    1300                    ; 101 |                 (uint8_t)128,                                          
    1301                    ; 102 |                 orbInput->prefimage, prm[tpi].staticIn,                
    1302                    ; 103 |                 prm[tpi].imageWidth, prm[tpi].imageHeight, prm[tpi].ima
    1303                    ;     | geWidth,                                                               
    1304                    ; 104 |                 sizeof(uint8_t), testPatternString);                   
    1305                    ; 107 | VLIB_profile_start(vlib_KERNEL_OPT);                                   
    1306                    ; 108 | VLIB_originalfast12_score(orbInput->prefimage, orbParams.width, orbOutp
    1307                    ;     | ut->features, orbOutput->n_features, orbParams.fastDifferenceThreshold)
    1308                    ;     | ;                                                                      
    1309                    ; 109 | VLIB_profile_stop();                                                   
    1310                    ; 112 | VLIB_profile_start(vlib_KERNEL_CN);                                    
    1311                    ; 113 | VLIB_originalfast12_score_cn(orbInput->prefimage, orbParams.width, orbO
    1312                    ;     | utput_cn->features, orbOutput_cn->n_features, orbParams.fastDifferenceT
    1313                    ;     | hreshold);                                                             
    1314                    ; 114 | VLIB_profile_stop();                                                   
    1315                    ; 117 | if(orbOutput->n_features != orbOutput_cn->n_features)                  
    1316                    ; 118 |     status_nat_vs_int = vlib_KERNEL_FAIL;                              
    1317                    ; 119 | for( i=0; i < orbOutput->n_features; i++ ) {                           
    1318                    ; 120 |     if( orbOutput->features[i].fastResponse != orbOutput_cn->features[i
    1319                    ;     | ].fastResponse ) {                                                     
    1320                    ; 121 |         status_nat_vs_int = vlib_KERNEL_FAIL;                          
TMS320C6x Assembler PC v7.4.2 Thu Mar 19 12:44:14 2015

Tools Copyright (c) 1996-2012 Texas Instruments Incorporated
package/lib/Regression/regress_d_c/./../packages/ti/vlib/src/VLIB_originalfast12_score/VLIB_originalfast12_score_d.se66 PAGE   25

    1321                    ; 122 |         if( LevelOfFeedback > 0 ) {                                    
    1322                    ; 123 |             printf(" Mismatch in Index = %u \n", i);                   
    1323                    ; 125 |         break;                                                         
    1324                    ; 130 | if( prm[tpi].staticOut != NULL ) {                                     
    1325                    ; 131 |     for( i=0; i < orbOutput->n_features; i++ ) {                       
    1326                    ; 132 |         if( orbOutput_cn->features[i].fastResponse != prm[tpi].staticOu
    1327                    ;     | t[i] ) {                                                               
    1328                    ; 133 |             status_nat_vs_ref = vlib_KERNEL_FAIL;                      
    1329                    ; 134 |             if( LevelOfFeedback > 0 ) {                                
    1330                    ; 135 |                 printf(" Mismatch in Index = %u \n", i);               
    1331                    ; 137 |             break;                                                     
    1332                    ;----------------------------------------------------------------------
    1333 00000228 0232007a             ADD     .L2     B16,B12,B4        ; |100| 
    1334 0000022c 02910286             LDHU    .D2T2   *+B4(16),B5       ; |100| 
    1335 00000230 04112286             LDHU    .D2T2   *+B4(18),B8       ; |100| 
    1336 00000234 02100294             LDBU    .D2T1   *B4,A4            ; |100| 
    1337 00000238 05800028!            MVKL    .S1     testPatternString,A11
    1338 0000023c 031022e6             LDW     .D2T2   *+B4(4),B6        ; |100| 
    1339                    
    1340 00000240 05800069!            MVKH    .S1     testPatternString,A11
    1341 00000248     56c6  ||         MV      .L1X    B5,A10            ; |100| 
    1342 00000244 0227180b  ||         EXTU    .S2     B9,24,24,B4       ; |100| 
    1343                    
    1344                    $C$DW$143       .dwtag  DW_TAG_TI_branch
    1345                            .dwattr $C$DW$143, DW_AT_low_pc(0x00)
    1346                            .dwattr $C$DW$143, DW_AT_name("VLIB_fillBuffer")
    1347                            .dwattr $C$DW$143, DW_AT_TI_call
    1348                    
    1349 0000024c 10000013!            CALLP   .S2     VLIB_fillBuffer,B3
    1350 0000024a     16c6  ||         MV      .L1X    B5,A8             ; |100| 
    1351 00000250 062c06a1  ||         MV      .S1     A11,A12           ; |100| 
    1352 00000258 033808f0  ||         MV      .D1     A14,A6            ; |100| 
    1353 00000254 0504a35b  ||         MVK     .L2     0x1,B10           ; |100| 
    1354                    
    1355 00000260           $C$RL9:    ; CALL OCCURS {VLIB_fillBuffer} {0}  ; |100| 
    1356 00000260           $C$DW$L$VLIB_originalfast12_score_d$18$E:
    1357                    ;** --------------------------------------------------------------------------*
    1358 00000260           $C$DW$L$VLIB_originalfast12_score_d$19$B:
    1359                    ;          EXCLUSIVE CPU CYCLES: 126
    1360 00000260 06000028!            MVKL    .S1     act_kernel,A12
    1361                    
    1362 00000264 06000069!            MVKH    .S1     act_kernel,A12
    1363 00000268 0200a35a  ||         ZERO    .L2     B4                ; |137| 
    1364                    
    1365                    $C$DW$144       .dwtag  DW_TAG_TI_branch
    1366                            .dwattr $C$DW$144, DW_AT_low_pc(0x00)
    1367                            .dwattr $C$DW$144, DW_AT_name("VLIB_cache_inval")
    1368                            .dwattr $C$DW$144, DW_AT_TI_call
    1369                    
    1370 0000026c 10000013!            CALLP   .S2     VLIB_cache_inval,B3
    1371 00000270 02300276  ||         STW     .D1T2   B4,*A12           ; |137| 
    1372                    
    1373                            .dwpsn  file ".\..\packages\ti\vlib\src\VLIB_originalfast12_score\..\common\VLIB_profile.h",li
    1374                    $C$RL10:   ; CALL OCCURS {VLIB_cache_inval} {0}  ; |140| 
    1375                    $C$DW$145       .dwtag  DW_TAG_TI_branch
TMS320C6x Assembler PC v7.4.2 Thu Mar 19 12:44:14 2015

Tools Copyright (c) 1996-2012 Texas Instruments Incorporated
package/lib/Regression/regress_d_c/./../packages/ti/vlib/src/VLIB_originalfast12_score/VLIB_originalfast12_score_d.se66 PAGE   26

    1376                            .dwattr $C$DW$145, DW_AT_low_pc(0x00)
    1377                            .dwattr $C$DW$145, DW_AT_name("getSP")
    1378                            .dwattr $C$DW$145, DW_AT_TI_call
    1379 00000274 10000012!            CALLP   .S2     getSP,B3
    1380                            .dwpsn  file ".\..\packages\ti\vlib\src\VLIB_originalfast12_score\..\common\VLIB_profile.h",li
    1381                    ;----------------------------------------------------------------------
    1382                    ; 143 | fail = ((status_nat_vs_int == vlib_KERNEL_FAIL) ||                     
    1383                    ; 144 |         (status_nat_vs_ref == vlib_KERNEL_FAIL)) ? 1 : 0;              
    1384                    ;----------------------------------------------------------------------
    1385                    $C$RL11:   ; CALL OCCURS {getSP} {0}         ; |143| 
    1386                    $C$DW$146       .dwtag  DW_TAG_TI_branch
    1387                            .dwattr $C$DW$146, DW_AT_low_pc(0x00)
    1388                            .dwattr $C$DW$146, DW_AT_name("initStack")
    1389                            .dwattr $C$DW$146, DW_AT_TI_call
    1390 00000278 10000012!            CALLP   .S2     initStack,B3
    1391 0000027c           $C$RL12:   ; CALL OCCURS {initStack} {0}     ; |143| 
    1392                            .dwpsn  file ".\..\packages\ti\vlib\src\VLIB_originalfast12_score\..\common\VLIB_profile.h",li
    1393                    ;----------------------------------------------------------------------
    1394                    ; 146 | est_test=1;                                                            
    1395                    ;----------------------------------------------------------------------
    1396 0000027c 032803e2             MVC     .S2     TSCL,B6           ; |146| 
    1397 00000280 022c03e2             MVC     .S2     TSCH,B4           ; |146| 
    1398 00000284 01bde2e4             LDW     .D2T1   *+SP(60),A3       ; |146| 
    1399 00000288 023481a8             MVKL    .S1     0x16903,A4
    1400 0000028c 020000e8             MVKH    .S1     0x16903,A4
    1401                            .dwpsn  file "./../packages/ti/vlib/src/VLIB_originalfast12_score/VLIB_originalfast12_score_d.
    1402 00000290 06bd02e6             LDW     .D2T2   *+SP(32),B13      ; |108| 
    1403 00000294 05002c9e             LDBU    .D2T2   *+SP(44),B10      ; |108| 
    1404 00000298 020c8a64             LDW     .D1T1   *+A3[A4],A4       ; |108| 
    1405 0000029c 01be02e4             LDW     .D2T1   *+SP(64),A3       ; |108| 
    1406 000002a0 05800028!            MVKL    .S1     beg_count,A11
    1407 000002a4 05800068!            MVKH    .S1     beg_count,A11
    1408                            .dwpsn  file ".\..\packages\ti\vlib\src\VLIB_originalfast12_score\..\common\VLIB_profile.h",li
    1409                    ;----------------------------------------------------------------------
    1410                    ; 149 | sprintf(desc, "%s generated input | Opt and NatC results compared | n_f
    1411                    ;     | eatures_12= %d, fastDifferenceThreshold= %d, %s",                      
    1412                    ; 150 |         testPatternString, orbOutput->n_features, prm[tpi].fastDifferen
    1413                    ;     | ceThreshold, prm[tpi].desc);                                           
    1414                    ; 152 | VLIB_formula_add_test(prm[tpi].true_num_features, NULL, NULL, fail, des
    1415                    ;     | c, NULL);                                                              
    1416                    ;----------------------------------------------------------------------
    1417 000002a8 03900fda             MV      .L2     B4,B7             ; |146| 
    1418 000002ac 032c0346             STDW    .D1T2   B7:B6,*A11        ; |146| 
    1419                    
    1420 000002b4     a1c6             MV      .L1     A3,A5             ; |108| 
    1421 000002b0 030c2267  ||         LDW     .D1T2   *+A3(4),B6        ; |108| 
    1422                    
    1423                    $C$DW$147       .dwtag  DW_TAG_TI_branch
    1424                            .dwattr $C$DW$147, DW_AT_low_pc(0x00)
    1425                            .dwattr $C$DW$147, DW_AT_name("VLIB_originalfast12_score")
    1426                            .dwattr $C$DW$147, DW_AT_TI_call
    1427                    
    1428 000002b8 10000013!            CALLP   .S2     VLIB_originalfast12_score,B3
    1429 000002b6     00ec  ||         LDW     .D1T1   *A5,A6            ; |108| 
    1430 000002c0 04281fd9  ||         MV      .L1X    B10,A8            ; |108| 
TMS320C6x Assembler PC v7.4.2 Thu Mar 19 12:44:14 2015

Tools Copyright (c) 1996-2012 Texas Instruments Incorporated
package/lib/Regression/regress_d_c/./../packages/ti/vlib/src/VLIB_originalfast12_score/VLIB_originalfast12_score_d.se66 PAGE   27

    1431 000002c4 02340fda  ||         MV      .L2     B13,B4            ; |108| 
    1432                    
    1433                            .dwpsn  file "./../packages/ti/vlib/src/VLIB_originalfast12_score/VLIB_originalfast12_score_d.
    1434 000002c8           $C$RL13:   ; CALL OCCURS {VLIB_originalfast12_score} {0}  ; |108| 
    1435                            .dwpsn  file ".\..\packages\ti\vlib\src\VLIB_originalfast12_score\..\common\VLIB_profile.h",li
    1436                    ;----------------------------------------------------------------------
    1437                    ; 154 | } else {                                                               
    1438                    ;----------------------------------------------------------------------
    1439 000002c8 042803e2             MVC     .S2     TSCL,B8           ; |153| 
    1440 000002cc 032c03e2             MVC     .S2     TSCH,B6           ; |153| 
    1441 000002d0 0200002a!            MVKL    .S2     overhead,B4
    1442                    
    1443 000002d4 0200006b!            MVKH    .S2     overhead,B4
    1444 000002d8 01b00264  ||         LDW     .D1T1   *A12,A3           ; |156| 
    1445                    
    1446 000002dc 021003e7             LDDW    .D2T2   *B4,B5:B4         ; |156| 
    1447 000002e0 042c0364  ||         LDDW    .D1T1   *A11,A9:A8        ; |156| 
    1448                    
    1449 000002e4 0380002a!            MVKL    .S2     cycles,B7
    1450 000002e8 0380006a!            MVKH    .S2     cycles,B7
    1451 000002ec 07800028!            MVKL    .S1     end_count,A15
    1452 000002f0 051c1fd8             MV      .L1X    B7,A10
    1453                    
    1454 000002f4 02111579             ADDU    .L1X    B4,A8,A5:A4       ; |156| 
    1455 000002f8 03286b64  ||         LDDW    .D1T1   *+A10[A3],A7:A6   ; |156| 
    1456                    
    1457                            .dwpsn  file ".\..\packages\ti\vlib\src\VLIB_originalfast12_score\..\common\VLIB_profile.h",li
    1458                    ;----------------------------------------------------------------------
    1459                    ; 156 | sprintf(desc, "n_features_12= %d",                                     
    1460                    ; 157 |         prm[tpi].true_num_features);                                   
    1461                    ; 158 | VLIB_skip_test(desc);                                                  
    1462                    ;----------------------------------------------------------------------
    1463 000002fc 0294b078             ADD     .L1X    A5,B5,A5          ; |156| 
    1464 00000300 0424a078             ADD     .L1     A5,A9,A8          ; |156| 
    1465 00000304 021117f8             SUBU    .L1X    B8,A4,A5:A4       ; |156| 
    1466 00000308 0220d0fa             SUB     .L2X    B6,A8,B4          ; |156| 
    1467                    
    1468 0000030c 0210c579             ADDU    .L1     A6,A4,A5:A4       ; |156| 
    1469 00000310     cae2  ||         EXT     .S1     A5,24,24,A6       ; |156| 
    1470                    
    1471 00000312     d260             ADD     .L1X    B4,A6,A6          ; |156| 
    1472 00000314     a3b6  ||         ADD     .D1     A5,A7,A5          ; |156| 
    1473 00000318 07800068! ||         MVKH    .S1     end_count,A15
    1474 00000316     2747  ||         MV      .L2     B6,B9             ; |153| 
    1475                    
    1476 00000320 0298a079             ADD     .L1     A5,A6,A5          ; |156| 
    1477 00000324 043c0346  ||         STDW    .D1T2   B9:B8,*A15        ; |153| 
    1478                    
    1479                    $C$DW$148       .dwtag  DW_TAG_TI_branch
    1480                            .dwattr $C$DW$148, DW_AT_low_pc(0x00)
    1481                            .dwattr $C$DW$148, DW_AT_name("setStackDepth")
    1482                            .dwattr $C$DW$148, DW_AT_TI_call
    1483                    
    1484 00000328 10000013!            CALLP   .S2     setStackDepth,B3
    1485 0000032c 02286b44  ||         STDW    .D1T1   A5:A4,*+A10[A3]   ; |156| 
TMS320C6x Assembler PC v7.4.2 Thu Mar 19 12:44:14 2015

Tools Copyright (c) 1996-2012 Texas Instruments Incorporated
package/lib/Regression/regress_d_c/./../packages/ti/vlib/src/VLIB_originalfast12_score/VLIB_originalfast12_score_d.se66 PAGE   28

    1486                    
    1487                            .dwpsn  file ".\..\packages\ti\vlib\src\VLIB_originalfast12_score\..\common\VLIB_profile.h",li
    1488 00000330           $C$RL14:   ; CALL OCCURS {setStackDepth} {0}  ; |159| 
    1489                            .dwpsn  file ".\..\packages\ti\vlib\src\VLIB_originalfast12_score\..\common\VLIB_profile.h",li
    1490 00000330 0204a35a             MVK     .L2     1,B4              ; |137| 
    1491                    $C$DW$149       .dwtag  DW_TAG_TI_branch
    1492                            .dwattr $C$DW$149, DW_AT_low_pc(0x00)
    1493                            .dwattr $C$DW$149, DW_AT_name("VLIB_cache_inval")
    1494                            .dwattr $C$DW$149, DW_AT_TI_call
    1495                    
    1496 00000334 10000013!            CALLP   .S2     VLIB_cache_inval,B3
    1497 00000338 02300276  ||         STW     .D1T2   B4,*A12           ; |137| 
    1498                    
    1499                            .dwpsn  file ".\..\packages\ti\vlib\src\VLIB_originalfast12_score\..\common\VLIB_profile.h",li
    1500                    $C$RL15:   ; CALL OCCURS {VLIB_cache_inval} {0}  ; |140| 
    1501                    $C$DW$150       .dwtag  DW_TAG_TI_branch
    1502                            .dwattr $C$DW$150, DW_AT_low_pc(0x00)
    1503                            .dwattr $C$DW$150, DW_AT_name("getSP")
    1504                            .dwattr $C$DW$150, DW_AT_TI_call
    1505 0000033c 10000012!            CALLP   .S2     getSP,B3
    1506                            .dwpsn  file ".\..\packages\ti\vlib\src\VLIB_originalfast12_score\..\common\VLIB_profile.h",li
    1507                    $C$RL16:   ; CALL OCCURS {getSP} {0}         ; |143| 
    1508                    $C$DW$151       .dwtag  DW_TAG_TI_branch
    1509                            .dwattr $C$DW$151, DW_AT_low_pc(0x00)
    1510                            .dwattr $C$DW$151, DW_AT_name("initStack")
    1511                            .dwattr $C$DW$151, DW_AT_TI_call
    1512 00000340 10000012!            CALLP   .S2     initStack,B3
    1513 00000344           $C$RL17:   ; CALL OCCURS {initStack} {0}     ; |143| 
    1514                            .dwpsn  file ".\..\packages\ti\vlib\src\VLIB_originalfast12_score\..\common\VLIB_profile.h",li
    1515 00000344 032803e2             MVC     .S2     TSCL,B6           ; |146| 
    1516 00000348 022c03e2             MVC     .S2     TSCH,B4           ; |146| 
    1517 0000034c 023e22e4             LDW     .D2T1   *+SP(68),A4       ; |146| 
    1518                            .dwpsn  file "./../packages/ti/vlib/src/VLIB_originalfast12_score/VLIB_originalfast12_score_d.
    1519 00000350 0fbde2e4             LDW     .D2T1   *+SP(60),A31      ; |113| 
    1520 00000354 01b481a8             MVKL    .S1     0x16903,A3
    1521 00000358 018000e8             MVKH    .S1     0x16903,A3
    1522                            .dwpsn  file ".\..\packages\ti\vlib\src\VLIB_originalfast12_score\..\common\VLIB_profile.h",li
    1523 0000035c 03900fda             MV      .L2     B4,B7             ; |146| 
    1524                            .dwpsn  file "./../packages/ti/vlib/src/VLIB_originalfast12_score/VLIB_originalfast12_score_d.
    1525 00000360 02902264             LDW     .D1T1   *+A4(4),A5        ; |113| 
    1526 00000364 027c6a64             LDW     .D1T1   *+A31[A3],A4      ; |113| 
    1527 00000368 01be22e4             LDW     .D2T1   *+SP(68),A3       ; |113| 
    1528                            .dwpsn  file ".\..\packages\ti\vlib\src\VLIB_originalfast12_score\..\common\VLIB_profile.h",li
    1529 0000036c 032c0346             STDW    .D1T2   B7:B6,*A11        ; |146| 
    1530                            .dwpsn  file "./../packages/ti/vlib/src/VLIB_originalfast12_score/VLIB_originalfast12_score_d.
    1531 00000370 04281fd8             MV      .L1X    B10,A8            ; |113| 
    1532 00000374     8687             MV      .L2     B13,B4            ; |113| 
    1533 00000376     d2c7             MV      .L2X    A5,B6             ; |113| 
    1534                    $C$DW$152       .dwtag  DW_TAG_TI_branch
    1535                            .dwattr $C$DW$152, DW_AT_low_pc(0x00)
    1536                            .dwattr $C$DW$152, DW_AT_name("VLIB_originalfast12_score_cn")
    1537                            .dwattr $C$DW$152, DW_AT_TI_call
    1538                    
    1539 00000378 10000013!            CALLP   .S2     VLIB_originalfast12_score_cn,B3
    1540 00000380 030c0264  ||         LDW     .D1T1   *A3,A6            ; |113| 
TMS320C6x Assembler PC v7.4.2 Thu Mar 19 12:44:14 2015

Tools Copyright (c) 1996-2012 Texas Instruments Incorporated
package/lib/Regression/regress_d_c/./../packages/ti/vlib/src/VLIB_originalfast12_score/VLIB_originalfast12_score_d.se66 PAGE   29

    1541                    
    1542 00000384           $C$RL18:   ; CALL OCCURS {VLIB_originalfast12_score_cn} {0}  ; |113| 
    1543                            .dwpsn  file ".\..\packages\ti\vlib\src\VLIB_originalfast12_score\..\common\VLIB_profile.h",li
    1544 00000384 042803e2             MVC     .S2     TSCL,B8           ; |153| 
    1545 00000388 022c03e2             MVC     .S2     TSCH,B4           ; |153| 
    1546 0000038c 01800028!            MVKL    .S1     overhead,A3
    1547 00000390 01800068!            MVKH    .S1     overhead,A3
    1548                            .dwpsn  file ".\..\packages\ti\vlib\src\VLIB_originalfast12_score\..\common\VLIB_profile.h",li
    1549 00000394 032c0364             LDDW    .D1T1   *A11,A7:A6        ; |156| 
    1550                    
    1551 00000398 028c1fdb             MV      .L2X    A3,B5             ; |156| 
    1552 0000039c 01b00264  ||         LDW     .D1T1   *A12,A3           ; |156| 
    1553                    
    1554 000003a0     10ed             LDDW    .D2T2   *B5,B7:B6         ; |156| 
    1555                            .dwpsn  file ".\..\packages\ti\vlib\src\VLIB_originalfast12_score\..\common\VLIB_profile.h",li
    1556 000003a2     2647             MV      .L2     B4,B9             ; |153| 
    1557 000003a4 043c0346             STDW    .D1T2   B9:B8,*A15        ; |153| 
    1558 000003a8 00000000             NOP             1
    1559                            .dwpsn  file ".\..\packages\ti\vlib\src\VLIB_originalfast12_score\..\common\VLIB_profile.h",li
    1560 000003ac 02286b64             LDDW    .D1T1   *+A10[A3],A5:A4   ; |156| 
    1561 000003b0 0218d57a             ADDU    .L2X    B6,A6,B5:B4       ; |156| 
    1562 000003b4     a3e1             ADD     .L2     B5,B7,B6          ; |156| 
    1563 000003b6     d3e1             ADD     .L2X    B6,A7,B6          ; |156| 
    1564 000003b8 021105fa             SUBU    .L2     B8,B4,B5:B4       ; |156| 
    1565                    
    1566 000003c8     eae3             EXT     .S2     B5,24,24,B7       ; |156| 
    1567 000003c4 0210957b  ||         ADDU    .L2X    A4,B4,B5:B4       ; |156| 
    1568 000003c0 0324c8c3  ||         SUB     .D2     B9,B6,B6          ; |156| 
    1569                    
    1570 000003ca     b2d1             ADD     .L2X    B5,A5,B5          ; |156| 
    1571 000003cc     c3eb  ||         ADD     .S2     B6,B7,B6          ; |156| 
    1572                    
    1573 000003ce     a351             ADD     .L2     B5,B6,B5          ; |156| 
    1574                    $C$DW$153       .dwtag  DW_TAG_TI_branch
    1575                            .dwattr $C$DW$153, DW_AT_low_pc(0x00)
    1576                            .dwattr $C$DW$153, DW_AT_name("setStackDepth")
    1577                            .dwattr $C$DW$153, DW_AT_TI_call
    1578                    
    1579 000003d0 10000013!            CALLP   .S2     setStackDepth,B3
    1580 000003d4 02286b46  ||         STDW    .D1T2   B5:B4,*+A10[A3]   ; |156| 
    1581                    
    1582                            .dwpsn  file ".\..\packages\ti\vlib\src\VLIB_originalfast12_score\..\common\VLIB_profile.h",li
    1583 000003d8           $C$RL19:   ; CALL OCCURS {setStackDepth} {0}  ; |159| 
    1584 000003d8           $C$DW$L$VLIB_originalfast12_score_d$19$E:
    1585                    ;** --------------------------------------------------------------------------*
    1586 000003d8           $C$DW$L$VLIB_originalfast12_score_d$20$B:
    1587                    ;          EXCLUSIVE CPU CYCLES: 23
    1588                    ;** 117 -----------------------    U$42 = (*orbOutput).n_features;
    1589                    ;** 117 -----------------------    if ( U$42 != (*orbOutput_cn).n_features ) goto g15;
    1590                    ;** 54  -----------------------    status_nat_vs_int = 1;
    1591                    ;**     -----------------------    goto g16;
    1592                    ;**     -----------------------g15:
    1593                    ;** 118 -----------------------    status_nat_vs_int = 0;
    1594                    ;**     -----------------------g16:
    1595                    ;** 55  -----------------------    status_nat_vs_ref = 1;
TMS320C6x Assembler PC v7.4.2 Thu Mar 19 12:44:14 2015

Tools Copyright (c) 1996-2012 Texas Instruments Incorporated
package/lib/Regression/regress_d_c/./../packages/ti/vlib/src/VLIB_originalfast12_score/VLIB_originalfast12_score_d.se66 PAGE   30

    1596                    ;** 119 -----------------------    if ( U$42 <= 0 ) goto g22;
    1597 000003d8 01be22e4             LDW     .D2T1   *+SP(68),A3
    1598                            .dwpsn  file "./../packages/ti/vlib/src/VLIB_originalfast12_score/VLIB_originalfast12_score_d.
    1599 000003e0 0584a358             MVK     .L1     0x1,A11           ; |55| 
    1600 000003e4 00004000             NOP             3
    1601                            .dwpsn  file "./../packages/ti/vlib/src/VLIB_originalfast12_score/VLIB_originalfast12_score_d.
    1602 000003e8 020c2264             LDW     .D1T1   *+A3(4),A4        ; |117| 
    1603 000003ec     8e3d             LDW     .D2T1   *+SP(64),A3       ; |117| 
    1604 000003ee     6c6e             NOP             4
    1605 000003f0 050c2266             LDW     .D1T2   *+A3(4),B10       ; |117| 
    1606 000003f4 00006000             NOP             4
    1607                            .dwpsn  file "./../packages/ti/vlib/src/VLIB_originalfast12_score/VLIB_originalfast12_score_d.
    1608 000003f8 01280ada             CMPGT   .L2     B10,0,B2          ; |119| 
    1609                    
    1610 00000400 702d4121     [!B2]   BNOP    .S1     $C$L10,2          ; |119| 
    1611 00000404 630c0267  || [ B2]   LDW     .D1T2   *A3,B6
    1612 00000408 01be22e5  ||         LDW     .D2T1   *+SP(68),A3
    1613 0000040c 00115a7b  ||         CMPEQ   .L2X    B10,A4,B0         ; |117| 
    1614 00000410 602c0fd8  || [ B2]   MV      .L1     A11,A0
    1615                    
    1616                            .dwpsn  file "./../packages/ti/vlib/src/VLIB_originalfast12_score/VLIB_originalfast12_score_d.
    1617 00000414 3680a35a     [!B0]   ZERO    .L2     B13               ; |118| 
    1618                            .dwpsn  file "./../packages/ti/vlib/src/VLIB_originalfast12_score/VLIB_originalfast12_score_d.
    1619 00000418 2684a35a     [ B0]   MVK     .L2     0x1,B13           ; |54| 
    1620 0000041c 620c0264     [ B2]   LDW     .D1T1   *A3,A4
    1621                            .dwpsn  file "./../packages/ti/vlib/src/VLIB_originalfast12_score/VLIB_originalfast12_score_d.
    1622                               ; BRANCHCC OCCURS {$C$L10}        ; |119| 
    1623 00000420           $C$DW$L$VLIB_originalfast12_score_d$20$E:
    1624                    ;** --------------------------------------------------------------------------*
    1625                            .dwpsn  file "./../packages/ti/vlib/src/VLIB_originalfast12_score/VLIB_originalfast12_score_d.
    1626 00000420           $C$DW$L$VLIB_originalfast12_score_d$21$B:
    1627                    ;**     -----------------------    U$71 = (*orbOutput).features;
    1628                    ;**     -----------------------    U$74 = (*orbOutput_cn).features;
    1629                    ;** 120 -----------------------    L$1 = U$42;
    1630                    ;** 119 -----------------------    U$74 -= 56;
    1631                    ;** 119 -----------------------    U$71 -= 56;
    1632                    ;** 119 -----------------------    i = (-1);
    1633                    ;**     -----------------------    #pragma MUST_ITERATE(1, 18446744073709551615, 1)
    1634                    ;**     -----------------------    #pragma LOOP_FLAGS(4352u)
    1635                    ;**     -----------------------g18:
    1636                    ;** 120 -----------------------    f$4 = (*((int *)U$71+72) != *((int *)U$74+72))-1;
    1637                    ;** 119 -----------------------    U$74 += 56;
    1638                    ;** 119 -----------------------    U$71 += 56;
    1639                    ;** 119 -----------------------    ++i;
    1640                    ;** 119 -----------------------    L$1 = L$1-1;
    1641                    ;** 119 -----------------------    if ( L$1&f$4 ) goto g18;
    1642                    ;**     -----------------------    if ( f$4 ) goto g22;
    1643 00000420           $C$DW$L$VLIB_originalfast12_score_d$21$E:
    1644                    ;*----------------------------------------------------------------------------*
    1645                    ;*   SOFTWARE PIPELINE INFORMATION
    1646                    ;*
    1647                    ;*      Loop found in file               : ./../packages/ti/vlib/src/VLIB_originalfast12_score/VLIB_or
    1648                    ;*      Loop source line                 : 119
    1649                    ;*      Loop opening brace source line   : 119
    1650                    ;*      Loop closing brace source line   : 127
TMS320C6x Assembler PC v7.4.2 Thu Mar 19 12:44:14 2015

Tools Copyright (c) 1996-2012 Texas Instruments Incorporated
package/lib/Regression/regress_d_c/./../packages/ti/vlib/src/VLIB_originalfast12_score/VLIB_originalfast12_score_d.se66 PAGE   31

    1651                    ;*      Known Minimum Trip Count         : 1                    
    1652                    ;*      Known Max Trip Count Factor      : 1
    1653                    ;*      Loop Carried Dependency Bound(^) : 1
    1654                    ;*      Unpartitioned Resource Bound     : 2
    1655                    ;*      Partitioned Resource Bound(*)    : 2
    1656                    ;*      Resource Partition:
    1657                    ;*                                A-side   B-side
    1658                    ;*      .L units                     1        0     
    1659                    ;*      .S units                     1        0     
    1660                    ;*      .D units                     1        1     
    1661                    ;*      .M units                     0        0     
    1662                    ;*      .X cross paths               1        0     
    1663                    ;*      .T address paths             1        1     
    1664                    ;*      Long read paths              0        0     
    1665                    ;*      Long write paths             0        0     
    1666                    ;*      Logical  ops (.LS)           0        0     (.L or .S unit)
    1667                    ;*      Addition ops (.LSD)          3        1     (.L or .S or .D unit)
    1668                    ;*      Bound(.L .S .LS)             1        0     
    1669                    ;*      Bound(.L .S .D .LS .LSD)     2*       1     
    1670                    ;*
    1671                    ;*      Searching for software pipeline schedule at ...
    1672                    ;*         ii = 4  Unsafe schedule for irregular loop
    1673                    ;*         ii = 4  Unsafe schedule for irregular loop
    1674                    ;*         ii = 4  Unsafe schedule for irregular loop
    1675                    ;*         ii = 4  Unsafe schedule for irregular loop
    1676                    ;*         ii = 4  Unsafe schedule for irregular loop
    1677                    ;*         ii = 4  Did not find schedule
    1678                    ;*         ii = 5  Unsafe schedule for irregular loop
    1679                    ;*         ii = 5  Unsafe schedule for irregular loop
    1680                    ;*         ii = 5  Unsafe schedule for irregular loop
    1681                    ;*         ii = 5  Unsafe schedule for irregular loop
    1682                    ;*         ii = 5  Unsafe schedule for irregular loop
    1683                    ;*         ii = 5  Did not find schedule
    1684                    ;*         ii = 6  Unsafe schedule for irregular loop
    1685                    ;*         ii = 6  Unsafe schedule for irregular loop
    1686                    ;*         ii = 6  Unsafe schedule for irregular loop
    1687                    ;*         ii = 6  Unsafe schedule for irregular loop
    1688                    ;*         ii = 6  Unsafe schedule for irregular loop
    1689                    ;*         ii = 6  Did not find schedule
    1690                    ;*         ii = 7  Unsafe schedule for irregular loop
    1691                    ;*         ii = 7  Unsafe schedule for irregular loop
    1692                    ;*         ii = 7  Unsafe schedule for irregular loop
    1693                    ;*         ii = 7  Unsafe schedule for irregular loop
    1694                    ;*         ii = 7  Unsafe schedule for irregular loop
    1695                    ;*         ii = 7  Did not find schedule
    1696                    ;*         ii = 8  Unsafe schedule for irregular loop
    1697                    ;*         ii = 8  Unsafe schedule for irregular loop
    1698                    ;*         ii = 8  Unsafe schedule for irregular loop
    1699                    ;*         ii = 8  Unsafe schedule for irregular loop
    1700                    ;*         ii = 8  Unsafe schedule for irregular loop
    1701                    ;*         ii = 8  Did not find schedule
    1702                    ;*         ii = 9  Schedule found with 2 iterations in parallel
    1703                    ;*
    1704                    ;*      Register Usage Table:
    1705                    ;*          +-----------------------------------------------------------------+
TMS320C6x Assembler PC v7.4.2 Thu Mar 19 12:44:14 2015

Tools Copyright (c) 1996-2012 Texas Instruments Incorporated
package/lib/Regression/regress_d_c/./../packages/ti/vlib/src/VLIB_originalfast12_score/VLIB_originalfast12_score_d.se66 PAGE   32

    1706                    ;*          |AAAAAAAAAAAAAAAAAAAAAAAAAAAAAAAA|BBBBBBBBBBBBBBBBBBBBBBBBBBBBBBBB|
    1707                    ;*          |00000000001111111111222222222233|00000000001111111111222222222233|
    1708                    ;*          |01234567890123456789012345678901|01234567890123456789012345678901|
    1709                    ;*          |--------------------------------+--------------------------------|
    1710                    ;*       0: |    ** *                        |    ***                         |
    1711                    ;*       1: |    ** *                        |    ***                         |
    1712                    ;*       2: |   *** *                        |    ***                         |
    1713                    ;*       3: |    ****                        |    ***                         |
    1714                    ;*       4: |   *** *                        |    ***                         |
    1715                    ;*       5: |*   ** *                        |    ***                         |
    1716                    ;*       6: |    ** *                        |    ***                         |
    1717                    ;*       7: |    ** *                        |    ***                         |
    1718                    ;*       8: |    ** *                        |    ***                         |
    1719                    ;*          +-----------------------------------------------------------------+
    1720                    ;*
    1721                    ;*      Done
    1722                    ;*
    1723                    ;*      Loop will be splooped
    1724                    ;*      Collapsed epilog stages       : 1
    1725                    ;*      Collapsed prolog stages       : 0
    1726                    ;*      Minimum required memory pad   : 0 bytes
    1727                    ;*
    1728                    ;*      For further improvement on this loop, try option -mh784
    1729                    ;*
    1730                    ;*      Minimum safe trip count       : 1
    1731                    ;*      Min. prof. trip count  (est.) : 3
    1732                    ;*
    1733                    ;*      Mem bank conflicts/iter(est.) : { min 0.000, est 0.125, max 1.000 }
    1734                    ;*      Mem bank perf. penalty (est.) : 1.4%
    1735                    ;*
    1736                    ;*      Effective ii                : { min 9.00, est 9.13, max 10.00 }
    1737                    ;*
    1738                    ;*
    1739                    ;*      Total cycles (est.)         : 9 + trip_cnt * 9        
    1740                    ;*----------------------------------------------------------------------------*
    1741                    ;*       SETUP CODE
    1742                    ;*
    1743                    ;*                  MVK             0x1,A0
    1744                    ;*                  ADDK            72,B6
    1745                    ;*                  ADDK            72,A4
    1746                    ;*
    1747                    ;*        SINGLE SCHEDULED ITERATION
    1748                    ;*
    1749                    ;*        $C$C118:
    1750                    ;*   5      [ A0]   LDW     .D1T1   *A4++(56),A7      ; |120|  ^ 
    1751                    ;*     ||   [ A0]   LDW     .D2T2   *B6++(56),B4      ; |120|  ^ 
    1752                    ;*   6              NOP             4
    1753                    ;*  10              CMPEQ   .L1X    B4,A7,A3          ; |120|  ^ 
    1754                    ;*  11              EXT     .S1     A3,31,31,A6       ; |120|  ^ 
    1755                    ;*     ||           SUB     .L1     A5,1,A5           ; |119|  ^ 
    1756                    ;*  12              AND     .L1     A6,A5,A3          ; |119|  ^ 
    1757                    ;*  13              MV      .L1     A3,A0             ; |119|  ^ 
    1758                    ;*  14      [ A0]   SPWBR           $C$C118
    1759                    ;*  15              NOP             2
    1760                    ;*  17              ADD     .L2     1,B5,B5           ; |119| 
TMS320C6x Assembler PC v7.4.2 Thu Mar 19 12:44:14 2015

Tools Copyright (c) 1996-2012 Texas Instruments Incorporated
package/lib/Regression/regress_d_c/./../packages/ti/vlib/src/VLIB_originalfast12_score/VLIB_originalfast12_score_d.se66 PAGE   33

    1761                    ;*  18              ; BRANCHCC OCCURS {$C$C118}       ; |119| 
    1762                    ;*----------------------------------------------------------------------------*
    1763 00000420           $C$L7:    ; PIPED LOOP PROLOG
    1764                    ;          EXCLUSIVE CPU CYCLES: 10
    1765 00000420 c403e000     [ A0]   SPLOOPW 9       ;18               ; (P) 
    1766                    ;** --------------------------------------------------------------------------*
    1767 00000424           $C$L8:    ; PIPED LOOP KERNEL
    1768 00000424           $C$DW$L$VLIB_originalfast12_score_d$23$B:
    1769                    ;          EXCLUSIVE CPU CYCLES: 9
    1770 00000424     4c6e             NOP             3
    1771                    
    1772 00000426     2f66             SPMASK          S1,S2
    1773 00000428 037fe453  ||         ADDK    .S2     -56,B6            ; |119| 
    1774 0000042c 027fe450  ||         ADDK    .S1     -56,A4            ; |119| 
    1775                    
    1776 00000430 00330001             SPMASK          S1,S2
    1777 00000434 03002453  ||         ADDK    .S2     72,B6
    1778 00000438 02002450  ||         ADDK    .S1     72,A4
    1779                    
    1780 00000440 c391d665     [ A0]   LDW     .D1T1   *A4++(56),A7      ; |120| (P) <0,5>  ^ 
    1781 00000444 c219d6e6  || [ A0]   LDW     .D2T2   *B6++(56),B4      ; |120| (P) <0,5>  ^ 
    1782                    
    1783 00000448 00002000             NOP             2
    1784                    
    1785 0000044c 000f0001             SPMASK          L1,L2
    1786 00000454 02a81fd8  ||         MV      .L1X    B10,A5            ; |120| 
    1787 00000450 02afd05b  ||         ADD     .L2X    -2,A11,B5
    1788                    
    1789 00000458 00000000             NOP             1
    1790                            .dwpsn  file "./../packages/ti/vlib/src/VLIB_originalfast12_score/VLIB_originalfast12_score_d.
    1791 0000045c 0190fa78             CMPEQ   .L1X    B4,A7,A3          ; |120| <0,10>  ^ 
    1792                    
    1793 00000464 0297e058             SUB     .L1     A5,1,A5           ; |119| <0,11>  ^ 
    1794 00000460 030fff49  ||         EXT     .S1     A3,31,31,A6       ; |120| <0,11>  ^ 
    1795                    
    1796                            .dwpsn  file "./../packages/ti/vlib/src/VLIB_originalfast12_score/VLIB_originalfast12_score_d.
    1797 00000468 0194cf78             AND     .L1     A6,A5,A3          ; |119| <0,12>  ^ 
    1798 0000046c     01c6             MV      .L1     A3,A0             ; |119| <0,13>  ^ 
    1799 0000046e     2c6e             NOP             2
    1800 00000470 00000000             NOP             1
    1801                    
    1802 00000474 00034001             SPKERNEL 0,0
    1803 00000478     26d1  ||         ADD     .L2     1,B5,B5           ; |119| <0,17> 
    1804                    
    1805 0000047a           $C$DW$L$VLIB_originalfast12_score_d$23$E:
    1806                    ;** --------------------------------------------------------------------------*
    1807 0000047a           $C$L9:    ; PIPED LOOP EPILOG
    1808                    ;** --------------------------------------------------------------------------*
    1809 0000047a           $C$DW$L$VLIB_originalfast12_score_d$25$B:
    1810                    ;          EXCLUSIVE CPU CYCLES: 7
    1811 0000047a     0346             MV      .L1     A6,A0
    1812                    
    1813 00000480     2046             MV      .L1     A0,A1             ; branch predicate copy
    1814 00000484 d680a35b  || [!A0]   ZERO    .L2     B13               ; |121| 
    1815 00000488 c0000810  || [ A0]   B       .S1     $C$L12
TMS320C6x Assembler PC v7.4.2 Thu Mar 19 12:44:14 2015

Tools Copyright (c) 1996-2012 Texas Instruments Incorporated
package/lib/Regression/regress_d_c/./../packages/ti/vlib/src/VLIB_originalfast12_score/VLIB_originalfast12_score_d.se66 PAGE   34

    1816 00000482     ad8d  ||         LDW     .D2T1   *+SP(52),A0       ; |121| 
    1817                    
    1818                            .dwpsn  file "./../packages/ti/vlib/src/VLIB_originalfast12_score/VLIB_originalfast12_score_d.
    1819 0000048c 80346264     [ A1]   LDW     .D1T1   *+A13(12),A0      ; |130| 
    1820 00000490     6c6e             NOP             4
    1821                               ; BRANCHCC OCCURS {$C$L12}  
    1822 00000492           $C$DW$L$VLIB_originalfast12_score_d$25$E:
    1823                    ;** --------------------------------------------------------------------------*
    1824 00000492           $C$DW$L$VLIB_originalfast12_score_d$26$B:
    1825                    ;          EXCLUSIVE CPU CYCLES: 6
    1826                    ;** 121 -----------------------    status_nat_vs_int = 0;
    1827                    ;** 122 -----------------------    if ( !LevelOfFeedback ) goto g22;
    1828                    
    1829 00000492     077a     [!A0]   B       .S1     $C$L11            ; |122| 
    1830 00000494 c200002a! || [ A0]   MVKL    .S2     $C$SL2+0,B4
    1831                    
    1832 00000498 c200006a!    [ A0]   MVKH    .S2     $C$SL2+0,B4
    1833                    $C$DW$154       .dwtag  DW_TAG_TI_branch
    1834                            .dwattr $C$DW$154, DW_AT_low_pc(0x00)
    1835                            .dwattr $C$DW$154, DW_AT_name("printf")
    1836                            .dwattr $C$DW$154, DW_AT_TI_call
    1837                    
    1838 000004a0 c0000011!    [ A0]   CALL    .S1     printf            ; |123| 
    1839 000004a4 d0346264  || [!A0]   LDW     .D1T1   *+A13(12),A0      ; |130| 
    1840                    
    1841 000004a8     4c6e             NOP             3
    1842                            .dwpsn  file "./../packages/ti/vlib/src/VLIB_originalfast12_score/VLIB_originalfast12_score_d.
    1843                               ; BRANCHCC OCCURS {$C$L11}        ; |122| 
    1844 000004aa           $C$DW$L$VLIB_originalfast12_score_d$26$E:
    1845                    ;** --------------------------------------------------------------------------*
    1846 000004aa           $C$DW$L$VLIB_originalfast12_score_d$27$B:
    1847                    ;          EXCLUSIVE CPU CYCLES: 2
    1848                    ;** 123 -----------------------    printf((const char *)" Mismatch in Index = %u \n", i);
    1849                            .dwpsn  file "./../packages/ti/vlib/src/VLIB_originalfast12_score/VLIB_originalfast12_score_d.
    1850 000004aa     bc45             STW     .D2T2   B4,*+SP(4)        ; |123| 
    1851                    
    1852 000004b0 02bc42f6             STW     .D2T2   B5,*+SP(8)        ; |123| 
    1853 000004ac 01850163  ||         ADDKPC  .S2     $C$RL20,B3,0      ; |123| 
    1854                    
    1855 000004b4           $C$RL20:   ; CALL OCCURS {printf} {0}        ; |123| 
    1856 000004b4           $C$DW$L$VLIB_originalfast12_score_d$27$E:
    1857                    ;** --------------------------------------------------------------------------*
    1858 000004b4           $C$L10:    
    1859 000004b4           $C$DW$L$VLIB_originalfast12_score_d$28$B:
    1860                    ;          EXCLUSIVE CPU CYCLES: 4
    1861                            .dwpsn  file "./../packages/ti/vlib/src/VLIB_originalfast12_score/VLIB_originalfast12_score_d.
    1862 000004b4 00346264             LDW     .D1T1   *+A13(12),A0      ; |130| 
    1863 000004b8     4c6e             NOP             3
    1864 000004ba           $C$DW$L$VLIB_originalfast12_score_d$28$E:
    1865                    ;** --------------------------------------------------------------------------*
    1866 000004ba           $C$L11:    
    1867 000004ba           $C$DW$L$VLIB_originalfast12_score_d$29$B:
    1868                    ;          EXCLUSIVE CPU CYCLES: 1
    1869 000004ba     0c6e             NOP             1
    1870 000004c0           $C$DW$L$VLIB_originalfast12_score_d$29$E:
TMS320C6x Assembler PC v7.4.2 Thu Mar 19 12:44:14 2015

Tools Copyright (c) 1996-2012 Texas Instruments Incorporated
package/lib/Regression/regress_d_c/./../packages/ti/vlib/src/VLIB_originalfast12_score/VLIB_originalfast12_score_d.se66 PAGE   35

    1871                    ;** --------------------------------------------------------------------------*
    1872 000004c0           $C$L12:    
    1873                            .dwpsn  file "./../packages/ti/vlib/src/VLIB_originalfast12_score/VLIB_originalfast12_score_d.
    1874 000004c0           $C$DW$L$VLIB_originalfast12_score_d$30$B:
    1875                    ;          EXCLUSIVE CPU CYCLES: 6
    1876                    ;**     -----------------------g22:
    1877                    ;** 130 -----------------------    v$1 = prm;
    1878                    ;** 130 -----------------------    if ( (*U$13).staticOut == NULL ) goto g29;
    1879                    
    1880 000004c0 053ce2e5             LDW     .D2T1   *+SP(28),A10      ; |130| 
    1881 000004c4 00280adb  ||         CMPGT   .L2     B10,0,B0          ; |131| 
    1882 000004c8 d0001e90  || [!A0]   B       .S1     $C$L17            ; |130| 
    1883                    
    1884                            .dwpsn  file "./../packages/ti/vlib/src/VLIB_originalfast12_score/VLIB_originalfast12_score_d.
    1885 000004cc d004a35a     [!A0]   MVK     .L2     0x1,B0            ; |131| nullify predicate
    1886 000004d0 303c4120     [!B0]   BNOP    .S1     $C$L16,2          ; |131| 
    1887                            .dwpsn  file "./../packages/ti/vlib/src/VLIB_originalfast12_score/VLIB_originalfast12_score_d.
    1888 000004d4 d229907a     [!A0]   ADD     .L2X    A10,B12,B4        ; |149| 
    1889                            .dwpsn  file "./../packages/ti/vlib/src/VLIB_originalfast12_score/VLIB_originalfast12_score_d.
    1890                               ; BRANCHCC OCCURS {$C$L17}        ; |130| 
    1891 000004d8           $C$DW$L$VLIB_originalfast12_score_d$30$E:
    1892                    ;** --------------------------------------------------------------------------*
    1893 000004d8           $C$DW$L$VLIB_originalfast12_score_d$31$B:
    1894                    ;          EXCLUSIVE CPU CYCLES: 2
    1895                    ;** 131 -----------------------    if ( U$42 <= 0 ) goto g29;
    1896 000004d8 21be22e4     [ B0]   LDW     .D2T1   *+SP(68),A3
    1897 000004dc 22acaca2     [ B0]   SHL     .S2     B11,5,B5
    1898                            .dwpsn  file "./../packages/ti/vlib/src/VLIB_originalfast12_score/VLIB_originalfast12_score_d.
    1899                               ; BRANCHCC OCCURS {$C$L16}        ; |131| 
    1900 000004e0           $C$DW$L$VLIB_originalfast12_score_d$31$E:
    1901                    ;** --------------------------------------------------------------------------*
    1902                            .dwpsn  file "./../packages/ti/vlib/src/VLIB_originalfast12_score/VLIB_originalfast12_score_d.
    1903 000004e0           $C$DW$L$VLIB_originalfast12_score_d$32$B:
    1904                    ;          EXCLUSIVE CPU CYCLES: 4
    1905                    ;**     -----------------------    U$74 = (*orbOutput_cn).features;
    1906                    ;**     -----------------------    U$133 = (*((tpi<<5)+v$1)).staticOut;
    1907                    ;** 132 -----------------------    L$2 = U$42;
    1908                    ;** 131 -----------------------    --U$133;
    1909                    ;** 131 -----------------------    U$74 -= 56;
    1910                    ;** 131 -----------------------    i = (-1);
    1911                    ;**     -----------------------    #pragma MUST_ITERATE(1, 18446744073709551615, 1)
    1912                    ;**     -----------------------    #pragma LOOP_FLAGS(4352u)
    1913                    ;**     -----------------------g25:
    1914                    ;** 132 -----------------------    f$5 = (*((int *)U$74+72) != *(++U$133))-1;
    1915                    ;** 131 -----------------------    U$74 += 56;
    1916                    ;** 131 -----------------------    ++i;
    1917                    ;** 131 -----------------------    L$2 = L$2-1;
    1918                    ;** 131 -----------------------    if ( L$2&f$5 ) goto g25;
    1919                    ;**     -----------------------    if ( f$5 ) goto g29;
    1920 000004e0 02a8b07a             ADD     .L2X    A10,B5,B5
    1921 000004e4     2426             MVK     .L1     0x1,A0
    1922 000004e6     0c6e             NOP             1
    1923 000004e8 030c0266             LDW     .D1T2   *A3,B6
    1924 000004ec           $C$DW$L$VLIB_originalfast12_score_d$32$E:
    1925                    ;*----------------------------------------------------------------------------*
TMS320C6x Assembler PC v7.4.2 Thu Mar 19 12:44:14 2015

Tools Copyright (c) 1996-2012 Texas Instruments Incorporated
package/lib/Regression/regress_d_c/./../packages/ti/vlib/src/VLIB_originalfast12_score/VLIB_originalfast12_score_d.se66 PAGE   36

    1926                    ;*   SOFTWARE PIPELINE INFORMATION
    1927                    ;*
    1928                    ;*      Loop found in file               : ./../packages/ti/vlib/src/VLIB_originalfast12_score/VLIB_or
    1929                    ;*      Loop source line                 : 131
    1930                    ;*      Loop opening brace source line   : 131
    1931                    ;*      Loop closing brace source line   : 139
    1932                    ;*      Known Minimum Trip Count         : 1                    
    1933                    ;*      Known Max Trip Count Factor      : 1
    1934                    ;*      Loop Carried Dependency Bound(^) : 1
    1935                    ;*      Unpartitioned Resource Bound     : 2
    1936                    ;*      Partitioned Resource Bound(*)    : 2
    1937                    ;*      Resource Partition:
    1938                    ;*                                A-side   B-side
    1939                    ;*      .L units                     1        0     
    1940                    ;*      .S units                     1        0     
    1941                    ;*      .D units                     1        1     
    1942                    ;*      .M units                     0        0     
    1943                    ;*      .X cross paths               1        0     
    1944                    ;*      .T address paths             1        1     
    1945                    ;*      Long read paths              0        0     
    1946                    ;*      Long write paths             0        0     
    1947                    ;*      Logical  ops (.LS)           0        0     (.L or .S unit)
    1948                    ;*      Addition ops (.LSD)          3        1     (.L or .S or .D unit)
    1949                    ;*      Bound(.L .S .LS)             1        0     
    1950                    ;*      Bound(.L .S .D .LS .LSD)     2*       1     
    1951                    ;*
    1952                    ;*      Searching for software pipeline schedule at ...
    1953                    ;*         ii = 4  Unsafe schedule for irregular loop
    1954                    ;*         ii = 4  Unsafe schedule for irregular loop
    1955                    ;*         ii = 4  Unsafe schedule for irregular loop
    1956                    ;*         ii = 4  Unsafe schedule for irregular loop
    1957                    ;*         ii = 4  Unsafe schedule for irregular loop
    1958                    ;*         ii = 4  Did not find schedule
    1959                    ;*         ii = 5  Unsafe schedule for irregular loop
    1960                    ;*         ii = 5  Unsafe schedule for irregular loop
    1961                    ;*         ii = 5  Unsafe schedule for irregular loop
    1962                    ;*         ii = 5  Unsafe schedule for irregular loop
    1963                    ;*         ii = 5  Unsafe schedule for irregular loop
    1964                    ;*         ii = 5  Did not find schedule
    1965                    ;*         ii = 6  Unsafe schedule for irregular loop
    1966                    ;*         ii = 6  Unsafe schedule for irregular loop
    1967                    ;*         ii = 6  Unsafe schedule for irregular loop
    1968                    ;*         ii = 6  Unsafe schedule for irregular loop
    1969                    ;*         ii = 6  Unsafe schedule for irregular loop
    1970                    ;*         ii = 6  Did not find schedule
    1971                    ;*         ii = 7  Unsafe schedule for irregular loop
    1972                    ;*         ii = 7  Unsafe schedule for irregular loop
    1973                    ;*         ii = 7  Unsafe schedule for irregular loop
    1974                    ;*         ii = 7  Unsafe schedule for irregular loop
    1975                    ;*         ii = 7  Unsafe schedule for irregular loop
    1976                    ;*         ii = 7  Did not find schedule
    1977                    ;*         ii = 8  Unsafe schedule for irregular loop
    1978                    ;*         ii = 8  Unsafe schedule for irregular loop
    1979                    ;*         ii = 8  Unsafe schedule for irregular loop
    1980                    ;*         ii = 8  Unsafe schedule for irregular loop
TMS320C6x Assembler PC v7.4.2 Thu Mar 19 12:44:14 2015

Tools Copyright (c) 1996-2012 Texas Instruments Incorporated
package/lib/Regression/regress_d_c/./../packages/ti/vlib/src/VLIB_originalfast12_score/VLIB_originalfast12_score_d.se66 PAGE   37

    1981                    ;*         ii = 8  Unsafe schedule for irregular loop
    1982                    ;*         ii = 8  Did not find schedule
    1983                    ;*         ii = 9  Schedule found with 2 iterations in parallel
    1984                    ;*
    1985                    ;*      Register Usage Table:
    1986                    ;*          +-----------------------------------------------------------------+
    1987                    ;*          |AAAAAAAAAAAAAAAAAAAAAAAAAAAAAAAA|BBBBBBBBBBBBBBBBBBBBBBBBBBBBBBBB|
    1988                    ;*          |00000000001111111111222222222233|00000000001111111111222222222233|
    1989                    ;*          |01234567890123456789012345678901|01234567890123456789012345678901|
    1990                    ;*          |--------------------------------+--------------------------------|
    1991                    ;*       0: |    ** *                        |    ***                         |
    1992                    ;*       1: |    ** *                        |    ***                         |
    1993                    ;*       2: |   *** *                        |    ***                         |
    1994                    ;*       3: |    ****                        |    ***                         |
    1995                    ;*       4: |   *** *                        |    ***                         |
    1996                    ;*       5: |*   ** *                        |    ***                         |
    1997                    ;*       6: |    ** *                        |    ***                         |
    1998                    ;*       7: |    ** *                        |    ***                         |
    1999                    ;*       8: |    ** *                        |    ***                         |
    2000                    ;*          +-----------------------------------------------------------------+
    2001                    ;*
    2002                    ;*      Done
    2003                    ;*
    2004                    ;*      Loop will be splooped
    2005                    ;*      Collapsed epilog stages       : 1
    2006                    ;*      Collapsed prolog stages       : 0
    2007                    ;*      Minimum required memory pad   : 0 bytes
    2008                    ;*
    2009                    ;*      For further improvement on this loop, try option -mh784
    2010                    ;*
    2011                    ;*      Minimum safe trip count       : 1
    2012                    ;*      Min. prof. trip count  (est.) : 3
    2013                    ;*
    2014                    ;*      Mem bank conflicts/iter(est.) : { min 0.000, est 0.125, max 1.000 }
    2015                    ;*      Mem bank perf. penalty (est.) : 1.4%
    2016                    ;*
    2017                    ;*      Effective ii                : { min 9.00, est 9.13, max 10.00 }
    2018                    ;*
    2019                    ;*
    2020                    ;*      Total cycles (est.)         : 9 + trip_cnt * 9        
    2021                    ;*----------------------------------------------------------------------------*
    2022                    ;*       SETUP CODE
    2023                    ;*
    2024                    ;*                  MVK             0x1,A0
    2025                    ;*                  ADDK            72,B6
    2026                    ;*
    2027                    ;*        SINGLE SCHEDULED ITERATION
    2028                    ;*
    2029                    ;*        $C$C70:
    2030                    ;*   5      [ A0]   LDHU    .D1T1   *++A5,A7          ; |132|  ^ 
    2031                    ;*     ||   [ A0]   LDW     .D2T2   *B6++(56),B4      ; |132|  ^ 
    2032                    ;*   6              NOP             4
    2033                    ;*  10              CMPEQ   .L1X    B4,A7,A3          ; |132|  ^ 
    2034                    ;*  11              EXT     .S1     A3,31,31,A6       ; |132|  ^ 
    2035                    ;*     ||           SUB     .L1     A4,1,A4           ; |131|  ^ 
TMS320C6x Assembler PC v7.4.2 Thu Mar 19 12:44:14 2015

Tools Copyright (c) 1996-2012 Texas Instruments Incorporated
package/lib/Regression/regress_d_c/./../packages/ti/vlib/src/VLIB_originalfast12_score/VLIB_originalfast12_score_d.se66 PAGE   38

    2036                    ;*  12              AND     .L1     A6,A4,A3          ; |131|  ^ 
    2037                    ;*  13              MV      .L1     A3,A0             ; |131|  ^ 
    2038                    ;*  14      [ A0]   SPWBR           $C$C70
    2039                    ;*  15              NOP             2
    2040                    ;*  17              ADD     .L2     1,B5,B5           ; |131| 
    2041                    ;*  18              ; BRANCHCC OCCURS {$C$C70}        ; |131| 
    2042                    ;*----------------------------------------------------------------------------*
    2043 000004ec           $C$L13:    ; PIPED LOOP PROLOG
    2044                    ;          EXCLUSIVE CPU CYCLES: 10
    2045                    
    2046 000004ec c403e001     [ A0]   SPLOOPW 9       ;18               ; (P) 
    2047 000004f0     70dd  ||         LDW     .D2T2   *+B5(12),B5
    2048                    
    2049                    ;** --------------------------------------------------------------------------*
    2050 000004f2           $C$L14:    ; PIPED LOOP KERNEL
    2051 000004f2           $C$DW$L$VLIB_originalfast12_score_d$34$B:
    2052                    ;          EXCLUSIVE CPU CYCLES: 9
    2053 000004f2     4c6e             NOP             3
    2054                    
    2055 000004f4 00230001             SPMASK          S2
    2056 000004f8 037fe452  ||         ADDK    .S2     -56,B6            ; |131| 
    2057                    
    2058 00000500     2e67             SPMASK          L1,S2
    2059 00000502     ded0  ||         SUB     .L1X    B5,2,A5           ; |131| 
    2060 00000504 03002452  ||         ADDK    .S2     72,B6
    2061                    
    2062 00000508 c3943205     [ A0]   LDHU    .D1T1   *++A5,A7          ; |132| (P) <0,5>  ^ 
    2063 0000050c c219d6e6  || [ A0]   LDW     .D2T2   *B6++(56),B4      ; |132| (P) <0,5>  ^ 
    2064                    
    2065 00000510     2c6e             NOP             2
    2066                    
    2067 00000512     2ce7             SPMASK          L1,L2
    2068 00000514     9506  ||         MV      .L1X    B10,A4            ; |132| 
    2069 00000516     fea7  ||         MVK     .L2     0xffffffff,B5     ; |131| 
    2070                    
    2071 00000518 00000000             NOP             1
    2072                            .dwpsn  file "./../packages/ti/vlib/src/VLIB_originalfast12_score/VLIB_originalfast12_score_d.
    2073 00000520 0190fa78             CMPEQ   .L1X    B4,A7,A3          ; |132| <0,10>  ^ 
    2074                    
    2075 00000528 0213e058             SUB     .L1     A4,1,A4           ; |131| <0,11>  ^ 
    2076 00000524 030fff49  ||         EXT     .S1     A3,31,31,A6       ; |132| <0,11>  ^ 
    2077                    
    2078                            .dwpsn  file "./../packages/ti/vlib/src/VLIB_originalfast12_score/VLIB_originalfast12_score_d.
    2079 0000052c 0190cf78             AND     .L1     A6,A4,A3          ; |131| <0,12>  ^ 
    2080 00000530     01c6             MV      .L1     A3,A0             ; |131| <0,13>  ^ 
    2081 00000532     2c6e             NOP             2
    2082 00000534 00000000             NOP             1
    2083                    
    2084 00000538 00034001             SPKERNEL 0,0
    2085 00000540     26d1  ||         ADD     .L2     1,B5,B5           ; |131| <0,17> 
    2086                    
    2087 00000542           $C$DW$L$VLIB_originalfast12_score_d$34$E:
    2088                    ;** --------------------------------------------------------------------------*
    2089 00000542           $C$L15:    ; PIPED LOOP EPILOG
    2090                    ;** --------------------------------------------------------------------------*
TMS320C6x Assembler PC v7.4.2 Thu Mar 19 12:44:14 2015

Tools Copyright (c) 1996-2012 Texas Instruments Incorporated
package/lib/Regression/regress_d_c/./../packages/ti/vlib/src/VLIB_originalfast12_score/VLIB_originalfast12_score_d.se66 PAGE   39

    2091 00000542           $C$DW$L$VLIB_originalfast12_score_d$36$B:
    2092                    ;          EXCLUSIVE CPU CYCLES: 7
    2093 00000542     0346             MV      .L1     A6,A0
    2094                    
    2095 00000544 c0001493     [ A0]   B       .S2     $C$L19
    2096 00000548     2046  ||         MV      .L1     A0,A1             ; branch predicate copy
    2097 0000054c d5800029  || [!A0]   ZERO    .S1     A11               ; |133| 
    2098 0000054a     4056  ||         MV      .D1     A0,A2             ; branch predicate copy
    2099 00000550 003da2e4  ||         LDW     .D2T1   *+SP(52),A0       ; |133| 
    2100                    
    2101 00000554 8229907b     [ A1]   ADD     .L2X    A10,B12,B4        ; |149| 
    2102 00000558 a380002b! || [ A2]   MVKL    .S2     $C$SL3+0,B7
    2103 00000560 a2000029! || [ A2]   MVKL    .S1     est_test,A4
    2104 00000564 a184a358  || [ A2]   MVK     .L1     1,A3              ; |146| 
    2105                    
    2106 00000568 a2930297     [ A2]   LDBU    .D2T2   *+B4(24),B5       ; |149| 
    2107 0000056c a380006b! || [ A2]   MVKH    .S2     $C$SL3+0,B7
    2108 00000570 a2000068! || [ A2]   MVKH    .S1     est_test,A4
    2109                    
    2110 00000574 a310e2e7     [ A2]   LDW     .D2T2   *+B4(28),B6       ; |149| 
    2111 00000578 a200002a! || [ A2]   MVKL    .S2     testPatternString,B4
    2112                    
    2113                    $C$DW$155       .dwtag  DW_TAG_TI_branch
    2114                            .dwattr $C$DW$155, DW_AT_low_pc(0x04)
    2115                            .dwattr $C$DW$155, DW_AT_name("sprintf")
    2116                            .dwattr $C$DW$155, DW_AT_TI_call
    2117                    
    2118 0000057c a3bc22f7     [ A2]   STW     .D2T2   B7,*+SP(4)        ; |149| 
    2119 00000580 a0000010! || [ A2]   CALL    .S1     sprintf           ; |149| 
    2120                    
    2121                            .dwpsn  file "./../packages/ti/vlib/src/VLIB_originalfast12_score/VLIB_originalfast12_score_d.
    2122 00000584 a53c62f6     [ A2]   STW     .D2T2   B10,*+SP(12)      ; |149| 
    2123                               ; BRANCHCC OCCURS {$C$L19}  
    2124 00000588           $C$DW$L$VLIB_originalfast12_score_d$36$E:
    2125                    ;** --------------------------------------------------------------------------*
    2126 00000588           $C$DW$L$VLIB_originalfast12_score_d$37$B:
    2127                    ;          EXCLUSIVE CPU CYCLES: 6
    2128                    ;** 133 -----------------------    status_nat_vs_ref = 0;
    2129                    ;** 134 -----------------------    if ( !LevelOfFeedback ) goto g29;
    2130                    
    2131 00000588 d0000891     [!A0]   B       .S1     $C$L18            ; |134| 
    2132 0000058c d229907b  || [!A0]   ADD     .L2X    A10,B12,B4        ; |149| 
    2133 00000590 c200002a! || [ A0]   MVKL    .S2     $C$SL2+0,B4
    2134                    
    2135 00000594 d380002a!    [!A0]   MVKL    .S2     $C$SL3+0,B7
    2136                            .dwpsn  file "./../packages/ti/vlib/src/VLIB_originalfast12_score/VLIB_originalfast12_score_d.
    2137                    $C$DW$156       .dwtag  DW_TAG_TI_branch
    2138                            .dwattr $C$DW$156, DW_AT_low_pc(0x00)
    2139                            .dwattr $C$DW$156, DW_AT_name("printf")
    2140                            .dwattr $C$DW$156, DW_AT_TI_call
    2141 00000598 c0000010!    [ A0]   CALL    .S1     printf            ; |135| 
    2142                            .dwpsn  file "./../packages/ti/vlib/src/VLIB_originalfast12_score/VLIB_originalfast12_score_d.
    2143 0000059c d2930296     [!A0]   LDBU    .D2T2   *+B4(24),B5       ; |149| 
    2144 000005a0 c200006a!    [ A0]   MVKH    .S2     $C$SL2+0,B4
    2145 000005a4 d310e2e6     [!A0]   LDW     .D2T2   *+B4(28),B6       ; |149| 
TMS320C6x Assembler PC v7.4.2 Thu Mar 19 12:44:14 2015

Tools Copyright (c) 1996-2012 Texas Instruments Incorporated
package/lib/Regression/regress_d_c/./../packages/ti/vlib/src/VLIB_originalfast12_score/VLIB_originalfast12_score_d.se66 PAGE   40

    2146                            .dwpsn  file "./../packages/ti/vlib/src/VLIB_originalfast12_score/VLIB_originalfast12_score_d.
    2147                               ; BRANCHCC OCCURS {$C$L18}        ; |134| 
    2148 000005a8           $C$DW$L$VLIB_originalfast12_score_d$37$E:
    2149                    ;** --------------------------------------------------------------------------*
    2150 000005a8           $C$DW$L$VLIB_originalfast12_score_d$38$B:
    2151                    ;          EXCLUSIVE CPU CYCLES: 2
    2152                    ;** 135 -----------------------    printf((const char *)" Mismatch in Index = %u \n", i);
    2153                            .dwpsn  file "./../packages/ti/vlib/src/VLIB_originalfast12_score/VLIB_originalfast12_score_d.
    2154 000005a8     bc45             STW     .D2T2   B4,*+SP(4)        ; |135| 
    2155                    
    2156 000005aa     dc55             STW     .D2T2   B5,*+SP(8)        ; |135| 
    2157 000005ac 01840162  ||         ADDKPC  .S2     $C$RL21,B3,0      ; |135| 
    2158                    
    2159 000005b0           $C$RL21:   ; CALL OCCURS {printf} {0}        ; |135| 
    2160 000005b0           $C$DW$L$VLIB_originalfast12_score_d$38$E:
    2161                    ;** --------------------------------------------------------------------------*
    2162 000005b0           $C$L16:    
    2163 000005b0           $C$DW$L$VLIB_originalfast12_score_d$39$B:
    2164                    ;          EXCLUSIVE CPU CYCLES: 1
    2165                            .dwpsn  file "./../packages/ti/vlib/src/VLIB_originalfast12_score/VLIB_originalfast12_score_d.
    2166 000005b0 0229907a             ADD     .L2X    A10,B12,B4        ; |149| 
    2167 000005b4           $C$DW$L$VLIB_originalfast12_score_d$39$E:
    2168                    ;** --------------------------------------------------------------------------*
    2169 000005b4           $C$L17:    
    2170 000005b4           $C$DW$L$VLIB_originalfast12_score_d$40$B:
    2171                    ;          EXCLUSIVE CPU CYCLES: 2
    2172 000005b4 0310e2e6             LDW     .D2T2   *+B4(28),B6       ; |149| 
    2173                    
    2174 000005b8 02930297             LDBU    .D2T2   *+B4(24),B5       ; |149| 
    2175 000005c0 0380002a! ||         MVKL    .S2     $C$SL3+0,B7
    2176                    
    2177 000005c4           $C$DW$L$VLIB_originalfast12_score_d$40$E:
    2178                    ;** --------------------------------------------------------------------------*
    2179 000005c4           $C$L18:    
    2180 000005c4           $C$DW$L$VLIB_originalfast12_score_d$41$B:
    2181                    ;          EXCLUSIVE CPU CYCLES: 3
    2182                    
    2183 000005c4 02000029!            MVKL    .S1     est_test,A4
    2184 000005c8 0380006b! ||         MVKH    .S2     $C$SL3+0,B7
    2185 000005d0     25a6  ||         MVK     .L1     1,A3              ; |146| 
    2186 000005cc 053c62f7  ||         STW     .D2T2   B10,*+SP(12)      ; |149| 
    2187                    
    2188                    $C$DW$157       .dwtag  DW_TAG_TI_branch
    2189                            .dwattr $C$DW$157, DW_AT_low_pc(0x00)
    2190                            .dwattr $C$DW$157, DW_AT_name("sprintf")
    2191                            .dwattr $C$DW$157, DW_AT_TI_call
    2192                    
    2193 000005d8 00000012!            CALL    .S2     sprintf           ; |149| 
    2194 000005d4 02000069! ||         MVKH    .S1     est_test,A4
    2195 000005d2     bc75  ||         STW     .D2T2   B7,*+SP(4)        ; |149| 
    2196                    
    2197 000005e0 0200002a!            MVKL    .S2     testPatternString,B4
    2198 000005e4           $C$DW$L$VLIB_originalfast12_score_d$41$E:
    2199                    ;** --------------------------------------------------------------------------*
    2200 000005e4           $C$L19:    
TMS320C6x Assembler PC v7.4.2 Thu Mar 19 12:44:14 2015

Tools Copyright (c) 1996-2012 Texas Instruments Incorporated
package/lib/Regression/regress_d_c/./../packages/ti/vlib/src/VLIB_originalfast12_score/VLIB_originalfast12_score_d.se66 PAGE   41

    2201                            .dwpsn  file "./../packages/ti/vlib/src/VLIB_originalfast12_score/VLIB_originalfast12_score_d.
    2202 000005e4           $C$DW$L$VLIB_originalfast12_score_d$42$B:
    2203                    ;          EXCLUSIVE CPU CYCLES: 4
    2204                    ;**     -----------------------g29:
    2205                    ;** 146 -----------------------    est_test = 1;
    2206                    ;** 149 -----------------------    C$6 = U$12+v$1;
    2207                    ;** 149 -----------------------    sprintf(K$146, (const char *)"%s generated input | Opt and NatC res
    2208                    ;** 152 -----------------------    VLIB_formula_add_test((int)(*U$13).true_num_features, 0, 0, (status
    2209                    ;** 154 -----------------------    goto g34;
    2210                    ;**     -----------------------g30:
    2211                    ;**     -----------------------    v$1 = prm;
    2212                    ;**     -----------------------    goto g33;
    2213 000005e4 0200006a!            MVKH    .S2     testPatternString,B4
    2214                    
    2215 000005e8     0034             STW     .D1T1   A3,*A4            ; |146| 
    2216 000005ea     9cd5  ||         STW     .D2T2   B5,*+SP(16)       ; |149| 
    2217 000005ec 02000028! ||         MVKL    .S1     desc,A4
    2218                    
    2219 000005f4     bce5             STW     .D2T2   B6,*+SP(20)       ; |149| 
    2220 000005f0 02000069! ||         MVKH    .S1     desc,A4
    2221                    
    2222 000005f6     dc45             STW     .D2T2   B4,*+SP(8)        ; |149| 
    2223 000005f8 01880162  ||         ADDKPC  .S2     $C$RL22,B3,0      ; |149| 
    2224                    
    2225                            .dwpsn  file "./../packages/ti/vlib/src/VLIB_originalfast12_score/VLIB_originalfast12_score_d.
    2226 00000600           $C$RL22:   ; CALL OCCURS {sprintf} {0}       ; |149| 
    2227 00000600           $C$DW$L$VLIB_originalfast12_score_d$42$E:
    2228                    ;** --------------------------------------------------------------------------*
    2229 00000600           $C$DW$L$VLIB_originalfast12_score_d$43$B:
    2230                    ;          EXCLUSIVE CPU CYCLES: 8
    2231                            .dwpsn  file "./../packages/ti/vlib/src/VLIB_originalfast12_score/VLIB_originalfast12_score_d.
    2232 00000600 01ac0a58             CMPEQ   .L1     A11,0,A3          ; |152| 
    2233                    
    2234 00000604 02340a5b             CMPEQ   .L2     B13,0,B4          ; |152| 
    2235 00000608 04000029! ||         MVKL    .S1     desc,A8
    2236 0000060c 0400002a  ||         ZERO    .S2     B8                ; |152| 
    2237                    
    2238                    $C$DW$158       .dwtag  DW_TAG_TI_branch
    2239                            .dwattr $C$DW$158, DW_AT_low_pc(0x00)
    2240                            .dwattr $C$DW$158, DW_AT_name("VLIB_formula_add_test")
    2241                            .dwattr $C$DW$158, DW_AT_TI_call
    2242                    
    2243 00000610 10000013!            CALLP   .S2     VLIB_formula_add_test,B3
    2244 00000614 0234a265  ||         LDW     .D1T1   *+A13(20),A4      ; |152| 
    2245 00000618 030c9ffb  ||         OR      .L2X    A3,B4,B6          ; |152| 
    2246 0000061c 02000043  ||         ZERO    .D2     B4                ; |152| 
    2247 00000620 04000069! ||         MVKH    .S1     desc,A8
    2248 00000624     0726  ||         ZERO    .L1     A6                ; |152| 
    2249                    
    2250 00000626           $C$RL23:   ; CALL OCCURS {VLIB_formula_add_test} {0}  ; |152| 
    2251 00000626           $C$DW$L$VLIB_originalfast12_score_d$43$E:
    2252                    ;** --------------------------------------------------------------------------*
    2253 00000626           $C$DW$L$VLIB_originalfast12_score_d$44$B:
    2254                    ;          EXCLUSIVE CPU CYCLES: 6
    2255                    
TMS320C6x Assembler PC v7.4.2 Thu Mar 19 12:44:14 2015

Tools Copyright (c) 1996-2012 Texas Instruments Incorporated
package/lib/Regression/regress_d_c/./../packages/ti/vlib/src/VLIB_originalfast12_score/VLIB_originalfast12_score_d.se66 PAGE   42

    2256 00000626     4f8b             BNOP    .S2     $C$L24,2          ; |154| 
    2257 0000062c 023de2e4  ||         LDW     .D2T1   *+SP(60),A4
    2258 00000628 01b481a9  ||         MVKL    .S1     0x16903,A3
    2259                    
    2260 00000630 018000e8             MVKH    .S1     0x16903,A3
    2261                            .dwpsn  file "./../packages/ti/vlib/src/VLIB_originalfast12_score/VLIB_originalfast12_score_d.
    2262                    ;----------------------------------------------------------------------
    2263                    ; 162 | VLIB_free(orbInput->prefimage);                                        
    2264                    ;----------------------------------------------------------------------
    2265                    $C$DW$159       .dwtag  DW_TAG_TI_branch
    2266                            .dwattr $C$DW$159, DW_AT_low_pc(0x00)
    2267                            .dwattr $C$DW$159, DW_AT_name("VLIB_free")
    2268                            .dwattr $C$DW$159, DW_AT_TI_call
    2269 00000634 00000010!            CALL    .S1     VLIB_free         ; |162| 
    2270 00000638 02106a64             LDW     .D1T1   *+A4[A3],A4       ; |162| 
    2271                            .dwpsn  file "./../packages/ti/vlib/src/VLIB_originalfast12_score/VLIB_originalfast12_score_d.
    2272                               ; BRANCH OCCURS {$C$L24}          ; |154| 
    2273 00000640           $C$DW$L$VLIB_originalfast12_score_d$44$E:
    2274                    ;** --------------------------------------------------------------------------*
    2275 00000640           $C$L20:    
    2276                            .dwpsn  file "./../packages/ti/vlib/src/VLIB_originalfast12_score/VLIB_originalfast12_score_d.
    2277 00000640           $C$DW$L$VLIB_originalfast12_score_d$45$B:
    2278                    ;          EXCLUSIVE CPU CYCLES: 1
    2279                    ;**     -----------------------g31:
    2280                    ;**     -----------------------    v$1 = prm;
    2281                    ;**     -----------------------    goto g33;
    2282                    
    2283 00000640 0232007b             ADD     .L2     B16,B12,B4        ; |156| 
    2284 00000644 0280002b! ||         MVKL    .S2     $C$SL4+0,B5
    2285 00000648 02000028! ||         MVKL    .S1     desc,A4
    2286                    
    2287                               ; BRANCH OCCURS {$C$L22}  
    2288 0000064c           $C$DW$L$VLIB_originalfast12_score_d$45$E:
    2289                    ;** --------------------------------------------------------------------------*
    2290 0000064c           $C$L21:    
    2291 0000064c           $C$DW$L$VLIB_originalfast12_score_d$46$B:
    2292                    ;          EXCLUSIVE CPU CYCLES: 1
    2293                    ;**     -----------------------g32:
    2294                    ;**     -----------------------    v$1 = prm;
    2295                    
    2296 0000064c 02000029!            MVKL    .S1     desc,A4
    2297 00000650 0280002b! ||         MVKL    .S2     $C$SL4+0,B5
    2298 00000654 0232007a  ||         ADD     .L2     B16,B12,B4        ; |156| 
    2299                    
    2300                    $C$DW$L$VLIB_originalfast12_score_d$46$E:
    2301                    ;** --------------------------------------------------------------------------*
    2302                    $C$L22:    
    2303                    $C$DW$L$VLIB_originalfast12_score_d$47$B:
    2304                    ;          EXCLUSIVE CPU CYCLES: 4
    2305                    $C$DW$160       .dwtag  DW_TAG_TI_branch
    2306                            .dwattr $C$DW$160, DW_AT_low_pc(0x00)
    2307                            .dwattr $C$DW$160, DW_AT_name("sprintf")
    2308                            .dwattr $C$DW$160, DW_AT_TI_call
    2309                    
    2310 00000658 00000011!            CALL    .S1     sprintf           ; |156| 
TMS320C6x Assembler PC v7.4.2 Thu Mar 19 12:44:14 2015

Tools Copyright (c) 1996-2012 Texas Instruments Incorporated
package/lib/Regression/regress_d_c/./../packages/ti/vlib/src/VLIB_originalfast12_score/VLIB_originalfast12_score_d.se66 PAGE   43

    2311 0000065c 0210a2e6  ||         LDW     .D2T2   *+B4(20),B4       ; |156| 
    2312                    
    2313 00000660 0280006a!            MVKH    .S2     $C$SL4+0,B5
    2314 00000664 00002000             NOP             2
    2315 00000668           $C$DW$L$VLIB_originalfast12_score_d$47$E:
    2316                    ;** --------------------------------------------------------------------------*
    2317 00000668           $C$L23:    
    2318 00000668           $C$DW$L$VLIB_originalfast12_score_d$48$B:
    2319                    ;          EXCLUSIVE CPU CYCLES: 2
    2320                    ;**     -----------------------g33:
    2321                    ;** 156 -----------------------    sprintf(K$146, (const char *)"n_features_12= %d", (*(U$12+v$1)).tru
    2322                    ;** 158 -----------------------    VLIB_skip_test(K$146);
    2323                            .dwpsn  file "./../packages/ti/vlib/src/VLIB_originalfast12_score/VLIB_originalfast12_score_d.
    2324 00000668     bc55             STW     .D2T2   B5,*+SP(4)        ; |156| 
    2325                    
    2326 0000066a     dc45             STW     .D2T2   B4,*+SP(8)        ; |156| 
    2327 0000066c 01850163  ||         ADDKPC  .S2     $C$RL24,B3,0      ; |156| 
    2328 00000670 02000068! ||         MVKH    .S1     desc,A4
    2329                    
    2330 00000674           $C$RL24:   ; CALL OCCURS {sprintf} {0}       ; |156| 
    2331 00000674           $C$DW$L$VLIB_originalfast12_score_d$48$E:
    2332                    ;** --------------------------------------------------------------------------*
    2333 00000674           $C$DW$L$VLIB_originalfast12_score_d$49$B:
    2334                    ;          EXCLUSIVE CPU CYCLES: 13
    2335 00000674 02000028!            MVKL    .S1     desc,A4
    2336                    $C$DW$161       .dwtag  DW_TAG_TI_branch
    2337                            .dwattr $C$DW$161, DW_AT_low_pc(0x00)
    2338                            .dwattr $C$DW$161, DW_AT_name("VLIB_skip_test")
    2339                            .dwattr $C$DW$161, DW_AT_TI_call
    2340                    
    2341 00000678 10000013!            CALLP   .S2     VLIB_skip_test,B3
    2342 00000680 02000068! ||         MVKH    .S1     desc,A4
    2343                    
    2344                            .dwpsn  file "./../packages/ti/vlib/src/VLIB_originalfast12_score/VLIB_originalfast12_score_d.
    2345 00000684           $C$RL25:   ; CALL OCCURS {VLIB_skip_test} {0}  ; |158| 
    2346 00000684 023de2e4             LDW     .D2T1   *+SP(60),A4
    2347 00000688 01b481a8             MVKL    .S1     0x16903,A3
    2348 0000068c 018000e8             MVKH    .S1     0x16903,A3
    2349 00000690 00000000             NOP             1
    2350                            .dwpsn  file "./../packages/ti/vlib/src/VLIB_originalfast12_score/VLIB_originalfast12_score_d.
    2351                    $C$DW$162       .dwtag  DW_TAG_TI_branch
    2352                            .dwattr $C$DW$162, DW_AT_low_pc(0x00)
    2353                            .dwattr $C$DW$162, DW_AT_name("VLIB_free")
    2354                            .dwattr $C$DW$162, DW_AT_TI_call
    2355 00000694 00000010!            CALL    .S1     VLIB_free         ; |162| 
    2356 00000698 02106a64             LDW     .D1T1   *+A4[A3],A4       ; |162| 
    2357 0000069c           $C$DW$L$VLIB_originalfast12_score_d$49$E:
    2358                    ;** --------------------------------------------------------------------------*
    2359 0000069c           $C$L24:    
    2360                            .dwpsn  file "./../packages/ti/vlib/src/VLIB_originalfast12_score/VLIB_originalfast12_score_d.
    2361 0000069c           $C$DW$L$VLIB_originalfast12_score_d$50$B:
    2362                    ;          EXCLUSIVE CPU CYCLES: 4
    2363                    ;**     -----------------------g34:
    2364                    ;** 162 -----------------------    VLIB_free((*orbInput).prefimage);
    2365                    ;** 163 -----------------------    free((*orbOutput_cn).features);
TMS320C6x Assembler PC v7.4.2 Thu Mar 19 12:44:14 2015

Tools Copyright (c) 1996-2012 Texas Instruments Incorporated
package/lib/Regression/regress_d_c/./../packages/ti/vlib/src/VLIB_originalfast12_score/VLIB_originalfast12_score_d.se66 PAGE   44

    2366                    ;** 164 -----------------------    free((*orbOutput).features);
    2367                    ;** 165 -----------------------    free((void *)orbOutput_cn);
    2368                    ;** 166 -----------------------    VLIB_free((void *)orbOutput);
    2369                    ;** 167 -----------------------    free((void *)orbInput);
    2370                    ;** 51  -----------------------    U$12 += 32;
    2371                    ;** 51  -----------------------    if ( test_cases > (++tpi) ) goto g3;
    2372                            .dwpsn  file "./../packages/ti/vlib/src/VLIB_originalfast12_score/VLIB_originalfast12_score_d.
    2373 0000069c 01886162             ADDKPC  .S2     $C$RL26,B3,3      ; |162| 
    2374 000006a0           $C$RL26:   ; CALL OCCURS {VLIB_free} {0}     ; |162| 
    2375 000006a0           $C$DW$L$VLIB_originalfast12_score_d$50$E:
    2376                    ;** --------------------------------------------------------------------------*
    2377 000006a0           $C$DW$L$VLIB_originalfast12_score_d$51$B:
    2378                    ;          EXCLUSIVE CPU CYCLES: 40
    2379 000006a0     ae3d             LDW     .D2T1   *+SP(68),A3       ; |162| 
    2380 000006a2     6c6e             NOP             4
    2381                    $C$DW$163       .dwtag  DW_TAG_TI_branch
    2382                            .dwattr $C$DW$163, DW_AT_low_pc(0x00)
    2383                            .dwattr $C$DW$163, DW_AT_name("free")
    2384                            .dwattr $C$DW$163, DW_AT_TI_call
    2385                    
    2386 000006a4 10000013!            CALLP   .S2     free,B3
    2387 000006a8 020c0264  ||         LDW     .D1T1   *A3,A4            ; |163| 
    2388                    
    2389                            .dwpsn  file "./../packages/ti/vlib/src/VLIB_originalfast12_score/VLIB_originalfast12_score_d.
    2390                    ;----------------------------------------------------------------------
    2391                    ; 163 | free(orbOutput_cn->features);                                          
    2392                    ;----------------------------------------------------------------------
    2393 000006ac           $C$RL27:   ; CALL OCCURS {free} {0}          ; |163| 
    2394 000006ac     8e3d             LDW     .D2T1   *+SP(64),A3       ; |163| 
    2395 000006ae     6c6e             NOP             4
    2396                    $C$DW$164       .dwtag  DW_TAG_TI_branch
    2397                            .dwattr $C$DW$164, DW_AT_low_pc(0x00)
    2398                            .dwattr $C$DW$164, DW_AT_name("free")
    2399                            .dwattr $C$DW$164, DW_AT_TI_call
    2400                    
    2401 000006b0 10000013!            CALLP   .S2     free,B3
    2402 000006b4 020c0265  ||         LDW     .D1T1   *A3,A4            ; |164| 
    2403                    
    2404                            .dwpsn  file "./../packages/ti/vlib/src/VLIB_originalfast12_score/VLIB_originalfast12_score_d.
    2405                    ;----------------------------------------------------------------------
    2406                    ; 164 | free(orbOutput->features);                                             
    2407                    ;----------------------------------------------------------------------
    2408                    $C$RL28:   ; CALL OCCURS {free} {0}          ; |164| 
    2409                    $C$DW$165       .dwtag  DW_TAG_TI_branch
    2410                            .dwattr $C$DW$165, DW_AT_low_pc(0x00)
    2411                            .dwattr $C$DW$165, DW_AT_name("free")
    2412                            .dwattr $C$DW$165, DW_AT_TI_call
    2413                    
    2414 000006c0 10000013!            CALLP   .S2     free,B3
    2415 000006c4 023e22e4  ||         LDW     .D2T1   *+SP(68),A4       ; |165| 
    2416                    
    2417                            .dwpsn  file "./../packages/ti/vlib/src/VLIB_originalfast12_score/VLIB_originalfast12_score_d.
    2418                    ;----------------------------------------------------------------------
    2419                    ; 165 | free(orbOutput_cn);                                                    
    2420                    ;----------------------------------------------------------------------
TMS320C6x Assembler PC v7.4.2 Thu Mar 19 12:44:14 2015

Tools Copyright (c) 1996-2012 Texas Instruments Incorporated
package/lib/Regression/regress_d_c/./../packages/ti/vlib/src/VLIB_originalfast12_score/VLIB_originalfast12_score_d.se66 PAGE   45

    2421                    $C$RL29:   ; CALL OCCURS {free} {0}          ; |165| 
    2422                    $C$DW$166       .dwtag  DW_TAG_TI_branch
    2423                            .dwattr $C$DW$166, DW_AT_low_pc(0x00)
    2424                            .dwattr $C$DW$166, DW_AT_name("VLIB_free")
    2425                            .dwattr $C$DW$166, DW_AT_TI_call
    2426                    
    2427 000006c8 10000013!            CALLP   .S2     VLIB_free,B3
    2428 000006cc 023e02e4  ||         LDW     .D2T1   *+SP(64),A4       ; |166| 
    2429                    
    2430                            .dwpsn  file "./../packages/ti/vlib/src/VLIB_originalfast12_score/VLIB_originalfast12_score_d.
    2431                    ;----------------------------------------------------------------------
    2432                    ; 166 | VLIB_free(orbOutput);                                                  
    2433                    ;----------------------------------------------------------------------
    2434                    $C$RL30:   ; CALL OCCURS {VLIB_free} {0}     ; |166| 
    2435                    $C$DW$167       .dwtag  DW_TAG_TI_branch
    2436                            .dwattr $C$DW$167, DW_AT_low_pc(0x00)
    2437                            .dwattr $C$DW$167, DW_AT_name("free")
    2438                            .dwattr $C$DW$167, DW_AT_TI_call
    2439                    
    2440 000006d0 10000013!            CALLP   .S2     free,B3
    2441 000006d4 023de2e4  ||         LDW     .D2T1   *+SP(60),A4       ; |167| 
    2442                    
    2443                            .dwpsn  file "./../packages/ti/vlib/src/VLIB_originalfast12_score/VLIB_originalfast12_score_d.
    2444                    ;----------------------------------------------------------------------
    2445                    ; 167 | free(orbInput);                                                        
    2446                    ;----------------------------------------------------------------------
    2447 000006d8           $C$RL31:   ; CALL OCCURS {free} {0}          ; |167| 
    2448 000006d8           $C$DW$L$VLIB_originalfast12_score_d$51$E:
    2449                    ;** --------------------------------------------------------------------------*
    2450 000006d8           $C$DW$L$VLIB_originalfast12_score_d$52$B:
    2451                    ;          EXCLUSIVE CPU CYCLES: 14
    2452 000006d8 0200002a!            MVKL    .S2     test_cases,B4
    2453 000006dc 0200006a!            MVKH    .S2     test_cases,B4
    2454                            .dwpsn  file "./../packages/ti/vlib/src/VLIB_originalfast12_score/VLIB_originalfast12_score_d.
    2455 000006e0 021002e6             LDW     .D2T2   *B4,B4            ; |51| 
    2456                            .dwpsn  file "./../packages/ti/vlib/src/VLIB_originalfast12_score/VLIB_originalfast12_score_d.
    2457 000006e4 06801050             ADDK    .S1     32,A13            ; |62| 
    2458                            .dwpsn  file "./../packages/ti/vlib/src/VLIB_originalfast12_score/VLIB_originalfast12_score_d.
    2459 000006e8 05ac205a             ADD     .L2     1,B11,B11         ; |51| 
    2460 000006ec 06001052             ADDK    .S2     32,B12            ; |51| 
    2461 000006f0 00000000             NOP             1
    2462 000006f4 002c88fa             CMPGT   .L2     B4,B11,B0         ; |51| 
    2463                    
    2464 000006f8 2e652121     [ B0]   BNOP    .S1     $C$L1,1           ; |51| 
    2465 000006fc 2534a265  || [ B0]   LDW     .D1T1   *+A13(20),A10     ; |62| 
    2466 00000700 2328a358  || [ B0]   MVK     .L1     0xa,A6            ; |65| 
    2467                    
    2468                            .dwpsn  file "./../packages/ti/vlib/src/VLIB_originalfast12_score/VLIB_originalfast12_score_d.
    2469 00000704 22352206     [ B0]   LDHU    .D1T2   *+A13(18),B4      ; |65| 
    2470 00000708 23370216     [ B0]   LDBU    .D1T2   *+A13(24),B6      ; |65| 
    2471 0000070c 22350204     [ B0]   LDHU    .D1T1   *+A13(16),A4      ; |65| 
    2472 00000710 04280fd8             MV      .L1     A10,A8            ; |65| 
    2473                            .dwpsn  file "./../packages/ti/vlib/src/VLIB_originalfast12_score/VLIB_originalfast12_score_d.
    2474                               ; BRANCHCC OCCURS {$C$L1}         ; |51| 
    2475 00000714           $C$DW$L$VLIB_originalfast12_score_d$52$E:
TMS320C6x Assembler PC v7.4.2 Thu Mar 19 12:44:14 2015

Tools Copyright (c) 1996-2012 Texas Instruments Incorporated
package/lib/Regression/regress_d_c/./../packages/ti/vlib/src/VLIB_originalfast12_score/VLIB_originalfast12_score_d.se66 PAGE   46

    2476                    ;** --------------------------------------------------------------------------*
    2477 00000714           $C$L25:    
    2478                    ;          EXCLUSIVE CPU CYCLES: 7
    2479                    ;**     -----------------------g35:
    2480                    ;** 171 -----------------------    VLIB_profile_cycle_report(1, NULL, "n_features_12; Performance is d
    2481                    ;** 158 -----------------------    printf((const char *)"---------------------------------------------
    2482                    ;** 165 -----------------------    VLIB_stack_memory();  // [17]
    2483                    ;**     -----------------------    return;
    2484 00000714 03000028!            MVKL    .S1     $C$SL5+0,A6
    2485                    $C$DW$168       .dwtag  DW_TAG_TI_branch
    2486                            .dwattr $C$DW$168, DW_AT_low_pc(0x00)
    2487                            .dwattr $C$DW$168, DW_AT_name("VLIB_profile_cycle_report")
    2488                            .dwattr $C$DW$168, DW_AT_TI_call
    2489                    
    2490 00000718 10000013!            CALLP   .S2     VLIB_profile_cycle_report,B3
    2491 0000071c 03000069! ||         MVKH    .S1     $C$SL5+0,A6
    2492 00000720     2626  ||         MVK     .L1     0x1,A4            ; |171| 
    2493 00000722     0627  ||         ZERO    .L2     B4                ; |171| 
    2494                    
    2495                            .dwpsn  file "./../packages/ti/vlib/src/VLIB_originalfast12_score/VLIB_originalfast12_score_d.
    2496                    ;----------------------------------------------------------------------
    2497                    ; 171 | VLIB_profile_cycle_report(vlib_PROFILE_RANGE,                          
    2498                    ; 172 |                           NULL,                                        
    2499                    ; 173 |                           "n_features_12; Performance is data dependent
    2500                    ;     | .");                                                                   
    2501                    ; 176 | VLIB_kernel_memory();                                                  
    2502                    ;----------------------------------------------------------------------
    2503 00000724           $C$RL32:   ; CALL OCCURS {VLIB_profile_cycle_report} {0}  ; |171| 
    2504                    ;** --------------------------------------------------------------------------*
    2505                    ;          EXCLUSIVE CPU CYCLES: 14
    2506 00000724 0200002a!            MVKL    .S2     $C$SL6+0,B4
    2507 00000728 0200006a!            MVKH    .S2     $C$SL6+0,B4
    2508                    $C$DW$169       .dwtag  DW_TAG_TI_branch
    2509                            .dwattr $C$DW$169, DW_AT_low_pc(0x00)
    2510                            .dwattr $C$DW$169, DW_AT_name("printf")
    2511                            .dwattr $C$DW$169, DW_AT_TI_call
    2512                    
    2513 0000072c 10000013!            CALLP   .S2     printf,B3
    2514 00000730 023c22f6  ||         STW     .D2T2   B4,*+SP(4)        ; |158| 
    2515                    
    2516                            .dwpsn  file ".\..\packages\ti\vlib\src\VLIB_originalfast12_score\../common/VLIB_memory.h",lin
    2517                    $C$RL33:   ; CALL OCCURS {printf} {0}        ; |158| 
    2518                    $C$DW$170       .dwtag  DW_TAG_TI_branch
    2519                            .dwattr $C$DW$170, DW_AT_low_pc(0x00)
    2520                            .dwattr $C$DW$170, DW_AT_name("VLIB_stack_memory")
    2521                            .dwattr $C$DW$170, DW_AT_TI_call
    2522 00000734 10000012!            CALLP   .S2     VLIB_stack_memory,B3
    2523                            .dwpsn  file ".\..\packages\ti\vlib\src\VLIB_originalfast12_score\../common/VLIB_memory.h",lin
    2524 00000738           $C$RL34:   ; CALL OCCURS {VLIB_stack_memory} {0}  ; |165| 
    2525                    ;** --------------------------------------------------------------------------*
    2526                    ;          EXCLUSIVE CPU CYCLES: 13
    2527                            .dwpsn  file "./../packages/ti/vlib/src/VLIB_originalfast12_score/VLIB_originalfast12_score_d.
    2528 00000738 01be92e6             LDW     .D2T2   *++SP(80),B3      ; |177| 
    2529                            .dwcfi  cfa_offset, 48
    2530                            .dwcfi  restore_reg, 19
TMS320C6x Assembler PC v7.4.2 Thu Mar 19 12:44:14 2015

Tools Copyright (c) 1996-2012 Texas Instruments Incorporated
package/lib/Regression/regress_d_c/./../packages/ti/vlib/src/VLIB_originalfast12_score/VLIB_originalfast12_score_d.se66 PAGE   47

    2531 00000740 063c33e4             LDDW    .D2T1   *++SP,A13:A12
    2532                            .dwcfi  cfa_offset, 40
    2533                            .dwcfi  restore_reg, 13
    2534                            .dwcfi  restore_reg, 12
    2535 00000744 073c33e4             LDDW    .D2T1   *++SP,A15:A14
    2536                            .dwcfi  cfa_offset, 32
    2537                            .dwcfi  restore_reg, 15
    2538                            .dwcfi  restore_reg, 14
    2539 00000748 053c33e6             LDDW    .D2T2   *++SP,B11:B10
    2540                            .dwcfi  cfa_offset, 24
    2541                            .dwcfi  restore_reg, 27
    2542                            .dwcfi  restore_reg, 26
    2543 0000074c 063c33e6             LDDW    .D2T2   *++SP,B13:B12
    2544                            .dwcfi  cfa_offset, 16
    2545                            .dwcfi  restore_reg, 29
    2546                            .dwcfi  restore_reg, 28
    2547 00000750 053c52e4             LDW     .D2T1   *++SP(8),A10
    2548                            .dwcfi  cfa_offset, 8
    2549                            .dwcfi  restore_reg, 10
    2550 00000754 05bc52e4             LDW     .D2T1   *++SP(8),A11      ; |177| 
    2551                            .dwcfi  cfa_offset, 0
    2552                            .dwcfi  restore_reg, 11
    2553                            .dwcfi  cfa_offset, 0
    2554                    $C$DW$171       .dwtag  DW_TAG_TI_branch
    2555                            .dwattr $C$DW$171, DW_AT_low_pc(0x00)
    2556                            .dwattr $C$DW$171, DW_AT_TI_return
    2557 00000758 008ca362             RETNOP  .S2     B3,5
    2558                               ; BRANCH OCCURS {B3}  
    2559                    
    2560                    $C$DW$172       .dwtag  DW_TAG_TI_loop
    2561                            .dwattr $C$DW$172, DW_AT_name("c:\nightlybuilds\vlib\ti\vlib\vlib\examples\package/lib/Regress
    2562                            .dwattr $C$DW$172, DW_AT_TI_begin_file("./../packages/ti/vlib/src/VLIB_originalfast12_score/VL
    2563                            .dwattr $C$DW$172, DW_AT_TI_begin_line(0x33)
    2564                            .dwattr $C$DW$172, DW_AT_TI_end_line(0xa8)
    2565                    $C$DW$173       .dwtag  DW_TAG_TI_loop_range
    2566                            .dwattr $C$DW$173, DW_AT_low_pc($C$DW$L$VLIB_originalfast12_score_d$4$B)
    2567                            .dwattr $C$DW$173, DW_AT_high_pc($C$DW$L$VLIB_originalfast12_score_d$4$E)
    2568                    $C$DW$174       .dwtag  DW_TAG_TI_loop_range
    2569                            .dwattr $C$DW$174, DW_AT_low_pc($C$DW$L$VLIB_originalfast12_score_d$45$B)
    2570                            .dwattr $C$DW$174, DW_AT_high_pc($C$DW$L$VLIB_originalfast12_score_d$45$E)
    2571                    $C$DW$175       .dwtag  DW_TAG_TI_loop_range
    2572                            .dwattr $C$DW$175, DW_AT_low_pc($C$DW$L$VLIB_originalfast12_score_d$46$B)
    2573                            .dwattr $C$DW$175, DW_AT_high_pc($C$DW$L$VLIB_originalfast12_score_d$46$E)
    2574                    $C$DW$176       .dwtag  DW_TAG_TI_loop_range
    2575                            .dwattr $C$DW$176, DW_AT_low_pc($C$DW$L$VLIB_originalfast12_score_d$47$B)
    2576                            .dwattr $C$DW$176, DW_AT_high_pc($C$DW$L$VLIB_originalfast12_score_d$47$E)
    2577                    $C$DW$177       .dwtag  DW_TAG_TI_loop_range
    2578                            .dwattr $C$DW$177, DW_AT_low_pc($C$DW$L$VLIB_originalfast12_score_d$48$B)
    2579                            .dwattr $C$DW$177, DW_AT_high_pc($C$DW$L$VLIB_originalfast12_score_d$48$E)
    2580                    $C$DW$178       .dwtag  DW_TAG_TI_loop_range
    2581                            .dwattr $C$DW$178, DW_AT_low_pc($C$DW$L$VLIB_originalfast12_score_d$38$B)
    2582                            .dwattr $C$DW$178, DW_AT_high_pc($C$DW$L$VLIB_originalfast12_score_d$38$E)
    2583                    $C$DW$179       .dwtag  DW_TAG_TI_loop_range
    2584                            .dwattr $C$DW$179, DW_AT_low_pc($C$DW$L$VLIB_originalfast12_score_d$39$B)
    2585                            .dwattr $C$DW$179, DW_AT_high_pc($C$DW$L$VLIB_originalfast12_score_d$39$E)
TMS320C6x Assembler PC v7.4.2 Thu Mar 19 12:44:14 2015

Tools Copyright (c) 1996-2012 Texas Instruments Incorporated
package/lib/Regression/regress_d_c/./../packages/ti/vlib/src/VLIB_originalfast12_score/VLIB_originalfast12_score_d.se66 PAGE   48

    2586                    $C$DW$180       .dwtag  DW_TAG_TI_loop_range
    2587                            .dwattr $C$DW$180, DW_AT_low_pc($C$DW$L$VLIB_originalfast12_score_d$37$B)
    2588                            .dwattr $C$DW$180, DW_AT_high_pc($C$DW$L$VLIB_originalfast12_score_d$37$E)
    2589                    $C$DW$181       .dwtag  DW_TAG_TI_loop_range
    2590                            .dwattr $C$DW$181, DW_AT_low_pc($C$DW$L$VLIB_originalfast12_score_d$40$B)
    2591                            .dwattr $C$DW$181, DW_AT_high_pc($C$DW$L$VLIB_originalfast12_score_d$40$E)
    2592                    $C$DW$182       .dwtag  DW_TAG_TI_loop_range
    2593                            .dwattr $C$DW$182, DW_AT_low_pc($C$DW$L$VLIB_originalfast12_score_d$27$B)
    2594                            .dwattr $C$DW$182, DW_AT_high_pc($C$DW$L$VLIB_originalfast12_score_d$27$E)
    2595                    $C$DW$183       .dwtag  DW_TAG_TI_loop_range
    2596                            .dwattr $C$DW$183, DW_AT_low_pc($C$DW$L$VLIB_originalfast12_score_d$26$B)
    2597                            .dwattr $C$DW$183, DW_AT_high_pc($C$DW$L$VLIB_originalfast12_score_d$26$E)
    2598                    $C$DW$184       .dwtag  DW_TAG_TI_loop_range
    2599                            .dwattr $C$DW$184, DW_AT_low_pc($C$DW$L$VLIB_originalfast12_score_d$28$B)
    2600                            .dwattr $C$DW$184, DW_AT_high_pc($C$DW$L$VLIB_originalfast12_score_d$28$E)
    2601                    $C$DW$185       .dwtag  DW_TAG_TI_loop_range
    2602                            .dwattr $C$DW$185, DW_AT_low_pc($C$DW$L$VLIB_originalfast12_score_d$14$B)
    2603                            .dwattr $C$DW$185, DW_AT_high_pc($C$DW$L$VLIB_originalfast12_score_d$14$E)
    2604                    $C$DW$186       .dwtag  DW_TAG_TI_loop_range
    2605                            .dwattr $C$DW$186, DW_AT_low_pc($C$DW$L$VLIB_originalfast12_score_d$7$B)
    2606                            .dwattr $C$DW$186, DW_AT_high_pc($C$DW$L$VLIB_originalfast12_score_d$7$E)
    2607                    $C$DW$187       .dwtag  DW_TAG_TI_loop_range
    2608                            .dwattr $C$DW$187, DW_AT_low_pc($C$DW$L$VLIB_originalfast12_score_d$8$B)
    2609                            .dwattr $C$DW$187, DW_AT_high_pc($C$DW$L$VLIB_originalfast12_score_d$8$E)
    2610                    $C$DW$188       .dwtag  DW_TAG_TI_loop_range
    2611                            .dwattr $C$DW$188, DW_AT_low_pc($C$DW$L$VLIB_originalfast12_score_d$5$B)
    2612                            .dwattr $C$DW$188, DW_AT_high_pc($C$DW$L$VLIB_originalfast12_score_d$5$E)
    2613                    $C$DW$189       .dwtag  DW_TAG_TI_loop_range
    2614                            .dwattr $C$DW$189, DW_AT_low_pc($C$DW$L$VLIB_originalfast12_score_d$6$B)
    2615                            .dwattr $C$DW$189, DW_AT_high_pc($C$DW$L$VLIB_originalfast12_score_d$6$E)
    2616                    $C$DW$190       .dwtag  DW_TAG_TI_loop_range
    2617                            .dwattr $C$DW$190, DW_AT_low_pc($C$DW$L$VLIB_originalfast12_score_d$9$B)
    2618                            .dwattr $C$DW$190, DW_AT_high_pc($C$DW$L$VLIB_originalfast12_score_d$9$E)
    2619                    $C$DW$191       .dwtag  DW_TAG_TI_loop_range
    2620                            .dwattr $C$DW$191, DW_AT_low_pc($C$DW$L$VLIB_originalfast12_score_d$10$B)
    2621                            .dwattr $C$DW$191, DW_AT_high_pc($C$DW$L$VLIB_originalfast12_score_d$10$E)
    2622                    $C$DW$192       .dwtag  DW_TAG_TI_loop_range
    2623                            .dwattr $C$DW$192, DW_AT_low_pc($C$DW$L$VLIB_originalfast12_score_d$11$B)
    2624                            .dwattr $C$DW$192, DW_AT_high_pc($C$DW$L$VLIB_originalfast12_score_d$11$E)
    2625                    $C$DW$193       .dwtag  DW_TAG_TI_loop_range
    2626                            .dwattr $C$DW$193, DW_AT_low_pc($C$DW$L$VLIB_originalfast12_score_d$12$B)
    2627                            .dwattr $C$DW$193, DW_AT_high_pc($C$DW$L$VLIB_originalfast12_score_d$12$E)
    2628                    $C$DW$194       .dwtag  DW_TAG_TI_loop_range
    2629                            .dwattr $C$DW$194, DW_AT_low_pc($C$DW$L$VLIB_originalfast12_score_d$13$B)
    2630                            .dwattr $C$DW$194, DW_AT_high_pc($C$DW$L$VLIB_originalfast12_score_d$13$E)
    2631                    $C$DW$195       .dwtag  DW_TAG_TI_loop_range
    2632                            .dwattr $C$DW$195, DW_AT_low_pc($C$DW$L$VLIB_originalfast12_score_d$18$B)
    2633                            .dwattr $C$DW$195, DW_AT_high_pc($C$DW$L$VLIB_originalfast12_score_d$18$E)
    2634                    $C$DW$196       .dwtag  DW_TAG_TI_loop_range
    2635                            .dwattr $C$DW$196, DW_AT_low_pc($C$DW$L$VLIB_originalfast12_score_d$19$B)
    2636                            .dwattr $C$DW$196, DW_AT_high_pc($C$DW$L$VLIB_originalfast12_score_d$19$E)
    2637                    $C$DW$197       .dwtag  DW_TAG_TI_loop_range
    2638                            .dwattr $C$DW$197, DW_AT_low_pc($C$DW$L$VLIB_originalfast12_score_d$20$B)
    2639                            .dwattr $C$DW$197, DW_AT_high_pc($C$DW$L$VLIB_originalfast12_score_d$20$E)
    2640                    $C$DW$198       .dwtag  DW_TAG_TI_loop_range
TMS320C6x Assembler PC v7.4.2 Thu Mar 19 12:44:14 2015

Tools Copyright (c) 1996-2012 Texas Instruments Incorporated
package/lib/Regression/regress_d_c/./../packages/ti/vlib/src/VLIB_originalfast12_score/VLIB_originalfast12_score_d.se66 PAGE   49

    2641                            .dwattr $C$DW$198, DW_AT_low_pc($C$DW$L$VLIB_originalfast12_score_d$21$B)
    2642                            .dwattr $C$DW$198, DW_AT_high_pc($C$DW$L$VLIB_originalfast12_score_d$21$E)
    2643                    $C$DW$199       .dwtag  DW_TAG_TI_loop_range
    2644                            .dwattr $C$DW$199, DW_AT_low_pc($C$DW$L$VLIB_originalfast12_score_d$25$B)
    2645                            .dwattr $C$DW$199, DW_AT_high_pc($C$DW$L$VLIB_originalfast12_score_d$25$E)
    2646                    $C$DW$200       .dwtag  DW_TAG_TI_loop_range
    2647                            .dwattr $C$DW$200, DW_AT_low_pc($C$DW$L$VLIB_originalfast12_score_d$29$B)
    2648                            .dwattr $C$DW$200, DW_AT_high_pc($C$DW$L$VLIB_originalfast12_score_d$29$E)
    2649                    $C$DW$201       .dwtag  DW_TAG_TI_loop_range
    2650                            .dwattr $C$DW$201, DW_AT_low_pc($C$DW$L$VLIB_originalfast12_score_d$30$B)
    2651                            .dwattr $C$DW$201, DW_AT_high_pc($C$DW$L$VLIB_originalfast12_score_d$30$E)
    2652                    $C$DW$202       .dwtag  DW_TAG_TI_loop_range
    2653                            .dwattr $C$DW$202, DW_AT_low_pc($C$DW$L$VLIB_originalfast12_score_d$31$B)
    2654                            .dwattr $C$DW$202, DW_AT_high_pc($C$DW$L$VLIB_originalfast12_score_d$31$E)
    2655                    $C$DW$203       .dwtag  DW_TAG_TI_loop_range
    2656                            .dwattr $C$DW$203, DW_AT_low_pc($C$DW$L$VLIB_originalfast12_score_d$32$B)
    2657                            .dwattr $C$DW$203, DW_AT_high_pc($C$DW$L$VLIB_originalfast12_score_d$32$E)
    2658                    $C$DW$204       .dwtag  DW_TAG_TI_loop_range
    2659                            .dwattr $C$DW$204, DW_AT_low_pc($C$DW$L$VLIB_originalfast12_score_d$36$B)
    2660                            .dwattr $C$DW$204, DW_AT_high_pc($C$DW$L$VLIB_originalfast12_score_d$36$E)
    2661                    $C$DW$205       .dwtag  DW_TAG_TI_loop_range
    2662                            .dwattr $C$DW$205, DW_AT_low_pc($C$DW$L$VLIB_originalfast12_score_d$41$B)
    2663                            .dwattr $C$DW$205, DW_AT_high_pc($C$DW$L$VLIB_originalfast12_score_d$41$E)
    2664                    $C$DW$206       .dwtag  DW_TAG_TI_loop_range
    2665                            .dwattr $C$DW$206, DW_AT_low_pc($C$DW$L$VLIB_originalfast12_score_d$42$B)
    2666                            .dwattr $C$DW$206, DW_AT_high_pc($C$DW$L$VLIB_originalfast12_score_d$42$E)
    2667                    $C$DW$207       .dwtag  DW_TAG_TI_loop_range
    2668                            .dwattr $C$DW$207, DW_AT_low_pc($C$DW$L$VLIB_originalfast12_score_d$43$B)
    2669                            .dwattr $C$DW$207, DW_AT_high_pc($C$DW$L$VLIB_originalfast12_score_d$43$E)
    2670                    $C$DW$208       .dwtag  DW_TAG_TI_loop_range
    2671                            .dwattr $C$DW$208, DW_AT_low_pc($C$DW$L$VLIB_originalfast12_score_d$44$B)
    2672                            .dwattr $C$DW$208, DW_AT_high_pc($C$DW$L$VLIB_originalfast12_score_d$44$E)
    2673                    $C$DW$209       .dwtag  DW_TAG_TI_loop_range
    2674                            .dwattr $C$DW$209, DW_AT_low_pc($C$DW$L$VLIB_originalfast12_score_d$49$B)
    2675                            .dwattr $C$DW$209, DW_AT_high_pc($C$DW$L$VLIB_originalfast12_score_d$49$E)
    2676                    $C$DW$210       .dwtag  DW_TAG_TI_loop_range
    2677                            .dwattr $C$DW$210, DW_AT_low_pc($C$DW$L$VLIB_originalfast12_score_d$50$B)
    2678                            .dwattr $C$DW$210, DW_AT_high_pc($C$DW$L$VLIB_originalfast12_score_d$50$E)
    2679                    $C$DW$211       .dwtag  DW_TAG_TI_loop_range
    2680                            .dwattr $C$DW$211, DW_AT_low_pc($C$DW$L$VLIB_originalfast12_score_d$51$B)
    2681                            .dwattr $C$DW$211, DW_AT_high_pc($C$DW$L$VLIB_originalfast12_score_d$51$E)
    2682                    $C$DW$212       .dwtag  DW_TAG_TI_loop_range
    2683                            .dwattr $C$DW$212, DW_AT_low_pc($C$DW$L$VLIB_originalfast12_score_d$52$B)
    2684                            .dwattr $C$DW$212, DW_AT_high_pc($C$DW$L$VLIB_originalfast12_score_d$52$E)
    2685                    
    2686                    $C$DW$213       .dwtag  DW_TAG_TI_loop
    2687                            .dwattr $C$DW$213, DW_AT_name("c:\nightlybuilds\vlib\ti\vlib\vlib\examples\package/lib/Regress
    2688                            .dwattr $C$DW$213, DW_AT_TI_begin_file("./../packages/ti/vlib/src/VLIB_originalfast12_score/VL
    2689                            .dwattr $C$DW$213, DW_AT_TI_begin_line(0x5d)
    2690                            .dwattr $C$DW$213, DW_AT_TI_end_line(0x62)
    2691                    $C$DW$214       .dwtag  DW_TAG_TI_loop_range
    2692                            .dwattr $C$DW$214, DW_AT_low_pc($C$DW$L$VLIB_originalfast12_score_d$16$B)
    2693                            .dwattr $C$DW$214, DW_AT_high_pc($C$DW$L$VLIB_originalfast12_score_d$16$E)
    2694                            .dwendtag $C$DW$213
    2695                    
TMS320C6x Assembler PC v7.4.2 Thu Mar 19 12:44:14 2015

Tools Copyright (c) 1996-2012 Texas Instruments Incorporated
package/lib/Regression/regress_d_c/./../packages/ti/vlib/src/VLIB_originalfast12_score/VLIB_originalfast12_score_d.se66 PAGE   50

    2696                    
    2697                    $C$DW$215       .dwtag  DW_TAG_TI_loop
    2698                            .dwattr $C$DW$215, DW_AT_name("c:\nightlybuilds\vlib\ti\vlib\vlib\examples\package/lib/Regress
    2699                            .dwattr $C$DW$215, DW_AT_TI_begin_file("./../packages/ti/vlib/src/VLIB_originalfast12_score/VL
    2700                            .dwattr $C$DW$215, DW_AT_TI_begin_line(0x77)
    2701                            .dwattr $C$DW$215, DW_AT_TI_end_line(0x7f)
    2702                    $C$DW$216       .dwtag  DW_TAG_TI_loop_range
    2703                            .dwattr $C$DW$216, DW_AT_low_pc($C$DW$L$VLIB_originalfast12_score_d$23$B)
    2704                            .dwattr $C$DW$216, DW_AT_high_pc($C$DW$L$VLIB_originalfast12_score_d$23$E)
    2705                            .dwendtag $C$DW$215
    2706                    
    2707                    
    2708                    $C$DW$217       .dwtag  DW_TAG_TI_loop
    2709                            .dwattr $C$DW$217, DW_AT_name("c:\nightlybuilds\vlib\ti\vlib\vlib\examples\package/lib/Regress
    2710                            .dwattr $C$DW$217, DW_AT_TI_begin_file("./../packages/ti/vlib/src/VLIB_originalfast12_score/VL
    2711                            .dwattr $C$DW$217, DW_AT_TI_begin_line(0x83)
    2712                            .dwattr $C$DW$217, DW_AT_TI_end_line(0x8b)
    2713                    $C$DW$218       .dwtag  DW_TAG_TI_loop_range
    2714                            .dwattr $C$DW$218, DW_AT_low_pc($C$DW$L$VLIB_originalfast12_score_d$34$B)
    2715                            .dwattr $C$DW$218, DW_AT_high_pc($C$DW$L$VLIB_originalfast12_score_d$34$E)
    2716                            .dwendtag $C$DW$217
    2717                    
    2718                            .dwendtag $C$DW$172
    2719                    
    2720                            .dwattr $C$DW$81, DW_AT_TI_end_file("./../packages/ti/vlib/src/VLIB_originalfast12_score/VLIB_
    2721                            .dwattr $C$DW$81, DW_AT_TI_end_line(0xb1)
    2722                            .dwattr $C$DW$81, DW_AT_TI_end_column(0x01)
    2723                            .dwendentry
    2724                            .dwendtag $C$DW$81
    2725                    
    2726                    ;; Inlined function references:
    2727                    ;; [ 14] VLIB_profile_start
    2728                    ;; [ 15] VLIB_profile_stop
    2729                    ;; [ 17] VLIB_kernel_memory
    2730                    ;******************************************************************************
    2731                    ;* STRINGS                                                                    *
    2732                    ;******************************************************************************
    2733 00000000                   .sect   ".const:.string"
    2734 00000000 00000056  $C$SL1: .string "VLIB_originalfast12_score",0
         00000001 0000004C 
         00000002 00000049 
         00000003 00000042 
         00000004 0000005F 
         00000005 0000006F 
         00000006 00000072 
         00000007 00000069 
         00000008 00000067 
         00000009 00000069 
         0000000a 0000006E 
         0000000b 00000061 
         0000000c 0000006C 
         0000000d 00000066 
         0000000e 00000061 
         0000000f 00000073 
         00000010 00000074 
TMS320C6x Assembler PC v7.4.2 Thu Mar 19 12:44:14 2015

Tools Copyright (c) 1996-2012 Texas Instruments Incorporated
package/lib/Regression/regress_d_c/./../packages/ti/vlib/src/VLIB_originalfast12_score/VLIB_originalfast12_score_d.se66 PAGE   51

         00000011 00000031 
         00000012 00000032 
         00000013 0000005F 
         00000014 00000073 
         00000015 00000063 
         00000016 0000006F 
         00000017 00000072 
         00000018 00000065 
         00000019 00000000 
    2735 0000001a 00000020  $C$SL2: .string " Mismatch in Index = %u ",10,0
         0000001b 0000004D 
         0000001c 00000069 
         0000001d 00000073 
         0000001e 0000006D 
         0000001f 00000061 
         00000020 00000074 
         00000021 00000063 
         00000022 00000068 
         00000023 00000020 
         00000024 00000069 
         00000025 0000006E 
         00000026 00000020 
         00000027 00000049 
         00000028 0000006E 
         00000029 00000064 
         0000002a 00000065 
         0000002b 00000078 
         0000002c 00000020 
         0000002d 0000003D 
         0000002e 00000020 
         0000002f 00000025 
         00000030 00000075 
         00000031 00000020 
         00000032 0000000A 
         00000033 00000000 
    2736 00000034 00000025  $C$SL3: .string "%s generated input | Opt and NatC results compared | n_feat"
         00000035 00000073 
         00000036 00000020 
         00000037 00000067 
         00000038 00000065 
         00000039 0000006E 
         0000003a 00000065 
         0000003b 00000072 
         0000003c 00000061 
         0000003d 00000074 
         0000003e 00000065 
         0000003f 00000064 
         00000040 00000020 
         00000041 00000069 
         00000042 0000006E 
         00000043 00000070 
         00000044 00000075 
         00000045 00000074 
         00000046 00000020 
         00000047 0000007C 
TMS320C6x Assembler PC v7.4.2 Thu Mar 19 12:44:14 2015

Tools Copyright (c) 1996-2012 Texas Instruments Incorporated
package/lib/Regression/regress_d_c/./../packages/ti/vlib/src/VLIB_originalfast12_score/VLIB_originalfast12_score_d.se66 PAGE   52

         00000048 00000020 
         00000049 0000004F 
         0000004a 00000070 
         0000004b 00000074 
         0000004c 00000020 
         0000004d 00000061 
         0000004e 0000006E 
         0000004f 00000064 
         00000050 00000020 
         00000051 0000004E 
         00000052 00000061 
         00000053 00000074 
         00000054 00000043 
         00000055 00000020 
         00000056 00000072 
         00000057 00000065 
         00000058 00000073 
         00000059 00000075 
         0000005a 0000006C 
         0000005b 00000074 
         0000005c 00000073 
         0000005d 00000020 
         0000005e 00000063 
         0000005f 0000006F 
         00000060 0000006D 
         00000061 00000070 
         00000062 00000061 
         00000063 00000072 
         00000064 00000065 
         00000065 00000064 
         00000066 00000020 
         00000067 0000007C 
         00000068 00000020 
         00000069 0000006E 
         0000006a 0000005F 
         0000006b 00000066 
         0000006c 00000065 
         0000006d 00000061 
         0000006e 00000074 
    2737 0000006f 00000075          .string "ures_12= %d, fastDifferenceThreshold= %d, %s",0
         00000070 00000072 
         00000071 00000065 
         00000072 00000073 
         00000073 0000005F 
         00000074 00000031 
         00000075 00000032 
         00000076 0000003D 
         00000077 00000020 
         00000078 00000025 
         00000079 00000064 
         0000007a 0000002C 
         0000007b 00000020 
         0000007c 00000066 
         0000007d 00000061 
         0000007e 00000073 
TMS320C6x Assembler PC v7.4.2 Thu Mar 19 12:44:14 2015

Tools Copyright (c) 1996-2012 Texas Instruments Incorporated
package/lib/Regression/regress_d_c/./../packages/ti/vlib/src/VLIB_originalfast12_score/VLIB_originalfast12_score_d.se66 PAGE   53

         0000007f 00000074 
         00000080 00000044 
         00000081 00000069 
         00000082 00000066 
         00000083 00000066 
         00000084 00000065 
         00000085 00000072 
         00000086 00000065 
         00000087 0000006E 
         00000088 00000063 
         00000089 00000065 
         0000008a 00000054 
         0000008b 00000068 
         0000008c 00000072 
         0000008d 00000065 
         0000008e 00000073 
         0000008f 00000068 
         00000090 0000006F 
         00000091 0000006C 
         00000092 00000064 
         00000093 0000003D 
         00000094 00000020 
         00000095 00000025 
         00000096 00000064 
         00000097 0000002C 
         00000098 00000020 
         00000099 00000025 
         0000009a 00000073 
         0000009b 00000000 
    2738 0000009c 0000006E  $C$SL4: .string "n_features_12= %d",0
         0000009d 0000005F 
         0000009e 00000066 
         0000009f 00000065 
         000000a0 00000061 
         000000a1 00000074 
         000000a2 00000075 
         000000a3 00000072 
         000000a4 00000065 
         000000a5 00000073 
         000000a6 0000005F 
         000000a7 00000031 
         000000a8 00000032 
         000000a9 0000003D 
         000000aa 00000020 
         000000ab 00000025 
         000000ac 00000064 
         000000ad 00000000 
    2739 000000ae 0000006E  $C$SL5: .string "n_features_12; Performance is data dependent.",0
         000000af 0000005F 
         000000b0 00000066 
         000000b1 00000065 
         000000b2 00000061 
         000000b3 00000074 
         000000b4 00000075 
         000000b5 00000072 
TMS320C6x Assembler PC v7.4.2 Thu Mar 19 12:44:14 2015

Tools Copyright (c) 1996-2012 Texas Instruments Incorporated
package/lib/Regression/regress_d_c/./../packages/ti/vlib/src/VLIB_originalfast12_score/VLIB_originalfast12_score_d.se66 PAGE   54

         000000b6 00000065 
         000000b7 00000073 
         000000b8 0000005F 
         000000b9 00000031 
         000000ba 00000032 
         000000bb 0000003B 
         000000bc 00000020 
         000000bd 00000050 
         000000be 00000065 
         000000bf 00000072 
         000000c0 00000066 
         000000c1 0000006F 
         000000c2 00000072 
         000000c3 0000006D 
         000000c4 00000061 
         000000c5 0000006E 
         000000c6 00000063 
         000000c7 00000065 
         000000c8 00000020 
         000000c9 00000069 
         000000ca 00000073 
         000000cb 00000020 
         000000cc 00000064 
         000000cd 00000061 
         000000ce 00000074 
         000000cf 00000061 
         000000d0 00000020 
         000000d1 00000064 
         000000d2 00000065 
         000000d3 00000070 
         000000d4 00000065 
         000000d5 0000006E 
         000000d6 00000064 
         000000d7 00000065 
         000000d8 0000006E 
         000000d9 00000074 
         000000da 0000002E 
         000000db 00000000 
    2740 000000dc 0000002D  $C$SL6: .string "-----------------------------------------------------------"
         000000dd 0000002D 
         000000de 0000002D 
         000000df 0000002D 
         000000e0 0000002D 
         000000e1 0000002D 
         000000e2 0000002D 
         000000e3 0000002D 
         000000e4 0000002D 
         000000e5 0000002D 
         000000e6 0000002D 
         000000e7 0000002D 
         000000e8 0000002D 
         000000e9 0000002D 
         000000ea 0000002D 
         000000eb 0000002D 
         000000ec 0000002D 
TMS320C6x Assembler PC v7.4.2 Thu Mar 19 12:44:14 2015

Tools Copyright (c) 1996-2012 Texas Instruments Incorporated
package/lib/Regression/regress_d_c/./../packages/ti/vlib/src/VLIB_originalfast12_score/VLIB_originalfast12_score_d.se66 PAGE   55

         000000ed 0000002D 
         000000ee 0000002D 
         000000ef 0000002D 
         000000f0 0000002D 
         000000f1 0000002D 
         000000f2 0000002D 
         000000f3 0000002D 
         000000f4 0000002D 
         000000f5 0000002D 
         000000f6 0000002D 
         000000f7 0000002D 
         000000f8 0000002D 
         000000f9 0000002D 
         000000fa 0000002D 
         000000fb 0000002D 
         000000fc 0000002D 
         000000fd 0000002D 
         000000fe 0000002D 
         000000ff 0000002D 
         00000100 0000002D 
         00000101 0000002D 
         00000102 0000002D 
         00000103 0000002D 
         00000104 0000002D 
         00000105 0000002D 
         00000106 0000002D 
         00000107 0000002D 
         00000108 0000002D 
         00000109 0000002D 
         0000010a 0000002D 
         0000010b 0000002D 
         0000010c 0000002D 
         0000010d 0000002D 
         0000010e 0000002D 
         0000010f 0000002D 
         00000110 0000002D 
         00000111 0000002D 
         00000112 0000002D 
         00000113 0000002D 
         00000114 0000002D 
         00000115 0000002D 
         00000116 0000002D 
    2741 00000117 0000002D          .string "-----------------------------------------------------------"
         00000118 0000002D 
         00000119 0000002D 
         0000011a 0000002D 
         0000011b 0000002D 
         0000011c 0000002D 
         0000011d 0000002D 
         0000011e 0000002D 
         0000011f 0000002D 
         00000120 0000002D 
         00000121 0000002D 
         00000122 0000002D 
         00000123 0000002D 
TMS320C6x Assembler PC v7.4.2 Thu Mar 19 12:44:14 2015

Tools Copyright (c) 1996-2012 Texas Instruments Incorporated
package/lib/Regression/regress_d_c/./../packages/ti/vlib/src/VLIB_originalfast12_score/VLIB_originalfast12_score_d.se66 PAGE   56

         00000124 0000002D 
         00000125 0000002D 
         00000126 0000002D 
         00000127 0000002D 
         00000128 0000002D 
         00000129 0000002D 
         0000012a 0000002D 
         0000012b 0000002D 
         0000012c 0000002D 
         0000012d 0000002D 
         0000012e 0000002D 
         0000012f 0000002D 
         00000130 0000002D 
         00000131 0000002D 
         00000132 0000002D 
         00000133 0000002D 
         00000134 0000002D 
         00000135 0000002D 
         00000136 0000002D 
         00000137 0000002D 
         00000138 0000002D 
         00000139 0000002D 
         0000013a 0000002D 
         0000013b 0000002D 
         0000013c 0000002D 
         0000013d 0000002D 
         0000013e 0000002D 
         0000013f 0000002D 
         00000140 0000002D 
         00000141 0000002D 
         00000142 0000002D 
         00000143 0000002D 
         00000144 0000002D 
         00000145 0000002D 
         00000146 0000002D 
         00000147 0000002D 
         00000148 0000002D 
         00000149 0000002D 
         0000014a 0000002D 
         0000014b 0000002D 
         0000014c 0000002D 
         0000014d 0000002D 
         0000014e 0000002D 
         0000014f 0000002D 
         00000150 0000002D 
         00000151 0000002D 
    2742 00000152 0000002D          .string "-----------------------",10,0
         00000153 0000002D 
         00000154 0000002D 
         00000155 0000002D 
         00000156 0000002D 
         00000157 0000002D 
         00000158 0000002D 
         00000159 0000002D 
         0000015a 0000002D 
TMS320C6x Assembler PC v7.4.2 Thu Mar 19 12:44:14 2015

Tools Copyright (c) 1996-2012 Texas Instruments Incorporated
package/lib/Regression/regress_d_c/./../packages/ti/vlib/src/VLIB_originalfast12_score/VLIB_originalfast12_score_d.se66 PAGE   57

         0000015b 0000002D 
         0000015c 0000002D 
         0000015d 0000002D 
         0000015e 0000002D 
         0000015f 0000002D 
         00000160 0000002D 
         00000161 0000002D 
         00000162 0000002D 
         00000163 0000002D 
         00000164 0000002D 
         00000165 0000002D 
         00000166 0000002D 
         00000167 0000002D 
         00000168 0000002D 
         00000169 0000000A 
         0000016a 00000000 
    2743                    ;*****************************************************************************
    2744                    ;* UNDEFINED EXTERNAL REFERENCES                                             *
    2745                    ;*****************************************************************************
    2746                            .global printf
    2747                            .global sprintf
    2748                            .global malloc
    2749                            .global free
    2750                            .global VLIB_cache_inval
    2751                            .global VLIB_profile_init
    2752                            .global VLIB_formula_add_test
    2753                            .global VLIB_skip_test
    2754                            .global VLIB_profile_cycle_report
    2755                            .global initStack
    2756                            .global setStackDepth
    2757                            .global getSP
    2758                            .global VLIB_stack_memory
    2759                            .global VLIB_fillBuffer
    2760                            .global VLIB_malloc
    2761                            .global VLIB_free
    2762                            .global getCORBParameters
    2763                            .global VLIB_originalfast12_score
    2764                            .global VLIB_originalfast12_score_cn
    2765                            .global originalfast12_score_getTestParams
    2766                            .global test_cases
    2767                            .global act_kernel
    2768                            .global desc
    2769                            .global testPatternString
    2770                            .global est_test
    2771                            .global beg_count
    2772                            .global end_count
    2773                            .global overhead
    2774                            .global cycles
    2775                    
    2776                    ;******************************************************************************
    2777                    ;* BUILD ATTRIBUTES                                                           *
    2778                    ;******************************************************************************
    2779                            .battr "TI", Tag_File, 1, Tag_Long_Precision_Bits(2)
