TMS320C6x Assembler PC v7.4.2 Thu Mar 19 12:43:24 2015

Tools Copyright (c) 1996-2012 Texas Instruments Incorporated
package/lib/Regression/regress_d_c/./../packages/ti/vlib/src/VLIB_mixtureOfGaussiansS16/VLIB_mixtureOfGaussiansS16_d.se66 PAGE    1

       1                    ;******************************************************************************
       2                    ;* TMS320C6x C/C++ Codegen                                          PC v7.4.2 *
       3                    ;* Date/Time created: Thu Mar 19 12:43:23 2015                                *
       4                    ;******************************************************************************
       5                            .compiler_opts --abi=eabi --c64p_l1d_workaround=off --endian=little --hll_source=on --long_pre
       6                    
       7                    ;******************************************************************************
       8                    ;* GLOBAL FILE PARAMETERS                                                     *
       9                    ;*                                                                            *
      10                    ;*   Architecture      : TMS320C66xx                                          *
      11                    ;*   Optimization      : Enabled at level 3                                   *
      12                    ;*   Optimizing for    : Speed                                                *
      13                    ;*                       Based on options: -o3, no -ms                        *
      14                    ;*   Endian            : Little                                               *
      15                    ;*   Interrupt Thrshld : 10000                                                *
      16                    ;*   Data Access Model : Far                                                  *
      17                    ;*   Pipelining        : Enabled                                              *
      18                    ;*   Speculate Loads   : Enabled with threshold = 0                           *
      19                    ;*   Memory Aliases    : Presume are aliases (pessimistic)                    *
      20                    ;*   Debug Info        : DWARF Debug w/Optimization                           *
      21                    ;*                                                                            *
      22                    ;******************************************************************************
      23                    
      24                            .asg    A15, FP
      25                            .asg    B14, DP
      26                            .asg    B15, SP
      27                            .global $bss
      28                    
      29                    
      30                    $C$DW$CU        .dwtag  DW_TAG_compile_unit
      31                            .dwattr $C$DW$CU, DW_AT_name("./../packages/ti/vlib/src/VLIB_mixtureOfGaussiansS16/VLIB_mixtur
      32                            .dwattr $C$DW$CU, DW_AT_producer("TI TMS320C6x C/C++ Codegen PC v7.4.2 Copyright (c) 1996-2012
      33                            .dwattr $C$DW$CU, DW_AT_TI_version(0x01)
      34                            .dwattr $C$DW$CU, DW_AT_comp_dir("c:\nightlybuilds\vlib\ti\vlib\vlib\examples")
      35                    
      36                    $C$DW$1 .dwtag  DW_TAG_subprogram, DW_AT_name("_itoll")
      37                            .dwattr $C$DW$1, DW_AT_TI_symbol_name("_itoll")
      38                            .dwattr $C$DW$1, DW_AT_type(*$C$DW$T$14)
      39                            .dwattr $C$DW$1, DW_AT_declaration
      40                            .dwattr $C$DW$1, DW_AT_external
      41                            .dwattr $C$DW$1, DW_AT_decl_file("C:/VLIB_Tools/CCSV5_4_0/ccsv5/tools/compiler/C6000/include/c
      42                            .dwattr $C$DW$1, DW_AT_decl_line(0xdf)
      43                            .dwattr $C$DW$1, DW_AT_decl_column(0x0b)
      44                    $C$DW$2 .dwtag  DW_TAG_formal_parameter
      45                            .dwattr $C$DW$2, DW_AT_type(*$C$DW$T$11)
      46                    $C$DW$3 .dwtag  DW_TAG_formal_parameter
      47                            .dwattr $C$DW$3, DW_AT_type(*$C$DW$T$11)
      48                            .dwendtag $C$DW$1
      49                    
      50                    
      51                    $C$DW$4 .dwtag  DW_TAG_subprogram, DW_AT_name("printf")
      52                            .dwattr $C$DW$4, DW_AT_TI_symbol_name("printf")
      53                            .dwattr $C$DW$4, DW_AT_type(*$C$DW$T$10)
      54                            .dwattr $C$DW$4, DW_AT_declaration
      55                            .dwattr $C$DW$4, DW_AT_external
TMS320C6x Assembler PC v7.4.2 Thu Mar 19 12:43:24 2015

Tools Copyright (c) 1996-2012 Texas Instruments Incorporated
package/lib/Regression/regress_d_c/./../packages/ti/vlib/src/VLIB_mixtureOfGaussiansS16/VLIB_mixtureOfGaussiansS16_d.se66 PAGE    2

      56                            .dwattr $C$DW$4, DW_AT_decl_file("C:/VLIB_Tools/CCSV5_4_0/ccsv5/tools/compiler/C6000/include/s
      57                            .dwattr $C$DW$4, DW_AT_decl_line(0xb8)
      58                            .dwattr $C$DW$4, DW_AT_decl_column(0x19)
      59                    $C$DW$5 .dwtag  DW_TAG_formal_parameter
      60                            .dwattr $C$DW$5, DW_AT_type(*$C$DW$T$121)
      61                    $C$DW$6 .dwtag  DW_TAG_unspecified_parameters
      62                            .dwendtag $C$DW$4
      63                    
      64                    
      65                    $C$DW$7 .dwtag  DW_TAG_subprogram, DW_AT_name("sprintf")
      66                            .dwattr $C$DW$7, DW_AT_TI_symbol_name("sprintf")
      67                            .dwattr $C$DW$7, DW_AT_type(*$C$DW$T$10)
      68                            .dwattr $C$DW$7, DW_AT_declaration
      69                            .dwattr $C$DW$7, DW_AT_external
      70                            .dwattr $C$DW$7, DW_AT_decl_file("C:/VLIB_Tools/CCSV5_4_0/ccsv5/tools/compiler/C6000/include/s
      71                            .dwattr $C$DW$7, DW_AT_decl_line(0xbc)
      72                            .dwattr $C$DW$7, DW_AT_decl_column(0x19)
      73                    $C$DW$8 .dwtag  DW_TAG_formal_parameter
      74                            .dwattr $C$DW$8, DW_AT_type(*$C$DW$T$60)
      75                    $C$DW$9 .dwtag  DW_TAG_formal_parameter
      76                            .dwattr $C$DW$9, DW_AT_type(*$C$DW$T$121)
      77                    $C$DW$10        .dwtag  DW_TAG_unspecified_parameters
      78                            .dwendtag $C$DW$7
      79                    
      80                    
      81                    $C$DW$11        .dwtag  DW_TAG_subprogram, DW_AT_name("memset")
      82                            .dwattr $C$DW$11, DW_AT_TI_symbol_name("memset")
      83                            .dwattr $C$DW$11, DW_AT_type(*$C$DW$T$3)
      84                            .dwattr $C$DW$11, DW_AT_declaration
      85                            .dwattr $C$DW$11, DW_AT_external
      86                            .dwattr $C$DW$11, DW_AT_decl_file("C:/VLIB_Tools/CCSV5_4_0/ccsv5/tools/compiler/C6000/include/
      87                            .dwattr $C$DW$11, DW_AT_decl_line(0x5b)
      88                            .dwattr $C$DW$11, DW_AT_decl_column(0x16)
      89                    $C$DW$12        .dwtag  DW_TAG_formal_parameter
      90                            .dwattr $C$DW$12, DW_AT_type(*$C$DW$T$3)
      91                    $C$DW$13        .dwtag  DW_TAG_formal_parameter
      92                            .dwattr $C$DW$13, DW_AT_type(*$C$DW$T$10)
      93                    $C$DW$14        .dwtag  DW_TAG_formal_parameter
      94                            .dwattr $C$DW$14, DW_AT_type(*$C$DW$T$53)
      95                            .dwendtag $C$DW$11
      96                    
      97                    
      98                    $C$DW$15        .dwtag  DW_TAG_subprogram, DW_AT_name("malloc")
      99                            .dwattr $C$DW$15, DW_AT_TI_symbol_name("malloc")
     100                            .dwattr $C$DW$15, DW_AT_type(*$C$DW$T$3)
     101                            .dwattr $C$DW$15, DW_AT_declaration
     102                            .dwattr $C$DW$15, DW_AT_external
     103                            .dwattr $C$DW$15, DW_AT_decl_file("C:/VLIB_Tools/CCSV5_4_0/ccsv5/tools/compiler/C6000/include/
     104                            .dwattr $C$DW$15, DW_AT_decl_line(0x82)
     105                            .dwattr $C$DW$15, DW_AT_decl_column(0x19)
     106                    $C$DW$16        .dwtag  DW_TAG_formal_parameter
     107                            .dwattr $C$DW$16, DW_AT_type(*$C$DW$T$53)
     108                            .dwendtag $C$DW$15
     109                    
     110                    
TMS320C6x Assembler PC v7.4.2 Thu Mar 19 12:43:24 2015

Tools Copyright (c) 1996-2012 Texas Instruments Incorporated
package/lib/Regression/regress_d_c/./../packages/ti/vlib/src/VLIB_mixtureOfGaussiansS16/VLIB_mixtureOfGaussiansS16_d.se66 PAGE    3

     111                    $C$DW$17        .dwtag  DW_TAG_subprogram, DW_AT_name("free")
     112                            .dwattr $C$DW$17, DW_AT_TI_symbol_name("free")
     113                            .dwattr $C$DW$17, DW_AT_declaration
     114                            .dwattr $C$DW$17, DW_AT_external
     115                            .dwattr $C$DW$17, DW_AT_decl_file("C:/VLIB_Tools/CCSV5_4_0/ccsv5/tools/compiler/C6000/include/
     116                            .dwattr $C$DW$17, DW_AT_decl_line(0x86)
     117                            .dwattr $C$DW$17, DW_AT_decl_column(0x19)
     118                    $C$DW$18        .dwtag  DW_TAG_formal_parameter
     119                            .dwattr $C$DW$18, DW_AT_type(*$C$DW$T$3)
     120                            .dwendtag $C$DW$17
     121                    
     122                    
     123                    $C$DW$19        .dwtag  DW_TAG_subprogram, DW_AT_name("VLIB_cache_inval")
     124                            .dwattr $C$DW$19, DW_AT_TI_symbol_name("VLIB_cache_inval")
     125                            .dwattr $C$DW$19, DW_AT_type(*$C$DW$T$10)
     126                            .dwattr $C$DW$19, DW_AT_declaration
     127                            .dwattr $C$DW$19, DW_AT_external
     128                            .dwattr $C$DW$19, DW_AT_decl_file(".\..\packages\ti\vlib\src\VLIB_mixtureOfGaussiansS16\..\com
     129                            .dwattr $C$DW$19, DW_AT_decl_line(0x58)
     130                            .dwattr $C$DW$19, DW_AT_decl_column(0x05)
     131                    
     132                    $C$DW$20        .dwtag  DW_TAG_subprogram, DW_AT_name("VLIB_getFractional16")
     133                            .dwattr $C$DW$20, DW_AT_TI_symbol_name("VLIB_getFractional16")
     134                            .dwattr $C$DW$20, DW_AT_type(*$C$DW$T$176)
     135                            .dwattr $C$DW$20, DW_AT_declaration
     136                            .dwattr $C$DW$20, DW_AT_external
     137                            .dwattr $C$DW$20, DW_AT_decl_file(".\..\packages\ti\vlib\src\VLIB_mixtureOfGaussiansS16\../com
     138                            .dwattr $C$DW$20, DW_AT_decl_line(0x7d)
     139                            .dwattr $C$DW$20, DW_AT_decl_column(0x0a)
     140                    $C$DW$21        .dwtag  DW_TAG_formal_parameter
     141                            .dwattr $C$DW$21, DW_AT_type(*$C$DW$T$21)
     142                    $C$DW$22        .dwtag  DW_TAG_formal_parameter
     143                            .dwattr $C$DW$22, DW_AT_type(*$C$DW$T$23)
     144                    $C$DW$23        .dwtag  DW_TAG_formal_parameter
     145                            .dwattr $C$DW$23, DW_AT_type(*$C$DW$T$23)
     146                            .dwendtag $C$DW$20
     147                    
     148                    
     149                    $C$DW$24        .dwtag  DW_TAG_subprogram, DW_AT_name("VLIB_profile_init")
     150                            .dwattr $C$DW$24, DW_AT_TI_symbol_name("VLIB_profile_init")
     151                            .dwattr $C$DW$24, DW_AT_declaration
     152                            .dwattr $C$DW$24, DW_AT_external
     153                            .dwattr $C$DW$24, DW_AT_decl_file(".\..\packages\ti\vlib\src\VLIB_mixtureOfGaussiansS16\..\com
     154                            .dwattr $C$DW$24, DW_AT_decl_line(0x7b)
     155                            .dwattr $C$DW$24, DW_AT_decl_column(0x06)
     156                    $C$DW$25        .dwtag  DW_TAG_formal_parameter
     157                            .dwattr $C$DW$25, DW_AT_type(*$C$DW$T$10)
     158                    $C$DW$26        .dwtag  DW_TAG_formal_parameter
     159                            .dwattr $C$DW$26, DW_AT_type(*$C$DW$T$60)
     160                            .dwendtag $C$DW$24
     161                    
     162                    
     163                    $C$DW$27        .dwtag  DW_TAG_subprogram, DW_AT_name("VLIB_formula_add_test")
     164                            .dwattr $C$DW$27, DW_AT_TI_symbol_name("VLIB_formula_add_test")
     165                            .dwattr $C$DW$27, DW_AT_declaration
TMS320C6x Assembler PC v7.4.2 Thu Mar 19 12:43:24 2015

Tools Copyright (c) 1996-2012 Texas Instruments Incorporated
package/lib/Regression/regress_d_c/./../packages/ti/vlib/src/VLIB_mixtureOfGaussiansS16/VLIB_mixtureOfGaussiansS16_d.se66 PAGE    4

     166                            .dwattr $C$DW$27, DW_AT_external
     167                            .dwattr $C$DW$27, DW_AT_decl_file(".\..\packages\ti\vlib\src\VLIB_mixtureOfGaussiansS16\..\com
     168                            .dwattr $C$DW$27, DW_AT_decl_line(0x7d)
     169                            .dwattr $C$DW$27, DW_AT_decl_column(0x06)
     170                    $C$DW$28        .dwtag  DW_TAG_formal_parameter
     171                            .dwattr $C$DW$28, DW_AT_type(*$C$DW$T$10)
     172                    $C$DW$29        .dwtag  DW_TAG_formal_parameter
     173                            .dwattr $C$DW$29, DW_AT_type(*$C$DW$T$10)
     174                    $C$DW$30        .dwtag  DW_TAG_formal_parameter
     175                            .dwattr $C$DW$30, DW_AT_type(*$C$DW$T$10)
     176                    $C$DW$31        .dwtag  DW_TAG_formal_parameter
     177                            .dwattr $C$DW$31, DW_AT_type(*$C$DW$T$10)
     178                    $C$DW$32        .dwtag  DW_TAG_formal_parameter
     179                            .dwattr $C$DW$32, DW_AT_type(*$C$DW$T$60)
     180                    $C$DW$33        .dwtag  DW_TAG_formal_parameter
     181                            .dwattr $C$DW$33, DW_AT_type(*$C$DW$T$10)
     182                            .dwendtag $C$DW$27
     183                    
     184                    
     185                    $C$DW$34        .dwtag  DW_TAG_subprogram, DW_AT_name("VLIB_skip_test")
     186                            .dwattr $C$DW$34, DW_AT_TI_symbol_name("VLIB_skip_test")
     187                            .dwattr $C$DW$34, DW_AT_declaration
     188                            .dwattr $C$DW$34, DW_AT_external
     189                            .dwattr $C$DW$34, DW_AT_decl_file(".\..\packages\ti\vlib\src\VLIB_mixtureOfGaussiansS16\..\com
     190                            .dwattr $C$DW$34, DW_AT_decl_line(0x7e)
     191                            .dwattr $C$DW$34, DW_AT_decl_column(0x06)
     192                    $C$DW$35        .dwtag  DW_TAG_formal_parameter
     193                            .dwattr $C$DW$35, DW_AT_type(*$C$DW$T$60)
     194                            .dwendtag $C$DW$34
     195                    
     196                    
     197                    $C$DW$36        .dwtag  DW_TAG_subprogram, DW_AT_name("VLIB_profile_cycle_report")
     198                            .dwattr $C$DW$36, DW_AT_TI_symbol_name("VLIB_profile_cycle_report")
     199                            .dwattr $C$DW$36, DW_AT_declaration
     200                            .dwattr $C$DW$36, DW_AT_external
     201                            .dwattr $C$DW$36, DW_AT_decl_file(".\..\packages\ti\vlib\src\VLIB_mixtureOfGaussiansS16\..\com
     202                            .dwattr $C$DW$36, DW_AT_decl_line(0x7f)
     203                            .dwattr $C$DW$36, DW_AT_decl_column(0x06)
     204                    $C$DW$37        .dwtag  DW_TAG_formal_parameter
     205                            .dwattr $C$DW$37, DW_AT_type(*$C$DW$T$10)
     206                    $C$DW$38        .dwtag  DW_TAG_formal_parameter
     207                            .dwattr $C$DW$38, DW_AT_type(*$C$DW$T$60)
     208                    $C$DW$39        .dwtag  DW_TAG_formal_parameter
     209                            .dwattr $C$DW$39, DW_AT_type(*$C$DW$T$60)
     210                            .dwendtag $C$DW$36
     211                    
     212                    
     213                    $C$DW$40        .dwtag  DW_TAG_subprogram, DW_AT_name("initStack")
     214                            .dwattr $C$DW$40, DW_AT_TI_symbol_name("initStack")
     215                            .dwattr $C$DW$40, DW_AT_declaration
     216                            .dwattr $C$DW$40, DW_AT_external
     217                            .dwattr $C$DW$40, DW_AT_decl_file(".\..\packages\ti\vlib\src\VLIB_mixtureOfGaussiansS16\..\com
     218                            .dwattr $C$DW$40, DW_AT_decl_line(0x80)
     219                            .dwattr $C$DW$40, DW_AT_decl_column(0x06)
     220                    $C$DW$41        .dwtag  DW_TAG_formal_parameter
TMS320C6x Assembler PC v7.4.2 Thu Mar 19 12:43:24 2015

Tools Copyright (c) 1996-2012 Texas Instruments Incorporated
package/lib/Regression/regress_d_c/./../packages/ti/vlib/src/VLIB_mixtureOfGaussiansS16/VLIB_mixtureOfGaussiansS16_d.se66 PAGE    5

     221                            .dwattr $C$DW$41, DW_AT_type(*$C$DW$T$69)
     222                            .dwendtag $C$DW$40
     223                    
     224                    
     225                    $C$DW$42        .dwtag  DW_TAG_subprogram, DW_AT_name("setStackDepth")
     226                            .dwattr $C$DW$42, DW_AT_TI_symbol_name("setStackDepth")
     227                            .dwattr $C$DW$42, DW_AT_declaration
     228                            .dwattr $C$DW$42, DW_AT_external
     229                            .dwattr $C$DW$42, DW_AT_decl_file(".\..\packages\ti\vlib\src\VLIB_mixtureOfGaussiansS16\..\com
     230                            .dwattr $C$DW$42, DW_AT_decl_line(0x81)
     231                            .dwattr $C$DW$42, DW_AT_decl_column(0x06)
     232                    
     233                    $C$DW$43        .dwtag  DW_TAG_subprogram, DW_AT_name("getSP")
     234                            .dwattr $C$DW$43, DW_AT_TI_symbol_name("getSP")
     235                            .dwattr $C$DW$43, DW_AT_type(*$C$DW$T$69)
     236                            .dwattr $C$DW$43, DW_AT_declaration
     237                            .dwattr $C$DW$43, DW_AT_external
     238                            .dwattr $C$DW$43, DW_AT_decl_file(".\..\packages\ti\vlib\src\VLIB_mixtureOfGaussiansS16\..\com
     239                            .dwattr $C$DW$43, DW_AT_decl_line(0x82)
     240                            .dwattr $C$DW$43, DW_AT_decl_column(0x0a)
     241                    
     242                    $C$DW$44        .dwtag  DW_TAG_subprogram, DW_AT_name("VLIB_stack_memory")
     243                            .dwattr $C$DW$44, DW_AT_TI_symbol_name("VLIB_stack_memory")
     244                            .dwattr $C$DW$44, DW_AT_declaration
     245                            .dwattr $C$DW$44, DW_AT_external
     246                            .dwattr $C$DW$44, DW_AT_decl_file(".\..\packages\ti\vlib\src\VLIB_mixtureOfGaussiansS16\..\com
     247                            .dwattr $C$DW$44, DW_AT_decl_line(0x83)
     248                            .dwattr $C$DW$44, DW_AT_decl_column(0x06)
     249                    
     250                    $C$DW$45        .dwtag  DW_TAG_subprogram, DW_AT_name("VLIB_compare_mem")
     251                            .dwattr $C$DW$45, DW_AT_TI_symbol_name("VLIB_compare_mem")
     252                            .dwattr $C$DW$45, DW_AT_type(*$C$DW$T$23)
     253                            .dwattr $C$DW$45, DW_AT_declaration
     254                            .dwattr $C$DW$45, DW_AT_external
     255                            .dwattr $C$DW$45, DW_AT_decl_file(".\..\packages\ti\vlib\src\VLIB_mixtureOfGaussiansS16\../com
     256                            .dwattr $C$DW$45, DW_AT_decl_line(0x6f)
     257                            .dwattr $C$DW$45, DW_AT_decl_column(0x11)
     258                    $C$DW$46        .dwtag  DW_TAG_formal_parameter
     259                            .dwattr $C$DW$46, DW_AT_type(*$C$DW$T$52)
     260                    $C$DW$47        .dwtag  DW_TAG_formal_parameter
     261                            .dwattr $C$DW$47, DW_AT_type(*$C$DW$T$52)
     262                    $C$DW$48        .dwtag  DW_TAG_formal_parameter
     263                            .dwattr $C$DW$48, DW_AT_type(*$C$DW$T$23)
     264                            .dwendtag $C$DW$45
     265                    
     266                    
     267                    $C$DW$49        .dwtag  DW_TAG_subprogram, DW_AT_name("VLIB_fillBuffer")
     268                            .dwattr $C$DW$49, DW_AT_TI_symbol_name("VLIB_fillBuffer")
     269                            .dwattr $C$DW$49, DW_AT_declaration
     270                            .dwattr $C$DW$49, DW_AT_external
     271                            .dwattr $C$DW$49, DW_AT_decl_file(".\..\packages\ti\vlib\src\VLIB_mixtureOfGaussiansS16\../com
     272                            .dwattr $C$DW$49, DW_AT_decl_line(0x77)
     273                            .dwattr $C$DW$49, DW_AT_decl_column(0x06)
     274                    $C$DW$50        .dwtag  DW_TAG_formal_parameter
     275                            .dwattr $C$DW$50, DW_AT_type(*$C$DW$T$19)
TMS320C6x Assembler PC v7.4.2 Thu Mar 19 12:43:24 2015

Tools Copyright (c) 1996-2012 Texas Instruments Incorporated
package/lib/Regression/regress_d_c/./../packages/ti/vlib/src/VLIB_mixtureOfGaussiansS16/VLIB_mixtureOfGaussiansS16_d.se66 PAGE    6

     276                    $C$DW$51        .dwtag  DW_TAG_formal_parameter
     277                            .dwattr $C$DW$51, DW_AT_type(*$C$DW$T$19)
     278                    $C$DW$52        .dwtag  DW_TAG_formal_parameter
     279                            .dwattr $C$DW$52, DW_AT_type(*$C$DW$T$3)
     280                    $C$DW$53        .dwtag  DW_TAG_formal_parameter
     281                            .dwattr $C$DW$53, DW_AT_type(*$C$DW$T$3)
     282                    $C$DW$54        .dwtag  DW_TAG_formal_parameter
     283                            .dwattr $C$DW$54, DW_AT_type(*$C$DW$T$75)
     284                    $C$DW$55        .dwtag  DW_TAG_formal_parameter
     285                            .dwattr $C$DW$55, DW_AT_type(*$C$DW$T$75)
     286                    $C$DW$56        .dwtag  DW_TAG_formal_parameter
     287                            .dwattr $C$DW$56, DW_AT_type(*$C$DW$T$75)
     288                    $C$DW$57        .dwtag  DW_TAG_formal_parameter
     289                            .dwattr $C$DW$57, DW_AT_type(*$C$DW$T$19)
     290                    $C$DW$58        .dwtag  DW_TAG_formal_parameter
     291                            .dwattr $C$DW$58, DW_AT_type(*$C$DW$T$60)
     292                            .dwendtag $C$DW$49
     293                    
     294                    
     295                    $C$DW$59        .dwtag  DW_TAG_subprogram, DW_AT_name("VLIB_malloc")
     296                            .dwattr $C$DW$59, DW_AT_TI_symbol_name("VLIB_malloc")
     297                            .dwattr $C$DW$59, DW_AT_type(*$C$DW$T$3)
     298                            .dwattr $C$DW$59, DW_AT_declaration
     299                            .dwattr $C$DW$59, DW_AT_external
     300                            .dwattr $C$DW$59, DW_AT_decl_file(".\..\packages\ti\vlib\src\VLIB_mixtureOfGaussiansS16\../com
     301                            .dwattr $C$DW$59, DW_AT_decl_line(0xaf)
     302                            .dwattr $C$DW$59, DW_AT_decl_column(0x07)
     303                    $C$DW$60        .dwtag  DW_TAG_formal_parameter
     304                            .dwattr $C$DW$60, DW_AT_type(*$C$DW$T$53)
     305                            .dwendtag $C$DW$59
     306                    
     307                    
     308                    $C$DW$61        .dwtag  DW_TAG_subprogram, DW_AT_name("VLIB_free")
     309                            .dwattr $C$DW$61, DW_AT_TI_symbol_name("VLIB_free")
     310                            .dwattr $C$DW$61, DW_AT_declaration
     311                            .dwattr $C$DW$61, DW_AT_external
     312                            .dwattr $C$DW$61, DW_AT_decl_file(".\..\packages\ti\vlib\src\VLIB_mixtureOfGaussiansS16\../com
     313                            .dwattr $C$DW$61, DW_AT_decl_line(0xb4)
     314                            .dwattr $C$DW$61, DW_AT_decl_column(0x07)
     315                    $C$DW$62        .dwtag  DW_TAG_formal_parameter
     316                            .dwattr $C$DW$62, DW_AT_type(*$C$DW$T$3)
     317                            .dwendtag $C$DW$61
     318                    
     319                    
     320                    $C$DW$63        .dwtag  DW_TAG_subprogram, DW_AT_name("VLIB_mixtureOfGaussiansS16")
     321                            .dwattr $C$DW$63, DW_AT_TI_symbol_name("VLIB_mixtureOfGaussiansS16")
     322                            .dwattr $C$DW$63, DW_AT_type(*$C$DW$T$23)
     323                            .dwattr $C$DW$63, DW_AT_declaration
     324                            .dwattr $C$DW$63, DW_AT_external
     325                            .dwattr $C$DW$63, DW_AT_decl_file(".\..\packages\ti\vlib\src\VLIB_mixtureOfGaussiansS16\c66/VL
     326                            .dwattr $C$DW$63, DW_AT_decl_line(0x80)
     327                            .dwattr $C$DW$63, DW_AT_decl_column(0x09)
     328                    $C$DW$64        .dwtag  DW_TAG_formal_parameter
     329                            .dwattr $C$DW$64, DW_AT_type(*$C$DW$T$112)
     330                    $C$DW$65        .dwtag  DW_TAG_formal_parameter
TMS320C6x Assembler PC v7.4.2 Thu Mar 19 12:43:24 2015

Tools Copyright (c) 1996-2012 Texas Instruments Incorporated
package/lib/Regression/regress_d_c/./../packages/ti/vlib/src/VLIB_mixtureOfGaussiansS16/VLIB_mixtureOfGaussiansS16_d.se66 PAGE    7

     331                            .dwattr $C$DW$65, DW_AT_type(*$C$DW$T$115)
     332                    $C$DW$66        .dwtag  DW_TAG_formal_parameter
     333                            .dwattr $C$DW$66, DW_AT_type(*$C$DW$T$115)
     334                    $C$DW$67        .dwtag  DW_TAG_formal_parameter
     335                            .dwattr $C$DW$67, DW_AT_type(*$C$DW$T$115)
     336                    $C$DW$68        .dwtag  DW_TAG_formal_parameter
     337                            .dwattr $C$DW$68, DW_AT_type(*$C$DW$T$109)
     338                    $C$DW$69        .dwtag  DW_TAG_formal_parameter
     339                            .dwattr $C$DW$69, DW_AT_type(*$C$DW$T$109)
     340                    $C$DW$70        .dwtag  DW_TAG_formal_parameter
     341                            .dwattr $C$DW$70, DW_AT_type(*$C$DW$T$131)
     342                    $C$DW$71        .dwtag  DW_TAG_formal_parameter
     343                            .dwattr $C$DW$71, DW_AT_type(*$C$DW$T$132)
     344                    $C$DW$72        .dwtag  DW_TAG_formal_parameter
     345                            .dwattr $C$DW$72, DW_AT_type(*$C$DW$T$116)
     346                    $C$DW$73        .dwtag  DW_TAG_formal_parameter
     347                            .dwattr $C$DW$73, DW_AT_type(*$C$DW$T$116)
     348                    $C$DW$74        .dwtag  DW_TAG_formal_parameter
     349                            .dwattr $C$DW$74, DW_AT_type(*$C$DW$T$116)
     350                    $C$DW$75        .dwtag  DW_TAG_formal_parameter
     351                            .dwattr $C$DW$75, DW_AT_type(*$C$DW$T$116)
     352                    $C$DW$76        .dwtag  DW_TAG_formal_parameter
     353                            .dwattr $C$DW$76, DW_AT_type(*$C$DW$T$116)
     354                    $C$DW$77        .dwtag  DW_TAG_formal_parameter
     355                            .dwattr $C$DW$77, DW_AT_type(*$C$DW$T$116)
     356                            .dwendtag $C$DW$63
     357                    
     358                    
     359                    $C$DW$78        .dwtag  DW_TAG_subprogram, DW_AT_name("VLIB_mixtureOfGaussiansS16_cn")
     360                            .dwattr $C$DW$78, DW_AT_TI_symbol_name("VLIB_mixtureOfGaussiansS16_cn")
     361                            .dwattr $C$DW$78, DW_AT_type(*$C$DW$T$23)
     362                            .dwattr $C$DW$78, DW_AT_declaration
     363                            .dwattr $C$DW$78, DW_AT_external
     364                            .dwattr $C$DW$78, DW_AT_decl_file(".\..\packages\ti\vlib\src\VLIB_mixtureOfGaussiansS16\VLIB_m
     365                            .dwattr $C$DW$78, DW_AT_decl_line(0x20)
     366                            .dwattr $C$DW$78, DW_AT_decl_column(0x09)
     367                    $C$DW$79        .dwtag  DW_TAG_formal_parameter
     368                            .dwattr $C$DW$79, DW_AT_type(*$C$DW$T$112)
     369                    $C$DW$80        .dwtag  DW_TAG_formal_parameter
     370                            .dwattr $C$DW$80, DW_AT_type(*$C$DW$T$115)
     371                    $C$DW$81        .dwtag  DW_TAG_formal_parameter
     372                            .dwattr $C$DW$81, DW_AT_type(*$C$DW$T$115)
     373                    $C$DW$82        .dwtag  DW_TAG_formal_parameter
     374                            .dwattr $C$DW$82, DW_AT_type(*$C$DW$T$115)
     375                    $C$DW$83        .dwtag  DW_TAG_formal_parameter
     376                            .dwattr $C$DW$83, DW_AT_type(*$C$DW$T$109)
     377                    $C$DW$84        .dwtag  DW_TAG_formal_parameter
     378                            .dwattr $C$DW$84, DW_AT_type(*$C$DW$T$109)
     379                    $C$DW$85        .dwtag  DW_TAG_formal_parameter
     380                            .dwattr $C$DW$85, DW_AT_type(*$C$DW$T$131)
     381                    $C$DW$86        .dwtag  DW_TAG_formal_parameter
     382                            .dwattr $C$DW$86, DW_AT_type(*$C$DW$T$132)
     383                    $C$DW$87        .dwtag  DW_TAG_formal_parameter
     384                            .dwattr $C$DW$87, DW_AT_type(*$C$DW$T$116)
     385                    $C$DW$88        .dwtag  DW_TAG_formal_parameter
TMS320C6x Assembler PC v7.4.2 Thu Mar 19 12:43:24 2015

Tools Copyright (c) 1996-2012 Texas Instruments Incorporated
package/lib/Regression/regress_d_c/./../packages/ti/vlib/src/VLIB_mixtureOfGaussiansS16/VLIB_mixtureOfGaussiansS16_d.se66 PAGE    8

     386                            .dwattr $C$DW$88, DW_AT_type(*$C$DW$T$116)
     387                    $C$DW$89        .dwtag  DW_TAG_formal_parameter
     388                            .dwattr $C$DW$89, DW_AT_type(*$C$DW$T$116)
     389                    $C$DW$90        .dwtag  DW_TAG_formal_parameter
     390                            .dwattr $C$DW$90, DW_AT_type(*$C$DW$T$116)
     391                    $C$DW$91        .dwtag  DW_TAG_formal_parameter
     392                            .dwattr $C$DW$91, DW_AT_type(*$C$DW$T$116)
     393                    $C$DW$92        .dwtag  DW_TAG_formal_parameter
     394                            .dwattr $C$DW$92, DW_AT_type(*$C$DW$T$116)
     395                            .dwendtag $C$DW$78
     396                    
     397                    
     398                    $C$DW$93        .dwtag  DW_TAG_subprogram, DW_AT_name("mixtureOfGaussiansS16_getTestParams")
     399                            .dwattr $C$DW$93, DW_AT_TI_symbol_name("mixtureOfGaussiansS16_getTestParams")
     400                            .dwattr $C$DW$93, DW_AT_declaration
     401                            .dwattr $C$DW$93, DW_AT_external
     402                            .dwattr $C$DW$93, DW_AT_decl_file(".\..\packages\ti\vlib\src\VLIB_mixtureOfGaussiansS16\VLIB_m
     403                            .dwattr $C$DW$93, DW_AT_decl_line(0x31)
     404                            .dwattr $C$DW$93, DW_AT_decl_column(0x06)
     405                    $C$DW$94        .dwtag  DW_TAG_formal_parameter
     406                            .dwattr $C$DW$94, DW_AT_type(*$C$DW$T$45)
     407                    $C$DW$95        .dwtag  DW_TAG_formal_parameter
     408                            .dwattr $C$DW$95, DW_AT_type(*$C$DW$T$78)
     409                            .dwendtag $C$DW$93
     410                    
     411                    $C$DW$96        .dwtag  DW_TAG_variable, DW_AT_name("test_cases")
     412                            .dwattr $C$DW$96, DW_AT_TI_symbol_name("test_cases")
     413                            .dwattr $C$DW$96, DW_AT_type(*$C$DW$T$23)
     414                            .dwattr $C$DW$96, DW_AT_declaration
     415                            .dwattr $C$DW$96, DW_AT_external
     416                            .dwattr $C$DW$96, DW_AT_decl_file(".\..\packages\ti\vlib\src\VLIB_mixtureOfGaussiansS16\../com
     417                            .dwattr $C$DW$96, DW_AT_decl_line(0x60)
     418                            .dwattr $C$DW$96, DW_AT_decl_column(0x13)
     419                    $C$DW$97        .dwtag  DW_TAG_variable, DW_AT_name("act_kernel")
     420                            .dwattr $C$DW$97, DW_AT_TI_symbol_name("act_kernel")
     421                            .dwattr $C$DW$97, DW_AT_type(*$C$DW$T$10)
     422                            .dwattr $C$DW$97, DW_AT_declaration
     423                            .dwattr $C$DW$97, DW_AT_external
     424                            .dwattr $C$DW$97, DW_AT_decl_file(".\..\packages\ti\vlib\src\VLIB_mixtureOfGaussiansS16\../com
     425                            .dwattr $C$DW$97, DW_AT_decl_line(0x62)
     426                            .dwattr $C$DW$97, DW_AT_decl_column(0x13)
     427                    $C$DW$98        .dwtag  DW_TAG_variable, DW_AT_name("desc")
     428                            .dwattr $C$DW$98, DW_AT_TI_symbol_name("desc")
     429                            .dwattr $C$DW$98, DW_AT_type(*$C$DW$T$184)
     430                            .dwattr $C$DW$98, DW_AT_declaration
     431                            .dwattr $C$DW$98, DW_AT_external
     432                            .dwattr $C$DW$98, DW_AT_decl_file(".\..\packages\ti\vlib\src\VLIB_mixtureOfGaussiansS16\../com
     433                            .dwattr $C$DW$98, DW_AT_decl_line(0x63)
     434                            .dwattr $C$DW$98, DW_AT_decl_column(0x13)
     435                    $C$DW$99        .dwtag  DW_TAG_variable, DW_AT_name("testPatternString")
     436                            .dwattr $C$DW$99, DW_AT_TI_symbol_name("testPatternString")
     437                            .dwattr $C$DW$99, DW_AT_type(*$C$DW$T$184)
     438                            .dwattr $C$DW$99, DW_AT_declaration
     439                            .dwattr $C$DW$99, DW_AT_external
     440                            .dwattr $C$DW$99, DW_AT_decl_file(".\..\packages\ti\vlib\src\VLIB_mixtureOfGaussiansS16\../com
TMS320C6x Assembler PC v7.4.2 Thu Mar 19 12:43:24 2015

Tools Copyright (c) 1996-2012 Texas Instruments Incorporated
package/lib/Regression/regress_d_c/./../packages/ti/vlib/src/VLIB_mixtureOfGaussiansS16/VLIB_mixtureOfGaussiansS16_d.se66 PAGE    9

     441                            .dwattr $C$DW$99, DW_AT_decl_line(0x64)
     442                            .dwattr $C$DW$99, DW_AT_decl_column(0x13)
     443                    $C$DW$100       .dwtag  DW_TAG_variable, DW_AT_name("est_test")
     444                            .dwattr $C$DW$100, DW_AT_TI_symbol_name("est_test")
     445                            .dwattr $C$DW$100, DW_AT_type(*$C$DW$T$10)
     446                            .dwattr $C$DW$100, DW_AT_declaration
     447                            .dwattr $C$DW$100, DW_AT_external
     448                            .dwattr $C$DW$100, DW_AT_decl_file(".\..\packages\ti\vlib\src\VLIB_mixtureOfGaussiansS16\..\co
     449                            .dwattr $C$DW$100, DW_AT_decl_line(0x75)
     450                            .dwattr $C$DW$100, DW_AT_decl_column(0x14)
     451                    $C$DW$101       .dwtag  DW_TAG_variable, DW_AT_name("beg_count")
     452                            .dwattr $C$DW$101, DW_AT_TI_symbol_name("beg_count")
     453                            .dwattr $C$DW$101, DW_AT_type(*$C$DW$T$171)
     454                            .dwattr $C$DW$101, DW_AT_declaration
     455                            .dwattr $C$DW$101, DW_AT_external
     456                            .dwattr $C$DW$101, DW_AT_decl_file(".\..\packages\ti\vlib\src\VLIB_mixtureOfGaussiansS16\..\co
     457                            .dwattr $C$DW$101, DW_AT_decl_line(0x76)
     458                            .dwattr $C$DW$101, DW_AT_decl_column(0x14)
     459                    $C$DW$102       .dwtag  DW_TAG_variable, DW_AT_name("end_count")
     460                            .dwattr $C$DW$102, DW_AT_TI_symbol_name("end_count")
     461                            .dwattr $C$DW$102, DW_AT_type(*$C$DW$T$171)
     462                            .dwattr $C$DW$102, DW_AT_declaration
     463                            .dwattr $C$DW$102, DW_AT_external
     464                            .dwattr $C$DW$102, DW_AT_decl_file(".\..\packages\ti\vlib\src\VLIB_mixtureOfGaussiansS16\..\co
     465                            .dwattr $C$DW$102, DW_AT_decl_line(0x77)
     466                            .dwattr $C$DW$102, DW_AT_decl_column(0x14)
     467                    $C$DW$103       .dwtag  DW_TAG_variable, DW_AT_name("overhead")
     468                            .dwattr $C$DW$103, DW_AT_TI_symbol_name("overhead")
     469                            .dwattr $C$DW$103, DW_AT_type(*$C$DW$T$171)
     470                            .dwattr $C$DW$103, DW_AT_declaration
     471                            .dwattr $C$DW$103, DW_AT_external
     472                            .dwattr $C$DW$103, DW_AT_decl_file(".\..\packages\ti\vlib\src\VLIB_mixtureOfGaussiansS16\..\co
     473                            .dwattr $C$DW$103, DW_AT_decl_line(0x78)
     474                            .dwattr $C$DW$103, DW_AT_decl_column(0x14)
     475                    $C$DW$104       .dwtag  DW_TAG_variable, DW_AT_name("cycles")
     476                            .dwattr $C$DW$104, DW_AT_TI_symbol_name("cycles")
     477                            .dwattr $C$DW$104, DW_AT_type(*$C$DW$T$172)
     478                            .dwattr $C$DW$104, DW_AT_declaration
     479                            .dwattr $C$DW$104, DW_AT_external
     480                            .dwattr $C$DW$104, DW_AT_decl_file(".\..\packages\ti\vlib\src\VLIB_mixtureOfGaussiansS16\..\co
     481                            .dwattr $C$DW$104, DW_AT_decl_line(0x79)
     482                            .dwattr $C$DW$104, DW_AT_decl_column(0x14)
     483                    ;       C:\VLIB_Tools\CCSV5_4_0\ccsv5\tools\compiler\C6000\bin\opt6x.exe C:\\Users\\gtbldadm\\AppData\
     484 00000000                   .sect   ".text"
     485                            .clink
     486                            .global VLIB_mixtureOfGaussiansS16_d
     487                    
     488                    $C$DW$105       .dwtag  DW_TAG_subprogram, DW_AT_name("VLIB_mixtureOfGaussiansS16_d")
     489                            .dwattr $C$DW$105, DW_AT_low_pc(VLIB_mixtureOfGaussiansS16_d)
     490                            .dwattr $C$DW$105, DW_AT_high_pc(0x00)
     491                            .dwattr $C$DW$105, DW_AT_TI_symbol_name("VLIB_mixtureOfGaussiansS16_d")
     492                            .dwattr $C$DW$105, DW_AT_external
     493                            .dwattr $C$DW$105, DW_AT_TI_begin_file("./../packages/ti/vlib/src/VLIB_mixtureOfGaussiansS16/V
     494                            .dwattr $C$DW$105, DW_AT_TI_begin_line(0x26)
     495                            .dwattr $C$DW$105, DW_AT_TI_begin_column(0x06)
TMS320C6x Assembler PC v7.4.2 Thu Mar 19 12:43:24 2015

Tools Copyright (c) 1996-2012 Texas Instruments Incorporated
package/lib/Regression/regress_d_c/./../packages/ti/vlib/src/VLIB_mixtureOfGaussiansS16/VLIB_mixtureOfGaussiansS16_d.se66 PAGE   10

     496                            .dwattr $C$DW$105, DW_AT_decl_file("./../packages/ti/vlib/src/VLIB_mixtureOfGaussiansS16/VLIB_
     497                            .dwattr $C$DW$105, DW_AT_decl_line(0x26)
     498                            .dwattr $C$DW$105, DW_AT_decl_column(0x06)
     499                            .dwattr $C$DW$105, DW_AT_TI_max_frame_size(0xe8)
     500                            .dwpsn  file "./../packages/ti/vlib/src/VLIB_mixtureOfGaussiansS16/VLIB_mixtureOfGaussiansS16_
     501                    
     502                            .dwfde $C$DW$CIE, VLIB_mixtureOfGaussiansS16_d
     503                    $C$DW$106       .dwtag  DW_TAG_formal_parameter, DW_AT_name("LevelOfFeedback")
     504                            .dwattr $C$DW$106, DW_AT_TI_symbol_name("LevelOfFeedback")
     505                            .dwattr $C$DW$106, DW_AT_type(*$C$DW$T$19)
     506                            .dwattr $C$DW$106, DW_AT_location[DW_OP_reg4]
     507                    ;----------------------------------------------------------------------
     508                    ;  38 | void VLIB_mixtureOfGaussiansS16_d (uint8_t LevelOfFeedback)            
     509                    ;----------------------------------------------------------------------
     510                    
     511                    ;******************************************************************************
     512                    ;* FUNCTION NAME: VLIB_mixtureOfGaussiansS16_d                                *
     513                    ;*                                                                            *
     514                    ;*   Regs Modified     : A0,A1,A2,A3,A4,A5,A6,A7,A8,A9,A10,A11,A12,A13,A14,   *
     515                    ;*                           A15,B0,B1,B2,B3,B4,B5,B6,B7,B8,B9,B10,B11,B12,   *
     516                    ;*                           B13,SP,A16,A17,A18,A19,A20,A21,A22,A23,A24,A25,  *
     517                    ;*                           A26,A27,A28,A29,A30,A31,B16,B17,B18,B19,B20,B21, *
     518                    ;*                           B22,B23,B24,B25,B26,B27,B28,B29,B30,B31          *
     519                    ;*   Regs Used         : A0,A1,A2,A3,A4,A5,A6,A7,A8,A9,A10,A11,A12,A13,A14,   *
     520                    ;*                           A15,B0,B1,B2,B3,B4,B5,B6,B7,B8,B9,B10,B11,B12,   *
     521                    ;*                           B13,DP,SP,A16,A17,A18,A19,A20,A21,A22,A23,A24,   *
     522                    ;*                           A25,A26,A27,A28,A29,A30,A31,B16,B17,B18,B19,B20, *
     523                    ;*                           B21,B22,B23,B24,B25,B26,B27,B28,B29,B30,B31      *
     524                    ;*   Local Frame Size  : 112 Args + 64 Auto + 56 Save = 232 byte              *
     525                    ;******************************************************************************
     526                    
     527                    ;******************************************************************************
     528                    ;*                                                                            *
     529                    ;* Using -g (debug) with optimization (-o3) may disable key optimizations!    *
     530                    ;*                                                                            *
     531                    ;******************************************************************************
     532 00000000           VLIB_mixtureOfGaussiansS16_d:
     533                    ;** --------------------------------------------------------------------------*
     534                    ;          EXCLUSIVE CPU CYCLES: 16
     535                    ;** 45  -----------------------    mixtureOfGaussiansS16_getTestParams(&prm, &test_cases);
     536                    ;** 48  -----------------------    VLIB_profile_init(3, "VLIB_mixtureOfGaussiansS16");
     537                    ;** 51  -----------------------    if ( test_cases <= 0 ) goto g63;
     538                            .dwcfi  cfa_offset, 0
     539                    ;----------------------------------------------------------------------
     540                    ;  40 | int32_t    tpi;  /* test parameter index */                            
     541                    ;  43 | mixtureOfGaussiansS16_testParams_t   *prm;                             
     542                    ;----------------------------------------------------------------------
     543 00000000     25f7             STW     .D2T1   A11,*SP--(8)      ; |39| 
     544                            .dwcfi  cfa_offset, 8
     545                            .dwcfi  save_reg_to_mem, 11, 0
     546 00000002     2577             STW     .D2T1   A10,*SP--(8)      ; |39| 
     547                            .dwcfi  cfa_offset, 16
     548                            .dwcfi  save_reg_to_mem, 10, -8
     549 00000004     9677             STDW    .D2T2   B13:B12,*SP--     ; |39| 
     550                            .dwcfi  cfa_offset, 24
TMS320C6x Assembler PC v7.4.2 Thu Mar 19 12:43:24 2015

Tools Copyright (c) 1996-2012 Texas Instruments Incorporated
package/lib/Regression/regress_d_c/./../packages/ti/vlib/src/VLIB_mixtureOfGaussiansS16/VLIB_mixtureOfGaussiansS16_d.se66 PAGE   11

     551                            .dwcfi  save_reg_to_mem, 29, -12
     552                            .dwcfi  save_reg_to_mem, 28, -16
     553 00000006     9577             STDW    .D2T2   B11:B10,*SP--     ; |39| 
     554                            .dwcfi  cfa_offset, 32
     555                            .dwcfi  save_reg_to_mem, 27, -20
     556                            .dwcfi  save_reg_to_mem, 26, -24
     557 00000008     8777             STDW    .D2T1   A15:A14,*SP--     ; |39| 
     558                            .dwcfi  cfa_offset, 40
     559                            .dwcfi  save_reg_to_mem, 15, -28
     560                            .dwcfi  save_reg_to_mem, 14, -32
     561 0000000a     8677             STDW    .D2T1   A13:A12,*SP--     ; |39| 
     562                            .dwcfi  cfa_offset, 48
     563                            .dwcfi  save_reg_to_mem, 13, -36
     564                            .dwcfi  save_reg_to_mem, 12, -40
     565 0000000c 01bc54f6             STW     .D2T2   B3,*SP--(8)       ; |39| 
     566                            .dwcfi  cfa_offset, 56
     567                            .dwcfi  save_reg_to_mem, 19, -48
     568 00000010 07ffa852             ADDK    .S2     -176,SP           ; |39| 
     569                            .dwcfi  cfa_offset, 232
     570                    $C$DW$107       .dwtag  DW_TAG_variable, DW_AT_name("$O$C1")
     571                            .dwattr $C$DW$107, DW_AT_TI_symbol_name("$O$C1")
     572                            .dwattr $C$DW$107, DW_AT_type(*$C$DW$T$10)
     573                            .dwattr $C$DW$107, DW_AT_location[DW_OP_reg20]
     574                    $C$DW$108       .dwtag  DW_TAG_variable, DW_AT_name("$O$C2")
     575                            .dwattr $C$DW$108, DW_AT_TI_symbol_name("$O$C2")
     576                            .dwattr $C$DW$108, DW_AT_type(*$C$DW$T$10)
     577                            .dwattr $C$DW$108, DW_AT_location[DW_OP_reg3]
     578                    $C$DW$109       .dwtag  DW_TAG_variable, DW_AT_name("$O$C3")
     579                            .dwattr $C$DW$109, DW_AT_TI_symbol_name("$O$C3")
     580                            .dwattr $C$DW$109, DW_AT_type(*$C$DW$T$41)
     581                            .dwattr $C$DW$109, DW_AT_location[DW_OP_reg3]
     582                    $C$DW$110       .dwtag  DW_TAG_variable, DW_AT_name("$O$C4")
     583                            .dwattr $C$DW$110, DW_AT_TI_symbol_name("$O$C4")
     584                            .dwattr $C$DW$110, DW_AT_type(*$C$DW$T$10)
     585                            .dwattr $C$DW$110, DW_AT_location[DW_OP_reg8]
     586                    $C$DW$111       .dwtag  DW_TAG_variable, DW_AT_name("$O$C5")
     587                            .dwattr $C$DW$111, DW_AT_TI_symbol_name("$O$C5")
     588                            .dwattr $C$DW$111, DW_AT_type(*$C$DW$T$10)
     589                            .dwattr $C$DW$111, DW_AT_location[DW_OP_reg26]
     590                    $C$DW$112       .dwtag  DW_TAG_variable, DW_AT_name("$O$C6")
     591                            .dwattr $C$DW$112, DW_AT_TI_symbol_name("$O$C6")
     592                            .dwattr $C$DW$112, DW_AT_type(*$C$DW$T$41)
     593                            .dwattr $C$DW$112, DW_AT_location[DW_OP_reg3]
     594                    $C$DW$113       .dwtag  DW_TAG_variable, DW_AT_name("$O$C7")
     595                            .dwattr $C$DW$113, DW_AT_TI_symbol_name("$O$C7")
     596                            .dwattr $C$DW$113, DW_AT_type(*$C$DW$T$10)
     597                            .dwattr $C$DW$113, DW_AT_location[DW_OP_reg3]
     598                    $C$DW$114       .dwtag  DW_TAG_variable, DW_AT_name("$O$C8")
     599                            .dwattr $C$DW$114, DW_AT_TI_symbol_name("$O$C8")
     600                            .dwattr $C$DW$114, DW_AT_type(*$C$DW$T$10)
     601                            .dwattr $C$DW$114, DW_AT_location[DW_OP_reg26]
     602                    $C$DW$115       .dwtag  DW_TAG_variable, DW_AT_name("$O$C9")
     603                            .dwattr $C$DW$115, DW_AT_TI_symbol_name("$O$C9")
     604                            .dwattr $C$DW$115, DW_AT_type(*$C$DW$T$9)
     605                            .dwattr $C$DW$115, DW_AT_location[DW_OP_reg21]
TMS320C6x Assembler PC v7.4.2 Thu Mar 19 12:43:24 2015

Tools Copyright (c) 1996-2012 Texas Instruments Incorporated
package/lib/Regression/regress_d_c/./../packages/ti/vlib/src/VLIB_mixtureOfGaussiansS16/VLIB_mixtureOfGaussiansS16_d.se66 PAGE   12

     606                    $C$DW$116       .dwtag  DW_TAG_variable, DW_AT_name("$O$C10")
     607                            .dwattr $C$DW$116, DW_AT_TI_symbol_name("$O$C10")
     608                            .dwattr $C$DW$116, DW_AT_type(*$C$DW$T$10)
     609                            .dwattr $C$DW$116, DW_AT_location[DW_OP_reg20]
     610                    $C$DW$117       .dwtag  DW_TAG_variable, DW_AT_name("$O$C11")
     611                            .dwattr $C$DW$117, DW_AT_TI_symbol_name("$O$C11")
     612                            .dwattr $C$DW$117, DW_AT_type(*$C$DW$T$10)
     613                            .dwattr $C$DW$117, DW_AT_location[DW_OP_reg20]
     614                    $C$DW$118       .dwtag  DW_TAG_variable, DW_AT_name("$O$U13")
     615                            .dwattr $C$DW$118, DW_AT_TI_symbol_name("$O$U13")
     616                            .dwattr $C$DW$118, DW_AT_type(*$C$DW$T$41)
     617                            .dwattr $C$DW$118, DW_AT_location[DW_OP_reg27]
     618                    $C$DW$119       .dwtag  DW_TAG_variable, DW_AT_name("$O$K34")
     619                            .dwattr $C$DW$119, DW_AT_TI_symbol_name("$O$K34")
     620                            .dwattr $C$DW$119, DW_AT_type(*$C$DW$T$11)
     621                            .dwattr $C$DW$119, DW_AT_location[DW_OP_reg3]
     622                    $C$DW$120       .dwtag  DW_TAG_variable, DW_AT_name("$O$K57")
     623                            .dwattr $C$DW$120, DW_AT_TI_symbol_name("$O$K57")
     624                            .dwattr $C$DW$120, DW_AT_type(*$C$DW$T$82)
     625                            .dwattr $C$DW$120, DW_AT_location[DW_OP_reg12]
     626                    $C$DW$121       .dwtag  DW_TAG_variable, DW_AT_name("$O$K63")
     627                            .dwattr $C$DW$121, DW_AT_TI_symbol_name("$O$K63")
     628                            .dwattr $C$DW$121, DW_AT_type(*$C$DW$T$10)
     629                            .dwattr $C$DW$121, DW_AT_location[DW_OP_reg3]
     630                    $C$DW$122       .dwtag  DW_TAG_variable, DW_AT_name("$O$U12")
     631                            .dwattr $C$DW$122, DW_AT_TI_symbol_name("$O$U12")
     632                            .dwattr $C$DW$122, DW_AT_type(*$C$DW$T$10)
     633                            .dwattr $C$DW$122, DW_AT_location[DW_OP_breg31 128]
     634                    $C$DW$123       .dwtag  DW_TAG_variable, DW_AT_name("$O$U132")
     635                            .dwattr $C$DW$123, DW_AT_TI_symbol_name("$O$U132")
     636                            .dwattr $C$DW$123, DW_AT_type(*$C$DW$T$11)
     637                            .dwattr $C$DW$123, DW_AT_location[DW_OP_reg12]
     638                    $C$DW$124       .dwtag  DW_TAG_variable, DW_AT_name("$O$U206")
     639                            .dwattr $C$DW$124, DW_AT_TI_symbol_name("$O$U206")
     640                            .dwattr $C$DW$124, DW_AT_type(*$C$DW$T$11)
     641                            .dwattr $C$DW$124, DW_AT_location[DW_OP_reg12]
     642                    $C$DW$125       .dwtag  DW_TAG_variable, DW_AT_name("$O$K223")
     643                            .dwattr $C$DW$125, DW_AT_TI_symbol_name("$O$K223")
     644                            .dwattr $C$DW$125, DW_AT_type(*$C$DW$T$82)
     645                            .dwattr $C$DW$125, DW_AT_location[DW_OP_reg8]
     646                    $C$DW$126       .dwtag  DW_TAG_variable, DW_AT_name("$O$L1")
     647                            .dwattr $C$DW$126, DW_AT_TI_symbol_name("$O$L1")
     648                            .dwattr $C$DW$126, DW_AT_type(*$C$DW$T$10)
     649                            .dwattr $C$DW$126, DW_AT_location[DW_OP_reg10]
     650                    $C$DW$127       .dwtag  DW_TAG_variable, DW_AT_name("$O$L2")
     651                            .dwattr $C$DW$127, DW_AT_TI_symbol_name("$O$L2")
     652                            .dwattr $C$DW$127, DW_AT_type(*$C$DW$T$10)
     653                            .dwattr $C$DW$127, DW_AT_location[DW_OP_reg11]
     654                    $C$DW$128       .dwtag  DW_TAG_variable, DW_AT_name("$O$L3")
     655                            .dwattr $C$DW$128, DW_AT_TI_symbol_name("$O$L3")
     656                            .dwattr $C$DW$128, DW_AT_type(*$C$DW$T$10)
     657                            .dwattr $C$DW$128, DW_AT_location[DW_OP_reg0]
     658                    $C$DW$129       .dwtag  DW_TAG_variable, DW_AT_name("$O$L4")
     659                            .dwattr $C$DW$129, DW_AT_TI_symbol_name("$O$L4")
     660                            .dwattr $C$DW$129, DW_AT_type(*$C$DW$T$10)
TMS320C6x Assembler PC v7.4.2 Thu Mar 19 12:43:24 2015

Tools Copyright (c) 1996-2012 Texas Instruments Incorporated
package/lib/Regression/regress_d_c/./../packages/ti/vlib/src/VLIB_mixtureOfGaussiansS16/VLIB_mixtureOfGaussiansS16_d.se66 PAGE   13

     661                            .dwattr $C$DW$129, DW_AT_location[DW_OP_reg10]
     662                    $C$DW$130       .dwtag  DW_TAG_variable, DW_AT_name("$O$L5")
     663                            .dwattr $C$DW$130, DW_AT_TI_symbol_name("$O$L5")
     664                            .dwattr $C$DW$130, DW_AT_type(*$C$DW$T$10)
     665                            .dwattr $C$DW$130, DW_AT_location[DW_OP_reg10]
     666                    $C$DW$131       .dwtag  DW_TAG_variable, DW_AT_name("$O$L6")
     667                            .dwattr $C$DW$131, DW_AT_TI_symbol_name("$O$L6")
     668                            .dwattr $C$DW$131, DW_AT_type(*$C$DW$T$10)
     669                            .dwattr $C$DW$131, DW_AT_location[DW_OP_reg0]
     670                    $C$DW$132       .dwtag  DW_TAG_variable, DW_AT_name("LevelOfFeedback")
     671                            .dwattr $C$DW$132, DW_AT_TI_symbol_name("LevelOfFeedback")
     672                            .dwattr $C$DW$132, DW_AT_type(*$C$DW$T$110)
     673                            .dwattr $C$DW$132, DW_AT_location[DW_OP_breg31 132]
     674                    $C$DW$133       .dwtag  DW_TAG_variable, DW_AT_name("tpi")
     675                            .dwattr $C$DW$133, DW_AT_TI_symbol_name("tpi")
     676                            .dwattr $C$DW$133, DW_AT_type(*$C$DW$T$23)
     677                            .dwattr $C$DW$133, DW_AT_location[DW_OP_breg31 136]
     678                    $C$DW$134       .dwtag  DW_TAG_variable, DW_AT_name("prm")
     679                            .dwattr $C$DW$134, DW_AT_TI_symbol_name("prm")
     680                            .dwattr $C$DW$134, DW_AT_type(*$C$DW$T$44)
     681                            .dwattr $C$DW$134, DW_AT_location[DW_OP_breg31 116]
     682                    $C$DW$135       .dwtag  DW_TAG_variable, DW_AT_name("status_nat_vs_int")
     683                            .dwattr $C$DW$135, DW_AT_TI_symbol_name("status_nat_vs_int")
     684                            .dwattr $C$DW$135, DW_AT_type(*$C$DW$T$23)
     685                            .dwattr $C$DW$135, DW_AT_location[DW_OP_reg10]
     686                    $C$DW$136       .dwtag  DW_TAG_variable, DW_AT_name("status_nat_vs_ref")
     687                            .dwattr $C$DW$136, DW_AT_TI_symbol_name("status_nat_vs_ref")
     688                            .dwattr $C$DW$136, DW_AT_type(*$C$DW$T$23)
     689                            .dwattr $C$DW$136, DW_AT_location[DW_OP_reg13]
     690                    $C$DW$137       .dwtag  DW_TAG_variable, DW_AT_name("Im")
     691                            .dwattr $C$DW$137, DW_AT_TI_symbol_name("Im")
     692                            .dwattr $C$DW$137, DW_AT_type(*$C$DW$T$20)
     693                            .dwattr $C$DW$137, DW_AT_location[DW_OP_breg31 140]
     694                    $C$DW$138       .dwtag  DW_TAG_variable, DW_AT_name("wt")
     695                            .dwattr $C$DW$138, DW_AT_TI_symbol_name("wt")
     696                            .dwattr $C$DW$138, DW_AT_type(*$C$DW$T$22)
     697                            .dwattr $C$DW$138, DW_AT_location[DW_OP_breg31 144]
     698                    $C$DW$139       .dwtag  DW_TAG_variable, DW_AT_name("mu")
     699                            .dwattr $C$DW$139, DW_AT_TI_symbol_name("mu")
     700                            .dwattr $C$DW$139, DW_AT_type(*$C$DW$T$22)
     701                            .dwattr $C$DW$139, DW_AT_location[DW_OP_breg31 148]
     702                    $C$DW$140       .dwtag  DW_TAG_variable, DW_AT_name("var")
     703                            .dwattr $C$DW$140, DW_AT_TI_symbol_name("var")
     704                            .dwattr $C$DW$140, DW_AT_type(*$C$DW$T$22)
     705                            .dwattr $C$DW$140, DW_AT_location[DW_OP_breg31 152]
     706                    $C$DW$141       .dwtag  DW_TAG_variable, DW_AT_name("compNum")
     707                            .dwattr $C$DW$141, DW_AT_TI_symbol_name("compNum")
     708                            .dwattr $C$DW$141, DW_AT_type(*$C$DW$T$20)
     709                            .dwattr $C$DW$141, DW_AT_location[DW_OP_breg31 156]
     710                    $C$DW$142       .dwtag  DW_TAG_variable, DW_AT_name("updateMask8")
     711                            .dwattr $C$DW$142, DW_AT_TI_symbol_name("updateMask8")
     712                            .dwattr $C$DW$142, DW_AT_type(*$C$DW$T$20)
     713                            .dwattr $C$DW$142, DW_AT_location[DW_OP_breg31 160]
     714                    $C$DW$143       .dwtag  DW_TAG_variable, DW_AT_name("Im_mask")
     715                            .dwattr $C$DW$143, DW_AT_TI_symbol_name("Im_mask")
TMS320C6x Assembler PC v7.4.2 Thu Mar 19 12:43:24 2015

Tools Copyright (c) 1996-2012 Texas Instruments Incorporated
package/lib/Regression/regress_d_c/./../packages/ti/vlib/src/VLIB_mixtureOfGaussiansS16/VLIB_mixtureOfGaussiansS16_d.se66 PAGE   14

     716                            .dwattr $C$DW$143, DW_AT_type(*$C$DW$T$130)
     717                            .dwattr $C$DW$143, DW_AT_location[DW_OP_breg31 164]
     718                    $C$DW$144       .dwtag  DW_TAG_variable, DW_AT_name("Im_mask_cn")
     719                            .dwattr $C$DW$144, DW_AT_TI_symbol_name("Im_mask_cn")
     720                            .dwattr $C$DW$144, DW_AT_type(*$C$DW$T$130)
     721                            .dwattr $C$DW$144, DW_AT_location[DW_OP_breg31 168]
     722                    $C$DW$145       .dwtag  DW_TAG_variable, DW_AT_name("$O$K92")
     723                            .dwattr $C$DW$145, DW_AT_TI_symbol_name("$O$K92")
     724                            .dwattr $C$DW$145, DW_AT_type(*$C$DW$T$170)
     725                            .dwattr $C$DW$145, DW_AT_location[DW_OP_reg6]
     726                    $C$DW$146       .dwtag  DW_TAG_variable, DW_AT_name("$O$K92")
     727                            .dwattr $C$DW$146, DW_AT_TI_symbol_name("$O$K92")
     728                            .dwattr $C$DW$146, DW_AT_type(*$C$DW$T$170)
     729                            .dwattr $C$DW$146, DW_AT_location[DW_OP_reg3]
     730                    $C$DW$147       .dwtag  DW_TAG_variable, DW_AT_name("$O$K99")
     731                            .dwattr $C$DW$147, DW_AT_TI_symbol_name("$O$K99")
     732                            .dwattr $C$DW$147, DW_AT_type(*$C$DW$T$10)
     733                            .dwattr $C$DW$147, DW_AT_location[DW_OP_reg3]
     734                    $C$DW$148       .dwtag  DW_TAG_variable, DW_AT_name("$O$K99")
     735                            .dwattr $C$DW$148, DW_AT_TI_symbol_name("$O$K99")
     736                            .dwattr $C$DW$148, DW_AT_type(*$C$DW$T$10)
     737                            .dwattr $C$DW$148, DW_AT_location[DW_OP_reg3]
     738                    $C$DW$149       .dwtag  DW_TAG_variable, DW_AT_name("$O$K109")
     739                            .dwattr $C$DW$149, DW_AT_TI_symbol_name("$O$K109")
     740                            .dwattr $C$DW$149, DW_AT_type(*$C$DW$T$10)
     741                            .dwattr $C$DW$149, DW_AT_location[DW_OP_reg5]
     742                    $C$DW$150       .dwtag  DW_TAG_variable, DW_AT_name("$O$K109")
     743                            .dwattr $C$DW$150, DW_AT_TI_symbol_name("$O$K109")
     744                            .dwattr $C$DW$150, DW_AT_type(*$C$DW$T$10)
     745                            .dwattr $C$DW$150, DW_AT_location[DW_OP_regx 0x33]
     746                    $C$DW$151       .dwtag  DW_TAG_variable, DW_AT_name("$O$U152")
     747                            .dwattr $C$DW$151, DW_AT_TI_symbol_name("$O$U152")
     748                            .dwattr $C$DW$151, DW_AT_type(*$C$DW$T$114)
     749                            .dwattr $C$DW$151, DW_AT_location[DW_OP_reg11]
     750                    $C$DW$152       .dwtag  DW_TAG_variable, DW_AT_name("$O$U152")
     751                            .dwattr $C$DW$152, DW_AT_TI_symbol_name("$O$U152")
     752                            .dwattr $C$DW$152, DW_AT_type(*$C$DW$T$114)
     753                            .dwattr $C$DW$152, DW_AT_location[DW_OP_reg12]
     754                    $C$DW$153       .dwtag  DW_TAG_variable, DW_AT_name("$O$U152")
     755                            .dwattr $C$DW$153, DW_AT_TI_symbol_name("$O$U152")
     756                            .dwattr $C$DW$153, DW_AT_type(*$C$DW$T$114)
     757                            .dwattr $C$DW$153, DW_AT_location[DW_OP_reg11]
     758                    $C$DW$154       .dwtag  DW_TAG_variable, DW_AT_name("$O$U152")
     759                            .dwattr $C$DW$154, DW_AT_TI_symbol_name("$O$U152")
     760                            .dwattr $C$DW$154, DW_AT_type(*$C$DW$T$114)
     761                            .dwattr $C$DW$154, DW_AT_location[DW_OP_reg12]
     762                    $C$DW$155       .dwtag  DW_TAG_variable, DW_AT_name("$O$U146")
     763                            .dwattr $C$DW$155, DW_AT_TI_symbol_name("$O$U146")
     764                            .dwattr $C$DW$155, DW_AT_type(*$C$DW$T$114)
     765                            .dwattr $C$DW$155, DW_AT_location[DW_OP_reg12]
     766                    $C$DW$156       .dwtag  DW_TAG_variable, DW_AT_name("$O$U146")
     767                            .dwattr $C$DW$156, DW_AT_TI_symbol_name("$O$U146")
     768                            .dwattr $C$DW$156, DW_AT_type(*$C$DW$T$114)
     769                            .dwattr $C$DW$156, DW_AT_location[DW_OP_reg12]
     770                    $C$DW$157       .dwtag  DW_TAG_variable, DW_AT_name("$O$U163")
TMS320C6x Assembler PC v7.4.2 Thu Mar 19 12:43:24 2015

Tools Copyright (c) 1996-2012 Texas Instruments Incorporated
package/lib/Regression/regress_d_c/./../packages/ti/vlib/src/VLIB_mixtureOfGaussiansS16/VLIB_mixtureOfGaussiansS16_d.se66 PAGE   15

     771                            .dwattr $C$DW$157, DW_AT_TI_symbol_name("$O$U163")
     772                            .dwattr $C$DW$157, DW_AT_type(*$C$DW$T$114)
     773                            .dwattr $C$DW$157, DW_AT_location[DW_OP_breg31 172]
     774                    $C$DW$158       .dwtag  DW_TAG_variable, DW_AT_name("$O$U163")
     775                            .dwattr $C$DW$158, DW_AT_TI_symbol_name("$O$U163")
     776                            .dwattr $C$DW$158, DW_AT_type(*$C$DW$T$114)
     777                            .dwattr $C$DW$158, DW_AT_location[DW_OP_breg31 172]
     778                    $C$DW$159       .dwtag  DW_TAG_variable, DW_AT_name("$O$U169")
     779                            .dwattr $C$DW$159, DW_AT_TI_symbol_name("$O$U169")
     780                            .dwattr $C$DW$159, DW_AT_type(*$C$DW$T$114)
     781                            .dwattr $C$DW$159, DW_AT_location[DW_OP_reg26]
     782                    $C$DW$160       .dwtag  DW_TAG_variable, DW_AT_name("$O$U169")
     783                            .dwattr $C$DW$160, DW_AT_TI_symbol_name("$O$U169")
     784                            .dwattr $C$DW$160, DW_AT_type(*$C$DW$T$114)
     785                            .dwattr $C$DW$160, DW_AT_location[DW_OP_reg26]
     786                    $C$DW$161       .dwtag  DW_TAG_variable, DW_AT_name("$O$U184")
     787                            .dwattr $C$DW$161, DW_AT_TI_symbol_name("$O$U184")
     788                            .dwattr $C$DW$161, DW_AT_type(*$C$DW$T$25)
     789                            .dwattr $C$DW$161, DW_AT_location[DW_OP_reg28]
     790                    $C$DW$162       .dwtag  DW_TAG_variable, DW_AT_name("$O$U184")
     791                            .dwattr $C$DW$162, DW_AT_TI_symbol_name("$O$U184")
     792                            .dwattr $C$DW$162, DW_AT_type(*$C$DW$T$25)
     793                            .dwattr $C$DW$162, DW_AT_location[DW_OP_reg28]
     794                    $C$DW$163       .dwtag  DW_TAG_variable, DW_AT_name("$O$U176")
     795                            .dwattr $C$DW$163, DW_AT_TI_symbol_name("$O$U176")
     796                            .dwattr $C$DW$163, DW_AT_type(*$C$DW$T$10)
     797                            .dwattr $C$DW$163, DW_AT_location[DW_OP_reg26]
     798                    $C$DW$164       .dwtag  DW_TAG_variable, DW_AT_name("$O$U176")
     799                            .dwattr $C$DW$164, DW_AT_TI_symbol_name("$O$U176")
     800                            .dwattr $C$DW$164, DW_AT_type(*$C$DW$T$10)
     801                            .dwattr $C$DW$164, DW_AT_location[DW_OP_reg26]
     802                    $C$DW$165       .dwtag  DW_TAG_variable, DW_AT_name("$O$U194")
     803                            .dwattr $C$DW$165, DW_AT_TI_symbol_name("$O$U194")
     804                            .dwattr $C$DW$165, DW_AT_type(*$C$DW$T$8)
     805                            .dwattr $C$DW$165, DW_AT_location[DW_OP_reg11]
     806                    $C$DW$166       .dwtag  DW_TAG_variable, DW_AT_name("$O$U194")
     807                            .dwattr $C$DW$166, DW_AT_TI_symbol_name("$O$U194")
     808                            .dwattr $C$DW$166, DW_AT_type(*$C$DW$T$8)
     809                            .dwattr $C$DW$166, DW_AT_location[DW_OP_reg11]
     810                    $C$DW$167       .dwtag  DW_TAG_variable, DW_AT_name("i")
     811                            .dwattr $C$DW$167, DW_AT_TI_symbol_name("i")
     812                            .dwattr $C$DW$167, DW_AT_type(*$C$DW$T$23)
     813                            .dwattr $C$DW$167, DW_AT_location[DW_OP_reg29]
     814                    $C$DW$168       .dwtag  DW_TAG_variable, DW_AT_name("i")
     815                            .dwattr $C$DW$168, DW_AT_TI_symbol_name("i")
     816                            .dwattr $C$DW$168, DW_AT_type(*$C$DW$T$23)
     817                            .dwattr $C$DW$168, DW_AT_location[DW_OP_reg29]
     818                    $C$DW$169       .dwtag  DW_TAG_variable, DW_AT_name("k")
     819                            .dwattr $C$DW$169, DW_AT_TI_symbol_name("k")
     820                            .dwattr $C$DW$169, DW_AT_type(*$C$DW$T$23)
     821                            .dwattr $C$DW$169, DW_AT_location[DW_OP_reg28]
     822                    $C$DW$170       .dwtag  DW_TAG_variable, DW_AT_name("k")
     823                            .dwattr $C$DW$170, DW_AT_TI_symbol_name("k")
     824                            .dwattr $C$DW$170, DW_AT_type(*$C$DW$T$23)
     825                            .dwattr $C$DW$170, DW_AT_location[DW_OP_reg10]
TMS320C6x Assembler PC v7.4.2 Thu Mar 19 12:43:24 2015

Tools Copyright (c) 1996-2012 Texas Instruments Incorporated
package/lib/Regression/regress_d_c/./../packages/ti/vlib/src/VLIB_mixtureOfGaussiansS16/VLIB_mixtureOfGaussiansS16_d.se66 PAGE   16

     826                    $C$DW$171       .dwtag  DW_TAG_variable, DW_AT_name("k")
     827                            .dwattr $C$DW$171, DW_AT_TI_symbol_name("k")
     828                            .dwattr $C$DW$171, DW_AT_type(*$C$DW$T$23)
     829                            .dwattr $C$DW$171, DW_AT_location[DW_OP_reg10]
     830                    $C$DW$172       .dwtag  DW_TAG_variable, DW_AT_name("k")
     831                            .dwattr $C$DW$172, DW_AT_TI_symbol_name("k")
     832                            .dwattr $C$DW$172, DW_AT_type(*$C$DW$T$23)
     833                            .dwattr $C$DW$172, DW_AT_location[DW_OP_reg28]
     834                    $C$DW$173       .dwtag  DW_TAG_variable, DW_AT_name("k")
     835                            .dwattr $C$DW$173, DW_AT_TI_symbol_name("k")
     836                            .dwattr $C$DW$173, DW_AT_type(*$C$DW$T$23)
     837                            .dwattr $C$DW$173, DW_AT_location[DW_OP_reg11]
     838                    $C$DW$174       .dwtag  DW_TAG_variable, DW_AT_name("k")
     839                            .dwattr $C$DW$174, DW_AT_TI_symbol_name("k")
     840                            .dwattr $C$DW$174, DW_AT_type(*$C$DW$T$23)
     841                            .dwattr $C$DW$174, DW_AT_location[DW_OP_reg10]
     842                    $C$DW$175       .dwtag  DW_TAG_variable, DW_AT_name("counter")
     843                            .dwattr $C$DW$175, DW_AT_TI_symbol_name("counter")
     844                            .dwattr $C$DW$175, DW_AT_type(*$C$DW$T$23)
     845                            .dwattr $C$DW$175, DW_AT_location[DW_OP_reg14]
     846                    $C$DW$176       .dwtag  DW_TAG_variable, DW_AT_name("counter")
     847                            .dwattr $C$DW$176, DW_AT_TI_symbol_name("counter")
     848                            .dwattr $C$DW$176, DW_AT_type(*$C$DW$T$23)
     849                            .dwattr $C$DW$176, DW_AT_location[DW_OP_reg14]
     850                    $C$DW$177       .dwtag  DW_TAG_variable, DW_AT_name("$O$v1")
     851                            .dwattr $C$DW$177, DW_AT_TI_symbol_name("$O$v1")
     852                            .dwattr $C$DW$177, DW_AT_type(*$C$DW$T$44)
     853                            .dwattr $C$DW$177, DW_AT_location[DW_OP_reg15]
     854                    $C$DW$178       .dwtag  DW_TAG_variable, DW_AT_name("$O$v1")
     855                            .dwattr $C$DW$178, DW_AT_TI_symbol_name("$O$v1")
     856                            .dwattr $C$DW$178, DW_AT_type(*$C$DW$T$44)
     857                            .dwattr $C$DW$178, DW_AT_location[DW_OP_reg15]
     858                    $C$DW$179       .dwtag  DW_TAG_variable, DW_AT_name("$O$v2")
     859                            .dwattr $C$DW$179, DW_AT_TI_symbol_name("$O$v2")
     860                            .dwattr $C$DW$179, DW_AT_type(*$C$DW$T$171)
     861                            .dwattr $C$DW$179, DW_AT_location[DW_OP_reg22]
     862                    $C$DW$180       .dwtag  DW_TAG_variable, DW_AT_name("$O$v2")
     863                            .dwattr $C$DW$180, DW_AT_TI_symbol_name("$O$v2")
     864                            .dwattr $C$DW$180, DW_AT_type(*$C$DW$T$171)
     865                            .dwattr $C$DW$180, DW_AT_location[DW_OP_regx 0x35]
     866                    $C$DW$181       .dwtag  DW_TAG_variable, DW_AT_name("mode")
     867                            .dwattr $C$DW$181, DW_AT_TI_symbol_name("mode")
     868                            .dwattr $C$DW$181, DW_AT_type(*$C$DW$T$106)
     869                            .dwattr $C$DW$181, DW_AT_location[DW_OP_breg31 120]
     870 00000014 0200002a!            MVKL    .S2     test_cases,B4
     871 00000018 0200006a!            MVKH    .S2     test_cases,B4
     872                    $C$DW$182       .dwtag  DW_TAG_TI_branch
     873                            .dwattr $C$DW$182, DW_AT_low_pc(0x00)
     874                            .dwattr $C$DW$182, DW_AT_name("mixtureOfGaussiansS16_getTestParams")
     875                            .dwattr $C$DW$182, DW_AT_TI_call
     876                    
     877 00000020 10000013!            CALLP   .S2     mixtureOfGaussiansS16_getTestParams,B3
     878 00000024 020021fd  ||         STW     .D2T1   A4,*+SP(132)      ; |39| 
     879 00000028 12001dfc  ||         ADDAW   .D1X    SP,29,A4          ; |45| 
     880                    
TMS320C6x Assembler PC v7.4.2 Thu Mar 19 12:43:24 2015

Tools Copyright (c) 1996-2012 Texas Instruments Incorporated
package/lib/Regression/regress_d_c/./../packages/ti/vlib/src/VLIB_mixtureOfGaussiansS16/VLIB_mixtureOfGaussiansS16_d.se66 PAGE   17

     881                            .dwpsn  file "./../packages/ti/vlib/src/VLIB_mixtureOfGaussiansS16/VLIB_mixtureOfGaussiansS16_
     882                    ;----------------------------------------------------------------------
     883                    ;  45 | mixtureOfGaussiansS16_getTestParams(&prm, &test_cases);                
     884                    ;----------------------------------------------------------------------
     885 0000002c           $C$RL0:    ; CALL OCCURS {mixtureOfGaussiansS16_getTestParams} {0}  ; |45| 
     886                    ;** --------------------------------------------------------------------------*
     887                    ;          EXCLUSIVE CPU CYCLES: 8
     888 0000002c 0200002a!            MVKL    .S2     $C$SL1+0,B4
     889 00000030 0200006a!            MVKH    .S2     $C$SL1+0,B4
     890                    $C$DW$183       .dwtag  DW_TAG_TI_branch
     891                            .dwattr $C$DW$183, DW_AT_low_pc(0x00)
     892                            .dwattr $C$DW$183, DW_AT_name("VLIB_profile_init")
     893                            .dwattr $C$DW$183, DW_AT_TI_call
     894                    
     895 00000034 10000013!            CALLP   .S2     VLIB_profile_init,B3
     896 00000038 020ca358  ||         MVK     .L1     0x3,A4            ; |48| 
     897                    
     898                            .dwpsn  file "./../packages/ti/vlib/src/VLIB_mixtureOfGaussiansS16/VLIB_mixtureOfGaussiansS16_
     899                    ;----------------------------------------------------------------------
     900                    ;  48 | VLIB_profile_init(3, "VLIB_mixtureOfGaussiansS16");                    
     901                    ;----------------------------------------------------------------------
     902 0000003c           $C$RL1:    ; CALL OCCURS {VLIB_profile_init} {0}  ; |48| 
     903                    ;** --------------------------------------------------------------------------*
     904                    ;          EXCLUSIVE CPU CYCLES: 14
     905 0000003c 01800028!            MVKL    .S1     test_cases,A3
     906 00000040 01800068!            MVKH    .S1     test_cases,A3
     907                            .dwpsn  file "./../packages/ti/vlib/src/VLIB_mixtureOfGaussiansS16/VLIB_mixtureOfGaussiansS16_
     908                    ;----------------------------------------------------------------------
     909                    ;  51 | for( tpi=0; tpi < test_cases; tpi++ ) {                                
     910                    ;----------------------------------------------------------------------
     911 00000044 018c0264             LDW     .D1T1   *A3,A3            ; |51| 
     912                            .dwpsn  file "./../packages/ti/vlib/src/VLIB_mixtureOfGaussiansS16/VLIB_mixtureOfGaussiansS16_
     913                    ;----------------------------------------------------------------------
     914                    ;  54 | int32_t    status_nat_vs_int = vlib_KERNEL_PASS; /* Test status : Natur
     915                    ;     | al c vs. Optimized */                                                  
     916                    ;  55 | int32_t    status_nat_vs_ref = vlib_KERNEL_PASS; /* Test status : Natur
     917                    ;     | al c vs. Static Reference */                                           
     918                    ;  58 | uint32_t    inp_size     =   prm[tpi].im_size * prm[tpi].num_images; //
     919                    ;     |  Allocate all frames into a single buffer for this test                
     920                    ;----------------------------------------------------------------------
     921 00000048 0200a358             ZERO    .L1     A4                ; |51| 
     922 0000004c 05bfa2e6             LDW     .D2T2   *+SP(116),B11
     923 00000050 020020fc             STW     .D2T1   A4,*+SP(128)
     924 00000054     0c6e             NOP             1
     925                    
     926 00000056     11a6             CMPGT   .L1     A3,0,A0           ; |51| 
     927 00000058 01800028  ||         ZERO    .S1     A3                ; |51| 
     928                    
     929 00000060 d3f32121     [!A0]   BNOP    .S1     $C$L36,1          ; |51| 
     930 00000064 018022fc  ||         STW     .D2T1   A3,*+SP(136)
     931                    
     932                            .dwpsn  file "./../packages/ti/vlib/src/VLIB_mixtureOfGaussiansS16/VLIB_mixtureOfGaussiansS16_
     933                    ;----------------------------------------------------------------------
     934                    ;  61 | uint8_t    *Im          =  (uint8_t *) VLIB_malloc(inp_size*sizeof(uint
     935                    ;     | 8_t));                                                                 
TMS320C6x Assembler PC v7.4.2 Thu Mar 19 12:43:24 2015

Tools Copyright (c) 1996-2012 Texas Instruments Incorporated
package/lib/Regression/regress_d_c/./../packages/ti/vlib/src/VLIB_mixtureOfGaussiansS16/VLIB_mixtureOfGaussiansS16_d.se66 PAGE   18

     936                    ;----------------------------------------------------------------------
     937 00000068 c1ac82e4     [ A0]   LDW     .D2T1   *+B11(16),A3      ; |61| 
     938 0000006c c22c62e6     [ A0]   LDW     .D2T2   *+B11(12),B4      ; |61| 
     939 00000070 00002000             NOP             2
     940                            .dwpsn  file "./../packages/ti/vlib/src/VLIB_mixtureOfGaussiansS16/VLIB_mixtureOfGaussiansS16_
     941                               ; BRANCHCC OCCURS {$C$L36}        ; |51| 
     942                    ;** --------------------------------------------------------------------------*
     943                    ;**     -----------------------    K$11 = 32;
     944                    ;**     -----------------------    K$57 = &testPatternString[0];
     945                    ;**     -----------------------    K$63 = 255;
     946                    ;**     -----------------------    K$223 = &desc[0];
     947                    ;**     -----------------------    U$13 = prm;
     948                    ;**     -----------------------    K$34 = 0xfffffffcu;
     949                    ;**     -----------------------    U$12 = 0;
     950                    ;** 51  -----------------------    tpi = 0;
     951                    ;**     -----------------------    #pragma LOOP_FLAGS(5120u)
     952                    ;** --------------------------------------------------------------------------*
     953                    ;**   BEGIN LOOP $C$L1
     954                    ;** --------------------------------------------------------------------------*
     955 00000074           $C$L1:    
     956                            .dwpsn  file "./../packages/ti/vlib/src/VLIB_mixtureOfGaussiansS16/VLIB_mixtureOfGaussiansS16_
     957 00000074           $C$DW$L$VLIB_mixtureOfGaussiansS16_d$5$B:
     958                    ;          EXCLUSIVE CPU CYCLES: 6
     959                    ;**     -----------------------g3:
     960                    ;** 61  -----------------------    Im = VLIB_malloc((unsigned)((*U$13).im_size*(*U$13).num_images));
     961                    ;** 62  -----------------------    wt = VLIB_malloc((*U$13).im_size*6u);
     962                    ;** 63  -----------------------    mu = VLIB_malloc((*U$13).im_size*6u);
     963                    ;** 64  -----------------------    var = VLIB_malloc((*U$13).im_size*6u);
     964                    ;** 65  -----------------------    compNum = VLIB_malloc((unsigned)(*U$13).im_size);
     965                    ;** 66  -----------------------    updateMask8 = VLIB_malloc((unsigned)(*U$13).im_size);
     966                    ;** 67  -----------------------    C$11 = (*U$13).im_size;
     967                    ;** 67  -----------------------    Im_mask = VLIB_malloc((C$11>>4>>27)+C$11>>3&K$34);
     968                    ;** 68  -----------------------    C$10 = (*U$13).im_size;
     969                    ;** 68  -----------------------    Im_mask_cn = malloc((C$10>>4>>27)+C$10>>3&K$34);
     970                    ;** 71  -----------------------    if ( !((Im != NULL)&(wt != NULL)&(mu != NULL)&(var != NULL)&(compNu
     971                            .dwpsn  file "./../packages/ti/vlib/src/VLIB_mixtureOfGaussiansS16/VLIB_mixtureOfGaussiansS16_
     972                    $C$DW$184       .dwtag  DW_TAG_TI_branch
     973                            .dwattr $C$DW$184, DW_AT_low_pc(0x00)
     974                            .dwattr $C$DW$184, DW_AT_name("VLIB_malloc")
     975                            .dwattr $C$DW$184, DW_AT_TI_call
     976 00000074 00000010!            CALL    .S1     VLIB_malloc       ; |61| 
     977 00000078 01890162             ADDKPC  .S2     $C$RL2,B3,0       ; |61| 
     978 0000007c 02107800             MPY32   .M1X    A3,B4,A4          ; |61| 
     979 00000080 00004000             NOP             3
     980 00000084           $C$RL2:    ; CALL OCCURS {VLIB_malloc} {0}   ; |61| 
     981 00000084           $C$DW$L$VLIB_mixtureOfGaussiansS16_d$5$E:
     982                    ;** --------------------------------------------------------------------------*
     983 00000084           $C$DW$L$VLIB_mixtureOfGaussiansS16_d$6$B:
     984                    ;          EXCLUSIVE CPU CYCLES: 87
     985                            .dwpsn  file "./../packages/ti/vlib/src/VLIB_mixtureOfGaussiansS16/VLIB_mixtureOfGaussiansS16_
     986                    ;----------------------------------------------------------------------
     987                    ;  62 | int16_t    *wt          =  (int16_t *) VLIB_malloc(prm[tpi].im_size * 3
     988                    ;     |  * sizeof(int16_t));                                                   
     989                    ;----------------------------------------------------------------------
     990 00000084 022c62e6             LDW     .D2T2   *+B11(12),B4      ; |62| 
TMS320C6x Assembler PC v7.4.2 Thu Mar 19 12:43:24 2015

Tools Copyright (c) 1996-2012 Texas Instruments Incorporated
package/lib/Regression/regress_d_c/./../packages/ti/vlib/src/VLIB_mixtureOfGaussiansS16/VLIB_mixtureOfGaussiansS16_d.se66 PAGE   19

     991                            .dwpsn  file "./../packages/ti/vlib/src/VLIB_mixtureOfGaussiansS16/VLIB_mixtureOfGaussiansS16_
     992 00000088 020023fc             STW     .D2T1   A4,*+SP(140)      ; |61| 
     993 0000008c     4c6e             NOP             3
     994                            .dwpsn  file "./../packages/ti/vlib/src/VLIB_mixtureOfGaussiansS16/VLIB_mixtureOfGaussiansS16_
     995 0000008e     465b             SHL     .S2     B4,2,B5           ; |62| 
     996 00000090 02149a42             ADDAH   .D2     B5,B4,B4          ; |62| 
     997 00000094     0c6e             NOP             1
     998                    $C$DW$185       .dwtag  DW_TAG_TI_branch
     999                            .dwattr $C$DW$185, DW_AT_low_pc(0x04)
    1000                            .dwattr $C$DW$185, DW_AT_name("VLIB_malloc")
    1001                            .dwattr $C$DW$185, DW_AT_TI_call
    1002                    
    1003 00000096     9246             MV      .L1X    B4,A4             ; |62| 
    1004 00000098 10000012! ||         CALLP   .S2     VLIB_malloc,B3
    1005                    
    1006 000000a0           $C$RL3:    ; CALL OCCURS {VLIB_malloc} {0}   ; |62| 
    1007                            .dwpsn  file "./../packages/ti/vlib/src/VLIB_mixtureOfGaussiansS16/VLIB_mixtureOfGaussiansS16_
    1008                    ;----------------------------------------------------------------------
    1009                    ;  63 | int16_t    *mu          =  (int16_t *) VLIB_malloc(prm[tpi].im_size * 3
    1010                    ;     |  * sizeof(int16_t));                                                   
    1011                    ;----------------------------------------------------------------------
    1012 000000a0 022c62e6             LDW     .D2T2   *+B11(12),B4      ; |63| 
    1013                            .dwpsn  file "./../packages/ti/vlib/src/VLIB_mixtureOfGaussiansS16/VLIB_mixtureOfGaussiansS16_
    1014 000000a4 020024fc             STW     .D2T1   A4,*+SP(144)      ; |62| 
    1015 000000a8     4c6e             NOP             3
    1016                            .dwpsn  file "./../packages/ti/vlib/src/VLIB_mixtureOfGaussiansS16/VLIB_mixtureOfGaussiansS16_
    1017 000000aa     465b             SHL     .S2     B4,2,B5           ; |63| 
    1018 000000ac 02149a42             ADDAH   .D2     B5,B4,B4          ; |63| 
    1019 000000b0     0c6e             NOP             1
    1020                    $C$DW$186       .dwtag  DW_TAG_TI_branch
    1021                            .dwattr $C$DW$186, DW_AT_low_pc(0x04)
    1022                            .dwattr $C$DW$186, DW_AT_name("VLIB_malloc")
    1023                            .dwattr $C$DW$186, DW_AT_TI_call
    1024                    
    1025 000000b2     9246             MV      .L1X    B4,A4             ; |63| 
    1026 000000b4 10000012! ||         CALLP   .S2     VLIB_malloc,B3
    1027                    
    1028 000000b8           $C$RL4:    ; CALL OCCURS {VLIB_malloc} {0}   ; |63| 
    1029                            .dwpsn  file "./../packages/ti/vlib/src/VLIB_mixtureOfGaussiansS16/VLIB_mixtureOfGaussiansS16_
    1030                    ;----------------------------------------------------------------------
    1031                    ;  64 | int16_t    *var         =  (int16_t *) VLIB_malloc(prm[tpi].im_size * 3
    1032                    ;     |  * sizeof(int16_t));                                                   
    1033                    ;----------------------------------------------------------------------
    1034 000000b8 022c62e6             LDW     .D2T2   *+B11(12),B4      ; |64| 
    1035                            .dwpsn  file "./../packages/ti/vlib/src/VLIB_mixtureOfGaussiansS16/VLIB_mixtureOfGaussiansS16_
    1036 000000c0 020025fc             STW     .D2T1   A4,*+SP(148)      ; |63| 
    1037 000000c4     4c6e             NOP             3
    1038                            .dwpsn  file "./../packages/ti/vlib/src/VLIB_mixtureOfGaussiansS16/VLIB_mixtureOfGaussiansS16_
    1039 000000c6     465b             SHL     .S2     B4,2,B5           ; |64| 
    1040 000000c8 02149a42             ADDAH   .D2     B5,B4,B4          ; |64| 
    1041 000000cc     0c6e             NOP             1
    1042                    $C$DW$187       .dwtag  DW_TAG_TI_branch
    1043                            .dwattr $C$DW$187, DW_AT_low_pc(0x04)
    1044                            .dwattr $C$DW$187, DW_AT_name("VLIB_malloc")
    1045                            .dwattr $C$DW$187, DW_AT_TI_call
TMS320C6x Assembler PC v7.4.2 Thu Mar 19 12:43:24 2015

Tools Copyright (c) 1996-2012 Texas Instruments Incorporated
package/lib/Regression/regress_d_c/./../packages/ti/vlib/src/VLIB_mixtureOfGaussiansS16/VLIB_mixtureOfGaussiansS16_d.se66 PAGE   20

    1046                    
    1047 000000ce     9246             MV      .L1X    B4,A4             ; |64| 
    1048 000000d0 10000012! ||         CALLP   .S2     VLIB_malloc,B3
    1049                    
    1050 000000d4           $C$RL5:    ; CALL OCCURS {VLIB_malloc} {0}   ; |64| 
    1051 000000d4 020026fc             STW     .D2T1   A4,*+SP(152)      ; |64| 
    1052                    $C$DW$188       .dwtag  DW_TAG_TI_branch
    1053                            .dwattr $C$DW$188, DW_AT_low_pc(0x00)
    1054                            .dwattr $C$DW$188, DW_AT_name("VLIB_malloc")
    1055                            .dwattr $C$DW$188, DW_AT_TI_call
    1056                    
    1057 000000d8 10000013!            CALLP   .S2     VLIB_malloc,B3
    1058 000000e0 022c62e4  ||         LDW     .D2T1   *+B11(12),A4      ; |65| 
    1059                    
    1060                            .dwpsn  file "./../packages/ti/vlib/src/VLIB_mixtureOfGaussiansS16/VLIB_mixtureOfGaussiansS16_
    1061                    ;----------------------------------------------------------------------
    1062                    ;  65 | uint8_t    *compNum     =  (uint8_t *) VLIB_malloc(prm[tpi].im_size * s
    1063                    ;     | izeof(uint8_t));                                                       
    1064                    ;----------------------------------------------------------------------
    1065 000000e4           $C$RL6:    ; CALL OCCURS {VLIB_malloc} {0}   ; |65| 
    1066 000000e4 020027fc             STW     .D2T1   A4,*+SP(156)      ; |65| 
    1067                    $C$DW$189       .dwtag  DW_TAG_TI_branch
    1068                            .dwattr $C$DW$189, DW_AT_low_pc(0x00)
    1069                            .dwattr $C$DW$189, DW_AT_name("VLIB_malloc")
    1070                            .dwattr $C$DW$189, DW_AT_TI_call
    1071                    
    1072 000000e8 10000013!            CALLP   .S2     VLIB_malloc,B3
    1073 000000ec 022c62e4  ||         LDW     .D2T1   *+B11(12),A4      ; |66| 
    1074                    
    1075                            .dwpsn  file "./../packages/ti/vlib/src/VLIB_mixtureOfGaussiansS16/VLIB_mixtureOfGaussiansS16_
    1076                    ;----------------------------------------------------------------------
    1077                    ;  66 | uint8_t    *updateMask8 =  (uint8_t *) VLIB_malloc(prm[tpi].im_size * s
    1078                    ;     | izeof(uint8_t));                                                       
    1079                    ;----------------------------------------------------------------------
    1080 000000f0           $C$RL7:    ; CALL OCCURS {VLIB_malloc} {0}   ; |66| 
    1081                            .dwpsn  file "./../packages/ti/vlib/src/VLIB_mixtureOfGaussiansS16/VLIB_mixtureOfGaussiansS16_
    1082                    ;----------------------------------------------------------------------
    1083                    ;  67 | uint32_t   *Im_mask     =  (uint32_t *) VLIB_malloc(prm[tpi].im_size /
    1084                    ;     | 32 * sizeof(uint32_t));                                                
    1085                    ;----------------------------------------------------------------------
    1086 000000f0 022c62e6             LDW     .D2T2   *+B11(12),B4      ; |67| 
    1087                            .dwpsn  file "./../packages/ti/vlib/src/VLIB_mixtureOfGaussiansS16/VLIB_mixtureOfGaussiansS16_
    1088 000000f4 020028fc             STW     .D2T1   A4,*+SP(160)      ; |66| 
    1089 000000f8     9e26             MVK     .L1     0xfffffffc,A4
    1090 000000fa     2c6e             NOP             2
    1091                            .dwpsn  file "./../packages/ti/vlib/src/VLIB_mixtureOfGaussiansS16/VLIB_mixtureOfGaussiansS16_
    1092 00000100     9e3a             SHR     .S1X    B4,4,A3           ; |67| 
    1093 00000102     7dc2             SHRU    .S1     A3,27,A3          ; |67| 
    1094 00000104     7230             ADD     .L1X    B4,A3,A3          ; |67| 
    1095 00000106     65a2             SHR     .S1     A3,3,A3           ; |67| 
    1096                    $C$DW$190       .dwtag  DW_TAG_TI_branch
    1097                            .dwattr $C$DW$190, DW_AT_low_pc(0x00)
    1098                            .dwattr $C$DW$190, DW_AT_name("VLIB_malloc")
    1099                            .dwattr $C$DW$190, DW_AT_TI_call
    1100                    
TMS320C6x Assembler PC v7.4.2 Thu Mar 19 12:43:24 2015

Tools Copyright (c) 1996-2012 Texas Instruments Incorporated
package/lib/Regression/regress_d_c/./../packages/ti/vlib/src/VLIB_mixtureOfGaussiansS16/VLIB_mixtureOfGaussiansS16_d.se66 PAGE   21

    1101 00000108 10000013!            CALLP   .S2     VLIB_malloc,B3
    1102 0000010c 020c8f78  ||         AND     .L1     A4,A3,A4          ; |67| 
    1103                    
    1104 00000110           $C$RL8:    ; CALL OCCURS {VLIB_malloc} {0}   ; |67| 
    1105                            .dwpsn  file "./../packages/ti/vlib/src/VLIB_mixtureOfGaussiansS16/VLIB_mixtureOfGaussiansS16_
    1106                    ;----------------------------------------------------------------------
    1107                    ;  68 | uint32_t   *Im_mask_cn  =  (uint32_t *) malloc(prm[tpi].im_size / 32 *
    1108                    ;     | sizeof(uint32_t));                                                     
    1109                    ;----------------------------------------------------------------------
    1110 00000110 022c62e6             LDW     .D2T2   *+B11(12),B4      ; |68| 
    1111 00000114 01f0a358             MVK     .L1     0xfffffffc,A3
    1112                            .dwpsn  file "./../packages/ti/vlib/src/VLIB_mixtureOfGaussiansS16/VLIB_mixtureOfGaussiansS16_
    1113 00000118 020029fc             STW     .D2T1   A4,*+SP(164)      ; |67| 
    1114 00000120     2c6e             NOP             2
    1115                            .dwpsn  file "./../packages/ti/vlib/src/VLIB_mixtureOfGaussiansS16/VLIB_mixtureOfGaussiansS16_
    1116 00000122     8e5b             SHR     .S2     B4,4,B5           ; |68| 
    1117 00000124     7ec3             SHRU    .S2     B5,27,B5          ; |68| 
    1118 00000126     82c1             ADD     .L2     B4,B5,B4          ; |68| 
    1119 00000128     6623             SHR     .S2     B4,3,B4           ; |68| 
    1120 0000012a     0c6e             NOP             1
    1121                    $C$DW$191       .dwtag  DW_TAG_TI_branch
    1122                            .dwattr $C$DW$191, DW_AT_low_pc(0x04)
    1123                            .dwattr $C$DW$191, DW_AT_name("malloc")
    1124                            .dwattr $C$DW$191, DW_AT_TI_call
    1125                    
    1126 0000012c 02107f79             AND     .L1X    A3,B4,A4          ; |68| 
    1127 00000130 10000013! ||         CALLP   .S2     malloc,B3
    1128                    
    1129 00000140           $C$RL9:    ; CALL OCCURS {malloc} {0}        ; |68| 
    1130 00000140           $C$DW$L$VLIB_mixtureOfGaussiansS16_d$6$E:
    1131                    ;** --------------------------------------------------------------------------*
    1132 00000140           $C$DW$L$VLIB_mixtureOfGaussiansS16_d$7$B:
    1133                    ;          EXCLUSIVE CPU CYCLES: 22
    1134                    
    1135 00000140 000023ed             LDW     .D2T1   *+SP(140),A0      ; |71| 
    1136 00000144     05a6  ||         ZERO    .L1     A3                ; |71| 
    1137 00000146     06a7  ||         ZERO    .L2     B5                ; |71| 
    1138 00000148 0200002a  ||         ZERO    .S2     B4                ; |71| 
    1139                    
    1140                            .dwpsn  file "./../packages/ti/vlib/src/VLIB_mixtureOfGaussiansS16/VLIB_mixtureOfGaussiansS16_
    1141                    ;----------------------------------------------------------------------
    1142                    ;  71 | if( Im && wt && mu && var && compNum && updateMask8 && Im_mask && Im_ma
    1143                    ;     | sk_cn) {                                                               
    1144                    ;  73 |     int32_t    fail, i, k, counter;                                    
    1145                    ;  74 |     int8_t     mode[3];                                                
    1146                    ;----------------------------------------------------------------------
    1147 0000014c 000024ee             LDW     .D2T2   *+SP(144),B0      ; |71| 
    1148 00000150 008025ec             LDW     .D2T1   *+SP(148),A1      ; |71| 
    1149 00000154 010026ec             LDW     .D2T1   *+SP(152),A2      ; |71| 
    1150 00000158 010027ee             LDW     .D2T2   *+SP(156),B2      ; |71| 
    1151                    
    1152 00000160 02002afd             STW     .D2T1   A4,*+SP(168)      ; |68| 
    1153 00000164     0626  ||         ZERO    .L1     A4                ; |71| 
    1154                    
    1155 00000166     2a66     [ A0]   MVK     .L1     0x1,A4            ; |71| 
TMS320C6x Assembler PC v7.4.2 Thu Mar 19 12:43:24 2015

Tools Copyright (c) 1996-2012 Texas Instruments Incorporated
package/lib/Regression/regress_d_c/./../packages/ti/vlib/src/VLIB_mixtureOfGaussiansS16/VLIB_mixtureOfGaussiansS16_d.se66 PAGE   22

    1156 00000168 000028ed  ||         LDW     .D2T1   *+SP(160),A0      ; |71| 
    1157 0000016c     a9ee  || [ B0]   MVK     .S1     0x1,A3            ; |71| 
    1158                    
    1159 00000170 02106f79             AND     .L1     A3,A4,A4          ; |71| 
    1160 0000016e     0192  ||         ZERO    .S1     A3                ; |71| 
    1161 00000174 8284a35b  || [ A1]   MVK     .L2     0x1,B5            ; |71| 
    1162 00000178 00802aec  ||         LDW     .D2T1   *+SP(168),A1      ; |71| 
    1163                    
    1164 00000180 a184a359     [ A2]   MVK     .L1     0x1,A3            ; |71| 
    1165 00000184 010029ec  ||         LDW     .D2T1   *+SP(164),A2      ; |71| 
    1166                    
    1167 00000188 02149f79             AND     .L1X    B5,A4,A4          ; |71| 
    1168 0000018c 6204a35b  || [ B2]   MVK     .L2     0x1,B4            ; |71| 
    1169 00000190     0293  ||         ZERO    .S2     B5                ; |71| 
    1170                    
    1171 00000194 02106f78             AND     .L1     A3,A4,A4          ; |71| 
    1172 00000192     0192  ||         ZERO    .S1     A3                ; |71| 
    1173                    
    1174 00000198     29e6     [ A0]   MVK     .L1     0x1,A3            ; |71| 
    1175 000001a0 021097e0  ||         AND     .S1X    B4,A4,A4          ; |71| 
    1176 0000019a     0627  ||         ZERO    .L2     B4                ; |71| 
    1177                    
    1178 000001a4 01906f79             AND     .L1     A3,A4,A3          ; |71| 
    1179 000001a8 8284a35a  || [ A1]   MVK     .L2     0x1,B5            ; |71| 
    1180                    
    1181 000001ac a204a35a     [ A2]   MVK     .L2     0x1,B4            ; |71| 
    1182 000001b0 020c9f7a             AND     .L2X    B4,A3,B4          ; |71| 
    1183 000001b4 0010af7a             AND     .L2     B5,B4,B0          ; |71| 
    1184                    
    1185 000001b8 21807fa9     [ B0]   MVK     .S1     0xff,A3
    1186 000001bc 3001ba13  || [!B0]   B       .S2     $C$L34            ; |71| 
    1187 000001c0 22acc286  || [ B0]   LDHU    .D2T2   *+B11(12),B5      ; |77| 
    1188                    
    1189 000001c4 218f1809     [ B0]   EXTU    .S1     A3,24,24,A3       ; |77| 
    1190 000001c8 222c0294  || [ B0]   LDBU    .D2T1   *B11,A4           ; |77| 
    1191                    
    1192 000001cc 26000029!    [ B0]   MVKL    .S1     testPatternString,A12
    1193 000001d0 242d0286  || [ B0]   LDHU    .D2T2   *+B11(16),B8      ; |77| 
    1194                    
    1195                    $C$DW$192       .dwtag  DW_TAG_TI_branch
    1196                            .dwattr $C$DW$192, DW_AT_low_pc(0x00)
    1197                            .dwattr $C$DW$192, DW_AT_name("VLIB_fillBuffer")
    1198                            .dwattr $C$DW$192, DW_AT_TI_call
    1199                    
    1200 000001d4 20000011!    [ B0]   CALL    .S1     VLIB_fillBuffer   ; |77| 
    1201 000001d8 232c22e6  || [ B0]   LDW     .D2T2   *+B11(4),B6       ; |77| 
    1202                    
    1203                            .dwpsn  file "./../packages/ti/vlib/src/VLIB_mixtureOfGaussiansS16/VLIB_mixtureOfGaussiansS16_
    1204                    ;----------------------------------------------------------------------
    1205                    ;  77 | VLIB_fillBuffer(prm[tpi].testPattern,                                  
    1206                    ;  78 |                 (uint8_t)255,                                          
    1207                    ;  79 |                 Im, prm[tpi].staticIn,                                 
    1208                    ;  80 |                 prm[tpi].im_size, prm[tpi].num_images, prm[tpi].im_size
    1209                    ;     | *sizeof(uint8_t),                                                      
    1210                    ;  81 |                 sizeof(uint8_t), testPatternString);                   
TMS320C6x Assembler PC v7.4.2 Thu Mar 19 12:43:24 2015

Tools Copyright (c) 1996-2012 Texas Instruments Incorporated
package/lib/Regression/regress_d_c/./../packages/ti/vlib/src/VLIB_mixtureOfGaussiansS16/VLIB_mixtureOfGaussiansS16_d.se66 PAGE   23

    1211                    ;  88 | memset(wt, 0, prm[tpi].im_size * 3 * sizeof(int16_t));                 
    1212                    ;  89 | memset(mu, 0, prm[tpi].im_size * 3 * sizeof(int16_t));                 
    1213                    ;  90 | memset(var, 0, prm[tpi].im_size * 3 * sizeof(int16_t));                
    1214                    ;  91 | counter = 0;                                                           
    1215                    ;  93 | if( LevelOfFeedback > 0 ) {                                            
    1216                    ;  95 |     printf("Luma  FG    Mean-1   Varn-1   Wght-1        Mean-2   Varn-2
    1217                    ;     |    Wght-2       Mean-3   Varn-3   Wght-3\n");                          
    1218                    ;  96 |     printf("-----------------------------------------------------------
    1219                    ;     | ------------------------------------------\n");                        
    1220                    ; 100 | for( i=0; i < prm[tpi].num_images; i++ ) {                             
    1221                    ; 103 |     VLIB_profile_start(vlib_KERNEL_OPT);                               
    1222                    ; 104 |     VLIB_mixtureOfGaussiansS16(&Im[i*prm[tpi].im_size],                
    1223                    ; 105 |                                wt, mu, var, compNum, updateMask8, Im_ma
    1224                    ;     | sk,                                                                    
    1225                    ; 106 |                                prm[tpi].im_size,                       
    1226                    ; 107 |                                prm[tpi].alpha,  prm[tpi].rho,          
    1227                    ; 108 |                                prm[tpi].delta,  prm[tpi].T,            
    1228                    ; 109 |                                prm[tpi].ini_wt, prm[tpi].ini_var);     
    1229                    ; 110 |     VLIB_profile_stop();                                               
    1230                    ; 113 |     mode[0] = ' ';                                                     
    1231                    ; 114 |     mode[1] = ' ';                                                     
    1232                    ; 115 |     mode[2] = ' ';                                                     
    1233                    ; 116 |     mode[compNum[0]] = '*';                                            
    1234                    ; 118 |     if( LevelOfFeedback > 0 ) {                                        
    1235                    ; 119 |         printf("%4d  %d  %c %8.4f %8.4f %8.6f   %c %8.4f %8.4f %8.6f
    1236                    ;     | %c %8.4f %8.4f %8.6f\n", Im[i*prm[tpi].im_size], (Im_mask[0] & 0x800000
    1237                    ;     | 00) >> 31,                                                             
    1238                    ; 120 |                mode[0], VLIB_getFractional16(mu[0], 7, 1), VLIB_getFrac
    1239                    ;     | tional16(var[0], 3, 1), VLIB_getFractional16(wt[0], 15, 1),            
    1240                    ; 121 |                mode[1], VLIB_getFractional16(mu[0 + (prm[tpi].im_size)]
    1241                    ;     | , 7, 1), VLIB_getFractional16(var[0 + (prm[tpi].im_size)], 3, 1), VLIB_
    1242                    ;     | getFractional16(wt[0 + (prm[tpi].im_size)], 15, 1),                    
    1243                    ; 122 |                mode[2], VLIB_getFractional16(mu[0 + 2 * (prm[tpi].im_si
    1244                    ;     | ze)], 7, 1), VLIB_getFractional16(var[0 + 2 * (prm[tpi].im_size)], 3, 1
    1245                    ;     | ), VLIB_getFractional16(wt[0 + 2 * (prm[tpi].im_size)], 15, 1));       
    1246                    ; 126 |     if( prm[tpi].staticOut != NULL ) {                                 
    1247                    ; 129 |         for( k=0; k < 3 * prm[tpi].im_size; k++ ) {                    
    1248                    ; 130 |             if( mu[k] != prm[tpi].staticOut[counter++] ) {             
    1249                    ; 131 |                 printf("\tError in Mean: Image %d, Pixel %d, Mode %d\n"
    1250                    ;     | , i, k % 32, k / 32);                                                  
    1251                    ; 132 |                 status_nat_vs_ref = vlib_KERNEL_FAIL;                  
    1252                    ; 134 |             if( var[k] != prm[tpi].staticOut[counter++] ) {            
    1253                    ; 135 |                 printf("\tError in Variance: Image %d, Pixel %d, Mode %
    1254                    ;     | d\n", i, k % 32, k / 32);                                              
    1255                    ; 136 |                 status_nat_vs_ref = vlib_KERNEL_FAIL;                  
    1256                    ; 138 |             if( wt[k] != prm[tpi].staticOut[counter++] ) {             
    1257                    ; 139 |                 printf("\tError in Weight: Image %d, Pixel %d, Mode %d\
    1258                    ;     | n", i, k % 32, k / 32);                                                
    1259                    ; 140 |                 status_nat_vs_ref = vlib_KERNEL_FAIL;                  
    1260                    ; 144 |         for( k=0; k < prm[tpi].im_size; k++ ) {                        
    1261                    ; 145 |             if( compNum[k] != prm[tpi].staticOut[counter++] ) {        
    1262                    ; 146 |                 printf("\tError in Component index: Image %d, Pixel %d\
    1263                    ;     | n", i, k % 32);                                                        
    1264                    ; 147 |                 status_nat_vs_ref = vlib_KERNEL_FAIL;                  
    1265                    ; 151 |         for( k=0; k < prm[tpi].im_size; k++ ) {                        
TMS320C6x Assembler PC v7.4.2 Thu Mar 19 12:43:24 2015

Tools Copyright (c) 1996-2012 Texas Instruments Incorporated
package/lib/Regression/regress_d_c/./../packages/ti/vlib/src/VLIB_mixtureOfGaussiansS16/VLIB_mixtureOfGaussiansS16_d.se66 PAGE   24

    1266                    ; 152 |             if(((Im_mask[0] >> k) & 0x00000001) != ((prm[tpi].staticOut
    1267                    ;     | [counter] >> k) & 0x00000001)) {                                       
    1268                    ; 153 |                 printf("\tError in Foreground Mask: Image %d, Pixel %d\
    1269                    ;     | n", i, k);                                                             
    1270                    ; 154 |                 status_nat_vs_ref = vlib_KERNEL_FAIL;                  
    1271                    ; 158 |         counter++;                                                     
    1272                    ; 167 | memset(wt, 0, prm[tpi].im_size * 3 * sizeof(int16_t));                 
    1273                    ; 168 | memset(mu, 0, prm[tpi].im_size * 3 * sizeof(int16_t));                 
    1274                    ; 169 | memset(var, 0, prm[tpi].im_size * 3 * sizeof(int16_t));                
    1275                    ; 170 | counter = 0;                                                           
    1276                    ; 172 | if( LevelOfFeedback > 0 ) {                                            
    1277                    ; 174 |     printf("Luma  FG    Mean-1   Varn-1   Wght-1        Mean-2   Varn-2
    1278                    ;     |    Wght-2       Mean-3   Varn-3   Wght-3\n");                          
    1279                    ; 175 |     printf("-----------------------------------------------------------
    1280                    ;     | ------------------------------------------\n");                        
    1281                    ; 179 | for( i=0; i < prm[tpi].num_images; i++ ) {                             
    1282                    ; 182 |     VLIB_profile_start(vlib_KERNEL_CN);                                
    1283                    ; 183 |     VLIB_mixtureOfGaussiansS16_cn(&Im[i*prm[tpi].im_size],             
    1284                    ; 184 |                                wt, mu, var, compNum, updateMask8, Im_ma
    1285                    ;     | sk_cn,                                                                 
    1286                    ; 185 |                                prm[tpi].im_size,                       
    1287                    ; 186 |                                prm[tpi].alpha,  prm[tpi].rho,          
    1288                    ; 187 |                                prm[tpi].delta,  prm[tpi].T,            
    1289                    ; 188 |                                prm[tpi].ini_wt, prm[tpi].ini_var);     
    1290                    ; 189 |     VLIB_profile_stop();                                               
    1291                    ; 192 |     mode[0] = ' ';                                                     
    1292                    ; 193 |     mode[1] = ' ';                                                     
    1293                    ; 194 |     mode[2] = ' ';                                                     
    1294                    ; 195 |     mode[compNum[0]] = '*';                                            
    1295                    ; 197 |     if( LevelOfFeedback > 0 ) {                                        
    1296                    ; 198 |         printf("%4d  %d  %c %8.4f %8.4f %8.6f   %c %8.4f %8.4f %8.6f
    1297                    ;     | %c %8.4f %8.4f %8.6f\n", Im[i*prm[tpi].im_size], (Im_mask_cn[0] & 0x800
    1298                    ;     | 00000) >> 31,                                                          
    1299                    ; 199 |                mode[0], VLIB_getFractional16(mu[0], 7, 1), VLIB_getFrac
    1300                    ;     | tional16(var[0], 3, 1), VLIB_getFractional16(wt[0], 15, 1),            
    1301                    ; 200 |                mode[1], VLIB_getFractional16(mu[0 + (prm[tpi].im_size)]
    1302                    ;     | , 7, 1), VLIB_getFractional16(var[0 + (prm[tpi].im_size)], 3, 1), VLIB_
    1303                    ;     | getFractional16(wt[0 + (prm[tpi].im_size)], 15, 1),                    
    1304                    ; 201 |                mode[2], VLIB_getFractional16(mu[0 + 2 * (prm[tpi].im_si
    1305                    ;     | ze)], 7, 1), VLIB_getFractional16(var[0 + 2 * (prm[tpi].im_size)], 3, 1
    1306                    ;     | ), VLIB_getFractional16(wt[0 + 2 * (prm[tpi].im_size)], 15, 1));       
    1307                    ; 205 |     if( prm[tpi].staticOut != NULL ) {                                 
    1308                    ; 208 |         for( k=0; k < 3 * prm[tpi].im_size; k++ ) {                    
    1309                    ; 209 |             if( mu[k] != prm[tpi].staticOut[counter++] ) {             
    1310                    ; 210 |                 printf("\tError in Mean: Image %d, Pixel %d, Mode %d\n"
    1311                    ;     | , i, k % 32, k / 32);                                                  
    1312                    ; 211 |                 status_nat_vs_ref = vlib_KERNEL_FAIL;                  
    1313                    ; 213 |             if( var[k] != prm[tpi].staticOut[counter++] ) {            
    1314                    ; 214 |                 printf("\tError in Variance: Image %d, Pixel %d, Mode %
    1315                    ;     | d\n", i, k % 32, k / 32);                                              
    1316                    ; 215 |                 status_nat_vs_ref = vlib_KERNEL_FAIL;                  
    1317                    ; 217 |             if( wt[k] != prm[tpi].staticOut[counter++] ) {             
    1318                    ; 218 |                 printf("\tError in Weight: Image %d, Pixel %d, Mode %d\
    1319                    ;     | n", i, k % 32, k / 32);                                                
    1320                    ; 219 |                 status_nat_vs_ref = vlib_KERNEL_FAIL;                  
TMS320C6x Assembler PC v7.4.2 Thu Mar 19 12:43:24 2015

Tools Copyright (c) 1996-2012 Texas Instruments Incorporated
package/lib/Regression/regress_d_c/./../packages/ti/vlib/src/VLIB_mixtureOfGaussiansS16/VLIB_mixtureOfGaussiansS16_d.se66 PAGE   25

    1321                    ; 223 |         for( k=0; k < prm[tpi].im_size; k++ ) {                        
    1322                    ; 224 |             if( compNum[k] != prm[tpi].staticOut[counter++] ) {        
    1323                    ; 225 |                 printf("\tError in Component index: Image %d, Pixel %d\
    1324                    ;     | n", i, k % 32);                                                        
    1325                    ; 226 |                 status_nat_vs_ref = vlib_KERNEL_FAIL;                  
    1326                    ; 230 |         for( k=0; k < prm[tpi].im_size; k++ ) {                        
    1327                    ; 231 |             if(((Im_mask_cn[0] >> k) & 0x00000001) != ((prm[tpi].static
    1328                    ;     | Out[counter] >> k) & 0x00000001)) {                                    
    1329                    ; 232 |                 printf("\tError in Foreground Mask: Image %d, Pixel %d\
    1330                    ;     | n", i, k);                                                             
    1331                    ; 233 |                 status_nat_vs_ref = vlib_KERNEL_FAIL;                  
    1332                    ; 237 |         counter++;                                                     
    1333                    ; 242 | status_nat_vs_int = VLIB_compare_mem((void *) Im_mask, (void *)Im_mask_
    1334                    ;     | cn, prm[tpi].im_size / 32 * sizeof(uint32_t));                         
    1335                    ; 245 | fail = ((status_nat_vs_int == vlib_KERNEL_FAIL) || (status_nat_vs_ref =
    1336                    ;     | = vlib_KERNEL_FAIL)) ? 1 : 0;                                          
    1337                    ; 247 | est_test=1;                                                            
    1338                    ; 250 | sprintf(desc, "%s generated input | Opt results compared to NatC result
    1339                    ;     | s | im_size=%d, num_images=%d",                                        
    1340                    ; 251 |         testPatternString, prm[tpi].im_size, prm[tpi].num_images);     
    1341                    ; 252 | VLIB_formula_add_test(prm[tpi].im_size*prm[tpi].num_images, prm[tpi].nu
    1342                    ;     | m_images, NULL, fail, desc, NULL);                                     
    1343                    ; 254 | } else {                                                               
    1344                    ;----------------------------------------------------------------------
    1345 000001dc 230023ec     [ B0]   LDW     .D2T1   *+SP(140),A6      ; |77| 
    1346                            .dwpsn  file "./../packages/ti/vlib/src/VLIB_mixtureOfGaussiansS16/VLIB_mixtureOfGaussiansS16_
    1347                    ;----------------------------------------------------------------------
    1348                    ; 256 | sprintf(desc, "im_size=%d, num_images=%d",                             
    1349                    ; 257 |         prm[tpi].im_size, prm[tpi].num_images);                        
    1350                    ; 258 | VLIB_skip_test(desc);                                                  
    1351                    ;----------------------------------------------------------------------
    1352 000001e0 32ac82e6     [!B0]   LDW     .D2T2   *+B11(16),B5      ; |256| 
    1353                            .dwpsn  file "./../packages/ti/vlib/src/VLIB_mixtureOfGaussiansS16/VLIB_mixtureOfGaussiansS16_
    1354                               ; BRANCHCC OCCURS {$C$L34}        ; |71| 
    1355 000001e4           $C$DW$L$VLIB_mixtureOfGaussiansS16_d$7$E:
    1356                    ;** --------------------------------------------------------------------------*
    1357 000001e4           $C$DW$L$VLIB_mixtureOfGaussiansS16_d$8$B:
    1358                    ;          EXCLUSIVE CPU CYCLES: 3
    1359                    ;** 77  -----------------------    C$9 = (unsigned short)(*U$13).im_size;
    1360                    ;** 77  -----------------------    VLIB_fillBuffer((*U$13).testPattern, (unsigned char)K$63, (void *)I
    1361                    ;** 88  -----------------------    memset((void *)wt, 0, (*U$13).im_size*6u);
    1362                    ;** 89  -----------------------    memset((void *)mu, 0, (*U$13).im_size*6u);
    1363                    ;** 90  -----------------------    memset((void *)var, 0, (*U$13).im_size*6u);
    1364                    ;** 93  -----------------------    if ( !LevelOfFeedback ) goto g6;
    1365                            .dwpsn  file "./../packages/ti/vlib/src/VLIB_mixtureOfGaussiansS16/VLIB_mixtureOfGaussiansS16_
    1366 000001e4     16c6             MV      .L1X    B5,A8             ; |77| 
    1367 000001e6     91c7             MV      .L2X    A3,B4             ; |77| 
    1368                    
    1369 000001e8 06000069!            MVKH    .S1     testPatternString,A12
    1370 000001ec 0504a35b  ||         MVK     .L2     0x1,B10           ; |77| 
    1371 000001f4 05141fd8  ||         MV      .L1X    B5,A10            ; |77| 
    1372 000001f0 01860163  ||         ADDKPC  .S2     $C$RL10,B3,0      ; |77| 
    1373                    
    1374 000001f8           $C$RL10:   ; CALL OCCURS {VLIB_fillBuffer} {0}  ; |77| 
    1375 000001f8           $C$DW$L$VLIB_mixtureOfGaussiansS16_d$8$E:
TMS320C6x Assembler PC v7.4.2 Thu Mar 19 12:43:24 2015

Tools Copyright (c) 1996-2012 Texas Instruments Incorporated
package/lib/Regression/regress_d_c/./../packages/ti/vlib/src/VLIB_mixtureOfGaussiansS16/VLIB_mixtureOfGaussiansS16_d.se66 PAGE   26

    1376                    ;** --------------------------------------------------------------------------*
    1377 000001f8           $C$DW$L$VLIB_mixtureOfGaussiansS16_d$9$B:
    1378                    ;          EXCLUSIVE CPU CYCLES: 40
    1379                            .dwpsn  file "./../packages/ti/vlib/src/VLIB_mixtureOfGaussiansS16/VLIB_mixtureOfGaussiansS16_
    1380 000001f8 022c62e6             LDW     .D2T2   *+B11(12),B4      ; |88| 
    1381 00000200     6c6e             NOP             4
    1382 00000202     563a             SHL     .S1X    B4,2,A3           ; |88| 
    1383 00000204     9246             MV      .L1X    B4,A4             ; |88| Define a twin register
    1384                    $C$DW$193       .dwtag  DW_TAG_TI_branch
    1385                            .dwattr $C$DW$193, DW_AT_low_pc(0x00)
    1386                            .dwattr $C$DW$193, DW_AT_name("memset")
    1387                            .dwattr $C$DW$193, DW_AT_TI_call
    1388                    
    1389 00000210 10000012!            CALLP   .S2     memset,B3
    1390 00000208 030c9a41  ||         ADDAH   .D1     A3,A4,A6          ; |88| 
    1391 0000020c 020024ed  ||         LDW     .D2T1   *+SP(144),A4      ; |88| 
    1392 00000206     0627  ||         ZERO    .L2     B4                ; |88| 
    1393                    
    1394 00000214           $C$RL11:   ; CALL OCCURS {memset} {0}        ; |88| 
    1395                            .dwpsn  file "./../packages/ti/vlib/src/VLIB_mixtureOfGaussiansS16/VLIB_mixtureOfGaussiansS16_
    1396 00000214 022c62e6             LDW     .D2T2   *+B11(12),B4      ; |89| 
    1397 00000218     6c6e             NOP             4
    1398 0000021a     563a             SHL     .S1X    B4,2,A3           ; |89| 
    1399 00000220     9246             MV      .L1X    B4,A4             ; |89| Define a twin register
    1400                    $C$DW$194       .dwtag  DW_TAG_TI_branch
    1401                            .dwattr $C$DW$194, DW_AT_low_pc(0x00)
    1402                            .dwattr $C$DW$194, DW_AT_name("memset")
    1403                            .dwattr $C$DW$194, DW_AT_TI_call
    1404                    
    1405 0000022c 10000012!            CALLP   .S2     memset,B3
    1406 00000224 030c9a41  ||         ADDAH   .D1     A3,A4,A6          ; |89| 
    1407 00000228 020025ed  ||         LDW     .D2T1   *+SP(148),A4      ; |89| 
    1408 00000222     0627  ||         ZERO    .L2     B4                ; |89| 
    1409                    
    1410 00000230           $C$RL12:   ; CALL OCCURS {memset} {0}        ; |89| 
    1411                            .dwpsn  file "./../packages/ti/vlib/src/VLIB_mixtureOfGaussiansS16/VLIB_mixtureOfGaussiansS16_
    1412 00000230 022c62e6             LDW     .D2T2   *+B11(12),B4      ; |90| 
    1413 00000234 020026ec             LDW     .D2T1   *+SP(152),A4      ; |90| 
    1414 00000238     4c6e             NOP             3
    1415 0000023a     465b             SHL     .S2     B4,2,B5           ; |90| 
    1416 00000240 02149a42             ADDAH   .D2     B5,B4,B4          ; |90| 
    1417 00000244     0c6e             NOP             1
    1418                    $C$DW$195       .dwtag  DW_TAG_TI_branch
    1419                            .dwattr $C$DW$195, DW_AT_low_pc(0x08)
    1420                            .dwattr $C$DW$195, DW_AT_name("memset")
    1421                            .dwattr $C$DW$195, DW_AT_TI_call
    1422                    
    1423 00000246     d246             MV      .L1X    B4,A6             ; |90| 
    1424 0000024c 0200a35a  ||         ZERO    .L2     B4                ; |90| 
    1425 00000248 10000013! ||         CALLP   .S2     memset,B3
    1426                    
    1427 00000250           $C$RL13:   ; CALL OCCURS {memset} {0}        ; |90| 
    1428 00000250           $C$DW$L$VLIB_mixtureOfGaussiansS16_d$9$E:
    1429                    ;** --------------------------------------------------------------------------*
    1430 00000250           $C$DW$L$VLIB_mixtureOfGaussiansS16_d$10$B:
TMS320C6x Assembler PC v7.4.2 Thu Mar 19 12:43:24 2015

Tools Copyright (c) 1996-2012 Texas Instruments Incorporated
package/lib/Regression/regress_d_c/./../packages/ti/vlib/src/VLIB_mixtureOfGaussiansS16/VLIB_mixtureOfGaussiansS16_d.se66 PAGE   27

    1431                    ;          EXCLUSIVE CPU CYCLES: 11
    1432 00000250 000021ec             LDW     .D2T1   *+SP(132),A0      ; |90| 
    1433 00000254     6c6e             NOP             4
    1434                    
    1435 00000256     0c3a     [!A0]   B       .S1     $C$L2             ; |93| 
    1436 00000258 d22c82e6  || [!A0]   LDW     .D2T2   *+B11(16),B4      ; |100| 
    1437                    
    1438                            .dwpsn  file "./../packages/ti/vlib/src/VLIB_mixtureOfGaussiansS16/VLIB_mixtureOfGaussiansS16_
    1439                    $C$DW$196       .dwtag  DW_TAG_TI_branch
    1440                            .dwattr $C$DW$196, DW_AT_low_pc(0x00)
    1441                            .dwattr $C$DW$196, DW_AT_name("printf")
    1442                            .dwattr $C$DW$196, DW_AT_TI_call
    1443 00000260 c0000010!    [ A0]   CALL    .S1     printf            ; |95| 
    1444 00000264 c1800028!    [ A0]   MVKL    .S1     $C$SL2+0,A3
    1445 00000268 c1800068!    [ A0]   MVKH    .S1     $C$SL2+0,A3
    1446 0000026c 00000000             NOP             1
    1447                            .dwpsn  file "./../packages/ti/vlib/src/VLIB_mixtureOfGaussiansS16/VLIB_mixtureOfGaussiansS16_
    1448 00000270 d0100ada     [!A0]   CMPGT   .L2     B4,0,B0           ; |100| 
    1449                            .dwpsn  file "./../packages/ti/vlib/src/VLIB_mixtureOfGaussiansS16/VLIB_mixtureOfGaussiansS16_
    1450                               ; BRANCHCC OCCURS {$C$L2}         ; |93| 
    1451 00000274           $C$DW$L$VLIB_mixtureOfGaussiansS16_d$10$E:
    1452                    ;** --------------------------------------------------------------------------*
    1453 00000274           $C$DW$L$VLIB_mixtureOfGaussiansS16_d$11$B:
    1454                    ;          EXCLUSIVE CPU CYCLES: 1
    1455                    ;** 95  -----------------------    printf((const char *)"Luma  FG    Mean-1   Varn-1   Wght-1        M
    1456                    ;** 96  -----------------------    printf((const char *)"---------------------------------------------
    1457                    
    1458 00000274 01bc22f5             STW     .D2T1   A3,*+SP(4)        ; |95| 
    1459 00000278 01870162  ||         ADDKPC  .S2     $C$RL14,B3,0      ; |95| 
    1460                    
    1461                            .dwpsn  file "./../packages/ti/vlib/src/VLIB_mixtureOfGaussiansS16/VLIB_mixtureOfGaussiansS16_
    1462 0000027c           $C$RL14:   ; CALL OCCURS {printf} {0}        ; |95| 
    1463 0000027c           $C$DW$L$VLIB_mixtureOfGaussiansS16_d$11$E:
    1464                    ;** --------------------------------------------------------------------------*
    1465 0000027c           $C$DW$L$VLIB_mixtureOfGaussiansS16_d$12$B:
    1466                    ;          EXCLUSIVE CPU CYCLES: 14
    1467 0000027c 0200002a!            MVKL    .S2     $C$SL3+0,B4
    1468 00000280 0200006a!            MVKH    .S2     $C$SL3+0,B4
    1469                    $C$DW$197       .dwtag  DW_TAG_TI_branch
    1470                            .dwattr $C$DW$197, DW_AT_low_pc(0x00)
    1471                            .dwattr $C$DW$197, DW_AT_name("printf")
    1472                            .dwattr $C$DW$197, DW_AT_TI_call
    1473                    
    1474 00000284 10000013!            CALLP   .S2     printf,B3
    1475 00000288 023c22f6  ||         STW     .D2T2   B4,*+SP(4)        ; |96| 
    1476                    
    1477                            .dwpsn  file "./../packages/ti/vlib/src/VLIB_mixtureOfGaussiansS16/VLIB_mixtureOfGaussiansS16_
    1478 0000028c           $C$RL15:   ; CALL OCCURS {printf} {0}        ; |96| 
    1479                            .dwpsn  file "./../packages/ti/vlib/src/VLIB_mixtureOfGaussiansS16/VLIB_mixtureOfGaussiansS16_
    1480 0000028c 022c82e6             LDW     .D2T2   *+B11(16),B4      ; |100| 
    1481 00000290     6c6e             NOP             4
    1482 00000292     1227             CMPGT   .L2     B4,0,B0           ; |100| 
    1483 000002a0           $C$DW$L$VLIB_mixtureOfGaussiansS16_d$12$E:
    1484                    ;** --------------------------------------------------------------------------*
    1485 000002a0           $C$L2:    
TMS320C6x Assembler PC v7.4.2 Thu Mar 19 12:43:24 2015

Tools Copyright (c) 1996-2012 Texas Instruments Incorporated
package/lib/Regression/regress_d_c/./../packages/ti/vlib/src/VLIB_mixtureOfGaussiansS16/VLIB_mixtureOfGaussiansS16_d.se66 PAGE   28

    1486                            .dwpsn  file "./../packages/ti/vlib/src/VLIB_mixtureOfGaussiansS16/VLIB_mixtureOfGaussiansS16_
    1487 000002a0           $C$DW$L$VLIB_mixtureOfGaussiansS16_d$13$B:
    1488                    ;          EXCLUSIVE CPU CYCLES: 6
    1489                    ;**     -----------------------g6:
    1490                    ;** 100 -----------------------    v$1 = prm;
    1491                    ;** 55  -----------------------    status_nat_vs_ref = 1;
    1492                    ;** 100 -----------------------    if ( (*U$13).num_images <= 0 ) goto g32;
    1493                    
    1494 000002a0 316fa121     [!B0]   BNOP    .S1     $C$L17,5          ; |100| 
    1495 000002a4 07bfa2e5  ||         LDW     .D2T1   *+SP(116),A15     ; |100| 
    1496 000002a8 06a81fd9  ||         MV      .L1X    B10,A13           ; |100| 
    1497 000002ac 2680a35b  || [ B0]   ZERO    .L2     B13               ; |100| 
    1498 000002b0 27000040  || [ B0]   ZERO    .D1     A14               ; |100| 
    1499                    
    1500                            .dwpsn  file "./../packages/ti/vlib/src/VLIB_mixtureOfGaussiansS16/VLIB_mixtureOfGaussiansS16_
    1501                               ; BRANCHCC OCCURS {$C$L17}        ; |100| 
    1502 000002b4           $C$DW$L$VLIB_mixtureOfGaussiansS16_d$13$E:
    1503                    ;** --------------------------------------------------------------------------*
    1504 000002b4           $C$DW$L$VLIB_mixtureOfGaussiansS16_d$14$B:
    1505                    ;**     -----------------------    K$99 = K$11;
    1506                    ;**     -----------------------    K$109 = 42;
    1507                    ;**     -----------------------    K$92 = &cycles[0];
    1508                    ;** 91  -----------------------    counter = 0;
    1509                    ;** 100 -----------------------    i = 0;
    1510                    ;**     -----------------------    #pragma LOOP_FLAGS(5120u)
    1511 000002b4           $C$DW$L$VLIB_mixtureOfGaussiansS16_d$14$E:
    1512                    ;** --------------------------------------------------------------------------*
    1513                    ;**   BEGIN LOOP $C$L3
    1514                    ;** --------------------------------------------------------------------------*
    1515 000002b4           $C$L3:    
    1516                            .dwpsn  file "./../packages/ti/vlib/src/VLIB_mixtureOfGaussiansS16/VLIB_mixtureOfGaussiansS16_
    1517 000002b4           $C$DW$L$VLIB_mixtureOfGaussiansS16_d$15$B:
    1518                    ;          EXCLUSIVE CPU CYCLES: 6
    1519                    ;**     -----------------------g8:
    1520                    ;** 137 -----------------------    act_kernel = 0;  // [16]
    1521                    ;** 140 -----------------------    VLIB_cache_inval();  // [16]
    1522                    ;** 143 -----------------------    initStack(getSP());  // [16]
    1523                    ;** 146 -----------------------    beg_count = _itoll(TSCH, TSCL);  // [16]
    1524                    ;** 104 -----------------------    C$8 = (*U$13).im_size;
    1525                    ;** 104 -----------------------    VLIB_mixtureOfGaussiansS16(C$8*i+Im, wt, mu, var, compNum, updateMa
    1526                    ;** 153 -----------------------    v$2 = _itoll(TSCH, TSCL);  // [17]
    1527                    ;** 153 -----------------------    end_count = v$2;  // [17]
    1528                    ;** 156 -----------------------    C$7 = act_kernel;  // [17]
    1529                    ;** 156 -----------------------    *((C$7<<3)+K$92) = *((C$7<<3)+K$92)+(v$2-(beg_count+overhead));  //
    1530                    ;** 159 -----------------------    setStackDepth();  // [17]
    1531                    ;** 113 -----------------------    mode[0] = K$99;
    1532                    ;** 114 -----------------------    mode[1] = K$99;
    1533                    ;** 115 -----------------------    mode[2] = K$99;
    1534                    ;** 116 -----------------------    mode[*compNum] = K$109;
    1535                    ;** 118 -----------------------    if ( !LevelOfFeedback ) goto g10;
    1536                            .dwpsn  file ".\..\packages\ti\vlib\src\VLIB_mixtureOfGaussiansS16\..\common\VLIB_profile.h",l
    1537                    $C$DW$198       .dwtag  DW_TAG_TI_branch
    1538                            .dwattr $C$DW$198, DW_AT_low_pc(0x00)
    1539                            .dwattr $C$DW$198, DW_AT_name("VLIB_cache_inval")
    1540                            .dwattr $C$DW$198, DW_AT_TI_call
TMS320C6x Assembler PC v7.4.2 Thu Mar 19 12:43:24 2015

Tools Copyright (c) 1996-2012 Texas Instruments Incorporated
package/lib/Regression/regress_d_c/./../packages/ti/vlib/src/VLIB_mixtureOfGaussiansS16/VLIB_mixtureOfGaussiansS16_d.se66 PAGE   29

    1541 000002b4 00000010!            CALL    .S1     VLIB_cache_inval  ; |140| 
    1542 000002b8 05800028!            MVKL    .S1     act_kernel,A11
    1543 000002bc 05800068!            MVKH    .S1     act_kernel,A11
    1544                            .dwpsn  file ".\..\packages\ti\vlib\src\VLIB_mixtureOfGaussiansS16\..\common\VLIB_profile.h",l
    1545 000002c0 0180a358             ZERO    .L1     A3                ; |137| 
    1546 000002c4 01ac0274             STW     .D1T1   A3,*A11           ; |137| 
    1547                            .dwpsn  file ".\..\packages\ti\vlib\src\VLIB_mixtureOfGaussiansS16\..\common\VLIB_profile.h",l
    1548 000002c8 01830162             ADDKPC  .S2     $C$RL16,B3,0      ; |140| 
    1549                    $C$RL16:   ; CALL OCCURS {VLIB_cache_inval} {0}  ; |140| 
    1550                    $C$DW$L$VLIB_mixtureOfGaussiansS16_d$15$E:
    1551                    ;** --------------------------------------------------------------------------*
    1552                    $C$DW$L$VLIB_mixtureOfGaussiansS16_d$16$B:
    1553                    ;          EXCLUSIVE CPU CYCLES: 62
    1554                    $C$DW$199       .dwtag  DW_TAG_TI_branch
    1555                            .dwattr $C$DW$199, DW_AT_low_pc(0x00)
    1556                            .dwattr $C$DW$199, DW_AT_name("getSP")
    1557                            .dwattr $C$DW$199, DW_AT_TI_call
    1558 000002cc 10000012!            CALLP   .S2     getSP,B3
    1559                            .dwpsn  file ".\..\packages\ti\vlib\src\VLIB_mixtureOfGaussiansS16\..\common\VLIB_profile.h",l
    1560                    $C$RL17:   ; CALL OCCURS {getSP} {0}         ; |143| 
    1561                    $C$DW$200       .dwtag  DW_TAG_TI_branch
    1562                            .dwattr $C$DW$200, DW_AT_low_pc(0x00)
    1563                            .dwattr $C$DW$200, DW_AT_name("initStack")
    1564                            .dwattr $C$DW$200, DW_AT_TI_call
    1565 000002d0 10000012!            CALLP   .S2     initStack,B3
    1566 000002d4           $C$RL18:   ; CALL OCCURS {initStack} {0}     ; |143| 
    1567                            .dwpsn  file ".\..\packages\ti\vlib\src\VLIB_mixtureOfGaussiansS16\..\common\VLIB_profile.h",l
    1568 000002d4 022803e2             MVC     .S2     TSCL,B4           ; |146| 
    1569 000002d8 02ac03e2             MVC     .S2     TSCH,B5           ; |146| 
    1570                            .dwpsn  file "./../packages/ti/vlib/src/VLIB_mixtureOfGaussiansS16/VLIB_mixtureOfGaussiansS16_
    1571 000002dc 04ad82c6             LDH     .D2T2   *+B11(24),B9      ; |104| 
    1572 000002e0 03adc2c6             LDH     .D2T2   *+B11(28),B7      ; |104| 
    1573 000002e4 052c62e6             LDW     .D2T2   *+B11(12),B10     ; |104| 
    1574 000002e8 042da2c6             LDH     .D2T2   *+B11(26),B8      ; |104| 
    1575 000002ec 032de2c6             LDH     .D2T2   *+B11(30),B6      ; |104| 
    1576 000002f0 0f8023ee             LDW     .D2T2   *+SP(140),B31     ; |104| 
    1577 000002f4 04bc42d6             STH     .D2T2   B9,*+SP(4)        ; |104| 
    1578 000002f8 062d62c6             LDH     .D2T2   *+B11(22),B12     ; |104| 
    1579 000002fc 062d42c4             LDH     .D2T1   *+B11(20),A12     ; |104| 
    1580 00000300 050029ec             LDW     .D2T1   *+SP(164),A10     ; |104| 
    1581 00000304 040027ec             LDW     .D2T1   *+SP(156),A8      ; |104| 
    1582 00000308 030025ec             LDW     .D2T1   *+SP(148),A6      ; |104| 
    1583                    
    1584 0000030c 03bc82d7             STH     .D2T2   B7,*+SP(8)        ; |104| 
    1585 00000310 04a9a802  ||         MPY32   .M2     B13,B10,B9        ; |104| 
    1586                    
    1587 00000314 043c62d6             STH     .D2T2   B8,*+SP(6)        ; |104| 
    1588                    
    1589 00000318 0380002b!            MVKL    .S2     beg_count,B7
    1590 0000031c 033ca2d6  ||         STH     .D2T2   B6,*+SP(10)       ; |104| 
    1591                    
    1592 00000320 0380006b!            MVKH    .S2     beg_count,B7
    1593 00000324 040028ee  ||         LDW     .D2T2   *+SP(160),B8      ; |104| 
    1594                    
    1595 00000328 021c03c7             STDW    .D2T2   B5:B4,*B7         ; |146| 
TMS320C6x Assembler PC v7.4.2 Thu Mar 19 12:43:24 2015

Tools Copyright (c) 1996-2012 Texas Instruments Incorporated
package/lib/Regression/regress_d_c/./../packages/ti/vlib/src/VLIB_mixtureOfGaussiansS16/VLIB_mixtureOfGaussiansS16_d.se66 PAGE   30

    1596 0000032c 02a7e07a  ||         ADD     .L2     B31,B9,B5         ; |104| 
    1597                    
    1598 00000330 030026ee             LDW     .D2T2   *+SP(152),B6      ; |104| 
    1599                    $C$DW$201       .dwtag  DW_TAG_TI_branch
    1600                            .dwattr $C$DW$201, DW_AT_low_pc(0x00)
    1601                            .dwattr $C$DW$201, DW_AT_name("VLIB_mixtureOfGaussiansS16")
    1602                            .dwattr $C$DW$201, DW_AT_TI_call
    1603                    
    1604 00000334 10000013!            CALLP   .S2     VLIB_mixtureOfGaussiansS16,B3
    1605 00000338 020024ef  ||         LDW     .D2T2   *+SP(144),B4      ; |104| 
    1606 0000033c 02141fd8  ||         MV      .L1X    B5,A4             ; |104| 
    1607                    
    1608 00000340           $C$RL19:   ; CALL OCCURS {VLIB_mixtureOfGaussiansS16} {0}  ; |104| 
    1609                            .dwpsn  file ".\..\packages\ti\vlib\src\VLIB_mixtureOfGaussiansS16\..\common\VLIB_profile.h",l
    1610 00000340 032803e2             MVC     .S2     TSCL,B6           ; |153| 
    1611 00000344 03ac03e2             MVC     .S2     TSCH,B7           ; |153| 
    1612 00000348 0200002a!            MVKL    .S2     beg_count,B4
    1613 0000034c 0280002a!            MVKL    .S2     overhead,B5
    1614                    
    1615 00000350 01ac0265             LDW     .D1T1   *A11,A3           ; |156| 
    1616 00000354 0200006a! ||         MVKH    .S2     beg_count,B4
    1617                    
    1618 00000358 0280006b!            MVKH    .S2     overhead,B5
    1619 0000035c 041003e6  ||         LDDW    .D2T2   *B4,B9:B8         ; |156| 
    1620                    
    1621                            .dwpsn  file ".\..\packages\ti\vlib\src\VLIB_mixtureOfGaussiansS16\..\common\VLIB_profile.h",l
    1622 00000360 081403e6             LDDW    .D2T2   *B5,B17:B16       ; |156| 
    1623 00000364 02000028!            MVKL    .S1     cycles,A4
    1624 00000368 02000068!            MVKH    .S1     cycles,A4
    1625 0000036c 03106b64             LDDW    .D1T1   *+A4[A3],A7:A6    ; |156| 
    1626 00000370 04000028!            MVKL    .S1     end_count,A8
    1627 00000374 0222057a             ADDU    .L2     B16,B8,B5:B4      ; |156| 
    1628                    
    1629 00000378 0444a1e3             ADD     .S2     B5,B17,B8         ; |156| 
    1630 0000037c 0210c5fa  ||         SUBU    .L2     B6,B4,B5:B4       ; |156| 
    1631                    
    1632 00000380 0425007a             ADD     .L2     B8,B9,B8          ; |156| 
    1633                    
    1634 00000384 0210d579             ADDU    .L1X    A6,B4,A5:A4       ; |156| 
    1635 00000388 0220e0fb  ||         SUB     .L2     B7,B8,B4          ; |156| 
    1636 0000038c     aae3  ||         EXT     .S2     B5,24,24,B5       ; |156| 
    1637                    
    1638 0000038e     82c1             ADD     .L2     B4,B5,B4          ; |156| 
    1639 00000390 04000068! ||         MVKH    .S1     end_count,A8
    1640                    
    1641 00000398     a3d0             ADD     .L1     A5,A7,A5          ; |156| 
    1642 00000394 03000029! ||         MVKL    .S1     cycles,A6
    1643                    
    1644 0000039a     b250             ADD     .L1X    A5,B4,A5          ; |156| 
    1645 000003a0 03000069! ||         MVKH    .S1     cycles,A6
    1646 000003a4 03200346  ||         STDW    .D1T2   B7:B6,*A8         ; |153| 
    1647                    
    1648                    $C$DW$202       .dwtag  DW_TAG_TI_branch
    1649                            .dwattr $C$DW$202, DW_AT_low_pc(0x00)
    1650                            .dwattr $C$DW$202, DW_AT_name("setStackDepth")
TMS320C6x Assembler PC v7.4.2 Thu Mar 19 12:43:24 2015

Tools Copyright (c) 1996-2012 Texas Instruments Incorporated
package/lib/Regression/regress_d_c/./../packages/ti/vlib/src/VLIB_mixtureOfGaussiansS16/VLIB_mixtureOfGaussiansS16_d.se66 PAGE   31

    1651                            .dwattr $C$DW$202, DW_AT_TI_call
    1652                    
    1653 000003a8 10000013!            CALLP   .S2     setStackDepth,B3
    1654 000003ac 02186b44  ||         STDW    .D1T1   A5:A4,*+A6[A3]    ; |156| 
    1655                    
    1656                            .dwpsn  file ".\..\packages\ti\vlib\src\VLIB_mixtureOfGaussiansS16\..\common\VLIB_profile.h",l
    1657 000003b0           $C$RL20:   ; CALL OCCURS {setStackDepth} {0}  ; |159| 
    1658 000003b0           $C$DW$L$VLIB_mixtureOfGaussiansS16_d$16$E:
    1659                    ;** --------------------------------------------------------------------------*
    1660 000003b0           $C$DW$L$VLIB_mixtureOfGaussiansS16_d$17$B:
    1661                    ;          EXCLUSIVE CPU CYCLES: 23
    1662                            .dwpsn  file "./../packages/ti/vlib/src/VLIB_mixtureOfGaussiansS16/VLIB_mixtureOfGaussiansS16_
    1663 000003b0 0f8027ec             LDW     .D2T1   *+SP(156),A31     ; |115| 
    1664 000003b4 01801028             MVK     .S1     0x20,A3
    1665                            .dwpsn  file "./../packages/ti/vlib/src/VLIB_mixtureOfGaussiansS16/VLIB_mixtureOfGaussiansS16_
    1666 000003b8 018078bc             STB     .D2T1   A3,*+SP(120)      ; |113| 
    1667                            .dwpsn  file "./../packages/ti/vlib/src/VLIB_mixtureOfGaussiansS16/VLIB_mixtureOfGaussiansS16_
    1668 000003bc 018079bc             STB     .D2T1   A3,*+SP(121)      ; |114| 
    1669                            .dwpsn  file "./../packages/ti/vlib/src/VLIB_mixtureOfGaussiansS16/VLIB_mixtureOfGaussiansS16_
    1670 000003c0 01807abc             STB     .D2T1   A3,*+SP(122)      ; |115| 
    1671                            .dwpsn  file "./../packages/ti/vlib/src/VLIB_mixtureOfGaussiansS16/VLIB_mixtureOfGaussiansS16_
    1672 000003c4 01fc0214             LDBU    .D1T1   *A31,A3           ; |116| 
    1673 000003c8     4ab2             MVK     .S1     0x2a,A5
    1674 000003ca     1a72             MVK     .S1     120,A4            ; |116| 
    1675 000003cc 00002000             NOP             2
    1676 000003d0 01bc7078             ADD     .L1X    A3,SP,A3          ; |116| 
    1677 000003d4 02906a34             STB     .D1T1   A5,*+A4[A3]       ; |116| 
    1678 000003d8 000021ec             LDW     .D2T1   *+SP(132),A0      ; |116| 
    1679 000003e0 018025ec             LDW     .D2T1   *+SP(148),A3
    1680 000003e4 00004000             NOP             3
    1681                    
    1682 000003e8 d02c42e7     [!A0]   LDW     .D2T2   *+B11(8),B0       ; |126| 
    1683 000003ec d0003810  || [!A0]   B       .S1     $C$L4             ; |118| 
    1684                    
    1685                            .dwpsn  file "./../packages/ti/vlib/src/VLIB_mixtureOfGaussiansS16/VLIB_mixtureOfGaussiansS16_
    1686                    $C$DW$203       .dwtag  DW_TAG_TI_branch
    1687                            .dwattr $C$DW$203, DW_AT_low_pc(0x00)
    1688                            .dwattr $C$DW$203, DW_AT_name("VLIB_getFractional16")
    1689                            .dwattr $C$DW$203, DW_AT_TI_call
    1690 000003f0 c0000010!    [ A0]   CALL    .S1     VLIB_getFractional16 ; |119| 
    1691 000003f4 c20c0244     [ A0]   LDH     .D1T1   *A3,A4            ; |119| 
    1692                            .dwpsn  file "./../packages/ti/vlib/src/VLIB_mixtureOfGaussiansS16/VLIB_mixtureOfGaussiansS16_
    1693 000003f8 c004a35a     [ A0]   MVK     .L2     0x1,B0            ; |126| nullify predicate
    1694 000003fc d7bfa2e4     [!A0]   LDW     .D2T1   *+SP(116),A15     ; |126| 
    1695 00000400 30008890     [!B0]   B       .S1     $C$L16            ; |126| 
    1696                            .dwpsn  file "./../packages/ti/vlib/src/VLIB_mixtureOfGaussiansS16/VLIB_mixtureOfGaussiansS16_
    1697                               ; BRANCHCC OCCURS {$C$L4}         ; |118| 
    1698 00000404           $C$DW$L$VLIB_mixtureOfGaussiansS16_d$17$E:
    1699                    ;** --------------------------------------------------------------------------*
    1700 00000404           $C$DW$L$VLIB_mixtureOfGaussiansS16_d$18$B:
    1701                    ;          EXCLUSIVE CPU CYCLES: 1
    1702                    ;** 119 -----------------------    printf((const char *)"%4d  %d  %c %8.4f %8.4f %8.6f   %c %8.4f %8.4
    1703                    
    1704 00000404     2726             MVK     .L1     0x1,A6            ; |119| 
    1705 00000406     e627  ||         MVK     .L2     0x7,B4            ; |119| 
TMS320C6x Assembler PC v7.4.2 Thu Mar 19 12:43:24 2015

Tools Copyright (c) 1996-2012 Texas Instruments Incorporated
package/lib/Regression/regress_d_c/./../packages/ti/vlib/src/VLIB_mixtureOfGaussiansS16/VLIB_mixtureOfGaussiansS16_d.se66 PAGE   32

    1706 00000408 01830162  ||         ADDKPC  .S2     $C$RL21,B3,0      ; |119| 
    1707                    
    1708                            .dwpsn  file "./../packages/ti/vlib/src/VLIB_mixtureOfGaussiansS16/VLIB_mixtureOfGaussiansS16_
    1709 0000040c           $C$RL21:   ; CALL OCCURS {VLIB_getFractional16} {0}  ; |119| 
    1710 0000040c           $C$DW$L$VLIB_mixtureOfGaussiansS16_d$18$E:
    1711                    ;** --------------------------------------------------------------------------*
    1712 0000040c           $C$DW$L$VLIB_mixtureOfGaussiansS16_d$19$B:
    1713                    ;          EXCLUSIVE CPU CYCLES: 135
    1714 0000040c 020026ee             LDW     .D2T2   *+SP(152),B4      ; |119| 
    1715 00000410     4646             MV      .L1     A4,A10            ; |119| 
    1716 00000412     2726             MVK     .L1     0x1,A6            ; |119| 
    1717 00000414     2c6e             NOP             2
    1718                    $C$DW$204       .dwtag  DW_TAG_TI_branch
    1719                            .dwattr $C$DW$204, DW_AT_low_pc(0x00)
    1720                            .dwattr $C$DW$204, DW_AT_name("VLIB_getFractional16")
    1721                            .dwattr $C$DW$204, DW_AT_TI_call
    1722                    
    1723 00000420 10000012!            CALLP   .S2     VLIB_getFractional16,B3
    1724 00000418 021002c5  ||         LDH     .D2T1   *B4,A4            ; |119| 
    1725 00000416     6627  ||         MVK     .L2     0x3,B4            ; |119| 
    1726                    
    1727 00000424           $C$RL22:   ; CALL OCCURS {VLIB_getFractional16} {0}  ; |119| 
    1728 00000424 020024ee             LDW     .D2T2   *+SP(144),B4      ; |119| 
    1729 00000428     5647             MV      .L2X    A4,B10            ; |119| 
    1730 0000042a     2726             MVK     .L1     0x1,A6            ; |119| 
    1731 0000042c     2c6e             NOP             2
    1732                    $C$DW$205       .dwtag  DW_TAG_TI_branch
    1733                            .dwattr $C$DW$205, DW_AT_low_pc(0x00)
    1734                            .dwattr $C$DW$205, DW_AT_name("VLIB_getFractional16")
    1735                            .dwattr $C$DW$205, DW_AT_TI_call
    1736                    
    1737 00000434 10000012!            CALLP   .S2     VLIB_getFractional16,B3
    1738 00000430 021002c5  ||         LDH     .D2T1   *B4,A4            ; |119| 
    1739 0000042e     ee27  ||         MVK     .L2     0xf,B4            ; |119| 
    1740                    
    1741 00000438           $C$RL23:   ; CALL OCCURS {VLIB_getFractional16} {0}  ; |119| 
    1742 00000438 01ac62e4             LDW     .D2T1   *+B11(12),A3      ; |119| 
    1743                    
    1744 00000444     6646             MV      .L1     A4,A11            ; |119| 
    1745 00000440 020025ed  ||         LDW     .D2T1   *+SP(148),A4
    1746                    
    1747 00000446     e627             MVK     .L2     0x7,B4            ; |119| 
    1748 00000448     2726             MVK     .L1     0x1,A6            ; |119| 
    1749 0000044a     2c6e             NOP             2
    1750                    $C$DW$206       .dwtag  DW_TAG_TI_branch
    1751                            .dwattr $C$DW$206, DW_AT_low_pc(0x00)
    1752                            .dwattr $C$DW$206, DW_AT_name("VLIB_getFractional16")
    1753                            .dwattr $C$DW$206, DW_AT_TI_call
    1754                    
    1755 0000044c 10000013!            CALLP   .S2     VLIB_getFractional16,B3
    1756 00000450 02106a44  ||         LDH     .D1T1   *+A4[A3],A4       ; |119| 
    1757                    
    1758 00000454           $C$RL24:   ; CALL OCCURS {VLIB_getFractional16} {0}  ; |119| 
    1759 00000454 022c62e6             LDW     .D2T2   *+B11(12),B4      ; |119| 
    1760 00000458 028026ee             LDW     .D2T2   *+SP(152),B5
TMS320C6x Assembler PC v7.4.2 Thu Mar 19 12:43:24 2015

Tools Copyright (c) 1996-2012 Texas Instruments Incorporated
package/lib/Regression/regress_d_c/./../packages/ti/vlib/src/VLIB_mixtureOfGaussiansS16/VLIB_mixtureOfGaussiansS16_d.se66 PAGE   33

    1761 00000460     8646             MV      .L1     A4,A12            ; |119| 
    1762 00000462     2726             MVK     .L1     0x1,A6            ; |119| 
    1763 00000464     2c6e             NOP             2
    1764                    $C$DW$207       .dwtag  DW_TAG_TI_branch
    1765                            .dwattr $C$DW$207, DW_AT_low_pc(0x00)
    1766                            .dwattr $C$DW$207, DW_AT_name("VLIB_getFractional16")
    1767                            .dwattr $C$DW$207, DW_AT_TI_call
    1768                    
    1769 0000046c 10000012!            CALLP   .S2     VLIB_getFractional16,B3
    1770 00000468 02148ac5  ||         LDH     .D2T1   *+B5[B4],A4       ; |119| 
    1771 00000466     6627  ||         MVK     .L2     0x3,B4            ; |119| 
    1772                    
    1773 00000470           $C$RL25:   ; CALL OCCURS {VLIB_getFractional16} {0}  ; |119| 
    1774 00000470 028024ee             LDW     .D2T2   *+SP(144),B5
    1775 00000474 022c62e6             LDW     .D2T2   *+B11(12),B4      ; |119| 
    1776 00000478     9647             MV      .L2X    A4,B12            ; |119| 
    1777 0000047a     2726             MVK     .L1     0x1,A6            ; |119| 
    1778 00000480     2c6e             NOP             2
    1779                    $C$DW$208       .dwtag  DW_TAG_TI_branch
    1780                            .dwattr $C$DW$208, DW_AT_low_pc(0x00)
    1781                            .dwattr $C$DW$208, DW_AT_name("VLIB_getFractional16")
    1782                            .dwattr $C$DW$208, DW_AT_TI_call
    1783                    
    1784 00000488 10000012!            CALLP   .S2     VLIB_getFractional16,B3
    1785 00000484 02148ac5  ||         LDH     .D2T1   *+B5[B4],A4       ; |119| 
    1786 00000482     ee27  ||         MVK     .L2     0xf,B4            ; |119| 
    1787                    
    1788 0000048c           $C$RL26:   ; CALL OCCURS {VLIB_getFractional16} {0}  ; |119| 
    1789 0000048c 02002cfc             STW     .D2T1   A4,*+SP(176)      ; |119| 
    1790 00000490 01ac62e4             LDW     .D2T1   *+B11(12),A3      ; |119| 
    1791 00000494 020025ec             LDW     .D2T1   *+SP(148),A4
    1792 00000498     e627             MVK     .L2     0x7,B4            ; |119| 
    1793 0000049a     2726             MVK     .L1     0x1,A6            ; |119| 
    1794 000004a0 00002000             NOP             2
    1795 000004a4 01907c40             ADDAW   .D1     A4,A3,A3          ; |119| 
    1796                    $C$DW$209       .dwtag  DW_TAG_TI_branch
    1797                            .dwattr $C$DW$209, DW_AT_low_pc(0x00)
    1798                            .dwattr $C$DW$209, DW_AT_name("VLIB_getFractional16")
    1799                            .dwattr $C$DW$209, DW_AT_TI_call
    1800                    
    1801 000004a8 10000013!            CALLP   .S2     VLIB_getFractional16,B3
    1802 000004ac 020c0244  ||         LDH     .D1T1   *A3,A4            ; |119| 
    1803                    
    1804 000004b0           $C$RL27:   ; CALL OCCURS {VLIB_getFractional16} {0}  ; |119| 
    1805 000004b0 022c62e6             LDW     .D2T2   *+B11(12),B4      ; |119| 
    1806 000004b4 028026ee             LDW     .D2T2   *+SP(152),B5
    1807 000004b8 02002bfc             STW     .D2T1   A4,*+SP(172)      ; |119| 
    1808 000004bc 0304a358             MVK     .L1     0x1,A6            ; |119| 
    1809 000004c0 00002000             NOP             2
    1810 000004c4 02149c42             ADDAW   .D2     B5,B4,B4          ; |119| 
    1811                    $C$DW$210       .dwtag  DW_TAG_TI_branch
    1812                            .dwattr $C$DW$210, DW_AT_low_pc(0x00)
    1813                            .dwattr $C$DW$210, DW_AT_name("VLIB_getFractional16")
    1814                            .dwattr $C$DW$210, DW_AT_TI_call
    1815                    
TMS320C6x Assembler PC v7.4.2 Thu Mar 19 12:43:24 2015

Tools Copyright (c) 1996-2012 Texas Instruments Incorporated
package/lib/Regression/regress_d_c/./../packages/ti/vlib/src/VLIB_mixtureOfGaussiansS16/VLIB_mixtureOfGaussiansS16_d.se66 PAGE   34

    1816 000004c8 10000013!            CALLP   .S2     VLIB_getFractional16,B3
    1817 000004cc     024d  ||         LDH     .D2T1   *B4,A4            ; |119| 
    1818 000004ce     6627  ||         MVK     .L2     0x3,B4            ; |119| 
    1819                    
    1820 000004d0           $C$RL28:   ; CALL OCCURS {VLIB_getFractional16} {0}  ; |119| 
    1821 000004d0 028024ee             LDW     .D2T2   *+SP(144),B5
    1822 000004d4 022c62e6             LDW     .D2T2   *+B11(12),B4      ; |119| 
    1823 000004d8     e646             MV      .L1     A4,A15            ; |119| 
    1824 000004da     2726             MVK     .L1     0x1,A6            ; |119| 
    1825 000004e0 00002000             NOP             2
    1826 000004e4 02149c42             ADDAW   .D2     B5,B4,B4          ; |119| 
    1827                    $C$DW$211       .dwtag  DW_TAG_TI_branch
    1828                            .dwattr $C$DW$211, DW_AT_low_pc(0x00)
    1829                            .dwattr $C$DW$211, DW_AT_name("VLIB_getFractional16")
    1830                            .dwattr $C$DW$211, DW_AT_TI_call
    1831                    
    1832 000004e8 10000013!            CALLP   .S2     VLIB_getFractional16,B3
    1833 000004ec     024d  ||         LDH     .D2T1   *B4,A4            ; |119| 
    1834 000004ee     ee27  ||         MVK     .L2     0xf,B4            ; |119| 
    1835                    
    1836 000004f0           $C$RL29:   ; CALL OCCURS {VLIB_getFractional16} {0}  ; |119| 
    1837 000004f0 028029ec             LDW     .D2T1   *+SP(164),A5      ; |119| 
    1838 000004f4 022c62e6             LDW     .D2T2   *+B11(12),B4      ; |119| 
    1839 000004f8 01800028!            MVKL    .S1     $C$SL4+0,A3
    1840 00000500 01800068!            MVKH    .S1     $C$SL4+0,A3
    1841 00000504     ac35             STW     .D2T1   A3,*+SP(4)        ; |119| 
    1842                    
    1843 00000506     00dc             LDW     .D1T1   *A5,A5            ; |119| 
    1844 00000508 028023ee  ||         LDW     .D2T2   *+SP(140),B5      ; |119| 
    1845                    
    1846 0000050c 0211a803             MPY32   .M2     B13,B4,B4         ; |119| 
    1847 00000510 048078ae  ||         LDB     .D2T2   *+SP(120),B9      ; |119| 
    1848                    
    1849 00000514 040079ae             LDB     .D2T2   *+SP(121),B8      ; |119| 
    1850                    
    1851 00000518 08807aaf             LDB     .D2T2   *+SP(122),B17     ; |119| 
    1852 00000520 042c00a0  ||         SPDP    .S1     A11,A9:A8         ; |119| 
    1853                    
    1854 00000524 0f802cec             LDW     .D2T1   *+SP(176),A31     ; |119| 
    1855                    
    1856 00000528 0197e9a1             SHRU    .S1     A5,31,A3          ; |119| 
    1857 0000052c 0810aa96  ||         LDBU    .D2T2   *+B4[B5],B16      ; |119| 
    1858                    
    1859 00000530 01bc62f5             STW     .D2T1   A3,*+SP(12)       ; |119| 
    1860 00000534 032800a0  ||         SPDP    .S1     A10,A7:A6         ; |119| 
    1861                    
    1862 00000538 043ca3c4             STDW    .D2T1   A9:A8,*+SP(40)    ; |119| 
    1863 0000053c 033c63c4             STDW    .D2T1   A7:A6,*+SP(24)    ; |119| 
    1864                    
    1865 00000540 01802bed             LDW     .D2T1   *+SP(172),A3      ; |119| 
    1866 00000544 083000a0  ||         SPDP    .S1     A12,A17:A16       ; |119| 
    1867                    
    1868 00000548 083c42f6             STW     .D2T2   B16,*+SP(8)       ; |119| 
    1869 0000054c 083ce3c4             STDW    .D2T1   A17:A16,*+SP(56)  ; |119| 
    1870                    
TMS320C6x Assembler PC v7.4.2 Thu Mar 19 12:43:24 2015

Tools Copyright (c) 1996-2012 Texas Instruments Incorporated
package/lib/Regression/regress_d_c/./../packages/ti/vlib/src/VLIB_mixtureOfGaussiansS16/VLIB_mixtureOfGaussiansS16_d.se66 PAGE   35

    1871 00000550 021000a1             SPDP    .S1     A4,A5:A4          ; |119| 
    1872 00000554 04bc82f6  ||         STW     .D2T2   B9,*+SP(16)       ; |119| 
    1873                    
    1874 00000558 043d82f6             STW     .D2T2   B8,*+SP(48)       ; |119| 
    1875                    
    1876 0000055c 022800a3             SPDP    .S2     B10,B5:B4         ; |119| 
    1877 00000560 043c00a1  ||         SPDP    .S1     A15,A9:A8         ; |119| 
    1878 00000564 08be82f6  ||         STW     .D2T2   B17,*+SP(80)      ; |119| 
    1879                    
    1880 00000568 023da3c4             STDW    .D2T1   A5:A4,*+SP(104)   ; |119| 
    1881                    
    1882 0000056c 023c83c7             STDW    .D2T2   B5:B4,*+SP(32)    ; |119| 
    1883 00000570 023000a3  ||         SPDP    .S2     B12,B5:B4         ; |119| 
    1884 00000574 037c00a0  ||         SPDP    .S1     A31,A7:A6         ; |119| 
    1885                    
    1886 00000578 043d83c4             STDW    .D2T1   A9:A8,*+SP(96)    ; |119| 
    1887                    
    1888 0000057c 030c10a3             SPDP    .S2X    A3,B7:B6          ; |119| 
    1889 00000580 033d23c4  ||         STDW    .D2T1   A7:A6,*+SP(72)    ; |119| 
    1890                    
    1891 00000584 023d03c6             STDW    .D2T2   B5:B4,*+SP(64)    ; |119| 
    1892                    $C$DW$212       .dwtag  DW_TAG_TI_branch
    1893                            .dwattr $C$DW$212, DW_AT_low_pc(0x00)
    1894                            .dwattr $C$DW$212, DW_AT_name("printf")
    1895                            .dwattr $C$DW$212, DW_AT_TI_call
    1896                    
    1897 00000588 10000013!            CALLP   .S2     printf,B3
    1898 0000058c 033d63c6  ||         STDW    .D2T2   B7:B6,*+SP(88)    ; |119| 
    1899                    
    1900 00000590           $C$RL30:   ; CALL OCCURS {printf} {0}        ; |119| 
    1901                            .dwpsn  file "./../packages/ti/vlib/src/VLIB_mixtureOfGaussiansS16/VLIB_mixtureOfGaussiansS16_
    1902 00000590 002c42e6             LDW     .D2T2   *+B11(8),B0       ; |126| 
    1903 00000594 07bfa2e4             LDW     .D2T1   *+SP(116),A15     ; |126| 
    1904 00000598 00004000             NOP             3
    1905 0000059c 30005890     [!B0]   B       .S1     $C$L16            ; |126| 
    1906 000005a0           $C$DW$L$VLIB_mixtureOfGaussiansS16_d$19$E:
    1907                    ;** --------------------------------------------------------------------------*
    1908 000005a0           $C$L4:    
    1909                            .dwpsn  file "./../packages/ti/vlib/src/VLIB_mixtureOfGaussiansS16/VLIB_mixtureOfGaussiansS16_
    1910 000005a0           $C$DW$L$VLIB_mixtureOfGaussiansS16_d$20$B:
    1911                    ;          EXCLUSIVE CPU CYCLES: 5
    1912                    ;**     -----------------------g10:
    1913                    ;** 126 -----------------------    v$1 = prm;
    1914                    ;** 126 -----------------------    if ( (*U$13).staticOut == NULL ) goto g31;
    1915                            .dwpsn  file "./../packages/ti/vlib/src/VLIB_mixtureOfGaussiansS16/VLIB_mixtureOfGaussiansS16_
    1916 000005a0 222c62e6     [ B0]   LDW     .D2T2   *+B11(12),B4      ; |129| 
    1917 000005a4 318020ec     [!B0]   LDW     .D2T1   *+SP(128),A3
    1918 000005a8 00004000             NOP             3
    1919                            .dwpsn  file "./../packages/ti/vlib/src/VLIB_mixtureOfGaussiansS16/VLIB_mixtureOfGaussiansS16_
    1920                               ; BRANCHCC OCCURS {$C$L16}        ; |126| 
    1921 000005ac           $C$DW$L$VLIB_mixtureOfGaussiansS16_d$20$E:
    1922                    ;** --------------------------------------------------------------------------*
    1923 000005ac           $C$DW$L$VLIB_mixtureOfGaussiansS16_d$21$B:
    1924                    ;          EXCLUSIVE CPU CYCLES: 7
    1925                    ;** 129 -----------------------    if ( (*U$13).im_size <= 0 ) goto g20;
TMS320C6x Assembler PC v7.4.2 Thu Mar 19 12:43:24 2015

Tools Copyright (c) 1996-2012 Texas Instruments Incorporated
package/lib/Regression/regress_d_c/./../packages/ti/vlib/src/VLIB_mixtureOfGaussiansS16/VLIB_mixtureOfGaussiansS16_d.se66 PAGE   36

    1926                    
    1927 000005ac 018022ed             LDW     .D2T1   *+SP(136),A3
    1928 000005b0 00100ada  ||         CMPGT   .L2     B4,0,B0           ; |129| 
    1929                    
    1930                            .dwpsn  file "./../packages/ti/vlib/src/VLIB_mixtureOfGaussiansS16/VLIB_mixtureOfGaussiansS16_
    1931 000005b4 30586120     [!B0]   BNOP    .S1     $C$L9,3           ; |129| 
    1932 000005b8 018caca0             SHL     .S1     A3,5,A3
    1933 000005bc 018de078             ADD     .L1     A15,A3,A3
    1934                               ; BRANCHCC OCCURS {$C$L9}         ; |129| 
    1935 000005c0           $C$DW$L$VLIB_mixtureOfGaussiansS16_d$21$E:
    1936                    ;** --------------------------------------------------------------------------*
    1937 000005c0           $C$DW$L$VLIB_mixtureOfGaussiansS16_d$22$B:
    1938                    ;          EXCLUSIVE CPU CYCLES: 16
    1939                    ;**     -----------------------    U$146 = mu;
    1940                    ;**     -----------------------    C$6 = (tpi<<5)+v$1;
    1941                    ;**     -----------------------    U$152 = counter*2+(*C$6).staticOut-2;
    1942                    ;**     -----------------------    U$163 = var;
    1943                    ;**     -----------------------    U$169 = wt;
    1944                    ;**     -----------------------    L$1 = _lo(_mpyli(3, (*C$6).im_size));
    1945                    ;**     -----------------------    K$11 = 32;
    1946                    ;** 129 -----------------------    k = 0;
    1947                    ;**     -----------------------    #pragma MUST_ITERATE(1, 2147483647, 1)
    1948                    ;**     -----------------------    #pragma LOOP_FLAGS(5120u)
    1949 000005c0 020c6264             LDW     .D1T1   *+A3(12),A4
    1950 000005c4 018c4264             LDW     .D1T1   *+A3(8),A3
    1951 000005c8 0f8026ec             LDW     .D2T1   *+SP(152),A31
    1952 000005cc 060025ec             LDW     .D2T1   *+SP(148),A12
    1953 000005d0 028ca358             MVK     .L1     3,A5
    1954 000005d4 0510a570             MPYLI   .M1     A5,A4,A11:A10
    1955 000005d8 018dda40             ADDAH   .D1     A3,A14,A3
    1956 000005dc 0f802bfc             STW     .D2T1   A31,*+SP(172)
    1957                            .dwpsn  file "./../packages/ti/vlib/src/VLIB_mixtureOfGaussiansS16/VLIB_mixtureOfGaussiansS16_
    1958 000005e0 02303644             LDH     .D1T1   *A12++,A4         ; |130| 
    1959 000005e4 058fc058             SUB     .L1     A3,2,A11
    1960 000005e8 05ac4058             ADD     .L1     2,A11,A11         ; |130| 
    1961 000005ec 01ac3644             LDH     .D1T1   *A11++,A3         ; |130| 
    1962 000005f0 050024ee             LDW     .D2T2   *+SP(144),B10
    1963                            .dwpsn  file "./../packages/ti/vlib/src/VLIB_mixtureOfGaussiansS16/VLIB_mixtureOfGaussiansS16_
    1964 000005f4 0600a35a             ZERO    .L2     B12               ; |129| 
    1965 000005f8 00002000             NOP             2
    1966 000005fc           $C$DW$L$VLIB_mixtureOfGaussiansS16_d$22$E:
    1967                    ;*----------------------------------------------------------------------------*
    1968                    ;*   SOFTWARE PIPELINE INFORMATION
    1969                    ;*      Disqualified loop: Loop contains control code
    1970                    ;*----------------------------------------------------------------------------*
    1971 000005fc           $C$L5:    
    1972 000005fc           $C$DW$L$VLIB_mixtureOfGaussiansS16_d$23$B:
    1973                    ;          EXCLUSIVE CPU CYCLES: 7
    1974                    ;**     -----------------------g13:
    1975                    ;** 130 -----------------------    ++U$152;
    1976                    ;** 130 -----------------------    if ( *U$146++ == *U$152++ ) goto g15;
    1977                            .dwpsn  file "./../packages/ti/vlib/src/VLIB_mixtureOfGaussiansS16/VLIB_mixtureOfGaussiansS16_
    1978 000005fc 000c8a78             CMPEQ   .L1     A4,A3,A0          ; |130| 
    1979                    
    1980 00000600 c2802bef     [ A0]   LDW     .D2T2   *+SP(172),B5
TMS320C6x Assembler PC v7.4.2 Thu Mar 19 12:43:24 2015

Tools Copyright (c) 1996-2012 Texas Instruments Incorporated
package/lib/Regression/regress_d_c/./../packages/ti/vlib/src/VLIB_mixtureOfGaussiansS16/VLIB_mixtureOfGaussiansS16_d.se66 PAGE   37

    1981 00000604 c0000911  || [ A0]   B       .S1     $C$L6             ; |130| 
    1982 00000608 d280002b! || [!A0]   MVKL    .S2     $C$SL5+0,B5
    1983 0000060c c1ac3644  || [ A0]   LDH     .D1T1   *A11++,A3         ; |134| 
    1984                    
    1985                            .dwpsn  file "./../packages/ti/vlib/src/VLIB_mixtureOfGaussiansS16/VLIB_mixtureOfGaussiansS16_
    1986 00000610 d1b0bda0     [!A0]   SHR     .S1X    B12,5,A3          ; |131| 
    1987 00000614 d280006a!    [!A0]   MVKH    .S2     $C$SL5+0,B5
    1988 00000618 d2337b0a     [!A0]   EXTU    .S2     B12,27,27,B4      ; |131| 
    1989                    $C$DW$213       .dwtag  DW_TAG_TI_branch
    1990                            .dwattr $C$DW$213, DW_AT_low_pc(0x00)
    1991                            .dwattr $C$DW$213, DW_AT_name("printf")
    1992                            .dwattr $C$DW$213, DW_AT_TI_call
    1993 0000061c d0000010!    [!A0]   CALL    .S1     printf            ; |131| 
    1994                            .dwpsn  file "./../packages/ti/vlib/src/VLIB_mixtureOfGaussiansS16/VLIB_mixtureOfGaussiansS16_
    1995 00000620 c21436c6     [ A0]   LDH     .D2T2   *B5++,B4          ; |134| 
    1996                            .dwpsn  file "./../packages/ti/vlib/src/VLIB_mixtureOfGaussiansS16/VLIB_mixtureOfGaussiansS16_
    1997                               ; BRANCHCC OCCURS {$C$L6}         ; |130| 
    1998 00000624           $C$DW$L$VLIB_mixtureOfGaussiansS16_d$23$E:
    1999                    ;** --------------------------------------------------------------------------*
    2000 00000624           $C$DW$L$VLIB_mixtureOfGaussiansS16_d$24$B:
    2001                    ;          EXCLUSIVE CPU CYCLES: 4
    2002                    ;** 131 -----------------------    printf((const char *)"\tError in Mean: Image %d, Pixel %d, Mode %d\
    2003                    ;** 132 -----------------------    status_nat_vs_ref = 0;
    2004                            .dwpsn  file "./../packages/ti/vlib/src/VLIB_mixtureOfGaussiansS16/VLIB_mixtureOfGaussiansS16_
    2005 00000624     bc55             STW     .D2T2   B5,*+SP(4)        ; |131| 
    2006 00000626     8cb5             STW     .D2T1   A3,*+SP(16)       ; |131| 
    2007 00000628 023c62f6             STW     .D2T2   B4,*+SP(12)       ; |131| 
    2008                    
    2009 0000062c 06bc42f7             STW     .D2T2   B13,*+SP(8)       ; |131| 
    2010 00000630 01850162  ||         ADDKPC  .S2     $C$RL31,B3,0      ; |131| 
    2011                    
    2012 00000634           $C$RL31:   ; CALL OCCURS {printf} {0}        ; |131| 
    2013 00000634           $C$DW$L$VLIB_mixtureOfGaussiansS16_d$24$E:
    2014                    ;** --------------------------------------------------------------------------*
    2015 00000634           $C$DW$L$VLIB_mixtureOfGaussiansS16_d$25$B:
    2016                    ;          EXCLUSIVE CPU CYCLES: 6
    2017 00000634 02802bee             LDW     .D2T2   *+SP(172),B5
    2018                            .dwpsn  file "./../packages/ti/vlib/src/VLIB_mixtureOfGaussiansS16/VLIB_mixtureOfGaussiansS16_
    2019 00000638 01ac3644             LDH     .D1T1   *A11++,A3         ; |134| 
    2020                            .dwpsn  file "./../packages/ti/vlib/src/VLIB_mixtureOfGaussiansS16/VLIB_mixtureOfGaussiansS16_
    2021 00000640 0680a358             ZERO    .L1     A13               ; |132| 
    2022 00000644     2c6e             NOP             2
    2023                            .dwpsn  file "./../packages/ti/vlib/src/VLIB_mixtureOfGaussiansS16/VLIB_mixtureOfGaussiansS16_
    2024 00000646     1ecd             LDH     .D2T2   *B5++,B4          ; |134| 
    2025 00000648           $C$DW$L$VLIB_mixtureOfGaussiansS16_d$25$E:
    2026                    ;** --------------------------------------------------------------------------*
    2027 00000648           $C$L6:    
    2028                            .dwpsn  file "./../packages/ti/vlib/src/VLIB_mixtureOfGaussiansS16/VLIB_mixtureOfGaussiansS16_
    2029 00000648           $C$DW$L$VLIB_mixtureOfGaussiansS16_d$26$B:
    2030                    ;          EXCLUSIVE CPU CYCLES: 11
    2031                    ;**     -----------------------g15:
    2032                    ;** 134 -----------------------    if ( *U$163++ == *U$152++ ) goto g17;
    2033                            .dwpsn  file "./../packages/ti/vlib/src/VLIB_mixtureOfGaussiansS16/VLIB_mixtureOfGaussiansS16_
    2034 00000648 02802bfe             STW     .D2T2   B5,*+SP(172)      ; |134| 
    2035 0000064c     4c6e             NOP             3
TMS320C6x Assembler PC v7.4.2 Thu Mar 19 12:43:24 2015

Tools Copyright (c) 1996-2012 Texas Instruments Incorporated
package/lib/Regression/regress_d_c/./../packages/ti/vlib/src/VLIB_mixtureOfGaussiansS16/VLIB_mixtureOfGaussiansS16_d.se66 PAGE   38

    2036 0000064e     7668             CMPEQ   .L1X    B4,A3,A0          ; |134| 
    2037                    
    2038 00000650 c1ac0245     [ A0]   LDH     .D1T1   *A11,A3           ; |138| 
    2039 00000654 c22836c7  || [ A0]   LDH     .D2T2   *B10++,B4         ; |138| 
    2040 00000658 c0000c11  || [ A0]   B       .S1     $C$L7             ; |134| 
    2041 00000660 d280002a! || [!A0]   MVKL    .S2     $C$SL6+0,B5
    2042                    
    2043                            .dwpsn  file "./../packages/ti/vlib/src/VLIB_mixtureOfGaussiansS16/VLIB_mixtureOfGaussiansS16_
    2044 00000664 d1b0bda0     [!A0]   SHR     .S1X    B12,5,A3          ; |135| 
    2045 00000668 d280006a!    [!A0]   MVKH    .S2     $C$SL6+0,B5
    2046 0000066c d2337b0a     [!A0]   EXTU    .S2     B12,27,27,B4      ; |135| 
    2047                    $C$DW$214       .dwtag  DW_TAG_TI_branch
    2048                            .dwattr $C$DW$214, DW_AT_low_pc(0x00)
    2049                            .dwattr $C$DW$214, DW_AT_name("printf")
    2050                            .dwattr $C$DW$214, DW_AT_TI_call
    2051 00000670 d0000010!    [!A0]   CALL    .S1     printf            ; |135| 
    2052                            .dwpsn  file "./../packages/ti/vlib/src/VLIB_mixtureOfGaussiansS16/VLIB_mixtureOfGaussiansS16_
    2053 00000674 c0107a78     [ A0]   CMPEQ   .L1X    B4,A3,A0          ; |138| 
    2054                            .dwpsn  file "./../packages/ti/vlib/src/VLIB_mixtureOfGaussiansS16/VLIB_mixtureOfGaussiansS16_
    2055                               ; BRANCHCC OCCURS {$C$L7}         ; |134| 
    2056 00000678           $C$DW$L$VLIB_mixtureOfGaussiansS16_d$26$E:
    2057                    ;** --------------------------------------------------------------------------*
    2058 00000678           $C$DW$L$VLIB_mixtureOfGaussiansS16_d$27$B:
    2059                    ;          EXCLUSIVE CPU CYCLES: 4
    2060                    ;** 135 -----------------------    printf((const char *)"\tError in Variance: Image %d, Pixel %d, Mode
    2061                    ;** 136 -----------------------    status_nat_vs_ref = 0;
    2062                            .dwpsn  file "./../packages/ti/vlib/src/VLIB_mixtureOfGaussiansS16/VLIB_mixtureOfGaussiansS16_
    2063 00000678     bc55             STW     .D2T2   B5,*+SP(4)        ; |135| 
    2064 0000067a     fc45             STW     .D2T2   B4,*+SP(12)       ; |135| 
    2065 00000680 01bc82f4             STW     .D2T1   A3,*+SP(16)       ; |135| 
    2066                    
    2067 00000684 06bc42f7             STW     .D2T2   B13,*+SP(8)       ; |135| 
    2068 00000688 01830162  ||         ADDKPC  .S2     $C$RL32,B3,0      ; |135| 
    2069                    
    2070 0000068c           $C$RL32:   ; CALL OCCURS {printf} {0}        ; |135| 
    2071 0000068c           $C$DW$L$VLIB_mixtureOfGaussiansS16_d$27$E:
    2072                    ;** --------------------------------------------------------------------------*
    2073 0000068c           $C$DW$L$VLIB_mixtureOfGaussiansS16_d$28$B:
    2074                    ;          EXCLUSIVE CPU CYCLES: 6
    2075                    
    2076 0000068c 022836c7             LDH     .D2T2   *B10++,B4         ; |138| 
    2077 00000690 01ac0244  ||         LDH     .D1T1   *A11,A3           ; |138| 
    2078                    
    2079                            .dwpsn  file "./../packages/ti/vlib/src/VLIB_mixtureOfGaussiansS16/VLIB_mixtureOfGaussiansS16_
    2080 00000694 0680a358             ZERO    .L1     A13               ; |136| 
    2081 00000698     4c6e             NOP             3
    2082                            .dwpsn  file "./../packages/ti/vlib/src/VLIB_mixtureOfGaussiansS16/VLIB_mixtureOfGaussiansS16_
    2083 0000069a     7668             CMPEQ   .L1X    B4,A3,A0          ; |138| 
    2084 000006a0           $C$DW$L$VLIB_mixtureOfGaussiansS16_d$28$E:
    2085                    ;** --------------------------------------------------------------------------*
    2086 000006a0           $C$L7:    
    2087                            .dwpsn  file "./../packages/ti/vlib/src/VLIB_mixtureOfGaussiansS16/VLIB_mixtureOfGaussiansS16_
    2088 000006a0           $C$DW$L$VLIB_mixtureOfGaussiansS16_d$29$B:
    2089                    ;          EXCLUSIVE CPU CYCLES: 6
    2090                    ;**     -----------------------g17:
TMS320C6x Assembler PC v7.4.2 Thu Mar 19 12:43:24 2015

Tools Copyright (c) 1996-2012 Texas Instruments Incorporated
package/lib/Regression/regress_d_c/./../packages/ti/vlib/src/VLIB_mixtureOfGaussiansS16/VLIB_mixtureOfGaussiansS16_d.se66 PAGE   39

    2091                    ;** 138 -----------------------    if ( *U$169++ == *U$152 ) goto g19;
    2092                    
    2093 000006a0 c0000811     [ A0]   B       .S1     $C$L8             ; |138| 
    2094 000006a4 d280002a! || [!A0]   MVKL    .S2     $C$SL7+0,B5
    2095                    
    2096                            .dwpsn  file "./../packages/ti/vlib/src/VLIB_mixtureOfGaussiansS16/VLIB_mixtureOfGaussiansS16_
    2097 000006a8 d1b0bda0     [!A0]   SHR     .S1X    B12,5,A3          ; |139| 
    2098 000006ac d280006a!    [!A0]   MVKH    .S2     $C$SL7+0,B5
    2099 000006b0 d2337b0a     [!A0]   EXTU    .S2     B12,27,27,B4      ; |139| 
    2100                    $C$DW$215       .dwtag  DW_TAG_TI_branch
    2101                            .dwattr $C$DW$215, DW_AT_low_pc(0x00)
    2102                            .dwattr $C$DW$215, DW_AT_name("printf")
    2103                            .dwattr $C$DW$215, DW_AT_TI_call
    2104 000006b4 d0000010!    [!A0]   CALL    .S1     printf            ; |139| 
    2105                            .dwpsn  file "./../packages/ti/vlib/src/VLIB_mixtureOfGaussiansS16/VLIB_mixtureOfGaussiansS16_
    2106 000006b8 c02be058     [ A0]   SUB     .L1     A10,1,A0          ; |129| 
    2107                            .dwpsn  file "./../packages/ti/vlib/src/VLIB_mixtureOfGaussiansS16/VLIB_mixtureOfGaussiansS16_
    2108                               ; BRANCHCC OCCURS {$C$L8}         ; |138| 
    2109 000006bc           $C$DW$L$VLIB_mixtureOfGaussiansS16_d$29$E:
    2110                    ;** --------------------------------------------------------------------------*
    2111 000006bc           $C$DW$L$VLIB_mixtureOfGaussiansS16_d$30$B:
    2112                    ;          EXCLUSIVE CPU CYCLES: 4
    2113                    ;** 139 -----------------------    printf((const char *)"\tError in Weight: Image %d, Pixel %d, Mode %
    2114                    ;** 140 -----------------------    status_nat_vs_ref = 0;
    2115                            .dwpsn  file "./../packages/ti/vlib/src/VLIB_mixtureOfGaussiansS16/VLIB_mixtureOfGaussiansS16_
    2116 000006bc 02bc22f6             STW     .D2T2   B5,*+SP(4)        ; |139| 
    2117 000006c0 01bc82f4             STW     .D2T1   A3,*+SP(16)       ; |139| 
    2118 000006c4 023c62f6             STW     .D2T2   B4,*+SP(12)       ; |139| 
    2119                    
    2120 000006c8 06bc42f7             STW     .D2T2   B13,*+SP(8)       ; |139| 
    2121 000006cc 01840162  ||         ADDKPC  .S2     $C$RL33,B3,0      ; |139| 
    2122                    
    2123 000006d0           $C$RL33:   ; CALL OCCURS {printf} {0}        ; |139| 
    2124 000006d0           $C$DW$L$VLIB_mixtureOfGaussiansS16_d$30$E:
    2125                    ;** --------------------------------------------------------------------------*
    2126 000006d0           $C$DW$L$VLIB_mixtureOfGaussiansS16_d$31$B:
    2127                    ;          EXCLUSIVE CPU CYCLES: 1
    2128                    
    2129 000006d0 002be059             SUB     .L1     A10,1,A0          ; |129| 
    2130 000006d4 06800029  ||         ZERO    .S1     A13               ; |140| 
    2131                    
    2132 000006e0           $C$DW$L$VLIB_mixtureOfGaussiansS16_d$31$E:
    2133                    ;** --------------------------------------------------------------------------*
    2134 000006e0           $C$L8:    
    2135                            .dwpsn  file "./../packages/ti/vlib/src/VLIB_mixtureOfGaussiansS16/VLIB_mixtureOfGaussiansS16_
    2136 000006e0           $C$DW$L$VLIB_mixtureOfGaussiansS16_d$32$B:
    2137                    ;          EXCLUSIVE CPU CYCLES: 6
    2138                    ;**     -----------------------g19:
    2139                    ;** 129 -----------------------    ++k;
    2140                    ;** 130 -----------------------    counter += 3;
    2141                    ;** 129 -----------------------    if ( L$1 = L$1-1 ) goto g13;
    2142                    
    2143 000006e0 c5ac4059     [ A0]   ADD     .L1     2,A11,A11         ; |130| 
    2144 000006e4 cfffe391  || [ A0]   B       .S1     $C$L5             ; |129| 
    2145 000006e8 c2303644  || [ A0]   LDH     .D1T1   *A12++,A4         ; |130| 
TMS320C6x Assembler PC v7.4.2 Thu Mar 19 12:43:24 2015

Tools Copyright (c) 1996-2012 Texas Instruments Incorporated
package/lib/Regression/regress_d_c/./../packages/ti/vlib/src/VLIB_mixtureOfGaussiansS16/VLIB_mixtureOfGaussiansS16_d.se66 PAGE   40

    2146                    
    2147                            .dwpsn  file "./../packages/ti/vlib/src/VLIB_mixtureOfGaussiansS16/VLIB_mixtureOfGaussiansS16_
    2148 000006ec c1ac3644     [ A0]   LDH     .D1T1   *A11++,A3         ; |130| 
    2149 000006f0 07386058             ADD     .L1     3,A14,A14         ; |130| 
    2150                            .dwpsn  file "./../packages/ti/vlib/src/VLIB_mixtureOfGaussiansS16/VLIB_mixtureOfGaussiansS16_
    2151 000006f4 0630205a             ADD     .L2     1,B12,B12         ; |129| 
    2152 000006f8 052be058             SUB     .L1     A10,1,A10         ; |129| 
    2153 000006fc 00000000             NOP             1
    2154                               ; BRANCHCC OCCURS {$C$L5}         ; |129| 
    2155 00000700           $C$DW$L$VLIB_mixtureOfGaussiansS16_d$32$E:
    2156                    ;** --------------------------------------------------------------------------*
    2157 00000700           $C$L9:    
    2158 00000700           $C$DW$L$VLIB_mixtureOfGaussiansS16_d$33$B:
    2159                    ;          EXCLUSIVE CPU CYCLES: 18
    2160                    ;**     -----------------------g20:
    2161                    ;** 144 -----------------------    if ( (U$176 = (*(U$12+v$1)).im_size) <= 0 ) goto g25;
    2162 00000700 018020ec             LDW     .D2T1   *+SP(128),A3
    2163 00000704 00000000             NOP             4
    2164                            .dwpsn  file "./../packages/ti/vlib/src/VLIB_mixtureOfGaussiansS16/VLIB_mixtureOfGaussiansS16_
    2165 00000704 018de078             ADD     .L1     A15,A3,A3         ; |144| 
    2166                    
    2167 00000708 050c6267             LDW     .D1T2   *+A3(12),B10      ; |144| 
    2168 0000070c 018022ec  ||         LDW     .D2T1   *+SP(136),A3
    2169                    
    2170 00000710 00000000             NOP             4
    2171                    
    2172 00000710 00280adb             CMPGT   .L2     B10,0,B0          ; |144| 
    2173 00000714 018caca0  ||         SHL     .S1     A3,5,A3
    2174                    
    2175 00000718 30001491     [!B0]   B       .S1     $C$L12            ; |144| 
    2176 00000720 018de078  ||         ADD     .L1     A15,A3,A3
    2177                    
    2178 00000724 218c4264     [ B0]   LDW     .D1T1   *+A3(8),A3
    2179                            .dwpsn  file "./../packages/ti/vlib/src/VLIB_mixtureOfGaussiansS16/VLIB_mixtureOfGaussiansS16_
    2180 00000728 260027ee     [ B0]   LDW     .D2T2   *+SP(156),B12     ; |145| 
    2181 0000072c 00004000             NOP             3
    2182                            .dwpsn  file "./../packages/ti/vlib/src/VLIB_mixtureOfGaussiansS16/VLIB_mixtureOfGaussiansS16_
    2183                               ; BRANCHCC OCCURS {$C$L12}        ; |144| 
    2184 00000730           $C$DW$L$VLIB_mixtureOfGaussiansS16_d$33$E:
    2185                    ;** --------------------------------------------------------------------------*
    2186 00000730           $C$DW$L$VLIB_mixtureOfGaussiansS16_d$34$B:
    2187                    ;          EXCLUSIVE CPU CYCLES: 2
    2188                    ;**     -----------------------    U$152 = counter*2+(*((tpi<<5)+v$1)).staticOut-2;
    2189                    ;**     -----------------------    U$184 = compNum;
    2190                    ;** 145 -----------------------    L$2 = U$176;
    2191                    ;** 145 -----------------------    counter += L$2;
    2192                    ;**     -----------------------    K$11 = 32;
    2193                    ;** 144 -----------------------    k = 0;
    2194                    ;**     -----------------------    #pragma MUST_ITERATE(1, 18446744073709551615, 1)
    2195                    ;**     -----------------------    #pragma LOOP_FLAGS(5120u)
    2196                    
    2197 00000730 018dda41             ADDAH   .D1     A3,A14,A3
    2198 00000734 05a81fd9  ||         MV      .L1X    B10,A11           ; |145| 
    2199 00000738 05000028  ||         ZERO    .S1     A10               ; |144| 
    2200                    
TMS320C6x Assembler PC v7.4.2 Thu Mar 19 12:43:24 2015

Tools Copyright (c) 1996-2012 Texas Instruments Incorporated
package/lib/Regression/regress_d_c/./../packages/ti/vlib/src/VLIB_mixtureOfGaussiansS16/VLIB_mixtureOfGaussiansS16_d.se66 PAGE   41

    2201 0000073c 060fc059             SUB     .L1     A3,2,A12
    2202 00000740 0729d1e0  ||         ADD     .S1X    B10,A14,A14       ; |145| 
    2203                    
    2204 00000744           $C$DW$L$VLIB_mixtureOfGaussiansS16_d$34$E:
    2205                    ;*----------------------------------------------------------------------------*
    2206                    ;*   SOFTWARE PIPELINE INFORMATION
    2207                    ;*      Disqualified loop: Loop contains control code
    2208                    ;*----------------------------------------------------------------------------*
    2209 00000744           $C$L10:    
    2210                            .dwpsn  file "./../packages/ti/vlib/src/VLIB_mixtureOfGaussiansS16/VLIB_mixtureOfGaussiansS16_
    2211 00000744           $C$DW$L$VLIB_mixtureOfGaussiansS16_d$35$B:
    2212                    ;          EXCLUSIVE CPU CYCLES: 12
    2213                    ;**     -----------------------g22:
    2214                    ;** 145 -----------------------    if ( *U$184++ == *(++U$152) ) goto g24;
    2215                    
    2216 00000744 02303697             LDBU    .D2T2   *B12++,B4         ; |145| 
    2217 00000748 01b03244  ||         LDH     .D1T1   *++A12,A3         ; |145| 
    2218                    
    2219 0000074c     6c6e             NOP             4
    2220                            .dwpsn  file "./../packages/ti/vlib/src/VLIB_mixtureOfGaussiansS16/VLIB_mixtureOfGaussiansS16_
    2221 0000074e     7668             CMPEQ   .L1X    B4,A3,A0          ; |145| 
    2222                    
    2223 00000750     0c2a     [ A0]   B       .S1     $C$L11            ; |145| 
    2224 00000754 d200002a! || [!A0]   MVKL    .S2     $C$SL8+0,B4
    2225 00000752     2046  ||         MV      .L1     A0,A1             ; guard predicate rewrite
    2226                    
    2227 00000758 d1ab7b09     [!A0]   EXTU    .S1     A10,27,27,A3      ; |146| 
    2228 00000760 85282058  || [ A1]   ADD     .L1     1,A10,A10         ; |144| 
    2229                    
    2230 00000764 d200006a!    [!A0]   MVKH    .S2     $C$SL8+0,B4
    2231                    $C$DW$216       .dwtag  DW_TAG_TI_branch
    2232                            .dwattr $C$DW$216, DW_AT_low_pc(0x00)
    2233                            .dwattr $C$DW$216, DW_AT_name("printf")
    2234                            .dwattr $C$DW$216, DW_AT_TI_call
    2235                    
    2236 00000768 d0000011!    [!A0]   CALL    .S1     printf            ; |146| 
    2237 0000076c c02fe059  || [ A0]   SUB     .L1     A11,1,A0          ; |144| 
    2238 00000770 85ac29c0  || [ A1]   SUB     .D1     A11,1,A11         ; |144| 
    2239                    
    2240                            .dwpsn  file "./../packages/ti/vlib/src/VLIB_mixtureOfGaussiansS16/VLIB_mixtureOfGaussiansS16_
    2241 00000774 9000a358     [!A1]   ZERO    .L1     A0                ; |144| nullify predicate
    2242 00000778     1caa     [ A0]   B       .S1     $C$L10            ; |144| 
    2243                            .dwpsn  file "./../packages/ti/vlib/src/VLIB_mixtureOfGaussiansS16/VLIB_mixtureOfGaussiansS16_
    2244                               ; BRANCHCC OCCURS {$C$L11}        ; |145| 
    2245 0000077a           $C$DW$L$VLIB_mixtureOfGaussiansS16_d$35$E:
    2246                    ;** --------------------------------------------------------------------------*
    2247 0000077a           $C$DW$L$VLIB_mixtureOfGaussiansS16_d$36$B:
    2248                    ;          EXCLUSIVE CPU CYCLES: 3
    2249                    ;** 146 -----------------------    printf((const char *)"\tError in Component index: Image %d, Pixel %
    2250                    ;** 147 -----------------------    status_nat_vs_ref = 0;
    2251                            .dwpsn  file "./../packages/ti/vlib/src/VLIB_mixtureOfGaussiansS16/VLIB_mixtureOfGaussiansS16_
    2252 0000077a     bc45             STW     .D2T2   B4,*+SP(4)        ; |146| 
    2253 00000780 01bc62f4             STW     .D2T1   A3,*+SP(12)       ; |146| 
    2254                    
    2255 00000784 06bc42f7             STW     .D2T2   B13,*+SP(8)       ; |146| 
TMS320C6x Assembler PC v7.4.2 Thu Mar 19 12:43:24 2015

Tools Copyright (c) 1996-2012 Texas Instruments Incorporated
package/lib/Regression/regress_d_c/./../packages/ti/vlib/src/VLIB_mixtureOfGaussiansS16/VLIB_mixtureOfGaussiansS16_d.se66 PAGE   42

    2256 00000788 01830162  ||         ADDKPC  .S2     $C$RL34,B3,0      ; |146| 
    2257                    
    2258 0000078c           $C$RL34:   ; CALL OCCURS {printf} {0}        ; |146| 
    2259 0000078c           $C$DW$L$VLIB_mixtureOfGaussiansS16_d$36$E:
    2260                    ;** --------------------------------------------------------------------------*
    2261 0000078c           $C$DW$L$VLIB_mixtureOfGaussiansS16_d$37$B:
    2262                    ;          EXCLUSIVE CPU CYCLES: 2
    2263                            .dwpsn  file "./../packages/ti/vlib/src/VLIB_mixtureOfGaussiansS16/VLIB_mixtureOfGaussiansS16_
    2264 0000078c 002fe058             SUB     .L1     A11,1,A0          ; |144| 
    2265                    
    2266 00000790 cffff893     [ A0]   B       .S2     $C$L10            ; |144| 
    2267 00000794 05afe059  ||         SUB     .L1     A11,1,A11         ; |144| 
    2268 00000798 052821a1  ||         ADD     .S1     1,A10,A10         ; |144| 
    2269 0000079c 06800040  ||         ZERO    .D1     A13               ; |147| 
    2270                    
    2271 000007a0           $C$DW$L$VLIB_mixtureOfGaussiansS16_d$37$E:
    2272                    ;** --------------------------------------------------------------------------*
    2273 000007a0           $C$L11:    
    2274                            .dwpsn  file "./../packages/ti/vlib/src/VLIB_mixtureOfGaussiansS16/VLIB_mixtureOfGaussiansS16_
    2275 000007a0           $C$DW$L$VLIB_mixtureOfGaussiansS16_d$38$B:
    2276                    ;          EXCLUSIVE CPU CYCLES: 5
    2277                    ;**     -----------------------g24:
    2278                    ;** 144 -----------------------    ++k;
    2279                    ;** 144 -----------------------    if ( L$2 = L$2-1 ) goto g22;
    2280 000007a0 00008000             NOP             5
    2281                            .dwpsn  file "./../packages/ti/vlib/src/VLIB_mixtureOfGaussiansS16/VLIB_mixtureOfGaussiansS16_
    2282                               ; BRANCHCC OCCURS {$C$L10}        ; |144| 
    2283 000007a4           $C$DW$L$VLIB_mixtureOfGaussiansS16_d$38$E:
    2284                    ;** --------------------------------------------------------------------------*
    2285 000007a4           $C$L12:    
    2286 000007a4           $C$DW$L$VLIB_mixtureOfGaussiansS16_d$39$B:
    2287                    ;          EXCLUSIVE CPU CYCLES: 7
    2288                    ;**     -----------------------g25:
    2289                    ;** 151 -----------------------    if ( U$176 <= 0 ) goto g30;
    2290                    
    2291 000007a4 018022ed             LDW     .D2T1   *+SP(136),A3
    2292 000007a8 00280ada  ||         CMPGT   .L2     B10,0,B0          ; |151| 
    2293                    
    2294                            .dwpsn  file "./../packages/ti/vlib/src/VLIB_mixtureOfGaussiansS16/VLIB_mixtureOfGaussiansS16_
    2295 000007ac 30256120     [!B0]   BNOP    .S1     $C$L15,3          ; |151| 
    2296 000007b0 018caca0             SHL     .S1     A3,5,A3
    2297 000007b4 018de078             ADD     .L1     A15,A3,A3
    2298                               ; BRANCHCC OCCURS {$C$L15}        ; |151| 
    2299 000007b8           $C$DW$L$VLIB_mixtureOfGaussiansS16_d$39$E:
    2300                    ;** --------------------------------------------------------------------------*
    2301 000007b8           $C$DW$L$VLIB_mixtureOfGaussiansS16_d$40$B:
    2302                    ;          EXCLUSIVE CPU CYCLES: 10
    2303                    ;**     -----------------------    U$132 = *Im_mask;
    2304                    ;**     -----------------------    U$194 = *(counter*2+(*((tpi<<5)+v$1)).staticOut);
    2305                    ;** 152 -----------------------    L$3 = U$176;
    2306                    ;**     -----------------------    K$11 = 32;
    2307                    ;** 151 -----------------------    k = 0;
    2308                    ;**     -----------------------    #pragma MUST_ITERATE(1, 18446744073709551615, 1)
    2309                    ;**     -----------------------    #pragma LOOP_FLAGS(5120u)
    2310 000007b8 020c4264             LDW     .D1T1   *+A3(8),A4
TMS320C6x Assembler PC v7.4.2 Thu Mar 19 12:43:24 2015

Tools Copyright (c) 1996-2012 Texas Instruments Incorporated
package/lib/Regression/regress_d_c/./../packages/ti/vlib/src/VLIB_mixtureOfGaussiansS16/VLIB_mixtureOfGaussiansS16_d.se66 PAGE   43

    2311                            .dwpsn  file "./../packages/ti/vlib/src/VLIB_mixtureOfGaussiansS16/VLIB_mixtureOfGaussiansS16_
    2312 000007bc 0f8029ec             LDW     .D2T1   *+SP(164),A31     ; |152| 
    2313                            .dwpsn  file "./../packages/ti/vlib/src/VLIB_mixtureOfGaussiansS16/VLIB_mixtureOfGaussiansS16_
    2314 000007c0 0500a358             ZERO    .L1     A10               ; |151| 
    2315 000007c4 00002000             NOP             2
    2316 000007c8 0591ca44             LDH     .D1T1   *+A4[A14],A11
    2317 000007cc 067c0264             LDW     .D1T1   *A31,A12
    2318 000007d0 00004000             NOP             3
    2319 000007d4           $C$DW$L$VLIB_mixtureOfGaussiansS16_d$40$E:
    2320                    ;*----------------------------------------------------------------------------*
    2321                    ;*   SOFTWARE PIPELINE INFORMATION
    2322                    ;*      Disqualified loop: Loop contains control code
    2323                    ;*----------------------------------------------------------------------------*
    2324 000007d4           $C$L13:    
    2325 000007d4           $C$DW$L$VLIB_mixtureOfGaussiansS16_d$41$B:
    2326                    ;          EXCLUSIVE CPU CYCLES: 10
    2327                    ;**     -----------------------g27:
    2328                    ;** 152 -----------------------    if ( (U$132>>k&1u) == (U$194>>k&1u) ) goto g29;
    2329                            .dwpsn  file "./../packages/ti/vlib/src/VLIB_mixtureOfGaussiansS16/VLIB_mixtureOfGaussiansS16_
    2330 000007d4 01ad4de0             SHR     .S1     A11,A10,A3        ; |152| 
    2331                    
    2332 000007d8 023149e1             SHRU    .S1     A12,A10,A4        ; |152| 
    2333 000007dc 018c2f58  ||         AND     .L1     1,A3,A3           ; |152| 
    2334                    
    2335 000007e0 02102f58             AND     .L1     1,A4,A4           ; |152| 
    2336 000007e4     85e8             CMPEQ   .L1     A4,A3,A0          ; |152| 
    2337                    
    2338 000007e8 c0292121     [ A0]   BNOP    .S1     $C$L14,1          ; |152| 
    2339 000007e6     2046  ||         MV      .L1     A0,A1             ; guard predicate rewrite
    2340 000007ec d200002b! || [!A0]   MVKL    .S2     $C$SL9+0,B4
    2341 000007f0 c5282940  || [ A0]   ADD     .D1     1,A10,A10         ; |151| 
    2342                    
    2343 000007f4 d200006a!    [!A0]   MVKH    .S2     $C$SL9+0,B4
    2344                    $C$DW$217       .dwtag  DW_TAG_TI_branch
    2345                            .dwattr $C$DW$217, DW_AT_low_pc(0x00)
    2346                            .dwattr $C$DW$217, DW_AT_name("printf")
    2347                            .dwattr $C$DW$217, DW_AT_TI_call
    2348                    
    2349 000007f8 d0000011!    [!A0]   CALL    .S1     printf            ; |153| 
    2350 00000800 c02bf059  || [ A0]   SUB     .L1X    B10,1,A0          ; |151| 
    2351 00000804 852be05a  || [ A1]   SUB     .L2     B10,1,B10         ; |151| 
    2352                    
    2353                            .dwpsn  file "./../packages/ti/vlib/src/VLIB_mixtureOfGaussiansS16/VLIB_mixtureOfGaussiansS16_
    2354 00000808 9000a358     [!A1]   ZERO    .L1     A0                ; |151| nullify predicate
    2355 0000080c     1aaa     [ A0]   B       .S1     $C$L13            ; |151| 
    2356                            .dwpsn  file "./../packages/ti/vlib/src/VLIB_mixtureOfGaussiansS16/VLIB_mixtureOfGaussiansS16_
    2357                               ; BRANCHCC OCCURS {$C$L14}        ; |152| 
    2358 0000080e           $C$DW$L$VLIB_mixtureOfGaussiansS16_d$41$E:
    2359                    ;** --------------------------------------------------------------------------*
    2360 0000080e           $C$DW$L$VLIB_mixtureOfGaussiansS16_d$42$B:
    2361                    ;          EXCLUSIVE CPU CYCLES: 3
    2362                    ;** 153 -----------------------    printf((const char *)"\tError in Foreground Mask: Image %d, Pixel %
    2363                    ;** 154 -----------------------    status_nat_vs_ref = 0;
    2364                            .dwpsn  file "./../packages/ti/vlib/src/VLIB_mixtureOfGaussiansS16/VLIB_mixtureOfGaussiansS16_
    2365 0000080e     bc45             STW     .D2T2   B4,*+SP(4)        ; |153| 
TMS320C6x Assembler PC v7.4.2 Thu Mar 19 12:43:24 2015

Tools Copyright (c) 1996-2012 Texas Instruments Incorporated
package/lib/Regression/regress_d_c/./../packages/ti/vlib/src/VLIB_mixtureOfGaussiansS16/VLIB_mixtureOfGaussiansS16_d.se66 PAGE   44

    2366 00000810 053c62f4             STW     .D2T1   A10,*+SP(12)      ; |153| 
    2367                    
    2368 00000814 06bc42f7             STW     .D2T2   B13,*+SP(8)       ; |153| 
    2369 00000818 01880162  ||         ADDKPC  .S2     $C$RL35,B3,0      ; |153| 
    2370                    
    2371 00000820           $C$RL35:   ; CALL OCCURS {printf} {0}        ; |153| 
    2372 00000820           $C$DW$L$VLIB_mixtureOfGaussiansS16_d$42$E:
    2373                    ;** --------------------------------------------------------------------------*
    2374 00000820           $C$DW$L$VLIB_mixtureOfGaussiansS16_d$43$B:
    2375                    ;          EXCLUSIVE CPU CYCLES: 2
    2376                            .dwpsn  file "./../packages/ti/vlib/src/VLIB_mixtureOfGaussiansS16/VLIB_mixtureOfGaussiansS16_
    2377 00000820 002bf058             SUB     .L1X    B10,1,A0          ; |151| 
    2378                    
    2379 00000830     16aa     [ A0]   B       .S1     $C$L13            ; |151| 
    2380 00000828 052be05b  ||         SUB     .L2     B10,1,B10         ; |151| 
    2381 0000082c 05282059  ||         ADD     .L1     1,A10,A10         ; |151| 
    2382 00000824 06800041  ||         ZERO    .D1     A13               ; |154| 
    2383                    
    2384 00000832           $C$DW$L$VLIB_mixtureOfGaussiansS16_d$43$E:
    2385                    ;** --------------------------------------------------------------------------*
    2386 00000832           $C$L14:    
    2387                            .dwpsn  file "./../packages/ti/vlib/src/VLIB_mixtureOfGaussiansS16/VLIB_mixtureOfGaussiansS16_
    2388 00000832           $C$DW$L$VLIB_mixtureOfGaussiansS16_d$44$B:
    2389                    ;          EXCLUSIVE CPU CYCLES: 5
    2390                    ;**     -----------------------g29:
    2391                    ;** 151 -----------------------    ++k;
    2392                    ;** 151 -----------------------    if ( L$3 = L$3-1 ) goto g27;
    2393 00000832     8c6e             NOP             5
    2394                            .dwpsn  file "./../packages/ti/vlib/src/VLIB_mixtureOfGaussiansS16/VLIB_mixtureOfGaussiansS16_
    2395                               ; BRANCHCC OCCURS {$C$L13}        ; |151| 
    2396 00000834           $C$DW$L$VLIB_mixtureOfGaussiansS16_d$44$E:
    2397                    ;** --------------------------------------------------------------------------*
    2398 00000834           $C$L15:    
    2399 00000834           $C$DW$L$VLIB_mixtureOfGaussiansS16_d$45$B:
    2400                    ;          EXCLUSIVE CPU CYCLES: 1
    2401                    ;**     -----------------------g30:
    2402                    ;** 158 -----------------------    ++counter;
    2403                            .dwpsn  file "./../packages/ti/vlib/src/VLIB_mixtureOfGaussiansS16/VLIB_mixtureOfGaussiansS16_
    2404 00000834 07382058             ADD     .L1     1,A14,A14         ; |158| 
    2405 00000838           $C$DW$L$VLIB_mixtureOfGaussiansS16_d$45$E:
    2406                    ;** --------------------------------------------------------------------------*
    2407 00000838           $C$DW$L$VLIB_mixtureOfGaussiansS16_d$46$B:
    2408                    ;          EXCLUSIVE CPU CYCLES: 4
    2409 00000838 018020ec             LDW     .D2T1   *+SP(128),A3
    2410 00000840 00004000             NOP             3
    2411 00000844           $C$DW$L$VLIB_mixtureOfGaussiansS16_d$46$E:
    2412                    ;** --------------------------------------------------------------------------*
    2413 00000844           $C$L16:    
    2414                            .dwpsn  file "./../packages/ti/vlib/src/VLIB_mixtureOfGaussiansS16/VLIB_mixtureOfGaussiansS16_
    2415 00000844           $C$DW$L$VLIB_mixtureOfGaussiansS16_d$47$B:
    2416                    ;          EXCLUSIVE CPU CYCLES: 14
    2417                    ;**     -----------------------g31:
    2418                    ;** 100 -----------------------    if ( (*(U$12+v$1)).num_images > (++i) ) goto g8;
    2419                            .dwpsn  file "./../packages/ti/vlib/src/VLIB_mixtureOfGaussiansS16/VLIB_mixtureOfGaussiansS16_
    2420 00000844 06b4205a             ADD     .L2     1,B13,B13         ; |100| 
TMS320C6x Assembler PC v7.4.2 Thu Mar 19 12:43:24 2015

Tools Copyright (c) 1996-2012 Texas Instruments Incorporated
package/lib/Regression/regress_d_c/./../packages/ti/vlib/src/VLIB_mixtureOfGaussiansS16/VLIB_mixtureOfGaussiansS16_d.se66 PAGE   45

    2421 00000848 018de078             ADD     .L1     A15,A3,A3         ; |100| 
    2422 0000084c 018c8264             LDW     .D1T1   *+A3(16),A3       ; |100| 
    2423 00000850 00006000             NOP             4
    2424 00000854 000dbafa             CMPGT   .L2X    A3,B13,B0         ; |100| 
    2425 00000858 2e9da120     [ B0]   BNOP    .S1     $C$L3,5           ; |100| 
    2426                               ; BRANCHCC OCCURS {$C$L3}         ; |100| 
    2427 0000085c           $C$DW$L$VLIB_mixtureOfGaussiansS16_d$47$E:
    2428                    ;** --------------------------------------------------------------------------*
    2429 0000085c           $C$L17:    
    2430 0000085c           $C$DW$L$VLIB_mixtureOfGaussiansS16_d$48$B:
    2431                    ;          EXCLUSIVE CPU CYCLES: 18
    2432                    ;**     -----------------------g32:
    2433                    ;** 167 -----------------------    memset((void *)wt, 0, (*(U$12+v$1)).im_size*6u);
    2434                    ;** 168 -----------------------    memset((void *)mu, 0, (*U$13).im_size*6u);
    2435                    ;** 169 -----------------------    memset((void *)var, 0, (*U$13).im_size*6u);
    2436                    ;** 172 -----------------------    if ( !LevelOfFeedback ) goto g34;
    2437 0000085c 018020ec             LDW     .D2T1   *+SP(128),A3
    2438                            .dwpsn  file "./../packages/ti/vlib/src/VLIB_mixtureOfGaussiansS16/VLIB_mixtureOfGaussiansS16_
    2439 00000860     0627             ZERO    .L2     B4                ; |167| 
    2440 00000862     4c6e             NOP             3
    2441 00000864 018de078             ADD     .L1     A15,A3,A3         ; |167| 
    2442 00000868 018c6264             LDW     .D1T1   *+A3(12),A3       ; |167| 
    2443 0000086c     6c6e             NOP             4
    2444 0000086e     45ca             SHL     .S1     A3,2,A4           ; |167| 
    2445                    $C$DW$218       .dwtag  DW_TAG_TI_branch
    2446                            .dwattr $C$DW$218, DW_AT_low_pc(0x00)
    2447                            .dwattr $C$DW$218, DW_AT_name("memset")
    2448                            .dwattr $C$DW$218, DW_AT_TI_call
    2449                    
    2450 00000870 10000013!            CALLP   .S2     memset,B3
    2451 00000874 03107a41  ||         ADDAH   .D1     A4,A3,A6          ; |167| 
    2452 00000878 020024ec  ||         LDW     .D2T1   *+SP(144),A4      ; |167| 
    2453                    
    2454 00000880           $C$RL36:   ; CALL OCCURS {memset} {0}        ; |167| 
    2455 00000880           $C$DW$L$VLIB_mixtureOfGaussiansS16_d$48$E:
    2456                    ;** --------------------------------------------------------------------------*
    2457 00000880           $C$DW$L$VLIB_mixtureOfGaussiansS16_d$49$B:
    2458                    ;          EXCLUSIVE CPU CYCLES: 27
    2459                            .dwpsn  file "./../packages/ti/vlib/src/VLIB_mixtureOfGaussiansS16/VLIB_mixtureOfGaussiansS16_
    2460 00000880 022c62e6             LDW     .D2T2   *+B11(12),B4      ; |168| 
    2461 00000884     6c6e             NOP             4
    2462 00000886     563a             SHL     .S1X    B4,2,A3           ; |168| 
    2463 00000888     9246             MV      .L1X    B4,A4             ; |168| Define a twin register
    2464                    $C$DW$219       .dwtag  DW_TAG_TI_branch
    2465                            .dwattr $C$DW$219, DW_AT_low_pc(0x00)
    2466                            .dwattr $C$DW$219, DW_AT_name("memset")
    2467                            .dwattr $C$DW$219, DW_AT_TI_call
    2468                    
    2469 00000894 10000012!            CALLP   .S2     memset,B3
    2470 0000088c 030c9a41  ||         ADDAH   .D1     A3,A4,A6          ; |168| 
    2471 00000890 020025ed  ||         LDW     .D2T1   *+SP(148),A4      ; |168| 
    2472 0000088a     0627  ||         ZERO    .L2     B4                ; |168| 
    2473                    
    2474 00000898           $C$RL37:   ; CALL OCCURS {memset} {0}        ; |168| 
    2475                            .dwpsn  file "./../packages/ti/vlib/src/VLIB_mixtureOfGaussiansS16/VLIB_mixtureOfGaussiansS16_
TMS320C6x Assembler PC v7.4.2 Thu Mar 19 12:43:24 2015

Tools Copyright (c) 1996-2012 Texas Instruments Incorporated
package/lib/Regression/regress_d_c/./../packages/ti/vlib/src/VLIB_mixtureOfGaussiansS16/VLIB_mixtureOfGaussiansS16_d.se66 PAGE   46

    2476 00000898 022c62e6             LDW     .D2T2   *+B11(12),B4      ; |169| 
    2477 000008a0 020026ec             LDW     .D2T1   *+SP(152),A4      ; |169| 
    2478 000008a4     4c6e             NOP             3
    2479 000008a6     465b             SHL     .S2     B4,2,B5           ; |169| 
    2480 000008a8 02149a42             ADDAH   .D2     B5,B4,B4          ; |169| 
    2481 000008ac     0c6e             NOP             1
    2482                    $C$DW$220       .dwtag  DW_TAG_TI_branch
    2483                            .dwattr $C$DW$220, DW_AT_low_pc(0x08)
    2484                            .dwattr $C$DW$220, DW_AT_name("memset")
    2485                            .dwattr $C$DW$220, DW_AT_TI_call
    2486                    
    2487 000008ae     d246             MV      .L1X    B4,A6             ; |169| 
    2488 000008b4 0200a35a  ||         ZERO    .L2     B4                ; |169| 
    2489 000008b0 10000013! ||         CALLP   .S2     memset,B3
    2490                    
    2491 000008b8           $C$RL38:   ; CALL OCCURS {memset} {0}        ; |169| 
    2492 000008b8           $C$DW$L$VLIB_mixtureOfGaussiansS16_d$49$E:
    2493                    ;** --------------------------------------------------------------------------*
    2494 000008b8           $C$DW$L$VLIB_mixtureOfGaussiansS16_d$50$B:
    2495                    ;          EXCLUSIVE CPU CYCLES: 11
    2496 000008b8 000021ec             LDW     .D2T1   *+SP(132),A0      ; |169| 
    2497 000008c0     6c6e             NOP             4
    2498                    
    2499 000008c2     08ba     [!A0]   B       .S1     $C$L18            ; |172| 
    2500 000008c4 d22c82e6  || [!A0]   LDW     .D2T2   *+B11(16),B4      ; |179| 
    2501                    
    2502                            .dwpsn  file "./../packages/ti/vlib/src/VLIB_mixtureOfGaussiansS16/VLIB_mixtureOfGaussiansS16_
    2503                    $C$DW$221       .dwtag  DW_TAG_TI_branch
    2504                            .dwattr $C$DW$221, DW_AT_low_pc(0x00)
    2505                            .dwattr $C$DW$221, DW_AT_name("printf")
    2506                            .dwattr $C$DW$221, DW_AT_TI_call
    2507 000008c8 c0000010!    [ A0]   CALL    .S1     printf            ; |174| 
    2508 000008cc c1800028!    [ A0]   MVKL    .S1     $C$SL2+0,A3
    2509 000008d0 c1800068!    [ A0]   MVKH    .S1     $C$SL2+0,A3
    2510 000008d4 00000000             NOP             1
    2511                            .dwpsn  file "./../packages/ti/vlib/src/VLIB_mixtureOfGaussiansS16/VLIB_mixtureOfGaussiansS16_
    2512 000008d8 d0100ada     [!A0]   CMPGT   .L2     B4,0,B0           ; |179| 
    2513                            .dwpsn  file "./../packages/ti/vlib/src/VLIB_mixtureOfGaussiansS16/VLIB_mixtureOfGaussiansS16_
    2514                               ; BRANCHCC OCCURS {$C$L18}        ; |172| 
    2515 000008e0           $C$DW$L$VLIB_mixtureOfGaussiansS16_d$50$E:
    2516                    ;** --------------------------------------------------------------------------*
    2517 000008e0           $C$DW$L$VLIB_mixtureOfGaussiansS16_d$51$B:
    2518                    ;          EXCLUSIVE CPU CYCLES: 1
    2519                    ;** 174 -----------------------    printf((const char *)"Luma  FG    Mean-1   Varn-1   Wght-1        M
    2520                    ;** 175 -----------------------    printf((const char *)"---------------------------------------------
    2521                    
    2522 000008e0 01bc22f5             STW     .D2T1   A3,*+SP(4)        ; |174| 
    2523 000008e4 01820162  ||         ADDKPC  .S2     $C$RL39,B3,0      ; |174| 
    2524                    
    2525                            .dwpsn  file "./../packages/ti/vlib/src/VLIB_mixtureOfGaussiansS16/VLIB_mixtureOfGaussiansS16_
    2526 000008e8           $C$RL39:   ; CALL OCCURS {printf} {0}        ; |174| 
    2527 000008e8           $C$DW$L$VLIB_mixtureOfGaussiansS16_d$51$E:
    2528                    ;** --------------------------------------------------------------------------*
    2529 000008e8           $C$DW$L$VLIB_mixtureOfGaussiansS16_d$52$B:
    2530                    ;          EXCLUSIVE CPU CYCLES: 14
TMS320C6x Assembler PC v7.4.2 Thu Mar 19 12:43:24 2015

Tools Copyright (c) 1996-2012 Texas Instruments Incorporated
package/lib/Regression/regress_d_c/./../packages/ti/vlib/src/VLIB_mixtureOfGaussiansS16/VLIB_mixtureOfGaussiansS16_d.se66 PAGE   47

    2531 000008e8 0200002a!            MVKL    .S2     $C$SL3+0,B4
    2532 000008ec 0200006a!            MVKH    .S2     $C$SL3+0,B4
    2533                    $C$DW$222       .dwtag  DW_TAG_TI_branch
    2534                            .dwattr $C$DW$222, DW_AT_low_pc(0x00)
    2535                            .dwattr $C$DW$222, DW_AT_name("printf")
    2536                            .dwattr $C$DW$222, DW_AT_TI_call
    2537                    
    2538 000008f0 10000013!            CALLP   .S2     printf,B3
    2539 000008f4 023c22f6  ||         STW     .D2T2   B4,*+SP(4)        ; |175| 
    2540                    
    2541                            .dwpsn  file "./../packages/ti/vlib/src/VLIB_mixtureOfGaussiansS16/VLIB_mixtureOfGaussiansS16_
    2542 000008f8           $C$RL40:   ; CALL OCCURS {printf} {0}        ; |175| 
    2543                            .dwpsn  file "./../packages/ti/vlib/src/VLIB_mixtureOfGaussiansS16/VLIB_mixtureOfGaussiansS16_
    2544 000008f8 022c82e6             LDW     .D2T2   *+B11(16),B4      ; |179| 
    2545 000008fc 00000000             NOP             4
    2546 00000900 00100ada             CMPGT   .L2     B4,0,B0           ; |179| 
    2547 00000904           $C$DW$L$VLIB_mixtureOfGaussiansS16_d$52$E:
    2548                    ;** --------------------------------------------------------------------------*
    2549 00000904           $C$L18:    
    2550                            .dwpsn  file "./../packages/ti/vlib/src/VLIB_mixtureOfGaussiansS16/VLIB_mixtureOfGaussiansS16_
    2551 00000904           $C$DW$L$VLIB_mixtureOfGaussiansS16_d$53$B:
    2552                    ;          EXCLUSIVE CPU CYCLES: 6
    2553                    ;**     -----------------------g34:
    2554                    ;** 179 -----------------------    v$1 = prm;
    2555                    ;** 179 -----------------------    if ( (*U$13).num_images <= 0 ) goto g60;
    2556                    
    2557 00000904 316fa121     [!B0]   BNOP    .S1     $C$L33,5          ; |179| 
    2558 00000908 07bfa2e5  ||         LDW     .D2T1   *+SP(116),A15     ; |179| 
    2559 0000090c 2680a35b  || [ B0]   ZERO    .L2     B13               ; |179| 
    2560 00000910 2700a358  || [ B0]   ZERO    .L1     A14               ; |179| 
    2561                    
    2562                            .dwpsn  file "./../packages/ti/vlib/src/VLIB_mixtureOfGaussiansS16/VLIB_mixtureOfGaussiansS16_
    2563                               ; BRANCHCC OCCURS {$C$L33}        ; |179| 
    2564 00000914           $C$DW$L$VLIB_mixtureOfGaussiansS16_d$53$E:
    2565                    ;** --------------------------------------------------------------------------*
    2566 00000914           $C$DW$L$VLIB_mixtureOfGaussiansS16_d$54$B:
    2567                    ;**     -----------------------    K$99 = K$11;
    2568                    ;**     -----------------------    K$109 = 42;
    2569                    ;**     -----------------------    K$92 = &cycles[0];
    2570                    ;** 170 -----------------------    counter = 0;
    2571                    ;** 179 -----------------------    i = 0;
    2572                    ;**     -----------------------    #pragma LOOP_FLAGS(5120u)
    2573 00000914           $C$DW$L$VLIB_mixtureOfGaussiansS16_d$54$E:
    2574                    ;** --------------------------------------------------------------------------*
    2575                    ;**   BEGIN LOOP $C$L19
    2576                    ;** --------------------------------------------------------------------------*
    2577 00000914           $C$L19:    
    2578                            .dwpsn  file "./../packages/ti/vlib/src/VLIB_mixtureOfGaussiansS16/VLIB_mixtureOfGaussiansS16_
    2579 00000914           $C$DW$L$VLIB_mixtureOfGaussiansS16_d$55$B:
    2580                    ;          EXCLUSIVE CPU CYCLES: 6
    2581                    ;**     -----------------------g36:
    2582                    ;** 137 -----------------------    act_kernel = 1;  // [16]
    2583                    ;** 140 -----------------------    VLIB_cache_inval();  // [16]
    2584                    ;** 143 -----------------------    initStack(getSP());  // [16]
    2585                    ;** 146 -----------------------    beg_count = _itoll(TSCH, TSCL);  // [16]
TMS320C6x Assembler PC v7.4.2 Thu Mar 19 12:43:24 2015

Tools Copyright (c) 1996-2012 Texas Instruments Incorporated
package/lib/Regression/regress_d_c/./../packages/ti/vlib/src/VLIB_mixtureOfGaussiansS16/VLIB_mixtureOfGaussiansS16_d.se66 PAGE   48

    2586                    ;** 183 -----------------------    C$5 = (*U$13).im_size;
    2587                    ;** 183 -----------------------    VLIB_mixtureOfGaussiansS16_cn(C$5*i+Im, wt, mu, var, compNum, updat
    2588                    ;** 153 -----------------------    v$2 = _itoll(TSCH, TSCL);  // [17]
    2589                    ;** 153 -----------------------    end_count = v$2;  // [17]
    2590                    ;** 156 -----------------------    C$4 = act_kernel;  // [17]
    2591                    ;** 156 -----------------------    *((C$4<<3)+K$92) = *((C$4<<3)+K$92)+(v$2-(beg_count+overhead));  //
    2592                    ;** 159 -----------------------    setStackDepth();  // [17]
    2593                    ;** 192 -----------------------    mode[0] = K$99;
    2594                    ;** 193 -----------------------    mode[1] = K$99;
    2595                    ;** 194 -----------------------    mode[2] = K$99;
    2596                    ;** 195 -----------------------    mode[*compNum] = K$109;
    2597                    ;** 197 -----------------------    if ( !LevelOfFeedback ) goto g38;
    2598                            .dwpsn  file ".\..\packages\ti\vlib\src\VLIB_mixtureOfGaussiansS16\..\common\VLIB_profile.h",l
    2599                    $C$DW$223       .dwtag  DW_TAG_TI_branch
    2600                            .dwattr $C$DW$223, DW_AT_low_pc(0x00)
    2601                            .dwattr $C$DW$223, DW_AT_name("VLIB_cache_inval")
    2602                            .dwattr $C$DW$223, DW_AT_TI_call
    2603 00000914 00000010!            CALL    .S1     VLIB_cache_inval  ; |140| 
    2604 00000918 05800028!            MVKL    .S1     act_kernel,A11
    2605 0000091c 05800068!            MVKH    .S1     act_kernel,A11
    2606                            .dwpsn  file ".\..\packages\ti\vlib\src\VLIB_mixtureOfGaussiansS16\..\common\VLIB_profile.h",l
    2607 00000920 0184a358             MVK     .L1     1,A3              ; |137| 
    2608 00000924 01ac0274             STW     .D1T1   A3,*A11           ; |137| 
    2609                            .dwpsn  file ".\..\packages\ti\vlib\src\VLIB_mixtureOfGaussiansS16\..\common\VLIB_profile.h",l
    2610 00000928 01830162             ADDKPC  .S2     $C$RL41,B3,0      ; |140| 
    2611                    $C$RL41:   ; CALL OCCURS {VLIB_cache_inval} {0}  ; |140| 
    2612                    $C$DW$L$VLIB_mixtureOfGaussiansS16_d$55$E:
    2613                    ;** --------------------------------------------------------------------------*
    2614                    $C$DW$L$VLIB_mixtureOfGaussiansS16_d$56$B:
    2615                    ;          EXCLUSIVE CPU CYCLES: 62
    2616                    $C$DW$224       .dwtag  DW_TAG_TI_branch
    2617                            .dwattr $C$DW$224, DW_AT_low_pc(0x00)
    2618                            .dwattr $C$DW$224, DW_AT_name("getSP")
    2619                            .dwattr $C$DW$224, DW_AT_TI_call
    2620 0000092c 10000012!            CALLP   .S2     getSP,B3
    2621                            .dwpsn  file ".\..\packages\ti\vlib\src\VLIB_mixtureOfGaussiansS16\..\common\VLIB_profile.h",l
    2622                    $C$RL42:   ; CALL OCCURS {getSP} {0}         ; |143| 
    2623                    $C$DW$225       .dwtag  DW_TAG_TI_branch
    2624                            .dwattr $C$DW$225, DW_AT_low_pc(0x00)
    2625                            .dwattr $C$DW$225, DW_AT_name("initStack")
    2626                            .dwattr $C$DW$225, DW_AT_TI_call
    2627 00000930 10000012!            CALLP   .S2     initStack,B3
    2628 00000934           $C$RL43:   ; CALL OCCURS {initStack} {0}     ; |143| 
    2629                            .dwpsn  file ".\..\packages\ti\vlib\src\VLIB_mixtureOfGaussiansS16\..\common\VLIB_profile.h",l
    2630 00000934 022803e2             MVC     .S2     TSCL,B4           ; |146| 
    2631 00000938 02ac03e2             MVC     .S2     TSCH,B5           ; |146| 
    2632                            .dwpsn  file "./../packages/ti/vlib/src/VLIB_mixtureOfGaussiansS16/VLIB_mixtureOfGaussiansS16_
    2633 0000093c 03ade2c6             LDH     .D2T2   *+B11(30),B7      ; |183| 
    2634 00000940 042d82c6             LDH     .D2T2   *+B11(24),B8      ; |183| 
    2635 00000944 052c62e6             LDW     .D2T2   *+B11(12),B10     ; |183| 
    2636 00000948 082da2c6             LDH     .D2T2   *+B11(26),B16     ; |183| 
    2637 0000094c 04adc2c6             LDH     .D2T2   *+B11(28),B9      ; |183| 
    2638 00000950 03bca2d6             STH     .D2T2   B7,*+SP(10)       ; |183| 
    2639 00000954 062d62c6             LDH     .D2T2   *+B11(22),B12     ; |183| 
    2640 00000958 062d42c4             LDH     .D2T1   *+B11(20),A12     ; |183| 
TMS320C6x Assembler PC v7.4.2 Thu Mar 19 12:43:24 2015

Tools Copyright (c) 1996-2012 Texas Instruments Incorporated
package/lib/Regression/regress_d_c/./../packages/ti/vlib/src/VLIB_mixtureOfGaussiansS16/VLIB_mixtureOfGaussiansS16_d.se66 PAGE   49

    2641 0000095c 05002aec             LDW     .D2T1   *+SP(168),A10     ; |183| 
    2642 00000960 040027ec             LDW     .D2T1   *+SP(156),A8      ; |183| 
    2643 00000964 030025ec             LDW     .D2T1   *+SP(148),A6      ; |183| 
    2644                    
    2645 00000968 038023ef             LDW     .D2T2   *+SP(140),B7      ; |183| 
    2646 0000096c 0300002a! ||         MVKL    .S2     beg_count,B6
    2647                    
    2648 00000970 043c42d7             STH     .D2T2   B8,*+SP(4)        ; |183| 
    2649 00000974 0429a803  ||         MPY32   .M2     B13,B10,B8        ; |183| 
    2650 00000978 0300006a! ||         MVKH    .S2     beg_count,B6
    2651                    
    2652                            .dwpsn  file ".\..\packages\ti\vlib\src\VLIB_mixtureOfGaussiansS16\..\common\VLIB_profile.h",l
    2653 0000097c 021803c6             STDW    .D2T2   B5:B4,*B6         ; |146| 
    2654                            .dwpsn  file "./../packages/ti/vlib/src/VLIB_mixtureOfGaussiansS16/VLIB_mixtureOfGaussiansS16_
    2655 00000980 083c62d6             STH     .D2T2   B16,*+SP(6)       ; |183| 
    2656 00000984 04bc82d6             STH     .D2T2   B9,*+SP(8)        ; |183| 
    2657                    
    2658 00000988 02a0e07b             ADD     .L2     B7,B8,B5          ; |183| 
    2659 0000098c 020024ee  ||         LDW     .D2T2   *+SP(144),B4      ; |183| 
    2660                    
    2661 00000990 030026ee             LDW     .D2T2   *+SP(152),B6      ; |183| 
    2662                    $C$DW$226       .dwtag  DW_TAG_TI_branch
    2663                            .dwattr $C$DW$226, DW_AT_low_pc(0x00)
    2664                            .dwattr $C$DW$226, DW_AT_name("VLIB_mixtureOfGaussiansS16_cn")
    2665                            .dwattr $C$DW$226, DW_AT_TI_call
    2666                    
    2667 00000994 10000013!            CALLP   .S2     VLIB_mixtureOfGaussiansS16_cn,B3
    2668 00000998 040028ef  ||         LDW     .D2T2   *+SP(160),B8      ; |183| 
    2669 0000099c 02141fd8  ||         MV      .L1X    B5,A4             ; |183| 
    2670                    
    2671 000009a0           $C$RL44:   ; CALL OCCURS {VLIB_mixtureOfGaussiansS16_cn} {0}  ; |183| 
    2672                            .dwpsn  file ".\..\packages\ti\vlib\src\VLIB_mixtureOfGaussiansS16\..\common\VLIB_profile.h",l
    2673 000009a0 082803e2             MVC     .S2     TSCL,B16          ; |153| 
    2674 000009a4 08ac03e2             MVC     .S2     TSCH,B17          ; |153| 
    2675 000009a8 01800028!            MVKL    .S1     beg_count,A3
    2676                    
    2677 000009ac 01800069!            MVKH    .S1     beg_count,A3
    2678 000009b0 0280002a! ||         MVKL    .S2     overhead,B5
    2679                    
    2680 000009b4 0280006a!            MVKH    .S2     overhead,B5
    2681                    
    2682 000009b8     91c7             MV      .L2X    A3,B4
    2683 000009c0 042c0264  ||         LDW     .D1T1   *A11,A8           ; |156| 
    2684 000009ba     10ed  ||         LDDW    .D2T2   *B5,B7:B6         ; |156| 
    2685                    
    2686                            .dwpsn  file ".\..\packages\ti\vlib\src\VLIB_mixtureOfGaussiansS16\..\common\VLIB_profile.h",l
    2687 000009c4 021003e6             LDDW    .D2T2   *B4,B5:B4         ; |156| 
    2688 000009c8 0f800028!            MVKL    .S1     cycles,A31
    2689 000009cc 0f800068!            MVKH    .S1     cycles,A31
    2690 000009d0 0f000028!            MVKL    .S1     end_count,A30
    2691 000009d4 037d0b64             LDDW    .D1T1   *+A31[A8],A7:A6   ; |156| 
    2692 000009d8 0410c57a             ADDU    .L2     B6,B4,B9:B8       ; |156| 
    2693 000009dc 021d207a             ADD     .L2     B9,B7,B4          ; |156| 
    2694                    
    2695 000009e4     82cb             ADD     .S2     B4,B5,B4          ; |156| 
TMS320C6x Assembler PC v7.4.2 Thu Mar 19 12:43:24 2015

Tools Copyright (c) 1996-2012 Texas Instruments Incorporated
package/lib/Regression/regress_d_c/./../packages/ti/vlib/src/VLIB_mixtureOfGaussiansS16/VLIB_mixtureOfGaussiansS16_d.se66 PAGE   50

    2696 000009e0 032205fb  ||         SUBU    .L2     B16,B8,B7:B6      ; |156| 
    2697                    
    2698 000009e8 021220fa             SUB     .L2     B17,B4,B4         ; |156| 
    2699 000009e6     abe3  ||         EXT     .S2     B7,24,24,B5       ; |156| 
    2700                    
    2701 000009f4     82c1             ADD     .L2     B4,B5,B4          ; |156| 
    2702 000009f0 0218d579  ||         ADDU    .L1X    A6,B6,A5:A4       ; |156| 
    2703 000009ec 0f000069! ||         MVKH    .S1     end_count,A30
    2704                    
    2705 000009f6     a3d0             ADD     .L1     A5,A7,A5          ; |156| 
    2706 000009f8 01800028! ||         MVKL    .S1     cycles,A3
    2707                    
    2708 00000a00 0290b079             ADD     .L1X    A5,B4,A5          ; |156| 
    2709 00000a04 01800069! ||         MVKH    .S1     cycles,A3
    2710 00000a08 08780346  ||         STDW    .D1T2   B17:B16,*A30      ; |153| 
    2711                    
    2712                    $C$DW$227       .dwtag  DW_TAG_TI_branch
    2713                            .dwattr $C$DW$227, DW_AT_low_pc(0x00)
    2714                            .dwattr $C$DW$227, DW_AT_name("setStackDepth")
    2715                            .dwattr $C$DW$227, DW_AT_TI_call
    2716                    
    2717 00000a0c 10000013!            CALLP   .S2     setStackDepth,B3
    2718 00000a10 020d0b44  ||         STDW    .D1T1   A5:A4,*+A3[A8]    ; |156| 
    2719                    
    2720                            .dwpsn  file ".\..\packages\ti\vlib\src\VLIB_mixtureOfGaussiansS16\..\common\VLIB_profile.h",l
    2721 00000a14           $C$RL45:   ; CALL OCCURS {setStackDepth} {0}  ; |159| 
    2722 00000a14           $C$DW$L$VLIB_mixtureOfGaussiansS16_d$56$E:
    2723                    ;** --------------------------------------------------------------------------*
    2724 00000a14           $C$DW$L$VLIB_mixtureOfGaussiansS16_d$57$B:
    2725                    ;          EXCLUSIVE CPU CYCLES: 23
    2726                            .dwpsn  file "./../packages/ti/vlib/src/VLIB_mixtureOfGaussiansS16/VLIB_mixtureOfGaussiansS16_
    2727 00000a14 0f8027ec             LDW     .D2T1   *+SP(156),A31     ; |194| 
    2728 00000a18 01801028             MVK     .S1     0x20,A3
    2729                            .dwpsn  file "./../packages/ti/vlib/src/VLIB_mixtureOfGaussiansS16/VLIB_mixtureOfGaussiansS16_
    2730 00000a1c 018078bc             STB     .D2T1   A3,*+SP(120)      ; |192| 
    2731                            .dwpsn  file "./../packages/ti/vlib/src/VLIB_mixtureOfGaussiansS16/VLIB_mixtureOfGaussiansS16_
    2732 00000a20 018079bc             STB     .D2T1   A3,*+SP(121)      ; |193| 
    2733                            .dwpsn  file "./../packages/ti/vlib/src/VLIB_mixtureOfGaussiansS16/VLIB_mixtureOfGaussiansS16_
    2734 00000a24 01807abc             STB     .D2T1   A3,*+SP(122)      ; |194| 
    2735                            .dwpsn  file "./../packages/ti/vlib/src/VLIB_mixtureOfGaussiansS16/VLIB_mixtureOfGaussiansS16_
    2736 00000a28 01fc0214             LDBU    .D1T1   *A31,A3           ; |195| 
    2737 00000a2c 02803c28             MVK     .S1     120,A5            ; |195| 
    2738 00000a30 0f001528             MVK     .S1     0x2a,A30
    2739 00000a34 00002000             NOP             2
    2740 00000a38 023c7078             ADD     .L1X    A3,SP,A4          ; |195| 
    2741 00000a3c 0f148a34             STB     .D1T1   A30,*+A5[A4]      ; |195| 
    2742 00000a40 000021ec             LDW     .D2T1   *+SP(132),A0      ; |195| 
    2743 00000a44 018025ec             LDW     .D2T1   *+SP(148),A3
    2744 00000a48 00004000             NOP             3
    2745                    
    2746 00000a4c d02c42e7     [!A0]   LDW     .D2T2   *+B11(8),B0       ; |205| 
    2747 00000a50 d0003890  || [!A0]   B       .S1     $C$L20            ; |197| 
    2748                    
    2749                            .dwpsn  file "./../packages/ti/vlib/src/VLIB_mixtureOfGaussiansS16/VLIB_mixtureOfGaussiansS16_
    2750                    $C$DW$228       .dwtag  DW_TAG_TI_branch
TMS320C6x Assembler PC v7.4.2 Thu Mar 19 12:43:24 2015

Tools Copyright (c) 1996-2012 Texas Instruments Incorporated
package/lib/Regression/regress_d_c/./../packages/ti/vlib/src/VLIB_mixtureOfGaussiansS16/VLIB_mixtureOfGaussiansS16_d.se66 PAGE   51

    2751                            .dwattr $C$DW$228, DW_AT_low_pc(0x00)
    2752                            .dwattr $C$DW$228, DW_AT_name("VLIB_getFractional16")
    2753                            .dwattr $C$DW$228, DW_AT_TI_call
    2754 00000a54 c0000010!    [ A0]   CALL    .S1     VLIB_getFractional16 ; |198| 
    2755 00000a58 c20c0244     [ A0]   LDH     .D1T1   *A3,A4            ; |198| 
    2756                            .dwpsn  file "./../packages/ti/vlib/src/VLIB_mixtureOfGaussiansS16/VLIB_mixtureOfGaussiansS16_
    2757 00000a5c c004a35a     [ A0]   MVK     .L2     0x1,B0            ; |205| nullify predicate
    2758 00000a60 d7bfa2e4     [!A0]   LDW     .D2T1   *+SP(116),A15     ; |205| 
    2759 00000a64 30008890     [!B0]   B       .S1     $C$L32            ; |205| 
    2760                            .dwpsn  file "./../packages/ti/vlib/src/VLIB_mixtureOfGaussiansS16/VLIB_mixtureOfGaussiansS16_
    2761                               ; BRANCHCC OCCURS {$C$L20}        ; |197| 
    2762 00000a68           $C$DW$L$VLIB_mixtureOfGaussiansS16_d$57$E:
    2763                    ;** --------------------------------------------------------------------------*
    2764 00000a68           $C$DW$L$VLIB_mixtureOfGaussiansS16_d$58$B:
    2765                    ;          EXCLUSIVE CPU CYCLES: 1
    2766                    ;** 198 -----------------------    printf((const char *)"%4d  %d  %c %8.4f %8.4f %8.6f   %c %8.4f %8.4
    2767                    
    2768 00000a68     2726             MVK     .L1     0x1,A6            ; |198| 
    2769 00000a6a     e627  ||         MVK     .L2     0x7,B4            ; |198| 
    2770 00000a6c 01840162  ||         ADDKPC  .S2     $C$RL46,B3,0      ; |198| 
    2771                    
    2772                            .dwpsn  file "./../packages/ti/vlib/src/VLIB_mixtureOfGaussiansS16/VLIB_mixtureOfGaussiansS16_
    2773 00000a70           $C$RL46:   ; CALL OCCURS {VLIB_getFractional16} {0}  ; |198| 
    2774 00000a70           $C$DW$L$VLIB_mixtureOfGaussiansS16_d$58$E:
    2775                    ;** --------------------------------------------------------------------------*
    2776 00000a70           $C$DW$L$VLIB_mixtureOfGaussiansS16_d$59$B:
    2777                    ;          EXCLUSIVE CPU CYCLES: 135
    2778 00000a70 020026ee             LDW     .D2T2   *+SP(152),B4      ; |198| 
    2779 00000a74     4646             MV      .L1     A4,A10            ; |198| 
    2780 00000a76     2726             MVK     .L1     0x1,A6            ; |198| 
    2781 00000a78     2c6e             NOP             2
    2782                    $C$DW$229       .dwtag  DW_TAG_TI_branch
    2783                            .dwattr $C$DW$229, DW_AT_low_pc(0x00)
    2784                            .dwattr $C$DW$229, DW_AT_name("VLIB_getFractional16")
    2785                            .dwattr $C$DW$229, DW_AT_TI_call
    2786                    
    2787 00000a84 10000012!            CALLP   .S2     VLIB_getFractional16,B3
    2788 00000a80 021002c5  ||         LDH     .D2T1   *B4,A4            ; |198| 
    2789 00000a7a     6627  ||         MVK     .L2     0x3,B4            ; |198| 
    2790                    
    2791 00000a88           $C$RL47:   ; CALL OCCURS {VLIB_getFractional16} {0}  ; |198| 
    2792 00000a88 020024ee             LDW     .D2T2   *+SP(144),B4      ; |198| 
    2793 00000a8c     5647             MV      .L2X    A4,B10            ; |198| 
    2794 00000a8e     2726             MVK     .L1     0x1,A6            ; |198| 
    2795 00000a90     2c6e             NOP             2
    2796                    $C$DW$230       .dwtag  DW_TAG_TI_branch
    2797                            .dwattr $C$DW$230, DW_AT_low_pc(0x00)
    2798                            .dwattr $C$DW$230, DW_AT_name("VLIB_getFractional16")
    2799                            .dwattr $C$DW$230, DW_AT_TI_call
    2800                    
    2801 00000a98 10000012!            CALLP   .S2     VLIB_getFractional16,B3
    2802 00000a94 021002c5  ||         LDH     .D2T1   *B4,A4            ; |198| 
    2803 00000a92     ee27  ||         MVK     .L2     0xf,B4            ; |198| 
    2804                    
    2805 00000aa0           $C$RL48:   ; CALL OCCURS {VLIB_getFractional16} {0}  ; |198| 
TMS320C6x Assembler PC v7.4.2 Thu Mar 19 12:43:24 2015

Tools Copyright (c) 1996-2012 Texas Instruments Incorporated
package/lib/Regression/regress_d_c/./../packages/ti/vlib/src/VLIB_mixtureOfGaussiansS16/VLIB_mixtureOfGaussiansS16_d.se66 PAGE   52

    2806 00000aa0 01ac62e4             LDW     .D2T1   *+B11(12),A3      ; |198| 
    2807                    
    2808 00000aa8     6646             MV      .L1     A4,A11            ; |198| 
    2809 00000aa4 020025ed  ||         LDW     .D2T1   *+SP(148),A4
    2810                    
    2811 00000aaa     e627             MVK     .L2     0x7,B4            ; |198| 
    2812 00000aac     2726             MVK     .L1     0x1,A6            ; |198| 
    2813 00000aae     2c6e             NOP             2
    2814                    $C$DW$231       .dwtag  DW_TAG_TI_branch
    2815                            .dwattr $C$DW$231, DW_AT_low_pc(0x00)
    2816                            .dwattr $C$DW$231, DW_AT_name("VLIB_getFractional16")
    2817                            .dwattr $C$DW$231, DW_AT_TI_call
    2818                    
    2819 00000ab0 10000013!            CALLP   .S2     VLIB_getFractional16,B3
    2820 00000ab4 02106a44  ||         LDH     .D1T1   *+A4[A3],A4       ; |198| 
    2821                    
    2822 00000ab8           $C$RL49:   ; CALL OCCURS {VLIB_getFractional16} {0}  ; |198| 
    2823 00000ab8 022c62e6             LDW     .D2T2   *+B11(12),B4      ; |198| 
    2824 00000ac0 028026ee             LDW     .D2T2   *+SP(152),B5
    2825 00000ac4     8646             MV      .L1     A4,A12            ; |198| 
    2826 00000ac6     2726             MVK     .L1     0x1,A6            ; |198| 
    2827 00000ac8     2c6e             NOP             2
    2828                    $C$DW$232       .dwtag  DW_TAG_TI_branch
    2829                            .dwattr $C$DW$232, DW_AT_low_pc(0x00)
    2830                            .dwattr $C$DW$232, DW_AT_name("VLIB_getFractional16")
    2831                            .dwattr $C$DW$232, DW_AT_TI_call
    2832                    
    2833 00000ad0 10000012!            CALLP   .S2     VLIB_getFractional16,B3
    2834 00000acc 02148ac5  ||         LDH     .D2T1   *+B5[B4],A4       ; |198| 
    2835 00000aca     6627  ||         MVK     .L2     0x3,B4            ; |198| 
    2836                    
    2837 00000ad4           $C$RL50:   ; CALL OCCURS {VLIB_getFractional16} {0}  ; |198| 
    2838 00000ad4 02ac62e6             LDW     .D2T2   *+B11(12),B5      ; |198| 
    2839 00000ad8 020024ee             LDW     .D2T2   *+SP(144),B4
    2840 00000ae0     9647             MV      .L2X    A4,B12            ; |198| 
    2841 00000ae2     2726             MVK     .L1     0x1,A6            ; |198| 
    2842 00000ae4     2c6e             NOP             2
    2843                    $C$DW$233       .dwtag  DW_TAG_TI_branch
    2844                            .dwattr $C$DW$233, DW_AT_low_pc(0x00)
    2845                            .dwattr $C$DW$233, DW_AT_name("VLIB_getFractional16")
    2846                            .dwattr $C$DW$233, DW_AT_TI_call
    2847                    
    2848 00000aec 10000012!            CALLP   .S2     VLIB_getFractional16,B3
    2849 00000ae8 0210aac5  ||         LDH     .D2T1   *+B4[B5],A4       ; |198| 
    2850 00000ae6     ee27  ||         MVK     .L2     0xf,B4            ; |198| 
    2851                    
    2852 00000af0           $C$RL51:   ; CALL OCCURS {VLIB_getFractional16} {0}  ; |198| 
    2853 00000af0 02002cfc             STW     .D2T1   A4,*+SP(176)      ; |198| 
    2854 00000af4 022c62e4             LDW     .D2T1   *+B11(12),A4      ; |198| 
    2855 00000af8 018025ec             LDW     .D2T1   *+SP(148),A3
    2856 00000b00     e627             MVK     .L2     0x7,B4            ; |198| 
    2857 00000b02     2726             MVK     .L1     0x1,A6            ; |198| 
    2858 00000b04 00002000             NOP             2
    2859 00000b08 018c9c40             ADDAW   .D1     A3,A4,A3          ; |198| 
    2860                    $C$DW$234       .dwtag  DW_TAG_TI_branch
TMS320C6x Assembler PC v7.4.2 Thu Mar 19 12:43:24 2015

Tools Copyright (c) 1996-2012 Texas Instruments Incorporated
package/lib/Regression/regress_d_c/./../packages/ti/vlib/src/VLIB_mixtureOfGaussiansS16/VLIB_mixtureOfGaussiansS16_d.se66 PAGE   53

    2861                            .dwattr $C$DW$234, DW_AT_low_pc(0x00)
    2862                            .dwattr $C$DW$234, DW_AT_name("VLIB_getFractional16")
    2863                            .dwattr $C$DW$234, DW_AT_TI_call
    2864                    
    2865 00000b0c 10000013!            CALLP   .S2     VLIB_getFractional16,B3
    2866 00000b10 020c0244  ||         LDH     .D1T1   *A3,A4            ; |198| 
    2867                    
    2868 00000b14           $C$RL52:   ; CALL OCCURS {VLIB_getFractional16} {0}  ; |198| 
    2869 00000b14 020026ee             LDW     .D2T2   *+SP(152),B4
    2870 00000b18 02ac62e6             LDW     .D2T2   *+B11(12),B5      ; |198| 
    2871 00000b20 02002bfc             STW     .D2T1   A4,*+SP(172)      ; |198| 
    2872 00000b24     2726             MVK     .L1     0x1,A6            ; |198| 
    2873 00000b26     2c6e             NOP             2
    2874 00000b28 0210bc42             ADDAW   .D2     B4,B5,B4          ; |198| 
    2875                    $C$DW$235       .dwtag  DW_TAG_TI_branch
    2876                            .dwattr $C$DW$235, DW_AT_low_pc(0x00)
    2877                            .dwattr $C$DW$235, DW_AT_name("VLIB_getFractional16")
    2878                            .dwattr $C$DW$235, DW_AT_TI_call
    2879                    
    2880 00000b2c 10000013!            CALLP   .S2     VLIB_getFractional16,B3
    2881 00000b30     024d  ||         LDH     .D2T1   *B4,A4            ; |198| 
    2882 00000b32     6627  ||         MVK     .L2     0x3,B4            ; |198| 
    2883                    
    2884 00000b34           $C$RL53:   ; CALL OCCURS {VLIB_getFractional16} {0}  ; |198| 
    2885 00000b34 02ac62e6             LDW     .D2T2   *+B11(12),B5      ; |198| 
    2886 00000b38 020024ee             LDW     .D2T2   *+SP(144),B4
    2887 00000b40     e646             MV      .L1     A4,A15            ; |198| 
    2888 00000b42     2726             MVK     .L1     0x1,A6            ; |198| 
    2889 00000b44 00002000             NOP             2
    2890 00000b48 0210bc42             ADDAW   .D2     B4,B5,B4          ; |198| 
    2891                    $C$DW$236       .dwtag  DW_TAG_TI_branch
    2892                            .dwattr $C$DW$236, DW_AT_low_pc(0x00)
    2893                            .dwattr $C$DW$236, DW_AT_name("VLIB_getFractional16")
    2894                            .dwattr $C$DW$236, DW_AT_TI_call
    2895                    
    2896 00000b4c 10000013!            CALLP   .S2     VLIB_getFractional16,B3
    2897 00000b50     024d  ||         LDH     .D2T1   *B4,A4            ; |198| 
    2898 00000b52     ee27  ||         MVK     .L2     0xf,B4            ; |198| 
    2899                    
    2900 00000b54           $C$RL54:   ; CALL OCCURS {VLIB_getFractional16} {0}  ; |198| 
    2901 00000b54 02802aec             LDW     .D2T1   *+SP(168),A5      ; |198| 
    2902 00000b58 022c62e6             LDW     .D2T2   *+B11(12),B4      ; |198| 
    2903 00000b60 01800028!            MVKL    .S1     $C$SL4+0,A3
    2904 00000b64 01800068!            MVKH    .S1     $C$SL4+0,A3
    2905 00000b68     ac35             STW     .D2T1   A3,*+SP(4)        ; |198| 
    2906                    
    2907 00000b6a     00dc             LDW     .D1T1   *A5,A5            ; |198| 
    2908 00000b6c 028023ee  ||         LDW     .D2T2   *+SP(140),B5      ; |198| 
    2909                    
    2910 00000b70 0211a803             MPY32   .M2     B13,B4,B4         ; |198| 
    2911 00000b74 048078ae  ||         LDB     .D2T2   *+SP(120),B9      ; |198| 
    2912                    
    2913 00000b78 040079ae             LDB     .D2T2   *+SP(121),B8      ; |198| 
    2914                    
    2915 00000b80 08807aaf             LDB     .D2T2   *+SP(122),B17     ; |198| 
TMS320C6x Assembler PC v7.4.2 Thu Mar 19 12:43:24 2015

Tools Copyright (c) 1996-2012 Texas Instruments Incorporated
package/lib/Regression/regress_d_c/./../packages/ti/vlib/src/VLIB_mixtureOfGaussiansS16/VLIB_mixtureOfGaussiansS16_d.se66 PAGE   54

