TMS320C6x Assembler PC v7.4.2 Thu Mar 19 12:40:19 2015

Tools Copyright (c) 1996-2012 Texas Instruments Incorporated
package/lib/Regression/regress_d_c/./../packages/ti/vlib/src/VLIB_convertUYVYint_to_HSLpl/VLIB_convertUYVYint_to_HSLpl_d.se66 PAGE    1

       1                    ;******************************************************************************
       2                    ;* TMS320C6x C/C++ Codegen                                          PC v7.4.2 *
       3                    ;* Date/Time created: Thu Mar 19 12:40:18 2015                                *
       4                    ;******************************************************************************
       5                            .compiler_opts --abi=eabi --c64p_l1d_workaround=off --endian=little --hll_source=on --long_pre
       6                    
       7                    ;******************************************************************************
       8                    ;* GLOBAL FILE PARAMETERS                                                     *
       9                    ;*                                                                            *
      10                    ;*   Architecture      : TMS320C66xx                                          *
      11                    ;*   Optimization      : Enabled at level 3                                   *
      12                    ;*   Optimizing for    : Speed                                                *
      13                    ;*                       Based on options: -o3, no -ms                        *
      14                    ;*   Endian            : Little                                               *
      15                    ;*   Interrupt Thrshld : 10000                                                *
      16                    ;*   Data Access Model : Far                                                  *
      17                    ;*   Pipelining        : Enabled                                              *
      18                    ;*   Speculate Loads   : Enabled with threshold = 0                           *
      19                    ;*   Memory Aliases    : Presume are aliases (pessimistic)                    *
      20                    ;*   Debug Info        : DWARF Debug w/Optimization                           *
      21                    ;*                                                                            *
      22                    ;******************************************************************************
      23                    
      24                            .asg    A15, FP
      25                            .asg    B14, DP
      26                            .asg    B15, SP
      27                            .global $bss
      28                    
      29                    
      30                    $C$DW$CU        .dwtag  DW_TAG_compile_unit
      31                            .dwattr $C$DW$CU, DW_AT_name("./../packages/ti/vlib/src/VLIB_convertUYVYint_to_HSLpl/VLIB_conv
      32                            .dwattr $C$DW$CU, DW_AT_producer("TI TMS320C6x C/C++ Codegen PC v7.4.2 Copyright (c) 1996-2012
      33                            .dwattr $C$DW$CU, DW_AT_TI_version(0x01)
      34                            .dwattr $C$DW$CU, DW_AT_comp_dir("c:\nightlybuilds\vlib\ti\vlib\vlib\examples")
      35                    
      36                    $C$DW$1 .dwtag  DW_TAG_subprogram, DW_AT_name("_itoll")
      37                            .dwattr $C$DW$1, DW_AT_TI_symbol_name("_itoll")
      38                            .dwattr $C$DW$1, DW_AT_type(*$C$DW$T$14)
      39                            .dwattr $C$DW$1, DW_AT_declaration
      40                            .dwattr $C$DW$1, DW_AT_external
      41                            .dwattr $C$DW$1, DW_AT_decl_file("C:/VLIB_Tools/CCSV5_4_0/ccsv5/tools/compiler/C6000/include/c
      42                            .dwattr $C$DW$1, DW_AT_decl_line(0xdf)
      43                            .dwattr $C$DW$1, DW_AT_decl_column(0x0b)
      44                    $C$DW$2 .dwtag  DW_TAG_formal_parameter
      45                            .dwattr $C$DW$2, DW_AT_type(*$C$DW$T$11)
      46                    $C$DW$3 .dwtag  DW_TAG_formal_parameter
      47                            .dwattr $C$DW$3, DW_AT_type(*$C$DW$T$11)
      48                            .dwendtag $C$DW$1
      49                    
      50                    
      51                    $C$DW$4 .dwtag  DW_TAG_subprogram, DW_AT_name("printf")
      52                            .dwattr $C$DW$4, DW_AT_TI_symbol_name("printf")
      53                            .dwattr $C$DW$4, DW_AT_type(*$C$DW$T$10)
      54                            .dwattr $C$DW$4, DW_AT_declaration
      55                            .dwattr $C$DW$4, DW_AT_external
TMS320C6x Assembler PC v7.4.2 Thu Mar 19 12:40:19 2015

Tools Copyright (c) 1996-2012 Texas Instruments Incorporated
package/lib/Regression/regress_d_c/./../packages/ti/vlib/src/VLIB_convertUYVYint_to_HSLpl/VLIB_convertUYVYint_to_HSLpl_d.se66 PAGE    2

      56                            .dwattr $C$DW$4, DW_AT_decl_file("C:/VLIB_Tools/CCSV5_4_0/ccsv5/tools/compiler/C6000/include/s
      57                            .dwattr $C$DW$4, DW_AT_decl_line(0xb8)
      58                            .dwattr $C$DW$4, DW_AT_decl_column(0x19)
      59                    $C$DW$5 .dwtag  DW_TAG_formal_parameter
      60                            .dwattr $C$DW$5, DW_AT_type(*$C$DW$T$110)
      61                    $C$DW$6 .dwtag  DW_TAG_unspecified_parameters
      62                            .dwendtag $C$DW$4
      63                    
      64                    
      65                    $C$DW$7 .dwtag  DW_TAG_subprogram, DW_AT_name("sprintf")
      66                            .dwattr $C$DW$7, DW_AT_TI_symbol_name("sprintf")
      67                            .dwattr $C$DW$7, DW_AT_type(*$C$DW$T$10)
      68                            .dwattr $C$DW$7, DW_AT_declaration
      69                            .dwattr $C$DW$7, DW_AT_external
      70                            .dwattr $C$DW$7, DW_AT_decl_file("C:/VLIB_Tools/CCSV5_4_0/ccsv5/tools/compiler/C6000/include/s
      71                            .dwattr $C$DW$7, DW_AT_decl_line(0xbc)
      72                            .dwattr $C$DW$7, DW_AT_decl_column(0x19)
      73                    $C$DW$8 .dwtag  DW_TAG_formal_parameter
      74                            .dwattr $C$DW$8, DW_AT_type(*$C$DW$T$63)
      75                    $C$DW$9 .dwtag  DW_TAG_formal_parameter
      76                            .dwattr $C$DW$9, DW_AT_type(*$C$DW$T$110)
      77                    $C$DW$10        .dwtag  DW_TAG_unspecified_parameters
      78                            .dwendtag $C$DW$7
      79                    
      80                    
      81                    $C$DW$11        .dwtag  DW_TAG_subprogram, DW_AT_name("malloc")
      82                            .dwattr $C$DW$11, DW_AT_TI_symbol_name("malloc")
      83                            .dwattr $C$DW$11, DW_AT_type(*$C$DW$T$3)
      84                            .dwattr $C$DW$11, DW_AT_declaration
      85                            .dwattr $C$DW$11, DW_AT_external
      86                            .dwattr $C$DW$11, DW_AT_decl_file("C:/VLIB_Tools/CCSV5_4_0/ccsv5/tools/compiler/C6000/include/
      87                            .dwattr $C$DW$11, DW_AT_decl_line(0x82)
      88                            .dwattr $C$DW$11, DW_AT_decl_column(0x19)
      89                    $C$DW$12        .dwtag  DW_TAG_formal_parameter
      90                            .dwattr $C$DW$12, DW_AT_type(*$C$DW$T$56)
      91                            .dwendtag $C$DW$11
      92                    
      93                    
      94                    $C$DW$13        .dwtag  DW_TAG_subprogram, DW_AT_name("free")
      95                            .dwattr $C$DW$13, DW_AT_TI_symbol_name("free")
      96                            .dwattr $C$DW$13, DW_AT_declaration
      97                            .dwattr $C$DW$13, DW_AT_external
      98                            .dwattr $C$DW$13, DW_AT_decl_file("C:/VLIB_Tools/CCSV5_4_0/ccsv5/tools/compiler/C6000/include/
      99                            .dwattr $C$DW$13, DW_AT_decl_line(0x86)
     100                            .dwattr $C$DW$13, DW_AT_decl_column(0x19)
     101                    $C$DW$14        .dwtag  DW_TAG_formal_parameter
     102                            .dwattr $C$DW$14, DW_AT_type(*$C$DW$T$3)
     103                            .dwendtag $C$DW$13
     104                    
     105                    
     106                    $C$DW$15        .dwtag  DW_TAG_subprogram, DW_AT_name("VLIB_cache_inval")
     107                            .dwattr $C$DW$15, DW_AT_TI_symbol_name("VLIB_cache_inval")
     108                            .dwattr $C$DW$15, DW_AT_type(*$C$DW$T$10)
     109                            .dwattr $C$DW$15, DW_AT_declaration
     110                            .dwattr $C$DW$15, DW_AT_external
TMS320C6x Assembler PC v7.4.2 Thu Mar 19 12:40:19 2015

Tools Copyright (c) 1996-2012 Texas Instruments Incorporated
package/lib/Regression/regress_d_c/./../packages/ti/vlib/src/VLIB_convertUYVYint_to_HSLpl/VLIB_convertUYVYint_to_HSLpl_d.se66 PAGE    3

     111                            .dwattr $C$DW$15, DW_AT_decl_file(".\..\packages\ti\vlib\src\VLIB_convertUYVYint_to_HSLpl\..\c
     112                            .dwattr $C$DW$15, DW_AT_decl_line(0x58)
     113                            .dwattr $C$DW$15, DW_AT_decl_column(0x05)
     114                    
     115                    $C$DW$16        .dwtag  DW_TAG_subprogram, DW_AT_name("VLIB_profile_init")
     116                            .dwattr $C$DW$16, DW_AT_TI_symbol_name("VLIB_profile_init")
     117                            .dwattr $C$DW$16, DW_AT_declaration
     118                            .dwattr $C$DW$16, DW_AT_external
     119                            .dwattr $C$DW$16, DW_AT_decl_file(".\..\packages\ti\vlib\src\VLIB_convertUYVYint_to_HSLpl\..\c
     120                            .dwattr $C$DW$16, DW_AT_decl_line(0x7b)
     121                            .dwattr $C$DW$16, DW_AT_decl_column(0x06)
     122                    $C$DW$17        .dwtag  DW_TAG_formal_parameter
     123                            .dwattr $C$DW$17, DW_AT_type(*$C$DW$T$10)
     124                    $C$DW$18        .dwtag  DW_TAG_formal_parameter
     125                            .dwattr $C$DW$18, DW_AT_type(*$C$DW$T$63)
     126                            .dwendtag $C$DW$16
     127                    
     128                    
     129                    $C$DW$19        .dwtag  DW_TAG_subprogram, DW_AT_name("VLIB_formula_add_test")
     130                            .dwattr $C$DW$19, DW_AT_TI_symbol_name("VLIB_formula_add_test")
     131                            .dwattr $C$DW$19, DW_AT_declaration
     132                            .dwattr $C$DW$19, DW_AT_external
     133                            .dwattr $C$DW$19, DW_AT_decl_file(".\..\packages\ti\vlib\src\VLIB_convertUYVYint_to_HSLpl\..\c
     134                            .dwattr $C$DW$19, DW_AT_decl_line(0x7d)
     135                            .dwattr $C$DW$19, DW_AT_decl_column(0x06)
     136                    $C$DW$20        .dwtag  DW_TAG_formal_parameter
     137                            .dwattr $C$DW$20, DW_AT_type(*$C$DW$T$10)
     138                    $C$DW$21        .dwtag  DW_TAG_formal_parameter
     139                            .dwattr $C$DW$21, DW_AT_type(*$C$DW$T$10)
     140                    $C$DW$22        .dwtag  DW_TAG_formal_parameter
     141                            .dwattr $C$DW$22, DW_AT_type(*$C$DW$T$10)
     142                    $C$DW$23        .dwtag  DW_TAG_formal_parameter
     143                            .dwattr $C$DW$23, DW_AT_type(*$C$DW$T$10)
     144                    $C$DW$24        .dwtag  DW_TAG_formal_parameter
     145                            .dwattr $C$DW$24, DW_AT_type(*$C$DW$T$63)
     146                    $C$DW$25        .dwtag  DW_TAG_formal_parameter
     147                            .dwattr $C$DW$25, DW_AT_type(*$C$DW$T$10)
     148                            .dwendtag $C$DW$19
     149                    
     150                    
     151                    $C$DW$26        .dwtag  DW_TAG_subprogram, DW_AT_name("VLIB_skip_test")
     152                            .dwattr $C$DW$26, DW_AT_TI_symbol_name("VLIB_skip_test")
     153                            .dwattr $C$DW$26, DW_AT_declaration
     154                            .dwattr $C$DW$26, DW_AT_external
     155                            .dwattr $C$DW$26, DW_AT_decl_file(".\..\packages\ti\vlib\src\VLIB_convertUYVYint_to_HSLpl\..\c
     156                            .dwattr $C$DW$26, DW_AT_decl_line(0x7e)
     157                            .dwattr $C$DW$26, DW_AT_decl_column(0x06)
     158                    $C$DW$27        .dwtag  DW_TAG_formal_parameter
     159                            .dwattr $C$DW$27, DW_AT_type(*$C$DW$T$63)
     160                            .dwendtag $C$DW$26
     161                    
     162                    
     163                    $C$DW$28        .dwtag  DW_TAG_subprogram, DW_AT_name("VLIB_profile_cycle_report")
     164                            .dwattr $C$DW$28, DW_AT_TI_symbol_name("VLIB_profile_cycle_report")
     165                            .dwattr $C$DW$28, DW_AT_declaration
TMS320C6x Assembler PC v7.4.2 Thu Mar 19 12:40:19 2015

Tools Copyright (c) 1996-2012 Texas Instruments Incorporated
package/lib/Regression/regress_d_c/./../packages/ti/vlib/src/VLIB_convertUYVYint_to_HSLpl/VLIB_convertUYVYint_to_HSLpl_d.se66 PAGE    4

     166                            .dwattr $C$DW$28, DW_AT_external
     167                            .dwattr $C$DW$28, DW_AT_decl_file(".\..\packages\ti\vlib\src\VLIB_convertUYVYint_to_HSLpl\..\c
     168                            .dwattr $C$DW$28, DW_AT_decl_line(0x7f)
     169                            .dwattr $C$DW$28, DW_AT_decl_column(0x06)
     170                    $C$DW$29        .dwtag  DW_TAG_formal_parameter
     171                            .dwattr $C$DW$29, DW_AT_type(*$C$DW$T$10)
     172                    $C$DW$30        .dwtag  DW_TAG_formal_parameter
     173                            .dwattr $C$DW$30, DW_AT_type(*$C$DW$T$63)
     174                    $C$DW$31        .dwtag  DW_TAG_formal_parameter
     175                            .dwattr $C$DW$31, DW_AT_type(*$C$DW$T$63)
     176                            .dwendtag $C$DW$28
     177                    
     178                    
     179                    $C$DW$32        .dwtag  DW_TAG_subprogram, DW_AT_name("initStack")
     180                            .dwattr $C$DW$32, DW_AT_TI_symbol_name("initStack")
     181                            .dwattr $C$DW$32, DW_AT_declaration
     182                            .dwattr $C$DW$32, DW_AT_external
     183                            .dwattr $C$DW$32, DW_AT_decl_file(".\..\packages\ti\vlib\src\VLIB_convertUYVYint_to_HSLpl\..\c
     184                            .dwattr $C$DW$32, DW_AT_decl_line(0x80)
     185                            .dwattr $C$DW$32, DW_AT_decl_column(0x06)
     186                    $C$DW$33        .dwtag  DW_TAG_formal_parameter
     187                            .dwattr $C$DW$33, DW_AT_type(*$C$DW$T$25)
     188                            .dwendtag $C$DW$32
     189                    
     190                    
     191                    $C$DW$34        .dwtag  DW_TAG_subprogram, DW_AT_name("setStackDepth")
     192                            .dwattr $C$DW$34, DW_AT_TI_symbol_name("setStackDepth")
     193                            .dwattr $C$DW$34, DW_AT_declaration
     194                            .dwattr $C$DW$34, DW_AT_external
     195                            .dwattr $C$DW$34, DW_AT_decl_file(".\..\packages\ti\vlib\src\VLIB_convertUYVYint_to_HSLpl\..\c
     196                            .dwattr $C$DW$34, DW_AT_decl_line(0x81)
     197                            .dwattr $C$DW$34, DW_AT_decl_column(0x06)
     198                    
     199                    $C$DW$35        .dwtag  DW_TAG_subprogram, DW_AT_name("getSP")
     200                            .dwattr $C$DW$35, DW_AT_TI_symbol_name("getSP")
     201                            .dwattr $C$DW$35, DW_AT_type(*$C$DW$T$25)
     202                            .dwattr $C$DW$35, DW_AT_declaration
     203                            .dwattr $C$DW$35, DW_AT_external
     204                            .dwattr $C$DW$35, DW_AT_decl_file(".\..\packages\ti\vlib\src\VLIB_convertUYVYint_to_HSLpl\..\c
     205                            .dwattr $C$DW$35, DW_AT_decl_line(0x82)
     206                            .dwattr $C$DW$35, DW_AT_decl_column(0x0a)
     207                    
     208                    $C$DW$36        .dwtag  DW_TAG_subprogram, DW_AT_name("VLIB_stack_memory")
     209                            .dwattr $C$DW$36, DW_AT_TI_symbol_name("VLIB_stack_memory")
     210                            .dwattr $C$DW$36, DW_AT_declaration
     211                            .dwattr $C$DW$36, DW_AT_external
     212                            .dwattr $C$DW$36, DW_AT_decl_file(".\..\packages\ti\vlib\src\VLIB_convertUYVYint_to_HSLpl\..\c
     213                            .dwattr $C$DW$36, DW_AT_decl_line(0x83)
     214                            .dwattr $C$DW$36, DW_AT_decl_column(0x06)
     215                    
     216                    $C$DW$37        .dwtag  DW_TAG_subprogram, DW_AT_name("VLIB_compare_mem")
     217                            .dwattr $C$DW$37, DW_AT_TI_symbol_name("VLIB_compare_mem")
     218                            .dwattr $C$DW$37, DW_AT_type(*$C$DW$T$26)
     219                            .dwattr $C$DW$37, DW_AT_declaration
     220                            .dwattr $C$DW$37, DW_AT_external
TMS320C6x Assembler PC v7.4.2 Thu Mar 19 12:40:19 2015

Tools Copyright (c) 1996-2012 Texas Instruments Incorporated
package/lib/Regression/regress_d_c/./../packages/ti/vlib/src/VLIB_convertUYVYint_to_HSLpl/VLIB_convertUYVYint_to_HSLpl_d.se66 PAGE    5

     221                            .dwattr $C$DW$37, DW_AT_decl_file(".\..\packages\ti\vlib\src\VLIB_convertUYVYint_to_HSLpl\../c
     222                            .dwattr $C$DW$37, DW_AT_decl_line(0x6f)
     223                            .dwattr $C$DW$37, DW_AT_decl_column(0x11)
     224                    $C$DW$38        .dwtag  DW_TAG_formal_parameter
     225                            .dwattr $C$DW$38, DW_AT_type(*$C$DW$T$55)
     226                    $C$DW$39        .dwtag  DW_TAG_formal_parameter
     227                            .dwattr $C$DW$39, DW_AT_type(*$C$DW$T$55)
     228                    $C$DW$40        .dwtag  DW_TAG_formal_parameter
     229                            .dwattr $C$DW$40, DW_AT_type(*$C$DW$T$26)
     230                            .dwendtag $C$DW$37
     231                    
     232                    
     233                    $C$DW$41        .dwtag  DW_TAG_subprogram, DW_AT_name("VLIB_fillBuffer")
     234                            .dwattr $C$DW$41, DW_AT_TI_symbol_name("VLIB_fillBuffer")
     235                            .dwattr $C$DW$41, DW_AT_declaration
     236                            .dwattr $C$DW$41, DW_AT_external
     237                            .dwattr $C$DW$41, DW_AT_decl_file(".\..\packages\ti\vlib\src\VLIB_convertUYVYint_to_HSLpl\../c
     238                            .dwattr $C$DW$41, DW_AT_decl_line(0x77)
     239                            .dwattr $C$DW$41, DW_AT_decl_column(0x06)
     240                    $C$DW$42        .dwtag  DW_TAG_formal_parameter
     241                            .dwattr $C$DW$42, DW_AT_type(*$C$DW$T$19)
     242                    $C$DW$43        .dwtag  DW_TAG_formal_parameter
     243                            .dwattr $C$DW$43, DW_AT_type(*$C$DW$T$19)
     244                    $C$DW$44        .dwtag  DW_TAG_formal_parameter
     245                            .dwattr $C$DW$44, DW_AT_type(*$C$DW$T$3)
     246                    $C$DW$45        .dwtag  DW_TAG_formal_parameter
     247                            .dwattr $C$DW$45, DW_AT_type(*$C$DW$T$3)
     248                    $C$DW$46        .dwtag  DW_TAG_formal_parameter
     249                            .dwattr $C$DW$46, DW_AT_type(*$C$DW$T$21)
     250                    $C$DW$47        .dwtag  DW_TAG_formal_parameter
     251                            .dwattr $C$DW$47, DW_AT_type(*$C$DW$T$21)
     252                    $C$DW$48        .dwtag  DW_TAG_formal_parameter
     253                            .dwattr $C$DW$48, DW_AT_type(*$C$DW$T$21)
     254                    $C$DW$49        .dwtag  DW_TAG_formal_parameter
     255                            .dwattr $C$DW$49, DW_AT_type(*$C$DW$T$19)
     256                    $C$DW$50        .dwtag  DW_TAG_formal_parameter
     257                            .dwattr $C$DW$50, DW_AT_type(*$C$DW$T$63)
     258                            .dwendtag $C$DW$41
     259                    
     260                    
     261                    $C$DW$51        .dwtag  DW_TAG_subprogram, DW_AT_name("VLIB_memalign")
     262                            .dwattr $C$DW$51, DW_AT_TI_symbol_name("VLIB_memalign")
     263                            .dwattr $C$DW$51, DW_AT_type(*$C$DW$T$3)
     264                            .dwattr $C$DW$51, DW_AT_declaration
     265                            .dwattr $C$DW$51, DW_AT_external
     266                            .dwattr $C$DW$51, DW_AT_decl_file(".\..\packages\ti\vlib\src\VLIB_convertUYVYint_to_HSLpl\../c
     267                            .dwattr $C$DW$51, DW_AT_decl_line(0xae)
     268                            .dwattr $C$DW$51, DW_AT_decl_column(0x07)
     269                    $C$DW$52        .dwtag  DW_TAG_formal_parameter
     270                            .dwattr $C$DW$52, DW_AT_type(*$C$DW$T$56)
     271                    $C$DW$53        .dwtag  DW_TAG_formal_parameter
     272                            .dwattr $C$DW$53, DW_AT_type(*$C$DW$T$56)
     273                            .dwendtag $C$DW$51
     274                    
     275                    
TMS320C6x Assembler PC v7.4.2 Thu Mar 19 12:40:19 2015

Tools Copyright (c) 1996-2012 Texas Instruments Incorporated
package/lib/Regression/regress_d_c/./../packages/ti/vlib/src/VLIB_convertUYVYint_to_HSLpl/VLIB_convertUYVYint_to_HSLpl_d.se66 PAGE    6

     276                    $C$DW$54        .dwtag  DW_TAG_subprogram, DW_AT_name("VLIB_malloc")
     277                            .dwattr $C$DW$54, DW_AT_TI_symbol_name("VLIB_malloc")
     278                            .dwattr $C$DW$54, DW_AT_type(*$C$DW$T$3)
     279                            .dwattr $C$DW$54, DW_AT_declaration
     280                            .dwattr $C$DW$54, DW_AT_external
     281                            .dwattr $C$DW$54, DW_AT_decl_file(".\..\packages\ti\vlib\src\VLIB_convertUYVYint_to_HSLpl\../c
     282                            .dwattr $C$DW$54, DW_AT_decl_line(0xaf)
     283                            .dwattr $C$DW$54, DW_AT_decl_column(0x07)
     284                    $C$DW$55        .dwtag  DW_TAG_formal_parameter
     285                            .dwattr $C$DW$55, DW_AT_type(*$C$DW$T$56)
     286                            .dwendtag $C$DW$54
     287                    
     288                    
     289                    $C$DW$56        .dwtag  DW_TAG_subprogram, DW_AT_name("VLIB_align_free")
     290                            .dwattr $C$DW$56, DW_AT_TI_symbol_name("VLIB_align_free")
     291                            .dwattr $C$DW$56, DW_AT_declaration
     292                            .dwattr $C$DW$56, DW_AT_external
     293                            .dwattr $C$DW$56, DW_AT_decl_file(".\..\packages\ti\vlib\src\VLIB_convertUYVYint_to_HSLpl\../c
     294                            .dwattr $C$DW$56, DW_AT_decl_line(0xb3)
     295                            .dwattr $C$DW$56, DW_AT_decl_column(0x07)
     296                    $C$DW$57        .dwtag  DW_TAG_formal_parameter
     297                            .dwattr $C$DW$57, DW_AT_type(*$C$DW$T$3)
     298                            .dwendtag $C$DW$56
     299                    
     300                    
     301                    $C$DW$58        .dwtag  DW_TAG_subprogram, DW_AT_name("VLIB_free")
     302                            .dwattr $C$DW$58, DW_AT_TI_symbol_name("VLIB_free")
     303                            .dwattr $C$DW$58, DW_AT_declaration
     304                            .dwattr $C$DW$58, DW_AT_external
     305                            .dwattr $C$DW$58, DW_AT_decl_file(".\..\packages\ti\vlib\src\VLIB_convertUYVYint_to_HSLpl\../c
     306                            .dwattr $C$DW$58, DW_AT_decl_line(0xb4)
     307                            .dwattr $C$DW$58, DW_AT_decl_column(0x07)
     308                    $C$DW$59        .dwtag  DW_TAG_formal_parameter
     309                            .dwattr $C$DW$59, DW_AT_type(*$C$DW$T$3)
     310                            .dwendtag $C$DW$58
     311                    
     312                    
     313                    $C$DW$60        .dwtag  DW_TAG_subprogram, DW_AT_name("VLIB_convertUYVYint_to_HSLpl")
     314                            .dwattr $C$DW$60, DW_AT_TI_symbol_name("VLIB_convertUYVYint_to_HSLpl")
     315                            .dwattr $C$DW$60, DW_AT_type(*$C$DW$T$26)
     316                            .dwattr $C$DW$60, DW_AT_declaration
     317                            .dwattr $C$DW$60, DW_AT_external
     318                            .dwattr $C$DW$60, DW_AT_decl_file(".\..\packages\ti\vlib\src\VLIB_convertUYVYint_to_HSLpl\c66/
     319                            .dwattr $C$DW$60, DW_AT_decl_line(0x8a)
     320                            .dwattr $C$DW$60, DW_AT_decl_column(0x09)
     321                    $C$DW$61        .dwtag  DW_TAG_formal_parameter
     322                            .dwattr $C$DW$61, DW_AT_type(*$C$DW$T$97)
     323                    $C$DW$62        .dwtag  DW_TAG_formal_parameter
     324                            .dwattr $C$DW$62, DW_AT_type(*$C$DW$T$25)
     325                    $C$DW$63        .dwtag  DW_TAG_formal_parameter
     326                            .dwattr $C$DW$63, DW_AT_type(*$C$DW$T$26)
     327                    $C$DW$64        .dwtag  DW_TAG_formal_parameter
     328                            .dwattr $C$DW$64, DW_AT_type(*$C$DW$T$25)
     329                    $C$DW$65        .dwtag  DW_TAG_formal_parameter
     330                            .dwattr $C$DW$65, DW_AT_type(*$C$DW$T$101)
TMS320C6x Assembler PC v7.4.2 Thu Mar 19 12:40:19 2015

Tools Copyright (c) 1996-2012 Texas Instruments Incorporated
package/lib/Regression/regress_d_c/./../packages/ti/vlib/src/VLIB_convertUYVYint_to_HSLpl/VLIB_convertUYVYint_to_HSLpl_d.se66 PAGE    7

     331                    $C$DW$66        .dwtag  DW_TAG_formal_parameter
     332                            .dwattr $C$DW$66, DW_AT_type(*$C$DW$T$107)
     333                    $C$DW$67        .dwtag  DW_TAG_formal_parameter
     334                            .dwattr $C$DW$67, DW_AT_type(*$C$DW$T$105)
     335                    $C$DW$68        .dwtag  DW_TAG_formal_parameter
     336                            .dwattr $C$DW$68, DW_AT_type(*$C$DW$T$95)
     337                    $C$DW$69        .dwtag  DW_TAG_formal_parameter
     338                            .dwattr $C$DW$69, DW_AT_type(*$C$DW$T$95)
     339                            .dwendtag $C$DW$60
     340                    
     341                    
     342                    $C$DW$70        .dwtag  DW_TAG_subprogram, DW_AT_name("VLIB_convertUYVYint_to_HSLpl_cn")
     343                            .dwattr $C$DW$70, DW_AT_TI_symbol_name("VLIB_convertUYVYint_to_HSLpl_cn")
     344                            .dwattr $C$DW$70, DW_AT_type(*$C$DW$T$26)
     345                            .dwattr $C$DW$70, DW_AT_declaration
     346                            .dwattr $C$DW$70, DW_AT_external
     347                            .dwattr $C$DW$70, DW_AT_decl_file(".\..\packages\ti\vlib\src\VLIB_convertUYVYint_to_HSLpl\VLIB
     348                            .dwattr $C$DW$70, DW_AT_decl_line(0x32)
     349                            .dwattr $C$DW$70, DW_AT_decl_column(0x09)
     350                    $C$DW$71        .dwtag  DW_TAG_formal_parameter
     351                            .dwattr $C$DW$71, DW_AT_type(*$C$DW$T$97)
     352                    $C$DW$72        .dwtag  DW_TAG_formal_parameter
     353                            .dwattr $C$DW$72, DW_AT_type(*$C$DW$T$25)
     354                    $C$DW$73        .dwtag  DW_TAG_formal_parameter
     355                            .dwattr $C$DW$73, DW_AT_type(*$C$DW$T$26)
     356                    $C$DW$74        .dwtag  DW_TAG_formal_parameter
     357                            .dwattr $C$DW$74, DW_AT_type(*$C$DW$T$25)
     358                    $C$DW$75        .dwtag  DW_TAG_formal_parameter
     359                            .dwattr $C$DW$75, DW_AT_type(*$C$DW$T$101)
     360                    $C$DW$76        .dwtag  DW_TAG_formal_parameter
     361                            .dwattr $C$DW$76, DW_AT_type(*$C$DW$T$107)
     362                    $C$DW$77        .dwtag  DW_TAG_formal_parameter
     363                            .dwattr $C$DW$77, DW_AT_type(*$C$DW$T$105)
     364                    $C$DW$78        .dwtag  DW_TAG_formal_parameter
     365                            .dwattr $C$DW$78, DW_AT_type(*$C$DW$T$95)
     366                    $C$DW$79        .dwtag  DW_TAG_formal_parameter
     367                            .dwattr $C$DW$79, DW_AT_type(*$C$DW$T$95)
     368                            .dwendtag $C$DW$70
     369                    
     370                    
     371                    $C$DW$80        .dwtag  DW_TAG_subprogram, DW_AT_name("UYVYint_to_HSLpl_getTestParams")
     372                            .dwattr $C$DW$80, DW_AT_TI_symbol_name("UYVYint_to_HSLpl_getTestParams")
     373                            .dwattr $C$DW$80, DW_AT_declaration
     374                            .dwattr $C$DW$80, DW_AT_external
     375                            .dwattr $C$DW$80, DW_AT_decl_file(".\..\packages\ti\vlib\src\VLIB_convertUYVYint_to_HSLpl\VLIB
     376                            .dwattr $C$DW$80, DW_AT_decl_line(0x30)
     377                            .dwattr $C$DW$80, DW_AT_decl_column(0x06)
     378                    $C$DW$81        .dwtag  DW_TAG_formal_parameter
     379                            .dwattr $C$DW$81, DW_AT_type(*$C$DW$T$46)
     380                    $C$DW$82        .dwtag  DW_TAG_formal_parameter
     381                            .dwattr $C$DW$82, DW_AT_type(*$C$DW$T$79)
     382                            .dwendtag $C$DW$80
     383                    
     384                    $C$DW$83        .dwtag  DW_TAG_variable, DW_AT_name("test_cases")
     385                            .dwattr $C$DW$83, DW_AT_TI_symbol_name("test_cases")
TMS320C6x Assembler PC v7.4.2 Thu Mar 19 12:40:19 2015

Tools Copyright (c) 1996-2012 Texas Instruments Incorporated
package/lib/Regression/regress_d_c/./../packages/ti/vlib/src/VLIB_convertUYVYint_to_HSLpl/VLIB_convertUYVYint_to_HSLpl_d.se66 PAGE    8

     386                            .dwattr $C$DW$83, DW_AT_type(*$C$DW$T$26)
     387                            .dwattr $C$DW$83, DW_AT_declaration
     388                            .dwattr $C$DW$83, DW_AT_external
     389                            .dwattr $C$DW$83, DW_AT_decl_file(".\..\packages\ti\vlib\src\VLIB_convertUYVYint_to_HSLpl\../c
     390                            .dwattr $C$DW$83, DW_AT_decl_line(0x60)
     391                            .dwattr $C$DW$83, DW_AT_decl_column(0x13)
     392                    $C$DW$84        .dwtag  DW_TAG_variable, DW_AT_name("act_kernel")
     393                            .dwattr $C$DW$84, DW_AT_TI_symbol_name("act_kernel")
     394                            .dwattr $C$DW$84, DW_AT_type(*$C$DW$T$10)
     395                            .dwattr $C$DW$84, DW_AT_declaration
     396                            .dwattr $C$DW$84, DW_AT_external
     397                            .dwattr $C$DW$84, DW_AT_decl_file(".\..\packages\ti\vlib\src\VLIB_convertUYVYint_to_HSLpl\../c
     398                            .dwattr $C$DW$84, DW_AT_decl_line(0x62)
     399                            .dwattr $C$DW$84, DW_AT_decl_column(0x13)
     400                    $C$DW$85        .dwtag  DW_TAG_variable, DW_AT_name("desc")
     401                            .dwattr $C$DW$85, DW_AT_TI_symbol_name("desc")
     402                            .dwattr $C$DW$85, DW_AT_type(*$C$DW$T$166)
     403                            .dwattr $C$DW$85, DW_AT_declaration
     404                            .dwattr $C$DW$85, DW_AT_external
     405                            .dwattr $C$DW$85, DW_AT_decl_file(".\..\packages\ti\vlib\src\VLIB_convertUYVYint_to_HSLpl\../c
     406                            .dwattr $C$DW$85, DW_AT_decl_line(0x63)
     407                            .dwattr $C$DW$85, DW_AT_decl_column(0x13)
     408                    $C$DW$86        .dwtag  DW_TAG_variable, DW_AT_name("testPatternString")
     409                            .dwattr $C$DW$86, DW_AT_TI_symbol_name("testPatternString")
     410                            .dwattr $C$DW$86, DW_AT_type(*$C$DW$T$166)
     411                            .dwattr $C$DW$86, DW_AT_declaration
     412                            .dwattr $C$DW$86, DW_AT_external
     413                            .dwattr $C$DW$86, DW_AT_decl_file(".\..\packages\ti\vlib\src\VLIB_convertUYVYint_to_HSLpl\../c
     414                            .dwattr $C$DW$86, DW_AT_decl_line(0x64)
     415                            .dwattr $C$DW$86, DW_AT_decl_column(0x13)
     416                    $C$DW$87        .dwtag  DW_TAG_variable, DW_AT_name("est_test")
     417                            .dwattr $C$DW$87, DW_AT_TI_symbol_name("est_test")
     418                            .dwattr $C$DW$87, DW_AT_type(*$C$DW$T$10)
     419                            .dwattr $C$DW$87, DW_AT_declaration
     420                            .dwattr $C$DW$87, DW_AT_external
     421                            .dwattr $C$DW$87, DW_AT_decl_file(".\..\packages\ti\vlib\src\VLIB_convertUYVYint_to_HSLpl\..\c
     422                            .dwattr $C$DW$87, DW_AT_decl_line(0x75)
     423                            .dwattr $C$DW$87, DW_AT_decl_column(0x14)
     424                    $C$DW$88        .dwtag  DW_TAG_variable, DW_AT_name("beg_count")
     425                            .dwattr $C$DW$88, DW_AT_TI_symbol_name("beg_count")
     426                            .dwattr $C$DW$88, DW_AT_type(*$C$DW$T$156)
     427                            .dwattr $C$DW$88, DW_AT_declaration
     428                            .dwattr $C$DW$88, DW_AT_external
     429                            .dwattr $C$DW$88, DW_AT_decl_file(".\..\packages\ti\vlib\src\VLIB_convertUYVYint_to_HSLpl\..\c
     430                            .dwattr $C$DW$88, DW_AT_decl_line(0x76)
     431                            .dwattr $C$DW$88, DW_AT_decl_column(0x14)
     432                    $C$DW$89        .dwtag  DW_TAG_variable, DW_AT_name("end_count")
     433                            .dwattr $C$DW$89, DW_AT_TI_symbol_name("end_count")
     434                            .dwattr $C$DW$89, DW_AT_type(*$C$DW$T$156)
     435                            .dwattr $C$DW$89, DW_AT_declaration
     436                            .dwattr $C$DW$89, DW_AT_external
     437                            .dwattr $C$DW$89, DW_AT_decl_file(".\..\packages\ti\vlib\src\VLIB_convertUYVYint_to_HSLpl\..\c
     438                            .dwattr $C$DW$89, DW_AT_decl_line(0x77)
     439                            .dwattr $C$DW$89, DW_AT_decl_column(0x14)
     440                    $C$DW$90        .dwtag  DW_TAG_variable, DW_AT_name("overhead")
TMS320C6x Assembler PC v7.4.2 Thu Mar 19 12:40:19 2015

Tools Copyright (c) 1996-2012 Texas Instruments Incorporated
package/lib/Regression/regress_d_c/./../packages/ti/vlib/src/VLIB_convertUYVYint_to_HSLpl/VLIB_convertUYVYint_to_HSLpl_d.se66 PAGE    9

     441                            .dwattr $C$DW$90, DW_AT_TI_symbol_name("overhead")
     442                            .dwattr $C$DW$90, DW_AT_type(*$C$DW$T$156)
     443                            .dwattr $C$DW$90, DW_AT_declaration
     444                            .dwattr $C$DW$90, DW_AT_external
     445                            .dwattr $C$DW$90, DW_AT_decl_file(".\..\packages\ti\vlib\src\VLIB_convertUYVYint_to_HSLpl\..\c
     446                            .dwattr $C$DW$90, DW_AT_decl_line(0x78)
     447                            .dwattr $C$DW$90, DW_AT_decl_column(0x14)
     448                    $C$DW$91        .dwtag  DW_TAG_variable, DW_AT_name("cycles")
     449                            .dwattr $C$DW$91, DW_AT_TI_symbol_name("cycles")
     450                            .dwattr $C$DW$91, DW_AT_type(*$C$DW$T$157)
     451                            .dwattr $C$DW$91, DW_AT_declaration
     452                            .dwattr $C$DW$91, DW_AT_external
     453                            .dwattr $C$DW$91, DW_AT_decl_file(".\..\packages\ti\vlib\src\VLIB_convertUYVYint_to_HSLpl\..\c
     454                            .dwattr $C$DW$91, DW_AT_decl_line(0x79)
     455                            .dwattr $C$DW$91, DW_AT_decl_column(0x14)
     456                    ;       C:\VLIB_Tools\CCSV5_4_0\ccsv5\tools\compiler\C6000\bin\opt6x.exe C:\\Users\\gtbldadm\\AppData\
     457 00000000                   .sect   ".text"
     458                            .clink
     459                            .global VLIB_convertUYVYint_to_HSLpl_d
     460                    
     461                    $C$DW$92        .dwtag  DW_TAG_subprogram, DW_AT_name("VLIB_convertUYVYint_to_HSLpl_d")
     462                            .dwattr $C$DW$92, DW_AT_low_pc(VLIB_convertUYVYint_to_HSLpl_d)
     463                            .dwattr $C$DW$92, DW_AT_high_pc(0x00)
     464                            .dwattr $C$DW$92, DW_AT_TI_symbol_name("VLIB_convertUYVYint_to_HSLpl_d")
     465                            .dwattr $C$DW$92, DW_AT_external
     466                            .dwattr $C$DW$92, DW_AT_TI_begin_file("./../packages/ti/vlib/src/VLIB_convertUYVYint_to_HSLpl/
     467                            .dwattr $C$DW$92, DW_AT_TI_begin_line(0x26)
     468                            .dwattr $C$DW$92, DW_AT_TI_begin_column(0x06)
     469                            .dwattr $C$DW$92, DW_AT_decl_file("./../packages/ti/vlib/src/VLIB_convertUYVYint_to_HSLpl/VLIB
     470                            .dwattr $C$DW$92, DW_AT_decl_line(0x26)
     471                            .dwattr $C$DW$92, DW_AT_decl_column(0x06)
     472                            .dwattr $C$DW$92, DW_AT_TI_max_frame_size(0x78)
     473                            .dwpsn  file "./../packages/ti/vlib/src/VLIB_convertUYVYint_to_HSLpl/VLIB_convertUYVYint_to_HS
     474                    
     475                            .dwfde $C$DW$CIE, VLIB_convertUYVYint_to_HSLpl_d
     476                    $C$DW$93        .dwtag  DW_TAG_formal_parameter, DW_AT_name("LevelOfFeedback")
     477                            .dwattr $C$DW$93, DW_AT_TI_symbol_name("LevelOfFeedback")
     478                            .dwattr $C$DW$93, DW_AT_type(*$C$DW$T$19)
     479                            .dwattr $C$DW$93, DW_AT_location[DW_OP_reg4]
     480                    ;----------------------------------------------------------------------
     481                    ;  38 | void VLIB_convertUYVYint_to_HSLpl_d (uint8_t LevelOfFeedback)          
     482                    ;----------------------------------------------------------------------
     483                    
     484                    ;******************************************************************************
     485                    ;* FUNCTION NAME: VLIB_convertUYVYint_to_HSLpl_d                              *
     486                    ;*                                                                            *
     487                    ;*   Regs Modified     : A0,A1,A2,A3,A4,A5,A6,A7,A8,A9,A10,A11,A12,A13,A14,   *
     488                    ;*                           A15,B0,B1,B2,B3,B4,B5,B6,B7,B8,B9,B10,B11,B12,   *
     489                    ;*                           B13,SP,A16,A17,A18,A19,A20,A21,A22,A23,A24,A25,  *
     490                    ;*                           A26,A27,A28,A29,A30,A31,B16,B17,B18,B19,B20,B21, *
     491                    ;*                           B22,B23,B24,B25,B26,B27,B28,B29,B30,B31          *
     492                    ;*   Regs Used         : A0,A1,A2,A3,A4,A5,A6,A7,A8,A9,A10,A11,A12,A13,A14,   *
     493                    ;*                           A15,B0,B1,B2,B3,B4,B5,B6,B7,B8,B9,B10,B11,B12,   *
     494                    ;*                           B13,DP,SP,A16,A17,A18,A19,A20,A21,A22,A23,A24,   *
     495                    ;*                           A25,A26,A27,A28,A29,A30,A31,B16,B17,B18,B19,B20, *
TMS320C6x Assembler PC v7.4.2 Thu Mar 19 12:40:19 2015

Tools Copyright (c) 1996-2012 Texas Instruments Incorporated
package/lib/Regression/regress_d_c/./../packages/ti/vlib/src/VLIB_convertUYVYint_to_HSLpl/VLIB_convertUYVYint_to_HSLpl_d.se66 PAGE   10

     496                    ;*                           B21,B22,B23,B24,B25,B26,B27,B28,B29,B30,B31      *
     497                    ;*   Local Frame Size  : 24 Args + 40 Auto + 56 Save = 120 byte               *
     498                    ;******************************************************************************
     499                    
     500                    ;******************************************************************************
     501                    ;*                                                                            *
     502                    ;* Using -g (debug) with optimization (-o3) may disable key optimizations!    *
     503                    ;*                                                                            *
     504                    ;******************************************************************************
     505 00000000           VLIB_convertUYVYint_to_HSLpl_d:
     506                    ;** --------------------------------------------------------------------------*
     507                    ;          EXCLUSIVE CPU CYCLES: 16
     508                    ;** 45  -----------------------    UYVYint_to_HSLpl_getTestParams(&prm, &test_cases);
     509                    ;** 48  -----------------------    VLIB_profile_init(2, "VLIB_convertUYVYint_to_HSLpl");
     510                    ;** 51  -----------------------    if ( test_cases <= 0 ) goto g20;
     511                            .dwcfi  cfa_offset, 0
     512                    ;----------------------------------------------------------------------
     513                    ;  40 | int32_t    tpi;  /* test parameter index */                            
     514                    ;  43 | UYVYint_to_HSLpl_testParams_t   *prm;                                  
     515                    ;----------------------------------------------------------------------
     516 00000000     25f7             STW     .D2T1   A11,*SP--(8)      ; |39| 
     517                            .dwcfi  cfa_offset, 8
     518                            .dwcfi  save_reg_to_mem, 11, 0
     519 00000002     2577             STW     .D2T1   A10,*SP--(8)      ; |39| 
     520                            .dwcfi  cfa_offset, 16
     521                            .dwcfi  save_reg_to_mem, 10, -8
     522 00000004     9677             STDW    .D2T2   B13:B12,*SP--     ; |39| 
     523                            .dwcfi  cfa_offset, 24
     524                            .dwcfi  save_reg_to_mem, 29, -12
     525                            .dwcfi  save_reg_to_mem, 28, -16
     526 00000006     9577             STDW    .D2T2   B11:B10,*SP--     ; |39| 
     527                            .dwcfi  cfa_offset, 32
     528                            .dwcfi  save_reg_to_mem, 27, -20
     529                            .dwcfi  save_reg_to_mem, 26, -24
     530 00000008     8777             STDW    .D2T1   A15:A14,*SP--     ; |39| 
     531                            .dwcfi  cfa_offset, 40
     532                            .dwcfi  save_reg_to_mem, 15, -28
     533                            .dwcfi  save_reg_to_mem, 14, -32
     534 0000000a     8677             STDW    .D2T1   A13:A12,*SP--     ; |39| 
     535                            .dwcfi  cfa_offset, 48
     536                            .dwcfi  save_reg_to_mem, 13, -36
     537                            .dwcfi  save_reg_to_mem, 12, -40
     538 0000000c 01be54f6             STW     .D2T2   B3,*SP--(72)      ; |39| 
     539                            .dwcfi  cfa_offset, 120
     540                            .dwcfi  save_reg_to_mem, 19, 0
     541                    $C$DW$94        .dwtag  DW_TAG_variable, DW_AT_name("$O$C2")
     542                            .dwattr $C$DW$94, DW_AT_TI_symbol_name("$O$C2")
     543                            .dwattr $C$DW$94, DW_AT_type(*$C$DW$T$47)
     544                            .dwattr $C$DW$94, DW_AT_location[DW_OP_reg20]
     545                    $C$DW$95        .dwtag  DW_TAG_variable, DW_AT_name("$O$C3")
     546                            .dwattr $C$DW$95, DW_AT_TI_symbol_name("$O$C3")
     547                            .dwattr $C$DW$95, DW_AT_type(*$C$DW$T$103)
     548                            .dwattr $C$DW$95, DW_AT_location[DW_OP_reg0]
     549                    $C$DW$96        .dwtag  DW_TAG_variable, DW_AT_name("$O$C4")
     550                            .dwattr $C$DW$96, DW_AT_TI_symbol_name("$O$C4")
TMS320C6x Assembler PC v7.4.2 Thu Mar 19 12:40:19 2015

Tools Copyright (c) 1996-2012 Texas Instruments Incorporated
package/lib/Regression/regress_d_c/./../packages/ti/vlib/src/VLIB_convertUYVYint_to_HSLpl/VLIB_convertUYVYint_to_HSLpl_d.se66 PAGE   11

     551                            .dwattr $C$DW$96, DW_AT_type(*$C$DW$T$10)
     552                            .dwattr $C$DW$96, DW_AT_location[DW_OP_reg8]
     553                    $C$DW$97        .dwtag  DW_TAG_variable, DW_AT_name("$O$C5")
     554                            .dwattr $C$DW$97, DW_AT_TI_symbol_name("$O$C5")
     555                            .dwattr $C$DW$97, DW_AT_type(*$C$DW$T$10)
     556                            .dwattr $C$DW$97, DW_AT_location[DW_OP_regx 0x25]
     557                    $C$DW$98        .dwtag  DW_TAG_variable, DW_AT_name("$O$C6")
     558                            .dwattr $C$DW$98, DW_AT_TI_symbol_name("$O$C6")
     559                            .dwattr $C$DW$98, DW_AT_type(*$C$DW$T$11)
     560                            .dwattr $C$DW$98, DW_AT_location[DW_OP_reg10]
     561                    $C$DW$99        .dwtag  DW_TAG_variable, DW_AT_name("$O$C7")
     562                            .dwattr $C$DW$99, DW_AT_TI_symbol_name("$O$C7")
     563                            .dwattr $C$DW$99, DW_AT_type(*$C$DW$T$11)
     564                            .dwattr $C$DW$99, DW_AT_location[DW_OP_reg10]
     565                    $C$DW$100       .dwtag  DW_TAG_variable, DW_AT_name("$O$U12")
     566                            .dwattr $C$DW$100, DW_AT_TI_symbol_name("$O$U12")
     567                            .dwattr $C$DW$100, DW_AT_type(*$C$DW$T$47)
     568                            .dwattr $C$DW$100, DW_AT_location[DW_OP_reg13]
     569                    $C$DW$101       .dwtag  DW_TAG_variable, DW_AT_name("$O$K32")
     570                            .dwattr $C$DW$101, DW_AT_TI_symbol_name("$O$K32")
     571                            .dwattr $C$DW$101, DW_AT_type(*$C$DW$T$11)
     572                            .dwattr $C$DW$101, DW_AT_location[DW_OP_reg4]
     573                    $C$DW$102       .dwtag  DW_TAG_variable, DW_AT_name("$O$K57")
     574                            .dwattr $C$DW$102, DW_AT_TI_symbol_name("$O$K57")
     575                            .dwattr $C$DW$102, DW_AT_type(*$C$DW$T$83)
     576                            .dwattr $C$DW$102, DW_AT_location[DW_OP_reg4]
     577                    $C$DW$103       .dwtag  DW_TAG_variable, DW_AT_name("$O$K59")
     578                            .dwattr $C$DW$103, DW_AT_TI_symbol_name("$O$K59")
     579                            .dwattr $C$DW$103, DW_AT_type(*$C$DW$T$83)
     580                            .dwattr $C$DW$103, DW_AT_location[DW_OP_reg12]
     581                    $C$DW$104       .dwtag  DW_TAG_variable, DW_AT_name("$O$K66")
     582                            .dwattr $C$DW$104, DW_AT_TI_symbol_name("$O$K66")
     583                            .dwattr $C$DW$104, DW_AT_type(*$C$DW$T$10)
     584                            .dwattr $C$DW$104, DW_AT_location[DW_OP_reg20]
     585                    $C$DW$105       .dwtag  DW_TAG_variable, DW_AT_name("$O$U93")
     586                            .dwattr $C$DW$105, DW_AT_TI_symbol_name("$O$U93")
     587                            .dwattr $C$DW$105, DW_AT_type(*$C$DW$T$47)
     588                            .dwattr $C$DW$105, DW_AT_location[DW_OP_reg5]
     589                    $C$DW$106       .dwtag  DW_TAG_variable, DW_AT_name("$O$U92")
     590                            .dwattr $C$DW$106, DW_AT_TI_symbol_name("$O$U92")
     591                            .dwattr $C$DW$106, DW_AT_type(*$C$DW$T$10)
     592                            .dwattr $C$DW$106, DW_AT_location[DW_OP_reg4]
     593                    $C$DW$107       .dwtag  DW_TAG_variable, DW_AT_name("$O$U98")
     594                            .dwattr $C$DW$107, DW_AT_TI_symbol_name("$O$U98")
     595                            .dwattr $C$DW$107, DW_AT_type(*$C$DW$T$103)
     596                            .dwattr $C$DW$107, DW_AT_location[DW_OP_reg21]
     597                    $C$DW$108       .dwtag  DW_TAG_variable, DW_AT_name("$O$K112")
     598                            .dwattr $C$DW$108, DW_AT_TI_symbol_name("$O$K112")
     599                            .dwattr $C$DW$108, DW_AT_type(*$C$DW$T$155)
     600                            .dwattr $C$DW$108, DW_AT_location[DW_OP_reg3]
     601                    $C$DW$109       .dwtag  DW_TAG_variable, DW_AT_name("$O$U23")
     602                            .dwattr $C$DW$109, DW_AT_TI_symbol_name("$O$U23")
     603                            .dwattr $C$DW$109, DW_AT_type(*$C$DW$T$11)
     604                            .dwattr $C$DW$109, DW_AT_location[DW_OP_reg28]
     605                    $C$DW$110       .dwtag  DW_TAG_variable, DW_AT_name("$O$U121")
TMS320C6x Assembler PC v7.4.2 Thu Mar 19 12:40:19 2015

Tools Copyright (c) 1996-2012 Texas Instruments Incorporated
package/lib/Regression/regress_d_c/./../packages/ti/vlib/src/VLIB_convertUYVYint_to_HSLpl/VLIB_convertUYVYint_to_HSLpl_d.se66 PAGE   12

     606                            .dwattr $C$DW$110, DW_AT_TI_symbol_name("$O$U121")
     607                            .dwattr $C$DW$110, DW_AT_type(*$C$DW$T$10)
     608                            .dwattr $C$DW$110, DW_AT_location[DW_OP_reg11]
     609                    $C$DW$111       .dwtag  DW_TAG_variable, DW_AT_name("$O$U120")
     610                            .dwattr $C$DW$111, DW_AT_TI_symbol_name("$O$U120")
     611                            .dwattr $C$DW$111, DW_AT_type(*$C$DW$T$10)
     612                            .dwattr $C$DW$111, DW_AT_location[DW_OP_reg28]
     613                    $C$DW$112       .dwtag  DW_TAG_variable, DW_AT_name("$O$U11")
     614                            .dwattr $C$DW$112, DW_AT_TI_symbol_name("$O$U11")
     615                            .dwattr $C$DW$112, DW_AT_type(*$C$DW$T$10)
     616                            .dwattr $C$DW$112, DW_AT_location[DW_OP_reg27]
     617                    $C$DW$113       .dwtag  DW_TAG_variable, DW_AT_name("$O$L1")
     618                            .dwattr $C$DW$113, DW_AT_TI_symbol_name("$O$L1")
     619                            .dwattr $C$DW$113, DW_AT_type(*$C$DW$T$10)
     620                            .dwattr $C$DW$113, DW_AT_location[DW_OP_regx 0x44]
     621                    $C$DW$114       .dwtag  DW_TAG_variable, DW_AT_name("div_table")
     622                            .dwattr $C$DW$114, DW_AT_TI_symbol_name("div_table")
     623                            .dwattr $C$DW$114, DW_AT_type(*$C$DW$T$22)
     624                            .dwattr $C$DW$114, DW_AT_location[DW_OP_breg31 32]
     625                    $C$DW$115       .dwtag  DW_TAG_variable, DW_AT_name("coeff")
     626                            .dwattr $C$DW$115, DW_AT_TI_symbol_name("coeff")
     627                            .dwattr $C$DW$115, DW_AT_type(*$C$DW$T$24)
     628                            .dwattr $C$DW$115, DW_AT_location[DW_OP_breg31 36]
     629                    $C$DW$116       .dwtag  DW_TAG_variable, DW_AT_name("L_cn")
     630                            .dwattr $C$DW$116, DW_AT_TI_symbol_name("L_cn")
     631                            .dwattr $C$DW$116, DW_AT_type(*$C$DW$T$20)
     632                            .dwattr $C$DW$116, DW_AT_location[DW_OP_breg31 40]
     633                    $C$DW$117       .dwtag  DW_TAG_variable, DW_AT_name("S_cn")
     634                            .dwattr $C$DW$117, DW_AT_TI_symbol_name("S_cn")
     635                            .dwattr $C$DW$117, DW_AT_type(*$C$DW$T$20)
     636                            .dwattr $C$DW$117, DW_AT_location[DW_OP_breg31 44]
     637                    $C$DW$118       .dwtag  DW_TAG_variable, DW_AT_name("H_cn")
     638                            .dwattr $C$DW$118, DW_AT_TI_symbol_name("H_cn")
     639                            .dwattr $C$DW$118, DW_AT_type(*$C$DW$T$22)
     640                            .dwattr $C$DW$118, DW_AT_location[DW_OP_breg31 48]
     641                    $C$DW$119       .dwtag  DW_TAG_variable, DW_AT_name("L")
     642                            .dwattr $C$DW$119, DW_AT_TI_symbol_name("L")
     643                            .dwattr $C$DW$119, DW_AT_type(*$C$DW$T$20)
     644                            .dwattr $C$DW$119, DW_AT_location[DW_OP_breg31 52]
     645                    $C$DW$120       .dwtag  DW_TAG_variable, DW_AT_name("S")
     646                            .dwattr $C$DW$120, DW_AT_TI_symbol_name("S")
     647                            .dwattr $C$DW$120, DW_AT_type(*$C$DW$T$20)
     648                            .dwattr $C$DW$120, DW_AT_location[DW_OP_breg31 56]
     649                    $C$DW$121       .dwtag  DW_TAG_variable, DW_AT_name("H")
     650                            .dwattr $C$DW$121, DW_AT_TI_symbol_name("H")
     651                            .dwattr $C$DW$121, DW_AT_type(*$C$DW$T$22)
     652                            .dwattr $C$DW$121, DW_AT_location[DW_OP_breg31 60]
     653                    $C$DW$122       .dwtag  DW_TAG_variable, DW_AT_name("yc")
     654                            .dwattr $C$DW$122, DW_AT_TI_symbol_name("yc")
     655                            .dwattr $C$DW$122, DW_AT_type(*$C$DW$T$20)
     656                            .dwattr $C$DW$122, DW_AT_location[DW_OP_breg31 64]
     657                    $C$DW$123       .dwtag  DW_TAG_variable, DW_AT_name("out_size")
     658                            .dwattr $C$DW$123, DW_AT_TI_symbol_name("out_size")
     659                            .dwattr $C$DW$123, DW_AT_type(*$C$DW$T$25)
     660                            .dwattr $C$DW$123, DW_AT_location[DW_OP_reg11]
TMS320C6x Assembler PC v7.4.2 Thu Mar 19 12:40:19 2015

Tools Copyright (c) 1996-2012 Texas Instruments Incorporated
package/lib/Regression/regress_d_c/./../packages/ti/vlib/src/VLIB_convertUYVYint_to_HSLpl/VLIB_convertUYVYint_to_HSLpl_d.se66 PAGE   13

     661                    $C$DW$124       .dwtag  DW_TAG_variable, DW_AT_name("status_nat_vs_ref")
     662                            .dwattr $C$DW$124, DW_AT_TI_symbol_name("status_nat_vs_ref")
     663                            .dwattr $C$DW$124, DW_AT_type(*$C$DW$T$26)
     664                            .dwattr $C$DW$124, DW_AT_location[DW_OP_reg29]
     665                    $C$DW$125       .dwtag  DW_TAG_variable, DW_AT_name("status_nat_vs_int")
     666                            .dwattr $C$DW$125, DW_AT_TI_symbol_name("status_nat_vs_int")
     667                            .dwattr $C$DW$125, DW_AT_type(*$C$DW$T$26)
     668                            .dwattr $C$DW$125, DW_AT_location[DW_OP_reg15]
     669                    $C$DW$126       .dwtag  DW_TAG_variable, DW_AT_name("prm")
     670                            .dwattr $C$DW$126, DW_AT_TI_symbol_name("prm")
     671                            .dwattr $C$DW$126, DW_AT_type(*$C$DW$T$45)
     672                            .dwattr $C$DW$126, DW_AT_location[DW_OP_breg31 28]
     673                    $C$DW$127       .dwtag  DW_TAG_variable, DW_AT_name("tpi")
     674                            .dwattr $C$DW$127, DW_AT_TI_symbol_name("tpi")
     675                            .dwattr $C$DW$127, DW_AT_type(*$C$DW$T$26)
     676                            .dwattr $C$DW$127, DW_AT_location[DW_OP_reg14]
     677                    $C$DW$128       .dwtag  DW_TAG_variable, DW_AT_name("$O$v1")
     678                            .dwattr $C$DW$128, DW_AT_TI_symbol_name("$O$v1")
     679                            .dwattr $C$DW$128, DW_AT_type(*$C$DW$T$45)
     680                            .dwattr $C$DW$128, DW_AT_location[DW_OP_reg26]
     681                    $C$DW$129       .dwtag  DW_TAG_variable, DW_AT_name("$O$v2")
     682                            .dwattr $C$DW$129, DW_AT_TI_symbol_name("$O$v2")
     683                            .dwattr $C$DW$129, DW_AT_type(*$C$DW$T$156)
     684                            .dwattr $C$DW$129, DW_AT_location[DW_OP_reg22]
     685                    $C$DW$130       .dwtag  DW_TAG_variable, DW_AT_name("$O$v2")
     686                            .dwattr $C$DW$130, DW_AT_TI_symbol_name("$O$v2")
     687                            .dwattr $C$DW$130, DW_AT_type(*$C$DW$T$156)
     688                            .dwattr $C$DW$130, DW_AT_location[DW_OP_reg20]
     689 00000010 05000028!            MVKL    .S1     test_cases,A10
     690 00000014 05000068!            MVKH    .S1     test_cases,A10
     691                            .dwpsn  file "./../packages/ti/vlib/src/VLIB_convertUYVYint_to_HSLpl/VLIB_convertUYVYint_to_HS
     692                    ;----------------------------------------------------------------------
     693                    ;  45 | UYVYint_to_HSLpl_getTestParams(&prm, &test_cases);                     
     694                    ;----------------------------------------------------------------------
     695 00000018     e636             ADDAW   .D1X    SP,7,A4           ; |45| 
     696                    $C$DW$131       .dwtag  DW_TAG_TI_branch
     697                            .dwattr $C$DW$131, DW_AT_low_pc(0x00)
     698                            .dwattr $C$DW$131, DW_AT_name("UYVYint_to_HSLpl_getTestParams")
     699                            .dwattr $C$DW$131, DW_AT_TI_call
     700                    
     701 00000020 10000012!            CALLP   .S2     UYVYint_to_HSLpl_getTestParams,B3
     702 0000001a     9507  ||         MV      .L2X    A10,B4            ; |45| 
     703                    
     704 00000024           $C$RL0:    ; CALL OCCURS {UYVYint_to_HSLpl_getTestParams} {0}  ; |45| 
     705                    ;** --------------------------------------------------------------------------*
     706                    ;          EXCLUSIVE CPU CYCLES: 8
     707 00000024 0200002a!            MVKL    .S2     $C$SL1+0,B4
     708 00000028 0200006a!            MVKH    .S2     $C$SL1+0,B4
     709                    $C$DW$132       .dwtag  DW_TAG_TI_branch
     710                            .dwattr $C$DW$132, DW_AT_low_pc(0x00)
     711                            .dwattr $C$DW$132, DW_AT_name("VLIB_profile_init")
     712                            .dwattr $C$DW$132, DW_AT_TI_call
     713                    
     714 0000002c 10000013!            CALLP   .S2     VLIB_profile_init,B3
     715 00000030     4626  ||         MVK     .L1     0x2,A4            ; |48| 
TMS320C6x Assembler PC v7.4.2 Thu Mar 19 12:40:19 2015

Tools Copyright (c) 1996-2012 Texas Instruments Incorporated
package/lib/Regression/regress_d_c/./../packages/ti/vlib/src/VLIB_convertUYVYint_to_HSLpl/VLIB_convertUYVYint_to_HSLpl_d.se66 PAGE   14

     716                    
     717                            .dwpsn  file "./../packages/ti/vlib/src/VLIB_convertUYVYint_to_HSLpl/VLIB_convertUYVYint_to_HS
     718                    ;----------------------------------------------------------------------
     719                    ;  48 | VLIB_profile_init(2, "VLIB_convertUYVYint_to_HSLpl");                  
     720                    ;----------------------------------------------------------------------
     721 00000032           $C$RL1:    ; CALL OCCURS {VLIB_profile_init} {0}  ; |48| 
     722                    ;** --------------------------------------------------------------------------*
     723                    ;          EXCLUSIVE CPU CYCLES: 13
     724                    ;**     -----------------------    K$57 = &desc[0];
     725                    ;**     -----------------------    K$59 = &testPatternString[0];
     726                    ;**     -----------------------    K$66 = 255;
     727                    ;**     -----------------------    U$12 = prm-40;
     728                    ;**     -----------------------    K$32 = 1020u;
     729                    ;**     -----------------------    U$11 = 0;
     730                    ;** 51  -----------------------    tpi = 0;
     731                    ;**     -----------------------    #pragma LOOP_FLAGS(5120u)
     732                    
     733 00000032     6506             MV      .L1     A10,A3            ; |48| 
     734 00000034 033ce2e6  ||         LDW     .D2T2   *+SP(28),B6
     735                    
     736                            .dwpsn  file "./../packages/ti/vlib/src/VLIB_convertUYVYint_to_HSLpl/VLIB_convertUYVYint_to_HS
     737                    ;----------------------------------------------------------------------
     738                    ;  51 | for( tpi=0; tpi < test_cases; tpi++ ) {                                
     739                    ;----------------------------------------------------------------------
     740 00000038 018c0264             LDW     .D1T1   *A3,A3            ; |51| 
     741 00000040 02001428             MVK     .S1     40,A4
     742                            .dwpsn  file "./../packages/ti/vlib/src/VLIB_convertUYVYint_to_HSLpl/VLIB_convertUYVYint_to_HS
     743                    ;----------------------------------------------------------------------
     744                    ;  54 | int32_t    status_nat_vs_int = vlib_KERNEL_PASS; /* Test status : Natur
     745                    ;     | al c vs. Optimized */                                                  
     746                    ;  55 | int32_t    status_nat_vs_ref = vlib_KERNEL_PASS; /* Test status : Natur
     747                    ;     | al c vs. Static Reference */                                           
     748                    ;  58 | uint32_t    inp_size   =  prm[tpi].pitch * prm[tpi].height * 2;        
     749                    ;  59 | uint32_t    out_size   =  prm[tpi].width * prm[tpi].height;            
     750                    ;  60 | uint32_t    div_table_size = 510;                                      
     751                    ;----------------------------------------------------------------------
     752 00000044 0580a35a             ZERO    .L2     B11               ; |51| 
     753 00000048 0700a358             ZERO    .L1     A14               ; |51| 
     754 0000004c 0690d2f8             SUB     .L1X    B6,A4,A13
     755                    
     756 00000050 000c0ad9             CMPGT   .L1     A3,0,A0           ; |51| 
     757 00000054 06801450  ||         ADDK    .S1     40,A13            ; |59| 
     758                    
     759 00000058 d000da11     [!A0]   B       .S1     $C$L11            ; |51| 
     760 0000005c c5352264  || [ A0]   LDW     .D1T1   *+A13(36),A10     ; |59| 
     761                    
     762                            .dwpsn  file "./../packages/ti/vlib/src/VLIB_convertUYVYint_to_HSLpl/VLIB_convertUYVYint_to_HS
     763                    ;----------------------------------------------------------------------
     764                    ;  63 | uint8_t    *yc    = (uint8_t *) VLIB_memalign(8, inp_size);            
     765                    ;----------------------------------------------------------------------
     766 00000060 c2350266     [ A0]   LDW     .D1T2   *+A13(32),B4      ; |63| 
     767 00000064 c220a358     [ A0]   MVK     .L1     0x8,A4            ; |63| 
     768                            .dwpsn  file "./../packages/ti/vlib/src/VLIB_convertUYVYint_to_HSLpl/VLIB_convertUYVYint_to_HS
     769 00000068 c5b4e264     [ A0]   LDW     .D1T1   *+A13(28),A11     ; |59| 
     770 0000006c 00002000             NOP             2
TMS320C6x Assembler PC v7.4.2 Thu Mar 19 12:40:19 2015

Tools Copyright (c) 1996-2012 Texas Instruments Incorporated
package/lib/Regression/regress_d_c/./../packages/ti/vlib/src/VLIB_convertUYVYint_to_HSLpl/VLIB_convertUYVYint_to_HSLpl_d.se66 PAGE   15

     771                            .dwpsn  file "./../packages/ti/vlib/src/VLIB_convertUYVYint_to_HSLpl/VLIB_convertUYVYint_to_HS
     772                               ; BRANCHCC OCCURS {$C$L11}        ; |51| 
     773                    ;** --------------------------------------------------------------------------*
     774                    ;**   BEGIN LOOP $C$L1
     775                    ;** --------------------------------------------------------------------------*
     776 00000070           $C$L1:    
     777                            .dwpsn  file "./../packages/ti/vlib/src/VLIB_convertUYVYint_to_HSLpl/VLIB_convertUYVYint_to_HS
     778                    $C$DW$L$VLIB_convertUYVYint_to_HSLpl_d$4$B:
     779                    ;          EXCLUSIVE CPU CYCLES: 6
     780                    ;**     -----------------------g3:
     781                    ;** 59  -----------------------    C$7 = (*(U$12 += 40)).height;
     782                    ;** 59  -----------------------    out_size = (*U$12).width*C$7;
     783                    ;** 63  -----------------------    yc = VLIB_memalign(8u, (*U$12).pitch*C$7*2u);
     784                    ;** 64  -----------------------    C$6 = out_size*2u;
     785                    ;** 64  -----------------------    H = VLIB_memalign(8u, C$6);
     786                    ;** 65  -----------------------    S = VLIB_memalign(8u, out_size);
     787                    ;** 66  -----------------------    L = VLIB_memalign(8u, out_size);
     788                    ;** 67  -----------------------    U$23 = C$6;
     789                    ;** 67  -----------------------    H_cn = malloc(U$23);
     790                    ;** 68  -----------------------    S_cn = malloc(out_size);
     791                    ;** 69  -----------------------    L_cn = malloc(out_size);
     792                    ;** 70  -----------------------    coeff = VLIB_malloc(10u);
     793                    ;** 71  -----------------------    div_table = VLIB_malloc(K$32);
     794                    ;** 74  -----------------------    if ( !((yc == NULL)|(H == NULL)|(S == NULL)|(L == NULL)|(H_cn == NU
     795                    $C$DW$133       .dwtag  DW_TAG_TI_branch
     796                            .dwattr $C$DW$133, DW_AT_low_pc(0x00)
     797                            .dwattr $C$DW$133, DW_AT_name("VLIB_memalign")
     798                            .dwattr $C$DW$133, DW_AT_TI_call
     799                    
     800 00000070 00000011!            CALL    .S1     VLIB_memalign     ; |63| 
     801 00000074 02289802  ||         MPY32   .M2X    A10,B4,B4         ; |63| 
     802                    
     803                            .dwpsn  file "./../packages/ti/vlib/src/VLIB_convertUYVYint_to_HSLpl/VLIB_convertUYVYint_to_HS
     804 00000078 01894162             ADDKPC  .S2     $C$RL2,B3,2       ; |63| 
     805 0000007c 0210807a             ADD     .L2     B4,B4,B4          ; |63| 
     806 00000080 00000000             NOP             1
     807 00000084           $C$RL2:    ; CALL OCCURS {VLIB_memalign} {0}  ; |63| 
     808 00000084           $C$DW$L$VLIB_convertUYVYint_to_HSLpl_d$4$E:
     809                    ;** --------------------------------------------------------------------------*
     810 00000084           $C$DW$L$VLIB_convertUYVYint_to_HSLpl_d$5$B:
     811                    ;          EXCLUSIVE CPU CYCLES: 54
     812                            .dwpsn  file "./../packages/ti/vlib/src/VLIB_convertUYVYint_to_HSLpl/VLIB_convertUYVYint_to_HS
     813 00000084 05ad4800             MPY32   .M1     A10,A11,A11       ; |59| 
     814                            .dwpsn  file "./../packages/ti/vlib/src/VLIB_convertUYVYint_to_HSLpl/VLIB_convertUYVYint_to_HS
     815 00000088     8e45             STW     .D2T1   A4,*+SP(64)       ; |63| 
     816                            .dwpsn  file "./../packages/ti/vlib/src/VLIB_convertUYVYint_to_HSLpl/VLIB_convertUYVYint_to_HS
     817                    ;----------------------------------------------------------------------
     818                    ;  64 | uint16_t   *H     = (uint16_t *) VLIB_memalign(8, out_size * sizeof(uin
     819                    ;     | t16_t));                                                               
     820                    ;----------------------------------------------------------------------
     821 0000008a     0e26             MVK     .L1     0x8,A4            ; |64| 
     822 0000008c 00000000             NOP             1
     823 00000090 052d6078             ADD     .L1     A11,A11,A10       ; |64| 
     824 00000094     0c6e             NOP             1
     825                    $C$DW$134       .dwtag  DW_TAG_TI_branch
TMS320C6x Assembler PC v7.4.2 Thu Mar 19 12:40:19 2015

Tools Copyright (c) 1996-2012 Texas Instruments Incorporated
package/lib/Regression/regress_d_c/./../packages/ti/vlib/src/VLIB_convertUYVYint_to_HSLpl/VLIB_convertUYVYint_to_HSLpl_d.se66 PAGE   16

     826                            .dwattr $C$DW$134, DW_AT_low_pc(0x00)
     827                            .dwattr $C$DW$134, DW_AT_name("VLIB_memalign")
     828                            .dwattr $C$DW$134, DW_AT_TI_call
     829                    
     830 00000098 10000012!            CALLP   .S2     VLIB_memalign,B3
     831 00000096     9507  ||         MV      .L2X    A10,B4            ; |64| 
     832                    
     833                    $C$RL3:    ; CALL OCCURS {VLIB_memalign} {0}  ; |64| 
     834                    $C$DW$135       .dwtag  DW_TAG_TI_branch
     835                            .dwattr $C$DW$135, DW_AT_low_pc(0x00)
     836                            .dwattr $C$DW$135, DW_AT_name("VLIB_memalign")
     837                            .dwattr $C$DW$135, DW_AT_TI_call
     838                    
     839 000000a0 10000013!            CALLP   .S2     VLIB_memalign,B3
     840 000000a4 022c1fdb  ||         MV      .L2X    A11,B4            ; |65| 
     841 000000a8 023de2f5  ||         STW     .D2T1   A4,*+SP(60)       ; |64| 
     842 000000ac 0220a358  ||         MVK     .L1     0x8,A4            ; |65| 
     843                    
     844                            .dwpsn  file "./../packages/ti/vlib/src/VLIB_convertUYVYint_to_HSLpl/VLIB_convertUYVYint_to_HS
     845                    ;----------------------------------------------------------------------
     846                    ;  65 | uint8_t    *S     = (uint8_t *) VLIB_memalign(8, out_size);            
     847                    ;----------------------------------------------------------------------
     848                    $C$RL4:    ; CALL OCCURS {VLIB_memalign} {0}  ; |65| 
     849                    $C$DW$136       .dwtag  DW_TAG_TI_branch
     850                            .dwattr $C$DW$136, DW_AT_low_pc(0x00)
     851                            .dwattr $C$DW$136, DW_AT_name("VLIB_memalign")
     852                            .dwattr $C$DW$136, DW_AT_TI_call
     853                    
     854 000000b0 10000013!            CALLP   .S2     VLIB_memalign,B3
     855 000000b4 022c1fdb  ||         MV      .L2X    A11,B4            ; |66| 
     856 000000b8 023dc2f5  ||         STW     .D2T1   A4,*+SP(56)       ; |65| 
     857 000000bc 0220a358  ||         MVK     .L1     0x8,A4            ; |66| 
     858                    
     859                            .dwpsn  file "./../packages/ti/vlib/src/VLIB_convertUYVYint_to_HSLpl/VLIB_convertUYVYint_to_HS
     860                    ;----------------------------------------------------------------------
     861                    ;  66 | uint8_t    *L     = (uint8_t *) VLIB_memalign(8, out_size);            
     862                    ;----------------------------------------------------------------------
     863                    $C$RL5:    ; CALL OCCURS {VLIB_memalign} {0}  ; |66| 
     864                    $C$DW$137       .dwtag  DW_TAG_TI_branch
     865                            .dwattr $C$DW$137, DW_AT_low_pc(0x00)
     866                            .dwattr $C$DW$137, DW_AT_name("malloc")
     867                            .dwattr $C$DW$137, DW_AT_TI_call
     868                    
     869 000000c0 10000013!            CALLP   .S2     malloc,B3
     870 000000c4 023da2f5  ||         STW     .D2T1   A4,*+SP(52)       ; |66| 
     871 000000c8 02280fd8  ||         MV      .L1     A10,A4            ; |67| 
     872                    
     873                            .dwpsn  file "./../packages/ti/vlib/src/VLIB_convertUYVYint_to_HSLpl/VLIB_convertUYVYint_to_HS
     874                    ;----------------------------------------------------------------------
     875                    ;  67 | uint16_t   *H_cn  = (uint16_t *) malloc(out_size * sizeof(uint16_t));  
     876                    ;----------------------------------------------------------------------
     877                    $C$RL6:    ; CALL OCCURS {malloc} {0}        ; |67| 
     878                    $C$DW$138       .dwtag  DW_TAG_TI_branch
     879                            .dwattr $C$DW$138, DW_AT_low_pc(0x00)
     880                            .dwattr $C$DW$138, DW_AT_name("malloc")
TMS320C6x Assembler PC v7.4.2 Thu Mar 19 12:40:19 2015

Tools Copyright (c) 1996-2012 Texas Instruments Incorporated
package/lib/Regression/regress_d_c/./../packages/ti/vlib/src/VLIB_convertUYVYint_to_HSLpl/VLIB_convertUYVYint_to_HSLpl_d.se66 PAGE   17

     881                            .dwattr $C$DW$138, DW_AT_TI_call
     882                    
     883 000000cc 10000013!            CALLP   .S2     malloc,B3
     884 000000d0 023d82f5  ||         STW     .D2T1   A4,*+SP(48)       ; |67| 
     885 000000d4 022c0fd9  ||         MV      .L1     A11,A4            ; |68| 
     886                    
     887                            .dwpsn  file "./../packages/ti/vlib/src/VLIB_convertUYVYint_to_HSLpl/VLIB_convertUYVYint_to_HS
     888                    ;----------------------------------------------------------------------
     889                    ;  68 | uint8_t    *S_cn  = (uint8_t *) malloc(out_size);                      
     890                    ;----------------------------------------------------------------------
     891                    $C$RL7:    ; CALL OCCURS {malloc} {0}        ; |68| 
     892                    $C$DW$139       .dwtag  DW_TAG_TI_branch
     893                            .dwattr $C$DW$139, DW_AT_low_pc(0x00)
     894                            .dwattr $C$DW$139, DW_AT_name("malloc")
     895                            .dwattr $C$DW$139, DW_AT_TI_call
     896                    
     897 000000e0 10000013!            CALLP   .S2     malloc,B3
     898 000000e4 023d62f5  ||         STW     .D2T1   A4,*+SP(44)       ; |68| 
     899 000000e8 022c0fd8  ||         MV      .L1     A11,A4            ; |69| 
     900                    
     901                            .dwpsn  file "./../packages/ti/vlib/src/VLIB_convertUYVYint_to_HSLpl/VLIB_convertUYVYint_to_HS
     902                    ;----------------------------------------------------------------------
     903                    ;  69 | uint8_t    *L_cn  = (uint8_t *) malloc(out_size);                      
     904                    ;----------------------------------------------------------------------
     905                    $C$RL8:    ; CALL OCCURS {malloc} {0}        ; |69| 
     906                    $C$DW$140       .dwtag  DW_TAG_TI_branch
     907                            .dwattr $C$DW$140, DW_AT_low_pc(0x00)
     908                            .dwattr $C$DW$140, DW_AT_name("VLIB_malloc")
     909                            .dwattr $C$DW$140, DW_AT_TI_call
     910                    
     911 000000ec 10000013!            CALLP   .S2     VLIB_malloc,B3
     912 000000f0 023d42f5  ||         STW     .D2T1   A4,*+SP(40)       ; |69| 
     913 000000f4 0228a359  ||         MVK     .L1     0xa,A4            ; |70| 
     914                    
     915                            .dwpsn  file "./../packages/ti/vlib/src/VLIB_convertUYVYint_to_HSLpl/VLIB_convertUYVYint_to_HS
     916                    ;----------------------------------------------------------------------
     917                    ;  70 | int16_t    *coeff = (int16_t *) VLIB_malloc(5 * sizeof(int16_t));      
     918                    ;----------------------------------------------------------------------
     919                    $C$RL9:    ; CALL OCCURS {VLIB_malloc} {0}   ; |70| 
     920                    $C$DW$141       .dwtag  DW_TAG_TI_branch
     921                            .dwattr $C$DW$141, DW_AT_low_pc(0x00)
     922                            .dwattr $C$DW$141, DW_AT_name("VLIB_malloc")
     923                            .dwattr $C$DW$141, DW_AT_TI_call
     924                    
     925 00000100 10000013!            CALLP   .S2     VLIB_malloc,B3
     926 00000108     ad45  ||         STW     .D2T1   A4,*+SP(36)       ; |70| 
     927 00000104 0201fe29  ||         MVK     .S1     0x3fc,A4
     928                    
     929                            .dwpsn  file "./../packages/ti/vlib/src/VLIB_convertUYVYint_to_HSLpl/VLIB_convertUYVYint_to_HS
     930                    ;----------------------------------------------------------------------
     931                    ;  71 | uint16_t   *div_table = (uint16_t *) VLIB_malloc(div_table_size * sizeo
     932                    ;     | f(uint16_t));                                                          
     933                    ;----------------------------------------------------------------------
     934 0000010a           $C$RL10:   ; CALL OCCURS {VLIB_malloc} {0}   ; |71| 
     935 0000010a           $C$DW$L$VLIB_convertUYVYint_to_HSLpl_d$5$E:
TMS320C6x Assembler PC v7.4.2 Thu Mar 19 12:40:19 2015

Tools Copyright (c) 1996-2012 Texas Instruments Incorporated
package/lib/Regression/regress_d_c/./../packages/ti/vlib/src/VLIB_convertUYVYint_to_HSLpl/VLIB_convertUYVYint_to_HSLpl_d.se66 PAGE   18

     936                    ;** --------------------------------------------------------------------------*
     937 0000010a           $C$DW$L$VLIB_convertUYVYint_to_HSLpl_d$6$B:
     938                    ;          EXCLUSIVE CPU CYCLES: 24
     939                    
     940 0000010a     cdad             LDW     .D2T1   *+SP(56),A2       ; |74| 
     941 0000010c     0627  ||         ZERO    .L2     B4                ; |74| 
     942 0000010e     0313  ||         ZERO    .S2     B6                ; |74| 
     943 00000110     05a6  ||         ZERO    .L1     A3                ; |74| 
     944                    
     945 00000112     8e0d             LDW     .D2T1   *+SP(64),A0       ; |74| 
     946 00000118     06a7  ||         ZERO    .L2     B5                ; |74| 
     947 00000114 062816a3  ||         MV      .S2X    A10,B12           ; |67| 
     948                    
     949                            .dwpsn  file "./../packages/ti/vlib/src/VLIB_convertUYVYint_to_HSLpl/VLIB_convertUYVYint_to_HS
     950                    ;----------------------------------------------------------------------
     951                    ;  74 | if( yc && H && S && L && H_cn && S_cn && L_cn && coeff && div_table ) {
     952                    ;  76 |     int32_t    fail, i;                                                
     953                    ;----------------------------------------------------------------------
     954 0000011a     fd8d             LDW     .D2T2   *+SP(60),B0       ; |74| 
     955 00000120     ad9d             LDW     .D2T1   *+SP(52),A1       ; |74| 
     956 00000122     9dad             LDW     .D2T2   *+SP(48),B2       ; |74| 
     957                    
     958 00000124 b204a35b     [!A2]   MVK     .L2     0x1,B4            ; |74| 
     959 00000128     ed2d  ||         LDW     .D2T1   *+SP(44),A2       ; |74| 
     960                    
     961 0000012a     6b67     [!A0]   MVK     .L2     0x1,B6            ; |74| 
     962 0000012c     dd1d  ||         LDW     .D2T2   *+SP(40),B1       ; |74| 
     963                    
     964 0000012e     eae7     [!B0]   MVK     .L2     0x1,B5            ; |74| 
     965 00000130     8d45  ||         STW     .D2T1   A4,*+SP(32)       ; |71| 
     966 00000132     0626  ||         ZERO    .L1     A4                ; |74| 
     967                    
     968 00000134 0318affb             OR      .L2     B5,B6,B6          ; |74| 
     969 00000138     0293  ||         ZERO    .S2     B5                ; |74| 
     970                    
     971 00000140 9284a35b     [!A1]   MVK     .L2     0x1,B5            ; |74| 
     972 0000013a     ad1d  ||         LDW     .D2T1   *+SP(36),A1       ; |74| 
     973 00000144 021886e3  ||         OR      .S2     B4,B6,B4          ; |74| 
     974 00000148 7204a358  || [!B2]   MVK     .L1     0x1,A4            ; |74| 
     975                    
     976 0000014c 0290affb             OR      .L2     B5,B4,B5          ; |74| 
     977 00000150     0213  ||         ZERO    .S2     B4                ; |74| 
     978                    
     979 00000154 b204a35b     [!A2]   MVK     .L2     0x1,B4            ; |74| 
     980 00000152     8d2d  ||         LDW     .D2T1   *+SP(32),A2       ; |74| 
     981 00000158 0290b6e3  ||         OR      .S2X    A4,B5,B5          ; |74| 
     982 00000160 5184a358  || [!B1]   MVK     .L1     0x1,A3            ; |74| 
     983                    
     984 00000164 02948ffb             OR      .L2     B4,B5,B5          ; |74| 
     985 00000168     0213  ||         ZERO    .S2     B4                ; |74| 
     986                    
     987 0000016c 028cbffa             OR      .L2X    A3,B5,B5          ; |74| 
     988 0000016a     05a6  ||         ZERO    .L1     A3                ; |74| 
     989                    
     990 00000170 9204a35a     [!A1]   MVK     .L2     0x1,B4            ; |74| 
TMS320C6x Assembler PC v7.4.2 Thu Mar 19 12:40:19 2015

Tools Copyright (c) 1996-2012 Texas Instruments Incorporated
package/lib/Regression/regress_d_c/./../packages/ti/vlib/src/VLIB_convertUYVYint_to_HSLpl/VLIB_convertUYVYint_to_HSLpl_d.se66 PAGE   19

     991 00000174 02148ffa             OR      .L2     B4,B5,B4          ; |74| 
     992 00000178 b184a358     [!A2]   MVK     .L1     0x1,A3            ; |74| 
     993 00000180 00107ff8             OR      .L1X    A3,B4,A0          ; |74| 
     994                    
     995 00000188 d2350265     [!A0]   LDW     .D1T1   *+A13(32),A4      ; |79| 
     996 00000184 d0001091  || [!A0]   B       .S1     $C$L2             ; |74| 
     997 0000018c d2007faa  || [!A0]   MVK     .S2     0xff,B4
     998                    
     999 00000190 d2b64205     [!A0]   LDHU    .D1T1   *+A13(36),A5      ; |79| 
    1000 00000194 d6000028! || [!A0]   MVKL    .S1     testPatternString,A12
    1001                    
    1002 00000198 d3342267     [!A0]   LDW     .D1T2   *+A13(4),B6       ; |79| 
    1003 0000019c d33e02e4  || [!A0]   LDW     .D2T1   *+SP(64),A6       ; |79| 
    1004                    
    1005                            .dwpsn  file "./../packages/ti/vlib/src/VLIB_convertUYVYint_to_HSLpl/VLIB_convertUYVYint_to_HS
    1006                    ;----------------------------------------------------------------------
    1007                    ;  79 | VLIB_fillBuffer(prm[tpi].testPattern,                                  
    1008                    ;  80 |                 (uint8_t)255,                                          
    1009                    ;  81 |                 yc, prm[tpi].staticIn,                                 
    1010                    ;  82 |                 prm[tpi].width, prm[tpi].height, prm[tpi].pitch * 2,   
    1011                    ;  83 |                 sizeof(uint16_t), testPatternString);                  
    1012                    ;  85 | for( i=0; i < 5; i++ ) {                                               
    1013                    ;  86 |     coeff[i] = prm[tpi].coeff[i];                                      
    1014                    ;  89 | for( i=0; i < div_table_size; i++ ) {                                  
    1015                    ;  90 |     div_table[i] = prm[tpi].div_table[i];                              
    1016                    ;  94 | VLIB_profile_start(vlib_KERNEL_OPT);                                   
    1017                    ;  95 | VLIB_convertUYVYint_to_HSLpl(yc, prm[tpi].width, prm[tpi].pitch, prm[tp
    1018                    ;     | i].height, coeff, div_table, H, S, L);                                 
    1019                    ;  96 | VLIB_profile_stop();                                                   
    1020                    ;  99 | VLIB_profile_start(vlib_KERNEL_CN);                                    
    1021                    ; 100 | VLIB_convertUYVYint_to_HSLpl_cn(yc, prm[tpi].width, prm[tpi].pitch, prm
    1022                    ;     | [tpi].height, coeff, div_table, H_cn, S_cn, L_cn);                     
    1023                    ; 101 | VLIB_profile_stop();                                                   
    1024                    ; 105 | if( VLIB_compare_mem((void *) H, (void *)H_cn, out_size * sizeof(uint16
    1025                    ;     | _t)) == vlib_KERNEL_FAIL ||                                            
    1026                    ; 106 |     VLIB_compare_mem((void *) S, (void *)S_cn, out_size) == vlib_KERNEL
    1027                    ;     | _FAIL ||                                                               
    1028                    ; 107 |     VLIB_compare_mem((void *) L, (void *)L_cn, out_size) == vlib_KERNEL
    1029                    ;     | _FAIL ) {                                                              
    1030                    ; 108 |     status_nat_vs_int = vlib_KERNEL_FAIL;                              
    1031                    ; 109 | } else {                                                               
    1032                    ; 110 |     status_nat_vs_int = vlib_KERNEL_PASS;                              
    1033                    ; 114 | if( prm[tpi].staticOutH != NULL &&                                     
    1034                    ; 115 |     prm[tpi].staticOutS != NULL &&                                     
    1035                    ; 116 |     prm[tpi].staticOutL != NULL ) {                                    
    1036                    ; 118 |     if( VLIB_compare_mem((void *) prm[tpi].staticOutH, (void *)H_cn, ou
    1037                    ;     | t_size * sizeof(uint16_t)) == vlib_KERNEL_FAIL ||                      
    1038                    ; 119 |         VLIB_compare_mem((void *) prm[tpi].staticOutS, (void *)S_cn, ou
    1039                    ;     | t_size) == vlib_KERNEL_FAIL ||                                         
    1040                    ; 120 |         VLIB_compare_mem((void *) prm[tpi].staticOutL, (void *)L_cn, ou
    1041                    ;     | t_size) == vlib_KERNEL_FAIL ) {                                        
    1042                    ; 121 |         status_nat_vs_ref = vlib_KERNEL_FAIL;                          
    1043                    ; 122 |     } else {                                                           
    1044                    ; 123 |         status_nat_vs_ref = vlib_KERNEL_PASS;                          
    1045                    ; 128 | fail = ((status_nat_vs_int == vlib_KERNEL_FAIL) || (status_nat_vs_ref =
TMS320C6x Assembler PC v7.4.2 Thu Mar 19 12:40:19 2015

Tools Copyright (c) 1996-2012 Texas Instruments Incorporated
package/lib/Regression/regress_d_c/./../packages/ti/vlib/src/VLIB_convertUYVYint_to_HSLpl/VLIB_convertUYVYint_to_HSLpl_d.se66 PAGE   20

    1046                    ;     | = vlib_KERNEL_FAIL)) ? 1 : 0;                                          
    1047                    ; 130 | est_test=1;                                                            
    1048                    ; 133 | sprintf(desc, "%s generated input | Opt results compared to NatC result
    1049                    ;     | s | width=%d, pitch=%d, height=%d, num_pts=%d",                        
    1050                    ; 134 |         testPatternString, prm[tpi].width, prm[tpi].pitch, prm[tpi].hei
    1051                    ;     | ght, out_size);                                                        
    1052                    ; 135 | VLIB_formula_add_test(out_size, NULL, NULL, fail, desc, NULL);         
    1053                    ; 137 | } else {                                                               
    1054                    ;----------------------------------------------------------------------
    1055 000001a0 d435c204     [!A0]   LDHU    .D1T1   *+A13(28),A8      ; |79| 
    1056                    $C$DW$142       .dwtag  DW_TAG_TI_branch
    1057                            .dwattr $C$DW$142, DW_AT_low_pc(0x00)
    1058                            .dwattr $C$DW$142, DW_AT_name("VLIB_fillBuffer")
    1059                            .dwattr $C$DW$142, DW_AT_TI_call
    1060 000001a4 d0000010!    [!A0]   CALL    .S1     VLIB_fillBuffer   ; |79| 
    1061                    
    1062 000001a8 05123009             EXTU    .S1     A4,17,16,A10      ; |79| 
    1063 000001ac d2340214  || [!A0]   LDBU    .D1T1   *A13,A4           ; |79| 
    1064                    
    1065                            .dwpsn  file "./../packages/ti/vlib/src/VLIB_convertUYVYint_to_HSLpl/VLIB_convertUYVYint_to_HS
    1066                               ; BRANCHCC OCCURS {$C$L2}         ; |74| 
    1067 000001b0           $C$DW$L$VLIB_convertUYVYint_to_HSLpl_d$6$E:
    1068                    ;** --------------------------------------------------------------------------*
    1069 000001b0           $C$DW$L$VLIB_convertUYVYint_to_HSLpl_d$7$B:
    1070                    ;          EXCLUSIVE CPU CYCLES: 8
    1071                    ;** 139 -----------------------    sprintf(K$57, (const char *)"width=%d, pitch=%d, height=%d, num_pts
    1072                    ;** 141 -----------------------    VLIB_skip_test(K$57);
    1073                    ;** 141 -----------------------    goto g19;
    1074                    
    1075 000001b0 02350265             LDW     .D1T1   *+A13(32),A4      ; |139| 
    1076 000001b4 0200002a! ||         MVKL    .S2     $C$SL2+0,B4
    1077                    
    1078 000001b8 02b4e265             LDW     .D1T1   *+A13(28),A5      ; |139| 
    1079 000001bc 0200006a! ||         MVKH    .S2     $C$SL2+0,B4
    1080                    
    1081                    $C$DW$143       .dwtag  DW_TAG_TI_branch
    1082                            .dwattr $C$DW$143, DW_AT_low_pc(0x00)
    1083                            .dwattr $C$DW$143, DW_AT_name("sprintf")
    1084                            .dwattr $C$DW$143, DW_AT_TI_call
    1085                    
    1086 000001c0 00000011!            CALL    .S1     sprintf           ; |139| 
    1087 000001c4 01b52264  ||         LDW     .D1T1   *+A13(36),A3      ; |139| 
    1088                    
    1089                            .dwpsn  file "./../packages/ti/vlib/src/VLIB_convertUYVYint_to_HSLpl/VLIB_convertUYVYint_to_HS
    1090                    ;----------------------------------------------------------------------
    1091                    ; 139 | sprintf(desc, "width=%d, pitch=%d, height=%d, num_pts=%d",             
    1092                    ; 140 |         prm[tpi].width, prm[tpi].pitch, prm[tpi].height, out_size);    
    1093                    ;----------------------------------------------------------------------
    1094 000001c8 023c22f6             STW     .D2T2   B4,*+SP(4)        ; |139| 
    1095 000001cc 05bca2f4             STW     .D2T1   A11,*+SP(20)      ; |139| 
    1096                    
    1097 000001d4     ec45             STW     .D2T1   A4,*+SP(12)       ; |139| 
    1098 000001d0 02000029! ||         MVKL    .S1     desc,A4
    1099                    
    1100 000001d8 02000068!            MVKH    .S1     desc,A4
TMS320C6x Assembler PC v7.4.2 Thu Mar 19 12:40:19 2015

Tools Copyright (c) 1996-2012 Texas Instruments Incorporated
package/lib/Regression/regress_d_c/./../packages/ti/vlib/src/VLIB_convertUYVYint_to_HSLpl/VLIB_convertUYVYint_to_HSLpl_d.se66 PAGE   21

    1101 000001d6     cc55  ||         STW     .D2T1   A5,*+SP(8)        ; |139| 
    1102                    
    1103 000001e0 01bc82f5             STW     .D2T1   A3,*+SP(16)       ; |139| 
    1104 000001e4 01820162  ||         ADDKPC  .S2     $C$RL11,B3,0      ; |139| 
    1105                    
    1106 000001e8           $C$RL11:   ; CALL OCCURS {sprintf} {0}       ; |139| 
    1107 000001e8           $C$DW$L$VLIB_convertUYVYint_to_HSLpl_d$7$E:
    1108                    ;** --------------------------------------------------------------------------*
    1109 000001e8           $C$DW$L$VLIB_convertUYVYint_to_HSLpl_d$8$B:
    1110                    ;          EXCLUSIVE CPU CYCLES: 7
    1111 000001e8 02000028!            MVKL    .S1     desc,A4
    1112                    $C$DW$144       .dwtag  DW_TAG_TI_branch
    1113                            .dwattr $C$DW$144, DW_AT_low_pc(0x00)
    1114                            .dwattr $C$DW$144, DW_AT_name("VLIB_skip_test")
    1115                            .dwattr $C$DW$144, DW_AT_TI_call
    1116                    
    1117 000001ec 10000013!            CALLP   .S2     VLIB_skip_test,B3
    1118 000001f0 02000068! ||         MVKH    .S1     desc,A4
    1119                    
    1120                            .dwpsn  file "./../packages/ti/vlib/src/VLIB_convertUYVYint_to_HSLpl/VLIB_convertUYVYint_to_HS
    1121                    ;----------------------------------------------------------------------
    1122                    ; 141 | VLIB_skip_test(desc);                                                  
    1123                    ;----------------------------------------------------------------------
    1124 000001f4           $C$RL12:   ; CALL OCCURS {VLIB_skip_test} {0}  ; |141| 
    1125 000001f4           $C$DW$L$VLIB_convertUYVYint_to_HSLpl_d$8$E:
    1126                    ;** --------------------------------------------------------------------------*
    1127 000001f4           $C$DW$L$VLIB_convertUYVYint_to_HSLpl_d$9$B:
    1128                    ;          EXCLUSIVE CPU CYCLES: 6
    1129 000001f4 00009610             B       .S1     $C$L10            ; |141| 
    1130                            .dwpsn  file "./../packages/ti/vlib/src/VLIB_convertUYVYint_to_HSLpl/VLIB_convertUYVYint_to_HS
    1131                    ;----------------------------------------------------------------------
    1132                    ; 145 | VLIB_free(div_table);                                                  
    1133                    ;----------------------------------------------------------------------
    1134                    $C$DW$145       .dwtag  DW_TAG_TI_branch
    1135                            .dwattr $C$DW$145, DW_AT_low_pc(0x00)
    1136                            .dwattr $C$DW$145, DW_AT_name("VLIB_free")
    1137                            .dwattr $C$DW$145, DW_AT_TI_call
    1138 000001f8 00000010!            CALL    .S1     VLIB_free         ; |145| 
    1139 000001fc 023d02e4             LDW     .D2T1   *+SP(32),A4       ; |145| 
    1140 00000200 00004000             NOP             3
    1141                            .dwpsn  file "./../packages/ti/vlib/src/VLIB_convertUYVYint_to_HSLpl/VLIB_convertUYVYint_to_HS
    1142                               ; BRANCH OCCURS {$C$L10}          ; |141| 
    1143 00000204           $C$DW$L$VLIB_convertUYVYint_to_HSLpl_d$9$E:
    1144                    ;** --------------------------------------------------------------------------*
    1145 00000204           $C$L2:    
    1146 00000204           $C$DW$L$VLIB_convertUYVYint_to_HSLpl_d$10$B:
    1147                    ;          EXCLUSIVE CPU CYCLES: 4
    1148                    ;**     -----------------------g5:
    1149                    ;** 79  -----------------------    VLIB_fillBuffer((*U$12).testPattern, (unsigned char)K$66, (void *)y
    1150                    ;** 86  -----------------------    *coeff = *(*U$12).coeff;
    1151                    ;** 86  -----------------------    coeff[1] = *((*U$12).coeff+2);
    1152                    ;** 86  -----------------------    coeff[2] = *((*U$12).coeff+4);
    1153                    ;** 86  -----------------------    coeff[3] = *((*U$12).coeff+6);
    1154                    ;** 86  -----------------------    coeff[4] = *((*U$12).coeff+8);
    1155                    ;**     -----------------------    U$93 = prm+U$11;
TMS320C6x Assembler PC v7.4.2 Thu Mar 19 12:40:19 2015

Tools Copyright (c) 1996-2012 Texas Instruments Incorporated
package/lib/Regression/regress_d_c/./../packages/ti/vlib/src/VLIB_convertUYVYint_to_HSLpl/VLIB_convertUYVYint_to_HSLpl_d.se66 PAGE   22

    1156                    ;**     -----------------------    U$98 = div_table;
    1157                    ;**     -----------------------    L$1 = 510;
    1158                    ;**     -----------------------    U$92 = 0;
    1159                    ;**     -----------------------    #pragma MUST_ITERATE(510, 510, 510)
    1160                    ;**     -----------------------    #pragma LOOP_FLAGS(4096u)
    1161                    ;**     -----------------------g6:
    1162                    ;** 90  -----------------------    *U$98++ = *((*U$93).div_table+U$92);
    1163                    ;** 89  -----------------------    U$92 += 2;
    1164                    ;** 89  -----------------------    if ( L$1 = L$1-1 ) goto g6;
    1165                    ;** 137 -----------------------    act_kernel = 0;  // [14]
    1166                            .dwpsn  file "./../packages/ti/vlib/src/VLIB_convertUYVYint_to_HSLpl/VLIB_convertUYVYint_to_HS
    1167 00000204 0213180a             EXTU    .S2     B4,24,24,B4       ; |79| 
    1168 00000208 0508a35a             MVK     .L2     0x2,B10           ; |79| 
    1169 0000020c 06000068!            MVKH    .S1     testPatternString,A12
    1170                    
    1171 00000210 01860163             ADDKPC  .S2     $C$RL13,B3,0      ; |79| 
    1172 00000214 04141fda  ||         MV      .L2X    A5,B8             ; |79| 
    1173                    
    1174 00000218           $C$RL13:   ; CALL OCCURS {VLIB_fillBuffer} {0}  ; |79| 
    1175 00000218           $C$DW$L$VLIB_convertUYVYint_to_HSLpl_d$10$E:
    1176                    ;** --------------------------------------------------------------------------*
    1177 00000218           $C$DW$L$VLIB_convertUYVYint_to_HSLpl_d$11$B:
    1178                    ;          EXCLUSIVE CPU CYCLES: 54
    1179                            .dwpsn  file "./../packages/ti/vlib/src/VLIB_convertUYVYint_to_HSLpl/VLIB_convertUYVYint_to_HS
    1180 00000218 0234a266             LDW     .D1T2   *+A13(20),B4      ; |86| 
    1181 0000021c 01bd22e4             LDW     .D2T1   *+SP(36),A3
    1182 00000220 0fbd22e4             LDW     .D2T1   *+SP(36),A31
    1183 00000224 023ce2e4             LDW     .D2T1   *+SP(28),A4
    1184 00000228 0f80ff2a             MVK     .S2     0x1fe,B31
    1185 0000022c     124d             LDH     .D2T2   *B4,B4            ; |86| 
    1186 0000022e     6c6e             NOP             4
    1187 00000230 020c0256             STH     .D1T2   B4,*A3            ; |86| 
    1188 00000234 0234a266             LDW     .D1T2   *+A13(20),B4      ; |86| 
    1189 00000238     6c6e             NOP             4
    1190 0000023a     324d             LDH     .D2T2   *+B4(2),B4        ; |86| 
    1191 00000240 00006000             NOP             4
    1192 00000244 020c2256             STH     .D1T2   B4,*+A3(2)        ; |86| 
    1193 00000248 0234a266             LDW     .D1T2   *+A13(20),B4      ; |86| 
    1194 0000024c 00000000             NOP             4
    1195 0000024c 021042c6             LDH     .D2T2   *+B4(4),B4        ; |86| 
    1196 00000250 00000000             NOP             4
    1197 00000250 020c4256             STH     .D1T2   B4,*+A3(4)        ; |86| 
    1198 00000254 0234a266             LDW     .D1T2   *+A13(20),B4      ; |86| 
    1199 00000258 00000000             NOP             4
    1200 00000258 021062c6             LDH     .D2T2   *+B4(6),B4        ; |86| 
    1201 0000025c 00000000             NOP             4
    1202 00000260 020c6256             STH     .D1T2   B4,*+A3(6)        ; |86| 
    1203 00000264 01b4a264             LDW     .D1T1   *+A13(20),A3      ; |86| 
    1204 00000268 027fe05a             SUB     .L2     B31,1,B4
    1205 0000026c 00004000             NOP             3
    1206 00000270 028c8244             LDH     .D1T1   *+A3(8),A5        ; |86| 
    1207 00000274     6c6e             NOP             4
    1208 00000280           $C$DW$L$VLIB_convertUYVYint_to_HSLpl_d$11$E:
    1209                    ;*----------------------------------------------------------------------------*
    1210                    ;*   SOFTWARE PIPELINE INFORMATION
TMS320C6x Assembler PC v7.4.2 Thu Mar 19 12:40:19 2015

Tools Copyright (c) 1996-2012 Texas Instruments Incorporated
package/lib/Regression/regress_d_c/./../packages/ti/vlib/src/VLIB_convertUYVYint_to_HSLpl/VLIB_convertUYVYint_to_HSLpl_d.se66 PAGE   23

    1211                    ;*
    1212                    ;*      Loop found in file               : ./../packages/ti/vlib/src/VLIB_convertUYVYint_to_HSLpl/VLIB
    1213                    ;*      Loop source line                 : 89
    1214                    ;*      Loop opening brace source line   : 89
    1215                    ;*      Loop closing brace source line   : 91
    1216                    ;*      Known Minimum Trip Count         : 510                    
    1217                    ;*      Known Maximum Trip Count         : 510                    
    1218                    ;*      Known Max Trip Count Factor      : 510
    1219                    ;*      Loop Carried Dependency Bound(^) : 12
    1220                    ;*      Unpartitioned Resource Bound     : 2
    1221                    ;*      Partitioned Resource Bound(*)    : 2
    1222                    ;*      Resource Partition:
    1223                    ;*                                A-side   B-side
    1224                    ;*      .L units                     0        0     
    1225                    ;*      .S units                     0        0     
    1226                    ;*      .D units                     2*       1     
    1227                    ;*      .M units                     0        0     
    1228                    ;*      .X cross paths               1        0     
    1229                    ;*      .T address paths             2*       1     
    1230                    ;*      Long read paths              0        0     
    1231                    ;*      Long write paths             0        0     
    1232                    ;*      Logical  ops (.LS)           0        0     (.L or .S unit)
    1233                    ;*      Addition ops (.LSD)          2        0     (.L or .S or .D unit)
    1234                    ;*      Bound(.L .S .LS)             0        0     
    1235                    ;*      Bound(.L .S .D .LS .LSD)     2*       1     
    1236                    ;*
    1237                    ;*      Searching for software pipeline schedule at ...
    1238                    ;*         ii = 12 Schedule found with 2 iterations in parallel
    1239                    ;*
    1240                    ;*      Register Usage Table:
    1241                    ;*          +-----------------------------------------------------------------+
    1242                    ;*          |AAAAAAAAAAAAAAAAAAAAAAAAAAAAAAAA|BBBBBBBBBBBBBBBBBBBBBBBBBBBBBBBB|
    1243                    ;*          |00000000001111111111222222222233|00000000001111111111222222222233|
    1244                    ;*          |01234567890123456789012345678901|01234567890123456789012345678901|
    1245                    ;*          |--------------------------------+--------------------------------|
    1246                    ;*       0: |    **                          |     *                          |
    1247                    ;*       1: |    **                          |     *                          |
    1248                    ;*       2: |    **                          |     *                          |
    1249                    ;*       3: |    **                          |     *                          |
    1250                    ;*       4: |    **                          |     *                          |
    1251                    ;*       5: |    **                          |    **                          |
    1252                    ;*       6: |   ***                          |     *                          |
    1253                    ;*       7: |    **                          |     *                          |
    1254                    ;*       8: |    **                          |     *                          |
    1255                    ;*       9: |    **                          |     *                          |
    1256                    ;*      10: |    **                          |     *                          |
    1257                    ;*      11: |   ***                          |     *                          |
    1258                    ;*          +-----------------------------------------------------------------+
    1259                    ;*
    1260                    ;*      Done
    1261                    ;*
    1262                    ;*      Loop will be splooped
    1263                    ;*      Collapsed epilog stages       : 0
    1264                    ;*      Collapsed prolog stages       : 0
    1265                    ;*      Minimum required memory pad   : 0 bytes
TMS320C6x Assembler PC v7.4.2 Thu Mar 19 12:40:19 2015

Tools Copyright (c) 1996-2012 Texas Instruments Incorporated
package/lib/Regression/regress_d_c/./../packages/ti/vlib/src/VLIB_convertUYVYint_to_HSLpl/VLIB_convertUYVYint_to_HSLpl_d.se66 PAGE   24

    1266                    ;*
    1267                    ;*      Minimum safe trip count       : 1
    1268                    ;*      Min. prof. trip count  (est.) : 13
    1269                    ;*
    1270                    ;*      Mem bank conflicts/iter(est.) : { min 0.000, est 0.000, max 0.000 }
    1271                    ;*      Mem bank perf. penalty (est.) : 0.0%
    1272                    ;*
    1273                    ;*
    1274                    ;*      Total cycles (est.)         : 12 + min_trip_cnt * 12 = 6132        
    1275                    ;*----------------------------------------------------------------------------*
    1276                    ;*        SINGLE SCHEDULED ITERATION
    1277                    ;*
    1278                    ;*        $C$C79:
    1279                    ;*   0              LDW     .D1T2   *+A5(24),B4       ; |90|  ^ 
    1280                    ;*   1              NOP             4
    1281                    ;*   5              ADD     .L1X    A4,B4,A3          ; |90|  ^ 
    1282                    ;*   6              LDHU    .D1T1   *A3,A3            ; |90|  ^ 
    1283                    ;*   7              NOP             4
    1284                    ;*  11              STH     .D2T1   A3,*B5++          ; |90|  ^ 
    1285                    ;*     ||           ADD     .L1     2,A4,A4           ; |89| Define a twin register
    1286                    ;*     ||           SPBR            $C$C79
    1287                    ;*  12              NOP             9
    1288                    ;*  24              ; BRANCHCC OCCURS {$C$C79}        ; |89| 
    1289                    ;*----------------------------------------------------------------------------*
    1290 00000280           $C$L3:    ; PIPED LOOP PROLOG
    1291                    ;          EXCLUSIVE CPU CYCLES: 13
    1292                    
    1293 00000280     4de7             SPLOOPD 12      ;24               ; (P) 
    1294 00000282     da6f  ||         MVC     .S2     B4,ILC
    1295 00000284 02fc8255  ||         STH     .D1T1   A5,*+A31(8)       ; |86| 
    1296 00000288 02ac9078  ||         ADD     .L1X    B11,A4,A5
    1297                    
    1298                    ;** --------------------------------------------------------------------------*
    1299 0000028c           $C$L4:    ; PIPED LOOP KERNEL
    1300 0000028c           $C$DW$L$VLIB_convertUYVYint_to_HSLpl_d$13$B:
    1301                    ;          EXCLUSIVE CPU CYCLES: 12
    1302                            .dwpsn  file "./../packages/ti/vlib/src/VLIB_convertUYVYint_to_HSLpl/VLIB_convertUYVYint_to_HS
    1303 0000028c     d0cc             LDW     .D1T2   *+A5(24),B4       ; |90| (P) <0,0>  ^ 
    1304 0000028e     4c6e             NOP             3
    1305                    
    1306 00000290     2c67             SPMASK          L1
    1307 00000292     0626  ||         ZERO    .L1     A4
    1308                    
    1309 00000294     9230             ADD     .L1X    A4,B4,A3          ; |90| (P) <0,5>  ^ 
    1310                    
    1311 00000296     ac66             SPMASK          D2
    1312 000002a0     9d5d  ||         LDW     .D2T2   *+SP(32),B5
    1313 00000298 018c0205  ||         LDHU    .D1T1   *A3,A3            ; |90| (P) <0,6>  ^ 
    1314                    
    1315 000002a2     6c6e             NOP             4
    1316                    
    1317 000002a4     4640             ADD     .L1     2,A4,A4           ; |89| (P) <0,11> Define a twin register
    1318 000002a6     0eb5  ||         STH     .D2T1   A3,*B5++          ; |90| (P) <0,11>  ^ 
    1319                    
    1320 000002a8     1c66             SPKERNEL 0,0
TMS320C6x Assembler PC v7.4.2 Thu Mar 19 12:40:19 2015

Tools Copyright (c) 1996-2012 Texas Instruments Incorporated
package/lib/Regression/regress_d_c/./../packages/ti/vlib/src/VLIB_convertUYVYint_to_HSLpl/VLIB_convertUYVYint_to_HSLpl_d.se66 PAGE   25

    1321                    $C$DW$L$VLIB_convertUYVYint_to_HSLpl_d$13$E:
    1322                    ;** --------------------------------------------------------------------------*
    1323                    $C$L5:    ; PIPED LOOP EPILOG
    1324                    ;          EXCLUSIVE CPU CYCLES: 6
    1325                    ;** 140 -----------------------    VLIB_cache_inval();  // [14]
    1326                    ;** 143 -----------------------    initStack(getSP());  // [14]
    1327                    ;** 146 -----------------------    beg_count = _itoll(TSCH, TSCL);  // [14]
    1328                    ;** 95  -----------------------    VLIB_convertUYVYint_to_HSLpl(yc, (*U$12).width, (*U$12).pitch, (*U$
    1329                    ;** 153 -----------------------    v$2 = _itoll(TSCH, TSCL);  // [15]
    1330                    ;** 153 -----------------------    end_count = v$2;  // [15]
    1331                    ;**     -----------------------    K$112 = &cycles[0];
    1332                    ;** 156 -----------------------    C$5 = act_kernel;  // [15]
    1333                    ;** 156 -----------------------    *((C$5<<3)+K$112) = *((C$5<<3)+K$112)+(v$2-(beg_count+overhead));  
    1334                    ;** 159 -----------------------    setStackDepth();  // [15]
    1335                    ;** 137 -----------------------    act_kernel = 1;  // [14]
    1336                    ;** 140 -----------------------    VLIB_cache_inval();  // [14]
    1337                    ;** 143 -----------------------    initStack(getSP());  // [14]
    1338                    ;** 146 -----------------------    beg_count = _itoll(TSCH, TSCL);  // [14]
    1339                    ;** 100 -----------------------    VLIB_convertUYVYint_to_HSLpl_cn(yc, (*U$12).width, (*U$12).pitch, (
    1340                    ;** 153 -----------------------    v$2 = _itoll(TSCH, TSCL);  // [15]
    1341                    ;** 153 -----------------------    end_count = v$2;  // [15]
    1342                    ;** 156 -----------------------    C$4 = act_kernel;  // [15]
    1343                    ;** 156 -----------------------    *((C$4<<3)+K$112) = *((C$4<<3)+K$112)+(v$2-(beg_count+overhead));  
    1344                    ;** 159 -----------------------    setStackDepth();  // [15]
    1345                    ;** 105 -----------------------    U$120 = U$23;
    1346                    ;** 55  -----------------------    status_nat_vs_ref = 1;
    1347                    ;** 105 -----------------------    if ( !VLIB_compare_mem((void *)H, (void *)H_cn, U$120) ) goto g11;
    1348                    $C$DW$146       .dwtag  DW_TAG_TI_branch
    1349                            .dwattr $C$DW$146, DW_AT_low_pc(0x08)
    1350                            .dwattr $C$DW$146, DW_AT_name("VLIB_cache_inval")
    1351                            .dwattr $C$DW$146, DW_AT_TI_call
    1352                    
    1353 000002aa     0627             ZERO    .L2     B4                ; |137| 
    1354 000002ac 01800029! ||         MVKL    .S1     act_kernel,A3
    1355 000002b0 00000012! ||         CALL    .S2     VLIB_cache_inval  ; |140| 
    1356                    
    1357 000002b4 018a0163             ADDKPC  .S2     $C$RL14,B3,0      ; |140| 
    1358 000002b8 01800068! ||         MVKH    .S1     act_kernel,A3
    1359                    
    1360                            .dwpsn  file ".\..\packages\ti\vlib\src\VLIB_convertUYVYint_to_HSLpl\..\common\VLIB_profile.h"
    1361 000002c0 020c0276             STW     .D1T2   B4,*A3            ; |137| 
    1362 000002c4 00004000             NOP             3
    1363                            .dwpsn  file ".\..\packages\ti\vlib\src\VLIB_convertUYVYint_to_HSLpl\..\common\VLIB_profile.h"
    1364 000002c8           $C$RL14:   ; CALL OCCURS {VLIB_cache_inval} {0}  ; |140| 
    1365                    ;** --------------------------------------------------------------------------*
    1366 000002c8           $C$DW$L$VLIB_convertUYVYint_to_HSLpl_d$15$B:
    1367                    ;          EXCLUSIVE CPU CYCLES: 7
    1368 000002c8 00000000             NOP             1
    1369                    $C$DW$147       .dwtag  DW_TAG_TI_branch
    1370                            .dwattr $C$DW$147, DW_AT_low_pc(0x00)
    1371                            .dwattr $C$DW$147, DW_AT_name("getSP")
    1372                            .dwattr $C$DW$147, DW_AT_TI_call
    1373 000002cc 10000012!            CALLP   .S2     getSP,B3
    1374                            .dwpsn  file ".\..\packages\ti\vlib\src\VLIB_convertUYVYint_to_HSLpl\..\common\VLIB_profile.h"
    1375                    $C$RL15:   ; CALL OCCURS {getSP} {0}         ; |143| 
TMS320C6x Assembler PC v7.4.2 Thu Mar 19 12:40:19 2015

Tools Copyright (c) 1996-2012 Texas Instruments Incorporated
package/lib/Regression/regress_d_c/./../packages/ti/vlib/src/VLIB_convertUYVYint_to_HSLpl/VLIB_convertUYVYint_to_HSLpl_d.se66 PAGE   26

    1376                    $C$DW$L$VLIB_convertUYVYint_to_HSLpl_d$15$E:
    1377                    ;** --------------------------------------------------------------------------*
    1378                    $C$DW$L$VLIB_convertUYVYint_to_HSLpl_d$16$B:
    1379                    ;          EXCLUSIVE CPU CYCLES: 108
    1380                    $C$DW$148       .dwtag  DW_TAG_TI_branch
    1381                            .dwattr $C$DW$148, DW_AT_low_pc(0x00)
    1382                            .dwattr $C$DW$148, DW_AT_name("initStack")
    1383                            .dwattr $C$DW$148, DW_AT_TI_call
    1384 000002d0 10000012!            CALLP   .S2     initStack,B3
    1385 000002d4           $C$RL16:   ; CALL OCCURS {initStack} {0}     ; |143| 
    1386                            .dwpsn  file ".\..\packages\ti\vlib\src\VLIB_convertUYVYint_to_HSLpl\..\common\VLIB_profile.h"
    1387                    ;----------------------------------------------------------------------
    1388                    ; 146 | VLIB_free(coeff);                                                      
    1389                    ; 147 | free(L_cn);                                                            
    1390                    ; 148 | free(S_cn);                                                            
    1391                    ; 149 | free(H_cn);                                                            
    1392                    ; 150 | VLIB_align_free(L);                                                    
    1393                    ; 151 | VLIB_align_free(S);                                                    
    1394                    ; 152 | VLIB_align_free(H);                                                    
    1395                    ;----------------------------------------------------------------------
    1396 000002d4 042803e2             MVC     .S2     TSCL,B8           ; |146| 
    1397 000002d8 04ac03e2             MVC     .S2     TSCH,B9           ; |146| 
    1398                            .dwpsn  file "./../packages/ti/vlib/src/VLIB_convertUYVYint_to_HSLpl/VLIB_convertUYVYint_to_HS
    1399 000002dc 063da2e4             LDW     .D2T1   *+SP(52),A12      ; |95| 
    1400 000002e0 053dc2e6             LDW     .D2T2   *+SP(56),B10      ; |95| 
    1401                    
    1402 000002e4 01800029!            MVKL    .S1     beg_count,A3
    1403 000002e8 03352267  ||         LDW     .D1T2   *+A13(36),B6      ; |95| 
    1404 000002ec 043d22e4  ||         LDW     .D2T1   *+SP(36),A8       ; |95| 
    1405                    
    1406 000002f0 01800069!            MVKH    .S1     beg_count,A3
    1407 000002f4 0234e267  ||         LDW     .D1T2   *+A13(28),B4      ; |95| 
    1408 000002f8 053de2e4  ||         LDW     .D2T1   *+SP(60),A10      ; |95| 
    1409                    
    1410 000002fc 040c0347             STDW    .D1T2   B9:B8,*A3         ; |146| 
    1411 00000300 023e02e4  ||         LDW     .D2T1   *+SP(64),A4       ; |95| 
    1412                    
    1413                    $C$DW$149       .dwtag  DW_TAG_TI_branch
    1414                            .dwattr $C$DW$149, DW_AT_low_pc(0x00)
    1415                            .dwattr $C$DW$149, DW_AT_name("VLIB_convertUYVYint_to_HSLpl")
    1416                            .dwattr $C$DW$149, DW_AT_TI_call
    1417                    
    1418 00000304 10000013!            CALLP   .S2     VLIB_convertUYVYint_to_HSLpl,B3
    1419 00000308 043d02e7  ||         LDW     .D2T2   *+SP(32),B8       ; |95| 
    1420 0000030c 03350264  ||         LDW     .D1T1   *+A13(32),A6      ; |95| 
    1421                    
    1422 00000310           $C$RL17:   ; CALL OCCURS {VLIB_convertUYVYint_to_HSLpl} {0}  ; |95| 
    1423                            .dwpsn  file ".\..\packages\ti\vlib\src\VLIB_convertUYVYint_to_HSLpl\..\common\VLIB_profile.h"
    1424                    ;----------------------------------------------------------------------
    1425                    ; 153 | VLIB_align_free(yc);                                                   
    1426                    ;----------------------------------------------------------------------
    1427 00000310 032803e2             MVC     .S2     TSCL,B6           ; |153| 
    1428 00000314 03ac03e2             MVC     .S2     TSCH,B7           ; |153| 
    1429 00000318 01800028!            MVKL    .S1     act_kernel,A3
    1430 0000031c 01800068!            MVKH    .S1     act_kernel,A3
TMS320C6x Assembler PC v7.4.2 Thu Mar 19 12:40:19 2015

Tools Copyright (c) 1996-2012 Texas Instruments Incorporated
package/lib/Regression/regress_d_c/./../packages/ti/vlib/src/VLIB_convertUYVYint_to_HSLpl/VLIB_convertUYVYint_to_HSLpl_d.se66 PAGE   27

    1431                    
    1432 00000320 0680002b!            MVKL    .S2     overhead,B13
    1433 00000324 05000028! ||         MVKL    .S1     beg_count,A10
    1434                    
    1435 00000328 0680006b!            MVKH    .S2     overhead,B13
    1436 0000032c 05000069! ||         MVKH    .S1     beg_count,A10
    1437 00000330 080c0264  ||         LDW     .D1T1   *A3,A16           ; |156| 
    1438                    
    1439 00000334 023403e7             LDDW    .D2T2   *B13,B5:B4        ; |156| 
    1440 00000338 03280364  ||         LDDW    .D1T1   *A10,A7:A6        ; |156| 
    1441                    
    1442 0000033c 0f800028!            MVKL    .S1     cycles,A31
    1443 00000340 0f800068!            MVKH    .S1     cycles,A31
    1444 00000344 00002000             NOP             2
    1445                    
    1446 00000348 047e0b65             LDDW    .D1T1   *+A31[A16],A9:A8  ; |156| 
    1447 0000034c 0210d578  ||         ADDU    .L1X    B4,A6,A5:A4       ; |156| 
    1448                    
    1449                            .dwpsn  file ".\..\packages\ti\vlib\src\VLIB_convertUYVYint_to_HSLpl\..\common\VLIB_profile.h"
    1450                    ;----------------------------------------------------------------------
    1451                    ; 157 | VLIB_profile_cycle_report(vlib_PROFILE_RANGE,                          
    1452                    ; 158 |                           NULL,                                        
    1453                    ;----------------------------------------------------------------------
    1454 00000350     b2b0             ADD     .L1X    A5,B5,A3          ; |156| 
    1455 00000352     63b0             ADD     .L1     A3,A7,A3          ; |156| 
    1456 00000354 0210d7f8             SUBU    .L1X    B6,A4,A5:A4       ; |156| 
    1457 00000358 020cf0fa             SUB     .L2X    B7,A3,B4          ; |156| 
    1458                    
    1459 00000360 0f171849             EXT     .S1     A5,24,24,A30      ; |156| 
    1460 00000364 02110578  ||         ADDU    .L1     A8,A4,A5:A4       ; |156| 
    1461                    
    1462 00000368 01a4a079             ADD     .L1     A5,A9,A3          ; |156| 
    1463 0000036c 0293d1e0  ||         ADD     .S1X    B4,A30,A5         ; |156| 
    1464                    
    1465 00000370 02946079             ADD     .L1     A3,A5,A5          ; |156| 
    1466 00000374 01800029! ||         MVKL    .S1     cycles,A3
    1467 00000378 0200002a! ||         MVKL    .S2     end_count,B4
    1468                    
    1469 0000037c 01800069!            MVKH    .S1     cycles,A3
    1470 00000380 0200006a! ||         MVKH    .S2     end_count,B4
    1471                    
    1472                    $C$DW$150       .dwtag  DW_TAG_TI_branch
    1473                            .dwattr $C$DW$150, DW_AT_low_pc(0x00)
    1474                            .dwattr $C$DW$150, DW_AT_name("setStackDepth")
    1475                            .dwattr $C$DW$150, DW_AT_TI_call
    1476                    
    1477 00000384 10000013!            CALLP   .S2     setStackDepth,B3
    1478 00000388 020e0b45  ||         STDW    .D1T1   A5:A4,*+A3[A16]   ; |156| 
    1479 0000038c 031003c6  ||         STDW    .D2T2   B7:B6,*B4         ; |153| 
    1480                    
    1481                            .dwpsn  file ".\..\packages\ti\vlib\src\VLIB_convertUYVYint_to_HSLpl\..\common\VLIB_profile.h"
    1482                    ;----------------------------------------------------------------------
    1483                    ; 159 | "width * height");                                                     
    1484                    ;----------------------------------------------------------------------
    1485 00000390           $C$RL18:   ; CALL OCCURS {setStackDepth} {0}  ; |159| 
TMS320C6x Assembler PC v7.4.2 Thu Mar 19 12:40:19 2015

Tools Copyright (c) 1996-2012 Texas Instruments Incorporated
package/lib/Regression/regress_d_c/./../packages/ti/vlib/src/VLIB_convertUYVYint_to_HSLpl/VLIB_convertUYVYint_to_HSLpl_d.se66 PAGE   28

    1486 00000390 01800028!            MVKL    .S1     act_kernel,A3
    1487                    
    1488 00000394 01800069!            MVKH    .S1     act_kernel,A3
    1489 00000398 0204a35a  ||         MVK     .L2     1,B4              ; |137| 
    1490                    
    1491                    $C$DW$151       .dwtag  DW_TAG_TI_branch
    1492                            .dwattr $C$DW$151, DW_AT_low_pc(0x00)
    1493                            .dwattr $C$DW$151, DW_AT_name("VLIB_cache_inval")
    1494                            .dwattr $C$DW$151, DW_AT_TI_call
    1495                    
    1496 0000039c 10000013!            CALLP   .S2     VLIB_cache_inval,B3
    1497 000003a0 020c0276  ||         STW     .D1T2   B4,*A3            ; |137| 
    1498                    
    1499                            .dwpsn  file ".\..\packages\ti\vlib\src\VLIB_convertUYVYint_to_HSLpl\..\common\VLIB_profile.h"
    1500                    $C$RL19:   ; CALL OCCURS {VLIB_cache_inval} {0}  ; |140| 
    1501                    $C$DW$152       .dwtag  DW_TAG_TI_branch
    1502                            .dwattr $C$DW$152, DW_AT_low_pc(0x00)
    1503                            .dwattr $C$DW$152, DW_AT_name("getSP")
    1504                            .dwattr $C$DW$152, DW_AT_TI_call
    1505 000003a4 10000012!            CALLP   .S2     getSP,B3
    1506                            .dwpsn  file ".\..\packages\ti\vlib\src\VLIB_convertUYVYint_to_HSLpl\..\common\VLIB_profile.h"
    1507                    $C$RL20:   ; CALL OCCURS {getSP} {0}         ; |143| 
    1508                    $C$DW$153       .dwtag  DW_TAG_TI_branch
    1509                            .dwattr $C$DW$153, DW_AT_low_pc(0x00)
    1510                            .dwattr $C$DW$153, DW_AT_name("initStack")
    1511                            .dwattr $C$DW$153, DW_AT_TI_call
    1512 000003a8 10000012!            CALLP   .S2     initStack,B3
    1513 000003ac           $C$RL21:   ; CALL OCCURS {initStack} {0}     ; |143| 
    1514                            .dwpsn  file ".\..\packages\ti\vlib\src\VLIB_convertUYVYint_to_HSLpl\..\common\VLIB_profile.h"
    1515 000003ac 032803e2             MVC     .S2     TSCL,B6           ; |146| 
    1516 000003b0 03ac03e2             MVC     .S2     TSCH,B7           ; |146| 
    1517                            .dwpsn  file "./../packages/ti/vlib/src/VLIB_convertUYVYint_to_HSLpl/VLIB_convertUYVYint_to_HS
    1518 000003b4 023e02e4             LDW     .D2T1   *+SP(64),A4       ; |100| 
    1519                    
    1520 000003b8 043d22e5             LDW     .D2T1   *+SP(36),A8       ; |100| 
    1521 000003bc 0234e266  ||         LDW     .D1T2   *+A13(28),B4      ; |100| 
    1522                    
    1523 000003c0 053d62e6             LDW     .D2T2   *+SP(44),B10      ; |100| 
    1524                    
    1525 000003c4 01a80fd9             MV      .L1     A10,A3            ; |100| 
    1526 000003c8 043d02e7  ||         LDW     .D2T2   *+SP(32),B8       ; |100| 
    1527 000003cc 03350264  ||         LDW     .D1T1   *+A13(32),A6      ; |100| 
    1528                    
    1529 000003d0 030c0347             STDW    .D1T2   B7:B6,*A3         ; |146| 
    1530 000003d4 063d42e4  ||         LDW     .D2T1   *+SP(40),A12      ; |100| 
    1531                    
    1532                    $C$DW$154       .dwtag  DW_TAG_TI_branch
    1533                            .dwattr $C$DW$154, DW_AT_low_pc(0x00)
    1534                            .dwattr $C$DW$154, DW_AT_name("VLIB_convertUYVYint_to_HSLpl_cn")
    1535                            .dwattr $C$DW$154, DW_AT_TI_call
    1536                    
    1537 000003d8 10000013!            CALLP   .S2     VLIB_convertUYVYint_to_HSLpl_cn,B3
    1538 000003dc 03352267  ||         LDW     .D1T2   *+A13(36),B6      ; |100| 
    1539 000003e0 053d82e4  ||         LDW     .D2T1   *+SP(48),A10      ; |100| 
    1540                    
TMS320C6x Assembler PC v7.4.2 Thu Mar 19 12:40:19 2015

Tools Copyright (c) 1996-2012 Texas Instruments Incorporated
package/lib/Regression/regress_d_c/./../packages/ti/vlib/src/VLIB_convertUYVYint_to_HSLpl/VLIB_convertUYVYint_to_HSLpl_d.se66 PAGE   29

    1541 000003e4           $C$RL22:   ; CALL OCCURS {VLIB_convertUYVYint_to_HSLpl_cn} {0}  ; |100| 
    1542                            .dwpsn  file ".\..\packages\ti\vlib\src\VLIB_convertUYVYint_to_HSLpl\..\common\VLIB_profile.h"
    1543 000003e4 022803e2             MVC     .S2     TSCL,B4           ; |153| 
    1544 000003e8 02ac03e2             MVC     .S2     TSCH,B5           ; |153| 
    1545 000003ec 01800028!            MVKL    .S1     act_kernel,A3
    1546 000003f0 01800068!            MVKH    .S1     act_kernel,A3
    1547 000003f4 020c0fd8             MV      .L1     A3,A4
    1548                    
    1549 000003f8 04100265             LDW     .D1T1   *A4,A8            ; |156| 
    1550 000003fc 0f800028! ||         MVKL    .S1     beg_count,A31
    1551                    
    1552 00000400 0f800068!            MVKH    .S1     beg_count,A31
    1553                    
    1554 00000404 027c0365             LDDW    .D1T1   *A31,A5:A4        ; |156| 
    1555 00000408 043403e6  ||         LDDW    .D2T2   *B13,B9:B8        ; |156| 
    1556                    
    1557 0000040c 0f000028!            MVKL    .S1     cycles,A30
    1558 00000410 0f000068!            MVKH    .S1     cycles,A30
    1559                    
    1560 00000414 03790b65             LDDW    .D1T1   *+A30[A8],A7:A6   ; |156| 
    1561 00000418 01800028! ||         MVKL    .S1     end_count,A3
    1562                    
    1563 0000041c 01800068!            MVKH    .S1     end_count,A3
    1564                            .dwpsn  file ".\..\packages\ti\vlib\src\VLIB_convertUYVYint_to_HSLpl\..\common\VLIB_profile.h"
    1565 00000420 0311157a             ADDU    .L2X    B8,A4,B7:B6       ; |156| 
    1566                    
    1567 00000424 04a4e07b             ADD     .L2     B7,B9,B9          ; |156| 
    1568 00000428 040c16a2  ||         MV      .S2X    A3,B8
    1569                    
    1570 0000042c 049531e3             ADD     .S2X    B9,A5,B9          ; |156| 
    1571 00000430 031885fa  ||         SUBU    .L2     B4,B6,B7:B6       ; |156| 
    1572                    
    1573 00000434 049528c3             SUB     .D2     B5,B9,B9          ; |156| 
    1574 00000438 081f184b  ||         EXT     .S2     B7,24,24,B16      ; |156| 
    1575 0000043c 0318d57a  ||         ADDU    .L2X    A6,B6,B7:B6       ; |156| 
    1576                    
    1577 00000440 039cf07b             ADD     .L2X    B7,A7,B7          ; |156| 
    1578 00000444 04c121e3  ||         ADD     .S2     B9,B16,B9         ; |156| 
    1579 00000448 01800028! ||         MVKL    .S1     cycles,A3
    1580                    
    1581 0000044c 03a4e07b             ADD     .L2     B7,B9,B7          ; |156| 
    1582 00000450 01800069! ||         MVKH    .S1     cycles,A3
    1583 00000454 022003c6  ||         STDW    .D2T2   B5:B4,*B8         ; |153| 
    1584                    
    1585                    $C$DW$155       .dwtag  DW_TAG_TI_branch
    1586                            .dwattr $C$DW$155, DW_AT_low_pc(0x00)
    1587                            .dwattr $C$DW$155, DW_AT_name("setStackDepth")
    1588                            .dwattr $C$DW$155, DW_AT_TI_call
    1589                    
    1590 00000458 10000013!            CALLP   .S2     setStackDepth,B3
    1591 0000045c 030d0b46  ||         STDW    .D1T2   B7:B6,*+A3[A8]    ; |156| 
    1592                    
    1593                            .dwpsn  file ".\..\packages\ti\vlib\src\VLIB_convertUYVYint_to_HSLpl\..\common\VLIB_profile.h"
    1594                    ;----------------------------------------------------------------------
    1595                    ; 162 | VLIB_kernel_memory();                                                  
TMS320C6x Assembler PC v7.4.2 Thu Mar 19 12:40:19 2015

Tools Copyright (c) 1996-2012 Texas Instruments Incorporated
package/lib/Regression/regress_d_c/./../packages/ti/vlib/src/VLIB_convertUYVYint_to_HSLpl/VLIB_convertUYVYint_to_HSLpl_d.se66 PAGE   30

    1596                    ;----------------------------------------------------------------------
    1597                    $C$RL23:   ; CALL OCCURS {setStackDepth} {0}  ; |159| 
    1598                    $C$DW$156       .dwtag  DW_TAG_TI_branch
    1599                            .dwattr $C$DW$156, DW_AT_low_pc(0x00)
    1600                            .dwattr $C$DW$156, DW_AT_name("VLIB_compare_mem")
    1601                            .dwattr $C$DW$156, DW_AT_TI_call
    1602                    
    1603 00000460 10000013!            CALLP   .S2     VLIB_compare_mem,B3
    1604 00000464     edcd  ||         LDW     .D2T1   *+SP(60),A4       ; |105| 
    1605 00000466     9507  ||         MV      .L2X    A10,B4            ; |105| 
    1606 00000468     d606  ||         MV      .L1X    B12,A6            ; |105| 
    1607                    
    1608                            .dwpsn  file "./../packages/ti/vlib/src/VLIB_convertUYVYint_to_HSLpl/VLIB_convertUYVYint_to_HS
    1609 0000046a           $C$RL24:   ; CALL OCCURS {VLIB_compare_mem} {0}  ; |105| 
    1610 0000046a           $C$DW$L$VLIB_convertUYVYint_to_HSLpl_d$16$E:
    1611                    ;** --------------------------------------------------------------------------*
    1612 0000046a           $C$DW$L$VLIB_convertUYVYint_to_HSLpl_d$17$B:
    1613                    ;          EXCLUSIVE CPU CYCLES: 7
    1614 0000046a     0246             MV      .L1     A4,A0             ; |105| 
    1615 0000046c d0001010     [!A0]   B       .S1     $C$L6             ; |105| 
    1616                    $C$DW$157       .dwtag  DW_TAG_TI_branch
    1617                            .dwattr $C$DW$157, DW_AT_low_pc(0x00)
    1618                            .dwattr $C$DW$157, DW_AT_name("VLIB_compare_mem")
    1619                            .dwattr $C$DW$157, DW_AT_TI_call
    1620 00000470 c0000010!    [ A0]   CALL    .S1     VLIB_compare_mem  ; |105| 
    1621 00000474 c23dc2e4     [ A0]   LDW     .D2T1   *+SP(56),A4       ; |105| 
    1622                            .dwpsn  file "./../packages/ti/vlib/src/VLIB_convertUYVYint_to_HSLpl/VLIB_convertUYVYint_to_HS
    1623 00000478 0684a35a             MVK     .L2     0x1,B13           ; |55| 
    1624                            .dwpsn  file "./../packages/ti/vlib/src/VLIB_convertUYVYint_to_HSLpl/VLIB_convertUYVYint_to_HS
    1625 00000480 d780a358     [!A0]   ZERO    .L1     A15               ; |108| 
    1626 00000484     0c6e             NOP             1
    1627                            .dwpsn  file "./../packages/ti/vlib/src/VLIB_convertUYVYint_to_HSLpl/VLIB_convertUYVYint_to_HS
    1628                               ; BRANCHCC OCCURS {$C$L6}         ; |105| 
    1629 00000486           $C$DW$L$VLIB_convertUYVYint_to_HSLpl_d$17$E:
    1630                    ;** --------------------------------------------------------------------------*
    1631 00000486           $C$DW$L$VLIB_convertUYVYint_to_HSLpl_d$18$B:
    1632                    ;          EXCLUSIVE CPU CYCLES: 1
    1633                    ;** 105 -----------------------    U$121 = out_size;
    1634                    ;** 105 -----------------------    if ( !VLIB_compare_mem((void *)S, (void *)S_cn, U$121) ) goto g11;
    1635                    
    1636 00000486     8507             MV      .L2     B10,B4            ; |105| 
    1637 0000048c 032c0fd8  ||         MV      .L1     A11,A6            ; |105| 
    1638 00000488 01840163  ||         ADDKPC  .S2     $C$RL25,B3,0      ; |105| 
    1639                    
    1640 00000490           $C$RL25:   ; CALL OCCURS {VLIB_compare_mem} {0}  ; |105| 
    1641 00000490           $C$DW$L$VLIB_convertUYVYint_to_HSLpl_d$18$E:
    1642                    ;** --------------------------------------------------------------------------*
    1643 00000490           $C$DW$L$VLIB_convertUYVYint_to_HSLpl_d$19$B:
    1644                    ;          EXCLUSIVE CPU CYCLES: 7
    1645 00000490     0246             MV      .L1     A4,A0             ; |105| 
    1646 00000492     0c3a     [!A0]   B       .S1     $C$L6             ; |105| 
    1647                    $C$DW$158       .dwtag  DW_TAG_TI_branch
    1648                            .dwattr $C$DW$158, DW_AT_low_pc(0x00)
    1649                            .dwattr $C$DW$158, DW_AT_name("VLIB_compare_mem")
    1650                            .dwattr $C$DW$158, DW_AT_TI_call
TMS320C6x Assembler PC v7.4.2 Thu Mar 19 12:40:19 2015

Tools Copyright (c) 1996-2012 Texas Instruments Incorporated
package/lib/Regression/regress_d_c/./../packages/ti/vlib/src/VLIB_convertUYVYint_to_HSLpl/VLIB_convertUYVYint_to_HSLpl_d.se66 PAGE   31

    1651 00000494 c0000010!    [ A0]   CALL    .S1     VLIB_compare_mem  ; |105| 
    1652 00000498 c23da2e4     [ A0]   LDW     .D2T1   *+SP(52),A4       ; |105| 
    1653                            .dwpsn  file "./../packages/ti/vlib/src/VLIB_convertUYVYint_to_HSLpl/VLIB_convertUYVYint_to_HS
    1654 000004a0 d780a358     [!A0]   ZERO    .L1     A15               ; |108| 
    1655 000004a4     2c6e             NOP             2
    1656                            .dwpsn  file "./../packages/ti/vlib/src/VLIB_convertUYVYint_to_HSLpl/VLIB_convertUYVYint_to_HS
    1657                               ; BRANCHCC OCCURS {$C$L6}         ; |105| 
    1658 000004a6           $C$DW$L$VLIB_convertUYVYint_to_HSLpl_d$19$E:
    1659                    ;** --------------------------------------------------------------------------*
    1660 000004a6           $C$DW$L$VLIB_convertUYVYint_to_HSLpl_d$20$B:
    1661                    ;          EXCLUSIVE CPU CYCLES: 1
    1662                    ;** 105 -----------------------    if ( !VLIB_compare_mem((void *)L, (void *)L_cn, (int)out_size) ) go
    1663                    ;** 110 -----------------------    status_nat_vs_int = 1;
    1664                    ;** 110 -----------------------    goto g12;
    1665                    
    1666 000004a6     c586             MV      .L1     A11,A6            ; |105| 
    1667 000004ac 02301fda  ||         MV      .L2X    A12,B4            ; |105| 
    1668 000004a8 01840163  ||         ADDKPC  .S2     $C$RL26,B3,0      ; |105| 
    1669                    
    1670 000004b0           $C$RL26:   ; CALL OCCURS {VLIB_compare_mem} {0}  ; |105| 
    1671 000004b0           $C$DW$L$VLIB_convertUYVYint_to_HSLpl_d$20$E:
    1672                    ;** --------------------------------------------------------------------------*
    1673 000004b0           $C$DW$L$VLIB_convertUYVYint_to_HSLpl_d$21$B:
    1674                    ;          EXCLUSIVE CPU CYCLES: 7
    1675 000004b0 00100fd8             MV      .L1     A4,A0             ; |105| 
    1676                    
    1677 000004b4 c0000c13     [ A0]   B       .S2     $C$L7             ; |110| 
    1678 000004b8 c1346265  || [ A0]   LDW     .D1T1   *+A13(12),A2      ; |114| 
    1679 000004c0 c7b41fd9  || [ A0]   MV      .L1X    B13,A15           ; |105| 
    1680 000004c4 d7800028  || [!A0]   ZERO    .S1     A15               ; |108| 
    1681                    
    1682 000004c8 00801fdb             MV      .L2X    A0,B1             ; guard predicate rewrite
    1683 000004cc c0344264  || [ A0]   LDW     .D1T1   *+A13(8),A0       ; |114| 
    1684                    
    1685                            .dwpsn  file "./../packages/ti/vlib/src/VLIB_convertUYVYint_to_HSLpl/VLIB_convertUYVYint_to_HS
    1686 000004d0 40b48264     [ B1]   LDW     .D1T1   *+A13(16),A1      ; |114| 
    1687 000004d4 4180a358     [ B1]   ZERO    .L1     A3                ; |114| 
    1688 000004d8 4200a358     [ B1]   ZERO    .L1     A4                ; |114| 
    1689 000004dc 00000000             NOP             1
    1690                            .dwpsn  file "./../packages/ti/vlib/src/VLIB_convertUYVYint_to_HSLpl/VLIB_convertUYVYint_to_HS
    1691                               ; BRANCHCC OCCURS {$C$L7}         ; |110| 
    1692 000004e0           $C$DW$L$VLIB_convertUYVYint_to_HSLpl_d$21$E:
    1693                    ;** --------------------------------------------------------------------------*
    1694 000004e0           $C$L6:    
    1695                            .dwpsn  file "./../packages/ti/vlib/src/VLIB_convertUYVYint_to_HSLpl/VLIB_convertUYVYint_to_HS
    1696 000004e0           $C$DW$L$VLIB_convertUYVYint_to_HSLpl_d$22$B:
    1697                    ;          EXCLUSIVE CPU CYCLES: 6
    1698                    ;**     -----------------------g11:
    1699                    ;**     -----------------------    U$121 = out_size;
    1700                    ;** 108 -----------------------    status_nat_vs_int = 0;
    1701                            .dwpsn  file "./../packages/ti/vlib/src/VLIB_convertUYVYint_to_HSLpl/VLIB_convertUYVYint_to_HS
    1702 000004e0 01346264             LDW     .D1T1   *+A13(12),A2      ; |114| 
    1703 000004e4 00b48264             LDW     .D1T1   *+A13(16),A1      ; |114| 
    1704 000004e8 00344264             LDW     .D1T1   *+A13(8),A0       ; |114| 
    1705 000004ec     05a6             ZERO    .L1     A3                ; |114| 
TMS320C6x Assembler PC v7.4.2 Thu Mar 19 12:40:19 2015

Tools Copyright (c) 1996-2012 Texas Instruments Incorporated
package/lib/Regression/regress_d_c/./../packages/ti/vlib/src/VLIB_convertUYVYint_to_HSLpl/VLIB_convertUYVYint_to_HSLpl_d.se66 PAGE   32

    1706 000004ee     0626             ZERO    .L1     A4                ; |114| 
    1707 000004f0     0c6e             NOP             1
    1708 00000500           $C$DW$L$VLIB_convertUYVYint_to_HSLpl_d$22$E:
    1709                    ;** --------------------------------------------------------------------------*
    1710 00000500           $C$L7:    
    1711                            .dwpsn  file "./../packages/ti/vlib/src/VLIB_convertUYVYint_to_HSLpl/VLIB_convertUYVYint_to_HS
    1712 00000500           $C$DW$L$VLIB_convertUYVYint_to_HSLpl_d$23$B:
    1713                    ;          EXCLUSIVE CPU CYCLES: 11
    1714                    ;**     -----------------------g12:
    1715                    ;** 114 -----------------------    v$1 = prm;
    1716                    ;** 114 -----------------------    C$3 = (*U$12).staticOutH;
    1717                    ;** 114 -----------------------    if ( !((C$3 != NULL)&((*U$12).staticOutS != NULL)&((*U$12).staticOu
    1718                    
    1719 00000500 a1b41fd9     [ A2]   MV      .L1X    B13,A3            ; |114| 
    1720 00000508 0200a35a  ||         ZERO    .L2     B4                ; |114| 
    1721 00000504 053ce2e7  ||         LDW     .D2T2   *+SP(28),B10      ; |114| 
    1722                    
    1723                            .dwpsn  file "./../packages/ti/vlib/src/VLIB_convertUYVYint_to_HSLpl/VLIB_convertUYVYint_to_HS
    1724 0000050c c2341fd8     [ A0]   MV      .L1X    B13,A4            ; |114| 
    1725 00000510 01906f78             AND     .L1     A3,A4,A3          ; |114| 
    1726 00000514 82340fda     [ A1]   MV      .L2     B13,B4            ; |114| 
    1727 00000518 000c9f7a             AND     .L2X    B4,A3,B0          ; |114| 
    1728                    
    1729 0000051c 30002713     [!B0]   B       .S2     $C$L9             ; |114| 
    1730 00000520 31800029! || [!B0]   MVKL    .S1     $C$SL3+0,A3
    1731 00000524 322d407a  || [!B0]   ADD     .L2     B10,B11,B4        ; |133| 
    1732                    
    1733                    $C$DW$159       .dwtag  DW_TAG_TI_branch
    1734                            .dwattr $C$DW$159, DW_AT_low_pc(0x00)
    1735                            .dwattr $C$DW$159, DW_AT_name("VLIB_compare_mem")
    1736                            .dwattr $C$DW$159, DW_AT_TI_call
    1737                    
    1738 00000528 20000013!    [ B0]   CALL    .S2     VLIB_compare_mem  ; |118| 
    1739 0000052c 31800069! || [!B0]   MVKH    .S1     $C$SL3+0,A3
    1740 00000530 3390e2e6  || [!B0]   LDW     .D2T2   *+B4(28),B7       ; |133| 
    1741                    
    1742 00000534 32000029!    [!B0]   MVKL    .S1     est_test,A4
    1743 00000538 329122e6  || [!B0]   LDW     .D2T2   *+B4(36),B5       ; |133| 
    1744                    
    1745 0000053c 32000069!    [!B0]   MVKH    .S1     est_test,A4
    1746 00000540 331102e6  || [!B0]   LDW     .D2T2   *+B4(32),B6       ; |133| 
    1747                    
    1748 00000544 31bc22f5     [!B0]   STW     .D2T1   A3,*+SP(4)        ; |133| 
    1749 00000548 3184a359  || [!B0]   MVK     .L1     1,A3              ; |130| 
    1750 0000054c 3200002a! || [!B0]   MVKL    .S2     testPatternString,B4
    1751                    
    1752 00000550 31900275     [!B0]   STW     .D1T1   A3,*A4            ; |130| 
    1753 00000554 32000029! || [!B0]   MVKL    .S1     desc,A4
    1754 00000558 3200006b! || [!B0]   MVKH    .S2     testPatternString,B4
    1755                    
    1756                               ; BRANCHCC OCCURS {$C$L9}         ; |114| 
    1757 00000560           $C$DW$L$VLIB_convertUYVYint_to_HSLpl_d$23$E:
    1758                    ;** --------------------------------------------------------------------------*
    1759 00000560           $C$DW$L$VLIB_convertUYVYint_to_HSLpl_d$24$B:
    1760                    ;          EXCLUSIVE CPU CYCLES: 1
TMS320C6x Assembler PC v7.4.2 Thu Mar 19 12:40:19 2015

Tools Copyright (c) 1996-2012 Texas Instruments Incorporated
package/lib/Regression/regress_d_c/./../packages/ti/vlib/src/VLIB_convertUYVYint_to_HSLpl/VLIB_convertUYVYint_to_HSLpl_d.se66 PAGE   33

    1761                    ;** 118 -----------------------    if ( !VLIB_compare_mem((void *)C$3, (void *)H_cn, U$120) ) goto g17
    1762                    
    1763 00000560     d606             MV      .L1X    B12,A6            ; |118| 
    1764 00000562     9507  ||         MV      .L2X    A10,B4            ; |118| 
    1765 00000568 020006a0  ||         MV      .S1     A0,A4             ; |118| 
    1766 00000564 01830163  ||         ADDKPC  .S2     $C$RL27,B3,0      ; |118| 
    1767                    
    1768                            .dwpsn  file "./../packages/ti/vlib/src/VLIB_convertUYVYint_to_HSLpl/VLIB_convertUYVYint_to_HS
    1769 0000056c           $C$RL27:   ; CALL OCCURS {VLIB_compare_mem} {0}  ; |118| 
    1770 0000056c           $C$DW$L$VLIB_convertUYVYint_to_HSLpl_d$24$E:
    1771                    ;** --------------------------------------------------------------------------*
    1772 0000056c           $C$DW$L$VLIB_convertUYVYint_to_HSLpl_d$25$B:
    1773                    ;          EXCLUSIVE CPU CYCLES: 7
    1774 0000056c 00100fd8             MV      .L1     A4,A0             ; |118| 
    1775                    
    1776 00000574 c2346264     [ A0]   LDW     .D1T1   *+A13(12),A4      ; |118| 
    1777 00000570 d0001511  || [!A0]   B       .S1     $C$L8             ; |118| 
    1778                    
    1779                    $C$DW$160       .dwtag  DW_TAG_TI_branch
    1780                            .dwattr $C$DW$160, DW_AT_low_pc(0x00)
    1781                            .dwattr $C$DW$160, DW_AT_name("VLIB_compare_mem")
    1782                            .dwattr $C$DW$160, DW_AT_TI_call
    1783                    
    1784 00000578 c0000011!    [ A0]   CALL    .S1     VLIB_compare_mem  ; |118| 
    1785 00000580 d53ce2e6  || [!A0]   LDW     .D2T2   *+SP(28),B10      ; |122| 
    1786                    
    1787 00000584 c23d62e6     [ A0]   LDW     .D2T2   *+SP(44),B4       ; |118| 
    1788                            .dwpsn  file "./../packages/ti/vlib/src/VLIB_convertUYVYint_to_HSLpl/VLIB_convertUYVYint_to_HS
    1789 00000588 d680a35a     [!A0]   ZERO    .L2     B13               ; |121| 
    1790 0000058c     2c6e             NOP             2
    1791                            .dwpsn  file "./../packages/ti/vlib/src/VLIB_convertUYVYint_to_HSLpl/VLIB_convertUYVYint_to_HS
    1792                               ; BRANCHCC OCCURS {$C$L8}         ; |118| 
    1793 0000058e           $C$DW$L$VLIB_convertUYVYint_to_HSLpl_d$25$E:
    1794                    ;** --------------------------------------------------------------------------*
    1795 0000058e           $C$DW$L$VLIB_convertUYVYint_to_HSLpl_d$26$B:
    1796                    ;          EXCLUSIVE CPU CYCLES: 1
    1797                    ;** 118 -----------------------    if ( !VLIB_compare_mem((*U$12).staticOutS, (void *)S_cn, U$121) ) g
    1798                    
    1799 0000058e     c586             MV      .L1     A11,A6            ; |118| 
    1800 00000590 01850162  ||         ADDKPC  .S2     $C$RL28,B3,0      ; |118| 
    1801                    
    1802 00000594           $C$RL28:   ; CALL OCCURS {VLIB_compare_mem} {0}  ; |118| 
    1803 00000594           $C$DW$L$VLIB_convertUYVYint_to_HSLpl_d$26$E:
    1804                    ;** --------------------------------------------------------------------------*
    1805 00000594           $C$DW$L$VLIB_convertUYVYint_to_HSLpl_d$27$B:
    1806                    ;          EXCLUSIVE CPU CYCLES: 7
    1807 00000594 00100fd8             MV      .L1     A4,A0             ; |118| 
    1808                    
    1809 00000598 d0001111     [!A0]   B       .S1     $C$L8             ; |118| 
    1810 000005a0 d53ce2e6  || [!A0]   LDW     .D2T2   *+SP(28),B10      ; |122| 
    1811                    
    1812                    $C$DW$161       .dwtag  DW_TAG_TI_branch
    1813                            .dwattr $C$DW$161, DW_AT_low_pc(0x00)
    1814                            .dwattr $C$DW$161, DW_AT_name("VLIB_compare_mem")
    1815                            .dwattr $C$DW$161, DW_AT_TI_call
TMS320C6x Assembler PC v7.4.2 Thu Mar 19 12:40:19 2015

Tools Copyright (c) 1996-2012 Texas Instruments Incorporated
package/lib/Regression/regress_d_c/./../packages/ti/vlib/src/VLIB_convertUYVYint_to_HSLpl/VLIB_convertUYVYint_to_HSLpl_d.se66 PAGE   34

    1816 000005a4 c0000010!    [ A0]   CALL    .S1     VLIB_compare_mem  ; |118| 
    1817 000005a8 c2348264     [ A0]   LDW     .D1T1   *+A13(16),A4      ; |118| 
    1818                            .dwpsn  file "./../packages/ti/vlib/src/VLIB_convertUYVYint_to_HSLpl/VLIB_convertUYVYint_to_HS
    1819 000005ac d680a35a     [!A0]   ZERO    .L2     B13               ; |121| 
    1820 000005b0     2c6e             NOP             2
    1821                            .dwpsn  file "./../packages/ti/vlib/src/VLIB_convertUYVYint_to_HSLpl/VLIB_convertUYVYint_to_HS
    1822                               ; BRANCHCC OCCURS {$C$L8}         ; |118| 
    1823 000005b2           $C$DW$L$VLIB_convertUYVYint_to_HSLpl_d$27$E:
    1824                    ;** --------------------------------------------------------------------------*
    1825 000005b2           $C$DW$L$VLIB_convertUYVYint_to_HSLpl_d$28$B:
    1826                    ;          EXCLUSIVE CPU CYCLES: 1
    1827                    ;** 118 -----------------------    if ( !VLIB_compare_mem((*U$12).staticOutL, (void *)L_cn, U$121) ) g
    1828                    ;** 123 -----------------------    status_nat_vs_ref = 1;
    1829                    ;** 123 -----------------------    goto g18;
    1830                    
    1831 000005b2     c586             MV      .L1     A11,A6            ; |118| 
    1832 000005b8 02301fda  ||         MV      .L2X    A12,B4            ; |118| 
    1833 000005b4 01880163  ||         ADDKPC  .S2     $C$RL29,B3,0      ; |118| 
    1834                    
    1835 000005c0           $C$RL29:   ; CALL OCCURS {VLIB_compare_mem} {0}  ; |118| 
    1836 000005c0           $C$DW$L$VLIB_convertUYVYint_to_HSLpl_d$28$E:
    1837                    ;** --------------------------------------------------------------------------*
    1838 000005c0           $C$DW$L$VLIB_convertUYVYint_to_HSLpl_d$29$B:
    1839                    ;          EXCLUSIVE CPU CYCLES: 7
    1840 000005c0 00100fd8             MV      .L1     A4,A0             ; |118| 
    1841                    
    1842 000005c4 c0000f13     [ A0]   B       .S2     $C$L9             ; |123| 
    1843 000005c8 d53ce2e7  || [!A0]   LDW     .D2T2   *+SP(28),B10      ; |122| 
    1844 000005cc c1800029! || [ A0]   MVKL    .S1     $C$SL3+0,A3
    1845 000005d0 c22d407a  || [ A0]   ADD     .L2     B10,B11,B4        ; |133| 
    1846                    
    1847 000005d4 c1800069!    [ A0]   MVKH    .S1     $C$SL3+0,A3
    1848 000005d8 c31102e7  || [ A0]   LDW     .D2T2   *+B4(32),B6       ; |133| 
    1849 000005dc d680a35a  || [!A0]   ZERO    .L2     B13               ; |121| 
    1850                    
    1851 000005e0 c2000029!    [ A0]   MVKL    .S1     est_test,A4
    1852 000005e4 c1bc22f5  || [ A0]   STW     .D2T1   A3,*+SP(4)        ; |133| 
    1853 000005e8 c184a358  || [ A0]   MVK     .L1     1,A3              ; |130| 
    1854                    
    1855 000005ec c2000069!    [ A0]   MVKH    .S1     est_test,A4
    1856 000005f0 c29122e6  || [ A0]   LDW     .D2T2   *+B4(36),B5       ; |133| 
    1857                    
    1858 000005f4 c390e2e7     [ A0]   LDW     .D2T2   *+B4(28),B7       ; |133| 
    1859 000005f8 c1900275  || [ A0]   STW     .D1T1   A3,*A4            ; |130| 
    1860 000005fc c200002a! || [ A0]   MVKL    .S2     testPatternString,B4
    1861                    
    1862 00000600 c200006b!    [ A0]   MVKH    .S2     testPatternString,B4
    1863 00000604 c2000028! || [ A0]   MVKL    .S1     desc,A4
    1864                    
    1865                            .dwpsn  file "./../packages/ti/vlib/src/VLIB_convertUYVYint_to_HSLpl/VLIB_convertUYVYint_to_HS
    1866                               ; BRANCHCC OCCURS {$C$L9}         ; |123| 
    1867 00000608           $C$DW$L$VLIB_convertUYVYint_to_HSLpl_d$29$E:
    1868                    ;** --------------------------------------------------------------------------*
    1869 00000608           $C$L8:    
    1870                            .dwpsn  file "./../packages/ti/vlib/src/VLIB_convertUYVYint_to_HSLpl/VLIB_convertUYVYint_to_HS
TMS320C6x Assembler PC v7.4.2 Thu Mar 19 12:40:19 2015

Tools Copyright (c) 1996-2012 Texas Instruments Incorporated
package/lib/Regression/regress_d_c/./../packages/ti/vlib/src/VLIB_convertUYVYint_to_HSLpl/VLIB_convertUYVYint_to_HSLpl_d.se66 PAGE   35

    1871 00000608           $C$DW$L$VLIB_convertUYVYint_to_HSLpl_d$30$B:
    1872                    ;          EXCLUSIVE CPU CYCLES: 6
    1873                    ;**     -----------------------g17:
    1874                    ;** 122 -----------------------    v$1 = prm;
    1875                    ;** 121 -----------------------    status_nat_vs_ref = 0;
    1876                    
    1877 00000608 022d407b             ADD     .L2     B10,B11,B4        ; |133| 
    1878 0000060c 01800028! ||         MVKL    .S1     $C$SL3+0,A3
    1879                    
    1880 00000614     f07d             LDW     .D2T2   *+B4(28),B7       ; |133| 
    1881 00000610 01800069! ||         MVKH    .S1     $C$SL3+0,A3
    1882                    
    1883 00000618 02000029!            MVKL    .S1     est_test,A4
    1884 00000616     ac35  ||         STW     .D2T1   A3,*+SP(4)        ; |133| 
    1885 00000620     25a6  ||         MVK     .L1     1,A3              ; |130| 
    1886                    
    1887 00000622     385d             LDW     .D2T2   *+B4(36),B5       ; |133| 
    1888 00000624 02000068! ||         MVKH    .S1     est_test,A4
    1889                    
    1890 00000628     186d             LDW     .D2T2   *+B4(32),B6       ; |133| 
    1891 0000062c 0200002b! ||         MVKL    .S2     testPatternString,B4
    1892 0000062a     0034  ||         STW     .D1T1   A3,*A4            ; |130| 
    1893 00000630 02000028! ||         MVKL    .S1     desc,A4
    1894                    
    1895 00000634 0200006a!            MVKH    .S2     testPatternString,B4
    1896 00000638           $C$DW$L$VLIB_convertUYVYint_to_HSLpl_d$30$E:
    1897                    ;** --------------------------------------------------------------------------*
    1898 00000638           $C$L9:    
    1899                            .dwpsn  file "./../packages/ti/vlib/src/VLIB_convertUYVYint_to_HSLpl/VLIB_convertUYVYint_to_HS
    1900 00000638           $C$DW$L$VLIB_convertUYVYint_to_HSLpl_d$31$B:
    1901                    ;          EXCLUSIVE CPU CYCLES: 6
    1902                    ;**     -----------------------g18:
    1903                    ;** 130 -----------------------    est_test = 1;
    1904                    ;** 133 -----------------------    C$2 = U$11+v$1;
    1905                    ;** 133 -----------------------    sprintf(K$57, (const char *)"%s generated input | Opt results compa
    1906                    ;** 135 -----------------------    VLIB_formula_add_test(U$121, 0, 0, (status_nat_vs_int == 0)|(status
    1907                            .dwpsn  file "./../packages/ti/vlib/src/VLIB_convertUYVYint_to_HSLpl/VLIB_convertUYVYint_to_HS
    1908                    $C$DW$162       .dwtag  DW_TAG_TI_branch
    1909                            .dwattr $C$DW$162, DW_AT_low_pc(0x00)
    1910                            .dwattr $C$DW$162, DW_AT_name("sprintf")
    1911                            .dwattr $C$DW$162, DW_AT_TI_call
    1912 00000638 00000010!            CALL    .S1     sprintf           ; |133| 
    1913 00000640 023c42f6             STW     .D2T2   B4,*+SP(8)        ; |133| 
    1914 00000644 05bcc2f4             STW     .D2T1   A11,*+SP(24)      ; |133| 
    1915 00000648     bcd5             STW     .D2T2   B5,*+SP(20)       ; |133| 
    1916 0000064a     9ce5             STW     .D2T2   B6,*+SP(16)       ; |133| 
    1917                    
    1918 00000654 03bc62f6             STW     .D2T2   B7,*+SP(12)       ; |133| 
    1919 00000650 01860163  ||         ADDKPC  .S2     $C$RL30,B3,0      ; |133| 
    1920 0000064c 02000069! ||         MVKH    .S1     desc,A4
    1921                    
    1922 00000658           $C$RL30:   ; CALL OCCURS {sprintf} {0}       ; |133| 
    1923 00000658           $C$DW$L$VLIB_convertUYVYint_to_HSLpl_d$31$E:
    1924                    ;** --------------------------------------------------------------------------*
    1925 00000658           $C$DW$L$VLIB_convertUYVYint_to_HSLpl_d$32$B:
TMS320C6x Assembler PC v7.4.2 Thu Mar 19 12:40:19 2015

Tools Copyright (c) 1996-2012 Texas Instruments Incorporated
package/lib/Regression/regress_d_c/./../packages/ti/vlib/src/VLIB_convertUYVYint_to_HSLpl/VLIB_convertUYVYint_to_HSLpl_d.se66 PAGE   36

    1926                    ;          EXCLUSIVE CPU CYCLES: 13
    1927                            .dwpsn  file "./../packages/ti/vlib/src/VLIB_convertUYVYint_to_HSLpl/VLIB_convertUYVYint_to_HS
    1928 00000658 01bc0a58             CMPEQ   .L1     A15,0,A3          ; |135| 
    1929                    
    1930 00000660 02340a5b             CMPEQ   .L2     B13,0,B4          ; |135| 
    1931 00000664 04000029! ||         MVKL    .S1     desc,A8
    1932 00000668 0400002b  ||         ZERO    .S2     B8                ; |135| 
    1933                    
    1934                    $C$DW$163       .dwtag  DW_TAG_TI_branch
    1935                            .dwattr $C$DW$163, DW_AT_low_pc(0x00)
    1936                            .dwattr $C$DW$163, DW_AT_name("VLIB_formula_add_test")
    1937                            .dwattr $C$DW$163, DW_AT_TI_call
    1938                    
    1939 00000670 10000013!            CALLP   .S2     VLIB_formula_add_test,B3
    1940 00000674 030c9ffb  ||         OR      .L2X    B4,A3,B6          ; |135| 
    1941 00000678 02000043  ||         ZERO    .D2     B4                ; |135| 
    1942 00000680 04000069! ||         MVKH    .S1     desc,A8
    1943 0000067c 022c0fd9  ||         MV      .L1     A11,A4            ; |135| 
    1944 00000684 03000040  ||         ZERO    .D1     A6                ; |135| 
    1945                    
    1946 00000688           $C$RL31:   ; CALL OCCURS {VLIB_formula_add_test} {0}  ; |135| 
    1947                            .dwpsn  file "./../packages/ti/vlib/src/VLIB_convertUYVYint_to_HSLpl/VLIB_convertUYVYint_to_HS
    1948                    $C$DW$164       .dwtag  DW_TAG_TI_branch
    1949                            .dwattr $C$DW$164, DW_AT_low_pc(0x00)
    1950                            .dwattr $C$DW$164, DW_AT_name("VLIB_free")
    1951                            .dwattr $C$DW$164, DW_AT_TI_call
    1952 00000688 00000010!            CALL    .S1     VLIB_free         ; |145| 
    1953 0000068c     8d4d             LDW     .D2T1   *+SP(32),A4       ; |145| 
    1954 0000068e     4c6e             NOP             3
    1955 00000690           $C$DW$L$VLIB_convertUYVYint_to_HSLpl_d$32$E:
    1956                    ;** --------------------------------------------------------------------------*
    1957 00000690           $C$L10:    
    1958                            .dwpsn  file "./../packages/ti/vlib/src/VLIB_convertUYVYint_to_HSLpl/VLIB_convertUYVYint_to_HS
    1959 00000690           $C$DW$L$VLIB_convertUYVYint_to_HSLpl_d$33$B:
    1960                    ;          EXCLUSIVE CPU CYCLES: 1
    1961                    ;**     -----------------------g19:
    1962                    ;** 145 -----------------------    VLIB_free((void *)div_table);
    1963                    ;** 146 -----------------------    VLIB_free((void *)coeff);
    1964                    ;** 147 -----------------------    free((void *)L_cn);
    1965                    ;** 148 -----------------------    free((void *)S_cn);
    1966                    ;** 149 -----------------------    free((void *)H_cn);
    1967                    ;** 150 -----------------------    VLIB_align_free((void *)L);
    1968                    ;** 151 -----------------------    VLIB_align_free((void *)S);
    1969                    ;** 152 -----------------------    VLIB_align_free((void *)H);
    1970                    ;** 153 -----------------------    VLIB_align_free((void *)yc);
    1971                    ;** 51  -----------------------    U$11 += 40;
    1972                    ;** 51  -----------------------    if ( test_cases > (++tpi) ) goto g3;
    1973                            .dwpsn  file "./../packages/ti/vlib/src/VLIB_convertUYVYint_to_HSLpl/VLIB_convertUYVYint_to_HS
    1974 00000690 01850162             ADDKPC  .S2     $C$RL32,B3,0      ; |145| 
    1975                    $C$RL32:   ; CALL OCCURS {VLIB_free} {0}     ; |145| 
    1976                    $C$DW$L$VLIB_convertUYVYint_to_HSLpl_d$33$E:
    1977                    ;** --------------------------------------------------------------------------*
    1978                    $C$DW$L$VLIB_convertUYVYint_to_HSLpl_d$34$B:
    1979                    ;          EXCLUSIVE CPU CYCLES: 48
    1980                    $C$DW$165       .dwtag  DW_TAG_TI_branch
TMS320C6x Assembler PC v7.4.2 Thu Mar 19 12:40:19 2015

Tools Copyright (c) 1996-2012 Texas Instruments Incorporated
package/lib/Regression/regress_d_c/./../packages/ti/vlib/src/VLIB_convertUYVYint_to_HSLpl/VLIB_convertUYVYint_to_HSLpl_d.se66 PAGE   37

    1981                            .dwattr $C$DW$165, DW_AT_low_pc(0x00)
    1982                            .dwattr $C$DW$165, DW_AT_name("VLIB_free")
    1983                            .dwattr $C$DW$165, DW_AT_TI_call
    1984                    
    1985 00000694 10000013!            CALLP   .S2     VLIB_free,B3
    1986 00000698 023d22e4  ||         LDW     .D2T1   *+SP(36),A4       ; |146| 
    1987                    
    1988                            .dwpsn  file "./../packages/ti/vlib/src/VLIB_convertUYVYint_to_HSLpl/VLIB_convertUYVYint_to_HS
    1989                    $C$RL33:   ; CALL OCCURS {VLIB_free} {0}     ; |146| 
    1990                    $C$DW$166       .dwtag  DW_TAG_TI_branch
    1991                            .dwattr $C$DW$166, DW_AT_low_pc(0x00)
    1992                            .dwattr $C$DW$166, DW_AT_name("free")
    1993                            .dwattr $C$DW$166, DW_AT_TI_call
    1994                    
    1995 000006a0 10000013!            CALLP   .S2     free,B3
    1996 000006a4 023d42e4  ||         LDW     .D2T1   *+SP(40),A4       ; |147| 
    1997                    
    1998                            .dwpsn  file "./../packages/ti/vlib/src/VLIB_convertUYVYint_to_HSLpl/VLIB_convertUYVYint_to_HS
    1999                    $C$RL34:   ; CALL OCCURS {free} {0}          ; |147| 
    2000                    $C$DW$167       .dwtag  DW_TAG_TI_branch
    2001                            .dwattr $C$DW$167, DW_AT_low_pc(0x00)
    2002                            .dwattr $C$DW$167, DW_AT_name("free")
    2003                            .dwattr $C$DW$167, DW_AT_TI_call
    2004                    
    2005 000006a8 10000013!            CALLP   .S2     free,B3
    2006 000006ac 023d62e4  ||         LDW     .D2T1   *+SP(44),A4       ; |148| 
    2007                    
    2008                            .dwpsn  file "./../packages/ti/vlib/src/VLIB_convertUYVYint_to_HSLpl/VLIB_convertUYVYint_to_HS
    2009                    $C$RL35:   ; CALL OCCURS {free} {0}          ; |148| 
    2010                    $C$DW$168       .dwtag  DW_TAG_TI_branch
    2011                            .dwattr $C$DW$168, DW_AT_low_pc(0x00)
    2012                            .dwattr $C$DW$168, DW_AT_name("free")
    2013                            .dwattr $C$DW$168, DW_AT_TI_call
    2014                    
    2015 000006b0 10000013!            CALLP   .S2     free,B3
    2016 000006b4 023d82e4  ||         LDW     .D2T1   *+SP(48),A4       ; |149| 
    2017                    
    2018                            .dwpsn  file "./../packages/ti/vlib/src/VLIB_convertUYVYint_to_HSLpl/VLIB_convertUYVYint_to_HS
    2019                    $C$RL36:   ; CALL OCCURS {free} {0}          ; |149| 
    2020                    $C$DW$169       .dwtag  DW_TAG_TI_branch
    2021                            .dwattr $C$DW$169, DW_AT_low_pc(0x00)
    2022                            .dwattr $C$DW$169, DW_AT_name("VLIB_align_free")
    2023                            .dwattr $C$DW$169, DW_AT_TI_call
    2024                    
    2025 000006b8 10000013!            CALLP   .S2     VLIB_align_free,B3
    2026 000006bc 023da2e4  ||         LDW     .D2T1   *+SP(52),A4       ; |150| 
    2027                    
    2028                            .dwpsn  file "./../packages/ti/vlib/src/VLIB_convertUYVYint_to_HSLpl/VLIB_convertUYVYint_to_HS
    2029                    $C$RL37:   ; CALL OCCURS {VLIB_align_free} {0}  ; |150| 
    2030                    $C$DW$170       .dwtag  DW_TAG_TI_branch
    2031                            .dwattr $C$DW$170, DW_AT_low_pc(0x00)
    2032                            .dwattr $C$DW$170, DW_AT_name("VLIB_align_free")
    2033                            .dwattr $C$DW$170, DW_AT_TI_call
    2034                    
    2035 000006c0 10000013!            CALLP   .S2     VLIB_align_free,B3
TMS320C6x Assembler PC v7.4.2 Thu Mar 19 12:40:19 2015

Tools Copyright (c) 1996-2012 Texas Instruments Incorporated
package/lib/Regression/regress_d_c/./../packages/ti/vlib/src/VLIB_convertUYVYint_to_HSLpl/VLIB_convertUYVYint_to_HSLpl_d.se66 PAGE   38

    2036 000006c4 023dc2e4  ||         LDW     .D2T1   *+SP(56),A4       ; |151| 
    2037                    
    2038                            .dwpsn  file "./../packages/ti/vlib/src/VLIB_convertUYVYint_to_HSLpl/VLIB_convertUYVYint_to_HS
    2039                    $C$RL38:   ; CALL OCCURS {VLIB_align_free} {0}  ; |151| 
    2040                    $C$DW$171       .dwtag  DW_TAG_TI_branch
    2041                            .dwattr $C$DW$171, DW_AT_low_pc(0x00)
    2042                            .dwattr $C$DW$171, DW_AT_name("VLIB_align_free")
    2043                            .dwattr $C$DW$171, DW_AT_TI_call
    2044                    
    2045 000006c8 10000013!            CALLP   .S2     VLIB_align_free,B3
    2046 000006cc 023de2e4  ||         LDW     .D2T1   *+SP(60),A4       ; |152| 
    2047                    
    2048                            .dwpsn  file "./../packages/ti/vlib/src/VLIB_convertUYVYint_to_HSLpl/VLIB_convertUYVYint_to_HS
    2049                    $C$RL39:   ; CALL OCCURS {VLIB_align_free} {0}  ; |152| 
    2050                    $C$DW$172       .dwtag  DW_TAG_TI_branch
    2051                            .dwattr $C$DW$172, DW_AT_low_pc(0x00)
    2052                            .dwattr $C$DW$172, DW_AT_name("VLIB_align_free")
    2053                            .dwattr $C$DW$172, DW_AT_TI_call
    2054                    
    2055 000006d0 10000013!            CALLP   .S2     VLIB_align_free,B3
    2056 000006d4 023e02e4  ||         LDW     .D2T1   *+SP(64),A4       ; |153| 
    2057                    
    2058                            .dwpsn  file "./../packages/ti/vlib/src/VLIB_convertUYVYint_to_HSLpl/VLIB_convertUYVYint_to_HS
    2059 000006d8           $C$RL40:   ; CALL OCCURS {VLIB_align_free} {0}  ; |153| 
    2060 000006d8           $C$DW$L$VLIB_convertUYVYint_to_HSLpl_d$34$E:
    2061                    ;** --------------------------------------------------------------------------*
    2062 000006d8           $C$DW$L$VLIB_convertUYVYint_to_HSLpl_d$35$B:
    2063                    ;          EXCLUSIVE CPU CYCLES: 14
    2064 000006d8 01800028!            MVKL    .S1     test_cases,A3
    2065 000006dc 01800068!            MVKH    .S1     test_cases,A3
    2066                            .dwpsn  file "./../packages/ti/vlib/src/VLIB_convertUYVYint_to_HSLpl/VLIB_convertUYVYint_to_HS
    2067 000006e0 018c0264             LDW     .D1T1   *A3,A3            ; |51| 
    2068 000006e4 07382058             ADD     .L1     1,A14,A14         ; |51| 
    2069                            .dwpsn  file "./../packages/ti/vlib/src/VLIB_convertUYVYint_to_HSLpl/VLIB_convertUYVYint_to_HS
    2070 000006e8 06801450             ADDK    .S1     40,A13            ; |59| 
    2071                            .dwpsn  file "./../packages/ti/vlib/src/VLIB_convertUYVYint_to_HSLpl/VLIB_convertUYVYint_to_HS
    2072 000006ec 05801452             ADDK    .S2     40,B11            ; |51| 
    2073 000006f0 00000000             NOP             1
    2074 000006f4 003868f8             CMPGT   .L1     A3,A14,A0         ; |51| 
    2075                    
    2076 000006f8 cfff3211     [ A0]   B       .S1     $C$L1             ; |51| 
    2077 000006fc c2350266  || [ A0]   LDW     .D1T2   *+A13(32),B4      ; |63| 
    2078                    
    2079                            .dwpsn  file "./../packages/ti/vlib/src/VLIB_convertUYVYint_to_HSLpl/VLIB_convertUYVYint_to_HS
    2080 00000700 c5352264     [ A0]   LDW     .D1T1   *+A13(36),A10     ; |59| 
    2081                            .dwpsn  file "./../packages/ti/vlib/src/VLIB_convertUYVYint_to_HSLpl/VLIB_convertUYVYint_to_HS
    2082 00000704 c220a358     [ A0]   MVK     .L1     0x8,A4            ; |63| 
    2083                            .dwpsn  file "./../packages/ti/vlib/src/VLIB_convertUYVYint_to_HSLpl/VLIB_convertUYVYint_to_HS
    2084 00000708 c5b4e264     [ A0]   LDW     .D1T1   *+A13(28),A11     ; |59| 
    2085 0000070c 00002000             NOP             2
    2086                            .dwpsn  file "./../packages/ti/vlib/src/VLIB_convertUYVYint_to_HSLpl/VLIB_convertUYVYint_to_HS
    2087                               ; BRANCHCC OCCURS {$C$L1}         ; |51| 
    2088 00000710           $C$DW$L$VLIB_convertUYVYint_to_HSLpl_d$35$E:
    2089                    ;** --------------------------------------------------------------------------*
    2090 00000710           $C$L11:    
TMS320C6x Assembler PC v7.4.2 Thu Mar 19 12:40:19 2015

Tools Copyright (c) 1996-2012 Texas Instruments Incorporated
package/lib/Regression/regress_d_c/./../packages/ti/vlib/src/VLIB_convertUYVYint_to_HSLpl/VLIB_convertUYVYint_to_HSLpl_d.se66 PAGE   39

    2091                    ;          EXCLUSIVE CPU CYCLES: 7
    2092                    ;**     -----------------------g20:
    2093                    ;** 157 -----------------------    VLIB_profile_cycle_report(1, NULL, "width * height");
    2094                    ;** 158 -----------------------    printf((const char *)"---------------------------------------------
    2095                    ;** 165 -----------------------    VLIB_stack_memory();  // [18]
    2096                    ;**     -----------------------    return;
    2097 00000710 03000028!            MVKL    .S1     $C$SL4+0,A6
    2098                    $C$DW$173       .dwtag  DW_TAG_TI_branch
    2099                            .dwattr $C$DW$173, DW_AT_low_pc(0x00)
    2100                            .dwattr $C$DW$173, DW_AT_name("VLIB_profile_cycle_report")
    2101                            .dwattr $C$DW$173, DW_AT_TI_call
    2102                    
    2103 00000714 10000013!            CALLP   .S2     VLIB_profile_cycle_report,B3
    2104 00000718 03000069! ||         MVKH    .S1     $C$SL4+0,A6
    2105 0000071c 0204a359  ||         MVK     .L1     0x1,A4            ; |157| 
    2106 00000720 0200a35a  ||         ZERO    .L2     B4                ; |157| 
    2107                    
    2108                            .dwpsn  file "./../packages/ti/vlib/src/VLIB_convertUYVYint_to_HSLpl/VLIB_convertUYVYint_to_HS
    2109 00000724           $C$RL41:   ; CALL OCCURS {VLIB_profile_cycle_report} {0}  ; |157| 
    2110                    ;** --------------------------------------------------------------------------*
    2111                    ;          EXCLUSIVE CPU CYCLES: 14
    2112 00000724 0200002a!            MVKL    .S2     $C$SL5+0,B4
    2113 00000728 0200006a!            MVKH    .S2     $C$SL5+0,B4
    2114                    $C$DW$174       .dwtag  DW_TAG_TI_branch
    2115                            .dwattr $C$DW$174, DW_AT_low_pc(0x00)
    2116                            .dwattr $C$DW$174, DW_AT_name("printf")
    2117                            .dwattr $C$DW$174, DW_AT_TI_call
    2118                    
    2119 0000072c 10000013!            CALLP   .S2     printf,B3
    2120 00000730 023c22f6  ||         STW     .D2T2   B4,*+SP(4)        ; |158| 
    2121                    
    2122                            .dwpsn  file ".\..\packages\ti\vlib\src\VLIB_convertUYVYint_to_HSLpl\../common/VLIB_memory.h",
    2123                    $C$RL42:   ; CALL OCCURS {printf} {0}        ; |158| 
    2124                    $C$DW$175       .dwtag  DW_TAG_TI_branch
    2125                            .dwattr $C$DW$175, DW_AT_low_pc(0x00)
    2126                            .dwattr $C$DW$175, DW_AT_name("VLIB_stack_memory")
    2127                            .dwattr $C$DW$175, DW_AT_TI_call
    2128 00000734 10000012!            CALLP   .S2     VLIB_stack_memory,B3
    2129                            .dwpsn  file ".\..\packages\ti\vlib\src\VLIB_convertUYVYint_to_HSLpl\../common/VLIB_memory.h",
    2130 00000738           $C$RL43:   ; CALL OCCURS {VLIB_stack_memory} {0}  ; |165| 
    2131                    ;** --------------------------------------------------------------------------*
    2132                    ;          EXCLUSIVE CPU CYCLES: 13
    2133                            .dwpsn  file "./../packages/ti/vlib/src/VLIB_convertUYVYint_to_HSLpl/VLIB_convertUYVYint_to_HS
    2134 00000738 01be52e6             LDW     .D2T2   *++SP(72),B3      ; |163| 
    2135                            .dwcfi  cfa_offset, 48
    2136                            .dwcfi  restore_reg, 19
    2137 0000073c 063c33e4             LDDW    .D2T1   *++SP,A13:A12
    2138                            .dwcfi  cfa_offset, 40
    2139                            .dwcfi  restore_reg, 13
    2140                            .dwcfi  restore_reg, 12
    2141 00000740 073c33e4             LDDW    .D2T1   *++SP,A15:A14
    2142                            .dwcfi  cfa_offset, 32
    2143                            .dwcfi  restore_reg, 15
    2144                            .dwcfi  restore_reg, 14
    2145 00000744 053c33e6             LDDW    .D2T2   *++SP,B11:B10
TMS320C6x Assembler PC v7.4.2 Thu Mar 19 12:40:19 2015

Tools Copyright (c) 1996-2012 Texas Instruments Incorporated
package/lib/Regression/regress_d_c/./../packages/ti/vlib/src/VLIB_convertUYVYint_to_HSLpl/VLIB_convertUYVYint_to_HSLpl_d.se66 PAGE   40

    2146                            .dwcfi  cfa_offset, 24
    2147                            .dwcfi  restore_reg, 27
    2148                            .dwcfi  restore_reg, 26
    2149 00000748 063c33e6             LDDW    .D2T2   *++SP,B13:B12
    2150                            .dwcfi  cfa_offset, 16
    2151                            .dwcfi  restore_reg, 29
    2152                            .dwcfi  restore_reg, 28
    2153 0000074c 053c52e4             LDW     .D2T1   *++SP(8),A10
    2154                            .dwcfi  cfa_offset, 8
    2155                            .dwcfi  restore_reg, 10
    2156 00000750 05bc52e4             LDW     .D2T1   *++SP(8),A11      ; |163| 
    2157                            .dwcfi  cfa_offset, 0
    2158                            .dwcfi  restore_reg, 11
    2159                            .dwcfi  cfa_offset, 0
    2160                    $C$DW$176       .dwtag  DW_TAG_TI_branch
    2161                            .dwattr $C$DW$176, DW_AT_low_pc(0x00)
    2162                            .dwattr $C$DW$176, DW_AT_TI_return
    2163 00000754 008ca362             RETNOP  .S2     B3,5
    2164                               ; BRANCH OCCURS {B3}  
    2165                    
    2166                    $C$DW$177       .dwtag  DW_TAG_TI_loop
    2167                            .dwattr $C$DW$177, DW_AT_name("c:\nightlybuilds\vlib\ti\vlib\vlib\examples\package/lib/Regress
    2168                            .dwattr $C$DW$177, DW_AT_TI_begin_file("./../packages/ti/vlib/src/VLIB_convertUYVYint_to_HSLpl
    2169                            .dwattr $C$DW$177, DW_AT_TI_begin_line(0x33)
    2170                            .dwattr $C$DW$177, DW_AT_TI_end_line(0x9a)
    2171                    $C$DW$178       .dwtag  DW_TAG_TI_loop_range
    2172                            .dwattr $C$DW$178, DW_AT_low_pc($C$DW$L$VLIB_convertUYVYint_to_HSLpl_d$4$B)
    2173                            .dwattr $C$DW$178, DW_AT_high_pc($C$DW$L$VLIB_convertUYVYint_to_HSLpl_d$4$E)
    2174                    $C$DW$179       .dwtag  DW_TAG_TI_loop_range
    2175                            .dwattr $C$DW$179, DW_AT_low_pc($C$DW$L$VLIB_convertUYVYint_to_HSLpl_d$24$B)
    2176                            .dwattr $C$DW$179, DW_AT_high_pc($C$DW$L$VLIB_convertUYVYint_to_HSLpl_d$24$E)
    2177                    $C$DW$180       .dwtag  DW_TAG_TI_loop_range
    2178                            .dwattr $C$DW$180, DW_AT_low_pc($C$DW$L$VLIB_convertUYVYint_to_HSLpl_d$25$B)
    2179                            .dwattr $C$DW$180, DW_AT_high_pc($C$DW$L$VLIB_convertUYVYint_to_HSLpl_d$25$E)
    2180                    $C$DW$181       .dwtag  DW_TAG_TI_loop_range
    2181                            .dwattr $C$DW$181, DW_AT_low_pc($C$DW$L$VLIB_convertUYVYint_to_HSLpl_d$26$B)
    2182                            .dwattr $C$DW$181, DW_AT_high_pc($C$DW$L$VLIB_convertUYVYint_to_HSLpl_d$26$E)
    2183                    $C$DW$182       .dwtag  DW_TAG_TI_loop_range
    2184                            .dwattr $C$DW$182, DW_AT_low_pc($C$DW$L$VLIB_convertUYVYint_to_HSLpl_d$27$B)
    2185                            .dwattr $C$DW$182, DW_AT_high_pc($C$DW$L$VLIB_convertUYVYint_to_HSLpl_d$27$E)
    2186                    $C$DW$183       .dwtag  DW_TAG_TI_loop_range
    2187                            .dwattr $C$DW$183, DW_AT_low_pc($C$DW$L$VLIB_convertUYVYint_to_HSLpl_d$28$B)
    2188                            .dwattr $C$DW$183, DW_AT_high_pc($C$DW$L$VLIB_convertUYVYint_to_HSLpl_d$28$E)
    2189                    $C$DW$184       .dwtag  DW_TAG_TI_loop_range
    2190                            .dwattr $C$DW$184, DW_AT_low_pc($C$DW$L$VLIB_convertUYVYint_to_HSLpl_d$10$B)
    2191                            .dwattr $C$DW$184, DW_AT_high_pc($C$DW$L$VLIB_convertUYVYint_to_HSLpl_d$10$E)
    2192                    $C$DW$185       .dwtag  DW_TAG_TI_loop_range
    2193                            .dwattr $C$DW$185, DW_AT_low_pc($C$DW$L$VLIB_convertUYVYint_to_HSLpl_d$11$B)
    2194                            .dwattr $C$DW$185, DW_AT_high_pc($C$DW$L$VLIB_convertUYVYint_to_HSLpl_d$11$E)
    2195                    $C$DW$186       .dwtag  DW_TAG_TI_loop_range
    2196                            .dwattr $C$DW$186, DW_AT_low_pc($C$DW$L$VLIB_convertUYVYint_to_HSLpl_d$15$B)
    2197                            .dwattr $C$DW$186, DW_AT_high_pc($C$DW$L$VLIB_convertUYVYint_to_HSLpl_d$15$E)
    2198                    $C$DW$187       .dwtag  DW_TAG_TI_loop_range
    2199                            .dwattr $C$DW$187, DW_AT_low_pc($C$DW$L$VLIB_convertUYVYint_to_HSLpl_d$16$B)
    2200                            .dwattr $C$DW$187, DW_AT_high_pc($C$DW$L$VLIB_convertUYVYint_to_HSLpl_d$16$E)
TMS320C6x Assembler PC v7.4.2 Thu Mar 19 12:40:19 2015

Tools Copyright (c) 1996-2012 Texas Instruments Incorporated
package/lib/Regression/regress_d_c/./../packages/ti/vlib/src/VLIB_convertUYVYint_to_HSLpl/VLIB_convertUYVYint_to_HSLpl_d.se66 PAGE   41

    2201                    $C$DW$188       .dwtag  DW_TAG_TI_loop_range
    2202                            .dwattr $C$DW$188, DW_AT_low_pc($C$DW$L$VLIB_convertUYVYint_to_HSLpl_d$17$B)
    2203                            .dwattr $C$DW$188, DW_AT_high_pc($C$DW$L$VLIB_convertUYVYint_to_HSLpl_d$17$E)
    2204                    $C$DW$189       .dwtag  DW_TAG_TI_loop_range
    2205                            .dwattr $C$DW$189, DW_AT_low_pc($C$DW$L$VLIB_convertUYVYint_to_HSLpl_d$18$B)
    2206                            .dwattr $C$DW$189, DW_AT_high_pc($C$DW$L$VLIB_convertUYVYint_to_HSLpl_d$18$E)
    2207                    $C$DW$190       .dwtag  DW_TAG_TI_loop_range
    2208                            .dwattr $C$DW$190, DW_AT_low_pc($C$DW$L$VLIB_convertUYVYint_to_HSLpl_d$19$B)
    2209                            .dwattr $C$DW$190, DW_AT_high_pc($C$DW$L$VLIB_convertUYVYint_to_HSLpl_d$19$E)
    2210                    $C$DW$191       .dwtag  DW_TAG_TI_loop_range
    2211                            .dwattr $C$DW$191, DW_AT_low_pc($C$DW$L$VLIB_convertUYVYint_to_HSLpl_d$20$B)
    2212                            .dwattr $C$DW$191, DW_AT_high_pc($C$DW$L$VLIB_convertUYVYint_to_HSLpl_d$20$E)
    2213                    $C$DW$192       .dwtag  DW_TAG_TI_loop_range
    2214                            .dwattr $C$DW$192, DW_AT_low_pc($C$DW$L$VLIB_convertUYVYint_to_HSLpl_d$21$B)
    2215                            .dwattr $C$DW$192, DW_AT_high_pc($C$DW$L$VLIB_convertUYVYint_to_HSLpl_d$21$E)
    2216                    $C$DW$193       .dwtag  DW_TAG_TI_loop_range
    2217                            .dwattr $C$DW$193, DW_AT_low_pc($C$DW$L$VLIB_convertUYVYint_to_HSLpl_d$22$B)
    2218                            .dwattr $C$DW$193, DW_AT_high_pc($C$DW$L$VLIB_convertUYVYint_to_HSLpl_d$22$E)
    2219                    $C$DW$194       .dwtag  DW_TAG_TI_loop_range
    2220                            .dwattr $C$DW$194, DW_AT_low_pc($C$DW$L$VLIB_convertUYVYint_to_HSLpl_d$23$B)
    2221                            .dwattr $C$DW$194, DW_AT_high_pc($C$DW$L$VLIB_convertUYVYint_to_HSLpl_d$23$E)
    2222                    $C$DW$195       .dwtag  DW_TAG_TI_loop_range
    2223                            .dwattr $C$DW$195, DW_AT_low_pc($C$DW$L$VLIB_convertUYVYint_to_HSLpl_d$29$B)
    2224                            .dwattr $C$DW$195, DW_AT_high_pc($C$DW$L$VLIB_convertUYVYint_to_HSLpl_d$29$E)
    2225                    $C$DW$196       .dwtag  DW_TAG_TI_loop_range
    2226                            .dwattr $C$DW$196, DW_AT_low_pc($C$DW$L$VLIB_convertUYVYint_to_HSLpl_d$30$B)
    2227                            .dwattr $C$DW$196, DW_AT_high_pc($C$DW$L$VLIB_convertUYVYint_to_HSLpl_d$30$E)
    2228                    $C$DW$197       .dwtag  DW_TAG_TI_loop_range
    2229                            .dwattr $C$DW$197, DW_AT_low_pc($C$DW$L$VLIB_convertUYVYint_to_HSLpl_d$31$B)
    2230                            .dwattr $C$DW$197, DW_AT_high_pc($C$DW$L$VLIB_convertUYVYint_to_HSLpl_d$31$E)
    2231                    $C$DW$198       .dwtag  DW_TAG_TI_loop_range
    2232                            .dwattr $C$DW$198, DW_AT_low_pc($C$DW$L$VLIB_convertUYVYint_to_HSLpl_d$5$B)
    2233                            .dwattr $C$DW$198, DW_AT_high_pc($C$DW$L$VLIB_convertUYVYint_to_HSLpl_d$5$E)
    2234                    $C$DW$199       .dwtag  DW_TAG_TI_loop_range
    2235                            .dwattr $C$DW$199, DW_AT_low_pc($C$DW$L$VLIB_convertUYVYint_to_HSLpl_d$6$B)
    2236                            .dwattr $C$DW$199, DW_AT_high_pc($C$DW$L$VLIB_convertUYVYint_to_HSLpl_d$6$E)
    2237                    $C$DW$200       .dwtag  DW_TAG_TI_loop_range
    2238                            .dwattr $C$DW$200, DW_AT_low_pc($C$DW$L$VLIB_convertUYVYint_to_HSLpl_d$7$B)
    2239                            .dwattr $C$DW$200, DW_AT_high_pc($C$DW$L$VLIB_convertUYVYint_to_HSLpl_d$7$E)
    2240                    $C$DW$201       .dwtag  DW_TAG_TI_loop_range
    2241                            .dwattr $C$DW$201, DW_AT_low_pc($C$DW$L$VLIB_convertUYVYint_to_HSLpl_d$8$B)
    2242                            .dwattr $C$DW$201, DW_AT_high_pc($C$DW$L$VLIB_convertUYVYint_to_HSLpl_d$8$E)
    2243                    $C$DW$202       .dwtag  DW_TAG_TI_loop_range
    2244                            .dwattr $C$DW$202, DW_AT_low_pc($C$DW$L$VLIB_convertUYVYint_to_HSLpl_d$9$B)
    2245                            .dwattr $C$DW$202, DW_AT_high_pc($C$DW$L$VLIB_convertUYVYint_to_HSLpl_d$9$E)
    2246                    $C$DW$203       .dwtag  DW_TAG_TI_loop_range
    2247                            .dwattr $C$DW$203, DW_AT_low_pc($C$DW$L$VLIB_convertUYVYint_to_HSLpl_d$32$B)
    2248                            .dwattr $C$DW$203, DW_AT_high_pc($C$DW$L$VLIB_convertUYVYint_to_HSLpl_d$32$E)
    2249                    $C$DW$204       .dwtag  DW_TAG_TI_loop_range
    2250                            .dwattr $C$DW$204, DW_AT_low_pc($C$DW$L$VLIB_convertUYVYint_to_HSLpl_d$33$B)
    2251                            .dwattr $C$DW$204, DW_AT_high_pc($C$DW$L$VLIB_convertUYVYint_to_HSLpl_d$33$E)
    2252                    $C$DW$205       .dwtag  DW_TAG_TI_loop_range
    2253                            .dwattr $C$DW$205, DW_AT_low_pc($C$DW$L$VLIB_convertUYVYint_to_HSLpl_d$34$B)
    2254                            .dwattr $C$DW$205, DW_AT_high_pc($C$DW$L$VLIB_convertUYVYint_to_HSLpl_d$34$E)
    2255                    $C$DW$206       .dwtag  DW_TAG_TI_loop_range
TMS320C6x Assembler PC v7.4.2 Thu Mar 19 12:40:19 2015

Tools Copyright (c) 1996-2012 Texas Instruments Incorporated
package/lib/Regression/regress_d_c/./../packages/ti/vlib/src/VLIB_convertUYVYint_to_HSLpl/VLIB_convertUYVYint_to_HSLpl_d.se66 PAGE   42

    2256                            .dwattr $C$DW$206, DW_AT_low_pc($C$DW$L$VLIB_convertUYVYint_to_HSLpl_d$35$B)
    2257                            .dwattr $C$DW$206, DW_AT_high_pc($C$DW$L$VLIB_convertUYVYint_to_HSLpl_d$35$E)
    2258                    
    2259                    $C$DW$207       .dwtag  DW_TAG_TI_loop
    2260                            .dwattr $C$DW$207, DW_AT_name("c:\nightlybuilds\vlib\ti\vlib\vlib\examples\package/lib/Regress
    2261                            .dwattr $C$DW$207, DW_AT_TI_begin_file("./../packages/ti/vlib/src/VLIB_convertUYVYint_to_HSLpl
    2262                            .dwattr $C$DW$207, DW_AT_TI_begin_line(0x59)
    2263                            .dwattr $C$DW$207, DW_AT_TI_end_line(0x5b)
    2264                    $C$DW$208       .dwtag  DW_TAG_TI_loop_range
    2265                            .dwattr $C$DW$208, DW_AT_low_pc($C$DW$L$VLIB_convertUYVYint_to_HSLpl_d$13$B)
    2266                            .dwattr $C$DW$208, DW_AT_high_pc($C$DW$L$VLIB_convertUYVYint_to_HSLpl_d$13$E)
    2267                            .dwendtag $C$DW$207
    2268                    
    2269                            .dwendtag $C$DW$177
    2270                    
    2271                            .dwattr $C$DW$92, DW_AT_TI_end_file("./../packages/ti/vlib/src/VLIB_convertUYVYint_to_HSLpl/VL
    2272                            .dwattr $C$DW$92, DW_AT_TI_end_line(0xa3)
    2273                            .dwattr $C$DW$92, DW_AT_TI_end_column(0x01)
    2274                            .dwendentry
    2275                            .dwendtag $C$DW$92
    2276                    
    2277                    ;; Inlined function references:
    2278                    ;; [ 14] VLIB_profile_start
    2279                    ;; [ 15] VLIB_profile_stop
    2280                    ;; [ 18] VLIB_kernel_memory
    2281                    ;******************************************************************************
    2282                    ;* STRINGS                                                                    *
    2283                    ;******************************************************************************
    2284 00000000                   .sect   ".const:.string"
    2285 00000000 00000056  $C$SL1: .string "VLIB_convertUYVYint_to_HSLpl",0
         00000001 0000004C 
         00000002 00000049 
         00000003 00000042 
         00000004 0000005F 
         00000005 00000063 
         00000006 0000006F 
         00000007 0000006E 
         00000008 00000076 
         00000009 00000065 
         0000000a 00000072 
         0000000b 00000074 
         0000000c 00000055 
         0000000d 00000059 
         0000000e 00000056 
         0000000f 00000059 
         00000010 00000069 
         00000011 0000006E 
         00000012 00000074 
         00000013 0000005F 
         00000014 00000074 
         00000015 0000006F 
         00000016 0000005F 
         00000017 00000048 
         00000018 00000053 
         00000019 0000004C 
TMS320C6x Assembler PC v7.4.2 Thu Mar 19 12:40:19 2015

Tools Copyright (c) 1996-2012 Texas Instruments Incorporated
package/lib/Regression/regress_d_c/./../packages/ti/vlib/src/VLIB_convertUYVYint_to_HSLpl/VLIB_convertUYVYint_to_HSLpl_d.se66 PAGE   43

         0000001a 00000070 
         0000001b 0000006C 
         0000001c 00000000 
    2286 0000001d 00000077  $C$SL2: .string "width=%d, pitch=%d, height=%d, num_pts=%d",0
         0000001e 00000069 
         0000001f 00000064 
         00000020 00000074 
         00000021 00000068 
         00000022 0000003D 
         00000023 00000025 
         00000024 00000064 
         00000025 0000002C 
         00000026 00000020 
         00000027 00000070 
         00000028 00000069 
         00000029 00000074 
         0000002a 00000063 
         0000002b 00000068 
         0000002c 0000003D 
         0000002d 00000025 
         0000002e 00000064 
         0000002f 0000002C 
         00000030 00000020 
         00000031 00000068 
         00000032 00000065 
         00000033 00000069 
         00000034 00000067 
         00000035 00000068 
         00000036 00000074 
         00000037 0000003D 
         00000038 00000025 
         00000039 00000064 
         0000003a 0000002C 
         0000003b 00000020 
         0000003c 0000006E 
         0000003d 00000075 
         0000003e 0000006D 
         0000003f 0000005F 
         00000040 00000070 
         00000041 00000074 
         00000042 00000073 
         00000043 0000003D 
         00000044 00000025 
         00000045 00000064 
         00000046 00000000 
    2287 00000047 00000025  $C$SL3: .string "%s generated input | Opt results compared to NatC results |"
         00000048 00000073 
         00000049 00000020 
         0000004a 00000067 
         0000004b 00000065 
         0000004c 0000006E 
         0000004d 00000065 
         0000004e 00000072 
         0000004f 00000061 
         00000050 00000074 
TMS320C6x Assembler PC v7.4.2 Thu Mar 19 12:40:19 2015

Tools Copyright (c) 1996-2012 Texas Instruments Incorporated
package/lib/Regression/regress_d_c/./../packages/ti/vlib/src/VLIB_convertUYVYint_to_HSLpl/VLIB_convertUYVYint_to_HSLpl_d.se66 PAGE   44

         00000051 00000065 
         00000052 00000064 
         00000053 00000020 
         00000054 00000069 
         00000055 0000006E 
         00000056 00000070 
         00000057 00000075 
         00000058 00000074 
         00000059 00000020 
         0000005a 0000007C 
         0000005b 00000020 
         0000005c 0000004F 
         0000005d 00000070 
         0000005e 00000074 
         0000005f 00000020 
         00000060 00000072 
         00000061 00000065 
         00000062 00000073 
         00000063 00000075 
         00000064 0000006C 
         00000065 00000074 
         00000066 00000073 
         00000067 00000020 
         00000068 00000063 
         00000069 0000006F 
         0000006a 0000006D 
         0000006b 00000070 
         0000006c 00000061 
         0000006d 00000072 
         0000006e 00000065 
         0000006f 00000064 
         00000070 00000020 
         00000071 00000074 
         00000072 0000006F 
         00000073 00000020 
         00000074 0000004E 
         00000075 00000061 
         00000076 00000074 
         00000077 00000043 
         00000078 00000020 
         00000079 00000072 
         0000007a 00000065 
         0000007b 00000073 
         0000007c 00000075 
         0000007d 0000006C 
         0000007e 00000074 
         0000007f 00000073 
         00000080 00000020 
         00000081 0000007C 
    2288 00000082 00000020          .string " width=%d, pitch=%d, height=%d, num_pts=%d",0
         00000083 00000077 
         00000084 00000069 
         00000085 00000064 
         00000086 00000074 
         00000087 00000068 
TMS320C6x Assembler PC v7.4.2 Thu Mar 19 12:40:19 2015

Tools Copyright (c) 1996-2012 Texas Instruments Incorporated
package/lib/Regression/regress_d_c/./../packages/ti/vlib/src/VLIB_convertUYVYint_to_HSLpl/VLIB_convertUYVYint_to_HSLpl_d.se66 PAGE   45

         00000088 0000003D 
         00000089 00000025 
         0000008a 00000064 
         0000008b 0000002C 
         0000008c 00000020 
         0000008d 00000070 
         0000008e 00000069 
         0000008f 00000074 
         00000090 00000063 
         00000091 00000068 
         00000092 0000003D 
         00000093 00000025 
         00000094 00000064 
         00000095 0000002C 
         00000096 00000020 
         00000097 00000068 
         00000098 00000065 
         00000099 00000069 
         0000009a 00000067 
         0000009b 00000068 
         0000009c 00000074 
         0000009d 0000003D 
         0000009e 00000025 
         0000009f 00000064 
         000000a0 0000002C 
         000000a1 00000020 
         000000a2 0000006E 
         000000a3 00000075 
         000000a4 0000006D 
         000000a5 0000005F 
         000000a6 00000070 
         000000a7 00000074 
         000000a8 00000073 
         000000a9 0000003D 
         000000aa 00000025 
         000000ab 00000064 
         000000ac 00000000 
    2289 000000ad 00000077  $C$SL4: .string "width * height",0
         000000ae 00000069 
         000000af 00000064 
         000000b0 00000074 
         000000b1 00000068 
         000000b2 00000020 
         000000b3 0000002A 
         000000b4 00000020 
         000000b5 00000068 
         000000b6 00000065 
         000000b7 00000069 
         000000b8 00000067 
         000000b9 00000068 
         000000ba 00000074 
         000000bb 00000000 
    2290 000000bc 0000002D  $C$SL5: .string "-----------------------------------------------------------"
         000000bd 0000002D 
         000000be 0000002D 
TMS320C6x Assembler PC v7.4.2 Thu Mar 19 12:40:19 2015

Tools Copyright (c) 1996-2012 Texas Instruments Incorporated
package/lib/Regression/regress_d_c/./../packages/ti/vlib/src/VLIB_convertUYVYint_to_HSLpl/VLIB_convertUYVYint_to_HSLpl_d.se66 PAGE   46

         000000bf 0000002D 
         000000c0 0000002D 
         000000c1 0000002D 
         000000c2 0000002D 
         000000c3 0000002D 
         000000c4 0000002D 
         000000c5 0000002D 
         000000c6 0000002D 
         000000c7 0000002D 
         000000c8 0000002D 
         000000c9 0000002D 
         000000ca 0000002D 
         000000cb 0000002D 
         000000cc 0000002D 
         000000cd 0000002D 
         000000ce 0000002D 
         000000cf 0000002D 
         000000d0 0000002D 
         000000d1 0000002D 
         000000d2 0000002D 
         000000d3 0000002D 
         000000d4 0000002D 
         000000d5 0000002D 
         000000d6 0000002D 
         000000d7 0000002D 
         000000d8 0000002D 
         000000d9 0000002D 
         000000da 0000002D 
         000000db 0000002D 
         000000dc 0000002D 
         000000dd 0000002D 
         000000de 0000002D 
         000000df 0000002D 
         000000e0 0000002D 
         000000e1 0000002D 
         000000e2 0000002D 
         000000e3 0000002D 
         000000e4 0000002D 
         000000e5 0000002D 
         000000e6 0000002D 
         000000e7 0000002D 
         000000e8 0000002D 
         000000e9 0000002D 
         000000ea 0000002D 
         000000eb 0000002D 
         000000ec 0000002D 
         000000ed 0000002D 
         000000ee 0000002D 
         000000ef 0000002D 
         000000f0 0000002D 
         000000f1 0000002D 
         000000f2 0000002D 
         000000f3 0000002D 
         000000f4 0000002D 
         000000f5 0000002D 
TMS320C6x Assembler PC v7.4.2 Thu Mar 19 12:40:19 2015

Tools Copyright (c) 1996-2012 Texas Instruments Incorporated
package/lib/Regression/regress_d_c/./../packages/ti/vlib/src/VLIB_convertUYVYint_to_HSLpl/VLIB_convertUYVYint_to_HSLpl_d.se66 PAGE   47

         000000f6 0000002D 
    2291 000000f7 0000002D          .string "-----------------------------------------------------------"
         000000f8 0000002D 
         000000f9 0000002D 
         000000fa 0000002D 
         000000fb 0000002D 
         000000fc 0000002D 
         000000fd 0000002D 
         000000fe 0000002D 
         000000ff 0000002D 
         00000100 0000002D 
         00000101 0000002D 
         00000102 0000002D 
         00000103 0000002D 
         00000104 0000002D 
         00000105 0000002D 
         00000106 0000002D 
         00000107 0000002D 
         00000108 0000002D 
         00000109 0000002D 
         0000010a 0000002D 
         0000010b 0000002D 
         0000010c 0000002D 
         0000010d 0000002D 
         0000010e 0000002D 
         0000010f 0000002D 
         00000110 0000002D 
         00000111 0000002D 
         00000112 0000002D 
         00000113 0000002D 
         00000114 0000002D 
         00000115 0000002D 
         00000116 0000002D 
         00000117 0000002D 
         00000118 0000002D 
         00000119 0000002D 
         0000011a 0000002D 
         0000011b 0000002D 
         0000011c 0000002D 
         0000011d 0000002D 
         0000011e 0000002D 
         0000011f 0000002D 
         00000120 0000002D 
         00000121 0000002D 
         00000122 0000002D 
         00000123 0000002D 
         00000124 0000002D 
         00000125 0000002D 
         00000126 0000002D 
         00000127 0000002D 
         00000128 0000002D 
         00000129 0000002D 
         0000012a 0000002D 
         0000012b 0000002D 
         0000012c 0000002D 
TMS320C6x Assembler PC v7.4.2 Thu Mar 19 12:40:19 2015

Tools Copyright (c) 1996-2012 Texas Instruments Incorporated
package/lib/Regression/regress_d_c/./../packages/ti/vlib/src/VLIB_convertUYVYint_to_HSLpl/VLIB_convertUYVYint_to_HSLpl_d.se66 PAGE   48

         0000012d 0000002D 
         0000012e 0000002D 
         0000012f 0000002D 
         00000130 0000002D 
         00000131 0000002D 
    2292 00000132 0000002D          .string "-----------------------",10,0
         00000133 0000002D 
         00000134 0000002D 
         00000135 0000002D 
         00000136 0000002D 
         00000137 0000002D 
         00000138 0000002D 
         00000139 0000002D 
         0000013a 0000002D 
         0000013b 0000002D 
         0000013c 0000002D 
         0000013d 0000002D 
         0000013e 0000002D 
         0000013f 0000002D 
         00000140 0000002D 
         00000141 0000002D 
         00000142 0000002D 
         00000143 0000002D 
         00000144 0000002D 
         00000145 0000002D 
         00000146 0000002D 
         00000147 0000002D 
         00000148 0000002D 
         00000149 0000000A 
         0000014a 00000000 
    2293                    ;*****************************************************************************
    2294                    ;* UNDEFINED EXTERNAL REFERENCES                                             *
    2295                    ;*****************************************************************************
    2296                            .global printf
    2297                            .global sprintf
    2298                            .global malloc
    2299                            .global free
    2300                            .global VLIB_cache_inval
    2301                            .global VLIB_profile_init
    2302                            .global VLIB_formula_add_test
    2303                            .global VLIB_skip_test
    2304                            .global VLIB_profile_cycle_report
    2305                            .global initStack
    2306                            .global setStackDepth
    2307                            .global getSP
    2308                            .global VLIB_stack_memory
    2309                            .global VLIB_compare_mem
    2310                            .global VLIB_fillBuffer
    2311                            .global VLIB_memalign
    2312                            .global VLIB_malloc
    2313                            .global VLIB_align_free
    2314                            .global VLIB_free
    2315                            .global VLIB_convertUYVYint_to_HSLpl
    2316                            .global VLIB_convertUYVYint_to_HSLpl_cn
    2317                            .global UYVYint_to_HSLpl_getTestParams
TMS320C6x Assembler PC v7.4.2 Thu Mar 19 12:40:19 2015

Tools Copyright (c) 1996-2012 Texas Instruments Incorporated
package/lib/Regression/regress_d_c/./../packages/ti/vlib/src/VLIB_convertUYVYint_to_HSLpl/VLIB_convertUYVYint_to_HSLpl_d.se66 PAGE   49

    2318                            .global test_cases
    2319                            .global act_kernel
    2320                            .global desc
    2321                            .global testPatternString
    2322                            .global est_test
    2323                            .global beg_count
    2324                            .global end_count
    2325                            .global overhead
    2326                            .global cycles
    2327                    
    2328                    ;******************************************************************************
    2329                    ;* BUILD ATTRIBUTES                                                           *
    2330                    ;******************************************************************************
    2331                            .battr "TI", Tag_File, 1, Tag_Long_Precision_Bits(2)
    2332                            .battr "TI", Tag_File, 1, Tag_Bitfield_layout(2)
    2333                            .battr "TI", Tag_File, 1, Tag_ABI_enum_size(2)
    2334                            .battr "c6xabi", Tag_File, 1, Tag_ABI_wchar_t(1)
    2335                            .battr "c6xabi", Tag_File, 1, Tag_ABI_array_object_alignment(0)
    2336                            .battr "c6xabi", Tag_File, 1, Tag_ABI_array_object_align_expected(0)
    2337                            .battr "c6xabi", Tag_File, 1, Tag_ABI_PIC(0)
    2338                            .battr "c6xabi", Tag_File, 1, Tag_ABI_PID(0)
    2339                            .battr "c6xabi", Tag_File, 1, Tag_ABI_DSBT(0)
    2340                            .battr "c6xabi", Tag_File, 1, Tag_ABI_stack_align_needed(0)
    2341                            .battr "c6xabi", Tag_File, 1, Tag_ABI_stack_align_preserved(0)
    2342                            .battr "TI", Tag_File, 1, Tag_Tramps_Use_SOC(1)
    2343                    
    2344                    ;******************************************************************************
    2345                    ;* TYPE INFORMATION                                                           *
    2346                    ;******************************************************************************
    2347                    
    2348                    $C$DW$T$40      .dwtag  DW_TAG_enumeration_type
    2349                            .dwattr $C$DW$T$40, DW_AT_byte_size(0x04)
    2350                    $C$DW$209       .dwtag  DW_TAG_enumerator, DW_AT_name("VLIB_NO_ERROR"), DW_AT_const_value(0x00)
    2351                            .dwattr $C$DW$209, DW_AT_decl_file(".\..\packages\ti\vlib\src\VLIB_convertUYVYint_to_HSLpl\..\
    2352                            .dwattr $C$DW$209, DW_AT_decl_line(0x7a)
    2353                            .dwattr $C$DW$209, DW_AT_decl_column(0x05)
    2354                    $C$DW$210       .dwtag  DW_TAG_enumerator, DW_AT_name("VLIB_ERR_INPUT_INVALID"), DW_AT_const_value(0x0
    2355                            .dwattr $C$DW$210, DW_AT_decl_file(".\..\packages\ti\vlib\src\VLIB_convertUYVYint_to_HSLpl\..\
    2356                            .dwattr $C$DW$210, DW_AT_decl_line(0x7b)
    2357                            .dwattr $C$DW$210, DW_AT_decl_column(0x05)
    2358                    $C$DW$211       .dwtag  DW_TAG_enumerator, DW_AT_name("VLIB_ERR_INPUT_NEGATIVE"), DW_AT_const_value(0x
    2359                            .dwattr $C$DW$211, DW_AT_decl_file(".\..\packages\ti\vlib\src\VLIB_convertUYVYint_to_HSLpl\..\
    2360                            .dwattr $C$DW$211, DW_AT_decl_line(0x7c)
    2361                            .dwattr $C$DW$211, DW_AT_decl_column(0x05)
    2362                    $C$DW$212       .dwtag  DW_TAG_enumerator, DW_AT_name("VLIB_ERR_INPUT_EXCEEDED_RANGE"), DW_AT_const_va
    2363                            .dwattr $C$DW$212, DW_AT_decl_file(".\..\packages\ti\vlib\src\VLIB_convertUYVYint_to_HSLpl\..\
    2364                            .dwattr $C$DW$212, DW_AT_decl_line(0x7d)
    2365                            .dwattr $C$DW$212, DW_AT_decl_column(0x05)
    2366                    $C$DW$213       .dwtag  DW_TAG_enumerator, DW_AT_name("VLIB_ERR_MEMORY_EXCEEDED_BOUNDARY"), DW_AT_cons
    2367                            .dwattr $C$DW$213, DW_AT_decl_file(".\..\packages\ti\vlib\src\VLIB_convertUYVYint_to_HSLpl\..\
    2368                            .dwattr $C$DW$213, DW_AT_decl_line(0x7e)
    2369                            .dwattr $C$DW$213, DW_AT_decl_column(0x05)
    2370                    $C$DW$214       .dwtag  DW_TAG_enumerator, DW_AT_name("VLIB_ERR_MEMORY_ALLOCATION_FAILURE"), DW_AT_con
    2371                            .dwattr $C$DW$214, DW_AT_decl_file(".\..\packages\ti\vlib\src\VLIB_convertUYVYint_to_HSLpl\..\
    2372                            .dwattr $C$DW$214, DW_AT_decl_line(0x7f)
TMS320C6x Assembler PC v7.4.2 Thu Mar 19 12:40:19 2015

Tools Copyright (c) 1996-2012 Texas Instruments Incorporated
package/lib/Regression/regress_d_c/./../packages/ti/vlib/src/VLIB_convertUYVYint_to_HSLpl/VLIB_convertUYVYint_to_HSLpl_d.se66 PAGE   50

    2373                            .dwattr $C$DW$214, DW_AT_decl_column(0x05)
    2374                    $C$DW$215       .dwtag  DW_TAG_enumerator, DW_AT_name("VLIB_ERR_MEMORY_POINTER_NULL"), DW_AT_const_val
    2375                            .dwattr $C$DW$215, DW_AT_decl_file(".\..\packages\ti\vlib\src\VLIB_convertUYVYint_to_HSLpl\..\
    2376                            .dwattr $C$DW$215, DW_AT_decl_line(0x80)
    2377                            .dwattr $C$DW$215, DW_AT_decl_column(0x05)
    2378                    $C$DW$216       .dwtag  DW_TAG_enumerator, DW_AT_name("VLIB_ERR_DMA_FAILURE"), DW_AT_const_value(0x07)
    2379                            .dwattr $C$DW$216, DW_AT_decl_file(".\..\packages\ti\vlib\src\VLIB_convertUYVYint_to_HSLpl\..\
    2380                            .dwattr $C$DW$216, DW_AT_decl_line(0x81)
    2381                            .dwattr $C$DW$216, DW_AT_decl_column(0x05)
    2382                    $C$DW$217       .dwtag  DW_TAG_enumerator, DW_AT_name("VLIB_ERR_FILE_OPEN_FAILURE"), DW_AT_const_value
    2383                            .dwattr $C$DW$217, DW_AT_decl_file(".\..\packages\ti\vlib\src\VLIB_convertUYVYint_to_HSLpl\..\
    2384                            .dwattr $C$DW$217, DW_AT_decl_line(0x82)
    2385                            .dwattr $C$DW$217, DW_AT_decl_column(0x05)
    2386                    $C$DW$218       .dwtag  DW_TAG_enumerator, DW_AT_name("VLIB_ERR_FILE_READ_FAILURE"), DW_AT_const_value
    2387                            .dwattr $C$DW$218, DW_AT_decl_file(".\..\packages\ti\vlib\src\VLIB_convertUYVYint_to_HSLpl\..\
    2388                            .dwattr $C$DW$218, DW_AT_decl_line(0x83)
    2389                            .dwattr $C$DW$218, DW_AT_decl_column(0x05)
    2390                    $C$DW$219       .dwtag  DW_TAG_enumerator, DW_AT_name("VLIB_ERR_FILE_WRITE_FAILURE"), DW_AT_const_valu
    2391                            .dwattr $C$DW$219, DW_AT_decl_file(".\..\packages\ti\vlib\src\VLIB_convertUYVYint_to_HSLpl\..\
    2392                            .dwattr $C$DW$219, DW_AT_decl_line(0x84)
    2393                            .dwattr $C$DW$219, DW_AT_decl_column(0x05)
    2394                    $C$DW$220       .dwtag  DW_TAG_enumerator, DW_AT_name("VLIB_ERR_FILE_CLOSE_FAILURE"), DW_AT_const_valu
    2395                            .dwattr $C$DW$220, DW_AT_decl_file(".\..\packages\ti\vlib\src\VLIB_convertUYVYint_to_HSLpl\..\
    2396                            .dwattr $C$DW$220, DW_AT_decl_line(0x85)
    2397                            .dwattr $C$DW$220, DW_AT_decl_column(0x05)
    2398                    $C$DW$221       .dwtag  DW_TAG_enumerator, DW_AT_name("VLIB_ERR_FILE_FORMAT_FAILURE"), DW_AT_const_val
    2399                            .dwattr $C$DW$221, DW_AT_decl_file(".\..\packages\ti\vlib\src\VLIB_convertUYVYint_to_HSLpl\..\
    2400                            .dwattr $C$DW$221, DW_AT_decl_line(0x86)
    2401                            .dwattr $C$DW$221, DW_AT_decl_column(0x05)
    2402                    $C$DW$222       .dwtag  DW_TAG_enumerator, DW_AT_name("VLIB_WARNING_LOW_MEMORY"), DW_AT_const_value(0x
    2403                            .dwattr $C$DW$222, DW_AT_decl_file(".\..\packages\ti\vlib\src\VLIB_convertUYVYint_to_HSLpl\..\
    2404                            .dwattr $C$DW$222, DW_AT_decl_line(0x87)
    2405                            .dwattr $C$DW$222, DW_AT_decl_column(0x05)
    2406                    $C$DW$223       .dwtag  DW_TAG_enumerator, DW_AT_name("VLIB_ERR_NOT_IMPLEMENTED"), DW_AT_const_value(0
    2407                            .dwattr $C$DW$223, DW_AT_decl_file(".\..\packages\ti\vlib\src\VLIB_convertUYVYint_to_HSLpl\..\
    2408                            .dwattr $C$DW$223, DW_AT_decl_line(0x88)
    2409                            .dwattr $C$DW$223, DW_AT_decl_column(0x05)
    2410                    $C$DW$224       .dwtag  DW_TAG_enumerator, DW_AT_name("VLIB_ERROR_MAX"), DW_AT_const_value(0x0f)
    2411                            .dwattr $C$DW$224, DW_AT_decl_file(".\..\packages\ti\vlib\src\VLIB_convertUYVYint_to_HSLpl\..\
    2412                            .dwattr $C$DW$224, DW_AT_decl_line(0x89)
    2413                            .dwattr $C$DW$224, DW_AT_decl_column(0x05)
    2414                            .dwendtag $C$DW$T$40
    2415                    
    2416                            .dwattr $C$DW$T$40, DW_AT_decl_file(".\..\packages\ti\vlib\src\VLIB_convertUYVYint_to_HSLpl\..
    2417                            .dwattr $C$DW$T$40, DW_AT_decl_line(0x79)
    2418                            .dwattr $C$DW$T$40, DW_AT_decl_column(0x0e)
    2419                    $C$DW$T$41      .dwtag  DW_TAG_typedef, DW_AT_name("VLIB_STATUS")
    2420                            .dwattr $C$DW$T$41, DW_AT_type(*$C$DW$T$40)
    2421                            .dwattr $C$DW$T$41, DW_AT_language(DW_LANG_C)
    2422                            .dwattr $C$DW$T$41, DW_AT_decl_file(".\..\packages\ti\vlib\src\VLIB_convertUYVYint_to_HSLpl\..
    2423                            .dwattr $C$DW$T$41, DW_AT_decl_line(0x8a)
    2424                            .dwattr $C$DW$T$41, DW_AT_decl_column(0x03)
    2425                    
    2426                    $C$DW$T$42      .dwtag  DW_TAG_enumeration_type
    2427                            .dwattr $C$DW$T$42, DW_AT_byte_size(0x04)
TMS320C6x Assembler PC v7.4.2 Thu Mar 19 12:40:19 2015

Tools Copyright (c) 1996-2012 Texas Instruments Incorporated
package/lib/Regression/regress_d_c/./../packages/ti/vlib/src/VLIB_convertUYVYint_to_HSLpl/VLIB_convertUYVYint_to_HSLpl_d.se66 PAGE   51

    2428                    $C$DW$225       .dwtag  DW_TAG_enumerator, DW_AT_name("vlib_KERNEL_OPT"), DW_AT_const_value(0x00)
    2429                            .dwattr $C$DW$225, DW_AT_decl_file(".\..\packages\ti\vlib\src\VLIB_convertUYVYint_to_HSLpl\../
    2430                            .dwattr $C$DW$225, DW_AT_decl_line(0x6a)
    2431                            .dwattr $C$DW$225, DW_AT_decl_column(0x05)
    2432                    $C$DW$226       .dwtag  DW_TAG_enumerator, DW_AT_name("vlib_KERNEL_CN"), DW_AT_const_value(0x01)
    2433                            .dwattr $C$DW$226, DW_AT_decl_file(".\..\packages\ti\vlib\src\VLIB_convertUYVYint_to_HSLpl\../
    2434                            .dwattr $C$DW$226, DW_AT_decl_line(0x6b)
    2435                            .dwattr $C$DW$226, DW_AT_decl_column(0x05)
    2436                    $C$DW$227       .dwtag  DW_TAG_enumerator, DW_AT_name("vlib_KERNEL_CNT"), DW_AT_const_value(0x02)
    2437                            .dwattr $C$DW$227, DW_AT_decl_file(".\..\packages\ti\vlib\src\VLIB_convertUYVYint_to_HSLpl\../
    2438                            .dwattr $C$DW$227, DW_AT_decl_line(0x6c)
    2439                            .dwattr $C$DW$227, DW_AT_decl_column(0x05)
    2440                            .dwendtag $C$DW$T$42
    2441                    
    2442                            .dwattr $C$DW$T$42, DW_AT_decl_file(".\..\packages\ti\vlib\src\VLIB_convertUYVYint_to_HSLpl\..
    2443                            .dwattr $C$DW$T$42, DW_AT_decl_line(0x69)
    2444                            .dwattr $C$DW$T$42, DW_AT_decl_column(0x06)
    2445                    
    2446                    $C$DW$T$43      .dwtag  DW_TAG_enumeration_type
    2447                            .dwattr $C$DW$T$43, DW_AT_byte_size(0x04)
    2448                    $C$DW$228       .dwtag  DW_TAG_enumerator, DW_AT_name("vlib_KERNEL_FAIL"), DW_AT_const_value(0x00)
    2449                            .dwattr $C$DW$228, DW_AT_decl_file(".\..\packages\ti\vlib\src\VLIB_convertUYVYint_to_HSLpl\../
    2450                            .dwattr $C$DW$228, DW_AT_decl_line(0x72)
    2451                            .dwattr $C$DW$228, DW_AT_decl_column(0x05)
    2452                    $C$DW$229       .dwtag  DW_TAG_enumerator, DW_AT_name("vlib_KERNEL_PASS"), DW_AT_const_value(0x01)
    2453                            .dwattr $C$DW$229, DW_AT_decl_file(".\..\packages\ti\vlib\src\VLIB_convertUYVYint_to_HSLpl\../
    2454                            .dwattr $C$DW$229, DW_AT_decl_line(0x73)
    2455                            .dwattr $C$DW$229, DW_AT_decl_column(0x05)
    2456                            .dwendtag $C$DW$T$43
    2457                    
    2458                            .dwattr $C$DW$T$43, DW_AT_decl_file(".\..\packages\ti\vlib\src\VLIB_convertUYVYint_to_HSLpl\..
    2459                            .dwattr $C$DW$T$43, DW_AT_decl_line(0x71)
    2460                            .dwattr $C$DW$T$43, DW_AT_decl_column(0x06)
    2461                    
    2462                    $C$DW$T$27      .dwtag  DW_TAG_structure_type
    2463                            .dwattr $C$DW$T$27, DW_AT_byte_size(0x28)
    2464                    $C$DW$230       .dwtag  DW_TAG_member
    2465                            .dwattr $C$DW$230, DW_AT_type(*$C$DW$T$19)
    2466                            .dwattr $C$DW$230, DW_AT_name("testPattern")
    2467                            .dwattr $C$DW$230, DW_AT_TI_symbol_name("testPattern")
    2468                            .dwattr $C$DW$230, DW_AT_data_member_location[DW_OP_plus_uconst 0x0]
    2469                            .dwattr $C$DW$230, DW_AT_accessibility(DW_ACCESS_public)
    2470                            .dwattr $C$DW$230, DW_AT_decl_file(".\..\packages\ti\vlib\src\VLIB_convertUYVYint_to_HSLpl\VLI
    2471                            .dwattr $C$DW$230, DW_AT_decl_line(0x24)
    2472                            .dwattr $C$DW$230, DW_AT_decl_column(0x0f)
    2473                    $C$DW$231       .dwtag  DW_TAG_member
    2474                            .dwattr $C$DW$231, DW_AT_type(*$C$DW$T$20)
    2475                            .dwattr $C$DW$231, DW_AT_name("staticIn")
    2476                            .dwattr $C$DW$231, DW_AT_TI_symbol_name("staticIn")
    2477                            .dwattr $C$DW$231, DW_AT_data_member_location[DW_OP_plus_uconst 0x4]
    2478                            .dwattr $C$DW$231, DW_AT_accessibility(DW_ACCESS_public)
    2479                            .dwattr $C$DW$231, DW_AT_decl_file(".\..\packages\ti\vlib\src\VLIB_convertUYVYint_to_HSLpl\VLI
    2480                            .dwattr $C$DW$231, DW_AT_decl_line(0x25)
    2481                            .dwattr $C$DW$231, DW_AT_decl_column(0x0f)
    2482                    $C$DW$232       .dwtag  DW_TAG_member
TMS320C6x Assembler PC v7.4.2 Thu Mar 19 12:40:19 2015

Tools Copyright (c) 1996-2012 Texas Instruments Incorporated
package/lib/Regression/regress_d_c/./../packages/ti/vlib/src/VLIB_convertUYVYint_to_HSLpl/VLIB_convertUYVYint_to_HSLpl_d.se66 PAGE   52

    2483                            .dwattr $C$DW$232, DW_AT_type(*$C$DW$T$22)
    2484                            .dwattr $C$DW$232, DW_AT_name("staticOutH")
    2485                            .dwattr $C$DW$232, DW_AT_TI_symbol_name("staticOutH")
    2486                            .dwattr $C$DW$232, DW_AT_data_member_location[DW_OP_plus_uconst 0x8]
    2487                            .dwattr $C$DW$232, DW_AT_accessibility(DW_ACCESS_public)
    2488                            .dwattr $C$DW$232, DW_AT_decl_file(".\..\packages\ti\vlib\src\VLIB_convertUYVYint_to_HSLpl\VLI
    2489                            .dwattr $C$DW$232, DW_AT_decl_line(0x26)
    2490                            .dwattr $C$DW$232, DW_AT_decl_column(0x0f)
    2491                    $C$DW$233       .dwtag  DW_TAG_member
    2492                            .dwattr $C$DW$233, DW_AT_type(*$C$DW$T$20)
    2493                            .dwattr $C$DW$233, DW_AT_name("staticOutS")
    2494                            .dwattr $C$DW$233, DW_AT_TI_symbol_name("staticOutS")
    2495                            .dwattr $C$DW$233, DW_AT_data_member_location[DW_OP_plus_uconst 0xc]
    2496                            .dwattr $C$DW$233, DW_AT_accessibility(DW_ACCESS_public)
    2497                            .dwattr $C$DW$233, DW_AT_decl_file(".\..\packages\ti\vlib\src\VLIB_convertUYVYint_to_HSLpl\VLI
    2498                            .dwattr $C$DW$233, DW_AT_decl_line(0x27)
    2499                            .dwattr $C$DW$233, DW_AT_decl_column(0x0f)
    2500                    $C$DW$234       .dwtag  DW_TAG_member
    2501                            .dwattr $C$DW$234, DW_AT_type(*$C$DW$T$20)
    2502                            .dwattr $C$DW$234, DW_AT_name("staticOutL")
    2503                            .dwattr $C$DW$234, DW_AT_TI_symbol_name("staticOutL")
    2504                            .dwattr $C$DW$234, DW_AT_data_member_location[DW_OP_plus_uconst 0x10]
    2505                            .dwattr $C$DW$234, DW_AT_accessibility(DW_ACCESS_public)
    2506                            .dwattr $C$DW$234, DW_AT_decl_file(".\..\packages\ti\vlib\src\VLIB_convertUYVYint_to_HSLpl\VLI
    2507                            .dwattr $C$DW$234, DW_AT_decl_line(0x28)
    2508                            .dwattr $C$DW$234, DW_AT_decl_column(0x0f)
    2509                    $C$DW$235       .dwtag  DW_TAG_member
    2510                            .dwattr $C$DW$235, DW_AT_type(*$C$DW$T$24)
    2511                            .dwattr $C$DW$235, DW_AT_name("coeff")
    2512                            .dwattr $C$DW$235, DW_AT_TI_symbol_name("coeff")
    2513                            .dwattr $C$DW$235, DW_AT_data_member_location[DW_OP_plus_uconst 0x14]
    2514                            .dwattr $C$DW$235, DW_AT_accessibility(DW_ACCESS_public)
    2515                            .dwattr $C$DW$235, DW_AT_decl_file(".\..\packages\ti\vlib\src\VLIB_convertUYVYint_to_HSLpl\VLI
    2516                            .dwattr $C$DW$235, DW_AT_decl_line(0x29)
    2517                            .dwattr $C$DW$235, DW_AT_decl_column(0x0f)
    2518                    $C$DW$236       .dwtag  DW_TAG_member
    2519                            .dwattr $C$DW$236, DW_AT_type(*$C$DW$T$22)
    2520                            .dwattr $C$DW$236, DW_AT_name("div_table")
    2521                            .dwattr $C$DW$236, DW_AT_TI_symbol_name("div_table")
    2522                            .dwattr $C$DW$236, DW_AT_data_member_location[DW_OP_plus_uconst 0x18]
    2523                            .dwattr $C$DW$236, DW_AT_accessibility(DW_ACCESS_public)
    2524                            .dwattr $C$DW$236, DW_AT_decl_file(".\..\packages\ti\vlib\src\VLIB_convertUYVYint_to_HSLpl\VLI
    2525                            .dwattr $C$DW$236, DW_AT_decl_line(0x2a)
    2526                            .dwattr $C$DW$236, DW_AT_decl_column(0x0f)
    2527                    $C$DW$237       .dwtag  DW_TAG_member
    2528                            .dwattr $C$DW$237, DW_AT_type(*$C$DW$T$25)
    2529                            .dwattr $C$DW$237, DW_AT_name("width")
    2530                            .dwattr $C$DW$237, DW_AT_TI_symbol_name("width")
    2531                            .dwattr $C$DW$237, DW_AT_data_member_location[DW_OP_plus_uconst 0x1c]
    2532                            .dwattr $C$DW$237, DW_AT_accessibility(DW_ACCESS_public)
    2533                            .dwattr $C$DW$237, DW_AT_decl_file(".\..\packages\ti\vlib\src\VLIB_convertUYVYint_to_HSLpl\VLI
    2534                            .dwattr $C$DW$237, DW_AT_decl_line(0x2b)
    2535                            .dwattr $C$DW$237, DW_AT_decl_column(0x0f)
    2536                    $C$DW$238       .dwtag  DW_TAG_member
    2537                            .dwattr $C$DW$238, DW_AT_type(*$C$DW$T$26)
TMS320C6x Assembler PC v7.4.2 Thu Mar 19 12:40:19 2015

Tools Copyright (c) 1996-2012 Texas Instruments Incorporated
package/lib/Regression/regress_d_c/./../packages/ti/vlib/src/VLIB_convertUYVYint_to_HSLpl/VLIB_convertUYVYint_to_HSLpl_d.se66 PAGE   53

    2538                            .dwattr $C$DW$238, DW_AT_name("pitch")
    2539                            .dwattr $C$DW$238, DW_AT_TI_symbol_name("pitch")
    2540                            .dwattr $C$DW$238, DW_AT_data_member_location[DW_OP_plus_uconst 0x20]
    2541                            .dwattr $C$DW$238, DW_AT_accessibility(DW_ACCESS_public)
    2542                            .dwattr $C$DW$238, DW_AT_decl_file(".\..\packages\ti\vlib\src\VLIB_convertUYVYint_to_HSLpl\VLI
    2543                            .dwattr $C$DW$238, DW_AT_decl_line(0x2c)
    2544                            .dwattr $C$DW$238, DW_AT_decl_column(0x0f)
    2545                    $C$DW$239       .dwtag  DW_TAG_member
    2546                            .dwattr $C$DW$239, DW_AT_type(*$C$DW$T$25)
    2547                            .dwattr $C$DW$239, DW_AT_name("height")
    2548                            .dwattr $C$DW$239, DW_AT_TI_symbol_name("height")
    2549                            .dwattr $C$DW$239, DW_AT_data_member_location[DW_OP_plus_uconst 0x24]
    2550                            .dwattr $C$DW$239, DW_AT_accessibility(DW_ACCESS_public)
    2551                            .dwattr $C$DW$239, DW_AT_decl_file(".\..\packages\ti\vlib\src\VLIB_convertUYVYint_to_HSLpl\VLI
    2552                            .dwattr $C$DW$239, DW_AT_decl_line(0x2d)
    2553                            .dwattr $C$DW$239, DW_AT_decl_column(0x0f)
    2554                            .dwendtag $C$DW$T$27
    2555                    
    2556                            .dwattr $C$DW$T$27, DW_AT_decl_file(".\..\packages\ti\vlib\src\VLIB_convertUYVYint_to_HSLpl\VL
    2557                            .dwattr $C$DW$T$27, DW_AT_decl_line(0x23)
    2558                            .dwattr $C$DW$T$27, DW_AT_decl_column(0x10)
    2559                    $C$DW$T$44      .dwtag  DW_TAG_typedef, DW_AT_name("UYVYint_to_HSLpl_testParams_t")
    2560                            .dwattr $C$DW$T$44, DW_AT_type(*$C$DW$T$27)
    2561                            .dwattr $C$DW$T$44, DW_AT_language(DW_LANG_C)
    2562                            .dwattr $C$DW$T$44, DW_AT_decl_file(".\..\packages\ti\vlib\src\VLIB_convertUYVYint_to_HSLpl\VL
    2563                            .dwattr $C$DW$T$44, DW_AT_decl_line(0x2e)
    2564                            .dwattr $C$DW$T$44, DW_AT_decl_column(0x03)
    2565                    $C$DW$T$45      .dwtag  DW_TAG_pointer_type
    2566                            .dwattr $C$DW$T$45, DW_AT_type(*$C$DW$T$44)
    2567                            .dwattr $C$DW$T$45, DW_AT_address_class(0x20)
    2568                    $C$DW$T$46      .dwtag  DW_TAG_pointer_type
    2569                            .dwattr $C$DW$T$46, DW_AT_type(*$C$DW$T$45)
    2570                            .dwattr $C$DW$T$46, DW_AT_address_class(0x20)
    2571                    $C$DW$T$47      .dwtag  DW_TAG_pointer_type
    2572                            .dwattr $C$DW$T$47, DW_AT_type(*$C$DW$T$27)
    2573                            .dwattr $C$DW$T$47, DW_AT_address_class(0x20)
    2574                    
    2575                    $C$DW$T$29      .dwtag  DW_TAG_structure_type
    2576                            .dwattr $C$DW$T$29, DW_AT_byte_size(0x18)
    2577                    $C$DW$240       .dwtag  DW_TAG_member
    2578                            .dwattr $C$DW$240, DW_AT_type(*$C$DW$T$10)
    2579                            .dwattr $C$DW$240, DW_AT_name("fd")
    2580                            .dwattr $C$DW$240, DW_AT_TI_symbol_name("fd")
    2581                            .dwattr $C$DW$240, DW_AT_data_member_location[DW_OP_plus_uconst 0x0]
    2582                            .dwattr $C$DW$240, DW_AT_accessibility(DW_ACCESS_public)
    2583                            .dwattr $C$DW$240, DW_AT_decl_file("C:/VLIB_Tools/CCSV5_4_0/ccsv5/tools/compiler/C6000/include
    2584                            .dwattr $C$DW$240, DW_AT_decl_line(0x49)
    2585                            .dwattr $C$DW$240, DW_AT_decl_column(0x0b)
    2586                    $C$DW$241       .dwtag  DW_TAG_member
    2587                            .dwattr $C$DW$241, DW_AT_type(*$C$DW$T$28)
    2588                            .dwattr $C$DW$241, DW_AT_name("buf")
    2589                            .dwattr $C$DW$241, DW_AT_TI_symbol_name("buf")
    2590                            .dwattr $C$DW$241, DW_AT_data_member_location[DW_OP_plus_uconst 0x4]
    2591                            .dwattr $C$DW$241, DW_AT_accessibility(DW_ACCESS_public)
    2592                            .dwattr $C$DW$241, DW_AT_decl_file("C:/VLIB_Tools/CCSV5_4_0/ccsv5/tools/compiler/C6000/include
TMS320C6x Assembler PC v7.4.2 Thu Mar 19 12:40:19 2015

Tools Copyright (c) 1996-2012 Texas Instruments Incorporated
package/lib/Regression/regress_d_c/./../packages/ti/vlib/src/VLIB_convertUYVYint_to_HSLpl/VLIB_convertUYVYint_to_HSLpl_d.se66 PAGE   54

    2593                            .dwattr $C$DW$241, DW_AT_decl_line(0x4a)
    2594                            .dwattr $C$DW$241, DW_AT_decl_column(0x16)
    2595                    $C$DW$242       .dwtag  DW_TAG_member
    2596                            .dwattr $C$DW$242, DW_AT_type(*$C$DW$T$28)
    2597                            .dwattr $C$DW$242, DW_AT_name("pos")
    2598                            .dwattr $C$DW$242, DW_AT_TI_symbol_name("pos")
    2599                            .dwattr $C$DW$242, DW_AT_data_member_location[DW_OP_plus_uconst 0x8]
    2600                            .dwattr $C$DW$242, DW_AT_accessibility(DW_ACCESS_public)
    2601                            .dwattr $C$DW$242, DW_AT_decl_file("C:/VLIB_Tools/CCSV5_4_0/ccsv5/tools/compiler/C6000/include
    2602                            .dwattr $C$DW$242, DW_AT_decl_line(0x4b)
    2603                            .dwattr $C$DW$242, DW_AT_decl_column(0x16)
    2604                    $C$DW$243       .dwtag  DW_TAG_member
    2605                            .dwattr $C$DW$243, DW_AT_type(*$C$DW$T$28)
    2606                            .dwattr $C$DW$243, DW_AT_name("bufend")
    2607                            .dwattr $C$DW$243, DW_AT_TI_symbol_name("bufend")
    2608                            .dwattr $C$DW$243, DW_AT_data_member_location[DW_OP_plus_uconst 0xc]
    2609                            .dwattr $C$DW$243, DW_AT_accessibility(DW_ACCESS_public)
    2610                            .dwattr $C$DW$243, DW_AT_decl_file("C:/VLIB_Tools/CCSV5_4_0/ccsv5/tools/compiler/C6000/include
    2611                            .dwattr $C$DW$243, DW_AT_decl_line(0x4c)
    2612                            .dwattr $C$DW$243, DW_AT_decl_column(0x16)
    2613                    $C$DW$244       .dwtag  DW_TAG_member
    2614                            .dwattr $C$DW$244, DW_AT_type(*$C$DW$T$28)
    2615                            .dwattr $C$DW$244, DW_AT_name("buff_stop")
    2616                            .dwattr $C$DW$244, DW_AT_TI_symbol_name("buff_stop")
    2617                            .dwattr $C$DW$244, DW_AT_data_member_location[DW_OP_plus_uconst 0x10]
    2618                            .dwattr $C$DW$244, DW_AT_accessibility(DW_ACCESS_public)
    2619                            .dwattr $C$DW$244, DW_AT_decl_file("C:/VLIB_Tools/CCSV5_4_0/ccsv5/tools/compiler/C6000/include
    2620                            .dwattr $C$DW$244, DW_AT_decl_line(0x4d)
    2621                            .dwattr $C$DW$244, DW_AT_decl_column(0x16)
    2622                    $C$DW$245       .dwtag  DW_TAG_member
    2623                            .dwattr $C$DW$245, DW_AT_type(*$C$DW$T$11)
    2624                            .dwattr $C$DW$245, DW_AT_name("flags")
    2625                            .dwattr $C$DW$245, DW_AT_TI_symbol_name("flags")
    2626                            .dwattr $C$DW$245, DW_AT_data_member_location[DW_OP_plus_uconst 0x14]
    2627                            .dwattr $C$DW$245, DW_AT_accessibility(DW_ACCESS_public)
    2628                            .dwattr $C$DW$245, DW_AT_decl_file("C:/VLIB_Tools/CCSV5_4_0/ccsv5/tools/compiler/C6000/include
    2629                            .dwattr $C$DW$245, DW_AT_decl_line(0x4e)
    2630                            .dwattr $C$DW$245, DW_AT_decl_column(0x16)
    2631                            .dwendtag $C$DW$T$29
    2632                    
    2633                            .dwattr $C$DW$T$29, DW_AT_decl_file("C:/VLIB_Tools/CCSV5_4_0/ccsv5/tools/compiler/C6000/includ
    2634                            .dwattr $C$DW$T$29, DW_AT_decl_line(0x48)
    2635                            .dwattr $C$DW$T$29, DW_AT_decl_column(0x10)
    2636                    $C$DW$T$49      .dwtag  DW_TAG_typedef, DW_AT_name("FILE")
    2637                            .dwattr $C$DW$T$49, DW_AT_type(*$C$DW$T$29)
    2638                            .dwattr $C$DW$T$49, DW_AT_language(DW_LANG_C)
    2639                            .dwattr $C$DW$T$49, DW_AT_decl_file("C:/VLIB_Tools/CCSV5_4_0/ccsv5/tools/compiler/C6000/includ
    2640                            .dwattr $C$DW$T$49, DW_AT_decl_line(0x4f)
    2641                            .dwattr $C$DW$T$49, DW_AT_decl_column(0x03)
    2642                    
    2643                    $C$DW$T$30      .dwtag  DW_TAG_structure_type
    2644                            .dwattr $C$DW$T$30, DW_AT_byte_size(0x08)
    2645                    $C$DW$246       .dwtag  DW_TAG_member
    2646                            .dwattr $C$DW$246, DW_AT_type(*$C$DW$T$10)
    2647                            .dwattr $C$DW$246, DW_AT_name("quot")
TMS320C6x Assembler PC v7.4.2 Thu Mar 19 12:40:19 2015

Tools Copyright (c) 1996-2012 Texas Instruments Incorporated
package/lib/Regression/regress_d_c/./../packages/ti/vlib/src/VLIB_convertUYVYint_to_HSLpl/VLIB_convertUYVYint_to_HSLpl_d.se66 PAGE   55

    2648                            .dwattr $C$DW$246, DW_AT_TI_symbol_name("quot")
    2649                            .dwattr $C$DW$246, DW_AT_data_member_location[DW_OP_plus_uconst 0x0]
    2650                            .dwattr $C$DW$246, DW_AT_accessibility(DW_ACCESS_public)
    2651                            .dwattr $C$DW$246, DW_AT_decl_file("C:/VLIB_Tools/CCSV5_4_0/ccsv5/tools/compiler/C6000/include
    2652                            .dwattr $C$DW$246, DW_AT_decl_line(0x3e)
    2653                            .dwattr $C$DW$246, DW_AT_decl_column(0x16)
    2654                    $C$DW$247       .dwtag  DW_TAG_member
    2655                            .dwattr $C$DW$247, DW_AT_type(*$C$DW$T$10)
    2656                            .dwattr $C$DW$247, DW_AT_name("rem")
    2657                            .dwattr $C$DW$247, DW_AT_TI_symbol_name("rem")
    2658                            .dwattr $C$DW$247, DW_AT_data_member_location[DW_OP_plus_uconst 0x4]
    2659                            .dwattr $C$DW$247, DW_AT_accessibility(DW_ACCESS_public)
    2660                            .dwattr $C$DW$247, DW_AT_decl_file("C:/VLIB_Tools/CCSV5_4_0/ccsv5/tools/compiler/C6000/include
    2661                            .dwattr $C$DW$247, DW_AT_decl_line(0x3e)
    2662                            .dwattr $C$DW$247, DW_AT_decl_column(0x1c)
    2663                            .dwendtag $C$DW$T$30
    2664                    
    2665                            .dwattr $C$DW$T$30, DW_AT_decl_file("C:/VLIB_Tools/CCSV5_4_0/ccsv5/tools/compiler/C6000/includ
    2666                            .dwattr $C$DW$T$30, DW_AT_decl_line(0x3e)
    2667                            .dwattr $C$DW$T$30, DW_AT_decl_column(0x10)
    2668                    $C$DW$T$50      .dwtag  DW_TAG_typedef, DW_AT_name("div_t")
    2669                            .dwattr $C$DW$T$50, DW_AT_type(*$C$DW$T$30)
    2670                            .dwattr $C$DW$T$50, DW_AT_language(DW_LANG_C)
    2671                            .dwattr $C$DW$T$50, DW_AT_decl_file("C:/VLIB_Tools/CCSV5_4_0/ccsv5/tools/compiler/C6000/includ
    2672                            .dwattr $C$DW$T$50, DW_AT_decl_line(0x3e)
    2673                            .dwattr $C$DW$T$50, DW_AT_decl_column(0x23)
    2674                    
    2675                    $C$DW$T$31      .dwtag  DW_TAG_structure_type
    2676                            .dwattr $C$DW$T$31, DW_AT_byte_size(0x08)
    2677                    $C$DW$248       .dwtag  DW_TAG_member
    2678                            .dwattr $C$DW$248, DW_AT_type(*$C$DW$T$10)
    2679                            .dwattr $C$DW$248, DW_AT_name("quot")
    2680                            .dwattr $C$DW$248, DW_AT_TI_symbol_name("quot")
    2681                            .dwattr $C$DW$248, DW_AT_data_member_location[DW_OP_plus_uconst 0x0]
    2682                            .dwattr $C$DW$248, DW_AT_accessibility(DW_ACCESS_public)
    2683                            .dwattr $C$DW$248, DW_AT_decl_file("C:/VLIB_Tools/CCSV5_4_0/ccsv5/tools/compiler/C6000/include
    2684                            .dwattr $C$DW$248, DW_AT_decl_line(0x40)
    2685                            .dwattr $C$DW$248, DW_AT_decl_column(0x17)
    2686                    $C$DW$249       .dwtag  DW_TAG_member
    2687                            .dwattr $C$DW$249, DW_AT_type(*$C$DW$T$10)
    2688                            .dwattr $C$DW$249, DW_AT_name("rem")
    2689                            .dwattr $C$DW$249, DW_AT_TI_symbol_name("rem")
    2690                            .dwattr $C$DW$249, DW_AT_data_member_location[DW_OP_plus_uconst 0x4]
    2691                            .dwattr $C$DW$249, DW_AT_accessibility(DW_ACCESS_public)
    2692                            .dwattr $C$DW$249, DW_AT_decl_file("C:/VLIB_Tools/CCSV5_4_0/ccsv5/tools/compiler/C6000/include
    2693                            .dwattr $C$DW$249, DW_AT_decl_line(0x40)
    2694                            .dwattr $C$DW$249, DW_AT_decl_column(0x1d)
    2695                            .dwendtag $C$DW$T$31
    2696                    
    2697                            .dwattr $C$DW$T$31, DW_AT_decl_file("C:/VLIB_Tools/CCSV5_4_0/ccsv5/tools/compiler/C6000/includ
    2698                            .dwattr $C$DW$T$31, DW_AT_decl_line(0x40)
    2699                            .dwattr $C$DW$T$31, DW_AT_decl_column(0x10)
    2700                    $C$DW$T$51      .dwtag  DW_TAG_typedef, DW_AT_name("ldiv_t")
    2701                            .dwattr $C$DW$T$51, DW_AT_type(*$C$DW$T$31)
    2702                            .dwattr $C$DW$T$51, DW_AT_language(DW_LANG_C)
TMS320C6x Assembler PC v7.4.2 Thu Mar 19 12:40:19 2015

Tools Copyright (c) 1996-2012 Texas Instruments Incorporated
package/lib/Regression/regress_d_c/./../packages/ti/vlib/src/VLIB_convertUYVYint_to_HSLpl/VLIB_convertUYVYint_to_HSLpl_d.se66 PAGE   56

    2703                            .dwattr $C$DW$T$51, DW_AT_decl_file("C:/VLIB_Tools/CCSV5_4_0/ccsv5/tools/compiler/C6000/includ
    2704                            .dwattr $C$DW$T$51, DW_AT_decl_line(0x40)
    2705                            .dwattr $C$DW$T$51, DW_AT_decl_column(0x24)
    2706                    
    2707                    $C$DW$T$32      .dwtag  DW_TAG_structure_type
    2708                            .dwattr $C$DW$T$32, DW_AT_byte_size(0x10)
    2709                    $C$DW$250       .dwtag  DW_TAG_member
    2710                            .dwattr $C$DW$250, DW_AT_type(*$C$DW$T$14)
    2711                            .dwattr $C$DW$250, DW_AT_name("quot")
    2712                            .dwattr $C$DW$250, DW_AT_TI_symbol_name("quot")
    2713                            .dwattr $C$DW$250, DW_AT_data_member_location[DW_OP_plus_uconst 0x0]
    2714                            .dwattr $C$DW$250, DW_AT_accessibility(DW_ACCESS_public)
    2715                            .dwattr $C$DW$250, DW_AT_decl_file("C:/VLIB_Tools/CCSV5_4_0/ccsv5/tools/compiler/C6000/include
    2716                            .dwattr $C$DW$250, DW_AT_decl_line(0x43)
    2717                            .dwattr $C$DW$250, DW_AT_decl_column(0x1c)
    2718                    $C$DW$251       .dwtag  DW_TAG_member
    2719                            .dwattr $C$DW$251, DW_AT_type(*$C$DW$T$14)
    2720                            .dwattr $C$DW$251, DW_AT_name("rem")
    2721                            .dwattr $C$DW$251, DW_AT_TI_symbol_name("rem")
    2722                            .dwattr $C$DW$251, DW_AT_data_member_location[DW_OP_plus_uconst 0x8]
    2723                            .dwattr $C$DW$251, DW_AT_accessibility(DW_ACCESS_public)
    2724                            .dwattr $C$DW$251, DW_AT_decl_file("C:/VLIB_Tools/CCSV5_4_0/ccsv5/tools/compiler/C6000/include
    2725                            .dwattr $C$DW$251, DW_AT_decl_line(0x43)
    2726                            .dwattr $C$DW$251, DW_AT_decl_column(0x22)
    2727                            .dwendtag $C$DW$T$32
    2728                    
    2729                            .dwattr $C$DW$T$32, DW_AT_decl_file("C:/VLIB_Tools/CCSV5_4_0/ccsv5/tools/compiler/C6000/includ
    2730                            .dwattr $C$DW$T$32, DW_AT_decl_line(0x43)
    2731                            .dwattr $C$DW$T$32, DW_AT_decl_column(0x10)
    2732                    $C$DW$T$52      .dwtag  DW_TAG_typedef, DW_AT_name("lldiv_t")
    2733                            .dwattr $C$DW$T$52, DW_AT_type(*$C$DW$T$32)
    2734                            .dwattr $C$DW$T$52, DW_AT_language(DW_LANG_C)
    2735                            .dwattr $C$DW$T$52, DW_AT_decl_file("C:/VLIB_Tools/CCSV5_4_0/ccsv5/tools/compiler/C6000/includ
    2736                            .dwattr $C$DW$T$52, DW_AT_decl_line(0x43)
    2737                            .dwattr $C$DW$T$52, DW_AT_decl_column(0x29)
    2738                    
    2739                    $C$DW$T$33      .dwtag  DW_TAG_structure_type
    2740                            .dwattr $C$DW$T$33, DW_AT_byte_size(0x24)
    2741                    $C$DW$252       .dwtag  DW_TAG_member
    2742                            .dwattr $C$DW$252, DW_AT_type(*$C$DW$T$26)
    2743                            .dwattr $C$DW$252, DW_AT_name("area")
    2744                            .dwattr $C$DW$252, DW_AT_TI_symbol_name("area")
    2745                            .dwattr $C$DW$252, DW_AT_data_member_location[DW_OP_plus_uconst 0x0]
    2746                            .dwattr $C$DW$252, DW_AT_accessibility(DW_ACCESS_public)
    2747                            .dwattr $C$DW$252, DW_AT_decl_file(".\..\packages\ti\vlib\src\VLIB_convertUYVYint_to_HSLpl\..\
    2748                            .dwattr $C$DW$252, DW_AT_decl_line(0x69)
    2749                            .dwattr $C$DW$252, DW_AT_decl_column(0x0d)
    2750                    $C$DW$253       .dwtag  DW_TAG_member
    2751                            .dwattr $C$DW$253, DW_AT_type(*$C$DW$T$26)
    2752                            .dwattr $C$DW$253, DW_AT_name("xsum")
    2753                            .dwattr $C$DW$253, DW_AT_TI_symbol_name("xsum")
    2754                            .dwattr $C$DW$253, DW_AT_data_member_location[DW_OP_plus_uconst 0x4]
    2755                            .dwattr $C$DW$253, DW_AT_accessibility(DW_ACCESS_public)
    2756                            .dwattr $C$DW$253, DW_AT_decl_file(".\..\packages\ti\vlib\src\VLIB_convertUYVYint_to_HSLpl\..\
    2757                            .dwattr $C$DW$253, DW_AT_decl_line(0x6a)
TMS320C6x Assembler PC v7.4.2 Thu Mar 19 12:40:19 2015

Tools Copyright (c) 1996-2012 Texas Instruments Incorporated
package/lib/Regression/regress_d_c/./../packages/ti/vlib/src/VLIB_convertUYVYint_to_HSLpl/VLIB_convertUYVYint_to_HSLpl_d.se66 PAGE   57

    2758                            .dwattr $C$DW$253, DW_AT_decl_column(0x0d)
    2759                    $C$DW$254       .dwtag  DW_TAG_member
    2760                            .dwattr $C$DW$254, DW_AT_type(*$C$DW$T$26)
    2761                            .dwattr $C$DW$254, DW_AT_name("ysum")
    2762                            .dwattr $C$DW$254, DW_AT_TI_symbol_name("ysum")
    2763                            .dwattr $C$DW$254, DW_AT_data_member_location[DW_OP_plus_uconst 0x8]
    2764                            .dwattr $C$DW$254, DW_AT_accessibility(DW_ACCESS_public)
    2765                            .dwattr $C$DW$254, DW_AT_decl_file(".\..\packages\ti\vlib\src\VLIB_convertUYVYint_to_HSLpl\..\
    2766                            .dwattr $C$DW$254, DW_AT_decl_line(0x6b)
    2767                            .dwattr $C$DW$254, DW_AT_decl_column(0x0d)
    2768                    $C$DW$255       .dwtag  DW_TAG_member
    2769                            .dwattr $C$DW$255, DW_AT_type(*$C$DW$T$26)
