TMS320C6x Assembler PC v7.4.2 Thu Mar 19 12:40:21 2015

Tools Copyright (c) 1996-2012 Texas Instruments Incorporated
package/lib/Regression/regress_d_c/./../packages/ti/vlib/src/VLIB_convertUYVYint_to_LABpl/VLIB_convertUYVYint_to_LABpl_d.se66 PAGE    1

       1                    ;******************************************************************************
       2                    ;* TMS320C6x C/C++ Codegen                                          PC v7.4.2 *
       3                    ;* Date/Time created: Thu Mar 19 12:40:20 2015                                *
       4                    ;******************************************************************************
       5                            .compiler_opts --abi=eabi --c64p_l1d_workaround=off --endian=little --hll_source=on --long_pre
       6                    
       7                    ;******************************************************************************
       8                    ;* GLOBAL FILE PARAMETERS                                                     *
       9                    ;*                                                                            *
      10                    ;*   Architecture      : TMS320C66xx                                          *
      11                    ;*   Optimization      : Enabled at level 3                                   *
      12                    ;*   Optimizing for    : Speed                                                *
      13                    ;*                       Based on options: -o3, no -ms                        *
      14                    ;*   Endian            : Little                                               *
      15                    ;*   Interrupt Thrshld : 10000                                                *
      16                    ;*   Data Access Model : Far                                                  *
      17                    ;*   Pipelining        : Enabled                                              *
      18                    ;*   Speculate Loads   : Enabled with threshold = 0                           *
      19                    ;*   Memory Aliases    : Presume are aliases (pessimistic)                    *
      20                    ;*   Debug Info        : DWARF Debug w/Optimization                           *
      21                    ;*                                                                            *
      22                    ;******************************************************************************
      23                    
      24                            .asg    A15, FP
      25                            .asg    B14, DP
      26                            .asg    B15, SP
      27                            .global $bss
      28                    
      29                    
      30                    $C$DW$CU        .dwtag  DW_TAG_compile_unit
      31                            .dwattr $C$DW$CU, DW_AT_name("./../packages/ti/vlib/src/VLIB_convertUYVYint_to_LABpl/VLIB_conv
      32                            .dwattr $C$DW$CU, DW_AT_producer("TI TMS320C6x C/C++ Codegen PC v7.4.2 Copyright (c) 1996-2012
      33                            .dwattr $C$DW$CU, DW_AT_TI_version(0x01)
      34                            .dwattr $C$DW$CU, DW_AT_comp_dir("c:\nightlybuilds\vlib\ti\vlib\vlib\examples")
      35                    
      36                    $C$DW$1 .dwtag  DW_TAG_subprogram, DW_AT_name("fabsf")
      37                            .dwattr $C$DW$1, DW_AT_TI_symbol_name("fabsf")
      38                            .dwattr $C$DW$1, DW_AT_type(*$C$DW$T$16)
      39                            .dwattr $C$DW$1, DW_AT_declaration
      40                            .dwattr $C$DW$1, DW_AT_external
      41                            .dwattr $C$DW$1, DW_AT_decl_file("C:/VLIB_Tools/CCSV5_4_0/ccsv5/tools/compiler/C6000/include/m
      42                            .dwattr $C$DW$1, DW_AT_decl_line(0xa4)
      43                            .dwattr $C$DW$1, DW_AT_decl_column(0x10)
      44                    $C$DW$2 .dwtag  DW_TAG_formal_parameter
      45                            .dwattr $C$DW$2, DW_AT_type(*$C$DW$T$16)
      46                            .dwendtag $C$DW$1
      47                    
      48                    
      49                    $C$DW$3 .dwtag  DW_TAG_subprogram, DW_AT_name("_itoll")
      50                            .dwattr $C$DW$3, DW_AT_TI_symbol_name("_itoll")
      51                            .dwattr $C$DW$3, DW_AT_type(*$C$DW$T$14)
      52                            .dwattr $C$DW$3, DW_AT_declaration
      53                            .dwattr $C$DW$3, DW_AT_external
      54                            .dwattr $C$DW$3, DW_AT_decl_file("C:/VLIB_Tools/CCSV5_4_0/ccsv5/tools/compiler/C6000/include/c
      55                            .dwattr $C$DW$3, DW_AT_decl_line(0xdf)
TMS320C6x Assembler PC v7.4.2 Thu Mar 19 12:40:21 2015

Tools Copyright (c) 1996-2012 Texas Instruments Incorporated
package/lib/Regression/regress_d_c/./../packages/ti/vlib/src/VLIB_convertUYVYint_to_LABpl/VLIB_convertUYVYint_to_LABpl_d.se66 PAGE    2

      56                            .dwattr $C$DW$3, DW_AT_decl_column(0x0b)
      57                    $C$DW$4 .dwtag  DW_TAG_formal_parameter
      58                            .dwattr $C$DW$4, DW_AT_type(*$C$DW$T$11)
      59                    $C$DW$5 .dwtag  DW_TAG_formal_parameter
      60                            .dwattr $C$DW$5, DW_AT_type(*$C$DW$T$11)
      61                            .dwendtag $C$DW$3
      62                    
      63                    
      64                    $C$DW$6 .dwtag  DW_TAG_subprogram, DW_AT_name("printf")
      65                            .dwattr $C$DW$6, DW_AT_TI_symbol_name("printf")
      66                            .dwattr $C$DW$6, DW_AT_type(*$C$DW$T$10)
      67                            .dwattr $C$DW$6, DW_AT_declaration
      68                            .dwattr $C$DW$6, DW_AT_external
      69                            .dwattr $C$DW$6, DW_AT_decl_file("C:/VLIB_Tools/CCSV5_4_0/ccsv5/tools/compiler/C6000/include/s
      70                            .dwattr $C$DW$6, DW_AT_decl_line(0xb8)
      71                            .dwattr $C$DW$6, DW_AT_decl_column(0x19)
      72                    $C$DW$7 .dwtag  DW_TAG_formal_parameter
      73                            .dwattr $C$DW$7, DW_AT_type(*$C$DW$T$109)
      74                    $C$DW$8 .dwtag  DW_TAG_unspecified_parameters
      75                            .dwendtag $C$DW$6
      76                    
      77                    
      78                    $C$DW$9 .dwtag  DW_TAG_subprogram, DW_AT_name("sprintf")
      79                            .dwattr $C$DW$9, DW_AT_TI_symbol_name("sprintf")
      80                            .dwattr $C$DW$9, DW_AT_type(*$C$DW$T$10)
      81                            .dwattr $C$DW$9, DW_AT_declaration
      82                            .dwattr $C$DW$9, DW_AT_external
      83                            .dwattr $C$DW$9, DW_AT_decl_file("C:/VLIB_Tools/CCSV5_4_0/ccsv5/tools/compiler/C6000/include/s
      84                            .dwattr $C$DW$9, DW_AT_decl_line(0xbc)
      85                            .dwattr $C$DW$9, DW_AT_decl_column(0x19)
      86                    $C$DW$10        .dwtag  DW_TAG_formal_parameter
      87                            .dwattr $C$DW$10, DW_AT_type(*$C$DW$T$63)
      88                    $C$DW$11        .dwtag  DW_TAG_formal_parameter
      89                            .dwattr $C$DW$11, DW_AT_type(*$C$DW$T$109)
      90                    $C$DW$12        .dwtag  DW_TAG_unspecified_parameters
      91                            .dwendtag $C$DW$9
      92                    
      93                    
      94                    $C$DW$13        .dwtag  DW_TAG_subprogram, DW_AT_name("malloc")
      95                            .dwattr $C$DW$13, DW_AT_TI_symbol_name("malloc")
      96                            .dwattr $C$DW$13, DW_AT_type(*$C$DW$T$3)
      97                            .dwattr $C$DW$13, DW_AT_declaration
      98                            .dwattr $C$DW$13, DW_AT_external
      99                            .dwattr $C$DW$13, DW_AT_decl_file("C:/VLIB_Tools/CCSV5_4_0/ccsv5/tools/compiler/C6000/include/
     100                            .dwattr $C$DW$13, DW_AT_decl_line(0x82)
     101                            .dwattr $C$DW$13, DW_AT_decl_column(0x19)
     102                    $C$DW$14        .dwtag  DW_TAG_formal_parameter
     103                            .dwattr $C$DW$14, DW_AT_type(*$C$DW$T$56)
     104                            .dwendtag $C$DW$13
     105                    
     106                    
     107                    $C$DW$15        .dwtag  DW_TAG_subprogram, DW_AT_name("free")
     108                            .dwattr $C$DW$15, DW_AT_TI_symbol_name("free")
     109                            .dwattr $C$DW$15, DW_AT_declaration
     110                            .dwattr $C$DW$15, DW_AT_external
TMS320C6x Assembler PC v7.4.2 Thu Mar 19 12:40:21 2015

Tools Copyright (c) 1996-2012 Texas Instruments Incorporated
package/lib/Regression/regress_d_c/./../packages/ti/vlib/src/VLIB_convertUYVYint_to_LABpl/VLIB_convertUYVYint_to_LABpl_d.se66 PAGE    3

     111                            .dwattr $C$DW$15, DW_AT_decl_file("C:/VLIB_Tools/CCSV5_4_0/ccsv5/tools/compiler/C6000/include/
     112                            .dwattr $C$DW$15, DW_AT_decl_line(0x86)
     113                            .dwattr $C$DW$15, DW_AT_decl_column(0x19)
     114                    $C$DW$16        .dwtag  DW_TAG_formal_parameter
     115                            .dwattr $C$DW$16, DW_AT_type(*$C$DW$T$3)
     116                            .dwendtag $C$DW$15
     117                    
     118                    
     119                    $C$DW$17        .dwtag  DW_TAG_subprogram, DW_AT_name("VLIB_cache_inval")
     120                            .dwattr $C$DW$17, DW_AT_TI_symbol_name("VLIB_cache_inval")
     121                            .dwattr $C$DW$17, DW_AT_type(*$C$DW$T$10)
     122                            .dwattr $C$DW$17, DW_AT_declaration
     123                            .dwattr $C$DW$17, DW_AT_external
     124                            .dwattr $C$DW$17, DW_AT_decl_file(".\..\packages\ti\vlib\src\VLIB_convertUYVYint_to_LABpl\..\c
     125                            .dwattr $C$DW$17, DW_AT_decl_line(0x58)
     126                            .dwattr $C$DW$17, DW_AT_decl_column(0x05)
     127                    
     128                    $C$DW$18        .dwtag  DW_TAG_subprogram, DW_AT_name("VLIB_profile_init")
     129                            .dwattr $C$DW$18, DW_AT_TI_symbol_name("VLIB_profile_init")
     130                            .dwattr $C$DW$18, DW_AT_declaration
     131                            .dwattr $C$DW$18, DW_AT_external
     132                            .dwattr $C$DW$18, DW_AT_decl_file(".\..\packages\ti\vlib\src\VLIB_convertUYVYint_to_LABpl\..\c
     133                            .dwattr $C$DW$18, DW_AT_decl_line(0x7b)
     134                            .dwattr $C$DW$18, DW_AT_decl_column(0x06)
     135                    $C$DW$19        .dwtag  DW_TAG_formal_parameter
     136                            .dwattr $C$DW$19, DW_AT_type(*$C$DW$T$10)
     137                    $C$DW$20        .dwtag  DW_TAG_formal_parameter
     138                            .dwattr $C$DW$20, DW_AT_type(*$C$DW$T$63)
     139                            .dwendtag $C$DW$18
     140                    
     141                    
     142                    $C$DW$21        .dwtag  DW_TAG_subprogram, DW_AT_name("VLIB_formula_add_test")
     143                            .dwattr $C$DW$21, DW_AT_TI_symbol_name("VLIB_formula_add_test")
     144                            .dwattr $C$DW$21, DW_AT_declaration
     145                            .dwattr $C$DW$21, DW_AT_external
     146                            .dwattr $C$DW$21, DW_AT_decl_file(".\..\packages\ti\vlib\src\VLIB_convertUYVYint_to_LABpl\..\c
     147                            .dwattr $C$DW$21, DW_AT_decl_line(0x7d)
     148                            .dwattr $C$DW$21, DW_AT_decl_column(0x06)
     149                    $C$DW$22        .dwtag  DW_TAG_formal_parameter
     150                            .dwattr $C$DW$22, DW_AT_type(*$C$DW$T$10)
     151                    $C$DW$23        .dwtag  DW_TAG_formal_parameter
     152                            .dwattr $C$DW$23, DW_AT_type(*$C$DW$T$10)
     153                    $C$DW$24        .dwtag  DW_TAG_formal_parameter
     154                            .dwattr $C$DW$24, DW_AT_type(*$C$DW$T$10)
     155                    $C$DW$25        .dwtag  DW_TAG_formal_parameter
     156                            .dwattr $C$DW$25, DW_AT_type(*$C$DW$T$10)
     157                    $C$DW$26        .dwtag  DW_TAG_formal_parameter
     158                            .dwattr $C$DW$26, DW_AT_type(*$C$DW$T$63)
     159                    $C$DW$27        .dwtag  DW_TAG_formal_parameter
     160                            .dwattr $C$DW$27, DW_AT_type(*$C$DW$T$10)
     161                            .dwendtag $C$DW$21
     162                    
     163                    
     164                    $C$DW$28        .dwtag  DW_TAG_subprogram, DW_AT_name("VLIB_skip_test")
     165                            .dwattr $C$DW$28, DW_AT_TI_symbol_name("VLIB_skip_test")
TMS320C6x Assembler PC v7.4.2 Thu Mar 19 12:40:21 2015

Tools Copyright (c) 1996-2012 Texas Instruments Incorporated
package/lib/Regression/regress_d_c/./../packages/ti/vlib/src/VLIB_convertUYVYint_to_LABpl/VLIB_convertUYVYint_to_LABpl_d.se66 PAGE    4

     166                            .dwattr $C$DW$28, DW_AT_declaration
     167                            .dwattr $C$DW$28, DW_AT_external
     168                            .dwattr $C$DW$28, DW_AT_decl_file(".\..\packages\ti\vlib\src\VLIB_convertUYVYint_to_LABpl\..\c
     169                            .dwattr $C$DW$28, DW_AT_decl_line(0x7e)
     170                            .dwattr $C$DW$28, DW_AT_decl_column(0x06)
     171                    $C$DW$29        .dwtag  DW_TAG_formal_parameter
     172                            .dwattr $C$DW$29, DW_AT_type(*$C$DW$T$63)
     173                            .dwendtag $C$DW$28
     174                    
     175                    
     176                    $C$DW$30        .dwtag  DW_TAG_subprogram, DW_AT_name("VLIB_profile_cycle_report")
     177                            .dwattr $C$DW$30, DW_AT_TI_symbol_name("VLIB_profile_cycle_report")
     178                            .dwattr $C$DW$30, DW_AT_declaration
     179                            .dwattr $C$DW$30, DW_AT_external
     180                            .dwattr $C$DW$30, DW_AT_decl_file(".\..\packages\ti\vlib\src\VLIB_convertUYVYint_to_LABpl\..\c
     181                            .dwattr $C$DW$30, DW_AT_decl_line(0x7f)
     182                            .dwattr $C$DW$30, DW_AT_decl_column(0x06)
     183                    $C$DW$31        .dwtag  DW_TAG_formal_parameter
     184                            .dwattr $C$DW$31, DW_AT_type(*$C$DW$T$10)
     185                    $C$DW$32        .dwtag  DW_TAG_formal_parameter
     186                            .dwattr $C$DW$32, DW_AT_type(*$C$DW$T$63)
     187                    $C$DW$33        .dwtag  DW_TAG_formal_parameter
     188                            .dwattr $C$DW$33, DW_AT_type(*$C$DW$T$63)
     189                            .dwendtag $C$DW$30
     190                    
     191                    
     192                    $C$DW$34        .dwtag  DW_TAG_subprogram, DW_AT_name("initStack")
     193                            .dwattr $C$DW$34, DW_AT_TI_symbol_name("initStack")
     194                            .dwattr $C$DW$34, DW_AT_declaration
     195                            .dwattr $C$DW$34, DW_AT_external
     196                            .dwattr $C$DW$34, DW_AT_decl_file(".\..\packages\ti\vlib\src\VLIB_convertUYVYint_to_LABpl\..\c
     197                            .dwattr $C$DW$34, DW_AT_decl_line(0x80)
     198                            .dwattr $C$DW$34, DW_AT_decl_column(0x06)
     199                    $C$DW$35        .dwtag  DW_TAG_formal_parameter
     200                            .dwattr $C$DW$35, DW_AT_type(*$C$DW$T$25)
     201                            .dwendtag $C$DW$34
     202                    
     203                    
     204                    $C$DW$36        .dwtag  DW_TAG_subprogram, DW_AT_name("setStackDepth")
     205                            .dwattr $C$DW$36, DW_AT_TI_symbol_name("setStackDepth")
     206                            .dwattr $C$DW$36, DW_AT_declaration
     207                            .dwattr $C$DW$36, DW_AT_external
     208                            .dwattr $C$DW$36, DW_AT_decl_file(".\..\packages\ti\vlib\src\VLIB_convertUYVYint_to_LABpl\..\c
     209                            .dwattr $C$DW$36, DW_AT_decl_line(0x81)
     210                            .dwattr $C$DW$36, DW_AT_decl_column(0x06)
     211                    
     212                    $C$DW$37        .dwtag  DW_TAG_subprogram, DW_AT_name("getSP")
     213                            .dwattr $C$DW$37, DW_AT_TI_symbol_name("getSP")
     214                            .dwattr $C$DW$37, DW_AT_type(*$C$DW$T$25)
     215                            .dwattr $C$DW$37, DW_AT_declaration
     216                            .dwattr $C$DW$37, DW_AT_external
     217                            .dwattr $C$DW$37, DW_AT_decl_file(".\..\packages\ti\vlib\src\VLIB_convertUYVYint_to_LABpl\..\c
     218                            .dwattr $C$DW$37, DW_AT_decl_line(0x82)
     219                            .dwattr $C$DW$37, DW_AT_decl_column(0x0a)
     220                    
TMS320C6x Assembler PC v7.4.2 Thu Mar 19 12:40:21 2015

Tools Copyright (c) 1996-2012 Texas Instruments Incorporated
package/lib/Regression/regress_d_c/./../packages/ti/vlib/src/VLIB_convertUYVYint_to_LABpl/VLIB_convertUYVYint_to_LABpl_d.se66 PAGE    5

     221                    $C$DW$38        .dwtag  DW_TAG_subprogram, DW_AT_name("VLIB_stack_memory")
     222                            .dwattr $C$DW$38, DW_AT_TI_symbol_name("VLIB_stack_memory")
     223                            .dwattr $C$DW$38, DW_AT_declaration
     224                            .dwattr $C$DW$38, DW_AT_external
     225                            .dwattr $C$DW$38, DW_AT_decl_file(".\..\packages\ti\vlib\src\VLIB_convertUYVYint_to_LABpl\..\c
     226                            .dwattr $C$DW$38, DW_AT_decl_line(0x83)
     227                            .dwattr $C$DW$38, DW_AT_decl_column(0x06)
     228                    
     229                    $C$DW$39        .dwtag  DW_TAG_subprogram, DW_AT_name("VLIB_fillBuffer")
     230                            .dwattr $C$DW$39, DW_AT_TI_symbol_name("VLIB_fillBuffer")
     231                            .dwattr $C$DW$39, DW_AT_declaration
     232                            .dwattr $C$DW$39, DW_AT_external
     233                            .dwattr $C$DW$39, DW_AT_decl_file(".\..\packages\ti\vlib\src\VLIB_convertUYVYint_to_LABpl\../c
     234                            .dwattr $C$DW$39, DW_AT_decl_line(0x77)
     235                            .dwattr $C$DW$39, DW_AT_decl_column(0x06)
     236                    $C$DW$40        .dwtag  DW_TAG_formal_parameter
     237                            .dwattr $C$DW$40, DW_AT_type(*$C$DW$T$19)
     238                    $C$DW$41        .dwtag  DW_TAG_formal_parameter
     239                            .dwattr $C$DW$41, DW_AT_type(*$C$DW$T$19)
     240                    $C$DW$42        .dwtag  DW_TAG_formal_parameter
     241                            .dwattr $C$DW$42, DW_AT_type(*$C$DW$T$3)
     242                    $C$DW$43        .dwtag  DW_TAG_formal_parameter
     243                            .dwattr $C$DW$43, DW_AT_type(*$C$DW$T$3)
     244                    $C$DW$44        .dwtag  DW_TAG_formal_parameter
     245                            .dwattr $C$DW$44, DW_AT_type(*$C$DW$T$77)
     246                    $C$DW$45        .dwtag  DW_TAG_formal_parameter
     247                            .dwattr $C$DW$45, DW_AT_type(*$C$DW$T$77)
     248                    $C$DW$46        .dwtag  DW_TAG_formal_parameter
     249                            .dwattr $C$DW$46, DW_AT_type(*$C$DW$T$77)
     250                    $C$DW$47        .dwtag  DW_TAG_formal_parameter
     251                            .dwattr $C$DW$47, DW_AT_type(*$C$DW$T$19)
     252                    $C$DW$48        .dwtag  DW_TAG_formal_parameter
     253                            .dwattr $C$DW$48, DW_AT_type(*$C$DW$T$63)
     254                            .dwendtag $C$DW$39
     255                    
     256                    
     257                    $C$DW$49        .dwtag  DW_TAG_subprogram, DW_AT_name("VLIB_memalign")
     258                            .dwattr $C$DW$49, DW_AT_TI_symbol_name("VLIB_memalign")
     259                            .dwattr $C$DW$49, DW_AT_type(*$C$DW$T$3)
     260                            .dwattr $C$DW$49, DW_AT_declaration
     261                            .dwattr $C$DW$49, DW_AT_external
     262                            .dwattr $C$DW$49, DW_AT_decl_file(".\..\packages\ti\vlib\src\VLIB_convertUYVYint_to_LABpl\../c
     263                            .dwattr $C$DW$49, DW_AT_decl_line(0xae)
     264                            .dwattr $C$DW$49, DW_AT_decl_column(0x07)
     265                    $C$DW$50        .dwtag  DW_TAG_formal_parameter
     266                            .dwattr $C$DW$50, DW_AT_type(*$C$DW$T$56)
     267                    $C$DW$51        .dwtag  DW_TAG_formal_parameter
     268                            .dwattr $C$DW$51, DW_AT_type(*$C$DW$T$56)
     269                            .dwendtag $C$DW$49
     270                    
     271                    
     272                    $C$DW$52        .dwtag  DW_TAG_subprogram, DW_AT_name("VLIB_malloc")
     273                            .dwattr $C$DW$52, DW_AT_TI_symbol_name("VLIB_malloc")
     274                            .dwattr $C$DW$52, DW_AT_type(*$C$DW$T$3)
     275                            .dwattr $C$DW$52, DW_AT_declaration
TMS320C6x Assembler PC v7.4.2 Thu Mar 19 12:40:21 2015

Tools Copyright (c) 1996-2012 Texas Instruments Incorporated
package/lib/Regression/regress_d_c/./../packages/ti/vlib/src/VLIB_convertUYVYint_to_LABpl/VLIB_convertUYVYint_to_LABpl_d.se66 PAGE    6

     276                            .dwattr $C$DW$52, DW_AT_external
     277                            .dwattr $C$DW$52, DW_AT_decl_file(".\..\packages\ti\vlib\src\VLIB_convertUYVYint_to_LABpl\../c
     278                            .dwattr $C$DW$52, DW_AT_decl_line(0xaf)
     279                            .dwattr $C$DW$52, DW_AT_decl_column(0x07)
     280                    $C$DW$53        .dwtag  DW_TAG_formal_parameter
     281                            .dwattr $C$DW$53, DW_AT_type(*$C$DW$T$56)
     282                            .dwendtag $C$DW$52
     283                    
     284                    
     285                    $C$DW$54        .dwtag  DW_TAG_subprogram, DW_AT_name("VLIB_align_free")
     286                            .dwattr $C$DW$54, DW_AT_TI_symbol_name("VLIB_align_free")
     287                            .dwattr $C$DW$54, DW_AT_declaration
     288                            .dwattr $C$DW$54, DW_AT_external
     289                            .dwattr $C$DW$54, DW_AT_decl_file(".\..\packages\ti\vlib\src\VLIB_convertUYVYint_to_LABpl\../c
     290                            .dwattr $C$DW$54, DW_AT_decl_line(0xb3)
     291                            .dwattr $C$DW$54, DW_AT_decl_column(0x07)
     292                    $C$DW$55        .dwtag  DW_TAG_formal_parameter
     293                            .dwattr $C$DW$55, DW_AT_type(*$C$DW$T$3)
     294                            .dwendtag $C$DW$54
     295                    
     296                    
     297                    $C$DW$56        .dwtag  DW_TAG_subprogram, DW_AT_name("VLIB_free")
     298                            .dwattr $C$DW$56, DW_AT_TI_symbol_name("VLIB_free")
     299                            .dwattr $C$DW$56, DW_AT_declaration
     300                            .dwattr $C$DW$56, DW_AT_external
     301                            .dwattr $C$DW$56, DW_AT_decl_file(".\..\packages\ti\vlib\src\VLIB_convertUYVYint_to_LABpl\../c
     302                            .dwattr $C$DW$56, DW_AT_decl_line(0xb4)
     303                            .dwattr $C$DW$56, DW_AT_decl_column(0x07)
     304                    $C$DW$57        .dwtag  DW_TAG_formal_parameter
     305                            .dwattr $C$DW$57, DW_AT_type(*$C$DW$T$3)
     306                            .dwendtag $C$DW$56
     307                    
     308                    
     309                    $C$DW$58        .dwtag  DW_TAG_subprogram, DW_AT_name("VLIB_convertUYVYint_to_LABpl")
     310                            .dwattr $C$DW$58, DW_AT_TI_symbol_name("VLIB_convertUYVYint_to_LABpl")
     311                            .dwattr $C$DW$58, DW_AT_type(*$C$DW$T$26)
     312                            .dwattr $C$DW$58, DW_AT_declaration
     313                            .dwattr $C$DW$58, DW_AT_external
     314                            .dwattr $C$DW$58, DW_AT_decl_file(".\..\packages\ti\vlib\src\VLIB_convertUYVYint_to_LABpl\c66/
     315                            .dwattr $C$DW$58, DW_AT_decl_line(0x8a)
     316                            .dwattr $C$DW$58, DW_AT_decl_column(0x09)
     317                    $C$DW$59        .dwtag  DW_TAG_formal_parameter
     318                            .dwattr $C$DW$59, DW_AT_type(*$C$DW$T$100)
     319                    $C$DW$60        .dwtag  DW_TAG_formal_parameter
     320                            .dwattr $C$DW$60, DW_AT_type(*$C$DW$T$25)
     321                    $C$DW$61        .dwtag  DW_TAG_formal_parameter
     322                            .dwattr $C$DW$61, DW_AT_type(*$C$DW$T$26)
     323                    $C$DW$62        .dwtag  DW_TAG_formal_parameter
     324                            .dwattr $C$DW$62, DW_AT_type(*$C$DW$T$25)
     325                    $C$DW$63        .dwtag  DW_TAG_formal_parameter
     326                            .dwattr $C$DW$63, DW_AT_type(*$C$DW$T$104)
     327                    $C$DW$64        .dwtag  DW_TAG_formal_parameter
     328                            .dwattr $C$DW$64, DW_AT_type(*$C$DW$T$117)
     329                    $C$DW$65        .dwtag  DW_TAG_formal_parameter
     330                            .dwattr $C$DW$65, DW_AT_type(*$C$DW$T$118)
TMS320C6x Assembler PC v7.4.2 Thu Mar 19 12:40:21 2015

Tools Copyright (c) 1996-2012 Texas Instruments Incorporated
package/lib/Regression/regress_d_c/./../packages/ti/vlib/src/VLIB_convertUYVYint_to_LABpl/VLIB_convertUYVYint_to_LABpl_d.se66 PAGE    7

     331                    $C$DW$66        .dwtag  DW_TAG_formal_parameter
     332                            .dwattr $C$DW$66, DW_AT_type(*$C$DW$T$118)
     333                    $C$DW$67        .dwtag  DW_TAG_formal_parameter
     334                            .dwattr $C$DW$67, DW_AT_type(*$C$DW$T$118)
     335                            .dwendtag $C$DW$58
     336                    
     337                    
     338                    $C$DW$68        .dwtag  DW_TAG_subprogram, DW_AT_name("VLIB_convertUYVYint_to_LABpl_cn")
     339                            .dwattr $C$DW$68, DW_AT_TI_symbol_name("VLIB_convertUYVYint_to_LABpl_cn")
     340                            .dwattr $C$DW$68, DW_AT_type(*$C$DW$T$26)
     341                            .dwattr $C$DW$68, DW_AT_declaration
     342                            .dwattr $C$DW$68, DW_AT_external
     343                            .dwattr $C$DW$68, DW_AT_decl_file(".\..\packages\ti\vlib\src\VLIB_convertUYVYint_to_LABpl\VLIB
     344                            .dwattr $C$DW$68, DW_AT_decl_line(0x20)
     345                            .dwattr $C$DW$68, DW_AT_decl_column(0x0c)
     346                    $C$DW$69        .dwtag  DW_TAG_formal_parameter
     347                            .dwattr $C$DW$69, DW_AT_type(*$C$DW$T$100)
     348                    $C$DW$70        .dwtag  DW_TAG_formal_parameter
     349                            .dwattr $C$DW$70, DW_AT_type(*$C$DW$T$25)
     350                    $C$DW$71        .dwtag  DW_TAG_formal_parameter
     351                            .dwattr $C$DW$71, DW_AT_type(*$C$DW$T$26)
     352                    $C$DW$72        .dwtag  DW_TAG_formal_parameter
     353                            .dwattr $C$DW$72, DW_AT_type(*$C$DW$T$25)
     354                    $C$DW$73        .dwtag  DW_TAG_formal_parameter
     355                            .dwattr $C$DW$73, DW_AT_type(*$C$DW$T$104)
     356                    $C$DW$74        .dwtag  DW_TAG_formal_parameter
     357                            .dwattr $C$DW$74, DW_AT_type(*$C$DW$T$22)
     358                    $C$DW$75        .dwtag  DW_TAG_formal_parameter
     359                            .dwattr $C$DW$75, DW_AT_type(*$C$DW$T$118)
     360                    $C$DW$76        .dwtag  DW_TAG_formal_parameter
     361                            .dwattr $C$DW$76, DW_AT_type(*$C$DW$T$118)
     362                    $C$DW$77        .dwtag  DW_TAG_formal_parameter
     363                            .dwattr $C$DW$77, DW_AT_type(*$C$DW$T$118)
     364                            .dwendtag $C$DW$68
     365                    
     366                    
     367                    $C$DW$78        .dwtag  DW_TAG_subprogram, DW_AT_name("UYVYint_to_LABpl_getTestParams")
     368                            .dwattr $C$DW$78, DW_AT_TI_symbol_name("UYVYint_to_LABpl_getTestParams")
     369                            .dwattr $C$DW$78, DW_AT_declaration
     370                            .dwattr $C$DW$78, DW_AT_external
     371                            .dwattr $C$DW$78, DW_AT_decl_file(".\..\packages\ti\vlib\src\VLIB_convertUYVYint_to_LABpl\VLIB
     372                            .dwattr $C$DW$78, DW_AT_decl_line(0x30)
     373                            .dwattr $C$DW$78, DW_AT_decl_column(0x06)
     374                    $C$DW$79        .dwtag  DW_TAG_formal_parameter
     375                            .dwattr $C$DW$79, DW_AT_type(*$C$DW$T$46)
     376                    $C$DW$80        .dwtag  DW_TAG_formal_parameter
     377                            .dwattr $C$DW$80, DW_AT_type(*$C$DW$T$80)
     378                            .dwendtag $C$DW$78
     379                    
     380                    $C$DW$81        .dwtag  DW_TAG_variable, DW_AT_name("test_cases")
     381                            .dwattr $C$DW$81, DW_AT_TI_symbol_name("test_cases")
     382                            .dwattr $C$DW$81, DW_AT_type(*$C$DW$T$26)
     383                            .dwattr $C$DW$81, DW_AT_declaration
     384                            .dwattr $C$DW$81, DW_AT_external
     385                            .dwattr $C$DW$81, DW_AT_decl_file(".\..\packages\ti\vlib\src\VLIB_convertUYVYint_to_LABpl\../c
TMS320C6x Assembler PC v7.4.2 Thu Mar 19 12:40:21 2015

Tools Copyright (c) 1996-2012 Texas Instruments Incorporated
package/lib/Regression/regress_d_c/./../packages/ti/vlib/src/VLIB_convertUYVYint_to_LABpl/VLIB_convertUYVYint_to_LABpl_d.se66 PAGE    8

     386                            .dwattr $C$DW$81, DW_AT_decl_line(0x60)
     387                            .dwattr $C$DW$81, DW_AT_decl_column(0x13)
     388                    $C$DW$82        .dwtag  DW_TAG_variable, DW_AT_name("act_kernel")
     389                            .dwattr $C$DW$82, DW_AT_TI_symbol_name("act_kernel")
     390                            .dwattr $C$DW$82, DW_AT_type(*$C$DW$T$10)
     391                            .dwattr $C$DW$82, DW_AT_declaration
     392                            .dwattr $C$DW$82, DW_AT_external
     393                            .dwattr $C$DW$82, DW_AT_decl_file(".\..\packages\ti\vlib\src\VLIB_convertUYVYint_to_LABpl\../c
     394                            .dwattr $C$DW$82, DW_AT_decl_line(0x62)
     395                            .dwattr $C$DW$82, DW_AT_decl_column(0x13)
     396                    $C$DW$83        .dwtag  DW_TAG_variable, DW_AT_name("desc")
     397                            .dwattr $C$DW$83, DW_AT_TI_symbol_name("desc")
     398                            .dwattr $C$DW$83, DW_AT_type(*$C$DW$T$169)
     399                            .dwattr $C$DW$83, DW_AT_declaration
     400                            .dwattr $C$DW$83, DW_AT_external
     401                            .dwattr $C$DW$83, DW_AT_decl_file(".\..\packages\ti\vlib\src\VLIB_convertUYVYint_to_LABpl\../c
     402                            .dwattr $C$DW$83, DW_AT_decl_line(0x63)
     403                            .dwattr $C$DW$83, DW_AT_decl_column(0x13)
     404                    $C$DW$84        .dwtag  DW_TAG_variable, DW_AT_name("testPatternString")
     405                            .dwattr $C$DW$84, DW_AT_TI_symbol_name("testPatternString")
     406                            .dwattr $C$DW$84, DW_AT_type(*$C$DW$T$169)
     407                            .dwattr $C$DW$84, DW_AT_declaration
     408                            .dwattr $C$DW$84, DW_AT_external
     409                            .dwattr $C$DW$84, DW_AT_decl_file(".\..\packages\ti\vlib\src\VLIB_convertUYVYint_to_LABpl\../c
     410                            .dwattr $C$DW$84, DW_AT_decl_line(0x64)
     411                            .dwattr $C$DW$84, DW_AT_decl_column(0x13)
     412                    $C$DW$85        .dwtag  DW_TAG_variable, DW_AT_name("est_test")
     413                            .dwattr $C$DW$85, DW_AT_TI_symbol_name("est_test")
     414                            .dwattr $C$DW$85, DW_AT_type(*$C$DW$T$10)
     415                            .dwattr $C$DW$85, DW_AT_declaration
     416                            .dwattr $C$DW$85, DW_AT_external
     417                            .dwattr $C$DW$85, DW_AT_decl_file(".\..\packages\ti\vlib\src\VLIB_convertUYVYint_to_LABpl\..\c
     418                            .dwattr $C$DW$85, DW_AT_decl_line(0x75)
     419                            .dwattr $C$DW$85, DW_AT_decl_column(0x14)
     420                    $C$DW$86        .dwtag  DW_TAG_variable, DW_AT_name("beg_count")
     421                            .dwattr $C$DW$86, DW_AT_TI_symbol_name("beg_count")
     422                            .dwattr $C$DW$86, DW_AT_type(*$C$DW$T$158)
     423                            .dwattr $C$DW$86, DW_AT_declaration
     424                            .dwattr $C$DW$86, DW_AT_external
     425                            .dwattr $C$DW$86, DW_AT_decl_file(".\..\packages\ti\vlib\src\VLIB_convertUYVYint_to_LABpl\..\c
     426                            .dwattr $C$DW$86, DW_AT_decl_line(0x76)
     427                            .dwattr $C$DW$86, DW_AT_decl_column(0x14)
     428                    $C$DW$87        .dwtag  DW_TAG_variable, DW_AT_name("end_count")
     429                            .dwattr $C$DW$87, DW_AT_TI_symbol_name("end_count")
     430                            .dwattr $C$DW$87, DW_AT_type(*$C$DW$T$158)
     431                            .dwattr $C$DW$87, DW_AT_declaration
     432                            .dwattr $C$DW$87, DW_AT_external
     433                            .dwattr $C$DW$87, DW_AT_decl_file(".\..\packages\ti\vlib\src\VLIB_convertUYVYint_to_LABpl\..\c
     434                            .dwattr $C$DW$87, DW_AT_decl_line(0x77)
     435                            .dwattr $C$DW$87, DW_AT_decl_column(0x14)
     436                    $C$DW$88        .dwtag  DW_TAG_variable, DW_AT_name("overhead")
     437                            .dwattr $C$DW$88, DW_AT_TI_symbol_name("overhead")
     438                            .dwattr $C$DW$88, DW_AT_type(*$C$DW$T$158)
     439                            .dwattr $C$DW$88, DW_AT_declaration
     440                            .dwattr $C$DW$88, DW_AT_external
TMS320C6x Assembler PC v7.4.2 Thu Mar 19 12:40:21 2015

Tools Copyright (c) 1996-2012 Texas Instruments Incorporated
package/lib/Regression/regress_d_c/./../packages/ti/vlib/src/VLIB_convertUYVYint_to_LABpl/VLIB_convertUYVYint_to_LABpl_d.se66 PAGE    9

     441                            .dwattr $C$DW$88, DW_AT_decl_file(".\..\packages\ti\vlib\src\VLIB_convertUYVYint_to_LABpl\..\c
     442                            .dwattr $C$DW$88, DW_AT_decl_line(0x78)
     443                            .dwattr $C$DW$88, DW_AT_decl_column(0x14)
     444                    $C$DW$89        .dwtag  DW_TAG_variable, DW_AT_name("cycles")
     445                            .dwattr $C$DW$89, DW_AT_TI_symbol_name("cycles")
     446                            .dwattr $C$DW$89, DW_AT_type(*$C$DW$T$159)
     447                            .dwattr $C$DW$89, DW_AT_declaration
     448                            .dwattr $C$DW$89, DW_AT_external
     449                            .dwattr $C$DW$89, DW_AT_decl_file(".\..\packages\ti\vlib\src\VLIB_convertUYVYint_to_LABpl\..\c
     450                            .dwattr $C$DW$89, DW_AT_decl_line(0x79)
     451                            .dwattr $C$DW$89, DW_AT_decl_column(0x14)
     452                    ;       C:\VLIB_Tools\CCSV5_4_0\ccsv5\tools\compiler\C6000\bin\opt6x.exe C:\\Users\\gtbldadm\\AppData\
     453 00000000                   .sect   ".text"
     454                            .clink
     455                            .global VLIB_convertUYVYint_to_LABpl_d
     456                    
     457                    $C$DW$90        .dwtag  DW_TAG_subprogram, DW_AT_name("VLIB_convertUYVYint_to_LABpl_d")
     458                            .dwattr $C$DW$90, DW_AT_low_pc(VLIB_convertUYVYint_to_LABpl_d)
     459                            .dwattr $C$DW$90, DW_AT_high_pc(0x00)
     460                            .dwattr $C$DW$90, DW_AT_TI_symbol_name("VLIB_convertUYVYint_to_LABpl_d")
     461                            .dwattr $C$DW$90, DW_AT_external
     462                            .dwattr $C$DW$90, DW_AT_TI_begin_file("./../packages/ti/vlib/src/VLIB_convertUYVYint_to_LABpl/
     463                            .dwattr $C$DW$90, DW_AT_TI_begin_line(0x26)
     464                            .dwattr $C$DW$90, DW_AT_TI_begin_column(0x06)
     465                            .dwattr $C$DW$90, DW_AT_decl_file("./../packages/ti/vlib/src/VLIB_convertUYVYint_to_LABpl/VLIB
     466                            .dwattr $C$DW$90, DW_AT_decl_line(0x26)
     467                            .dwattr $C$DW$90, DW_AT_decl_column(0x06)
     468                            .dwattr $C$DW$90, DW_AT_TI_max_frame_size(0xa8)
     469                            .dwpsn  file "./../packages/ti/vlib/src/VLIB_convertUYVYint_to_LABpl/VLIB_convertUYVYint_to_LA
     470                    
     471                            .dwfde $C$DW$CIE, VLIB_convertUYVYint_to_LABpl_d
     472                    $C$DW$91        .dwtag  DW_TAG_formal_parameter, DW_AT_name("LevelOfFeedback")
     473                            .dwattr $C$DW$91, DW_AT_TI_symbol_name("LevelOfFeedback")
     474                            .dwattr $C$DW$91, DW_AT_type(*$C$DW$T$19)
     475                            .dwattr $C$DW$91, DW_AT_location[DW_OP_reg4]
     476                    ;----------------------------------------------------------------------
     477                    ;  38 | void VLIB_convertUYVYint_to_LABpl_d (uint8_t LevelOfFeedback)          
     478                    ;----------------------------------------------------------------------
     479                    
     480                    ;******************************************************************************
     481                    ;* FUNCTION NAME: VLIB_convertUYVYint_to_LABpl_d                              *
     482                    ;*                                                                            *
     483                    ;*   Regs Modified     : A0,A1,A2,A3,A4,A5,A6,A7,A8,A9,A10,A11,A12,A13,A14,   *
     484                    ;*                           A15,B0,B1,B2,B3,B4,B5,B6,B7,B8,B9,B10,B11,B12,   *
     485                    ;*                           B13,SP,A16,A17,A18,A19,A20,A21,A22,A23,A24,A25,  *
     486                    ;*                           A26,A27,A28,A29,A30,A31,B16,B17,B18,B19,B20,B21, *
     487                    ;*                           B22,B23,B24,B25,B26,B27,B28,B29,B30,B31          *
     488                    ;*   Regs Used         : A0,A1,A2,A3,A4,A5,A6,A7,A8,A9,A10,A11,A12,A13,A14,   *
     489                    ;*                           A15,B0,B1,B2,B3,B4,B5,B6,B7,B8,B9,B10,B11,B12,   *
     490                    ;*                           B13,DP,SP,A16,A17,A18,A19,A20,A21,A22,A23,A24,   *
     491                    ;*                           A25,A26,A27,A28,A29,A30,A31,B16,B17,B18,B19,B20, *
     492                    ;*                           B21,B22,B23,B24,B25,B26,B27,B28,B29,B30,B31      *
     493                    ;*   Local Frame Size  : 32 Args + 76 Auto + 56 Save = 164 byte               *
     494                    ;******************************************************************************
     495                    
TMS320C6x Assembler PC v7.4.2 Thu Mar 19 12:40:21 2015

Tools Copyright (c) 1996-2012 Texas Instruments Incorporated
package/lib/Regression/regress_d_c/./../packages/ti/vlib/src/VLIB_convertUYVYint_to_LABpl/VLIB_convertUYVYint_to_LABpl_d.se66 PAGE   10

     496                    ;******************************************************************************
     497                    ;*                                                                            *
     498                    ;* Using -g (debug) with optimization (-o3) may disable key optimizations!    *
     499                    ;*                                                                            *
     500                    ;******************************************************************************
     501 00000000           VLIB_convertUYVYint_to_LABpl_d:
     502                    ;** --------------------------------------------------------------------------*
     503                    ;          EXCLUSIVE CPU CYCLES: 15
     504                    ;** 45  -----------------------    UYVYint_to_LABpl_getTestParams(&prm, &test_cases);
     505                    ;** 48  -----------------------    VLIB_profile_init(3, "VLIB_convertUYVYint_to_LABpl");
     506                    ;** 51  -----------------------    if ( test_cases <= 0 ) goto g29;
     507                            .dwcfi  cfa_offset, 0
     508                    ;----------------------------------------------------------------------
     509                    ;  40 | int32_t    tpi;  /* test parameter index */                            
     510                    ;  43 | UYVYint_to_LABpl_testParams_t   *prm;                                  
     511                    ;----------------------------------------------------------------------
     512 00000000     25f7             STW     .D2T1   A11,*SP--(8)      ; |39| 
     513                            .dwcfi  cfa_offset, 8
     514                            .dwcfi  save_reg_to_mem, 11, 0
     515 00000002     2577             STW     .D2T1   A10,*SP--(8)      ; |39| 
     516                            .dwcfi  cfa_offset, 16
     517                            .dwcfi  save_reg_to_mem, 10, -8
     518 00000004     9677             STDW    .D2T2   B13:B12,*SP--     ; |39| 
     519                            .dwcfi  cfa_offset, 24
     520                            .dwcfi  save_reg_to_mem, 29, -12
     521                            .dwcfi  save_reg_to_mem, 28, -16
     522 00000006     9577             STDW    .D2T2   B11:B10,*SP--     ; |39| 
     523                            .dwcfi  cfa_offset, 32
     524                            .dwcfi  save_reg_to_mem, 27, -20
     525                            .dwcfi  save_reg_to_mem, 26, -24
     526 00000008     8777             STDW    .D2T1   A15:A14,*SP--     ; |39| 
     527                            .dwcfi  cfa_offset, 40
     528                            .dwcfi  save_reg_to_mem, 15, -28
     529                            .dwcfi  save_reg_to_mem, 14, -32
     530 0000000a     8677             STDW    .D2T1   A13:A12,*SP--     ; |39| 
     531                            .dwcfi  cfa_offset, 48
     532                            .dwcfi  save_reg_to_mem, 13, -36
     533                            .dwcfi  save_reg_to_mem, 12, -40
     534 0000000c 01bfd4f6             STW     .D2T2   B3,*SP--(120)     ; |39| 
     535                            .dwcfi  cfa_offset, 168
     536                            .dwcfi  save_reg_to_mem, 19, 0
     537                    $C$DW$92        .dwtag  DW_TAG_variable, DW_AT_name("$O$C5")
     538                            .dwattr $C$DW$92, DW_AT_TI_symbol_name("$O$C5")
     539                            .dwattr $C$DW$92, DW_AT_type(*$C$DW$T$11)
     540                            .dwattr $C$DW$92, DW_AT_location[DW_OP_reg4]
     541                    $C$DW$93        .dwtag  DW_TAG_variable, DW_AT_name("$O$C6")
     542                            .dwattr $C$DW$93, DW_AT_TI_symbol_name("$O$C6")
     543                            .dwattr $C$DW$93, DW_AT_type(*$C$DW$T$47)
     544                            .dwattr $C$DW$93, DW_AT_location[DW_OP_reg3]
     545                    $C$DW$94        .dwtag  DW_TAG_variable, DW_AT_name("$O$C7")
     546                            .dwattr $C$DW$94, DW_AT_TI_symbol_name("$O$C7")
     547                            .dwattr $C$DW$94, DW_AT_type(*$C$DW$T$11)
     548                            .dwattr $C$DW$94, DW_AT_location[DW_OP_reg4]
     549                    $C$DW$95        .dwtag  DW_TAG_variable, DW_AT_name("$O$C8")
     550                            .dwattr $C$DW$95, DW_AT_TI_symbol_name("$O$C8")
TMS320C6x Assembler PC v7.4.2 Thu Mar 19 12:40:21 2015

Tools Copyright (c) 1996-2012 Texas Instruments Incorporated
package/lib/Regression/regress_d_c/./../packages/ti/vlib/src/VLIB_convertUYVYint_to_LABpl/VLIB_convertUYVYint_to_LABpl_d.se66 PAGE   11

     551                            .dwattr $C$DW$95, DW_AT_type(*$C$DW$T$47)
     552                            .dwattr $C$DW$95, DW_AT_location[DW_OP_reg3]
     553                    $C$DW$96        .dwtag  DW_TAG_variable, DW_AT_name("$O$C9")
     554                            .dwattr $C$DW$96, DW_AT_TI_symbol_name("$O$C9")
     555                            .dwattr $C$DW$96, DW_AT_type(*$C$DW$T$10)
     556                            .dwattr $C$DW$96, DW_AT_location[DW_OP_reg3]
     557                    $C$DW$97        .dwtag  DW_TAG_variable, DW_AT_name("$O$C10")
     558                            .dwattr $C$DW$97, DW_AT_TI_symbol_name("$O$C10")
     559                            .dwattr $C$DW$97, DW_AT_type(*$C$DW$T$10)
     560                            .dwattr $C$DW$97, DW_AT_location[DW_OP_regx 0x25]
     561                    $C$DW$98        .dwtag  DW_TAG_variable, DW_AT_name("$O$C11")
     562                            .dwattr $C$DW$98, DW_AT_TI_symbol_name("$O$C11")
     563                            .dwattr $C$DW$98, DW_AT_type(*$C$DW$T$11)
     564                            .dwattr $C$DW$98, DW_AT_location[DW_OP_reg10]
     565                    $C$DW$99        .dwtag  DW_TAG_variable, DW_AT_name("$O$C12")
     566                            .dwattr $C$DW$99, DW_AT_TI_symbol_name("$O$C12")
     567                            .dwattr $C$DW$99, DW_AT_type(*$C$DW$T$11)
     568                            .dwattr $C$DW$99, DW_AT_location[DW_OP_reg10]
     569                    $C$DW$100       .dwtag  DW_TAG_variable, DW_AT_name("$O$T4")
     570                            .dwattr $C$DW$100, DW_AT_TI_symbol_name("$O$T4")
     571                            .dwattr $C$DW$100, DW_AT_type(*$C$DW$T$11)
     572                            .dwattr $C$DW$100, DW_AT_location[DW_OP_reg10]
     573                    $C$DW$101       .dwtag  DW_TAG_variable, DW_AT_name("$O$T3")
     574                            .dwattr $C$DW$101, DW_AT_TI_symbol_name("$O$T3")
     575                            .dwattr $C$DW$101, DW_AT_type(*$C$DW$T$11)
     576                            .dwattr $C$DW$101, DW_AT_location[DW_OP_reg14]
     577                    $C$DW$102       .dwtag  DW_TAG_variable, DW_AT_name("$O$T2")
     578                            .dwattr $C$DW$102, DW_AT_TI_symbol_name("$O$T2")
     579                            .dwattr $C$DW$102, DW_AT_type(*$C$DW$T$11)
     580                            .dwattr $C$DW$102, DW_AT_location[DW_OP_reg10]
     581                    $C$DW$103       .dwtag  DW_TAG_variable, DW_AT_name("$O$T1")
     582                            .dwattr $C$DW$103, DW_AT_TI_symbol_name("$O$T1")
     583                            .dwattr $C$DW$103, DW_AT_type(*$C$DW$T$11)
     584                            .dwattr $C$DW$103, DW_AT_location[DW_OP_reg15]
     585                    $C$DW$104       .dwtag  DW_TAG_variable, DW_AT_name("$O$U13")
     586                            .dwattr $C$DW$104, DW_AT_TI_symbol_name("$O$U13")
     587                            .dwattr $C$DW$104, DW_AT_type(*$C$DW$T$47)
     588                            .dwattr $C$DW$104, DW_AT_location[DW_OP_reg11]
     589                    $C$DW$105       .dwtag  DW_TAG_variable, DW_AT_name("$O$K58")
     590                            .dwattr $C$DW$105, DW_AT_TI_symbol_name("$O$K58")
     591                            .dwattr $C$DW$105, DW_AT_type(*$C$DW$T$84)
     592                            .dwattr $C$DW$105, DW_AT_location[DW_OP_reg12]
     593                    $C$DW$106       .dwtag  DW_TAG_variable, DW_AT_name("$O$K65")
     594                            .dwattr $C$DW$106, DW_AT_TI_symbol_name("$O$K65")
     595                            .dwattr $C$DW$106, DW_AT_type(*$C$DW$T$10)
     596                            .dwattr $C$DW$106, DW_AT_location[DW_OP_reg3]
     597                    $C$DW$107       .dwtag  DW_TAG_variable, DW_AT_name("$O$K104")
     598                            .dwattr $C$DW$107, DW_AT_TI_symbol_name("$O$K104")
     599                            .dwattr $C$DW$107, DW_AT_type(*$C$DW$T$157)
     600                            .dwattr $C$DW$107, DW_AT_location[DW_OP_reg4]
     601                    $C$DW$108       .dwtag  DW_TAG_variable, DW_AT_name("$O$U127")
     602                            .dwattr $C$DW$108, DW_AT_TI_symbol_name("$O$U127")
     603                            .dwattr $C$DW$108, DW_AT_type(*$C$DW$T$164)
     604                            .dwattr $C$DW$108, DW_AT_location[DW_OP_reg29]
     605                    $C$DW$109       .dwtag  DW_TAG_variable, DW_AT_name("$O$U128")
TMS320C6x Assembler PC v7.4.2 Thu Mar 19 12:40:21 2015

Tools Copyright (c) 1996-2012 Texas Instruments Incorporated
package/lib/Regression/regress_d_c/./../packages/ti/vlib/src/VLIB_convertUYVYint_to_LABpl/VLIB_convertUYVYint_to_LABpl_d.se66 PAGE   12

     606                            .dwattr $C$DW$109, DW_AT_TI_symbol_name("$O$U128")
     607                            .dwattr $C$DW$109, DW_AT_type(*$C$DW$T$16)
     608                            .dwattr $C$DW$109, DW_AT_location[DW_OP_reg24]
     609                    $C$DW$110       .dwtag  DW_TAG_variable, DW_AT_name("$O$U191")
     610                            .dwattr $C$DW$110, DW_AT_TI_symbol_name("$O$U191")
     611                            .dwattr $C$DW$110, DW_AT_type(*$C$DW$T$164)
     612                            .dwattr $C$DW$110, DW_AT_location[DW_OP_reg29]
     613                    $C$DW$111       .dwtag  DW_TAG_variable, DW_AT_name("$O$U181")
     614                            .dwattr $C$DW$111, DW_AT_TI_symbol_name("$O$U181")
     615                            .dwattr $C$DW$111, DW_AT_type(*$C$DW$T$164)
     616                            .dwattr $C$DW$111, DW_AT_location[DW_OP_breg31 40]
     617                    $C$DW$112       .dwtag  DW_TAG_variable, DW_AT_name("$O$U184")
     618                            .dwattr $C$DW$112, DW_AT_TI_symbol_name("$O$U184")
     619                            .dwattr $C$DW$112, DW_AT_type(*$C$DW$T$164)
     620                            .dwattr $C$DW$112, DW_AT_location[DW_OP_breg31 44]
     621                    $C$DW$113       .dwtag  DW_TAG_variable, DW_AT_name("$O$U192")
     622                            .dwattr $C$DW$113, DW_AT_TI_symbol_name("$O$U192")
     623                            .dwattr $C$DW$113, DW_AT_type(*$C$DW$T$16)
     624                            .dwattr $C$DW$113, DW_AT_location[DW_OP_reg24]
     625                    $C$DW$114       .dwtag  DW_TAG_variable, DW_AT_name("$O$U117")
     626                            .dwattr $C$DW$114, DW_AT_TI_symbol_name("$O$U117")
     627                            .dwattr $C$DW$114, DW_AT_type(*$C$DW$T$47)
     628                            .dwattr $C$DW$114, DW_AT_location[DW_OP_breg31 48]
     629                    $C$DW$115       .dwtag  DW_TAG_variable, DW_AT_name("$O$K226")
     630                            .dwattr $C$DW$115, DW_AT_TI_symbol_name("$O$K226")
     631                            .dwattr $C$DW$115, DW_AT_type(*$C$DW$T$84)
     632                            .dwattr $C$DW$115, DW_AT_location[DW_OP_reg8]
     633                    $C$DW$116       .dwtag  DW_TAG_variable, DW_AT_name("$O$U179")
     634                            .dwattr $C$DW$116, DW_AT_TI_symbol_name("$O$U179")
     635                            .dwattr $C$DW$116, DW_AT_type(*$C$DW$T$164)
     636                            .dwattr $C$DW$116, DW_AT_location[DW_OP_breg31 52]
     637                    $C$DW$117       .dwtag  DW_TAG_variable, DW_AT_name("whitePoint")
     638                            .dwattr $C$DW$117, DW_AT_TI_symbol_name("whitePoint")
     639                            .dwattr $C$DW$117, DW_AT_type(*$C$DW$T$22)
     640                            .dwattr $C$DW$117, DW_AT_location[DW_OP_breg31 56]
     641                    $C$DW$118       .dwtag  DW_TAG_variable, DW_AT_name("coeff")
     642                            .dwattr $C$DW$118, DW_AT_TI_symbol_name("coeff")
     643                            .dwattr $C$DW$118, DW_AT_type(*$C$DW$T$24)
     644                            .dwattr $C$DW$118, DW_AT_location[DW_OP_breg31 60]
     645                    $C$DW$119       .dwtag  DW_TAG_variable, DW_AT_name("b_cn")
     646                            .dwattr $C$DW$119, DW_AT_TI_symbol_name("b_cn")
     647                            .dwattr $C$DW$119, DW_AT_type(*$C$DW$T$22)
     648                            .dwattr $C$DW$119, DW_AT_location[DW_OP_breg31 64]
     649                    $C$DW$120       .dwtag  DW_TAG_variable, DW_AT_name("a_cn")
     650                            .dwattr $C$DW$120, DW_AT_TI_symbol_name("a_cn")
     651                            .dwattr $C$DW$120, DW_AT_type(*$C$DW$T$22)
     652                            .dwattr $C$DW$120, DW_AT_location[DW_OP_breg31 68]
     653                    $C$DW$121       .dwtag  DW_TAG_variable, DW_AT_name("L_cn")
     654                            .dwattr $C$DW$121, DW_AT_TI_symbol_name("L_cn")
     655                            .dwattr $C$DW$121, DW_AT_type(*$C$DW$T$22)
     656                            .dwattr $C$DW$121, DW_AT_location[DW_OP_breg31 72]
     657                    $C$DW$122       .dwtag  DW_TAG_variable, DW_AT_name("b")
     658                            .dwattr $C$DW$122, DW_AT_TI_symbol_name("b")
     659                            .dwattr $C$DW$122, DW_AT_type(*$C$DW$T$22)
     660                            .dwattr $C$DW$122, DW_AT_location[DW_OP_breg31 76]
TMS320C6x Assembler PC v7.4.2 Thu Mar 19 12:40:21 2015

Tools Copyright (c) 1996-2012 Texas Instruments Incorporated
package/lib/Regression/regress_d_c/./../packages/ti/vlib/src/VLIB_convertUYVYint_to_LABpl/VLIB_convertUYVYint_to_LABpl_d.se66 PAGE   13

     661                    $C$DW$123       .dwtag  DW_TAG_variable, DW_AT_name("a")
     662                            .dwattr $C$DW$123, DW_AT_TI_symbol_name("a")
     663                            .dwattr $C$DW$123, DW_AT_type(*$C$DW$T$22)
     664                            .dwattr $C$DW$123, DW_AT_location[DW_OP_breg31 80]
     665                    $C$DW$124       .dwtag  DW_TAG_variable, DW_AT_name("L")
     666                            .dwattr $C$DW$124, DW_AT_TI_symbol_name("L")
     667                            .dwattr $C$DW$124, DW_AT_type(*$C$DW$T$22)
     668                            .dwattr $C$DW$124, DW_AT_location[DW_OP_breg31 84]
     669                    $C$DW$125       .dwtag  DW_TAG_variable, DW_AT_name("yc")
     670                            .dwattr $C$DW$125, DW_AT_TI_symbol_name("yc")
     671                            .dwattr $C$DW$125, DW_AT_type(*$C$DW$T$20)
     672                            .dwattr $C$DW$125, DW_AT_location[DW_OP_breg31 88]
     673                    $C$DW$126       .dwtag  DW_TAG_variable, DW_AT_name("out_size")
     674                            .dwattr $C$DW$126, DW_AT_TI_symbol_name("out_size")
     675                            .dwattr $C$DW$126, DW_AT_type(*$C$DW$T$25)
     676                            .dwattr $C$DW$126, DW_AT_location[DW_OP_breg31 92]
     677                    $C$DW$127       .dwtag  DW_TAG_variable, DW_AT_name("status_nat_vs_ref")
     678                            .dwattr $C$DW$127, DW_AT_TI_symbol_name("status_nat_vs_ref")
     679                            .dwattr $C$DW$127, DW_AT_type(*$C$DW$T$26)
     680                            .dwattr $C$DW$127, DW_AT_location[DW_OP_breg31 96]
     681                    $C$DW$128       .dwtag  DW_TAG_variable, DW_AT_name("status_nat_vs_int")
     682                            .dwattr $C$DW$128, DW_AT_TI_symbol_name("status_nat_vs_int")
     683                            .dwattr $C$DW$128, DW_AT_type(*$C$DW$T$26)
     684                            .dwattr $C$DW$128, DW_AT_location[DW_OP_reg28]
     685                    $C$DW$129       .dwtag  DW_TAG_variable, DW_AT_name("prm")
     686                            .dwattr $C$DW$129, DW_AT_TI_symbol_name("prm")
     687                            .dwattr $C$DW$129, DW_AT_type(*$C$DW$T$45)
     688                            .dwattr $C$DW$129, DW_AT_location[DW_OP_breg31 36]
     689                    $C$DW$130       .dwtag  DW_TAG_variable, DW_AT_name("tpi")
     690                            .dwattr $C$DW$130, DW_AT_TI_symbol_name("tpi")
     691                            .dwattr $C$DW$130, DW_AT_type(*$C$DW$T$26)
     692                            .dwattr $C$DW$130, DW_AT_location[DW_OP_breg31 100]
     693                    $C$DW$131       .dwtag  DW_TAG_variable, DW_AT_name("LevelOfFeedback")
     694                            .dwattr $C$DW$131, DW_AT_TI_symbol_name("LevelOfFeedback")
     695                            .dwattr $C$DW$131, DW_AT_type(*$C$DW$T$99)
     696                            .dwattr $C$DW$131, DW_AT_location[DW_OP_breg31 104]
     697                    $C$DW$132       .dwtag  DW_TAG_variable, DW_AT_name("$O$v1")
     698                            .dwattr $C$DW$132, DW_AT_TI_symbol_name("$O$v1")
     699                            .dwattr $C$DW$132, DW_AT_type(*$C$DW$T$45)
     700                            .dwattr $C$DW$132, DW_AT_location[DW_OP_reg14]
     701                    $C$DW$133       .dwtag  DW_TAG_variable, DW_AT_name("$O$U119")
     702                            .dwattr $C$DW$133, DW_AT_TI_symbol_name("$O$U119")
     703                            .dwattr $C$DW$133, DW_AT_type(*$C$DW$T$11)
     704                            .dwattr $C$DW$133, DW_AT_location[DW_OP_breg31 40]
     705                    $C$DW$134       .dwtag  DW_TAG_variable, DW_AT_name("$O$U119")
     706                            .dwattr $C$DW$134, DW_AT_TI_symbol_name("$O$U119")
     707                            .dwattr $C$DW$134, DW_AT_type(*$C$DW$T$11)
     708                            .dwattr $C$DW$134, DW_AT_location[DW_OP_breg31 108]
     709                    $C$DW$135       .dwtag  DW_TAG_variable, DW_AT_name("$O$U129")
     710                            .dwattr $C$DW$135, DW_AT_TI_symbol_name("$O$U129")
     711                            .dwattr $C$DW$135, DW_AT_type(*$C$DW$T$164)
     712                            .dwattr $C$DW$135, DW_AT_location[DW_OP_reg13]
     713                    $C$DW$136       .dwtag  DW_TAG_variable, DW_AT_name("$O$U129")
     714                            .dwattr $C$DW$136, DW_AT_TI_symbol_name("$O$U129")
     715                            .dwattr $C$DW$136, DW_AT_type(*$C$DW$T$164)
TMS320C6x Assembler PC v7.4.2 Thu Mar 19 12:40:21 2015

Tools Copyright (c) 1996-2012 Texas Instruments Incorporated
package/lib/Regression/regress_d_c/./../packages/ti/vlib/src/VLIB_convertUYVYint_to_LABpl/VLIB_convertUYVYint_to_LABpl_d.se66 PAGE   14

     716                            .dwattr $C$DW$136, DW_AT_location[DW_OP_reg13]
     717                    $C$DW$137       .dwtag  DW_TAG_variable, DW_AT_name("$O$U126")
     718                            .dwattr $C$DW$137, DW_AT_TI_symbol_name("$O$U126")
     719                            .dwattr $C$DW$137, DW_AT_type(*$C$DW$T$10)
     720                            .dwattr $C$DW$137, DW_AT_location[DW_OP_reg12]
     721                    $C$DW$138       .dwtag  DW_TAG_variable, DW_AT_name("$O$U126")
     722                            .dwattr $C$DW$138, DW_AT_TI_symbol_name("$O$U126")
     723                            .dwattr $C$DW$138, DW_AT_type(*$C$DW$T$10)
     724                            .dwattr $C$DW$138, DW_AT_location[DW_OP_reg12]
     725                    $C$DW$139       .dwtag  DW_TAG_variable, DW_AT_name("$O$U130")
     726                            .dwattr $C$DW$139, DW_AT_TI_symbol_name("$O$U130")
     727                            .dwattr $C$DW$139, DW_AT_type(*$C$DW$T$16)
     728                            .dwattr $C$DW$139, DW_AT_location[DW_OP_reg4]
     729                    $C$DW$140       .dwtag  DW_TAG_variable, DW_AT_name("$O$U130")
     730                            .dwattr $C$DW$140, DW_AT_TI_symbol_name("$O$U130")
     731                            .dwattr $C$DW$140, DW_AT_type(*$C$DW$T$16)
     732                            .dwattr $C$DW$140, DW_AT_location[DW_OP_reg4]
     733                    $C$DW$141       .dwtag  DW_TAG_variable, DW_AT_name("$O$U175")
     734                            .dwattr $C$DW$141, DW_AT_TI_symbol_name("$O$U175")
     735                            .dwattr $C$DW$141, DW_AT_type(*$C$DW$T$11)
     736                            .dwattr $C$DW$141, DW_AT_location[DW_OP_breg31 44]
     737                    $C$DW$142       .dwtag  DW_TAG_variable, DW_AT_name("$O$U175")
     738                            .dwattr $C$DW$142, DW_AT_TI_symbol_name("$O$U175")
     739                            .dwattr $C$DW$142, DW_AT_type(*$C$DW$T$11)
     740                            .dwattr $C$DW$142, DW_AT_location[DW_OP_reg15]
     741                    $C$DW$143       .dwtag  DW_TAG_variable, DW_AT_name("j")
     742                            .dwattr $C$DW$143, DW_AT_TI_symbol_name("j")
     743                            .dwattr $C$DW$143, DW_AT_type(*$C$DW$T$26)
     744                            .dwattr $C$DW$143, DW_AT_location[DW_OP_reg27]
     745                    $C$DW$144       .dwtag  DW_TAG_variable, DW_AT_name("j")
     746                            .dwattr $C$DW$144, DW_AT_TI_symbol_name("j")
     747                            .dwattr $C$DW$144, DW_AT_type(*$C$DW$T$26)
     748                            .dwattr $C$DW$144, DW_AT_location[DW_OP_reg27]
     749                    $C$DW$145       .dwtag  DW_TAG_variable, DW_AT_name("i")
     750                            .dwattr $C$DW$145, DW_AT_TI_symbol_name("i")
     751                            .dwattr $C$DW$145, DW_AT_type(*$C$DW$T$26)
     752                            .dwattr $C$DW$145, DW_AT_location[DW_OP_reg26]
     753                    $C$DW$146       .dwtag  DW_TAG_variable, DW_AT_name("i")
     754                            .dwattr $C$DW$146, DW_AT_TI_symbol_name("i")
     755                            .dwattr $C$DW$146, DW_AT_type(*$C$DW$T$26)
     756                            .dwattr $C$DW$146, DW_AT_location[DW_OP_reg26]
     757                    $C$DW$147       .dwtag  DW_TAG_variable, DW_AT_name("$O$v2")
     758                            .dwattr $C$DW$147, DW_AT_TI_symbol_name("$O$v2")
     759                            .dwattr $C$DW$147, DW_AT_type(*$C$DW$T$158)
     760                            .dwattr $C$DW$147, DW_AT_location[DW_OP_reg22]
     761                    $C$DW$148       .dwtag  DW_TAG_variable, DW_AT_name("$O$v2")
     762                            .dwattr $C$DW$148, DW_AT_TI_symbol_name("$O$v2")
     763                            .dwattr $C$DW$148, DW_AT_type(*$C$DW$T$158)
     764                            .dwattr $C$DW$148, DW_AT_location[DW_OP_reg22]
     765 00000010 0200002a!            MVKL    .S2     test_cases,B4
     766 00000014 0200006a!            MVKH    .S2     test_cases,B4
     767                    $C$DW$149       .dwtag  DW_TAG_TI_branch
     768                            .dwattr $C$DW$149, DW_AT_low_pc(0x00)
     769                            .dwattr $C$DW$149, DW_AT_name("UYVYint_to_LABpl_getTestParams")
     770                            .dwattr $C$DW$149, DW_AT_TI_call
TMS320C6x Assembler PC v7.4.2 Thu Mar 19 12:40:21 2015

Tools Copyright (c) 1996-2012 Texas Instruments Incorporated
package/lib/Regression/regress_d_c/./../packages/ti/vlib/src/VLIB_convertUYVYint_to_LABpl/VLIB_convertUYVYint_to_LABpl_d.se66 PAGE   15

     771                    
     772 00000018 10000013!            CALLP   .S2     UYVYint_to_LABpl_getTestParams,B3
     773 00000020     cf45  ||         STW     .D2T1   A4,*+SP(104)      ; |39| 
     774 00000022     2e36  ||         ADDAW   .D1X    SP,9,A4           ; |45| 
     775                    
     776                            .dwpsn  file "./../packages/ti/vlib/src/VLIB_convertUYVYint_to_LABpl/VLIB_convertUYVYint_to_LA
     777                    ;----------------------------------------------------------------------
     778                    ;  45 | UYVYint_to_LABpl_getTestParams(&prm, &test_cases);                     
     779                    ;----------------------------------------------------------------------
     780 00000024           $C$RL0:    ; CALL OCCURS {UYVYint_to_LABpl_getTestParams} {0}  ; |45| 
     781                    ;** --------------------------------------------------------------------------*
     782                    ;          EXCLUSIVE CPU CYCLES: 8
     783 00000024 0200002a!            MVKL    .S2     $C$SL1+0,B4
     784 00000028 0200006a!            MVKH    .S2     $C$SL1+0,B4
     785                    $C$DW$150       .dwtag  DW_TAG_TI_branch
     786                            .dwattr $C$DW$150, DW_AT_low_pc(0x00)
     787                            .dwattr $C$DW$150, DW_AT_name("VLIB_profile_init")
     788                            .dwattr $C$DW$150, DW_AT_TI_call
     789                    
     790 0000002c 10000013!            CALLP   .S2     VLIB_profile_init,B3
     791 00000030 020ca358  ||         MVK     .L1     0x3,A4            ; |48| 
     792                    
     793                            .dwpsn  file "./../packages/ti/vlib/src/VLIB_convertUYVYint_to_LABpl/VLIB_convertUYVYint_to_LA
     794                    ;----------------------------------------------------------------------
     795                    ;  48 | VLIB_profile_init(3, "VLIB_convertUYVYint_to_LABpl");                  
     796                    ;----------------------------------------------------------------------
     797 00000034           $C$RL1:    ; CALL OCCURS {VLIB_profile_init} {0}  ; |48| 
     798                    ;** --------------------------------------------------------------------------*
     799                    ;          EXCLUSIVE CPU CYCLES: 14
     800                    
     801 00000034 01800029!            MVKL    .S1     test_cases,A3
     802 00000038 033d22e6  ||         LDW     .D2T2   *+SP(36),B6
     803                    
     804 00000040 01800068!            MVKH    .S1     test_cases,A3
     805                            .dwpsn  file "./../packages/ti/vlib/src/VLIB_convertUYVYint_to_LABpl/VLIB_convertUYVYint_to_LA
     806                    ;----------------------------------------------------------------------
     807                    ;  51 | for( tpi=0; tpi < test_cases; tpi++ ) {                                
     808                    ;  54 |     int32_t    status_nat_vs_int = vlib_KERNEL_PASS; /* Test status : N
     809                    ;     | atural c vs. Optimized */                                              
     810                    ;  55 |     int32_t    status_nat_vs_ref = vlib_KERNEL_PASS; /* Test status : N
     811                    ;     | atural c vs. Static Reference */                                       
     812                    ;  58 |     uint32_t    inp_size   =  prm[tpi].pitch * prm[tpi].height * 2;    
     813                    ;----------------------------------------------------------------------
     814 00000044 018c0264             LDW     .D1T1   *A3,A3            ; |51| 
     815 00000048     0ab2             MVK     .S1     40,A5
     816 0000004a     0c6e             NOP             1
     817 0000004c 0594d2f8             SUB     .L1X    B6,A5,A11
     818                            .dwpsn  file "./../packages/ti/vlib/src/VLIB_convertUYVYint_to_LABpl/VLIB_convertUYVYint_to_LA
     819                    ;----------------------------------------------------------------------
     820                    ;  59 | uint32_t    out_size   =  prm[tpi].width * prm[tpi].height;            
     821                    ;----------------------------------------------------------------------
     822 00000050 05801450             ADDK    .S1     40,A11            ; |59| 
     823                    
     824 00000054     11a6             CMPGT   .L1     A3,0,A0           ; |51| 
     825 00000056     0192  ||         ZERO    .S1     A3                ; |51| 
TMS320C6x Assembler PC v7.4.2 Thu Mar 19 12:40:21 2015

Tools Copyright (c) 1996-2012 Texas Instruments Incorporated
package/lib/Regression/regress_d_c/./../packages/ti/vlib/src/VLIB_convertUYVYint_to_LABpl/VLIB_convertUYVYint_to_LABpl_d.se66 PAGE   16

     826                    
     827 00000058 d0014391     [!A0]   B       .S1     $C$L18            ; |51| 
     828 00000060 01bf22f4  ||         STW     .D2T1   A3,*+SP(100)
     829                    
     830                            .dwpsn  file "./../packages/ti/vlib/src/VLIB_convertUYVYint_to_LABpl/VLIB_convertUYVYint_to_LA
     831                    ;----------------------------------------------------------------------
     832                    ;  62 | uint8_t    *yc    = (uint8_t *) VLIB_memalign(8, inp_size);            
     833                    ;----------------------------------------------------------------------
     834 00000064 c22d0266     [ A0]   LDW     .D1T2   *+A11(32),B4      ; |62| 
     835                            .dwpsn  file "./../packages/ti/vlib/src/VLIB_convertUYVYint_to_LABpl/VLIB_convertUYVYint_to_LA
     836 00000068 c52d2264     [ A0]   LDW     .D1T1   *+A11(36),A10     ; |59| 
     837                            .dwpsn  file "./../packages/ti/vlib/src/VLIB_convertUYVYint_to_LABpl/VLIB_convertUYVYint_to_LA
     838 0000006c c220a358     [ A0]   MVK     .L1     0x8,A4            ; |62| 
     839                            .dwpsn  file "./../packages/ti/vlib/src/VLIB_convertUYVYint_to_LABpl/VLIB_convertUYVYint_to_LA
     840 00000070 c62ce264     [ A0]   LDW     .D1T1   *+A11(28),A12     ; |59| 
     841 00000074     0c6e             NOP             1
     842                            .dwpsn  file "./../packages/ti/vlib/src/VLIB_convertUYVYint_to_LABpl/VLIB_convertUYVYint_to_LA
     843                               ; BRANCHCC OCCURS {$C$L18}        ; |51| 
     844                    ;** --------------------------------------------------------------------------*
     845                    ;          EXCLUSIVE CPU CYCLES: 1
     846                    ;**     -----------------------    K$58 = &testPatternString[0];
     847                    ;**     -----------------------    K$65 = 255;
     848                    ;**     -----------------------    K$104 = &cycles[0];
     849                    ;**     -----------------------    K$226 = &desc[0];
     850                    ;**     -----------------------    U$13 = prm-40;
     851                    ;** 51  -----------------------    tpi = 0;
     852                    ;**     -----------------------    #pragma LOOP_FLAGS(5120u)
     853 00000076     0c6e             NOP             1
     854                    ;** --------------------------------------------------------------------------*
     855                    ;**   BEGIN LOOP $C$L1
     856                    ;** --------------------------------------------------------------------------*
     857 00000080           $C$L1:    
     858                            .dwpsn  file "./../packages/ti/vlib/src/VLIB_convertUYVYint_to_LABpl/VLIB_convertUYVYint_to_LA
     859                    $C$DW$L$VLIB_convertUYVYint_to_LABpl_d$5$B:
     860                    ;          EXCLUSIVE CPU CYCLES: 6
     861                    ;**     -----------------------g3:
     862                    ;** 59  -----------------------    C$12 = (*(U$13 += 40)).height;
     863                    ;** 59  -----------------------    out_size = (*U$13).width*C$12;
     864                    ;** 62  -----------------------    yc = VLIB_memalign(8u, (*U$13).pitch*C$12*2u);
     865                    ;** 63  -----------------------    C$11 = out_size*4u;
     866                    ;** 63  -----------------------    L = VLIB_memalign(8u, C$11);
     867                    ;** 64  -----------------------    a = VLIB_memalign(8u, C$11);
     868                    ;** 65  -----------------------    b = VLIB_memalign(8u, C$11);
     869                    ;** 66  -----------------------    L_cn = malloc(C$11);
     870                    ;** 67  -----------------------    a_cn = malloc(C$11);
     871                    ;** 68  -----------------------    b_cn = malloc(C$11);
     872                    ;** 69  -----------------------    coeff = VLIB_malloc(10u);
     873                    ;** 70  -----------------------    whitePoint = VLIB_malloc(12u);
     874                    ;** 73  -----------------------    if ( !((yc != NULL)&(L != NULL)&(a != NULL)&(b != NULL)&(L_cn != NU
     875                    $C$DW$151       .dwtag  DW_TAG_TI_branch
     876                            .dwattr $C$DW$151, DW_AT_low_pc(0x00)
     877                            .dwattr $C$DW$151, DW_AT_name("VLIB_memalign")
     878                            .dwattr $C$DW$151, DW_AT_TI_call
     879                    
     880 00000080 00000011!            CALL    .S1     VLIB_memalign     ; |62| 
TMS320C6x Assembler PC v7.4.2 Thu Mar 19 12:40:21 2015

Tools Copyright (c) 1996-2012 Texas Instruments Incorporated
package/lib/Regression/regress_d_c/./../packages/ti/vlib/src/VLIB_convertUYVYint_to_LABpl/VLIB_convertUYVYint_to_LABpl_d.se66 PAGE   17

     881 00000084 02289802  ||         MPY32   .M2X    A10,B4,B4         ; |62| 
     882                    
     883                            .dwpsn  file "./../packages/ti/vlib/src/VLIB_convertUYVYint_to_LABpl/VLIB_convertUYVYint_to_LA
     884 00000088 01844162             ADDKPC  .S2     $C$RL2,B3,2       ; |62| 
     885 0000008c     8241             ADD     .L2     B4,B4,B4          ; |62| 
     886 0000008e     0c6e             NOP             1
     887 00000090           $C$RL2:    ; CALL OCCURS {VLIB_memalign} {0}  ; |62| 
     888 00000090           $C$DW$L$VLIB_convertUYVYint_to_LABpl_d$5$E:
     889                    ;** --------------------------------------------------------------------------*
     890 00000090           $C$DW$L$VLIB_convertUYVYint_to_LABpl_d$6$B:
     891                    ;          EXCLUSIVE CPU CYCLES: 54
     892                            .dwpsn  file "./../packages/ti/vlib/src/VLIB_convertUYVYint_to_LABpl/VLIB_convertUYVYint_to_LA
     893 00000090 01b14800             MPY32   .M1     A10,A12,A3        ; |59| 
     894                            .dwpsn  file "./../packages/ti/vlib/src/VLIB_convertUYVYint_to_LABpl/VLIB_convertUYVYint_to_LA
     895 00000094     cec5             STW     .D2T1   A4,*+SP(88)       ; |62| 
     896                            .dwpsn  file "./../packages/ti/vlib/src/VLIB_convertUYVYint_to_LABpl/VLIB_convertUYVYint_to_LA
     897                    ;----------------------------------------------------------------------
     898                    ;  63 | VLIB_F32   *L     = (VLIB_F32 *) VLIB_memalign(8, out_size * sizeof(VLI
     899                    ;     | B_F32));                                                               
     900                    ;----------------------------------------------------------------------
     901 00000096     0e26             MVK     .L1     0x8,A4            ; |63| 
     902 00000098 00000000             NOP             1
     903 000000a0 050c4ca0             SHL     .S1     A3,2,A10          ; |63| 
     904                            .dwpsn  file "./../packages/ti/vlib/src/VLIB_convertUYVYint_to_LABpl/VLIB_convertUYVYint_to_LA
     905 000000a4 01bee2f4             STW     .D2T1   A3,*+SP(92)       ; |59| 
     906                    $C$DW$152       .dwtag  DW_TAG_TI_branch
     907                            .dwattr $C$DW$152, DW_AT_low_pc(0x00)
     908                            .dwattr $C$DW$152, DW_AT_name("VLIB_memalign")
     909                            .dwattr $C$DW$152, DW_AT_TI_call
     910                    
     911 000000ac 10000012!            CALLP   .S2     VLIB_memalign,B3
     912 000000a8 02281fdb  ||         MV      .L2X    A10,B4            ; |63| 
     913                    
     914                            .dwpsn  file "./../packages/ti/vlib/src/VLIB_convertUYVYint_to_LABpl/VLIB_convertUYVYint_to_LA
     915                    $C$RL3:    ; CALL OCCURS {VLIB_memalign} {0}  ; |63| 
     916                    $C$DW$153       .dwtag  DW_TAG_TI_branch
     917                            .dwattr $C$DW$153, DW_AT_low_pc(0x00)
     918                            .dwattr $C$DW$153, DW_AT_name("VLIB_memalign")
     919                            .dwattr $C$DW$153, DW_AT_TI_call
     920                    
     921 000000b0 10000013!            CALLP   .S2     VLIB_memalign,B3
     922 000000b4 02281fdb  ||         MV      .L2X    A10,B4            ; |64| 
     923 000000b8 023ea2f5  ||         STW     .D2T1   A4,*+SP(84)       ; |63| 
     924 000000bc 0220a358  ||         MVK     .L1     0x8,A4            ; |64| 
     925                    
     926                            .dwpsn  file "./../packages/ti/vlib/src/VLIB_convertUYVYint_to_LABpl/VLIB_convertUYVYint_to_LA
     927                    ;----------------------------------------------------------------------
     928                    ;  64 | VLIB_F32   *a     = (VLIB_F32 *) VLIB_memalign(8, out_size * sizeof(VLI
     929                    ;     | B_F32));                                                               
     930                    ;----------------------------------------------------------------------
     931                    $C$RL4:    ; CALL OCCURS {VLIB_memalign} {0}  ; |64| 
     932                    $C$DW$154       .dwtag  DW_TAG_TI_branch
     933                            .dwattr $C$DW$154, DW_AT_low_pc(0x00)
     934                            .dwattr $C$DW$154, DW_AT_name("VLIB_memalign")
     935                            .dwattr $C$DW$154, DW_AT_TI_call
TMS320C6x Assembler PC v7.4.2 Thu Mar 19 12:40:21 2015

Tools Copyright (c) 1996-2012 Texas Instruments Incorporated
package/lib/Regression/regress_d_c/./../packages/ti/vlib/src/VLIB_convertUYVYint_to_LABpl/VLIB_convertUYVYint_to_LABpl_d.se66 PAGE   18

     936                    
     937 000000c0 10000013!            CALLP   .S2     VLIB_memalign,B3
     938 000000c4     9507  ||         MV      .L2X    A10,B4            ; |65| 
     939 000000c6     8ec5  ||         STW     .D2T1   A4,*+SP(80)       ; |64| 
     940 000000c8 0220a358  ||         MVK     .L1     0x8,A4            ; |65| 
     941                    
     942                            .dwpsn  file "./../packages/ti/vlib/src/VLIB_convertUYVYint_to_LABpl/VLIB_convertUYVYint_to_LA
     943                    ;----------------------------------------------------------------------
     944                    ;  65 | VLIB_F32   *b     = (VLIB_F32 *) VLIB_memalign(8, out_size * sizeof(VLI
     945                    ;     | B_F32));                                                               
     946                    ;----------------------------------------------------------------------
     947                    $C$RL5:    ; CALL OCCURS {VLIB_memalign} {0}  ; |65| 
     948                    $C$DW$155       .dwtag  DW_TAG_TI_branch
     949                            .dwattr $C$DW$155, DW_AT_low_pc(0x00)
     950                            .dwattr $C$DW$155, DW_AT_name("malloc")
     951                            .dwattr $C$DW$155, DW_AT_TI_call
     952                    
     953 000000cc 10000013!            CALLP   .S2     malloc,B3
     954 000000d0     ee45  ||         STW     .D2T1   A4,*+SP(76)       ; |65| 
     955 000000d2     8506  ||         MV      .L1     A10,A4            ; |66| 
     956                    
     957                            .dwpsn  file "./../packages/ti/vlib/src/VLIB_convertUYVYint_to_LABpl/VLIB_convertUYVYint_to_LA
     958                    ;----------------------------------------------------------------------
     959                    ;  66 | VLIB_F32   *L_cn  = (VLIB_F32 *) malloc(out_size * sizeof(VLIB_F32));  
     960                    ;----------------------------------------------------------------------
     961                    $C$RL6:    ; CALL OCCURS {malloc} {0}        ; |66| 
     962                    $C$DW$156       .dwtag  DW_TAG_TI_branch
     963                            .dwattr $C$DW$156, DW_AT_low_pc(0x00)
     964                            .dwattr $C$DW$156, DW_AT_name("malloc")
     965                            .dwattr $C$DW$156, DW_AT_TI_call
     966                    
     967 000000d4 10000013!            CALLP   .S2     malloc,B3
     968 000000d8     ce45  ||         STW     .D2T1   A4,*+SP(72)       ; |66| 
     969 000000da     8506  ||         MV      .L1     A10,A4            ; |67| 
     970                    
     971                            .dwpsn  file "./../packages/ti/vlib/src/VLIB_convertUYVYint_to_LABpl/VLIB_convertUYVYint_to_LA
     972                    ;----------------------------------------------------------------------
     973                    ;  67 | VLIB_F32   *a_cn  = (VLIB_F32 *) malloc(out_size * sizeof(VLIB_F32));  
     974                    ;----------------------------------------------------------------------
     975                    $C$RL7:    ; CALL OCCURS {malloc} {0}        ; |67| 
     976                    $C$DW$157       .dwtag  DW_TAG_TI_branch
     977                            .dwattr $C$DW$157, DW_AT_low_pc(0x00)
     978                            .dwattr $C$DW$157, DW_AT_name("malloc")
     979                            .dwattr $C$DW$157, DW_AT_TI_call
     980                    
     981 000000e0 10000013!            CALLP   .S2     malloc,B3
     982 000000e4 023e22f5  ||         STW     .D2T1   A4,*+SP(68)       ; |67| 
     983 000000e8 02280fd8  ||         MV      .L1     A10,A4            ; |68| 
     984                    
     985                            .dwpsn  file "./../packages/ti/vlib/src/VLIB_convertUYVYint_to_LABpl/VLIB_convertUYVYint_to_LA
     986                    ;----------------------------------------------------------------------
     987                    ;  68 | VLIB_F32   *b_cn  = (VLIB_F32 *) malloc(out_size * sizeof(VLIB_F32));  
     988                    ;----------------------------------------------------------------------
     989                    $C$RL8:    ; CALL OCCURS {malloc} {0}        ; |68| 
     990                    $C$DW$158       .dwtag  DW_TAG_TI_branch
TMS320C6x Assembler PC v7.4.2 Thu Mar 19 12:40:21 2015

Tools Copyright (c) 1996-2012 Texas Instruments Incorporated
package/lib/Regression/regress_d_c/./../packages/ti/vlib/src/VLIB_convertUYVYint_to_LABpl/VLIB_convertUYVYint_to_LABpl_d.se66 PAGE   19

     991                            .dwattr $C$DW$158, DW_AT_low_pc(0x00)
     992                            .dwattr $C$DW$158, DW_AT_name("VLIB_malloc")
     993                            .dwattr $C$DW$158, DW_AT_TI_call
     994                    
     995 000000ec 10000013!            CALLP   .S2     VLIB_malloc,B3
     996 000000f0 023e02f5  ||         STW     .D2T1   A4,*+SP(64)       ; |68| 
     997 000000f4 0228a359  ||         MVK     .L1     0xa,A4            ; |69| 
     998                    
     999                            .dwpsn  file "./../packages/ti/vlib/src/VLIB_convertUYVYint_to_LABpl/VLIB_convertUYVYint_to_LA
    1000                    ;----------------------------------------------------------------------
    1001                    ;  69 | int16_t    *coeff = (int16_t *) VLIB_malloc(5 * sizeof(int16_t));      
    1002                    ;----------------------------------------------------------------------
    1003                    $C$RL9:    ; CALL OCCURS {VLIB_malloc} {0}   ; |69| 
    1004                    $C$DW$159       .dwtag  DW_TAG_TI_branch
    1005                            .dwattr $C$DW$159, DW_AT_low_pc(0x00)
    1006                            .dwattr $C$DW$159, DW_AT_name("VLIB_malloc")
    1007                            .dwattr $C$DW$159, DW_AT_TI_call
    1008                    
    1009 00000100 10000013!            CALLP   .S2     VLIB_malloc,B3
    1010 00000104     edc5  ||         STW     .D2T1   A4,*+SP(60)       ; |69| 
    1011 00000106     8e26  ||         MVK     .L1     0xc,A4            ; |70| 
    1012                    
    1013                            .dwpsn  file "./../packages/ti/vlib/src/VLIB_convertUYVYint_to_LABpl/VLIB_convertUYVYint_to_LA
    1014                    ;----------------------------------------------------------------------
    1015                    ;  70 | VLIB_F32   *whitePoint = (VLIB_F32 *) VLIB_malloc(3 * sizeof(VLIB_F32))
    1016                    ;     | ;                                                                      
    1017                    ;----------------------------------------------------------------------
    1018 00000108           $C$RL10:   ; CALL OCCURS {VLIB_malloc} {0}   ; |70| 
    1019 00000108           $C$DW$L$VLIB_convertUYVYint_to_LABpl_d$6$E:
    1020                    ;** --------------------------------------------------------------------------*
    1021 00000108           $C$DW$L$VLIB_convertUYVYint_to_LABpl_d$7$B:
    1022                    ;          EXCLUSIVE CPU CYCLES: 29
    1023                    
    1024 00000108     8ead             LDW     .D2T1   *+SP(80),A2       ; |73| 
    1025 0000010a     0727  ||         ZERO    .L2     B6                ; |73| 
    1026 0000010c     0293  ||         ZERO    .S2     B5                ; |73| 
    1027 0000010e     05a6  ||         ZERO    .L1     A3                ; |73| 
    1028                    
    1029 00000110     ce8d             LDW     .D2T1   *+SP(88),A0       ; |73| 
    1030 00000112     0627  ||         ZERO    .L2     B4                ; |73| 
    1031                    
    1032                            .dwpsn  file "./../packages/ti/vlib/src/VLIB_convertUYVYint_to_LABpl/VLIB_convertUYVYint_to_LA
    1033                    ;----------------------------------------------------------------------
    1034                    ;  73 | if( yc && L && a && b && L_cn && a_cn && b_cn && coeff && whitePoint )
    1035                    ;     | {                                                                      
    1036                    ;  75 |     int32_t    fail, i, j;                                             
    1037                    ;----------------------------------------------------------------------
    1038 00000114     be8d             LDW     .D2T2   *+SP(84),B0       ; |73| 
    1039 00000116     ee1d             LDW     .D2T1   *+SP(76),A1       ; |73| 
    1040                    
    1041 00000118     cdc5             STW     .D2T1   A4,*+SP(56)       ; |70| 
    1042 0000011a     0626  ||         ZERO    .L1     A4                ; |73| 
    1043                    
    1044 00000120 a304a35b     [ A2]   MVK     .L2     0x1,B6            ; |73| 
    1045 00000124     ce2d  ||         LDW     .D2T1   *+SP(72),A2       ; |73| 
TMS320C6x Assembler PC v7.4.2 Thu Mar 19 12:40:21 2015

Tools Copyright (c) 1996-2012 Texas Instruments Incorporated
package/lib/Regression/regress_d_c/./../packages/ti/vlib/src/VLIB_convertUYVYint_to_LABpl/VLIB_convertUYVYint_to_LABpl_d.se66 PAGE   20

    1046                    
    1047 00000126     2ae7     [ A0]   MVK     .L2     0x1,B5            ; |73| 
    1048 00000128     aa67     [ B0]   MVK     .L2     0x1,B4            ; |73| 
    1049                    
    1050 0000012c 02948f7a             AND     .L2     B4,B5,B5          ; |73| 
    1051 0000012a     0213  ||         ZERO    .S2     B4                ; |73| 
    1052                    
    1053 00000130 8204a35b     [ A1]   MVK     .L2     0x1,B4            ; |73| 
    1054 00000138     ae1d  ||         LDW     .D2T1   *+SP(68),A1       ; |73| 
    1055 00000134 0294c7e3  ||         AND     .S2     B6,B5,B5          ; |73| 
    1056                    
    1057 00000140 a204a359     [ A2]   MVK     .L1     0x1,A4            ; |73| 
    1058 0000013a     8e2d  ||         LDW     .D2T1   *+SP(64),A2       ; |73| 
    1059 00000144 02148f7a  ||         AND     .L2     B4,B5,B4          ; |73| 
    1060                    
    1061 00000148 0280a35a             ZERO    .L2     B5                ; |73| 
    1062 0000014c 02109f78             AND     .L1X    A4,B4,A4          ; |73| 
    1063 00000150     0627             ZERO    .L2     B4                ; |73| 
    1064                    
    1065 00000154 8184a358     [ A1]   MVK     .L1     0x1,A3            ; |73| 
    1066 00000152     ed9d  ||         LDW     .D2T1   *+SP(60),A1       ; |73| 
    1067                    
    1068 00000158 01906f79             AND     .L1     A3,A4,A3          ; |73| 
    1069 00000160 a284a35a  || [ A2]   MVK     .L2     0x1,B5            ; |73| 
    1070                    
    1071 00000164 013dc2e4             LDW     .D2T1   *+SP(56),A2       ; |73| 
    1072 00000168 028cbf7a             AND     .L2X    B5,A3,B5          ; |73| 
    1073 0000016c 0180a358             ZERO    .L1     A3                ; |73| 
    1074 00000170 8204a35a     [ A1]   MVK     .L2     0x1,B4            ; |73| 
    1075 00000174 02148f7a             AND     .L2     B4,B5,B4          ; |73| 
    1076 00000178 a184a358     [ A2]   MVK     .L1     0x1,A3            ; |73| 
    1077 0000017c 00107f78             AND     .L1X    A3,B4,A0          ; |73| 
    1078                    
    1079 00000180 d0010113     [!A0]   B       .S2     $C$L16            ; |73| 
    1080 00000184 c2ad0265  || [ A0]   LDW     .D1T1   *+A11(32),A5      ; |78| 
    1081 00000188 c1807fa8  || [ A0]   MVK     .S1     0xff,A3
    1082                    
    1083 0000018c c33ec2e5     [ A0]   LDW     .D2T1   *+SP(88),A6       ; |78| 
    1084 00000190 c32c2267  || [ A0]   LDW     .D1T2   *+A11(4),B6       ; |78| 
    1085 00000194 c18f1808  || [ A0]   EXTU    .S1     A3,24,24,A3       ; |78| 
    1086                    
    1087 00000198 c22c0215     [ A0]   LDBU    .D1T1   *A11,A4           ; |78| 
    1088 0000019c c6000028! || [ A0]   MVKL    .S1     testPatternString,A12
    1089                    
    1090                    $C$DW$160       .dwtag  DW_TAG_TI_branch
    1091                            .dwattr $C$DW$160, DW_AT_low_pc(0x00)
    1092                            .dwattr $C$DW$160, DW_AT_name("VLIB_fillBuffer")
    1093                            .dwattr $C$DW$160, DW_AT_TI_call
    1094                    
    1095 000001a0 c0000011!    [ A0]   CALL    .S1     VLIB_fillBuffer   ; |78| 
    1096 000001a4 c42dc204  || [ A0]   LDHU    .D1T1   *+A11(28),A8      ; |78| 
    1097                    
    1098                            .dwpsn  file "./../packages/ti/vlib/src/VLIB_convertUYVYint_to_LABpl/VLIB_convertUYVYint_to_LA
    1099                    ;----------------------------------------------------------------------
    1100                    ;  78 | VLIB_fillBuffer(prm[tpi].testPattern,                                  
TMS320C6x Assembler PC v7.4.2 Thu Mar 19 12:40:21 2015

Tools Copyright (c) 1996-2012 Texas Instruments Incorporated
package/lib/Regression/regress_d_c/./../packages/ti/vlib/src/VLIB_convertUYVYint_to_LABpl/VLIB_convertUYVYint_to_LABpl_d.se66 PAGE   21

    1101                    ;  79 |                 (uint8_t)255,                                          
    1102                    ;  80 |                 yc, prm[tpi].staticIn,                                 
    1103                    ;  81 |                 prm[tpi].width, prm[tpi].height, prm[tpi].pitch * 2,   
    1104                    ;  82 |                 sizeof(uint16_t), testPatternString);                  
    1105                    ;  84 | for( i=0; i < 5; i++ ) {                                               
    1106                    ;  85 |     coeff[i] = prm[tpi].coeff[i];                                      
    1107                    ;  88 | for( i=0; i < 3; i++ ) {                                               
    1108                    ;  89 |     whitePoint[i] = prm[tpi].whitePoint[i];                            
    1109                    ;  93 | VLIB_profile_start(vlib_KERNEL_OPT);                                   
    1110                    ;  94 | VLIB_convertUYVYint_to_LABpl(yc, prm[tpi].width, prm[tpi].pitch, prm[tp
    1111                    ;     | i].height, coeff, whitePoint, L, a, b);                                
    1112                    ;  95 | VLIB_profile_stop();                                                   
    1113                    ;  98 | VLIB_profile_start(vlib_KERNEL_CN);                                    
    1114                    ;  99 | VLIB_convertUYVYint_to_LABpl_cn(yc, prm[tpi].width, prm[tpi].pitch, prm
    1115                    ;     | [tpi].height, coeff, whitePoint, L_cn, a_cn, b_cn);                    
    1116                    ; 100 | VLIB_profile_stop();                                                   
    1117                    ; 103 | for( j=0; j < prm[tpi].height; j++ ) {                                 
    1118                    ; 104 |     for( i=0; i < prm[tpi].width; i++ ) {                              
    1119                    ; 105 |         if( fabsf(L[j * prm[tpi].width + i] - L_cn[j * prm[tpi].width +
    1120                    ;     |  i]) > 0.0001 ||                                                       
    1121                    ; 106 |             fabsf(a[j * prm[tpi].width + i] - a_cn[j * prm[tpi].width +
    1122                    ;     |  i]) > 0.0001 ||                                                       
    1123                    ; 107 |             fabsf(b[j * prm[tpi].width + i] - b_cn[j * prm[tpi].width +
    1124                    ;     |  i]) > 0.0001 ) {                                                      
    1125                    ; 108 |             status_nat_vs_int = vlib_KERNEL_FAIL;                      
    1126                    ; 109 |             if( LevelOfFeedback > 0 ) {                                
    1127                    ; 110 |                 printf("L[%d,%d] O=%f C=%f\n", i, j, L[j * prm[tpi].wid
    1128                    ;     | th + i], L_cn[j * prm[tpi].width + i]);                                
    1129                    ; 111 |                 printf("a[%d,%d] O=%f C=%f\n", i, j, a[j * prm[tpi].wid
    1130                    ;     | th + i], a_cn[j * prm[tpi].width + i]);                                
    1131                    ; 112 |                 printf("b[%d,%d] O=%f C=%f\n", i, j, b[j * prm[tpi].wid
    1132                    ;     | th + i], b_cn[j * prm[tpi].width + i]);                                
    1133                    ; 119 | if( prm[tpi].staticOutL != NULL &&                                     
    1134                    ; 120 |     prm[tpi].staticOutA != NULL &&                                     
    1135                    ; 121 |     prm[tpi].staticOutB != NULL ) {                                    
    1136                    ; 123 |     for( j=0; j < prm[tpi].height; j++ ) {                             
    1137                    ; 124 |         for( i=0; i < prm[tpi].width; i++ ) {                          
    1138                    ; 125 |             if( fabsf(prm[tpi].staticOutL[j * prm[tpi].width + i] - L_c
    1139                    ;     | n[j * prm[tpi].width + i]) > 0.0001 ||                                 
    1140                    ; 126 |                 fabsf(prm[tpi].staticOutA[j * prm[tpi].width + i] - a_c
    1141                    ;     | n[j * prm[tpi].width + i]) > 0.0001 ||                                 
    1142                    ; 127 |                 fabsf(prm[tpi].staticOutB[j * prm[tpi].width + i] - b_c
    1143                    ;     | n[j * prm[tpi].width + i]) > 0.0001 ) {                                
    1144                    ; 128 |                 status_nat_vs_ref = vlib_KERNEL_FAIL;                  
    1145                    ; 129 |                 if( LevelOfFeedback > 0 ) {                            
    1146                    ; 130 |                     printf("L[%d,%d] S=%f C=%f\n", i, j, prm[tpi].stati
    1147                    ;     | cOutL[j * prm[tpi].width + i], L_cn[j * prm[tpi].width + i]);          
    1148                    ; 131 |                     printf("a[%d,%d] S=%f C=%f\n", i, j, prm[tpi].stati
    1149                    ;     | cOutA[j * prm[tpi].width + i], a_cn[j * prm[tpi].width + i]);          
    1150                    ; 132 |                     printf("b[%d,%d] S=%f C=%f\n", i, j, prm[tpi].stati
    1151                    ;     | cOutB[j * prm[tpi].width + i], b_cn[j * prm[tpi].width + i]);          
    1152                    ; 140 | fail = ((status_nat_vs_int == vlib_KERNEL_FAIL) || (status_nat_vs_ref =
    1153                    ;     | = vlib_KERNEL_FAIL)) ? 1 : 0;                                          
    1154                    ; 142 | est_test=1;                                                            
    1155                    ; 145 | sprintf(desc, "%s generated input | Opt results compared to NatC result
TMS320C6x Assembler PC v7.4.2 Thu Mar 19 12:40:21 2015

Tools Copyright (c) 1996-2012 Texas Instruments Incorporated
package/lib/Regression/regress_d_c/./../packages/ti/vlib/src/VLIB_convertUYVYint_to_LABpl/VLIB_convertUYVYint_to_LABpl_d.se66 PAGE   22

    1156                    ;     | s | width=%d, pitch=%d, height=%d, num_pts=%d",                        
    1157                    ; 146 |         testPatternString, prm[tpi].width, prm[tpi].pitch, prm[tpi].hei
    1158                    ;     | ght, out_size);                                                        
    1159                    ; 147 | VLIB_formula_add_test(out_size, NULL, NULL, fail, desc, NULL);         
    1160                    ; 149 | } else {                                                               
    1161                    ;----------------------------------------------------------------------
    1162 000001a8 c42e4206     [ A0]   LDHU    .D1T2   *+A11(36),B8      ; |78| 
    1163                            .dwpsn  file "./../packages/ti/vlib/src/VLIB_convertUYVYint_to_LABpl/VLIB_convertUYVYint_to_LA
    1164                    ;----------------------------------------------------------------------
    1165                    ; 151 | sprintf(desc, "width=%d, pitch=%d, height=%d, num_pts=%d",             
    1166                    ; 152 |         prm[tpi].width, prm[tpi].pitch, prm[tpi].height, out_size);    
    1167                    ;----------------------------------------------------------------------
    1168 000001ac d22d0264     [!A0]   LDW     .D1T1   *+A11(32),A4      ; |151| 
    1169                            .dwpsn  file "./../packages/ti/vlib/src/VLIB_convertUYVYint_to_LABpl/VLIB_convertUYVYint_to_LA
    1170                               ; BRANCHCC OCCURS {$C$L16}        ; |73| 
    1171 000001b0           $C$DW$L$VLIB_convertUYVYint_to_LABpl_d$7$E:
    1172                    ;** --------------------------------------------------------------------------*
    1173 000001b0           $C$DW$L$VLIB_convertUYVYint_to_LABpl_d$8$B:
    1174                    ;          EXCLUSIVE CPU CYCLES: 3
    1175                    ;** 78  -----------------------    VLIB_fillBuffer((*U$13).testPattern, (unsigned char)K$65, (void *)y
    1176                    ;** 85  -----------------------    *coeff = *(*U$13).coeff;
    1177                    ;** 85  -----------------------    coeff[1] = *((*U$13).coeff+2);
    1178                    ;** 85  -----------------------    coeff[2] = *((*U$13).coeff+4);
    1179                    ;** 85  -----------------------    coeff[3] = *((*U$13).coeff+6);
    1180                    ;** 85  -----------------------    coeff[4] = *((*U$13).coeff+8);
    1181                    ;** 89  -----------------------    *whitePoint = *(*U$13).whitePoint;
    1182                    ;** 89  -----------------------    whitePoint[1] = *((*U$13).whitePoint+4);
    1183                    ;** 89  -----------------------    whitePoint[2] = *((*U$13).whitePoint+8);
    1184                    ;** 137 -----------------------    act_kernel = 0;  // [15]
    1185                    ;** 140 -----------------------    VLIB_cache_inval();  // [15]
    1186                    ;** 143 -----------------------    initStack(getSP());  // [15]
    1187                    ;** 146 -----------------------    beg_count = _itoll(TSCH, TSCL);  // [15]
    1188                    ;** 94  -----------------------    VLIB_convertUYVYint_to_LABpl(yc, (*U$13).width, (*U$13).pitch, (*U$
    1189                    ;** 153 -----------------------    v$2 = _itoll(TSCH, TSCL);  // [16]
    1190                    ;** 153 -----------------------    end_count = v$2;  // [16]
    1191                    ;** 156 -----------------------    C$10 = act_kernel;  // [16]
    1192                    ;** 156 -----------------------    *((C$10<<3)+K$104) = *((C$10<<3)+K$104)+(v$2-(beg_count+overhead));
    1193                    ;** 159 -----------------------    setStackDepth();  // [16]
    1194                    ;** 137 -----------------------    act_kernel = 1;  // [15]
    1195                    ;** 140 -----------------------    VLIB_cache_inval();  // [15]
    1196                    ;** 143 -----------------------    initStack(getSP());  // [15]
    1197                    ;** 146 -----------------------    beg_count = _itoll(TSCH, TSCL);  // [15]
    1198                    ;** 99  -----------------------    VLIB_convertUYVYint_to_LABpl_cn(yc, (*U$13).width, (*U$13).pitch, (
    1199                    ;** 153 -----------------------    v$2 = _itoll(TSCH, TSCL);  // [16]
    1200                    ;** 153 -----------------------    end_count = v$2;  // [16]
    1201                    ;** 156 -----------------------    C$9 = act_kernel;  // [16]
    1202                    ;** 156 -----------------------    *((C$9<<3)+K$104) = *((C$9<<3)+K$104)+(v$2-(beg_count+overhead));  
    1203                    ;** 159 -----------------------    setStackDepth();  // [16]
    1204                            .dwpsn  file "./../packages/ti/vlib/src/VLIB_convertUYVYint_to_LABpl/VLIB_convertUYVYint_to_LA
    1205 000001b0 05163008             EXTU    .S1     A5,17,16,A10      ; |78| 
    1206 000001b4 020c1fda             MV      .L2X    A3,B4             ; |78| 
    1207                    
    1208 000001b8 0508a35b             MVK     .L2     0x2,B10           ; |78| 
    1209 000001bc 06000069! ||         MVKH    .S1     testPatternString,A12
    1210 000001c0 01810162  ||         ADDKPC  .S2     $C$RL11,B3,0      ; |78| 
TMS320C6x Assembler PC v7.4.2 Thu Mar 19 12:40:21 2015

Tools Copyright (c) 1996-2012 Texas Instruments Incorporated
package/lib/Regression/regress_d_c/./../packages/ti/vlib/src/VLIB_convertUYVYint_to_LABpl/VLIB_convertUYVYint_to_LABpl_d.se66 PAGE   23

    1211                    
    1212 000001c4           $C$RL11:   ; CALL OCCURS {VLIB_fillBuffer} {0}  ; |78| 
    1213 000001c4           $C$DW$L$VLIB_convertUYVYint_to_LABpl_d$8$E:
    1214                    ;** --------------------------------------------------------------------------*
    1215 000001c4           $C$DW$L$VLIB_convertUYVYint_to_LABpl_d$9$B:
    1216                    ;          EXCLUSIVE CPU CYCLES: 195
    1217                            .dwpsn  file "./../packages/ti/vlib/src/VLIB_convertUYVYint_to_LABpl/VLIB_convertUYVYint_to_LA
    1218 000001c4 022ca266             LDW     .D1T2   *+A11(20),B4      ; |85| 
    1219 000001c8 023de2e4             LDW     .D2T1   *+SP(60),A4
    1220 000001cc 07000028!            MVKL    .S1     act_kernel,A14
    1221 000001d0 07000068!            MVKH    .S1     act_kernel,A14
    1222                            .dwpsn  file ".\..\packages\ti\vlib\src\VLIB_convertUYVYint_to_LABpl\..\common\VLIB_profile.h"
    1223 000001d4     06a7             ZERO    .L2     B5                ; |137| 
    1224                            .dwpsn  file "./../packages/ti/vlib/src/VLIB_convertUYVYint_to_LABpl/VLIB_convertUYVYint_to_LA
    1225 000001d6     023d             LDH     .D2T1   *B4,A3            ; |85| 
    1226                            .dwpsn  file ".\..\packages\ti\vlib\src\VLIB_convertUYVYint_to_LABpl\..\common\VLIB_profile.h"
    1227 000001d8 02b80276             STW     .D1T2   B5,*A14           ; |137| 
    1228 000001e0     4c6e             NOP             3
    1229                            .dwpsn  file "./../packages/ti/vlib/src/VLIB_convertUYVYint_to_LABpl/VLIB_convertUYVYint_to_LA
    1230 000001e2     0234             STH     .D1T1   A3,*A4            ; |85| 
    1231 000001e4 022ca266             LDW     .D1T2   *+A11(20),B4      ; |85| 
    1232 000001e8 00000000             NOP             4
    1233 000001e8     223d             LDH     .D2T1   *+B4(2),A3        ; |85| 
    1234 000001ea 00000000             NOP             4
    1235 000001ea     2234             STH     .D1T1   A3,*+A4(2)        ; |85| 
    1236 000001ec 022ca266             LDW     .D1T2   *+A11(20),B4      ; |85| 
    1237 000001f0 00000000             NOP             4
    1238 000001f0     423d             LDH     .D2T1   *+B4(4),A3        ; |85| 
    1239 000001f2 00000000             NOP             4
    1240 000001f2     4234             STH     .D1T1   A3,*+A4(4)        ; |85| 
    1241 000001f4 022ca266             LDW     .D1T2   *+A11(20),B4      ; |85| 
    1242 000001f8 00000000             NOP             4
    1243 000001f8     623d             LDH     .D2T1   *+B4(6),A3        ; |85| 
    1244 000001fa 00000000             NOP             4
    1245 000001fa     6234             STH     .D1T1   A3,*+A4(6)        ; |85| 
    1246 00000200 022ca266             LDW     .D1T2   *+A11(20),B4      ; |85| 
    1247 00000204     6c6e             NOP             4
    1248 00000206     823d             LDH     .D2T1   *+B4(8),A3        ; |85| 
    1249 00000208     6c6e             NOP             4
    1250 0000020a     8234             STH     .D1T1   A3,*+A4(8)        ; |85| 
    1251                            .dwpsn  file "./../packages/ti/vlib/src/VLIB_convertUYVYint_to_LABpl/VLIB_convertUYVYint_to_LA
    1252 0000020c 022cc266             LDW     .D1T2   *+A11(24),B4      ; |89| 
    1253 00000210     cdbd             LDW     .D2T1   *+SP(56),A3
    1254 00000212     4c6e             NOP             3
    1255 00000214     104d             LDW     .D2T2   *B4,B4            ; |89| 
    1256 00000216     6c6e             NOP             4
    1257 00000218 020c0276             STW     .D1T2   B4,*A3            ; |89| 
    1258 00000220 022cc266             LDW     .D1T2   *+A11(24),B4      ; |89| 
    1259 00000224 00000000             NOP             4
    1260 00000224 021022e6             LDW     .D2T2   *+B4(4),B4        ; |89| 
    1261 00000228 00000000             NOP             4
    1262 00000228 020c2276             STW     .D1T2   B4,*+A3(4)        ; |89| 
    1263 0000022c 022cc266             LDW     .D1T2   *+A11(24),B4      ; |89| 
    1264 00000230 00000000             NOP             4
    1265 00000230 021042e6             LDW     .D2T2   *+B4(8),B4        ; |89| 
TMS320C6x Assembler PC v7.4.2 Thu Mar 19 12:40:21 2015

Tools Copyright (c) 1996-2012 Texas Instruments Incorporated
package/lib/Regression/regress_d_c/./../packages/ti/vlib/src/VLIB_convertUYVYint_to_LABpl/VLIB_convertUYVYint_to_LABpl_d.se66 PAGE   24

    1266 00000234 00000000             NOP             4
    1267                    $C$DW$161       .dwtag  DW_TAG_TI_branch
    1268                            .dwattr $C$DW$161, DW_AT_low_pc(0x00)
    1269                            .dwattr $C$DW$161, DW_AT_name("VLIB_cache_inval")
    1270                            .dwattr $C$DW$161, DW_AT_TI_call
    1271                    
    1272 00000234 10000013!            CALLP   .S2     VLIB_cache_inval,B3
    1273 00000238 020c4276  ||         STW     .D1T2   B4,*+A3(8)        ; |89| 
    1274                    
    1275                            .dwpsn  file ".\..\packages\ti\vlib\src\VLIB_convertUYVYint_to_LABpl\..\common\VLIB_profile.h"
    1276                    $C$RL12:   ; CALL OCCURS {VLIB_cache_inval} {0}  ; |140| 
    1277                    $C$DW$162       .dwtag  DW_TAG_TI_branch
    1278                            .dwattr $C$DW$162, DW_AT_low_pc(0x00)
    1279                            .dwattr $C$DW$162, DW_AT_name("getSP")
    1280                            .dwattr $C$DW$162, DW_AT_TI_call
    1281 00000240 10000012!            CALLP   .S2     getSP,B3
    1282                            .dwpsn  file ".\..\packages\ti\vlib\src\VLIB_convertUYVYint_to_LABpl\..\common\VLIB_profile.h"
    1283                    $C$RL13:   ; CALL OCCURS {getSP} {0}         ; |143| 
    1284                    $C$DW$163       .dwtag  DW_TAG_TI_branch
    1285                            .dwattr $C$DW$163, DW_AT_low_pc(0x00)
    1286                            .dwattr $C$DW$163, DW_AT_name("initStack")
    1287                            .dwattr $C$DW$163, DW_AT_TI_call
    1288 00000244 10000012!            CALLP   .S2     initStack,B3
    1289 00000248           $C$RL14:   ; CALL OCCURS {initStack} {0}     ; |143| 
    1290                            .dwpsn  file ".\..\packages\ti\vlib\src\VLIB_convertUYVYint_to_LABpl\..\common\VLIB_profile.h"
    1291 00000248 032803e2             MVC     .S2     TSCL,B6           ; |146| 
    1292 0000024c 022c03e2             MVC     .S2     TSCH,B4           ; |146| 
    1293                            .dwpsn  file "./../packages/ti/vlib/src/VLIB_convertUYVYint_to_LABpl/VLIB_convertUYVYint_to_LA
    1294 00000250 023ec2e4             LDW     .D2T1   *+SP(88),A4       ; |94| 
    1295                    
    1296 00000254 06800029!            MVKL    .S1     beg_count,A13
    1297 00000258 043dc2e6  ||         LDW     .D2T2   *+SP(56),B8       ; |94| 
    1298                    
    1299 0000025c 06800069!            MVKH    .S1     beg_count,A13
    1300 00000260 03900fdb  ||         MV      .L2     B4,B7             ; |146| 
    1301 00000264 053e82e7  ||         LDW     .D2T2   *+SP(80),B10      ; |94| 
    1302 00000268 032d0264  ||         LDW     .D1T1   *+A11(32),A6      ; |94| 
    1303                    
    1304 0000026c 03340347             STDW    .D1T2   B7:B6,*A13        ; |146| 
    1305 00000270 043de2e4  ||         LDW     .D2T1   *+SP(60),A8       ; |94| 
    1306                    
    1307 00000274 063e62e5             LDW     .D2T1   *+SP(76),A12      ; |94| 
    1308 00000278 022ce266  ||         LDW     .D1T2   *+A11(28),B4      ; |94| 
    1309                    
    1310                    $C$DW$164       .dwtag  DW_TAG_TI_branch
    1311                            .dwattr $C$DW$164, DW_AT_low_pc(0x00)
    1312                            .dwattr $C$DW$164, DW_AT_name("VLIB_convertUYVYint_to_LABpl")
    1313                            .dwattr $C$DW$164, DW_AT_TI_call
    1314                    
    1315 0000027c 10000013!            CALLP   .S2     VLIB_convertUYVYint_to_LABpl,B3
    1316 00000280 032d2267  ||         LDW     .D1T2   *+A11(36),B6      ; |94| 
    1317 00000284 053ea2e4  ||         LDW     .D2T1   *+SP(84),A10      ; |94| 
    1318                    
    1319 00000288           $C$RL15:   ; CALL OCCURS {VLIB_convertUYVYint_to_LABpl} {0}  ; |94| 
    1320                            .dwpsn  file ".\..\packages\ti\vlib\src\VLIB_convertUYVYint_to_LABpl\..\common\VLIB_profile.h"
TMS320C6x Assembler PC v7.4.2 Thu Mar 19 12:40:21 2015

Tools Copyright (c) 1996-2012 Texas Instruments Incorporated
package/lib/Regression/regress_d_c/./../packages/ti/vlib/src/VLIB_convertUYVYint_to_LABpl/VLIB_convertUYVYint_to_LABpl_d.se66 PAGE   25

    1321                    ;----------------------------------------------------------------------
    1322                    ; 153 | VLIB_skip_test(desc);                                                  
    1323                    ;----------------------------------------------------------------------
    1324 00000288 032803e2             MVC     .S2     TSCL,B6           ; |153| 
    1325 0000028c 03ac03e2             MVC     .S2     TSCH,B7           ; |153| 
    1326 00000290 0580002a!            MVKL    .S2     overhead,B11
    1327                    
    1328 00000294 0580006b!            MVKH    .S2     overhead,B11
    1329 00000298 08380264  ||         LDW     .D1T1   *A14,A16          ; |156| 
    1330                    
    1331 0000029c 022c03e7             LDDW    .D2T2   *B11,B5:B4        ; |156| 
    1332 000002a0 03340364  ||         LDDW    .D1T1   *A13,A7:A6        ; |156| 
    1333                    
    1334 000002a4 01800028!            MVKL    .S1     cycles,A3
    1335 000002a8 01800068!            MVKH    .S1     cycles,A3
    1336 000002ac 0600002a!            MVKL    .S2     end_count,B12
    1337                            .dwpsn  file ".\..\packages\ti\vlib\src\VLIB_convertUYVYint_to_LABpl\..\common\VLIB_profile.h"
    1338                    ;----------------------------------------------------------------------
    1339                    ; 157 | VLIB_free(whitePoint);                                                 
    1340                    ; 158 | VLIB_free(coeff);                                                      
    1341                    ;----------------------------------------------------------------------
    1342 000002b0 040e0b64             LDDW    .D1T1   *+A3[A16],A9:A8   ; |156| 
    1343 000002b4 0210d578             ADDU    .L1X    B4,A6,A5:A4       ; |156| 
    1344 000002b8     b2b0             ADD     .L1X    A5,B5,A3          ; |156| 
    1345 000002ba     63b0             ADD     .L1     A3,A7,A3          ; |156| 
    1346 000002c0 0210d7f8             SUBU    .L1X    B6,A4,A5:A4       ; |156| 
    1347 000002c4 020cf0fa             SUB     .L2X    B7,A3,B4          ; |156| 
    1348                    
    1349 000002c8 0f971849             EXT     .S1     A5,24,24,A31      ; |156| 
    1350 000002cc 02110578  ||         ADDU    .L1     A8,A4,A5:A4       ; |156| 
    1351                    
    1352 000002d0 01a4a079             ADD     .L1     A5,A9,A3          ; |156| 
    1353 000002d4 0293f1e0  ||         ADD     .S1X    B4,A31,A5         ; |156| 
    1354                    
    1355 000002d8 02946079             ADD     .L1     A3,A5,A5          ; |156| 
    1356 000002dc 01800028! ||         MVKL    .S1     cycles,A3
    1357                    
    1358 000002e0 01800069!            MVKH    .S1     cycles,A3
    1359 000002e4 0600006a! ||         MVKH    .S2     end_count,B12
    1360                    
    1361                    $C$DW$165       .dwtag  DW_TAG_TI_branch
    1362                            .dwattr $C$DW$165, DW_AT_low_pc(0x00)
    1363                            .dwattr $C$DW$165, DW_AT_name("setStackDepth")
    1364                            .dwattr $C$DW$165, DW_AT_TI_call
    1365                    
    1366 000002e8 10000013!            CALLP   .S2     setStackDepth,B3
    1367 000002ec 020e0b45  ||         STDW    .D1T1   A5:A4,*+A3[A16]   ; |156| 
    1368 000002f0 033003c6  ||         STDW    .D2T2   B7:B6,*B12        ; |153| 
    1369                    
    1370                            .dwpsn  file ".\..\packages\ti\vlib\src\VLIB_convertUYVYint_to_LABpl\..\common\VLIB_profile.h"
    1371                    ;----------------------------------------------------------------------
    1372                    ; 159 | free(b_cn);                                                            
    1373                    ;----------------------------------------------------------------------
    1374 000002f4           $C$RL16:   ; CALL OCCURS {setStackDepth} {0}  ; |159| 
    1375                            .dwpsn  file ".\..\packages\ti\vlib\src\VLIB_convertUYVYint_to_LABpl\..\common\VLIB_profile.h"
TMS320C6x Assembler PC v7.4.2 Thu Mar 19 12:40:21 2015

Tools Copyright (c) 1996-2012 Texas Instruments Incorporated
package/lib/Regression/regress_d_c/./../packages/ti/vlib/src/VLIB_convertUYVYint_to_LABpl/VLIB_convertUYVYint_to_LABpl_d.se66 PAGE   26

    1376 000002f4 0204a35a             MVK     .L2     1,B4              ; |137| 
    1377                    $C$DW$166       .dwtag  DW_TAG_TI_branch
    1378                            .dwattr $C$DW$166, DW_AT_low_pc(0x00)
    1379                            .dwattr $C$DW$166, DW_AT_name("VLIB_cache_inval")
    1380                            .dwattr $C$DW$166, DW_AT_TI_call
    1381                    
    1382 000002f8 10000013!            CALLP   .S2     VLIB_cache_inval,B3
    1383 000002fc 02380276  ||         STW     .D1T2   B4,*A14           ; |137| 
    1384                    
    1385                            .dwpsn  file ".\..\packages\ti\vlib\src\VLIB_convertUYVYint_to_LABpl\..\common\VLIB_profile.h"
    1386                    $C$RL17:   ; CALL OCCURS {VLIB_cache_inval} {0}  ; |140| 
    1387                    $C$DW$167       .dwtag  DW_TAG_TI_branch
    1388                            .dwattr $C$DW$167, DW_AT_low_pc(0x00)
    1389                            .dwattr $C$DW$167, DW_AT_name("getSP")
    1390                            .dwattr $C$DW$167, DW_AT_TI_call
    1391 00000300 10000012!            CALLP   .S2     getSP,B3
    1392                            .dwpsn  file ".\..\packages\ti\vlib\src\VLIB_convertUYVYint_to_LABpl\..\common\VLIB_profile.h"
    1393                    $C$RL18:   ; CALL OCCURS {getSP} {0}         ; |143| 
    1394                    $C$DW$168       .dwtag  DW_TAG_TI_branch
    1395                            .dwattr $C$DW$168, DW_AT_low_pc(0x00)
    1396                            .dwattr $C$DW$168, DW_AT_name("initStack")
    1397                            .dwattr $C$DW$168, DW_AT_TI_call
    1398 00000304 10000012!            CALLP   .S2     initStack,B3
    1399 00000308           $C$RL19:   ; CALL OCCURS {initStack} {0}     ; |143| 
    1400                            .dwpsn  file ".\..\packages\ti\vlib\src\VLIB_convertUYVYint_to_LABpl\..\common\VLIB_profile.h"
    1401 00000308 022803e2             MVC     .S2     TSCL,B4           ; |146| 
    1402 0000030c 02ac03e2             MVC     .S2     TSCH,B5           ; |146| 
    1403                            .dwpsn  file "./../packages/ti/vlib/src/VLIB_convertUYVYint_to_LABpl/VLIB_convertUYVYint_to_LA
    1404 00000310 023ec2e4             LDW     .D2T1   *+SP(88),A4       ; |99| 
    1405                    
    1406 00000314 02340347             STDW    .D1T2   B5:B4,*A13        ; |146| 
    1407 00000318 043de2e4  ||         LDW     .D2T1   *+SP(60),A8       ; |99| 
    1408                    
    1409 0000031c 053e42e5             LDW     .D2T1   *+SP(72),A10      ; |99| 
    1410 00000320 032d2266  ||         LDW     .D1T2   *+A11(36),B6      ; |99| 
    1411                    
    1412 00000324 063e02e5             LDW     .D2T1   *+SP(64),A12      ; |99| 
    1413 00000328 022ce266  ||         LDW     .D1T2   *+A11(28),B4      ; |99| 
    1414                    
    1415 0000032c 043dc2e6             LDW     .D2T2   *+SP(56),B8       ; |99| 
    1416                    $C$DW$169       .dwtag  DW_TAG_TI_branch
    1417                            .dwattr $C$DW$169, DW_AT_low_pc(0x00)
    1418                            .dwattr $C$DW$169, DW_AT_name("VLIB_convertUYVYint_to_LABpl_cn")
    1419                            .dwattr $C$DW$169, DW_AT_TI_call
    1420                    
    1421 00000330 10000013!            CALLP   .S2     VLIB_convertUYVYint_to_LABpl_cn,B3
    1422 00000334 053e22e7  ||         LDW     .D2T2   *+SP(68),B10      ; |99| 
    1423 00000338 032d0264  ||         LDW     .D1T1   *+A11(32),A6      ; |99| 
    1424                    
    1425 0000033c           $C$RL20:   ; CALL OCCURS {VLIB_convertUYVYint_to_LABpl_cn} {0}  ; |99| 
    1426                            .dwpsn  file ".\..\packages\ti\vlib\src\VLIB_convertUYVYint_to_LABpl\..\common\VLIB_profile.h"
    1427 0000033c 032803e2             MVC     .S2     TSCL,B6           ; |153| 
    1428 00000340 03ac03e2             MVC     .S2     TSCH,B7           ; |153| 
    1429                            .dwpsn  file ".\..\packages\ti\vlib\src\VLIB_convertUYVYint_to_LABpl\..\common\VLIB_profile.h"
    1430 00000344 01b80264             LDW     .D1T1   *A14,A3           ; |156| 
TMS320C6x Assembler PC v7.4.2 Thu Mar 19 12:40:21 2015

Tools Copyright (c) 1996-2012 Texas Instruments Incorporated
package/lib/Regression/regress_d_c/./../packages/ti/vlib/src/VLIB_convertUYVYint_to_LABpl/VLIB_convertUYVYint_to_LABpl_d.se66 PAGE   27

    1431 00000348 042c03e6             LDDW    .D2T2   *B11,B9:B8        ; |156| 
    1432 0000034c 02340364             LDDW    .D1T1   *A13,A5:A4        ; |156| 
    1433 00000350 03000028!            MVKL    .S1     cycles,A6
    1434 00000354 03000068!            MVKH    .S1     cycles,A6
    1435 00000358 03186b64             LDDW    .D1T1   *+A6[A3],A7:A6    ; |156| 
    1436                            .dwpsn  file ".\..\packages\ti\vlib\src\VLIB_convertUYVYint_to_LABpl\..\common\VLIB_profile.h"
    1437 0000035c 033003c6             STDW    .D2T2   B7:B6,*B12        ; |153| 
    1438                            .dwpsn  file ".\..\packages\ti\vlib\src\VLIB_convertUYVYint_to_LABpl\..\common\VLIB_profile.h"
    1439 00000360 0211157a             ADDU    .L2X    B8,A4,B5:B4       ; |156| 
    1440 00000364 0424a07a             ADD     .L2     B5,B9,B8          ; |156| 
    1441                    
    1442 00000368 041511e3             ADD     .S2X    B8,A5,B8          ; |156| 
    1443 0000036c 0210c5fa  ||         SUBU    .L2     B6,B4,B5:B4       ; |156| 
    1444                    
    1445 00000370 0497184b             EXT     .S2     B5,24,24,B9       ; |156| 
    1446 00000374 0218957b  ||         ADDU    .L2X    A6,B4,B5:B4       ; |156| 
    1447 00000378 041d08c2  ||         SUB     .D2     B7,B8,B8          ; |156| 
    1448                    
    1449 0000037c 029cb07b             ADD     .L2X    B5,A7,B5          ; |156| 
    1450 00000380 042501e3  ||         ADD     .S2     B8,B9,B8          ; |156| 
    1451 00000384 02000028! ||         MVKL    .S1     cycles,A4
    1452                    
    1453 00000388 02a0a07b             ADD     .L2     B5,B8,B5          ; |156| 
    1454 0000038c 02000068! ||         MVKH    .S1     cycles,A4
    1455                    
    1456                    $C$DW$170       .dwtag  DW_TAG_TI_branch
    1457                            .dwattr $C$DW$170, DW_AT_low_pc(0x00)
    1458                            .dwattr $C$DW$170, DW_AT_name("setStackDepth")
    1459                            .dwattr $C$DW$170, DW_AT_TI_call
    1460                    
    1461 00000390 10000013!            CALLP   .S2     setStackDepth,B3
    1462 00000394 02106b46  ||         STDW    .D1T2   B5:B4,*+A4[A3]    ; |156| 
    1463                    
    1464                            .dwpsn  file ".\..\packages\ti\vlib\src\VLIB_convertUYVYint_to_LABpl\..\common\VLIB_profile.h"
    1465 00000398           $C$RL21:   ; CALL OCCURS {setStackDepth} {0}  ; |159| 
    1466 00000398           $C$DW$L$VLIB_convertUYVYint_to_LABpl_d$9$E:
    1467                    ;** --------------------------------------------------------------------------*
    1468 00000398           $C$DW$L$VLIB_convertUYVYint_to_LABpl_d$10$B:
    1469                    ;          EXCLUSIVE CPU CYCLES: 11
    1470                    ;** 103 -----------------------    v$1 = prm;
    1471                    ;** 54  -----------------------    status_nat_vs_int = 1;
    1472                    ;** 103 -----------------------    if ( !(*U$13).height ) goto g15;
    1473                            .dwpsn  file "./../packages/ti/vlib/src/VLIB_convertUYVYint_to_LABpl/VLIB_convertUYVYint_to_LA
    1474 00000398 002d2264             LDW     .D1T1   *+A11(36),A0      ; |103| 
    1475                            .dwpsn  file "./../packages/ti/vlib/src/VLIB_convertUYVYint_to_LABpl/VLIB_convertUYVYint_to_LA
    1476 0000039c 0604a35a             MVK     .L2     0x1,B12           ; |54| 
    1477 000003a0 01bf22e4             LDW     .D2T1   *+SP(100),A3
    1478                            .dwpsn  file "./../packages/ti/vlib/src/VLIB_convertUYVYint_to_LABpl/VLIB_convertUYVYint_to_LA
    1479 000003a4 073d22e4             LDW     .D2T1   *+SP(36),A14      ; |103| 
    1480 000003a8 00000000             NOP             1
    1481                    
    1482 000003ac d0a16121     [!A0]   BNOP    .S1     $C$L8,3           ; |103| 
    1483 000003b0 c23f22e4  || [ A0]   LDW     .D2T1   *+SP(100),A4
    1484                    
    1485 000003b4 018caca0             SHL     .S1     A3,5,A3
TMS320C6x Assembler PC v7.4.2 Thu Mar 19 12:40:21 2015

Tools Copyright (c) 1996-2012 Texas Instruments Incorporated
package/lib/Regression/regress_d_c/./../packages/ti/vlib/src/VLIB_convertUYVYint_to_LABpl/VLIB_convertUYVYint_to_LABpl_d.se66 PAGE   28

    1486 000003b8 018c9e40             ADDAD   .D1     A3,A4,A3
    1487                               ; BRANCHCC OCCURS {$C$L8}         ; |103| 
    1488 000003bc           $C$DW$L$VLIB_convertUYVYint_to_LABpl_d$10$E:
    1489                    ;** --------------------------------------------------------------------------*
    1490 000003bc           $C$DW$L$VLIB_convertUYVYint_to_LABpl_d$11$B:
    1491                    ;          EXCLUSIVE CPU CYCLES: 14
    1492                    ;**     -----------------------    C$8 = &v$1[tpi];
    1493                    ;**     -----------------------    U$119 = (*C$8).width;
    1494                    ;**     -----------------------    U$175 = (*C$8).height;
    1495                    ;**     -----------------------    T$1 = 0u;
    1496                    ;** 103 -----------------------    j = 0;
    1497                    ;**     -----------------------    #pragma MUST_ITERATE(1, 4294967295, 1)
    1498                    ;**     -----------------------    #pragma LOOP_FLAGS(1024u)
    1499 000003bc 018dc078             ADD     .L1     A14,A3,A3
    1500 000003c0 020d2264             LDW     .D1T1   *+A3(36),A4
    1501 000003c4 018ce264             LDW     .D1T1   *+A3(28),A3
    1502 000003c8 0fbea2e4             LDW     .D2T1   *+SP(84),A31
    1503                            .dwpsn  file "./../packages/ti/vlib/src/VLIB_convertUYVYint_to_LABpl/VLIB_convertUYVYint_to_LA
    1504 000003cc 0580a35a             ZERO    .L2     B11               ; |103| 
    1505 000003d0 0780a358             ZERO    .L1     A15               ; |103| 
    1506 000003d4     ed45             STW     .D2T1   A4,*+SP(44)
    1507 000003d6     cd35             STW     .D2T1   A3,*+SP(40)
    1508 000003d8     cd0d             LDW     .D2T1   *+SP(40),A0
    1509 000003da     6c6e             NOP             4
    1510                    
    1511 000003e0 01800fd9             MV      .L1     A0,A3
    1512 000003e4 cf3e42e4  || [ A0]   LDW     .D2T1   *+SP(72),A30
    1513                    
    1514 000003e8           $C$DW$L$VLIB_convertUYVYint_to_LABpl_d$11$E:
    1515                    ;** --------------------------------------------------------------------------*
    1516                    ;**   BEGIN LOOP $C$L2
    1517                    ;** --------------------------------------------------------------------------*
    1518 000003e8           $C$L2:    
    1519 000003e8           $C$DW$L$VLIB_convertUYVYint_to_LABpl_d$12$B:
    1520                    ;          EXCLUSIVE CPU CYCLES: 6
    1521                    ;**     -----------------------g6:
    1522                    ;** 104 -----------------------    if ( !U$119 ) goto g14;
    1523                    
    1524 000003e8 d0868121     [!A0]   BNOP    .S1     $C$L7,4           ; |104| 
    1525 000003ec 022c7800  ||         MPY32   .M1X    B11,A3,A4
    1526                    
    1527 000003f0 02fc9c41             ADDAW   .D1     A31,A4,A5
    1528                            .dwpsn  file "./../packages/ti/vlib/src/VLIB_convertUYVYint_to_LABpl/VLIB_convertUYVYint_to_LA
    1529                               ; BRANCHCC OCCURS {$C$L7}         ; |104| 
    1530 00000400           $C$DW$L$VLIB_convertUYVYint_to_LABpl_d$12$E:
    1531                    ;** --------------------------------------------------------------------------*
    1532 00000400           $C$DW$L$VLIB_convertUYVYint_to_LABpl_d$13$B:
    1533                    ;          EXCLUSIVE CPU CYCLES: 2
    1534                    ;**     -----------------------    C$7 = U$119*j;
    1535                    ;**     -----------------------    U$126 = C$7*4;
    1536                    ;**     -----------------------    U$127 = &L[C$7-1];
    1537                    ;**     -----------------------    U$129 = &L_cn[C$7-1];
    1538                    ;**     -----------------------    T$2 = 0u;
    1539                    ;** 104 -----------------------    i = 0;
    1540                    ;**     -----------------------    #pragma MUST_ITERATE(1, 4294967295, 1)
TMS320C6x Assembler PC v7.4.2 Thu Mar 19 12:40:21 2015

Tools Copyright (c) 1996-2012 Texas Instruments Incorporated
package/lib/Regression/regress_d_c/./../packages/ti/vlib/src/VLIB_convertUYVYint_to_LABpl/VLIB_convertUYVYint_to_LABpl_d.se66 PAGE   29

    1541                    ;**     -----------------------    #pragma LOOP_FLAGS(1024u)
    1542                    
    1543 00000400 01f89c41             ADDAW   .D1     A30,A4,A3
    1544 00000404 0500a359  ||         ZERO    .L1     A10               ; |104| 
    1545 00000408 0500a35b  ||         ZERO    .L2     B10               ; |104| 
    1546 0000040c 06104ca0  ||         SHL     .S1     A4,2,A12
    1547                    
    1548 00000410 0697905b             SUB     .L2X    A5,4,B13
    1549 00000414 068f8059  ||         SUB     .L1     A3,4,A13
    1550                    
    1551 00000420           $C$DW$L$VLIB_convertUYVYint_to_LABpl_d$13$E:
    1552                    ;** --------------------------------------------------------------------------*
    1553 00000420           $C$DW$L$VLIB_convertUYVYint_to_LABpl_d$14$B:
    1554                    ;          EXCLUSIVE CPU CYCLES: 3
    1555                    
    1556 00000420 02343265             LDW     .D1T1   *++A13,A4         ; |105| 
    1557 00000424 043432e7  ||         LDW     .D2T2   *++B13,B8         ; |105| 
    1558 00000428 039b712a  ||         MVKL    .S2     0x3f1a36e2,B7
    1559                    
    1560 0000042c 01be22e5             LDW     .D2T1   *+SP(68),A3
    1561 00000430 032196aa  ||         MVKL    .S2     0xeb1c432d,B6
    1562                    
    1563 00000434 039f8d6a             MVKH    .S2     0x3f1a36e2,B7
    1564 00000438           $C$DW$L$VLIB_convertUYVYint_to_LABpl_d$14$E:
    1565                    ;*----------------------------------------------------------------------------*
    1566                    ;*   SOFTWARE PIPELINE INFORMATION
    1567                    ;*      Disqualified loop: Loop contains control code
    1568                    ;*----------------------------------------------------------------------------*
    1569 00000438           $C$L3:    
    1570                            .dwpsn  file "./../packages/ti/vlib/src/VLIB_convertUYVYint_to_LABpl/VLIB_convertUYVYint_to_LA
    1571 00000438           $C$DW$L$VLIB_convertUYVYint_to_LABpl_d$15$B:
    1572                    ;          EXCLUSIVE CPU CYCLES: 16
    1573                    ;**     -----------------------g8:
    1574                    ;** 105 -----------------------    U$130 = *(++U$129);
    1575                    ;** 105 -----------------------    U$128 = *(++U$127);
    1576                    ;** 105 -----------------------    if ( (double)ABS(U$128-U$130) > 0.0001 ) goto g11;
    1577 00000438 03758e6a             MVKH    .S2     0xeb1c432d,B6
    1578 0000043c 00000000             NOP             1
    1579                            .dwpsn  file "./../packages/ti/vlib/src/VLIB_convertUYVYint_to_LABpl/VLIB_convertUYVYint_to_LA
    1580 00000440 021117ba             FSUBSP  .L2X    B8,A4,B4          ; |105| 
    1581 00000444 01b06078             ADD     .L1     A3,A12,A3         ; |105| 
    1582 00000448 00000000             NOP             1
    1583 0000044c 02100f22             ABSSP   .S2     B4,B4             ; |105| 
    1584 00000450 021000a2             SPDP    .S2     B4,B5:B4          ; |105| 
    1585 00000454     0c6e             NOP             1
    1586                    
    1587 00000458 00188a62             CMPGTDP .S2     B5:B4,B7:B6,B0    ; |105| 
    1588 00000456     9ecd  ||         LDW     .D2T2   *+SP(80),B4
    1589                    
    1590 00000460 00000000             NOP             1
    1591                    
    1592 00000464 20464121     [ B0]   BNOP    .S1     $C$L4,2           ; |105| 
    1593 00000468 318c0264  || [!B0]   LDW     .D1T1   *A3,A3            ; |105| 
    1594                    
    1595 0000046c 0230907a             ADD     .L2X    B4,A12,B4         ; |105| 
TMS320C6x Assembler PC v7.4.2 Thu Mar 19 12:40:21 2015

Tools Copyright (c) 1996-2012 Texas Instruments Incorporated
package/lib/Regression/regress_d_c/./../packages/ti/vlib/src/VLIB_convertUYVYint_to_LABpl/VLIB_convertUYVYint_to_LABpl_d.se66 PAGE   30

    1596 00000470 321002e6     [!B0]   LDW     .D2T2   *B4,B4            ; |105| 
    1597 00000474     0c6e             NOP             1
    1598                               ; BRANCHCC OCCURS {$C$L4}         ; |105| 
    1599 00000476           $C$DW$L$VLIB_convertUYVYint_to_LABpl_d$15$E:
    1600                    ;** --------------------------------------------------------------------------*
    1601 00000476           $C$DW$L$VLIB_convertUYVYint_to_LABpl_d$16$B:
    1602                    ;          EXCLUSIVE CPU CYCLES: 17
    1603                    ;** 105 -----------------------    if ( (double)ABS(*(U$126+a)-*(U$126+a_cn)) > 0.0001 ) goto g11;
    1604 00000476     4c6e             NOP             3
    1605 00000478 020c97ba             FSUBSP  .L2X    B4,A3,B4          ; |105| 
    1606 00000480     8e3d             LDW     .D2T1   *+SP(64),A3
    1607 00000482     0c6e             NOP             1
    1608 00000484 02100f22             ABSSP   .S2     B4,B4             ; |105| 
    1609 00000488 021000a2             SPDP    .S2     B4,B5:B4          ; |105| 
    1610 0000048c     0c6e             NOP             1
    1611                    
    1612 00000490 00188a62             CMPGTDP .S2     B5:B4,B7:B6,B0    ; |105| 
    1613 0000048e     fe4d  ||         LDW     .D2T2   *+SP(76),B4
    1614                    
    1615 00000494 01b06078             ADD     .L1     A3,A12,A3         ; |105| 
    1616                    
    1617 00000498 20364121     [ B0]   BNOP    .S1     $C$L4,2           ; |105| 
    1618 000004a0 318c0264  || [!B0]   LDW     .D1T1   *A3,A3            ; |105| 
    1619                    
    1620 000004a4 0230907a             ADD     .L2X    B4,A12,B4         ; |105| 
    1621 000004a8 321002e6     [!B0]   LDW     .D2T2   *B4,B4            ; |105| 
    1622 000004ac     0c6e             NOP             1
    1623                               ; BRANCHCC OCCURS {$C$L4}         ; |105| 
    1624 000004ae           $C$DW$L$VLIB_convertUYVYint_to_LABpl_d$16$E:
    1625                    ;** --------------------------------------------------------------------------*
    1626 000004ae           $C$DW$L$VLIB_convertUYVYint_to_LABpl_d$17$B:
    1627                    ;          EXCLUSIVE CPU CYCLES: 17
    1628                    ;** 105 -----------------------    if ( (double)ABS(*(U$126+b)-*(U$126+b_cn)) <= 0.0001 ) goto g13;
    1629 000004ae     4c6e             NOP             3
    1630 000004b0 020c97ba             FSUBSP  .L2X    B4,A3,B4          ; |105| 
    1631                            .dwpsn  file "./../packages/ti/vlib/src/VLIB_convertUYVYint_to_LABpl/VLIB_convertUYVYint_to_LA
    1632 000004b4     cd3d             LDW     .D2T1   *+SP(40),A3       ; |104| 
    1633 000004b6     0c6e             NOP             1
    1634                            .dwpsn  file "./../packages/ti/vlib/src/VLIB_convertUYVYint_to_LABpl/VLIB_convertUYVYint_to_LA
    1635 000004b8 02100f22             ABSSP   .S2     B4,B4             ; |105| 
    1636 000004c0 021000a2             SPDP    .S2     B4,B5:B4          ; |105| 
    1637 000004c4 00000000             NOP             1
    1638 000004c8 00188a62             CMPGTDP .S2     B5:B4,B7:B6,B0    ; |105| 
    1639 000004cc 00000000             NOP             1
    1640                    
    1641 000004d0 35282059     [!B0]   ADD     .L1     1,A10,A10         ; |104| 
    1642 000004d4 30002411  || [!B0]   B       .S1     $C$L6             ; |105| 
    1643 000004d8 36308941  || [!B0]   ADD     .D1     4,A12,A12         ; |104| 
    1644 000004dc 3528205a  || [!B0]   ADD     .L2     1,B10,B10         ; |104| 
    1645                    
    1646                            .dwpsn  file "./../packages/ti/vlib/src/VLIB_convertUYVYint_to_LABpl/VLIB_convertUYVYint_to_LA
    1647 000004e0 000d4bf8             CMPLTU  .L1     A10,A3,A0         ; |104| 
    1648 000004e4 2000a358     [ B0]   ZERO    .L1     A0                ; |104| nullify predicate
    1649 000004e8 cfd64120     [ A0]   BNOP    .S1     $C$L3,2           ; |104| 
    1650                            .dwpsn  file "./../packages/ti/vlib/src/VLIB_convertUYVYint_to_LABpl/VLIB_convertUYVYint_to_LA
TMS320C6x Assembler PC v7.4.2 Thu Mar 19 12:40:21 2015

Tools Copyright (c) 1996-2012 Texas Instruments Incorporated
package/lib/Regression/regress_d_c/./../packages/ti/vlib/src/VLIB_convertUYVYint_to_LABpl/VLIB_convertUYVYint_to_LABpl_d.se66 PAGE   31

    1651                               ; BRANCHCC OCCURS {$C$L6}         ; |105| 
    1652 000004ec           $C$DW$L$VLIB_convertUYVYint_to_LABpl_d$17$E:
    1653                    ;** --------------------------------------------------------------------------*
    1654 000004ec           $C$L4:    
    1655 000004ec           $C$DW$L$VLIB_convertUYVYint_to_LABpl_d$18$B:
    1656                    ;          EXCLUSIVE CPU CYCLES: 11
    1657                    ;**     -----------------------g11:
    1658                    ;** 108 -----------------------    status_nat_vs_int = 0;
    1659                    ;** 109 -----------------------    if ( !LevelOfFeedback ) goto g13;
    1660                            .dwpsn  file "./../packages/ti/vlib/src/VLIB_convertUYVYint_to_LABpl/VLIB_convertUYVYint_to_LA
    1661 000004ec 003f42e4             LDW     .D2T1   *+SP(104),A0      ; |108| 
    1662 000004f0 0600a35a             ZERO    .L2     B12               ; |108| 
    1663 000004f4 00004000             NOP             3
    1664                    
    1665 000004f8 d0001e91     [!A0]   B       .S1     $C$L5             ; |109| 
    1666 000004fc d1bd42e5  || [!A0]   LDW     .D2T1   *+SP(40),A3       ; |104| 
    1667 00000500 c200002b! || [ A0]   MVKL    .S2     $C$SL2+0,B4
    1668 00000504 d5282059  || [!A0]   ADD     .L1     1,A10,A10         ; |104| 
    1669 00000508 d6308940  || [!A0]   ADD     .D1     4,A12,A12         ; |104| 
    1670                    
    1671 0000050c c200006b!    [ A0]   MVKH    .S2     $C$SL2+0,B4
    1672 00000510 c21000a0  || [ A0]   SPDP    .S1     A4,A5:A4          ; |110| 
    1673                    
    1674                            .dwpsn  file "./../packages/ti/vlib/src/VLIB_convertUYVYint_to_LABpl/VLIB_convertUYVYint_to_LA
    1675 00000514 c23c22f6     [ A0]   STW     .D2T2   B4,*+SP(4)        ; |110| 
    1676 00000518 c22000a2     [ A0]   SPDP    .S2     B8,B5:B4          ; |110| 
    1677                    $C$DW$171       .dwtag  DW_TAG_TI_branch
    1678                            .dwattr $C$DW$171, DW_AT_low_pc(0x00)
    1679                            .dwattr $C$DW$171, DW_AT_name("printf")
    1680                            .dwattr $C$DW$171, DW_AT_TI_call
    1681 0000051c c0000010!    [ A0]   CALL    .S1     printf            ; |110| 
    1682                            .dwpsn  file "./../packages/ti/vlib/src/VLIB_convertUYVYint_to_LABpl/VLIB_convertUYVYint_to_LA
    1683 00000520 d00d4bf8     [!A0]   CMPLTU  .L1     A10,A3,A0         ; |104| 
    1684                            .dwpsn  file "./../packages/ti/vlib/src/VLIB_convertUYVYint_to_LABpl/VLIB_convertUYVYint_to_LA
    1685                               ; BRANCHCC OCCURS {$C$L5}         ; |109| 
    1686 00000524           $C$DW$L$VLIB_convertUYVYint_to_LABpl_d$18$E:
    1687                    ;** --------------------------------------------------------------------------*
    1688 00000524           $C$DW$L$VLIB_convertUYVYint_to_LABpl_d$19$B:
    1689                    ;          EXCLUSIVE CPU CYCLES: 4
    1690                    ;** 110 -----------------------    printf((const char *)"L[%d,%d] O=%f C=%f\n", i, j, (double)U$128, (
    1691                    ;** 111 -----------------------    printf((const char *)"a[%d,%d] O=%f C=%f\n", i, j, (double)*(U$126+
    1692                    ;** 112 -----------------------    printf((const char *)"b[%d,%d] O=%f C=%f\n", i, j, (double)*(U$126+
    1693                            .dwpsn  file "./../packages/ti/vlib/src/VLIB_convertUYVYint_to_LABpl/VLIB_convertUYVYint_to_LA
    1694 00000524 023c43c6             STDW    .D2T2   B5:B4,*+SP(16)    ; |110| 
    1695 00000528 023c63c4             STDW    .D2T1   A5:A4,*+SP(24)    ; |110| 
    1696 0000052c 05bc62f6             STW     .D2T2   B11,*+SP(12)      ; |110| 
    1697                    
    1698 00000530 053c42f7             STW     .D2T2   B10,*+SP(8)       ; |110| 
    1699 00000534 01860162  ||         ADDKPC  .S2     $C$RL22,B3,0      ; |110| 
    1700                    
    1701 00000538           $C$RL22:   ; CALL OCCURS {printf} {0}        ; |110| 
    1702 00000538           $C$DW$L$VLIB_convertUYVYint_to_LABpl_d$19$E:
    1703                    ;** --------------------------------------------------------------------------*
    1704 00000538           $C$DW$L$VLIB_convertUYVYint_to_LABpl_d$20$B:
    1705                    ;          EXCLUSIVE CPU CYCLES: 46
TMS320C6x Assembler PC v7.4.2 Thu Mar 19 12:40:21 2015

Tools Copyright (c) 1996-2012 Texas Instruments Incorporated
package/lib/Regression/regress_d_c/./../packages/ti/vlib/src/VLIB_convertUYVYint_to_LABpl/VLIB_convertUYVYint_to_LABpl_d.se66 PAGE   32

    1706 00000538     ae3d             LDW     .D2T1   *+SP(68),A3       ; |110| 
    1707                            .dwpsn  file "./../packages/ti/vlib/src/VLIB_convertUYVYint_to_LABpl/VLIB_convertUYVYint_to_LA
    1708 0000053a     9ecd             LDW     .D2T2   *+SP(80),B4       ; |111| 
    1709 00000540 053c42f6             STW     .D2T2   B10,*+SP(8)       ; |111| 
    1710 00000544 05bc62f6             STW     .D2T2   B11,*+SP(12)      ; |111| 
    1711 00000548 00000000             NOP             1
    1712 0000054c 01b06078             ADD     .L1     A3,A12,A3         ; |111| 
    1713                    
    1714 00000550 0230907b             ADD     .L2X    B4,A12,B4         ; |111| 
    1715 00000554 020c0264  ||         LDW     .D1T1   *A3,A4            ; |111| 
    1716                    
    1717 00000558 021002e6             LDW     .D2T2   *B4,B4            ; |111| 
    1718 0000055c 01800028!            MVKL    .S1     $C$SL3+0,A3
    1719 00000560 01800068!            MVKH    .S1     $C$SL3+0,A3
    1720 00000564 01bc22f4             STW     .D2T1   A3,*+SP(4)        ; |111| 
    1721 00000568 021000a0             SPDP    .S1     A4,A5:A4          ; |111| 
    1722 0000056c 021000a2             SPDP    .S2     B4,B5:B4          ; |111| 
    1723 00000570 023c63c4             STDW    .D2T1   A5:A4,*+SP(24)    ; |111| 
    1724                    $C$DW$172       .dwtag  DW_TAG_TI_branch
    1725                            .dwattr $C$DW$172, DW_AT_low_pc(0x00)
    1726                            .dwattr $C$DW$172, DW_AT_name("printf")
    1727                            .dwattr $C$DW$172, DW_AT_TI_call
    1728                    
    1729 00000574 10000013!            CALLP   .S2     printf,B3
    1730 00000578 023c43c6  ||         STDW    .D2T2   B5:B4,*+SP(16)    ; |111| 
    1731                    
    1732 0000057c           $C$RL23:   ; CALL OCCURS {printf} {0}        ; |111| 
    1733 0000057c 01be02e4             LDW     .D2T1   *+SP(64),A3       ; |111| 
    1734                            .dwpsn  file "./../packages/ti/vlib/src/VLIB_convertUYVYint_to_LABpl/VLIB_convertUYVYint_to_LA
    1735 00000580 023e62e6             LDW     .D2T2   *+SP(76),B4       ; |112| 
    1736 00000584 0f80002a!            MVKL    .S2     $C$SL4+0,B31
    1737 00000588 053c42f6             STW     .D2T2   B10,*+SP(8)       ; |112| 
    1738 0000058c 0f80006a!            MVKH    .S2     $C$SL4+0,B31
    1739 00000590 01b06078             ADD     .L1     A3,A12,A3         ; |112| 
    1740                    
    1741 00000594 0230907b             ADD     .L2X    B4,A12,B4         ; |112| 
    1742 00000598 018c0264  ||         LDW     .D1T1   *A3,A3            ; |112| 
    1743                    
    1744 0000059c 029002e6             LDW     .D2T2   *B4,B5            ; |112| 
    1745 000005a0 05bc62f6             STW     .D2T2   B11,*+SP(12)      ; |112| 
    1746 000005a4 0fbc22f6             STW     .D2T2   B31,*+SP(4)       ; |112| 
    1747 000005a8 00000000             NOP             1
    1748 000005ac 020c00a0             SPDP    .S1     A3,A5:A4          ; |112| 
    1749 000005b0 021400a2             SPDP    .S2     B5,B5:B4          ; |112| 
    1750 000005b4 023c63c4             STDW    .D2T1   A5:A4,*+SP(24)    ; |112| 
    1751                    $C$DW$173       .dwtag  DW_TAG_TI_branch
    1752                            .dwattr $C$DW$173, DW_AT_low_pc(0x00)
    1753                            .dwattr $C$DW$173, DW_AT_name("printf")
    1754                            .dwattr $C$DW$173, DW_AT_TI_call
    1755                    
    1756 000005b8 10000013!            CALLP   .S2     printf,B3
    1757 000005bc 023c43c6  ||         STDW    .D2T2   B5:B4,*+SP(16)    ; |112| 
    1758                    
    1759 000005c0           $C$RL24:   ; CALL OCCURS {printf} {0}        ; |112| 
    1760                            .dwpsn  file "./../packages/ti/vlib/src/VLIB_convertUYVYint_to_LABpl/VLIB_convertUYVYint_to_LA
TMS320C6x Assembler PC v7.4.2 Thu Mar 19 12:40:21 2015

Tools Copyright (c) 1996-2012 Texas Instruments Incorporated
package/lib/Regression/regress_d_c/./../packages/ti/vlib/src/VLIB_convertUYVYint_to_LABpl/VLIB_convertUYVYint_to_LABpl_d.se66 PAGE   33

    1761 000005c0 01bd42e4             LDW     .D2T1   *+SP(40),A3       ; |104| 
    1762 000005c4 05282058             ADD     .L1     1,A10,A10         ; |104| 
    1763 000005c8 06308058             ADD     .L1     4,A12,A12         ; |104| 
    1764 000005cc 00002000             NOP             2
    1765 000005d0 000d4bf8             CMPLTU  .L1     A10,A3,A0         ; |104| 
    1766 000005d4           $C$DW$L$VLIB_convertUYVYint_to_LABpl_d$20$E:
    1767                    ;** --------------------------------------------------------------------------*
    1768 000005d4           $C$L5:    
    1769 000005d4           $C$DW$L$VLIB_convertUYVYint_to_LABpl_d$21$B:
    1770                    ;          EXCLUSIVE CPU CYCLES: 3
    1771                    
    1772 000005d4 cf9e4121     [ A0]   BNOP    .S1     $C$L3,2           ; |104| 
    1773 000005d8 0528205b  ||         ADD     .L2     1,B10,B10         ; |104| 
    1774                    
    1775 000005e0           $C$DW$L$VLIB_convertUYVYint_to_LABpl_d$21$E:
    1776                    ;** --------------------------------------------------------------------------*
    1777 000005e0           $C$L6:    
    1778                            .dwpsn  file "./../packages/ti/vlib/src/VLIB_convertUYVYint_to_LABpl/VLIB_convertUYVYint_to_LA
    1779 000005e0           $C$DW$L$VLIB_convertUYVYint_to_LABpl_d$22$B:
    1780                    ;          EXCLUSIVE CPU CYCLES: 3
    1781                    ;**     -----------------------g13:
    1782                    ;** 104 -----------------------    U$126 += 4;
    1783                    ;** 104 -----------------------    ++i;
    1784                    ;** 104 -----------------------    if ( (++T$2) < U$119 ) goto g8;
    1785                    
    1786 000005e0 c43432e7     [ A0]   LDW     .D2T2   *++B13,B8         ; |105| 
    1787 000005e4 c2343265  || [ A0]   LDW     .D1T1   *++A13,A4         ; |105| 
    1788 000005e8 c39b712a  || [ A0]   MVKL    .S2     0x3f1a36e2,B7
    1789                    
    1790 000005ec c32196ab     [ A0]   MVKL    .S2     0xeb1c432d,B6
    1791 000005f0 c1be22e4  || [ A0]   LDW     .D2T1   *+SP(68),A3
    1792                    
    1793 000005f4 c39f8d6a     [ A0]   MVKH    .S2     0x3f1a36e2,B7
    1794                            .dwpsn  file "./../packages/ti/vlib/src/VLIB_convertUYVYint_to_LABpl/VLIB_convertUYVYint_to_LA
    1795                               ; BRANCHCC OCCURS {$C$L3}         ; |104| 
    1796 000005f8           $C$DW$L$VLIB_convertUYVYint_to_LABpl_d$22$E:
    1797                    ;** --------------------------------------------------------------------------*
    1798 000005f8           $C$L7:    
    1799 000005f8           $C$DW$L$VLIB_convertUYVYint_to_LABpl_d$23$B:
    1800                    ;          EXCLUSIVE CPU CYCLES: 12
    1801                    ;**     -----------------------g14:
    1802                    ;** 103 -----------------------    ++j;
    1803                    ;** 103 -----------------------    if ( (++T$1) < U$175 ) goto g6;
    1804                            .dwpsn  file "./../packages/ti/vlib/src/VLIB_convertUYVYint_to_LABpl/VLIB_convertUYVYint_to_LA
    1805 000005f8 01bd62e4             LDW     .D2T1   *+SP(44),A3       ; |103| 
    1806 000005fc 05ac205a             ADD     .L2     1,B11,B11         ; |103| 
    1807 00000600 07bc2058             ADD     .L1     1,A15,A15         ; |103| 
    1808 00000604 00002000             NOP             2
    1809 00000608 000debf8             CMPLTU  .L1     A15,A3,A0         ; |103| 
    1810                    
    1811 0000060c cef46121     [ A0]   BNOP    .S1     $C$L2,3           ; |103| 
    1812 00000610     2046  ||         MV      .L1     A0,A1             ; guard predicate rewrite
    1813 00000612     cd0d  ||         LDW     .D2T1   *+SP(40),A0
    1814                    
    1815 00000614 8fbea2e4     [ A1]   LDW     .D2T1   *+SP(84),A31
TMS320C6x Assembler PC v7.4.2 Thu Mar 19 12:40:21 2015

Tools Copyright (c) 1996-2012 Texas Instruments Incorporated
package/lib/Regression/regress_d_c/./../packages/ti/vlib/src/VLIB_convertUYVYint_to_LABpl/VLIB_convertUYVYint_to_LABpl_d.se66 PAGE   34

    1816                    
    1817 00000620 01800fd8             MV      .L1     A0,A3
    1818 00000618 cf3e42e5  || [ A0]   LDW     .D2T1   *+SP(72),A30
    1819                    
    1820                               ; BRANCHCC OCCURS {$C$L2}         ; |103| 
    1821 00000624           $C$DW$L$VLIB_convertUYVYint_to_LABpl_d$23$E:
    1822                    ;** --------------------------------------------------------------------------*
    1823 00000624           $C$L8:    
    1824 00000624           $C$DW$L$VLIB_convertUYVYint_to_LABpl_d$24$B:
    1825                    ;          EXCLUSIVE CPU CYCLES: 38
    1826                    ;**     -----------------------g15:
    1827                    ;**     -----------------------    U$119 = (v$1[tpi]).width;
    1828                    ;**     -----------------------    C$6 = _lo(_mpyli(40, tpi))+v$1;
    1829                    ;**     -----------------------    U$175 = (*C$6).height;
    1830                    ;** 119 -----------------------    U$117 = C$6;
    1831                    ;** 119 -----------------------    U$184 = (*U$117).staticOutB;
    1832                    ;** 119 -----------------------    U$181 = (*U$117).staticOutA;
    1833                    ;** 119 -----------------------    U$179 = (*U$117).staticOutL;
    1834                    ;** 55  -----------------------    status_nat_vs_ref = 1;
    1835                    ;** 119 -----------------------    if ( !((U$179 != NULL)&(U$181 != NULL)&(U$184 != NULL)&(U$175 != 0u
    1836 00000624     af4d             LDW     .D2T1   *+SP(100),A4
    1837 00000626     09b2             MVK     .S1     40,A3
    1838                            .dwpsn  file "./../packages/ti/vlib/src/VLIB_convertUYVYint_to_LABpl/VLIB_convertUYVYint_to_LA
    1839 00000628 0f04a35a             MVK     .L2     0x1,B30           ; |55| 
    1840                            .dwpsn  file "./../packages/ti/vlib/src/VLIB_convertUYVYint_to_LABpl/VLIB_convertUYVYint_to_LA
    1841 0000062c 0fbf22e4             LDW     .D2T1   *+SP(100),A31     ; |119| 
    1842 00000630 0ebf22e4             LDW     .D2T1   *+SP(100),A29     ; |119| 
    1843 00000634 02106570             MPYLI   .M1     A3,A4,A5:A4
    1844 00000638 0280a35a             ZERO    .L2     B5                ; |119| 
    1845 00000640 0f3f02f6             STW     .D2T2   B30,*+SP(96)
    1846 00000644 0f7caca0             SHL     .S1     A31,5,A30
    1847 00000648 0191c078             ADD     .L1     A14,A4,A3
    1848 0000064c 02fbbe40             ADDAD   .D1     A30,A29,A5
    1849 00000650     91c7             MV      .L2X    A3,B4             ; |119| 
    1850 00000652     704d             LDW     .D2T2   *+B4(12),B4       ; |119| 
    1851 00000654 0295c078             ADD     .L1     A14,A5,A5
    1852 00000658 078d2264             LDW     .D1T1   *+A3(36),A15
    1853 00000660 0f8c1fda             MV      .L2X    A3,B31            ; |119| 
    1854 00000664 027c42e4             LDW     .D2T1   *+B31(8),A4       ; |119| 
    1855                    
    1856 00000668     1246             MV      .L1X    B4,A0             ; |119| 
    1857 0000066a     dd45  ||         STW     .D2T2   B4,*+SP(40)       ; |119| 
    1858                    
    1859 0000066c 027c82e6             LDW     .D2T2   *+B31(16),B4      ; |119| 
    1860 00000670     8db5             STW     .D2T1   A3,*+SP(48)       ; |119| 
    1861 00000672     05a6             ZERO    .L1     A3                ; |119| 
    1862 00000674 0e3c0a58             CMPEQ   .L1     A15,0,A28         ; |119| 
    1863 00000678     1247             MV      .L2X    A4,B0             ; |119| 
    1864                    
    1865 0000067a     fd45             STW     .D2T2   B4,*+SP(44)       ; |119| 
    1866 00000680     0627  ||         ZERO    .L2     B4                ; |119| 
    1867                    
    1868 00000682     2a67     [ A0]   MVK     .L2     0x1,B4            ; |119| 
    1869 00000684     ed0d  ||         LDW     .D2T1   *+SP(44),A0       ; |119| 
    1870                    
TMS320C6x Assembler PC v7.4.2 Thu Mar 19 12:40:21 2015

Tools Copyright (c) 1996-2012 Texas Instruments Incorporated
package/lib/Regression/regress_d_c/./../packages/ti/vlib/src/VLIB_convertUYVYint_to_LABpl/VLIB_convertUYVYint_to_LABpl_d.se66 PAGE   35

    1871 00000686     adc5             STW     .D2T1   A4,*+SP(52)       ; |119| 
    1872 00000688 02702dd8             XOR     .L1     1,A28,A4          ; |119| 
    1873 0000068c 2284a35a     [ B0]   MVK     .L2     0x1,B5            ; |119| 
    1874 00000690 02148f7a             AND     .L2     B4,B5,B4          ; |119| 
    1875 00000694 c184a358     [ A0]   MVK     .L1     0x1,A3            ; |119| 
    1876 00000698 01907f78             AND     .L1X    A3,B4,A3          ; |119| 
    1877                    
    1878 000006a0     8588             AND     .L1     A4,A3,A0          ; |119| 
    1879 000006a2     e0bc  ||         LDW     .D1T1   *+A5(28),A3
    1880                    
    1881 000006a4 d12d6121     [!A0]   BNOP    .S1     $C$L15,3          ; |119| 
    1882 000006a8 c580a35b  || [ A0]   ZERO    .L2     B11
    1883 000006ac c700a359  || [ A0]   ZERO    .L1     A14
    1884 000006b0     2056  ||         MV      .D1     A0,A1             ; guard predicate rewrite
    1885                    
    1886 000006b2     01c6             MV      .L1     A3,A0
    1887 000006b4 822c7801  || [ A1]   MPY32   .M1X    B11,A3,A4
    1888 000006b8 01bf62f4  ||         STW     .D2T1   A3,*+SP(108)
    1889                    
    1890 000006c0 c1bda2e4     [ A0]   LDW     .D2T1   *+SP(52),A3
    1891                               ; BRANCHCC OCCURS {$C$L15}        ; |119| 
    1892 000006c4           $C$DW$L$VLIB_convertUYVYint_to_LABpl_d$24$E:
    1893                    ;** --------------------------------------------------------------------------*
    1894 000006c4           $C$DW$L$VLIB_convertUYVYint_to_LABpl_d$25$B:
    1895                    ;          EXCLUSIVE CPU CYCLES: 4
    1896                    ;**     -----------------------    T$3 = 0u;
    1897                    ;** 123 -----------------------    j = 0;
    1898                    ;**     -----------------------    #pragma MUST_ITERATE(1, 4294967295, 1)
    1899                    ;**     -----------------------    #pragma LOOP_FLAGS(1024u)
    1900 000006c4 cfbe42e4     [ A0]   LDW     .D2T1   *+SP(72),A31
    1901 000006c8 00004000             NOP             3
    1902 000006cc           $C$DW$L$VLIB_convertUYVYint_to_LABpl_d$25$E:
    1903                    ;** --------------------------------------------------------------------------*
    1904                    ;**   BEGIN LOOP $C$L9
    1905                    ;** --------------------------------------------------------------------------*
    1906 000006cc           $C$L9:    
    1907                            .dwpsn  file "./../packages/ti/vlib/src/VLIB_convertUYVYint_to_LABpl/VLIB_convertUYVYint_to_LA
    1908 000006cc           $C$DW$L$VLIB_convertUYVYint_to_LABpl_d$26$B:
    1909                    ;          EXCLUSIVE CPU CYCLES: 6
    1910                    ;**     -----------------------g17:
    1911                    ;** 124 -----------------------    if ( !U$119 ) goto g25;
    1912                    
    1913 000006cc d086a121     [!A0]   BNOP    .S1     $C$L14,5          ; |124| 
    1914 000006d0 028c9c41  ||         ADDAW   .D1     A3,A4,A5
    1915                    
    1916                            .dwpsn  file "./../packages/ti/vlib/src/VLIB_convertUYVYint_to_LABpl/VLIB_convertUYVYint_to_LA
    1917                               ; BRANCHCC OCCURS {$C$L14}        ; |124| 
    1918 000006e0           $C$DW$L$VLIB_convertUYVYint_to_LABpl_d$26$E:
    1919                    ;** --------------------------------------------------------------------------*
    1920 000006e0           $C$DW$L$VLIB_convertUYVYint_to_LABpl_d$27$B:
    1921                    ;          EXCLUSIVE CPU CYCLES: 2
    1922                    ;**     -----------------------    C$5 = U$119*j;
    1923                    ;**     -----------------------    U$126 = C$5*4;
    1924                    ;**     -----------------------    U$129 = &L_cn[C$5-1];
    1925                    ;**     -----------------------    U$191 = &U$179[C$5-1];
TMS320C6x Assembler PC v7.4.2 Thu Mar 19 12:40:21 2015

Tools Copyright (c) 1996-2012 Texas Instruments Incorporated
package/lib/Regression/regress_d_c/./../packages/ti/vlib/src/VLIB_convertUYVYint_to_LABpl/VLIB_convertUYVYint_to_LABpl_d.se66 PAGE   36

    1926                    ;**     -----------------------    T$4 = 0u;
    1927                    ;** 124 -----------------------    i = 0;
    1928                    ;**     -----------------------    #pragma MUST_ITERATE(1, 4294967295, 1)
    1929                    ;**     -----------------------    #pragma LOOP_FLAGS(1024u)
    1930                    
    1931 000006e0 01fc9c41             ADDAW   .D1     A31,A4,A3
    1932 000006e4 0500a359  ||         ZERO    .L1     A10               ; |124| 
    1933 000006e8 0500a35b  ||         ZERO    .L2     B10               ; |124| 
    1934 000006ec 06104ca0  ||         SHL     .S1     A4,2,A12
    1935                    
    1936 000006f0 0697905b             SUB     .L2X    A5,4,B13
    1937 000006f4 068f8059  ||         SUB     .L1     A3,4,A13
    1938                    
    1939 00000700           $C$DW$L$VLIB_convertUYVYint_to_LABpl_d$27$E:
    1940                    ;** --------------------------------------------------------------------------*
    1941 00000700           $C$DW$L$VLIB_convertUYVYint_to_LABpl_d$28$B:
    1942                    ;          EXCLUSIVE CPU CYCLES: 3
    1943                    
    1944 00000700 02343265             LDW     .D1T1   *++A13,A4         ; |125| 
    1945 00000704 043432e7  ||         LDW     .D2T2   *++B13,B8         ; |125| 
    1946 00000708 039b712a  ||         MVKL    .S2     0x3f1a36e2,B7
    1947                    
    1948 0000070c 01be22e5             LDW     .D2T1   *+SP(68),A3
    1949 00000710 032196aa  ||         MVKL    .S2     0xeb1c432d,B6
    1950                    
    1951 00000714 039f8d6a             MVKH    .S2     0x3f1a36e2,B7
    1952 00000718           $C$DW$L$VLIB_convertUYVYint_to_LABpl_d$28$E:
    1953                    ;*----------------------------------------------------------------------------*
    1954                    ;*   SOFTWARE PIPELINE INFORMATION
    1955                    ;*      Disqualified loop: Loop contains control code
    1956                    ;*----------------------------------------------------------------------------*
    1957 00000718           $C$L10:    
    1958                            .dwpsn  file "./../packages/ti/vlib/src/VLIB_convertUYVYint_to_LABpl/VLIB_convertUYVYint_to_LA
    1959 00000718           $C$DW$L$VLIB_convertUYVYint_to_LABpl_d$29$B:
    1960                    ;          EXCLUSIVE CPU CYCLES: 16
    1961                    ;**     -----------------------g19:
    1962                    ;** 125 -----------------------    U$130 = *(++U$129);
    1963                    ;** 125 -----------------------    U$192 = *(++U$191);
    1964                    ;** 125 -----------------------    if ( (double)ABS(U$192-U$130) > 0.0001 ) goto g22;
    1965 00000718 03758e6a             MVKH    .S2     0xeb1c432d,B6
    1966 0000071c 00000000             NOP             1
    1967                            .dwpsn  file "./../packages/ti/vlib/src/VLIB_convertUYVYint_to_LABpl/VLIB_convertUYVYint_to_LA
    1968 00000720 021117ba             FSUBSP  .L2X    B8,A4,B4          ; |125| 
    1969 00000724 01b06078             ADD     .L1     A3,A12,A3         ; |125| 
    1970 00000728 00000000             NOP             1
    1971 0000072c 02100f22             ABSSP   .S2     B4,B4             ; |125| 
    1972 00000730 021000a2             SPDP    .S2     B4,B5:B4          ; |125| 
    1973 00000734     0c6e             NOP             1
    1974                    
    1975 00000738 00188a62             CMPGTDP .S2     B5:B4,B7:B6,B0    ; |125| 
    1976 00000736     dd4d  ||         LDW     .D2T2   *+SP(40),B4
    1977                    
    1978 00000740 00000000             NOP             1
    1979                    
    1980 00000744 20464121     [ B0]   BNOP    .S1     $C$L11,2          ; |125| 
TMS320C6x Assembler PC v7.4.2 Thu Mar 19 12:40:21 2015

Tools Copyright (c) 1996-2012 Texas Instruments Incorporated
package/lib/Regression/regress_d_c/./../packages/ti/vlib/src/VLIB_convertUYVYint_to_LABpl/VLIB_convertUYVYint_to_LABpl_d.se66 PAGE   37

    1981 00000748 318c0264  || [!B0]   LDW     .D1T1   *A3,A3            ; |125| 
    1982                    
    1983 0000074c 0230907a             ADD     .L2X    B4,A12,B4         ; |125| 
    1984 00000750 321002e6     [!B0]   LDW     .D2T2   *B4,B4            ; |125| 
    1985 00000754     0c6e             NOP             1
    1986                               ; BRANCHCC OCCURS {$C$L11}        ; |125| 
    1987 00000756           $C$DW$L$VLIB_convertUYVYint_to_LABpl_d$29$E:
    1988                    ;** --------------------------------------------------------------------------*
    1989 00000756           $C$DW$L$VLIB_convertUYVYint_to_LABpl_d$30$B:
    1990                    ;          EXCLUSIVE CPU CYCLES: 17
    1991                    ;** 125 -----------------------    if ( (double)ABS(*(U$126+U$181)-*(U$126+a_cn)) > 0.0001 ) goto g22;
    1992 00000756     4c6e             NOP             3
    1993 00000758 020c97ba             FSUBSP  .L2X    B4,A3,B4          ; |125| 
    1994 00000760     8e3d             LDW     .D2T1   *+SP(64),A3
    1995 00000762     0c6e             NOP             1
    1996 00000764 02100f22             ABSSP   .S2     B4,B4             ; |125| 
    1997 00000768 021000a2             SPDP    .S2     B4,B5:B4          ; |125| 
    1998 0000076c     0c6e             NOP             1
    1999                    
    2000 00000770 00188a62             CMPGTDP .S2     B5:B4,B7:B6,B0    ; |125| 
    2001 0000076e     fd4d  ||         LDW     .D2T2   *+SP(44),B4
    2002                    
    2003 00000774 01b06078             ADD     .L1     A3,A12,A3         ; |125| 
    2004                    
    2005 00000778 20364121     [ B0]   BNOP    .S1     $C$L11,2          ; |125| 
    2006 00000780 318c0264  || [!B0]   LDW     .D1T1   *A3,A3            ; |125| 
    2007                    
    2008 00000784 0230907a             ADD     .L2X    B4,A12,B4         ; |125| 
    2009 00000788 321002e6     [!B0]   LDW     .D2T2   *B4,B4            ; |125| 
    2010 0000078c     0c6e             NOP             1
    2011                               ; BRANCHCC OCCURS {$C$L11}        ; |125| 
    2012 0000078e           $C$DW$L$VLIB_convertUYVYint_to_LABpl_d$30$E:
    2013                    ;** --------------------------------------------------------------------------*
    2014 0000078e           $C$DW$L$VLIB_convertUYVYint_to_LABpl_d$31$B:
    2015                    ;          EXCLUSIVE CPU CYCLES: 17
    2016                    ;** 125 -----------------------    if ( (double)ABS(*(U$126+U$184)-*(U$126+b_cn)) <= 0.0001 ) goto g24
    2017 0000078e     4c6e             NOP             3
    2018 00000790 020c97ba             FSUBSP  .L2X    B4,A3,B4          ; |125| 
    2019                            .dwpsn  file "./../packages/ti/vlib/src/VLIB_convertUYVYint_to_LABpl/VLIB_convertUYVYint_to_LA
    2020 00000794     ef3d             LDW     .D2T1   *+SP(108),A3      ; |124| 
    2021 00000796     0c6e             NOP             1
    2022                            .dwpsn  file "./../packages/ti/vlib/src/VLIB_convertUYVYint_to_LABpl/VLIB_convertUYVYint_to_LA
    2023 00000798 02100f22             ABSSP   .S2     B4,B4             ; |125| 
    2024 000007a0 021000a2             SPDP    .S2     B4,B5:B4          ; |125| 
    2025 000007a4 00000000             NOP             1
    2026 000007a8 00188a62             CMPGTDP .S2     B5:B4,B7:B6,B0    ; |125| 
    2027 000007ac 00000000             NOP             1
    2028                    
    2029 000007b0 35282059     [!B0]   ADD     .L1     1,A10,A10         ; |124| 
    2030 000007b4 30002411  || [!B0]   B       .S1     $C$L13            ; |125| 
    2031 000007b8 36308941  || [!B0]   ADD     .D1     4,A12,A12         ; |124| 
    2032 000007bc 3528205a  || [!B0]   ADD     .L2     1,B10,B10         ; |124| 
    2033                    
    2034                            .dwpsn  file "./../packages/ti/vlib/src/VLIB_convertUYVYint_to_LABpl/VLIB_convertUYVYint_to_LA
    2035 000007c0 000d4bf8             CMPLTU  .L1     A10,A3,A0         ; |124| 
TMS320C6x Assembler PC v7.4.2 Thu Mar 19 12:40:21 2015

Tools Copyright (c) 1996-2012 Texas Instruments Incorporated
package/lib/Regression/regress_d_c/./../packages/ti/vlib/src/VLIB_convertUYVYint_to_LABpl/VLIB_convertUYVYint_to_LABpl_d.se66 PAGE   38

    2036 000007c4 2000a358     [ B0]   ZERO    .L1     A0                ; |124| nullify predicate
    2037 000007c8 cfac4120     [ A0]   BNOP    .S1     $C$L10,2          ; |124| 
    2038                            .dwpsn  file "./../packages/ti/vlib/src/VLIB_convertUYVYint_to_LABpl/VLIB_convertUYVYint_to_LA
    2039                               ; BRANCHCC OCCURS {$C$L13}        ; |125| 
    2040 000007cc           $C$DW$L$VLIB_convertUYVYint_to_LABpl_d$31$E:
    2041                    ;** --------------------------------------------------------------------------*
    2042 000007cc           $C$L11:    
    2043 000007cc           $C$DW$L$VLIB_convertUYVYint_to_LABpl_d$32$B:
    2044                    ;          EXCLUSIVE CPU CYCLES: 11
    2045                    ;**     -----------------------g22:
    2046                    ;** 128 -----------------------    status_nat_vs_ref = 0;
    2047                    ;** 129 -----------------------    if ( !LevelOfFeedback ) goto g24;
    2048                            .dwpsn  file "./../packages/ti/vlib/src/VLIB_convertUYVYint_to_LABpl/VLIB_convertUYVYint_to_LA
    2049 000007cc     cf0d             LDW     .D2T1   *+SP(104),A0      ; |128| 
    2050 000007ce     0627             ZERO    .L2     B4                ; |128| 
    2051 000007d0     9f45             STW     .D2T2   B4,*+SP(96)       ; |128| 
    2052 000007d2     2c6e             NOP             2
    2053                    
    2054 000007d4 d0001e91     [!A0]   B       .S1     $C$L12            ; |129| 
    2055 000007d8 d1bf62e5  || [!A0]   LDW     .D2T1   *+SP(108),A3      ; |124| 
    2056 000007e0 c200002b! || [ A0]   MVKL    .S2     $C$SL5+0,B4
    2057 000007e4 d5282059  || [!A0]   ADD     .L1     1,A10,A10         ; |124| 
    2058 000007e8 d6308940  || [!A0]   ADD     .D1     4,A12,A12         ; |124| 
    2059                    
    2060 000007ec c200006b!    [ A0]   MVKH    .S2     $C$SL5+0,B4
    2061 000007f0 c21000a0  || [ A0]   SPDP    .S1     A4,A5:A4          ; |130| 
    2062                    
    2063                            .dwpsn  file "./../packages/ti/vlib/src/VLIB_convertUYVYint_to_LABpl/VLIB_convertUYVYint_to_LA
    2064 000007f4 c23c22f6     [ A0]   STW     .D2T2   B4,*+SP(4)        ; |130| 
    2065 000007f8 c22000a2     [ A0]   SPDP    .S2     B8,B5:B4          ; |130| 
    2066                    $C$DW$174       .dwtag  DW_TAG_TI_branch
    2067                            .dwattr $C$DW$174, DW_AT_low_pc(0x00)
    2068                            .dwattr $C$DW$174, DW_AT_name("printf")
    2069                            .dwattr $C$DW$174, DW_AT_TI_call
    2070 000007fc c0000010!    [ A0]   CALL    .S1     printf            ; |130| 
    2071                            .dwpsn  file "./../packages/ti/vlib/src/VLIB_convertUYVYint_to_LABpl/VLIB_convertUYVYint_to_LA
    2072 00000800 d00d4bf8     [!A0]   CMPLTU  .L1     A10,A3,A0         ; |124| 
    2073                            .dwpsn  file "./../packages/ti/vlib/src/VLIB_convertUYVYint_to_LABpl/VLIB_convertUYVYint_to_LA
    2074                               ; BRANCHCC OCCURS {$C$L12}        ; |129| 
    2075 00000804           $C$DW$L$VLIB_convertUYVYint_to_LABpl_d$32$E:
    2076                    ;** --------------------------------------------------------------------------*
    2077 00000804           $C$DW$L$VLIB_convertUYVYint_to_LABpl_d$33$B:
    2078                    ;          EXCLUSIVE CPU CYCLES: 4
    2079                    ;** 130 -----------------------    printf((const char *)"L[%d,%d] S=%f C=%f\n", i, j, (double)U$192, (
    2080                    ;** 131 -----------------------    printf((const char *)"a[%d,%d] S=%f C=%f\n", i, j, (double)*(U$126+
    2081                    ;** 132 -----------------------    printf((const char *)"b[%d,%d] S=%f C=%f\n", i, j, (double)*(U$126+
    2082                            .dwpsn  file "./../packages/ti/vlib/src/VLIB_convertUYVYint_to_LABpl/VLIB_convertUYVYint_to_LA
    2083 00000804 023c43c6             STDW    .D2T2   B5:B4,*+SP(16)    ; |130| 
    2084 00000808 023c63c4             STDW    .D2T1   A5:A4,*+SP(24)    ; |130| 
    2085 0000080c 05bc62f6             STW     .D2T2   B11,*+SP(12)      ; |130| 
    2086                    
    2087 00000810 053c42f7             STW     .D2T2   B10,*+SP(8)       ; |130| 
    2088 00000814 01860162  ||         ADDKPC  .S2     $C$RL25,B3,0      ; |130| 
    2089                    
    2090 00000818           $C$RL25:   ; CALL OCCURS {printf} {0}        ; |130| 
TMS320C6x Assembler PC v7.4.2 Thu Mar 19 12:40:21 2015

Tools Copyright (c) 1996-2012 Texas Instruments Incorporated
package/lib/Regression/regress_d_c/./../packages/ti/vlib/src/VLIB_convertUYVYint_to_LABpl/VLIB_convertUYVYint_to_LABpl_d.se66 PAGE   39

    2091 00000818           $C$DW$L$VLIB_convertUYVYint_to_LABpl_d$33$E:
    2092                    ;** --------------------------------------------------------------------------*
    2093 00000818           $C$DW$L$VLIB_convertUYVYint_to_LABpl_d$34$B:
    2094                    ;          EXCLUSIVE CPU CYCLES: 46
    2095 00000818     ae3d             LDW     .D2T1   *+SP(68),A3       ; |130| 
    2096                            .dwpsn  file "./../packages/ti/vlib/src/VLIB_convertUYVYint_to_LABpl/VLIB_convertUYVYint_to_LA
    2097 0000081a     dd4d             LDW     .D2T2   *+SP(40),B4       ; |131| 
    2098 00000820 053c42f6             STW     .D2T2   B10,*+SP(8)       ; |131| 
    2099 00000824 05bc62f6             STW     .D2T2   B11,*+SP(12)      ; |131| 
    2100 00000828 00000000             NOP             1
    2101 0000082c 01b06078             ADD     .L1     A3,A12,A3         ; |131| 
    2102                    
    2103 00000830 0230907b             ADD     .L2X    B4,A12,B4         ; |131| 
    2104 00000834 020c0264  ||         LDW     .D1T1   *A3,A4            ; |131| 
    2105                    
    2106 00000838 021002e6             LDW     .D2T2   *B4,B4            ; |131| 
    2107 0000083c 01800028!            MVKL    .S1     $C$SL6+0,A3
    2108 00000840 01800068!            MVKH    .S1     $C$SL6+0,A3
    2109 00000844 01bc22f4             STW     .D2T1   A3,*+SP(4)        ; |131| 
    2110 00000848 021000a0             SPDP    .S1     A4,A5:A4          ; |131| 
    2111 0000084c 021000a2             SPDP    .S2     B4,B5:B4          ; |131| 
    2112 00000850 023c63c4             STDW    .D2T1   A5:A4,*+SP(24)    ; |131| 
    2113                    $C$DW$175       .dwtag  DW_TAG_TI_branch
    2114                            .dwattr $C$DW$175, DW_AT_low_pc(0x00)
    2115                            .dwattr $C$DW$175, DW_AT_name("printf")
    2116                            .dwattr $C$DW$175, DW_AT_TI_call
    2117                    
    2118 00000854 10000013!            CALLP   .S2     printf,B3
    2119 00000858 023c43c6  ||         STDW    .D2T2   B5:B4,*+SP(16)    ; |131| 
    2120                    
    2121 0000085c           $C$RL26:   ; CALL OCCURS {printf} {0}        ; |131| 
    2122 0000085c 01be02e4             LDW     .D2T1   *+SP(64),A3       ; |131| 
    2123                            .dwpsn  file "./../packages/ti/vlib/src/VLIB_convertUYVYint_to_LABpl/VLIB_convertUYVYint_to_LA
    2124 00000860 023d62e6             LDW     .D2T2   *+SP(44),B4       ; |132| 
    2125 00000864 0f80002a!            MVKL    .S2     $C$SL7+0,B31
    2126 00000868 053c42f6             STW     .D2T2   B10,*+SP(8)       ; |132| 
    2127 0000086c 0f80006a!            MVKH    .S2     $C$SL7+0,B31
    2128 00000870 01b06078             ADD     .L1     A3,A12,A3         ; |132| 
    2129                    
    2130 00000874 0230907b             ADD     .L2X    B4,A12,B4         ; |132| 
    2131 00000878 018c0264  ||         LDW     .D1T1   *A3,A3            ; |132| 
    2132                    
    2133 0000087c 029002e6             LDW     .D2T2   *B4,B5            ; |132| 
    2134 00000880 05bc62f6             STW     .D2T2   B11,*+SP(12)      ; |132| 
    2135 00000884 0fbc22f6             STW     .D2T2   B31,*+SP(4)       ; |132| 
    2136 00000888 00000000             NOP             1
    2137 0000088c 020c00a0             SPDP    .S1     A3,A5:A4          ; |132| 
    2138 00000890 021400a2             SPDP    .S2     B5,B5:B4          ; |132| 
    2139 00000894 023c63c4             STDW    .D2T1   A5:A4,*+SP(24)    ; |132| 
    2140                    $C$DW$176       .dwtag  DW_TAG_TI_branch
    2141                            .dwattr $C$DW$176, DW_AT_low_pc(0x00)
    2142                            .dwattr $C$DW$176, DW_AT_name("printf")
    2143                            .dwattr $C$DW$176, DW_AT_TI_call
    2144                    
    2145 00000898 10000013!            CALLP   .S2     printf,B3
TMS320C6x Assembler PC v7.4.2 Thu Mar 19 12:40:21 2015

Tools Copyright (c) 1996-2012 Texas Instruments Incorporated
package/lib/Regression/regress_d_c/./../packages/ti/vlib/src/VLIB_convertUYVYint_to_LABpl/VLIB_convertUYVYint_to_LABpl_d.se66 PAGE   40

    2146 0000089c 023c43c6  ||         STDW    .D2T2   B5:B4,*+SP(16)    ; |132| 
    2147                    
    2148 000008a0           $C$RL27:   ; CALL OCCURS {printf} {0}        ; |132| 
    2149                            .dwpsn  file "./../packages/ti/vlib/src/VLIB_convertUYVYint_to_LABpl/VLIB_convertUYVYint_to_LA
    2150 000008a0 01bf62e4             LDW     .D2T1   *+SP(108),A3      ; |124| 
    2151 000008a4 05282058             ADD     .L1     1,A10,A10         ; |124| 
    2152 000008a8 06308058             ADD     .L1     4,A12,A12         ; |124| 
    2153 000008ac 00002000             NOP             2
    2154 000008b0 000d4bf8             CMPLTU  .L1     A10,A3,A0         ; |124| 
    2155 000008b4           $C$DW$L$VLIB_convertUYVYint_to_LABpl_d$34$E:
    2156                    ;** --------------------------------------------------------------------------*
    2157 000008b4           $C$L12:    
    2158 000008b4           $C$DW$L$VLIB_convertUYVYint_to_LABpl_d$35$B:
    2159                    ;          EXCLUSIVE CPU CYCLES: 3
    2160                    
    2161 000008b4 cf9e4121     [ A0]   BNOP    .S1     $C$L10,2          ; |124| 
    2162 000008b8 0528205b  ||         ADD     .L2     1,B10,B10         ; |124| 
    2163                    
    2164 000008c0           $C$DW$L$VLIB_convertUYVYint_to_LABpl_d$35$E:
    2165                    ;** --------------------------------------------------------------------------*
    2166 000008c0           $C$L13:    
    2167                            .dwpsn  file "./../packages/ti/vlib/src/VLIB_convertUYVYint_to_LABpl/VLIB_convertUYVYint_to_LA
    2168 000008c0           $C$DW$L$VLIB_convertUYVYint_to_LABpl_d$36$B:
    2169                    ;          EXCLUSIVE CPU CYCLES: 3
    2170                    ;**     -----------------------g24:
    2171                    ;** 124 -----------------------    U$126 += 4;
    2172                    ;** 124 -----------------------    ++i;
    2173                    ;** 124 -----------------------    if ( (++T$4) < U$119 ) goto g19;
    2174                    
    2175 000008c0 c43432e7     [ A0]   LDW     .D2T2   *++B13,B8         ; |125| 
    2176 000008c4 c2343265  || [ A0]   LDW     .D1T1   *++A13,A4         ; |125| 
    2177 000008c8 c39b712a  || [ A0]   MVKL    .S2     0x3f1a36e2,B7
    2178                    
    2179 000008cc c32196ab     [ A0]   MVKL    .S2     0xeb1c432d,B6
    2180 000008d0 c1be22e4  || [ A0]   LDW     .D2T1   *+SP(68),A3
    2181                    
    2182 000008d4 c39f8d6a     [ A0]   MVKH    .S2     0x3f1a36e2,B7
    2183                            .dwpsn  file "./../packages/ti/vlib/src/VLIB_convertUYVYint_to_LABpl/VLIB_convertUYVYint_to_LA
    2184                               ; BRANCHCC OCCURS {$C$L10}        ; |124| 
    2185 000008d8           $C$DW$L$VLIB_convertUYVYint_to_LABpl_d$36$E:
    2186                    ;** --------------------------------------------------------------------------*
    2187 000008d8           $C$L14:    
    2188 000008d8           $C$DW$L$VLIB_convertUYVYint_to_LABpl_d$37$B:
    2189                    ;          EXCLUSIVE CPU CYCLES: 8
    2190                    ;**     -----------------------g25:
    2191                    ;** 123 -----------------------    ++j;
    2192                    ;** 123 -----------------------    if ( (++T$3) < U$175 ) goto g17;
    2193                    
    2194 000008d8 07382059             ADD     .L1     1,A14,A14         ; |123| 
    2195 000008dc 05ac205a  ||         ADD     .L2     1,B11,B11         ; |123| 
    2196                    
    2197                            .dwpsn  file "./../packages/ti/vlib/src/VLIB_convertUYVYint_to_LABpl/VLIB_convertUYVYint_to_LA
    2198 000008e0 003dcbf8             CMPLTU  .L1     A14,A15,A0        ; |123| 
    2199                    
    2200 000008e4     2046             MV      .L1     A0,A1             ; guard predicate rewrite
TMS320C6x Assembler PC v7.4.2 Thu Mar 19 12:40:21 2015

Tools Copyright (c) 1996-2012 Texas Instruments Incorporated
package/lib/Regression/regress_d_c/./../packages/ti/vlib/src/VLIB_convertUYVYint_to_LABpl/VLIB_convertUYVYint_to_LABpl_d.se66 PAGE   41

    2201 000008e8 cfffbd91  || [ A0]   B       .S1     $C$L9             ; |123| 
    2202 000008e6     01d6  ||         MV      .D1     A3,A0
    2203 000008ec 022c7800  ||         MPY32   .M1X    B11,A3,A4
    2204                    
    2205 000008f0 c1bda2e4     [ A0]   LDW     .D2T1   *+SP(52),A3
    2206 000008f4 cfbe42e4     [ A0]   LDW     .D2T1   *+SP(72),A31
    2207 000008f8     4c6e             NOP             3
    2208                               ; BRANCHCC OCCURS {$C$L9}         ; |123| 
    2209 000008fa           $C$DW$L$VLIB_convertUYVYint_to_LABpl_d$37$E:
    2210                    ;** --------------------------------------------------------------------------*
    2211 000008fa           $C$L15:    
    2212                            .dwpsn  file "./../packages/ti/vlib/src/VLIB_convertUYVYint_to_LABpl/VLIB_convertUYVYint_to_LA
    2213 000008fa           $C$DW$L$VLIB_convertUYVYint_to_LABpl_d$38$B:
    2214                    ;          EXCLUSIVE CPU CYCLES: 17
    2215                    ;**     -----------------------g26:
    2216                    ;** 142 -----------------------    est_test = 1;
    2217                    ;** 145 -----------------------    sprintf(K$226, (const char *)"%s generated input | Opt results comp
    2218                    ;** 147 -----------------------    VLIB_formula_add_test((int)out_size, 0, 0, (status_nat_vs_int == 0)
    2219                    ;** 149 -----------------------    goto g28;
    2220                            .dwpsn  file "./../packages/ti/vlib/src/VLIB_convertUYVYint_to_LABpl/VLIB_convertUYVYint_to_LA
    2221 000008fa     ef4d             LDW     .D2T1   *+SP(108),A4      ; |145| 
    2222                            .dwpsn  file "./../packages/ti/vlib/src/VLIB_convertUYVYint_to_LABpl/VLIB_convertUYVYint_to_LA
    2223 00000900 02bd82e6             LDW     .D2T2   *+SP(48),B5       ; |142| 
    2224                            .dwpsn  file "./../packages/ti/vlib/src/VLIB_convertUYVYint_to_LABpl/VLIB_convertUYVYint_to_LA
    2225 00000904 0fbee2e4             LDW     .D2T1   *+SP(92),A31      ; |145| 
    2226 00000908 0300002a!            MVKL    .S2     testPatternString,B6
    2227 0000090c 0200002a!            MVKL    .S2     $C$SL8+0,B4
    2228 00000910     ec45             STW     .D2T1   A4,*+SP(12)       ; |145| 
    2229 00000912     18dd             LDW     .D2T2   *+B5(32),B5       ; |145| 
    2230                    
    2231 00000914 0300006b!            MVKH    .S2     testPatternString,B6
    2232 00000918 07bca2f4  ||         STW     .D2T1   A15,*+SP(20)      ; |145| 
    2233                    
    2234 00000920 01800029!            MVKL    .S1     est_test,A3
    2235 00000924 0200006b! ||         MVKH    .S2     $C$SL8+0,B4
    2236 00000928     dc65  ||         STW     .D2T2   B6,*+SP(8)        ; |145| 
    2237                    
    2238 0000092c 01800068!            MVKH    .S1     est_test,A3
    2239 0000092a     bc45  ||         STW     .D2T2   B4,*+SP(4)        ; |145| 
    2240                    
    2241 00000930 02000029!            MVKL    .S1     desc,A4
    2242 00000934 0f04a359  ||         MVK     .L1     1,A30             ; |142| 
    2243 00000938 0fbcc2f4  ||         STW     .D2T1   A31,*+SP(24)      ; |145| 
    2244                    
    2245                    $C$DW$177       .dwtag  DW_TAG_TI_branch
    2246                            .dwattr $C$DW$177, DW_AT_low_pc(0x00)
    2247                            .dwattr $C$DW$177, DW_AT_name("sprintf")
    2248                            .dwattr $C$DW$177, DW_AT_TI_call
    2249                    
    2250 00000940 10000013!            CALLP   .S2     sprintf,B3
    2251 0000094c     9cd5  ||         STW     .D2T2   B5,*+SP(16)       ; |145| 
    2252 00000948 02000069! ||         MVKH    .S1     desc,A4
    2253 00000944 0f0c0275  ||         STW     .D1T1   A30,*A3           ; |142| 
    2254                    
    2255 0000094e           $C$RL28:   ; CALL OCCURS {sprintf} {0}       ; |145| 
TMS320C6x Assembler PC v7.4.2 Thu Mar 19 12:40:21 2015

Tools Copyright (c) 1996-2012 Texas Instruments Incorporated
package/lib/Regression/regress_d_c/./../packages/ti/vlib/src/VLIB_convertUYVYint_to_LABpl/VLIB_convertUYVYint_to_LABpl_d.se66 PAGE   42

    2256 0000094e           $C$DW$L$VLIB_convertUYVYint_to_LABpl_d$38$E:
    2257                    ;** --------------------------------------------------------------------------*
    2258 0000094e           $C$DW$L$VLIB_convertUYVYint_to_LABpl_d$39$B:
    2259                    ;          EXCLUSIVE CPU CYCLES: 13
    2260 0000094e     8f3d             LDW     .D2T1   *+SP(96),A3       ; |145| 
    2261                            .dwpsn  file "./../packages/ti/vlib/src/VLIB_convertUYVYint_to_LABpl/VLIB_convertUYVYint_to_LA
    2262 00000950 023ee2e4             LDW     .D2T1   *+SP(92),A4       ; |147| 
    2263 00000954 02300a5a             CMPEQ   .L2     B12,0,B4          ; |147| 
    2264 00000958 04000028!            MVKL    .S1     desc,A8
    2265 00000960 0400a35a             ZERO    .L2     B8                ; |147| 
    2266 00000964 018c0a58             CMPEQ   .L1     A3,0,A3           ; |147| 
    2267 00000968 04000068!            MVKH    .S1     desc,A8
    2268                    $C$DW$178       .dwtag  DW_TAG_TI_branch
    2269                            .dwattr $C$DW$178, DW_AT_low_pc(0x04)
    2270                            .dwattr $C$DW$178, DW_AT_name("VLIB_formula_add_test")
    2271                            .dwattr $C$DW$178, DW_AT_TI_call
    2272                    
    2273 0000096c     0726             ZERO    .L1     A6                ; |147| 
    2274 00000974 10000012! ||         CALLP   .S2     VLIB_formula_add_test,B3
    2275 00000970 030c9ffb  ||         OR      .L2X    A3,B4,B6          ; |147| 
    2276 0000096e     1a77  ||         ZERO    .D2     B4                ; |147| 
    2277                    
    2278 00000978           $C$RL29:   ; CALL OCCURS {VLIB_formula_add_test} {0}  ; |147| 
    2279 00000978           $C$DW$L$VLIB_convertUYVYint_to_LABpl_d$39$E:
    2280                    ;** --------------------------------------------------------------------------*
    2281 00000978           $C$DW$L$VLIB_convertUYVYint_to_LABpl_d$40$B:
    2282                    ;          EXCLUSIVE CPU CYCLES: 6
    2283                            .dwpsn  file "./../packages/ti/vlib/src/VLIB_convertUYVYint_to_LABpl/VLIB_convertUYVYint_to_LA
    2284 00000978 00000f10             B       .S1     $C$L17            ; |149| 
    2285                            .dwpsn  file "./../packages/ti/vlib/src/VLIB_convertUYVYint_to_LABpl/VLIB_convertUYVYint_to_LA
    2286                    $C$DW$179       .dwtag  DW_TAG_TI_branch
    2287                            .dwattr $C$DW$179, DW_AT_low_pc(0x00)
    2288                            .dwattr $C$DW$179, DW_AT_name("VLIB_free")
    2289                            .dwattr $C$DW$179, DW_AT_TI_call
    2290 00000980 00000010!            CALL    .S1     VLIB_free         ; |157| 
    2291 00000984     cdcd             LDW     .D2T1   *+SP(56),A4       ; |157| 
    2292 00000986     4c6e             NOP             3
    2293                            .dwpsn  file "./../packages/ti/vlib/src/VLIB_convertUYVYint_to_LABpl/VLIB_convertUYVYint_to_LA
    2294                               ; BRANCH OCCURS {$C$L17}          ; |149| 
    2295 00000988           $C$DW$L$VLIB_convertUYVYint_to_LABpl_d$40$E:
    2296                    ;** --------------------------------------------------------------------------*
    2297 00000988           $C$L16:    
    2298                            .dwpsn  file "./../packages/ti/vlib/src/VLIB_convertUYVYint_to_LABpl/VLIB_convertUYVYint_to_LA
    2299 00000988           $C$DW$L$VLIB_convertUYVYint_to_LABpl_d$41$B:
    2300                    ;          EXCLUSIVE CPU CYCLES: 8
    2301                    ;**     -----------------------g27:
    2302                    ;** 151 -----------------------    sprintf(K$226, (const char *)"width=%d, pitch=%d, height=%d, num_pt
    2303                    ;** 153 -----------------------    VLIB_skip_test(K$226);
    2304                    
    2305 00000988 02ace265             LDW     .D1T1   *+A11(28),A5      ; |151| 
    2306 0000098c 0200002a! ||         MVKL    .S2     $C$SL9+0,B4
    2307                    
    2308 00000994 033ee2e4             LDW     .D2T1   *+SP(92),A6       ; |151| 
    2309 00000990 0200006b! ||         MVKH    .S2     $C$SL9+0,B4
    2310                    
TMS320C6x Assembler PC v7.4.2 Thu Mar 19 12:40:21 2015

Tools Copyright (c) 1996-2012 Texas Instruments Incorporated
package/lib/Regression/regress_d_c/./../packages/ti/vlib/src/VLIB_convertUYVYint_to_LABpl/VLIB_convertUYVYint_to_LABpl_d.se66 PAGE   43

    2311                    $C$DW$180       .dwtag  DW_TAG_TI_branch
    2312                            .dwattr $C$DW$180, DW_AT_low_pc(0x00)
    2313                            .dwattr $C$DW$180, DW_AT_name("sprintf")
    2314                            .dwattr $C$DW$180, DW_AT_TI_call
    2315                    
    2316 00000998 00000011!            CALL    .S1     sprintf           ; |151| 
    2317 000009a0 01ad2264  ||         LDW     .D1T1   *+A11(36),A3      ; |151| 
    2318                    
    2319                            .dwpsn  file "./../packages/ti/vlib/src/VLIB_convertUYVYint_to_LABpl/VLIB_convertUYVYint_to_LA
    2320 000009a4     bc45             STW     .D2T2   B4,*+SP(4)        ; |151| 
    2321 000009a6     ec45             STW     .D2T1   A4,*+SP(12)       ; |151| 
    2322 000009a8     cc55             STW     .D2T1   A5,*+SP(8)        ; |151| 
    2323                    
    2324 000009ac 02000028!            MVKL    .S1     desc,A4
    2325 000009aa     ace5  ||         STW     .D2T1   A6,*+SP(20)       ; |151| 
    2326                    
    2327 000009b8 01bc82f4             STW     .D2T1   A3,*+SP(16)       ; |151| 
    2328 000009b4 02000069! ||         MVKH    .S1     desc,A4
    2329 000009b0 01880163  ||         ADDKPC  .S2     $C$RL30,B3,0      ; |151| 
    2330                    
    2331 000009c0           $C$RL30:   ; CALL OCCURS {sprintf} {0}       ; |151| 
    2332 000009c0           $C$DW$L$VLIB_convertUYVYint_to_LABpl_d$41$E:
    2333                    ;** --------------------------------------------------------------------------*
    2334 000009c0           $C$DW$L$VLIB_convertUYVYint_to_LABpl_d$42$B:
    2335                    ;          EXCLUSIVE CPU CYCLES: 12
    2336 000009c0 02000028!            MVKL    .S1     desc,A4
    2337                    $C$DW$181       .dwtag  DW_TAG_TI_branch
    2338                            .dwattr $C$DW$181, DW_AT_low_pc(0x00)
    2339                            .dwattr $C$DW$181, DW_AT_name("VLIB_skip_test")
    2340                            .dwattr $C$DW$181, DW_AT_TI_call
    2341                    
    2342 000009c4 10000013!            CALLP   .S2     VLIB_skip_test,B3
    2343 000009c8 02000068! ||         MVKH    .S1     desc,A4
    2344                    
    2345                            .dwpsn  file "./../packages/ti/vlib/src/VLIB_convertUYVYint_to_LABpl/VLIB_convertUYVYint_to_LA
    2346 000009cc           $C$RL31:   ; CALL OCCURS {VLIB_skip_test} {0}  ; |153| 
    2347                            .dwpsn  file "./../packages/ti/vlib/src/VLIB_convertUYVYint_to_LABpl/VLIB_convertUYVYint_to_LA
    2348                    $C$DW$182       .dwtag  DW_TAG_TI_branch
    2349                            .dwattr $C$DW$182, DW_AT_low_pc(0x00)
    2350                            .dwattr $C$DW$182, DW_AT_name("VLIB_free")
    2351                            .dwattr $C$DW$182, DW_AT_TI_call
    2352 000009cc 00000010!            CALL    .S1     VLIB_free         ; |157| 
    2353 000009d0 023dc2e4             LDW     .D2T1   *+SP(56),A4       ; |157| 
    2354 000009d4 00004000             NOP             3
    2355 000009d8           $C$DW$L$VLIB_convertUYVYint_to_LABpl_d$42$E:
    2356                    ;** --------------------------------------------------------------------------*
    2357 000009d8           $C$L17:    
    2358                            .dwpsn  file "./../packages/ti/vlib/src/VLIB_convertUYVYint_to_LABpl/VLIB_convertUYVYint_to_LA
    2359 000009d8           $C$DW$L$VLIB_convertUYVYint_to_LABpl_d$43$B:
    2360                    ;          EXCLUSIVE CPU CYCLES: 1
    2361                    ;**     -----------------------g28:
    2362                    ;** 157 -----------------------    VLIB_free((void *)whitePoint);
    2363                    ;** 158 -----------------------    VLIB_free((void *)coeff);
    2364                    ;** 159 -----------------------    free((void *)b_cn);
    2365                    ;** 160 -----------------------    free((void *)a_cn);
TMS320C6x Assembler PC v7.4.2 Thu Mar 19 12:40:21 2015

Tools Copyright (c) 1996-2012 Texas Instruments Incorporated
package/lib/Regression/regress_d_c/./../packages/ti/vlib/src/VLIB_convertUYVYint_to_LABpl/VLIB_convertUYVYint_to_LABpl_d.se66 PAGE   44

    2366                    ;** 161 -----------------------    free((void *)L_cn);
    2367                    ;** 162 -----------------------    VLIB_align_free((void *)b);
    2368                    ;** 163 -----------------------    VLIB_align_free((void *)a);
    2369                    ;** 164 -----------------------    VLIB_align_free((void *)L);
    2370                    ;** 165 -----------------------    VLIB_align_free((void *)yc);
    2371                    ;** 51  -----------------------    if ( test_cases > (++tpi) ) goto g3;
    2372                            .dwpsn  file "./../packages/ti/vlib/src/VLIB_convertUYVYint_to_LABpl/VLIB_convertUYVYint_to_LA
    2373 000009d8 01880163             ADDKPC  .S2     $C$RL32,B3,0      ; |157| 
    2374                    $C$RL32:   ; CALL OCCURS {VLIB_free} {0}     ; |157| 
    2375                    $C$DW$L$VLIB_convertUYVYint_to_LABpl_d$43$E:
    2376                    ;** --------------------------------------------------------------------------*
    2377                    $C$DW$L$VLIB_convertUYVYint_to_LABpl_d$44$B:
    2378                    ;          EXCLUSIVE CPU CYCLES: 48
    2379                    $C$DW$183       .dwtag  DW_TAG_TI_branch
    2380                            .dwattr $C$DW$183, DW_AT_low_pc(0x00)
    2381                            .dwattr $C$DW$183, DW_AT_name("VLIB_free")
    2382                            .dwattr $C$DW$183, DW_AT_TI_call
    2383                    
    2384 000009e0 10000013!            CALLP   .S2     VLIB_free,B3
    2385 000009e4 023de2e4  ||         LDW     .D2T1   *+SP(60),A4       ; |158| 
    2386                    
    2387                            .dwpsn  file "./../packages/ti/vlib/src/VLIB_convertUYVYint_to_LABpl/VLIB_convertUYVYint_to_LA
    2388                    $C$RL33:   ; CALL OCCURS {VLIB_free} {0}     ; |158| 
    2389                    $C$DW$184       .dwtag  DW_TAG_TI_branch
    2390                            .dwattr $C$DW$184, DW_AT_low_pc(0x00)
    2391                            .dwattr $C$DW$184, DW_AT_name("free")
    2392                            .dwattr $C$DW$184, DW_AT_TI_call
    2393                    
    2394 000009e8 10000013!            CALLP   .S2     free,B3
    2395 000009ec 023e02e4  ||         LDW     .D2T1   *+SP(64),A4       ; |159| 
    2396                    
    2397                            .dwpsn  file "./../packages/ti/vlib/src/VLIB_convertUYVYint_to_LABpl/VLIB_convertUYVYint_to_LA
    2398                    $C$RL34:   ; CALL OCCURS {free} {0}          ; |159| 
    2399                    $C$DW$185       .dwtag  DW_TAG_TI_branch
    2400                            .dwattr $C$DW$185, DW_AT_low_pc(0x00)
    2401                            .dwattr $C$DW$185, DW_AT_name("free")
    2402                            .dwattr $C$DW$185, DW_AT_TI_call
    2403                    
    2404 000009f0 10000013!            CALLP   .S2     free,B3
    2405 000009f4 023e22e4  ||         LDW     .D2T1   *+SP(68),A4       ; |160| 
    2406                    
    2407                            .dwpsn  file "./../packages/ti/vlib/src/VLIB_convertUYVYint_to_LABpl/VLIB_convertUYVYint_to_LA
    2408                    ;----------------------------------------------------------------------
    2409                    ; 160 | free(a_cn);                                                            
    2410                    ;----------------------------------------------------------------------
    2411                    $C$RL35:   ; CALL OCCURS {free} {0}          ; |160| 
    2412                    $C$DW$186       .dwtag  DW_TAG_TI_branch
    2413                            .dwattr $C$DW$186, DW_AT_low_pc(0x00)
    2414                            .dwattr $C$DW$186, DW_AT_name("free")
    2415                            .dwattr $C$DW$186, DW_AT_TI_call
    2416                    
    2417 000009f8 10000013!            CALLP   .S2     free,B3
    2418 000009fc 023e42e4  ||         LDW     .D2T1   *+SP(72),A4       ; |161| 
    2419                    
    2420                            .dwpsn  file "./../packages/ti/vlib/src/VLIB_convertUYVYint_to_LABpl/VLIB_convertUYVYint_to_LA
TMS320C6x Assembler PC v7.4.2 Thu Mar 19 12:40:21 2015

Tools Copyright (c) 1996-2012 Texas Instruments Incorporated
package/lib/Regression/regress_d_c/./../packages/ti/vlib/src/VLIB_convertUYVYint_to_LABpl/VLIB_convertUYVYint_to_LABpl_d.se66 PAGE   45

    2421                    ;----------------------------------------------------------------------
    2422                    ; 161 | free(L_cn);                                                            
    2423                    ;----------------------------------------------------------------------
    2424                    $C$RL36:   ; CALL OCCURS {free} {0}          ; |161| 
    2425                    $C$DW$187       .dwtag  DW_TAG_TI_branch
    2426                            .dwattr $C$DW$187, DW_AT_low_pc(0x00)
    2427                            .dwattr $C$DW$187, DW_AT_name("VLIB_align_free")
    2428                            .dwattr $C$DW$187, DW_AT_TI_call
    2429                    
    2430 00000a00 10000013!            CALLP   .S2     VLIB_align_free,B3
    2431 00000a04 023e62e4  ||         LDW     .D2T1   *+SP(76),A4       ; |162| 
    2432                    
    2433                            .dwpsn  file "./../packages/ti/vlib/src/VLIB_convertUYVYint_to_LABpl/VLIB_convertUYVYint_to_LA
    2434                    ;----------------------------------------------------------------------
    2435                    ; 162 | VLIB_align_free(b);                                                    
    2436                    ;----------------------------------------------------------------------
    2437                    $C$RL37:   ; CALL OCCURS {VLIB_align_free} {0}  ; |162| 
    2438                    $C$DW$188       .dwtag  DW_TAG_TI_branch
    2439                            .dwattr $C$DW$188, DW_AT_low_pc(0x00)
    2440                            .dwattr $C$DW$188, DW_AT_name("VLIB_align_free")
    2441                            .dwattr $C$DW$188, DW_AT_TI_call
    2442                    
    2443 00000a08 10000013!            CALLP   .S2     VLIB_align_free,B3
    2444 00000a0c 023e82e4  ||         LDW     .D2T1   *+SP(80),A4       ; |163| 
    2445                    
    2446                            .dwpsn  file "./../packages/ti/vlib/src/VLIB_convertUYVYint_to_LABpl/VLIB_convertUYVYint_to_LA
    2447                    ;----------------------------------------------------------------------
    2448                    ; 163 | VLIB_align_free(a);                                                    
    2449                    ;----------------------------------------------------------------------
    2450                    $C$RL38:   ; CALL OCCURS {VLIB_align_free} {0}  ; |163| 
    2451                    $C$DW$189       .dwtag  DW_TAG_TI_branch
    2452                            .dwattr $C$DW$189, DW_AT_low_pc(0x00)
    2453                            .dwattr $C$DW$189, DW_AT_name("VLIB_align_free")
    2454                            .dwattr $C$DW$189, DW_AT_TI_call
    2455                    
    2456 00000a10 10000013!            CALLP   .S2     VLIB_align_free,B3
    2457 00000a14 023ea2e4  ||         LDW     .D2T1   *+SP(84),A4       ; |164| 
    2458                    
    2459                            .dwpsn  file "./../packages/ti/vlib/src/VLIB_convertUYVYint_to_LABpl/VLIB_convertUYVYint_to_LA
    2460                    ;----------------------------------------------------------------------
    2461                    ; 164 | VLIB_align_free(L);                                                    
    2462                    ;----------------------------------------------------------------------
    2463                    $C$RL39:   ; CALL OCCURS {VLIB_align_free} {0}  ; |164| 
    2464                    $C$DW$190       .dwtag  DW_TAG_TI_branch
    2465                            .dwattr $C$DW$190, DW_AT_low_pc(0x00)
    2466                            .dwattr $C$DW$190, DW_AT_name("VLIB_align_free")
    2467                            .dwattr $C$DW$190, DW_AT_TI_call
    2468                    
    2469 00000a18 10000013!            CALLP   .S2     VLIB_align_free,B3
    2470 00000a1c 023ec2e4  ||         LDW     .D2T1   *+SP(88),A4       ; |165| 
    2471                    
    2472                            .dwpsn  file "./../packages/ti/vlib/src/VLIB_convertUYVYint_to_LABpl/VLIB_convertUYVYint_to_LA
    2473                    ;----------------------------------------------------------------------
    2474                    ; 165 | VLIB_align_free(yc);                                                   
    2475                    ;----------------------------------------------------------------------
TMS320C6x Assembler PC v7.4.2 Thu Mar 19 12:40:21 2015

Tools Copyright (c) 1996-2012 Texas Instruments Incorporated
package/lib/Regression/regress_d_c/./../packages/ti/vlib/src/VLIB_convertUYVYint_to_LABpl/VLIB_convertUYVYint_to_LABpl_d.se66 PAGE   46

    2476 00000a20           $C$RL40:   ; CALL OCCURS {VLIB_align_free} {0}  ; |165| 
    2477 00000a20           $C$DW$L$VLIB_convertUYVYint_to_LABpl_d$44$E:
    2478                    ;** --------------------------------------------------------------------------*
    2479 00000a20           $C$DW$L$VLIB_convertUYVYint_to_LABpl_d$45$B:
    2480                    ;          EXCLUSIVE CPU CYCLES: 14
    2481                    
    2482 00000a20 01800029!            MVKL    .S1     test_cases,A3
    2483 00000a24 0fbf22e4  ||         LDW     .D2T1   *+SP(100),A31
    2484                    
    2485 00000a28 01800068!            MVKH    .S1     test_cases,A3
    2486                            .dwpsn  file "./../packages/ti/vlib/src/VLIB_convertUYVYint_to_LABpl/VLIB_convertUYVYint_to_LA
    2487 00000a2c 020c0264             LDW     .D1T1   *A3,A4            ; |51| 
    2488                            .dwpsn  file "./../packages/ti/vlib/src/VLIB_convertUYVYint_to_LABpl/VLIB_convertUYVYint_to_LA
    2489 00000a30 05801450             ADDK    .S1     40,A11            ; |59| 
    2490 00000a34 00002000             NOP             2
    2491                            .dwpsn  file "./../packages/ti/vlib/src/VLIB_convertUYVYint_to_LABpl/VLIB_convertUYVYint_to_LA
    2492 00000a38 01fc2058             ADD     .L1     1,A31,A3          ; |51| 
    2493 00000a3c 000c88f8             CMPGT   .L1     A4,A3,A0          ; |51| 
    2494                    
    2495 00000a40 cffec811     [ A0]   B       .S1     $C$L1             ; |51| 
    2496 00000a44 c22d0266  || [ A0]   LDW     .D1T2   *+A11(32),B4      ; |62| 
    2497                    
    2498                            .dwpsn  file "./../packages/ti/vlib/src/VLIB_convertUYVYint_to_LABpl/VLIB_convertUYVYint_to_LA
    2499 00000a48 c52d2264     [ A0]   LDW     .D1T1   *+A11(36),A10     ; |59| 
    2500                            .dwpsn  file "./../packages/ti/vlib/src/VLIB_convertUYVYint_to_LABpl/VLIB_convertUYVYint_to_LA
    2501 00000a4c 01bf22f4             STW     .D2T1   A3,*+SP(100)      ; |51| 
    2502                            .dwpsn  file "./../packages/ti/vlib/src/VLIB_convertUYVYint_to_LABpl/VLIB_convertUYVYint_to_LA
    2503 00000a50 c220a358     [ A0]   MVK     .L1     0x8,A4            ; |62| 
    2504                            .dwpsn  file "./../packages/ti/vlib/src/VLIB_convertUYVYint_to_LABpl/VLIB_convertUYVYint_to_LA
    2505 00000a54 c62ce264     [ A0]   LDW     .D1T1   *+A11(28),A12     ; |59| 
    2506 00000a58 00000000             NOP             1
    2507                            .dwpsn  file "./../packages/ti/vlib/src/VLIB_convertUYVYint_to_LABpl/VLIB_convertUYVYint_to_LA
    2508                               ; BRANCHCC OCCURS {$C$L1}         ; |51| 
    2509 00000a5c           $C$DW$L$VLIB_convertUYVYint_to_LABpl_d$45$E:
    2510                    ;** --------------------------------------------------------------------------*
    2511 00000a5c           $C$L18:    
    2512                    ;          EXCLUSIVE CPU CYCLES: 7
    2513                    ;**     -----------------------g29:
    2514                    ;** 169 -----------------------    VLIB_profile_cycle_report(1, NULL, "width * height");
    2515                    ;** 158 -----------------------    printf((const char *)"---------------------------------------------
    2516                    ;** 165 -----------------------    VLIB_stack_memory();  // [18]
    2517                    ;**     -----------------------    return;
    2518 00000a5c 03000028!            MVKL    .S1     $C$SL10+0,A6
    2519                    $C$DW$191       .dwtag  DW_TAG_TI_branch
    2520                            .dwattr $C$DW$191, DW_AT_low_pc(0x00)
    2521                            .dwattr $C$DW$191, DW_AT_name("VLIB_profile_cycle_report")
    2522                            .dwattr $C$DW$191, DW_AT_TI_call
    2523                    
    2524 00000a60 10000013!            CALLP   .S2     VLIB_profile_cycle_report,B3
    2525 00000a64 03000069! ||         MVKH    .S1     $C$SL10+0,A6
    2526 00000a68     2626  ||         MVK     .L1     0x1,A4            ; |169| 
    2527 00000a6a     0627  ||         ZERO    .L2     B4                ; |169| 
    2528                    
    2529                            .dwpsn  file "./../packages/ti/vlib/src/VLIB_convertUYVYint_to_LABpl/VLIB_convertUYVYint_to_LA
    2530                    ;----------------------------------------------------------------------
TMS320C6x Assembler PC v7.4.2 Thu Mar 19 12:40:21 2015

Tools Copyright (c) 1996-2012 Texas Instruments Incorporated
package/lib/Regression/regress_d_c/./../packages/ti/vlib/src/VLIB_convertUYVYint_to_LABpl/VLIB_convertUYVYint_to_LABpl_d.se66 PAGE   47

    2531                    ; 169 | VLIB_profile_cycle_report(vlib_PROFILE_RANGE,                          
    2532                    ; 170 |                           NULL,                                        
    2533                    ; 171 |                           "width * height");                           
    2534                    ; 174 | VLIB_kernel_memory();                                                  
    2535                    ;----------------------------------------------------------------------
    2536 00000a6c           $C$RL41:   ; CALL OCCURS {VLIB_profile_cycle_report} {0}  ; |169| 
    2537                    ;** --------------------------------------------------------------------------*
    2538                    ;          EXCLUSIVE CPU CYCLES: 14
    2539 00000a6c 0200002a!            MVKL    .S2     $C$SL11+0,B4
    2540 00000a70 0200006a!            MVKH    .S2     $C$SL11+0,B4
    2541                    $C$DW$192       .dwtag  DW_TAG_TI_branch
    2542                            .dwattr $C$DW$192, DW_AT_low_pc(0x00)
    2543                            .dwattr $C$DW$192, DW_AT_name("printf")
    2544                            .dwattr $C$DW$192, DW_AT_TI_call
    2545                    
    2546 00000a74 10000013!            CALLP   .S2     printf,B3
    2547 00000a78 023c22f6  ||         STW     .D2T2   B4,*+SP(4)        ; |158| 
    2548                    
    2549                            .dwpsn  file ".\..\packages\ti\vlib\src\VLIB_convertUYVYint_to_LABpl\../common/VLIB_memory.h",
    2550                    $C$RL42:   ; CALL OCCURS {printf} {0}        ; |158| 
    2551                    $C$DW$193       .dwtag  DW_TAG_TI_branch
    2552                            .dwattr $C$DW$193, DW_AT_low_pc(0x00)
    2553                            .dwattr $C$DW$193, DW_AT_name("VLIB_stack_memory")
    2554                            .dwattr $C$DW$193, DW_AT_TI_call
    2555 00000a80 10000012!            CALLP   .S2     VLIB_stack_memory,B3
    2556                            .dwpsn  file ".\..\packages\ti\vlib\src\VLIB_convertUYVYint_to_LABpl\../common/VLIB_memory.h",
    2557 00000a84           $C$RL43:   ; CALL OCCURS {VLIB_stack_memory} {0}  ; |165| 
    2558                    ;** --------------------------------------------------------------------------*
    2559                    ;          EXCLUSIVE CPU CYCLES: 13
    2560                            .dwpsn  file "./../packages/ti/vlib/src/VLIB_convertUYVYint_to_LABpl/VLIB_convertUYVYint_to_LA
    2561 00000a84 01bfd2e6             LDW     .D2T2   *++SP(120),B3     ; |175| 
    2562                            .dwcfi  cfa_offset, 48
    2563                            .dwcfi  restore_reg, 19
    2564 00000a88     c677             LDDW    .D2T1   *++SP,A13:A12
    2565                            .dwcfi  cfa_offset, 40
    2566                            .dwcfi  restore_reg, 13
    2567                            .dwcfi  restore_reg, 12
    2568 00000a8a     c777             LDDW    .D2T1   *++SP,A15:A14
    2569                            .dwcfi  cfa_offset, 32
    2570                            .dwcfi  restore_reg, 15
    2571                            .dwcfi  restore_reg, 14
    2572 00000a8c     d577             LDDW    .D2T2   *++SP,B11:B10
    2573                            .dwcfi  cfa_offset, 24
    2574                            .dwcfi  restore_reg, 27
    2575                            .dwcfi  restore_reg, 26
    2576 00000a8e     d677             LDDW    .D2T2   *++SP,B13:B12
    2577                            .dwcfi  cfa_offset, 16
    2578                            .dwcfi  restore_reg, 29
    2579                            .dwcfi  restore_reg, 28
    2580 00000a90     6577             LDW     .D2T1   *++SP(8),A10
    2581                            .dwcfi  cfa_offset, 8
    2582                            .dwcfi  restore_reg, 10
    2583 00000a92     65f7             LDW     .D2T1   *++SP(8),A11      ; |175| 
    2584                            .dwcfi  cfa_offset, 0
    2585                            .dwcfi  restore_reg, 11
TMS320C6x Assembler PC v7.4.2 Thu Mar 19 12:40:21 2015

Tools Copyright (c) 1996-2012 Texas Instruments Incorporated
package/lib/Regression/regress_d_c/./../packages/ti/vlib/src/VLIB_convertUYVYint_to_LABpl/VLIB_convertUYVYint_to_LABpl_d.se66 PAGE   48

    2586                            .dwcfi  cfa_offset, 0
    2587                    $C$DW$194       .dwtag  DW_TAG_TI_branch
    2588                            .dwattr $C$DW$194, DW_AT_low_pc(0x00)
    2589                            .dwattr $C$DW$194, DW_AT_TI_return
    2590 00000a94 008ca362             RETNOP  .S2     B3,5
    2591                               ; BRANCH OCCURS {B3}  
    2592                    
    2593                    $C$DW$195       .dwtag  DW_TAG_TI_loop
    2594                            .dwattr $C$DW$195, DW_AT_name("c:\nightlybuilds\vlib\ti\vlib\vlib\examples\package/lib/Regress
    2595                            .dwattr $C$DW$195, DW_AT_TI_begin_file("./../packages/ti/vlib/src/VLIB_convertUYVYint_to_LABpl
    2596                            .dwattr $C$DW$195, DW_AT_TI_begin_line(0x33)
    2597                            .dwattr $C$DW$195, DW_AT_TI_end_line(0xa6)
    2598                    $C$DW$196       .dwtag  DW_TAG_TI_loop_range
    2599                            .dwattr $C$DW$196, DW_AT_low_pc($C$DW$L$VLIB_convertUYVYint_to_LABpl_d$5$B)
    2600                            .dwattr $C$DW$196, DW_AT_high_pc($C$DW$L$VLIB_convertUYVYint_to_LABpl_d$5$E)
    2601                    $C$DW$197       .dwtag  DW_TAG_TI_loop_range
    2602                            .dwattr $C$DW$197, DW_AT_low_pc($C$DW$L$VLIB_convertUYVYint_to_LABpl_d$41$B)
    2603                            .dwattr $C$DW$197, DW_AT_high_pc($C$DW$L$VLIB_convertUYVYint_to_LABpl_d$41$E)
    2604                    $C$DW$198       .dwtag  DW_TAG_TI_loop_range
    2605                            .dwattr $C$DW$198, DW_AT_low_pc($C$DW$L$VLIB_convertUYVYint_to_LABpl_d$25$B)
    2606                            .dwattr $C$DW$198, DW_AT_high_pc($C$DW$L$VLIB_convertUYVYint_to_LABpl_d$25$E)
    2607                    $C$DW$199       .dwtag  DW_TAG_TI_loop_range
    2608                            .dwattr $C$DW$199, DW_AT_low_pc($C$DW$L$VLIB_convertUYVYint_to_LABpl_d$11$B)
    2609                            .dwattr $C$DW$199, DW_AT_high_pc($C$DW$L$VLIB_convertUYVYint_to_LABpl_d$11$E)
    2610                    $C$DW$200       .dwtag  DW_TAG_TI_loop_range
    2611                            .dwattr $C$DW$200, DW_AT_low_pc($C$DW$L$VLIB_convertUYVYint_to_LABpl_d$6$B)
    2612                            .dwattr $C$DW$200, DW_AT_high_pc($C$DW$L$VLIB_convertUYVYint_to_LABpl_d$6$E)
    2613                    $C$DW$201       .dwtag  DW_TAG_TI_loop_range
    2614                            .dwattr $C$DW$201, DW_AT_low_pc($C$DW$L$VLIB_convertUYVYint_to_LABpl_d$7$B)
    2615                            .dwattr $C$DW$201, DW_AT_high_pc($C$DW$L$VLIB_convertUYVYint_to_LABpl_d$7$E)
    2616                    $C$DW$202       .dwtag  DW_TAG_TI_loop_range
    2617                            .dwattr $C$DW$202, DW_AT_low_pc($C$DW$L$VLIB_convertUYVYint_to_LABpl_d$8$B)
    2618                            .dwattr $C$DW$202, DW_AT_high_pc($C$DW$L$VLIB_convertUYVYint_to_LABpl_d$8$E)
    2619                    $C$DW$203       .dwtag  DW_TAG_TI_loop_range
    2620                            .dwattr $C$DW$203, DW_AT_low_pc($C$DW$L$VLIB_convertUYVYint_to_LABpl_d$9$B)
    2621                            .dwattr $C$DW$203, DW_AT_high_pc($C$DW$L$VLIB_convertUYVYint_to_LABpl_d$9$E)
    2622                    $C$DW$204       .dwtag  DW_TAG_TI_loop_range
    2623                            .dwattr $C$DW$204, DW_AT_low_pc($C$DW$L$VLIB_convertUYVYint_to_LABpl_d$10$B)
    2624                            .dwattr $C$DW$204, DW_AT_high_pc($C$DW$L$VLIB_convertUYVYint_to_LABpl_d$10$E)
    2625                    $C$DW$205       .dwtag  DW_TAG_TI_loop_range
    2626                            .dwattr $C$DW$205, DW_AT_low_pc($C$DW$L$VLIB_convertUYVYint_to_LABpl_d$24$B)
    2627                            .dwattr $C$DW$205, DW_AT_high_pc($C$DW$L$VLIB_convertUYVYint_to_LABpl_d$24$E)
    2628                    $C$DW$206       .dwtag  DW_TAG_TI_loop_range
    2629                            .dwattr $C$DW$206, DW_AT_low_pc($C$DW$L$VLIB_convertUYVYint_to_LABpl_d$38$B)
    2630                            .dwattr $C$DW$206, DW_AT_high_pc($C$DW$L$VLIB_convertUYVYint_to_LABpl_d$38$E)
    2631                    $C$DW$207       .dwtag  DW_TAG_TI_loop_range
    2632                            .dwattr $C$DW$207, DW_AT_low_pc($C$DW$L$VLIB_convertUYVYint_to_LABpl_d$39$B)
    2633                            .dwattr $C$DW$207, DW_AT_high_pc($C$DW$L$VLIB_convertUYVYint_to_LABpl_d$39$E)
    2634                    $C$DW$208       .dwtag  DW_TAG_TI_loop_range
    2635                            .dwattr $C$DW$208, DW_AT_low_pc($C$DW$L$VLIB_convertUYVYint_to_LABpl_d$40$B)
    2636                            .dwattr $C$DW$208, DW_AT_high_pc($C$DW$L$VLIB_convertUYVYint_to_LABpl_d$40$E)
    2637                    $C$DW$209       .dwtag  DW_TAG_TI_loop_range
    2638                            .dwattr $C$DW$209, DW_AT_low_pc($C$DW$L$VLIB_convertUYVYint_to_LABpl_d$42$B)
    2639                            .dwattr $C$DW$209, DW_AT_high_pc($C$DW$L$VLIB_convertUYVYint_to_LABpl_d$42$E)
    2640                    $C$DW$210       .dwtag  DW_TAG_TI_loop_range
TMS320C6x Assembler PC v7.4.2 Thu Mar 19 12:40:21 2015

Tools Copyright (c) 1996-2012 Texas Instruments Incorporated
package/lib/Regression/regress_d_c/./../packages/ti/vlib/src/VLIB_convertUYVYint_to_LABpl/VLIB_convertUYVYint_to_LABpl_d.se66 PAGE   49

    2641                            .dwattr $C$DW$210, DW_AT_low_pc($C$DW$L$VLIB_convertUYVYint_to_LABpl_d$43$B)
    2642                            .dwattr $C$DW$210, DW_AT_high_pc($C$DW$L$VLIB_convertUYVYint_to_LABpl_d$43$E)
    2643                    $C$DW$211       .dwtag  DW_TAG_TI_loop_range
    2644                            .dwattr $C$DW$211, DW_AT_low_pc($C$DW$L$VLIB_convertUYVYint_to_LABpl_d$44$B)
    2645                            .dwattr $C$DW$211, DW_AT_high_pc($C$DW$L$VLIB_convertUYVYint_to_LABpl_d$44$E)
    2646                    $C$DW$212       .dwtag  DW_TAG_TI_loop_range
    2647                            .dwattr $C$DW$212, DW_AT_low_pc($C$DW$L$VLIB_convertUYVYint_to_LABpl_d$45$B)
    2648                            .dwattr $C$DW$212, DW_AT_high_pc($C$DW$L$VLIB_convertUYVYint_to_LABpl_d$45$E)
    2649                    
    2650                    $C$DW$213       .dwtag  DW_TAG_TI_loop
    2651                            .dwattr $C$DW$213, DW_AT_name("c:\nightlybuilds\vlib\ti\vlib\vlib\examples\package/lib/Regress
    2652                            .dwattr $C$DW$213, DW_AT_TI_begin_file("./../packages/ti/vlib/src/VLIB_convertUYVYint_to_LABpl
    2653                            .dwattr $C$DW$213, DW_AT_TI_begin_line(0x67)
    2654                            .dwattr $C$DW$213, DW_AT_TI_end_line(0x74)
    2655                    $C$DW$214       .dwtag  DW_TAG_TI_loop_range
    2656                            .dwattr $C$DW$214, DW_AT_low_pc($C$DW$L$VLIB_convertUYVYint_to_LABpl_d$12$B)
    2657                            .dwattr $C$DW$214, DW_AT_high_pc($C$DW$L$VLIB_convertUYVYint_to_LABpl_d$12$E)
    2658                    $C$DW$215       .dwtag  DW_TAG_TI_loop_range
    2659                            .dwattr $C$DW$215, DW_AT_low_pc($C$DW$L$VLIB_convertUYVYint_to_LABpl_d$13$B)
    2660                            .dwattr $C$DW$215, DW_AT_high_pc($C$DW$L$VLIB_convertUYVYint_to_LABpl_d$13$E)
    2661                    $C$DW$216       .dwtag  DW_TAG_TI_loop_range
    2662                            .dwattr $C$DW$216, DW_AT_low_pc($C$DW$L$VLIB_convertUYVYint_to_LABpl_d$14$B)
    2663                            .dwattr $C$DW$216, DW_AT_high_pc($C$DW$L$VLIB_convertUYVYint_to_LABpl_d$14$E)
    2664                    $C$DW$217       .dwtag  DW_TAG_TI_loop_range
    2665                            .dwattr $C$DW$217, DW_AT_low_pc($C$DW$L$VLIB_convertUYVYint_to_LABpl_d$23$B)
    2666                            .dwattr $C$DW$217, DW_AT_high_pc($C$DW$L$VLIB_convertUYVYint_to_LABpl_d$23$E)
    2667                    
    2668                    $C$DW$218       .dwtag  DW_TAG_TI_loop
    2669                            .dwattr $C$DW$218, DW_AT_name("c:\nightlybuilds\vlib\ti\vlib\vlib\examples\package/lib/Regress
    2670                            .dwattr $C$DW$218, DW_AT_TI_begin_file("./../packages/ti/vlib/src/VLIB_convertUYVYint_to_LABpl
    2671                            .dwattr $C$DW$218, DW_AT_TI_begin_line(0x68)
    2672                            .dwattr $C$DW$218, DW_AT_TI_end_line(0x73)
    2673                    $C$DW$219       .dwtag  DW_TAG_TI_loop_range
    2674                            .dwattr $C$DW$219, DW_AT_low_pc($C$DW$L$VLIB_convertUYVYint_to_LABpl_d$15$B)
    2675                            .dwattr $C$DW$219, DW_AT_high_pc($C$DW$L$VLIB_convertUYVYint_to_LABpl_d$15$E)
    2676                    $C$DW$220       .dwtag  DW_TAG_TI_loop_range
    2677                            .dwattr $C$DW$220, DW_AT_low_pc($C$DW$L$VLIB_convertUYVYint_to_LABpl_d$19$B)
    2678                            .dwattr $C$DW$220, DW_AT_high_pc($C$DW$L$VLIB_convertUYVYint_to_LABpl_d$19$E)
    2679                    $C$DW$221       .dwtag  DW_TAG_TI_loop_range
    2680                            .dwattr $C$DW$221, DW_AT_low_pc($C$DW$L$VLIB_convertUYVYint_to_LABpl_d$18$B)
    2681                            .dwattr $C$DW$221, DW_AT_high_pc($C$DW$L$VLIB_convertUYVYint_to_LABpl_d$18$E)
    2682                    $C$DW$222       .dwtag  DW_TAG_TI_loop_range
    2683                            .dwattr $C$DW$222, DW_AT_low_pc($C$DW$L$VLIB_convertUYVYint_to_LABpl_d$20$B)
    2684                            .dwattr $C$DW$222, DW_AT_high_pc($C$DW$L$VLIB_convertUYVYint_to_LABpl_d$20$E)
    2685                    $C$DW$223       .dwtag  DW_TAG_TI_loop_range
    2686                            .dwattr $C$DW$223, DW_AT_low_pc($C$DW$L$VLIB_convertUYVYint_to_LABpl_d$16$B)
    2687                            .dwattr $C$DW$223, DW_AT_high_pc($C$DW$L$VLIB_convertUYVYint_to_LABpl_d$16$E)
    2688                    $C$DW$224       .dwtag  DW_TAG_TI_loop_range
    2689                            .dwattr $C$DW$224, DW_AT_low_pc($C$DW$L$VLIB_convertUYVYint_to_LABpl_d$17$B)
    2690                            .dwattr $C$DW$224, DW_AT_high_pc($C$DW$L$VLIB_convertUYVYint_to_LABpl_d$17$E)
    2691                    $C$DW$225       .dwtag  DW_TAG_TI_loop_range
    2692                            .dwattr $C$DW$225, DW_AT_low_pc($C$DW$L$VLIB_convertUYVYint_to_LABpl_d$21$B)
    2693                            .dwattr $C$DW$225, DW_AT_high_pc($C$DW$L$VLIB_convertUYVYint_to_LABpl_d$21$E)
    2694                    $C$DW$226       .dwtag  DW_TAG_TI_loop_range
    2695                            .dwattr $C$DW$226, DW_AT_low_pc($C$DW$L$VLIB_convertUYVYint_to_LABpl_d$22$B)
TMS320C6x Assembler PC v7.4.2 Thu Mar 19 12:40:21 2015

Tools Copyright (c) 1996-2012 Texas Instruments Incorporated
package/lib/Regression/regress_d_c/./../packages/ti/vlib/src/VLIB_convertUYVYint_to_LABpl/VLIB_convertUYVYint_to_LABpl_d.se66 PAGE   50

    2696                            .dwattr $C$DW$226, DW_AT_high_pc($C$DW$L$VLIB_convertUYVYint_to_LABpl_d$22$E)
    2697                            .dwendtag $C$DW$218
    2698                    
    2699                            .dwendtag $C$DW$213
    2700                    
    2701                    
    2702                    $C$DW$227       .dwtag  DW_TAG_TI_loop
    2703                            .dwattr $C$DW$227, DW_AT_name("c:\nightlybuilds\vlib\ti\vlib\vlib\examples\package/lib/Regress
    2704                            .dwattr $C$DW$227, DW_AT_TI_begin_file("./../packages/ti/vlib/src/VLIB_convertUYVYint_to_LABpl
    2705                            .dwattr $C$DW$227, DW_AT_TI_begin_line(0x7b)
    2706                            .dwattr $C$DW$227, DW_AT_TI_end_line(0x88)
    2707                    $C$DW$228       .dwtag  DW_TAG_TI_loop_range
    2708                            .dwattr $C$DW$228, DW_AT_low_pc($C$DW$L$VLIB_convertUYVYint_to_LABpl_d$26$B)
    2709                            .dwattr $C$DW$228, DW_AT_high_pc($C$DW$L$VLIB_convertUYVYint_to_LABpl_d$26$E)
    2710                    $C$DW$229       .dwtag  DW_TAG_TI_loop_range
    2711                            .dwattr $C$DW$229, DW_AT_low_pc($C$DW$L$VLIB_convertUYVYint_to_LABpl_d$27$B)
    2712                            .dwattr $C$DW$229, DW_AT_high_pc($C$DW$L$VLIB_convertUYVYint_to_LABpl_d$27$E)
    2713                    $C$DW$230       .dwtag  DW_TAG_TI_loop_range
    2714                            .dwattr $C$DW$230, DW_AT_low_pc($C$DW$L$VLIB_convertUYVYint_to_LABpl_d$28$B)
    2715                            .dwattr $C$DW$230, DW_AT_high_pc($C$DW$L$VLIB_convertUYVYint_to_LABpl_d$28$E)
    2716                    $C$DW$231       .dwtag  DW_TAG_TI_loop_range
    2717                            .dwattr $C$DW$231, DW_AT_low_pc($C$DW$L$VLIB_convertUYVYint_to_LABpl_d$37$B)
    2718                            .dwattr $C$DW$231, DW_AT_high_pc($C$DW$L$VLIB_convertUYVYint_to_LABpl_d$37$E)
    2719                    
    2720                    $C$DW$232       .dwtag  DW_TAG_TI_loop
    2721                            .dwattr $C$DW$232, DW_AT_name("c:\nightlybuilds\vlib\ti\vlib\vlib\examples\package/lib/Regress
    2722                            .dwattr $C$DW$232, DW_AT_TI_begin_file("./../packages/ti/vlib/src/VLIB_convertUYVYint_to_LABpl
    2723                            .dwattr $C$DW$232, DW_AT_TI_begin_line(0x7c)
    2724                            .dwattr $C$DW$232, DW_AT_TI_end_line(0x87)
    2725                    $C$DW$233       .dwtag  DW_TAG_TI_loop_range
    2726                            .dwattr $C$DW$233, DW_AT_low_pc($C$DW$L$VLIB_convertUYVYint_to_LABpl_d$29$B)
    2727                            .dwattr $C$DW$233, DW_AT_high_pc($C$DW$L$VLIB_convertUYVYint_to_LABpl_d$29$E)
    2728                    $C$DW$234       .dwtag  DW_TAG_TI_loop_range
    2729                            .dwattr $C$DW$234, DW_AT_low_pc($C$DW$L$VLIB_convertUYVYint_to_LABpl_d$33$B)
    2730                            .dwattr $C$DW$234, DW_AT_high_pc($C$DW$L$VLIB_convertUYVYint_to_LABpl_d$33$E)
    2731                    $C$DW$235       .dwtag  DW_TAG_TI_loop_range
    2732                            .dwattr $C$DW$235, DW_AT_low_pc($C$DW$L$VLIB_convertUYVYint_to_LABpl_d$32$B)
    2733                            .dwattr $C$DW$235, DW_AT_high_pc($C$DW$L$VLIB_convertUYVYint_to_LABpl_d$32$E)
    2734                    $C$DW$236       .dwtag  DW_TAG_TI_loop_range
    2735                            .dwattr $C$DW$236, DW_AT_low_pc($C$DW$L$VLIB_convertUYVYint_to_LABpl_d$34$B)
    2736                            .dwattr $C$DW$236, DW_AT_high_pc($C$DW$L$VLIB_convertUYVYint_to_LABpl_d$34$E)
    2737                    $C$DW$237       .dwtag  DW_TAG_TI_loop_range
    2738                            .dwattr $C$DW$237, DW_AT_low_pc($C$DW$L$VLIB_convertUYVYint_to_LABpl_d$30$B)
    2739                            .dwattr $C$DW$237, DW_AT_high_pc($C$DW$L$VLIB_convertUYVYint_to_LABpl_d$30$E)
    2740                    $C$DW$238       .dwtag  DW_TAG_TI_loop_range
    2741                            .dwattr $C$DW$238, DW_AT_low_pc($C$DW$L$VLIB_convertUYVYint_to_LABpl_d$31$B)
    2742                            .dwattr $C$DW$238, DW_AT_high_pc($C$DW$L$VLIB_convertUYVYint_to_LABpl_d$31$E)
    2743                    $C$DW$239       .dwtag  DW_TAG_TI_loop_range
    2744                            .dwattr $C$DW$239, DW_AT_low_pc($C$DW$L$VLIB_convertUYVYint_to_LABpl_d$35$B)
    2745                            .dwattr $C$DW$239, DW_AT_high_pc($C$DW$L$VLIB_convertUYVYint_to_LABpl_d$35$E)
    2746                    $C$DW$240       .dwtag  DW_TAG_TI_loop_range
    2747                            .dwattr $C$DW$240, DW_AT_low_pc($C$DW$L$VLIB_convertUYVYint_to_LABpl_d$36$B)
    2748                            .dwattr $C$DW$240, DW_AT_high_pc($C$DW$L$VLIB_convertUYVYint_to_LABpl_d$36$E)
    2749                            .dwendtag $C$DW$232
    2750                    
TMS320C6x Assembler PC v7.4.2 Thu Mar 19 12:40:21 2015

Tools Copyright (c) 1996-2012 Texas Instruments Incorporated
package/lib/Regression/regress_d_c/./../packages/ti/vlib/src/VLIB_convertUYVYint_to_LABpl/VLIB_convertUYVYint_to_LABpl_d.se66 PAGE   51

    2751                            .dwendtag $C$DW$227
    2752                    
    2753                            .dwendtag $C$DW$195
    2754                    
    2755                            .dwattr $C$DW$90, DW_AT_TI_end_file("./../packages/ti/vlib/src/VLIB_convertUYVYint_to_LABpl/VL
    2756                            .dwattr $C$DW$90, DW_AT_TI_end_line(0xaf)
    2757                            .dwattr $C$DW$90, DW_AT_TI_end_column(0x01)
    2758                            .dwendentry
    2759                            .dwendtag $C$DW$90
    2760                    
    2761                    ;; Inlined function references:
    2762                    ;; [ 15] VLIB_profile_start
    2763                    ;; [ 16] VLIB_profile_stop
    2764                    ;; [ 18] VLIB_kernel_memory
    2765                    ;******************************************************************************
    2766                    ;* STRINGS                                                                    *
    2767                    ;******************************************************************************
    2768 00000000                   .sect   ".const:.string"
    2769 00000000 00000056  $C$SL1: .string "VLIB_convertUYVYint_to_LABpl",0
         00000001 0000004C 
         00000002 00000049 
         00000003 00000042 
         00000004 0000005F 
         00000005 00000063 
         00000006 0000006F 
         00000007 0000006E 
         00000008 00000076 
         00000009 00000065 
         0000000a 00000072 
         0000000b 00000074 
         0000000c 00000055 
         0000000d 00000059 
         0000000e 00000056 
         0000000f 00000059 
         00000010 00000069 
         00000011 0000006E 
         00000012 00000074 
         00000013 0000005F 
         00000014 00000074 
         00000015 0000006F 
         00000016 0000005F 
         00000017 0000004C 
         00000018 00000041 
         00000019 00000042 
         0000001a 00000070 
         0000001b 0000006C 
         0000001c 00000000 
    2770 0000001d 0000004C  $C$SL2: .string "L[%d,%d] O=%f C=%f",10,0
         0000001e 0000005B 
         0000001f 00000025 
         00000020 00000064 
         00000021 0000002C 
         00000022 00000025 
         00000023 00000064 
         00000024 0000005D 
TMS320C6x Assembler PC v7.4.2 Thu Mar 19 12:40:21 2015

Tools Copyright (c) 1996-2012 Texas Instruments Incorporated
package/lib/Regression/regress_d_c/./../packages/ti/vlib/src/VLIB_convertUYVYint_to_LABpl/VLIB_convertUYVYint_to_LABpl_d.se66 PAGE   52

         00000025 00000020 
         00000026 0000004F 
         00000027 0000003D 
         00000028 00000025 
         00000029 00000066 
         0000002a 00000020 
         0000002b 00000043 
         0000002c 0000003D 
         0000002d 00000025 
         0000002e 00000066 
         0000002f 0000000A 
         00000030 00000000 
    2771 00000031 00000061  $C$SL3: .string "a[%d,%d] O=%f C=%f",10,0
         00000032 0000005B 
         00000033 00000025 
         00000034 00000064 
         00000035 0000002C 
         00000036 00000025 
         00000037 00000064 
         00000038 0000005D 
         00000039 00000020 
         0000003a 0000004F 
         0000003b 0000003D 
         0000003c 00000025 
         0000003d 00000066 
         0000003e 00000020 
         0000003f 00000043 
         00000040 0000003D 
         00000041 00000025 
         00000042 00000066 
         00000043 0000000A 
         00000044 00000000 
    2772 00000045 00000062  $C$SL4: .string "b[%d,%d] O=%f C=%f",10,0
         00000046 0000005B 
         00000047 00000025 
         00000048 00000064 
         00000049 0000002C 
         0000004a 00000025 
         0000004b 00000064 
         0000004c 0000005D 
         0000004d 00000020 
         0000004e 0000004F 
         0000004f 0000003D 
         00000050 00000025 
         00000051 00000066 
         00000052 00000020 
         00000053 00000043 
         00000054 0000003D 
         00000055 00000025 
         00000056 00000066 
         00000057 0000000A 
         00000058 00000000 
    2773 00000059 0000004C  $C$SL5: .string "L[%d,%d] S=%f C=%f",10,0
         0000005a 0000005B 
         0000005b 00000025 
TMS320C6x Assembler PC v7.4.2 Thu Mar 19 12:40:21 2015

Tools Copyright (c) 1996-2012 Texas Instruments Incorporated
package/lib/Regression/regress_d_c/./../packages/ti/vlib/src/VLIB_convertUYVYint_to_LABpl/VLIB_convertUYVYint_to_LABpl_d.se66 PAGE   53

         0000005c 00000064 
         0000005d 0000002C 
         0000005e 00000025 
         0000005f 00000064 
         00000060 0000005D 
         00000061 00000020 
         00000062 00000053 
         00000063 0000003D 
         00000064 00000025 
         00000065 00000066 
         00000066 00000020 
         00000067 00000043 
         00000068 0000003D 
         00000069 00000025 
         0000006a 00000066 
         0000006b 0000000A 
         0000006c 00000000 
    2774 0000006d 00000061  $C$SL6: .string "a[%d,%d] S=%f C=%f",10,0
         0000006e 0000005B 
         0000006f 00000025 
         00000070 00000064 
         00000071 0000002C 
         00000072 00000025 
         00000073 00000064 
         00000074 0000005D 
         00000075 00000020 
         00000076 00000053 
         00000077 0000003D 
         00000078 00000025 
         00000079 00000066 
         0000007a 00000020 
         0000007b 00000043 
         0000007c 0000003D 
         0000007d 00000025 
         0000007e 00000066 
         0000007f 0000000A 
         00000080 00000000 
    2775 00000081 00000062  $C$SL7: .string "b[%d,%d] S=%f C=%f",10,0
         00000082 0000005B 
         00000083 00000025 
         00000084 00000064 
         00000085 0000002C 
         00000086 00000025 
         00000087 00000064 
         00000088 0000005D 
         00000089 00000020 
         0000008a 00000053 
         0000008b 0000003D 
         0000008c 00000025 
         0000008d 00000066 
         0000008e 00000020 
         0000008f 00000043 
         00000090 0000003D 
         00000091 00000025 
         00000092 00000066 
TMS320C6x Assembler PC v7.4.2 Thu Mar 19 12:40:21 2015

Tools Copyright (c) 1996-2012 Texas Instruments Incorporated
package/lib/Regression/regress_d_c/./../packages/ti/vlib/src/VLIB_convertUYVYint_to_LABpl/VLIB_convertUYVYint_to_LABpl_d.se66 PAGE   54

         00000093 0000000A 
         00000094 00000000 
    2776 00000095 00000025  $C$SL8: .string "%s generated input | Opt results compared to NatC results |"
         00000096 00000073 
         00000097 00000020 
         00000098 00000067 
         00000099 00000065 
         0000009a 0000006E 
         0000009b 00000065 
         0000009c 00000072 
         0000009d 00000061 
         0000009e 00000074 
         0000009f 00000065 
         000000a0 00000064 
         000000a1 00000020 
         000000a2 00000069 
         000000a3 0000006E 
         000000a4 00000070 
         000000a5 00000075 
         000000a6 00000074 
         000000a7 00000020 
         000000a8 0000007C 
         000000a9 00000020 
         000000aa 0000004F 
         000000ab 00000070 
         000000ac 00000074 
         000000ad 00000020 
         000000ae 00000072 
         000000af 00000065 
         000000b0 00000073 
         000000b1 00000075 
         000000b2 0000006C 
         000000b3 00000074 
         000000b4 00000073 
         000000b5 00000020 
         000000b6 00000063 
         000000b7 0000006F 
         000000b8 0000006D 
         000000b9 00000070 
         000000ba 00000061 
         000000bb 00000072 
         000000bc 00000065 
         000000bd 00000064 
         000000be 00000020 
         000000bf 00000074 
         000000c0 0000006F 
         000000c1 00000020 
         000000c2 0000004E 
         000000c3 00000061 
         000000c4 00000074 
         000000c5 00000043 
         000000c6 00000020 
         000000c7 00000072 
         000000c8 00000065 
         000000c9 00000073 
TMS320C6x Assembler PC v7.4.2 Thu Mar 19 12:40:21 2015

Tools Copyright (c) 1996-2012 Texas Instruments Incorporated
package/lib/Regression/regress_d_c/./../packages/ti/vlib/src/VLIB_convertUYVYint_to_LABpl/VLIB_convertUYVYint_to_LABpl_d.se66 PAGE   55

         000000ca 00000075 
         000000cb 0000006C 
         000000cc 00000074 
         000000cd 00000073 
         000000ce 00000020 
         000000cf 0000007C 
    2777 000000d0 00000020          .string " width=%d, pitch=%d, height=%d, num_pts=%d",0
         000000d1 00000077 
         000000d2 00000069 
         000000d3 00000064 
         000000d4 00000074 
         000000d5 00000068 
         000000d6 0000003D 
         000000d7 00000025 
         000000d8 00000064 
         000000d9 0000002C 
         000000da 00000020 
         000000db 00000070 
         000000dc 00000069 
         000000dd 00000074 
         000000de 00000063 
         000000df 00000068 
         000000e0 0000003D 
         000000e1 00000025 
         000000e2 00000064 
         000000e3 0000002C 
         000000e4 00000020 
         000000e5 00000068 
         000000e6 00000065 
         000000e7 00000069 
         000000e8 00000067 
         000000e9 00000068 
         000000ea 00000074 
         000000eb 0000003D 
         000000ec 00000025 
         000000ed 00000064 
         000000ee 0000002C 
         000000ef 00000020 
         000000f0 0000006E 
         000000f1 00000075 
         000000f2 0000006D 
         000000f3 0000005F 
         000000f4 00000070 
         000000f5 00000074 
         000000f6 00000073 
         000000f7 0000003D 
         000000f8 00000025 
         000000f9 00000064 
         000000fa 00000000 
    2778 000000fb 00000077  $C$SL9: .string "width=%d, pitch=%d, height=%d, num_pts=%d",0
         000000fc 00000069 
         000000fd 00000064 
         000000fe 00000074 
         000000ff 00000068 
         00000100 0000003D 
TMS320C6x Assembler PC v7.4.2 Thu Mar 19 12:40:21 2015

Tools Copyright (c) 1996-2012 Texas Instruments Incorporated
package/lib/Regression/regress_d_c/./../packages/ti/vlib/src/VLIB_convertUYVYint_to_LABpl/VLIB_convertUYVYint_to_LABpl_d.se66 PAGE   56

         00000101 00000025 
         00000102 00000064 
         00000103 0000002C 
         00000104 00000020 
         00000105 00000070 
         00000106 00000069 
         00000107 00000074 
         00000108 00000063 
         00000109 00000068 
         0000010a 0000003D 
         0000010b 00000025 
         0000010c 00000064 
         0000010d 0000002C 
         0000010e 00000020 
         0000010f 00000068 
         00000110 00000065 
         00000111 00000069 
         00000112 00000067 
         00000113 00000068 
         00000114 00000074 
         00000115 0000003D 
         00000116 00000025 
         00000117 00000064 
         00000118 0000002C 
         00000119 00000020 
         0000011a 0000006E 
         0000011b 00000075 
         0000011c 0000006D 
         0000011d 0000005F 
         0000011e 00000070 
         0000011f 00000074 
         00000120 00000073 
         00000121 0000003D 
         00000122 00000025 
         00000123 00000064 
         00000124 00000000 
    2779 00000125 00000077  $C$SL10:        .string "width * height",0
         00000126 00000069 
         00000127 00000064 
         00000128 00000074 
         00000129 00000068 
         0000012a 00000020 
         0000012b 0000002A 
         0000012c 00000020 
         0000012d 00000068 
         0000012e 00000065 
         0000012f 00000069 
         00000130 00000067 
         00000131 00000068 
         00000132 00000074 
         00000133 00000000 
    2780 00000134 0000002D  $C$SL11:        .string "-----------------------------------------------------------"
         00000135 0000002D 
         00000136 0000002D 
         00000137 0000002D 
TMS320C6x Assembler PC v7.4.2 Thu Mar 19 12:40:21 2015

Tools Copyright (c) 1996-2012 Texas Instruments Incorporated
package/lib/Regression/regress_d_c/./../packages/ti/vlib/src/VLIB_convertUYVYint_to_LABpl/VLIB_convertUYVYint_to_LABpl_d.se66 PAGE   57

         00000138 0000002D 
         00000139 0000002D 
         0000013a 0000002D 
         0000013b 0000002D 
         0000013c 0000002D 
         0000013d 0000002D 
         0000013e 0000002D 
         0000013f 0000002D 
         00000140 0000002D 
         00000141 0000002D 
         00000142 0000002D 
         00000143 0000002D 
         00000144 0000002D 
         00000145 0000002D 
         00000146 0000002D 
         00000147 0000002D 
         00000148 0000002D 
         00000149 0000002D 
         0000014a 0000002D 
         0000014b 0000002D 
         0000014c 0000002D 
         0000014d 0000002D 
         0000014e 0000002D 
         0000014f 0000002D 
         00000150 0000002D 
         00000151 0000002D 
         00000152 0000002D 
         00000153 0000002D 
         00000154 0000002D 
         00000155 0000002D 
         00000156 0000002D 
         00000157 0000002D 
         00000158 0000002D 
         00000159 0000002D 
         0000015a 0000002D 
         0000015b 0000002D 
         0000015c 0000002D 
         0000015d 0000002D 
         0000015e 0000002D 
         0000015f 0000002D 
         00000160 0000002D 
         00000161 0000002D 
         00000162 0000002D 
         00000163 0000002D 
         00000164 0000002D 
         00000165 0000002D 
         00000166 0000002D 
         00000167 0000002D 
         00000168 0000002D 
         00000169 0000002D 
         0000016a 0000002D 
         0000016b 0000002D 
         0000016c 0000002D 
         0000016d 0000002D 
         0000016e 0000002D 
TMS320C6x Assembler PC v7.4.2 Thu Mar 19 12:40:21 2015

Tools Copyright (c) 1996-2012 Texas Instruments Incorporated
package/lib/Regression/regress_d_c/./../packages/ti/vlib/src/VLIB_convertUYVYint_to_LABpl/VLIB_convertUYVYint_to_LABpl_d.se66 PAGE   58

    2781 0000016f 0000002D          .string "-----------------------------------------------------------"
         00000170 0000002D 
         00000171 0000002D 
         00000172 0000002D 
         00000173 0000002D 
         00000174 0000002D 
         00000175 0000002D 
         00000176 0000002D 
         00000177 0000002D 
         00000178 0000002D 
         00000179 0000002D 
         0000017a 0000002D 
         0000017b 0000002D 
