TMS320C6x Assembler PC v7.4.2 Thu Mar 19 12:44:02 2015

Tools Copyright (c) 1996-2012 Texas Instruments Incorporated
package/lib/Regression/regress_d_c/./../packages/ti/vlib/src/VLIB_ORB_getHarrisScore/VLIB_ORB_getHarrisScore_d.se66 PAGE    1

       1                    ;******************************************************************************
       2                    ;* TMS320C6x C/C++ Codegen                                          PC v7.4.2 *
       3                    ;* Date/Time created: Thu Mar 19 12:44:01 2015                                *
       4                    ;******************************************************************************
       5                            .compiler_opts --abi=eabi --c64p_l1d_workaround=off --endian=little --hll_source=on --long_pre
       6                    
       7                    ;******************************************************************************
       8                    ;* GLOBAL FILE PARAMETERS                                                     *
       9                    ;*                                                                            *
      10                    ;*   Architecture      : TMS320C66xx                                          *
      11                    ;*   Optimization      : Enabled at level 3                                   *
      12                    ;*   Optimizing for    : Speed                                                *
      13                    ;*                       Based on options: -o3, no -ms                        *
      14                    ;*   Endian            : Little                                               *
      15                    ;*   Interrupt Thrshld : 10000                                                *
      16                    ;*   Data Access Model : Far                                                  *
      17                    ;*   Pipelining        : Enabled                                              *
      18                    ;*   Speculate Loads   : Enabled with threshold = 0                           *
      19                    ;*   Memory Aliases    : Presume are aliases (pessimistic)                    *
      20                    ;*   Debug Info        : DWARF Debug w/Optimization                           *
      21                    ;*                                                                            *
      22                    ;******************************************************************************
      23                    
      24                            .asg    A15, FP
      25                            .asg    B14, DP
      26                            .asg    B15, SP
      27                            .global $bss
      28                    
      29                    
      30                    $C$DW$CU        .dwtag  DW_TAG_compile_unit
      31                            .dwattr $C$DW$CU, DW_AT_name("./../packages/ti/vlib/src/VLIB_ORB_getHarrisScore/VLIB_ORB_getHa
      32                            .dwattr $C$DW$CU, DW_AT_producer("TI TMS320C6x C/C++ Codegen PC v7.4.2 Copyright (c) 1996-2012
      33                            .dwattr $C$DW$CU, DW_AT_TI_version(0x01)
      34                            .dwattr $C$DW$CU, DW_AT_comp_dir("c:\nightlybuilds\vlib\ti\vlib\vlib\examples")
      35                    
      36                    $C$DW$1 .dwtag  DW_TAG_subprogram, DW_AT_name("_itoll")
      37                            .dwattr $C$DW$1, DW_AT_TI_symbol_name("_itoll")
      38                            .dwattr $C$DW$1, DW_AT_type(*$C$DW$T$14)
      39                            .dwattr $C$DW$1, DW_AT_declaration
      40                            .dwattr $C$DW$1, DW_AT_external
      41                            .dwattr $C$DW$1, DW_AT_decl_file("C:/VLIB_Tools/CCSV5_4_0/ccsv5/tools/compiler/C6000/include/c
      42                            .dwattr $C$DW$1, DW_AT_decl_line(0xdf)
      43                            .dwattr $C$DW$1, DW_AT_decl_column(0x0b)
      44                    $C$DW$2 .dwtag  DW_TAG_formal_parameter
      45                            .dwattr $C$DW$2, DW_AT_type(*$C$DW$T$11)
      46                    $C$DW$3 .dwtag  DW_TAG_formal_parameter
      47                            .dwattr $C$DW$3, DW_AT_type(*$C$DW$T$11)
      48                            .dwendtag $C$DW$1
      49                    
      50                    
      51                    $C$DW$4 .dwtag  DW_TAG_subprogram, DW_AT_name("printf")
      52                            .dwattr $C$DW$4, DW_AT_TI_symbol_name("printf")
      53                            .dwattr $C$DW$4, DW_AT_type(*$C$DW$T$10)
      54                            .dwattr $C$DW$4, DW_AT_declaration
      55                            .dwattr $C$DW$4, DW_AT_external
TMS320C6x Assembler PC v7.4.2 Thu Mar 19 12:44:02 2015

Tools Copyright (c) 1996-2012 Texas Instruments Incorporated
package/lib/Regression/regress_d_c/./../packages/ti/vlib/src/VLIB_ORB_getHarrisScore/VLIB_ORB_getHarrisScore_d.se66 PAGE    2

      56                            .dwattr $C$DW$4, DW_AT_decl_file("C:/VLIB_Tools/CCSV5_4_0/ccsv5/tools/compiler/C6000/include/s
      57                            .dwattr $C$DW$4, DW_AT_decl_line(0xb8)
      58                            .dwattr $C$DW$4, DW_AT_decl_column(0x19)
      59                    $C$DW$5 .dwtag  DW_TAG_formal_parameter
      60                            .dwattr $C$DW$5, DW_AT_type(*$C$DW$T$157)
      61                    $C$DW$6 .dwtag  DW_TAG_unspecified_parameters
      62                            .dwendtag $C$DW$4
      63                    
      64                    
      65                    $C$DW$7 .dwtag  DW_TAG_subprogram, DW_AT_name("sprintf")
      66                            .dwattr $C$DW$7, DW_AT_TI_symbol_name("sprintf")
      67                            .dwattr $C$DW$7, DW_AT_type(*$C$DW$T$10)
      68                            .dwattr $C$DW$7, DW_AT_declaration
      69                            .dwattr $C$DW$7, DW_AT_external
      70                            .dwattr $C$DW$7, DW_AT_decl_file("C:/VLIB_Tools/CCSV5_4_0/ccsv5/tools/compiler/C6000/include/s
      71                            .dwattr $C$DW$7, DW_AT_decl_line(0xbc)
      72                            .dwattr $C$DW$7, DW_AT_decl_column(0x19)
      73                    $C$DW$8 .dwtag  DW_TAG_formal_parameter
      74                            .dwattr $C$DW$8, DW_AT_type(*$C$DW$T$38)
      75                    $C$DW$9 .dwtag  DW_TAG_formal_parameter
      76                            .dwattr $C$DW$9, DW_AT_type(*$C$DW$T$157)
      77                    $C$DW$10        .dwtag  DW_TAG_unspecified_parameters
      78                            .dwendtag $C$DW$7
      79                    
      80                    
      81                    $C$DW$11        .dwtag  DW_TAG_subprogram, DW_AT_name("malloc")
      82                            .dwattr $C$DW$11, DW_AT_TI_symbol_name("malloc")
      83                            .dwattr $C$DW$11, DW_AT_type(*$C$DW$T$3)
      84                            .dwattr $C$DW$11, DW_AT_declaration
      85                            .dwattr $C$DW$11, DW_AT_external
      86                            .dwattr $C$DW$11, DW_AT_decl_file("C:/VLIB_Tools/CCSV5_4_0/ccsv5/tools/compiler/C6000/include/
      87                            .dwattr $C$DW$11, DW_AT_decl_line(0x82)
      88                            .dwattr $C$DW$11, DW_AT_decl_column(0x19)
      89                    $C$DW$12        .dwtag  DW_TAG_formal_parameter
      90                            .dwattr $C$DW$12, DW_AT_type(*$C$DW$T$111)
      91                            .dwendtag $C$DW$11
      92                    
      93                    
      94                    $C$DW$13        .dwtag  DW_TAG_subprogram, DW_AT_name("free")
      95                            .dwattr $C$DW$13, DW_AT_TI_symbol_name("free")
      96                            .dwattr $C$DW$13, DW_AT_declaration
      97                            .dwattr $C$DW$13, DW_AT_external
      98                            .dwattr $C$DW$13, DW_AT_decl_file("C:/VLIB_Tools/CCSV5_4_0/ccsv5/tools/compiler/C6000/include/
      99                            .dwattr $C$DW$13, DW_AT_decl_line(0x86)
     100                            .dwattr $C$DW$13, DW_AT_decl_column(0x19)
     101                    $C$DW$14        .dwtag  DW_TAG_formal_parameter
     102                            .dwattr $C$DW$14, DW_AT_type(*$C$DW$T$3)
     103                            .dwendtag $C$DW$13
     104                    
     105                    
     106                    $C$DW$15        .dwtag  DW_TAG_subprogram, DW_AT_name("VLIB_cache_inval")
     107                            .dwattr $C$DW$15, DW_AT_TI_symbol_name("VLIB_cache_inval")
     108                            .dwattr $C$DW$15, DW_AT_type(*$C$DW$T$10)
     109                            .dwattr $C$DW$15, DW_AT_declaration
     110                            .dwattr $C$DW$15, DW_AT_external
TMS320C6x Assembler PC v7.4.2 Thu Mar 19 12:44:02 2015

Tools Copyright (c) 1996-2012 Texas Instruments Incorporated
package/lib/Regression/regress_d_c/./../packages/ti/vlib/src/VLIB_ORB_getHarrisScore/VLIB_ORB_getHarrisScore_d.se66 PAGE    3

     111                            .dwattr $C$DW$15, DW_AT_decl_file(".\..\packages\ti\vlib\src\VLIB_ORB_getHarrisScore\..\common
     112                            .dwattr $C$DW$15, DW_AT_decl_line(0x58)
     113                            .dwattr $C$DW$15, DW_AT_decl_column(0x05)
     114                    
     115                    $C$DW$16        .dwtag  DW_TAG_subprogram, DW_AT_name("VLIB_profile_init")
     116                            .dwattr $C$DW$16, DW_AT_TI_symbol_name("VLIB_profile_init")
     117                            .dwattr $C$DW$16, DW_AT_declaration
     118                            .dwattr $C$DW$16, DW_AT_external
     119                            .dwattr $C$DW$16, DW_AT_decl_file(".\..\packages\ti\vlib\src\VLIB_ORB_getHarrisScore\..\common
     120                            .dwattr $C$DW$16, DW_AT_decl_line(0x7b)
     121                            .dwattr $C$DW$16, DW_AT_decl_column(0x06)
     122                    $C$DW$17        .dwtag  DW_TAG_formal_parameter
     123                            .dwattr $C$DW$17, DW_AT_type(*$C$DW$T$10)
     124                    $C$DW$18        .dwtag  DW_TAG_formal_parameter
     125                            .dwattr $C$DW$18, DW_AT_type(*$C$DW$T$38)
     126                            .dwendtag $C$DW$16
     127                    
     128                    
     129                    $C$DW$19        .dwtag  DW_TAG_subprogram, DW_AT_name("VLIB_formula_add_test")
     130                            .dwattr $C$DW$19, DW_AT_TI_symbol_name("VLIB_formula_add_test")
     131                            .dwattr $C$DW$19, DW_AT_declaration
     132                            .dwattr $C$DW$19, DW_AT_external
     133                            .dwattr $C$DW$19, DW_AT_decl_file(".\..\packages\ti\vlib\src\VLIB_ORB_getHarrisScore\..\common
     134                            .dwattr $C$DW$19, DW_AT_decl_line(0x7d)
     135                            .dwattr $C$DW$19, DW_AT_decl_column(0x06)
     136                    $C$DW$20        .dwtag  DW_TAG_formal_parameter
     137                            .dwattr $C$DW$20, DW_AT_type(*$C$DW$T$10)
     138                    $C$DW$21        .dwtag  DW_TAG_formal_parameter
     139                            .dwattr $C$DW$21, DW_AT_type(*$C$DW$T$10)
     140                    $C$DW$22        .dwtag  DW_TAG_formal_parameter
     141                            .dwattr $C$DW$22, DW_AT_type(*$C$DW$T$10)
     142                    $C$DW$23        .dwtag  DW_TAG_formal_parameter
     143                            .dwattr $C$DW$23, DW_AT_type(*$C$DW$T$10)
     144                    $C$DW$24        .dwtag  DW_TAG_formal_parameter
     145                            .dwattr $C$DW$24, DW_AT_type(*$C$DW$T$38)
     146                    $C$DW$25        .dwtag  DW_TAG_formal_parameter
     147                            .dwattr $C$DW$25, DW_AT_type(*$C$DW$T$10)
     148                            .dwendtag $C$DW$19
     149                    
     150                    
     151                    $C$DW$26        .dwtag  DW_TAG_subprogram, DW_AT_name("VLIB_skip_test")
     152                            .dwattr $C$DW$26, DW_AT_TI_symbol_name("VLIB_skip_test")
     153                            .dwattr $C$DW$26, DW_AT_declaration
     154                            .dwattr $C$DW$26, DW_AT_external
     155                            .dwattr $C$DW$26, DW_AT_decl_file(".\..\packages\ti\vlib\src\VLIB_ORB_getHarrisScore\..\common
     156                            .dwattr $C$DW$26, DW_AT_decl_line(0x7e)
     157                            .dwattr $C$DW$26, DW_AT_decl_column(0x06)
     158                    $C$DW$27        .dwtag  DW_TAG_formal_parameter
     159                            .dwattr $C$DW$27, DW_AT_type(*$C$DW$T$38)
     160                            .dwendtag $C$DW$26
     161                    
     162                    
     163                    $C$DW$28        .dwtag  DW_TAG_subprogram, DW_AT_name("VLIB_profile_cycle_report")
     164                            .dwattr $C$DW$28, DW_AT_TI_symbol_name("VLIB_profile_cycle_report")
     165                            .dwattr $C$DW$28, DW_AT_declaration
TMS320C6x Assembler PC v7.4.2 Thu Mar 19 12:44:02 2015

Tools Copyright (c) 1996-2012 Texas Instruments Incorporated
package/lib/Regression/regress_d_c/./../packages/ti/vlib/src/VLIB_ORB_getHarrisScore/VLIB_ORB_getHarrisScore_d.se66 PAGE    4

     166                            .dwattr $C$DW$28, DW_AT_external
     167                            .dwattr $C$DW$28, DW_AT_decl_file(".\..\packages\ti\vlib\src\VLIB_ORB_getHarrisScore\..\common
     168                            .dwattr $C$DW$28, DW_AT_decl_line(0x7f)
     169                            .dwattr $C$DW$28, DW_AT_decl_column(0x06)
     170                    $C$DW$29        .dwtag  DW_TAG_formal_parameter
     171                            .dwattr $C$DW$29, DW_AT_type(*$C$DW$T$10)
     172                    $C$DW$30        .dwtag  DW_TAG_formal_parameter
     173                            .dwattr $C$DW$30, DW_AT_type(*$C$DW$T$38)
     174                    $C$DW$31        .dwtag  DW_TAG_formal_parameter
     175                            .dwattr $C$DW$31, DW_AT_type(*$C$DW$T$38)
     176                            .dwendtag $C$DW$28
     177                    
     178                    
     179                    $C$DW$32        .dwtag  DW_TAG_subprogram, DW_AT_name("initStack")
     180                            .dwattr $C$DW$32, DW_AT_TI_symbol_name("initStack")
     181                            .dwattr $C$DW$32, DW_AT_declaration
     182                            .dwattr $C$DW$32, DW_AT_external
     183                            .dwattr $C$DW$32, DW_AT_decl_file(".\..\packages\ti\vlib\src\VLIB_ORB_getHarrisScore\..\common
     184                            .dwattr $C$DW$32, DW_AT_decl_line(0x80)
     185                            .dwattr $C$DW$32, DW_AT_decl_column(0x06)
     186                    $C$DW$33        .dwtag  DW_TAG_formal_parameter
     187                            .dwattr $C$DW$33, DW_AT_type(*$C$DW$T$35)
     188                            .dwendtag $C$DW$32
     189                    
     190                    
     191                    $C$DW$34        .dwtag  DW_TAG_subprogram, DW_AT_name("setStackDepth")
     192                            .dwattr $C$DW$34, DW_AT_TI_symbol_name("setStackDepth")
     193                            .dwattr $C$DW$34, DW_AT_declaration
     194                            .dwattr $C$DW$34, DW_AT_external
     195                            .dwattr $C$DW$34, DW_AT_decl_file(".\..\packages\ti\vlib\src\VLIB_ORB_getHarrisScore\..\common
     196                            .dwattr $C$DW$34, DW_AT_decl_line(0x81)
     197                            .dwattr $C$DW$34, DW_AT_decl_column(0x06)
     198                    
     199                    $C$DW$35        .dwtag  DW_TAG_subprogram, DW_AT_name("getSP")
     200                            .dwattr $C$DW$35, DW_AT_TI_symbol_name("getSP")
     201                            .dwattr $C$DW$35, DW_AT_type(*$C$DW$T$35)
     202                            .dwattr $C$DW$35, DW_AT_declaration
     203                            .dwattr $C$DW$35, DW_AT_external
     204                            .dwattr $C$DW$35, DW_AT_decl_file(".\..\packages\ti\vlib\src\VLIB_ORB_getHarrisScore\..\common
     205                            .dwattr $C$DW$35, DW_AT_decl_line(0x82)
     206                            .dwattr $C$DW$35, DW_AT_decl_column(0x0a)
     207                    
     208                    $C$DW$36        .dwtag  DW_TAG_subprogram, DW_AT_name("VLIB_stack_memory")
     209                            .dwattr $C$DW$36, DW_AT_TI_symbol_name("VLIB_stack_memory")
     210                            .dwattr $C$DW$36, DW_AT_declaration
     211                            .dwattr $C$DW$36, DW_AT_external
     212                            .dwattr $C$DW$36, DW_AT_decl_file(".\..\packages\ti\vlib\src\VLIB_ORB_getHarrisScore\..\common
     213                            .dwattr $C$DW$36, DW_AT_decl_line(0x83)
     214                            .dwattr $C$DW$36, DW_AT_decl_column(0x06)
     215                    
     216                    $C$DW$37        .dwtag  DW_TAG_subprogram, DW_AT_name("VLIB_fillBuffer")
     217                            .dwattr $C$DW$37, DW_AT_TI_symbol_name("VLIB_fillBuffer")
     218                            .dwattr $C$DW$37, DW_AT_declaration
     219                            .dwattr $C$DW$37, DW_AT_external
     220                            .dwattr $C$DW$37, DW_AT_decl_file(".\..\packages\ti\vlib\src\VLIB_ORB_getHarrisScore\../common
TMS320C6x Assembler PC v7.4.2 Thu Mar 19 12:44:02 2015

Tools Copyright (c) 1996-2012 Texas Instruments Incorporated
package/lib/Regression/regress_d_c/./../packages/ti/vlib/src/VLIB_ORB_getHarrisScore/VLIB_ORB_getHarrisScore_d.se66 PAGE    5

     221                            .dwattr $C$DW$37, DW_AT_decl_line(0x77)
     222                            .dwattr $C$DW$37, DW_AT_decl_column(0x06)
     223                    $C$DW$38        .dwtag  DW_TAG_formal_parameter
     224                            .dwattr $C$DW$38, DW_AT_type(*$C$DW$T$20)
     225                    $C$DW$39        .dwtag  DW_TAG_formal_parameter
     226                            .dwattr $C$DW$39, DW_AT_type(*$C$DW$T$20)
     227                    $C$DW$40        .dwtag  DW_TAG_formal_parameter
     228                            .dwattr $C$DW$40, DW_AT_type(*$C$DW$T$3)
     229                    $C$DW$41        .dwtag  DW_TAG_formal_parameter
     230                            .dwattr $C$DW$41, DW_AT_type(*$C$DW$T$3)
     231                    $C$DW$42        .dwtag  DW_TAG_formal_parameter
     232                            .dwattr $C$DW$42, DW_AT_type(*$C$DW$T$48)
     233                    $C$DW$43        .dwtag  DW_TAG_formal_parameter
     234                            .dwattr $C$DW$43, DW_AT_type(*$C$DW$T$48)
     235                    $C$DW$44        .dwtag  DW_TAG_formal_parameter
     236                            .dwattr $C$DW$44, DW_AT_type(*$C$DW$T$48)
     237                    $C$DW$45        .dwtag  DW_TAG_formal_parameter
     238                            .dwattr $C$DW$45, DW_AT_type(*$C$DW$T$20)
     239                    $C$DW$46        .dwtag  DW_TAG_formal_parameter
     240                            .dwattr $C$DW$46, DW_AT_type(*$C$DW$T$38)
     241                            .dwendtag $C$DW$37
     242                    
     243                    
     244                    $C$DW$47        .dwtag  DW_TAG_subprogram, DW_AT_name("VLIB_malloc")
     245                            .dwattr $C$DW$47, DW_AT_TI_symbol_name("VLIB_malloc")
     246                            .dwattr $C$DW$47, DW_AT_type(*$C$DW$T$3)
     247                            .dwattr $C$DW$47, DW_AT_declaration
     248                            .dwattr $C$DW$47, DW_AT_external
     249                            .dwattr $C$DW$47, DW_AT_decl_file(".\..\packages\ti\vlib\src\VLIB_ORB_getHarrisScore\../common
     250                            .dwattr $C$DW$47, DW_AT_decl_line(0xaf)
     251                            .dwattr $C$DW$47, DW_AT_decl_column(0x07)
     252                    $C$DW$48        .dwtag  DW_TAG_formal_parameter
     253                            .dwattr $C$DW$48, DW_AT_type(*$C$DW$T$111)
     254                            .dwendtag $C$DW$47
     255                    
     256                    
     257                    $C$DW$49        .dwtag  DW_TAG_subprogram, DW_AT_name("VLIB_free")
     258                            .dwattr $C$DW$49, DW_AT_TI_symbol_name("VLIB_free")
     259                            .dwattr $C$DW$49, DW_AT_declaration
     260                            .dwattr $C$DW$49, DW_AT_external
     261                            .dwattr $C$DW$49, DW_AT_decl_file(".\..\packages\ti\vlib\src\VLIB_ORB_getHarrisScore\../common
     262                            .dwattr $C$DW$49, DW_AT_decl_line(0xb4)
     263                            .dwattr $C$DW$49, DW_AT_decl_column(0x07)
     264                    $C$DW$50        .dwtag  DW_TAG_formal_parameter
     265                            .dwattr $C$DW$50, DW_AT_type(*$C$DW$T$3)
     266                            .dwendtag $C$DW$49
     267                    
     268                    
     269                    $C$DW$51        .dwtag  DW_TAG_subprogram, DW_AT_name("getCORBParameters")
     270                            .dwattr $C$DW$51, DW_AT_TI_symbol_name("getCORBParameters")
     271                            .dwattr $C$DW$51, DW_AT_type(*$C$DW$T$67)
     272                            .dwattr $C$DW$51, DW_AT_declaration
     273                            .dwattr $C$DW$51, DW_AT_external
     274                            .dwattr $C$DW$51, DW_AT_decl_file(".\..\packages\ti\vlib\src\VLIB_ORB_getHarrisScore\../common
     275                            .dwattr $C$DW$51, DW_AT_decl_line(0x46)
TMS320C6x Assembler PC v7.4.2 Thu Mar 19 12:44:02 2015

Tools Copyright (c) 1996-2012 Texas Instruments Incorporated
package/lib/Regression/regress_d_c/./../packages/ti/vlib/src/VLIB_ORB_getHarrisScore/VLIB_ORB_getHarrisScore_d.se66 PAGE    6

     276                            .dwattr $C$DW$51, DW_AT_decl_column(0x10)
     277                    $C$DW$52        .dwtag  DW_TAG_formal_parameter
     278                            .dwattr $C$DW$52, DW_AT_type(*$C$DW$T$10)
     279                    $C$DW$53        .dwtag  DW_TAG_formal_parameter
     280                            .dwattr $C$DW$53, DW_AT_type(*$C$DW$T$10)
     281                    $C$DW$54        .dwtag  DW_TAG_formal_parameter
     282                            .dwattr $C$DW$54, DW_AT_type(*$C$DW$T$10)
     283                    $C$DW$55        .dwtag  DW_TAG_formal_parameter
     284                            .dwattr $C$DW$55, DW_AT_type(*$C$DW$T$6)
     285                    $C$DW$56        .dwtag  DW_TAG_formal_parameter
     286                            .dwattr $C$DW$56, DW_AT_type(*$C$DW$T$10)
     287                            .dwendtag $C$DW$51
     288                    
     289                    
     290                    $C$DW$57        .dwtag  DW_TAG_subprogram, DW_AT_name("VLIB_ORB_getHarrisScore")
     291                            .dwattr $C$DW$57, DW_AT_TI_symbol_name("VLIB_ORB_getHarrisScore")
     292                            .dwattr $C$DW$57, DW_AT_type(*$C$DW$T$66)
     293                            .dwattr $C$DW$57, DW_AT_declaration
     294                            .dwattr $C$DW$57, DW_AT_external
     295                            .dwattr $C$DW$57, DW_AT_decl_file(".\..\packages\ti\vlib\src\VLIB_ORB_getHarrisScore\c66/VLIB_
     296                            .dwattr $C$DW$57, DW_AT_decl_line(0x78)
     297                            .dwattr $C$DW$57, DW_AT_decl_column(0x0c)
     298                    $C$DW$58        .dwtag  DW_TAG_formal_parameter
     299                            .dwattr $C$DW$58, DW_AT_type(*$C$DW$T$69)
     300                    $C$DW$59        .dwtag  DW_TAG_formal_parameter
     301                            .dwattr $C$DW$59, DW_AT_type(*$C$DW$T$72)
     302                    $C$DW$60        .dwtag  DW_TAG_formal_parameter
     303                            .dwattr $C$DW$60, DW_AT_type(*$C$DW$T$75)
     304                            .dwendtag $C$DW$57
     305                    
     306                    
     307                    $C$DW$61        .dwtag  DW_TAG_subprogram, DW_AT_name("VLIB_ORB_getHarrisScore_cn")
     308                            .dwattr $C$DW$61, DW_AT_TI_symbol_name("VLIB_ORB_getHarrisScore_cn")
     309                            .dwattr $C$DW$61, DW_AT_type(*$C$DW$T$66)
     310                            .dwattr $C$DW$61, DW_AT_declaration
     311                            .dwattr $C$DW$61, DW_AT_external
     312                            .dwattr $C$DW$61, DW_AT_decl_file(".\..\packages\ti\vlib\src\VLIB_ORB_getHarrisScore\VLIB_ORB_
     313                            .dwattr $C$DW$61, DW_AT_decl_line(0x23)
     314                            .dwattr $C$DW$61, DW_AT_decl_column(0x0c)
     315                    $C$DW$62        .dwtag  DW_TAG_formal_parameter
     316                            .dwattr $C$DW$62, DW_AT_type(*$C$DW$T$69)
     317                    $C$DW$63        .dwtag  DW_TAG_formal_parameter
     318                            .dwattr $C$DW$63, DW_AT_type(*$C$DW$T$72)
     319                    $C$DW$64        .dwtag  DW_TAG_formal_parameter
     320                            .dwattr $C$DW$64, DW_AT_type(*$C$DW$T$77)
     321                            .dwendtag $C$DW$61
     322                    
     323                    
     324                    $C$DW$65        .dwtag  DW_TAG_subprogram, DW_AT_name("orb_getHarrisScore_getTestParams")
     325                            .dwattr $C$DW$65, DW_AT_TI_symbol_name("orb_getHarrisScore_getTestParams")
     326                            .dwattr $C$DW$65, DW_AT_declaration
     327                            .dwattr $C$DW$65, DW_AT_external
     328                            .dwattr $C$DW$65, DW_AT_decl_file(".\..\packages\ti\vlib\src\VLIB_ORB_getHarrisScore\VLIB_ORB_
     329                            .dwattr $C$DW$65, DW_AT_decl_line(0x2d)
     330                            .dwattr $C$DW$65, DW_AT_decl_column(0x06)
TMS320C6x Assembler PC v7.4.2 Thu Mar 19 12:44:02 2015

Tools Copyright (c) 1996-2012 Texas Instruments Incorporated
package/lib/Regression/regress_d_c/./../packages/ti/vlib/src/VLIB_ORB_getHarrisScore/VLIB_ORB_getHarrisScore_d.se66 PAGE    7

     331                    $C$DW$66        .dwtag  DW_TAG_formal_parameter
     332                            .dwattr $C$DW$66, DW_AT_type(*$C$DW$T$102)
     333                    $C$DW$67        .dwtag  DW_TAG_formal_parameter
     334                            .dwattr $C$DW$67, DW_AT_type(*$C$DW$T$131)
     335                            .dwendtag $C$DW$65
     336                    
     337                    $C$DW$68        .dwtag  DW_TAG_variable, DW_AT_name("test_cases")
     338                            .dwattr $C$DW$68, DW_AT_TI_symbol_name("test_cases")
     339                            .dwattr $C$DW$68, DW_AT_type(*$C$DW$T$19)
     340                            .dwattr $C$DW$68, DW_AT_declaration
     341                            .dwattr $C$DW$68, DW_AT_external
     342                            .dwattr $C$DW$68, DW_AT_decl_file(".\..\packages\ti\vlib\src\VLIB_ORB_getHarrisScore\../common
     343                            .dwattr $C$DW$68, DW_AT_decl_line(0x60)
     344                            .dwattr $C$DW$68, DW_AT_decl_column(0x13)
     345                    $C$DW$69        .dwtag  DW_TAG_variable, DW_AT_name("act_kernel")
     346                            .dwattr $C$DW$69, DW_AT_TI_symbol_name("act_kernel")
     347                            .dwattr $C$DW$69, DW_AT_type(*$C$DW$T$10)
     348                            .dwattr $C$DW$69, DW_AT_declaration
     349                            .dwattr $C$DW$69, DW_AT_external
     350                            .dwattr $C$DW$69, DW_AT_decl_file(".\..\packages\ti\vlib\src\VLIB_ORB_getHarrisScore\../common
     351                            .dwattr $C$DW$69, DW_AT_decl_line(0x62)
     352                            .dwattr $C$DW$69, DW_AT_decl_column(0x13)
     353                    $C$DW$70        .dwtag  DW_TAG_variable, DW_AT_name("desc")
     354                            .dwattr $C$DW$70, DW_AT_TI_symbol_name("desc")
     355                            .dwattr $C$DW$70, DW_AT_type(*$C$DW$T$207)
     356                            .dwattr $C$DW$70, DW_AT_declaration
     357                            .dwattr $C$DW$70, DW_AT_external
     358                            .dwattr $C$DW$70, DW_AT_decl_file(".\..\packages\ti\vlib\src\VLIB_ORB_getHarrisScore\../common
     359                            .dwattr $C$DW$70, DW_AT_decl_line(0x63)
     360                            .dwattr $C$DW$70, DW_AT_decl_column(0x13)
     361                    $C$DW$71        .dwtag  DW_TAG_variable, DW_AT_name("testPatternString")
     362                            .dwattr $C$DW$71, DW_AT_TI_symbol_name("testPatternString")
     363                            .dwattr $C$DW$71, DW_AT_type(*$C$DW$T$207)
     364                            .dwattr $C$DW$71, DW_AT_declaration
     365                            .dwattr $C$DW$71, DW_AT_external
     366                            .dwattr $C$DW$71, DW_AT_decl_file(".\..\packages\ti\vlib\src\VLIB_ORB_getHarrisScore\../common
     367                            .dwattr $C$DW$71, DW_AT_decl_line(0x64)
     368                            .dwattr $C$DW$71, DW_AT_decl_column(0x13)
     369                    $C$DW$72        .dwtag  DW_TAG_variable, DW_AT_name("est_test")
     370                            .dwattr $C$DW$72, DW_AT_TI_symbol_name("est_test")
     371                            .dwattr $C$DW$72, DW_AT_type(*$C$DW$T$10)
     372                            .dwattr $C$DW$72, DW_AT_declaration
     373                            .dwattr $C$DW$72, DW_AT_external
     374                            .dwattr $C$DW$72, DW_AT_decl_file(".\..\packages\ti\vlib\src\VLIB_ORB_getHarrisScore\..\common
     375                            .dwattr $C$DW$72, DW_AT_decl_line(0x75)
     376                            .dwattr $C$DW$72, DW_AT_decl_column(0x14)
     377                    $C$DW$73        .dwtag  DW_TAG_variable, DW_AT_name("beg_count")
     378                            .dwattr $C$DW$73, DW_AT_TI_symbol_name("beg_count")
     379                            .dwattr $C$DW$73, DW_AT_type(*$C$DW$T$198)
     380                            .dwattr $C$DW$73, DW_AT_declaration
     381                            .dwattr $C$DW$73, DW_AT_external
     382                            .dwattr $C$DW$73, DW_AT_decl_file(".\..\packages\ti\vlib\src\VLIB_ORB_getHarrisScore\..\common
     383                            .dwattr $C$DW$73, DW_AT_decl_line(0x76)
     384                            .dwattr $C$DW$73, DW_AT_decl_column(0x14)
     385                    $C$DW$74        .dwtag  DW_TAG_variable, DW_AT_name("end_count")
TMS320C6x Assembler PC v7.4.2 Thu Mar 19 12:44:02 2015

Tools Copyright (c) 1996-2012 Texas Instruments Incorporated
package/lib/Regression/regress_d_c/./../packages/ti/vlib/src/VLIB_ORB_getHarrisScore/VLIB_ORB_getHarrisScore_d.se66 PAGE    8

     386                            .dwattr $C$DW$74, DW_AT_TI_symbol_name("end_count")
     387                            .dwattr $C$DW$74, DW_AT_type(*$C$DW$T$198)
     388                            .dwattr $C$DW$74, DW_AT_declaration
     389                            .dwattr $C$DW$74, DW_AT_external
     390                            .dwattr $C$DW$74, DW_AT_decl_file(".\..\packages\ti\vlib\src\VLIB_ORB_getHarrisScore\..\common
     391                            .dwattr $C$DW$74, DW_AT_decl_line(0x77)
     392                            .dwattr $C$DW$74, DW_AT_decl_column(0x14)
     393                    $C$DW$75        .dwtag  DW_TAG_variable, DW_AT_name("overhead")
     394                            .dwattr $C$DW$75, DW_AT_TI_symbol_name("overhead")
     395                            .dwattr $C$DW$75, DW_AT_type(*$C$DW$T$198)
     396                            .dwattr $C$DW$75, DW_AT_declaration
     397                            .dwattr $C$DW$75, DW_AT_external
     398                            .dwattr $C$DW$75, DW_AT_decl_file(".\..\packages\ti\vlib\src\VLIB_ORB_getHarrisScore\..\common
     399                            .dwattr $C$DW$75, DW_AT_decl_line(0x78)
     400                            .dwattr $C$DW$75, DW_AT_decl_column(0x14)
     401                    $C$DW$76        .dwtag  DW_TAG_variable, DW_AT_name("cycles")
     402                            .dwattr $C$DW$76, DW_AT_TI_symbol_name("cycles")
     403                            .dwattr $C$DW$76, DW_AT_type(*$C$DW$T$199)
     404                            .dwattr $C$DW$76, DW_AT_declaration
     405                            .dwattr $C$DW$76, DW_AT_external
     406                            .dwattr $C$DW$76, DW_AT_decl_file(".\..\packages\ti\vlib\src\VLIB_ORB_getHarrisScore\..\common
     407                            .dwattr $C$DW$76, DW_AT_decl_line(0x79)
     408                            .dwattr $C$DW$76, DW_AT_decl_column(0x14)
     409                    ;       C:\VLIB_Tools\CCSV5_4_0\ccsv5\tools\compiler\C6000\bin\opt6x.exe C:\\Users\\gtbldadm\\AppData\
     410 00000000                   .sect   ".text"
     411                            .clink
     412                            .global VLIB_ORB_getHarrisScore_d
     413                    
     414                    $C$DW$77        .dwtag  DW_TAG_subprogram, DW_AT_name("VLIB_ORB_getHarrisScore_d")
     415                            .dwattr $C$DW$77, DW_AT_low_pc(VLIB_ORB_getHarrisScore_d)
     416                            .dwattr $C$DW$77, DW_AT_high_pc(0x00)
     417                            .dwattr $C$DW$77, DW_AT_TI_symbol_name("VLIB_ORB_getHarrisScore_d")
     418                            .dwattr $C$DW$77, DW_AT_external
     419                            .dwattr $C$DW$77, DW_AT_TI_begin_file("./../packages/ti/vlib/src/VLIB_ORB_getHarrisScore/VLIB_
     420                            .dwattr $C$DW$77, DW_AT_TI_begin_line(0x26)
     421                            .dwattr $C$DW$77, DW_AT_TI_begin_column(0x06)
     422                            .dwattr $C$DW$77, DW_AT_decl_file("./../packages/ti/vlib/src/VLIB_ORB_getHarrisScore/VLIB_ORB_
     423                            .dwattr $C$DW$77, DW_AT_decl_line(0x26)
     424                            .dwattr $C$DW$77, DW_AT_decl_column(0x06)
     425                            .dwattr $C$DW$77, DW_AT_TI_max_frame_size(0x80)
     426                            .dwpsn  file "./../packages/ti/vlib/src/VLIB_ORB_getHarrisScore/VLIB_ORB_getHarrisScore_d.c",l
     427                    
     428                            .dwfde $C$DW$CIE, VLIB_ORB_getHarrisScore_d
     429                    $C$DW$78        .dwtag  DW_TAG_formal_parameter, DW_AT_name("LevelOfFeedback")
     430                            .dwattr $C$DW$78, DW_AT_TI_symbol_name("LevelOfFeedback")
     431                            .dwattr $C$DW$78, DW_AT_type(*$C$DW$T$20)
     432                            .dwattr $C$DW$78, DW_AT_location[DW_OP_reg4]
     433                    ;----------------------------------------------------------------------
     434                    ;  38 | void VLIB_ORB_getHarrisScore_d(uint8_t LevelOfFeedback)                
     435                    ;----------------------------------------------------------------------
     436                    
     437                    ;******************************************************************************
     438                    ;* FUNCTION NAME: VLIB_ORB_getHarrisScore_d                                   *
     439                    ;*                                                                            *
     440                    ;*   Regs Modified     : A0,A1,A2,A3,A4,A5,A6,A7,A8,A9,A10,A11,A12,A13,A14,   *
TMS320C6x Assembler PC v7.4.2 Thu Mar 19 12:44:02 2015

Tools Copyright (c) 1996-2012 Texas Instruments Incorporated
package/lib/Regression/regress_d_c/./../packages/ti/vlib/src/VLIB_ORB_getHarrisScore/VLIB_ORB_getHarrisScore_d.se66 PAGE    9

     441                    ;*                           A15,B0,B1,B2,B3,B4,B5,B6,B7,B8,B9,B10,B11,B12,   *
     442                    ;*                           B13,SP,A16,A17,A18,A19,A20,A21,A22,A23,A24,A25,  *
     443                    ;*                           A26,A27,A28,A29,A30,A31,B16,B17,B18,B19,B20,B21, *
     444                    ;*                           B22,B23,B24,B25,B26,B27,B28,B29,B30,B31          *
     445                    ;*   Regs Used         : A0,A1,A2,A3,A4,A5,A6,A7,A8,A9,A10,A11,A12,A13,A14,   *
     446                    ;*                           A15,B0,B1,B2,B3,B4,B5,B6,B7,B8,B9,B10,B11,B12,   *
     447                    ;*                           B13,DP,SP,A16,A17,A18,A19,A20,A21,A22,A23,A24,   *
     448                    ;*                           A25,A26,A27,A28,A29,A30,A31,B16,B17,B18,B19,B20, *
     449                    ;*                           B21,B22,B23,B24,B25,B26,B27,B28,B29,B30,B31      *
     450                    ;*   Local Frame Size  : 24 Args + 44 Auto + 56 Save = 124 byte               *
     451                    ;******************************************************************************
     452                    
     453                    ;******************************************************************************
     454                    ;*                                                                            *
     455                    ;* Using -g (debug) with optimization (-o3) may disable key optimizations!    *
     456                    ;*                                                                            *
     457                    ;******************************************************************************
     458 00000000           VLIB_ORB_getHarrisScore_d:
     459                    ;** --------------------------------------------------------------------------*
     460                    ;          EXCLUSIVE CPU CYCLES: 15
     461                    ;** 45  -----------------------    orb_getHarrisScore_getTestParams(&prm, &test_cases);
     462                    ;** 48  -----------------------    VLIB_profile_init(2, "VLIB_ORB_getHarrisScore");
     463                    ;** 51  -----------------------    if ( test_cases <= 0 ) goto g32;
     464                            .dwcfi  cfa_offset, 0
     465                    ;----------------------------------------------------------------------
     466                    ;  40 | int32_t    tpi;  /* test parameter index */                            
     467                    ;  43 | orb_getHarrisScore_testParams_t   *prm;                                
     468                    ;----------------------------------------------------------------------
     469 00000000     25f7             STW     .D2T1   A11,*SP--(8)      ; |39| 
     470                            .dwcfi  cfa_offset, 8
     471                            .dwcfi  save_reg_to_mem, 11, 0
     472 00000002     2577             STW     .D2T1   A10,*SP--(8)      ; |39| 
     473                            .dwcfi  cfa_offset, 16
     474                            .dwcfi  save_reg_to_mem, 10, -8
     475 00000004     9677             STDW    .D2T2   B13:B12,*SP--     ; |39| 
     476                            .dwcfi  cfa_offset, 24
     477                            .dwcfi  save_reg_to_mem, 29, -12
     478                            .dwcfi  save_reg_to_mem, 28, -16
     479 00000006     9577             STDW    .D2T2   B11:B10,*SP--     ; |39| 
     480                            .dwcfi  cfa_offset, 32
     481                            .dwcfi  save_reg_to_mem, 27, -20
     482                            .dwcfi  save_reg_to_mem, 26, -24
     483 00000008     8777             STDW    .D2T1   A15:A14,*SP--     ; |39| 
     484                            .dwcfi  cfa_offset, 40
     485                            .dwcfi  save_reg_to_mem, 15, -28
     486                            .dwcfi  save_reg_to_mem, 14, -32
     487 0000000a     8677             STDW    .D2T1   A13:A12,*SP--     ; |39| 
     488                            .dwcfi  cfa_offset, 48
     489                            .dwcfi  save_reg_to_mem, 13, -36
     490                            .dwcfi  save_reg_to_mem, 12, -40
     491 0000000c 01be94f6             STW     .D2T2   B3,*SP--(80)      ; |39| 
     492                            .dwcfi  cfa_offset, 128
     493                            .dwcfi  save_reg_to_mem, 19, 0
     494                    $C$DW$79        .dwtag  DW_TAG_variable, DW_AT_name("$O$C6")
     495                            .dwattr $C$DW$79, DW_AT_TI_symbol_name("$O$C6")
TMS320C6x Assembler PC v7.4.2 Thu Mar 19 12:44:02 2015

Tools Copyright (c) 1996-2012 Texas Instruments Incorporated
package/lib/Regression/regress_d_c/./../packages/ti/vlib/src/VLIB_ORB_getHarrisScore/VLIB_ORB_getHarrisScore_d.se66 PAGE   10

     496                            .dwattr $C$DW$79, DW_AT_type(*$C$DW$T$98)
     497                            .dwattr $C$DW$79, DW_AT_location[DW_OP_reg20]
     498                    $C$DW$80        .dwtag  DW_TAG_variable, DW_AT_name("$O$C7")
     499                            .dwattr $C$DW$80, DW_AT_TI_symbol_name("$O$C7")
     500                            .dwattr $C$DW$80, DW_AT_type(*$C$DW$T$98)
     501                            .dwattr $C$DW$80, DW_AT_location[DW_OP_reg23]
     502                    $C$DW$81        .dwtag  DW_TAG_variable, DW_AT_name("$O$C8")
     503                            .dwattr $C$DW$81, DW_AT_TI_symbol_name("$O$C8")
     504                            .dwattr $C$DW$81, DW_AT_type(*$C$DW$T$10)
     505                            .dwattr $C$DW$81, DW_AT_location[DW_OP_reg4]
     506                    $C$DW$82        .dwtag  DW_TAG_variable, DW_AT_name("$O$C9")
     507                            .dwattr $C$DW$82, DW_AT_TI_symbol_name("$O$C9")
     508                            .dwattr $C$DW$82, DW_AT_type(*$C$DW$T$10)
     509                            .dwattr $C$DW$82, DW_AT_location[DW_OP_regx 0x25]
     510                    $C$DW$83        .dwtag  DW_TAG_variable, DW_AT_name("$O$C10")
     511                            .dwattr $C$DW$83, DW_AT_TI_symbol_name("$O$C10")
     512                            .dwattr $C$DW$83, DW_AT_type(*$C$DW$T$98)
     513                            .dwattr $C$DW$83, DW_AT_location[DW_OP_reg20]
     514                    $C$DW$84        .dwtag  DW_TAG_variable, DW_AT_name("$O$C11")
     515                            .dwattr $C$DW$84, DW_AT_TI_symbol_name("$O$C11")
     516                            .dwattr $C$DW$84, DW_AT_type(*$C$DW$T$9)
     517                            .dwattr $C$DW$84, DW_AT_location[DW_OP_reg8]
     518                    $C$DW$85        .dwtag  DW_TAG_variable, DW_AT_name("$O$C12")
     519                            .dwattr $C$DW$85, DW_AT_TI_symbol_name("$O$C12")
     520                            .dwattr $C$DW$85, DW_AT_type(*$C$DW$T$98)
     521                            .dwattr $C$DW$85, DW_AT_location[DW_OP_reg21]
     522                    $C$DW$86        .dwtag  DW_TAG_variable, DW_AT_name("$O$C13")
     523                            .dwattr $C$DW$86, DW_AT_TI_symbol_name("$O$C13")
     524                            .dwattr $C$DW$86, DW_AT_type(*$C$DW$T$96)
     525                            .dwattr $C$DW$86, DW_AT_location[DW_OP_reg0]
     526                    $C$DW$87        .dwtag  DW_TAG_variable, DW_AT_name("$O$C14")
     527                            .dwattr $C$DW$87, DW_AT_TI_symbol_name("$O$C14")
     528                            .dwattr $C$DW$87, DW_AT_type(*$C$DW$T$96)
     529                            .dwattr $C$DW$87, DW_AT_location[DW_OP_reg2]
     530                    $C$DW$88        .dwtag  DW_TAG_variable, DW_AT_name("$O$C15")
     531                            .dwattr $C$DW$88, DW_AT_TI_symbol_name("$O$C15")
     532                            .dwattr $C$DW$88, DW_AT_type(*$C$DW$T$11)
     533                            .dwattr $C$DW$88, DW_AT_location[DW_OP_reg26]
     534                    $C$DW$89        .dwtag  DW_TAG_variable, DW_AT_name("$O$f4")
     535                            .dwattr $C$DW$89, DW_AT_TI_symbol_name("$O$f4")
     536                            .dwattr $C$DW$89, DW_AT_type(*$C$DW$T$10)
     537                            .dwattr $C$DW$89, DW_AT_location[DW_OP_reg0]
     538                    $C$DW$90        .dwtag  DW_TAG_variable, DW_AT_name("$O$f5")
     539                            .dwattr $C$DW$90, DW_AT_TI_symbol_name("$O$f5")
     540                            .dwattr $C$DW$90, DW_AT_type(*$C$DW$T$10)
     541                            .dwattr $C$DW$90, DW_AT_location[DW_OP_reg0]
     542                    $C$DW$91        .dwtag  DW_TAG_variable, DW_AT_name("$O$T3")
     543                            .dwattr $C$DW$91, DW_AT_TI_symbol_name("$O$T3")
     544                            .dwattr $C$DW$91, DW_AT_type(*$C$DW$T$11)
     545                            .dwattr $C$DW$91, DW_AT_location[DW_OP_reg20]
     546                    $C$DW$92        .dwtag  DW_TAG_variable, DW_AT_name("$O$U13")
     547                            .dwattr $C$DW$92, DW_AT_TI_symbol_name("$O$U13")
     548                            .dwattr $C$DW$92, DW_AT_type(*$C$DW$T$98)
     549                            .dwattr $C$DW$92, DW_AT_location[DW_OP_reg13]
     550                    $C$DW$93        .dwtag  DW_TAG_variable, DW_AT_name("$O$K23")
TMS320C6x Assembler PC v7.4.2 Thu Mar 19 12:44:02 2015

Tools Copyright (c) 1996-2012 Texas Instruments Incorporated
package/lib/Regression/regress_d_c/./../packages/ti/vlib/src/VLIB_ORB_getHarrisScore/VLIB_ORB_getHarrisScore_d.se66 PAGE   11

     551                            .dwattr $C$DW$93, DW_AT_TI_symbol_name("$O$K23")
     552                            .dwattr $C$DW$93, DW_AT_type(*$C$DW$T$11)
     553                            .dwattr $C$DW$93, DW_AT_location[DW_OP_reg4]
     554                    $C$DW$94        .dwtag  DW_TAG_variable, DW_AT_name("$O$U69")
     555                            .dwattr $C$DW$94, DW_AT_TI_symbol_name("$O$U69")
     556                            .dwattr $C$DW$94, DW_AT_type(*$C$DW$T$153)
     557                            .dwattr $C$DW$94, DW_AT_location[DW_OP_reg6]
     558                    $C$DW$95        .dwtag  DW_TAG_variable, DW_AT_name("$O$U84")
     559                            .dwattr $C$DW$95, DW_AT_TI_symbol_name("$O$U84")
     560                            .dwattr $C$DW$95, DW_AT_type(*$C$DW$T$11)
     561                            .dwattr $C$DW$95, DW_AT_location[DW_OP_reg23]
     562                    $C$DW$96        .dwtag  DW_TAG_variable, DW_AT_name("$O$K88")
     563                            .dwattr $C$DW$96, DW_AT_TI_symbol_name("$O$K88")
     564                            .dwattr $C$DW$96, DW_AT_type(*$C$DW$T$135)
     565                            .dwattr $C$DW$96, DW_AT_location[DW_OP_reg24]
     566                    $C$DW$97        .dwtag  DW_TAG_variable, DW_AT_name("$O$U12")
     567                            .dwattr $C$DW$97, DW_AT_TI_symbol_name("$O$U12")
     568                            .dwattr $C$DW$97, DW_AT_type(*$C$DW$T$10)
     569                            .dwattr $C$DW$97, DW_AT_location[DW_OP_reg28]
     570                    $C$DW$98        .dwtag  DW_TAG_variable, DW_AT_name("$O$U41")
     571                            .dwattr $C$DW$98, DW_AT_TI_symbol_name("$O$U41")
     572                            .dwattr $C$DW$98, DW_AT_type(*$C$DW$T$151)
     573                            .dwattr $C$DW$98, DW_AT_location[DW_OP_reg14]
     574                    $C$DW$99        .dwtag  DW_TAG_variable, DW_AT_name("$O$K94")
     575                            .dwattr $C$DW$99, DW_AT_TI_symbol_name("$O$K94")
     576                            .dwattr $C$DW$99, DW_AT_type(*$C$DW$T$10)
     577                            .dwattr $C$DW$99, DW_AT_location[DW_OP_reg25]
     578                    $C$DW$100       .dwtag  DW_TAG_variable, DW_AT_name("$O$K103")
     579                            .dwattr $C$DW$100, DW_AT_TI_symbol_name("$O$K103")
     580                            .dwattr $C$DW$100, DW_AT_type(*$C$DW$T$197)
     581                            .dwattr $C$DW$100, DW_AT_location[DW_OP_reg10]
     582                    $C$DW$101       .dwtag  DW_TAG_variable, DW_AT_name("$O$U43")
     583                            .dwattr $C$DW$101, DW_AT_TI_symbol_name("$O$U43")
     584                            .dwattr $C$DW$101, DW_AT_type(*$C$DW$T$10)
     585                            .dwattr $C$DW$101, DW_AT_location[DW_OP_reg10]
     586                    $C$DW$102       .dwtag  DW_TAG_variable, DW_AT_name("$O$U137")
     587                            .dwattr $C$DW$102, DW_AT_TI_symbol_name("$O$U137")
     588                            .dwattr $C$DW$102, DW_AT_type(*$C$DW$T$151)
     589                            .dwattr $C$DW$102, DW_AT_location[DW_OP_reg6]
     590                    $C$DW$103       .dwtag  DW_TAG_variable, DW_AT_name("$O$K148")
     591                            .dwattr $C$DW$103, DW_AT_TI_symbol_name("$O$K148")
     592                            .dwattr $C$DW$103, DW_AT_type(*$C$DW$T$135)
     593                            .dwattr $C$DW$103, DW_AT_location[DW_OP_reg11]
     594                    $C$DW$104       .dwtag  DW_TAG_variable, DW_AT_name("$O$L1")
     595                            .dwattr $C$DW$104, DW_AT_TI_symbol_name("$O$L1")
     596                            .dwattr $C$DW$104, DW_AT_type(*$C$DW$T$10)
     597                            .dwattr $C$DW$104, DW_AT_location[DW_OP_reg23]
     598                    $C$DW$105       .dwtag  DW_TAG_variable, DW_AT_name("$O$L2")
     599                            .dwattr $C$DW$105, DW_AT_TI_symbol_name("$O$L2")
     600                            .dwattr $C$DW$105, DW_AT_type(*$C$DW$T$10)
     601                            .dwattr $C$DW$105, DW_AT_location[DW_OP_reg5]
     602                    $C$DW$106       .dwtag  DW_TAG_variable, DW_AT_name("LevelOfFeedback")
     603                            .dwattr $C$DW$106, DW_AT_TI_symbol_name("LevelOfFeedback")
     604                            .dwattr $C$DW$106, DW_AT_type(*$C$DW$T$149)
     605                            .dwattr $C$DW$106, DW_AT_location[DW_OP_breg31 52]
TMS320C6x Assembler PC v7.4.2 Thu Mar 19 12:44:02 2015

Tools Copyright (c) 1996-2012 Texas Instruments Incorporated
package/lib/Regression/regress_d_c/./../packages/ti/vlib/src/VLIB_ORB_getHarrisScore/VLIB_ORB_getHarrisScore_d.se66 PAGE   12

     606                    $C$DW$107       .dwtag  DW_TAG_variable, DW_AT_name("tpi")
     607                            .dwattr $C$DW$107, DW_AT_TI_symbol_name("tpi")
     608                            .dwattr $C$DW$107, DW_AT_type(*$C$DW$T$19)
     609                            .dwattr $C$DW$107, DW_AT_location[DW_OP_reg27]
     610                    $C$DW$108       .dwtag  DW_TAG_variable, DW_AT_name("prm")
     611                            .dwattr $C$DW$108, DW_AT_TI_symbol_name("prm")
     612                            .dwattr $C$DW$108, DW_AT_type(*$C$DW$T$101)
     613                            .dwattr $C$DW$108, DW_AT_location[DW_OP_breg31 28]
     614                    $C$DW$109       .dwtag  DW_TAG_variable, DW_AT_name("status_nat_vs_int")
     615                            .dwattr $C$DW$109, DW_AT_TI_symbol_name("status_nat_vs_int")
     616                            .dwattr $C$DW$109, DW_AT_type(*$C$DW$T$19)
     617                            .dwattr $C$DW$109, DW_AT_location[DW_OP_reg29]
     618                    $C$DW$110       .dwtag  DW_TAG_variable, DW_AT_name("status_nat_vs_ref")
     619                            .dwattr $C$DW$110, DW_AT_TI_symbol_name("status_nat_vs_ref")
     620                            .dwattr $C$DW$110, DW_AT_type(*$C$DW$T$19)
     621                            .dwattr $C$DW$110, DW_AT_location[DW_OP_reg12]
     622                    $C$DW$111       .dwtag  DW_TAG_variable, DW_AT_name("nfeatures")
     623                            .dwattr $C$DW$111, DW_AT_TI_symbol_name("nfeatures")
     624                            .dwattr $C$DW$111, DW_AT_type(*$C$DW$T$35)
     625                            .dwattr $C$DW$111, DW_AT_location[DW_OP_reg10]
     626                    $C$DW$112       .dwtag  DW_TAG_variable, DW_AT_name("dummyPtr")
     627                            .dwattr $C$DW$112, DW_AT_TI_symbol_name("dummyPtr")
     628                            .dwattr $C$DW$112, DW_AT_type(*$C$DW$T$36)
     629                            .dwattr $C$DW$112, DW_AT_location[DW_OP_breg31 56]
     630                    $C$DW$113       .dwtag  DW_TAG_variable, DW_AT_name("orbInput")
     631                            .dwattr $C$DW$113, DW_AT_TI_symbol_name("orbInput")
     632                            .dwattr $C$DW$113, DW_AT_type(*$C$DW$T$94)
     633                            .dwattr $C$DW$113, DW_AT_location[DW_OP_breg31 60]
     634                    $C$DW$114       .dwtag  DW_TAG_variable, DW_AT_name("orbOutput")
     635                            .dwattr $C$DW$114, DW_AT_TI_symbol_name("orbOutput")
     636                            .dwattr $C$DW$114, DW_AT_type(*$C$DW$T$77)
     637                            .dwattr $C$DW$114, DW_AT_location[DW_OP_breg31 64]
     638                    $C$DW$115       .dwtag  DW_TAG_variable, DW_AT_name("orbOutput_cn")
     639                            .dwattr $C$DW$115, DW_AT_TI_symbol_name("orbOutput_cn")
     640                            .dwattr $C$DW$115, DW_AT_type(*$C$DW$T$77)
     641                            .dwattr $C$DW$115, DW_AT_location[DW_OP_breg31 68]
     642                    $C$DW$116       .dwtag  DW_TAG_variable, DW_AT_name("$O$U72")
     643                            .dwattr $C$DW$116, DW_AT_TI_symbol_name("$O$U72")
     644                            .dwattr $C$DW$116, DW_AT_type(*$C$DW$T$96)
     645                            .dwattr $C$DW$116, DW_AT_location[DW_OP_reg2]
     646                    $C$DW$117       .dwtag  DW_TAG_variable, DW_AT_name("$O$U72")
     647                            .dwattr $C$DW$117, DW_AT_TI_symbol_name("$O$U72")
     648                            .dwattr $C$DW$117, DW_AT_type(*$C$DW$T$96)
     649                            .dwattr $C$DW$117, DW_AT_location[DW_OP_reg7]
     650                    $C$DW$118       .dwtag  DW_TAG_variable, DW_AT_name("$O$U75")
     651                            .dwattr $C$DW$118, DW_AT_TI_symbol_name("$O$U75")
     652                            .dwattr $C$DW$118, DW_AT_type(*$C$DW$T$96)
     653                            .dwattr $C$DW$118, DW_AT_location[DW_OP_reg0]
     654                    $C$DW$119       .dwtag  DW_TAG_variable, DW_AT_name("$O$U75")
     655                            .dwattr $C$DW$119, DW_AT_TI_symbol_name("$O$U75")
     656                            .dwattr $C$DW$119, DW_AT_type(*$C$DW$T$96)
     657                            .dwattr $C$DW$119, DW_AT_location[DW_OP_reg6]
     658                    $C$DW$120       .dwtag  DW_TAG_variable, DW_AT_name("$O$U75")
     659                            .dwattr $C$DW$120, DW_AT_TI_symbol_name("$O$U75")
     660                            .dwattr $C$DW$120, DW_AT_type(*$C$DW$T$96)
TMS320C6x Assembler PC v7.4.2 Thu Mar 19 12:44:02 2015

Tools Copyright (c) 1996-2012 Texas Instruments Incorporated
package/lib/Regression/regress_d_c/./../packages/ti/vlib/src/VLIB_ORB_getHarrisScore/VLIB_ORB_getHarrisScore_d.se66 PAGE   13

     661                            .dwattr $C$DW$120, DW_AT_location[DW_OP_reg23]
     662                    $C$DW$121       .dwtag  DW_TAG_variable, DW_AT_name("i")
     663                            .dwattr $C$DW$121, DW_AT_TI_symbol_name("i")
     664                            .dwattr $C$DW$121, DW_AT_type(*$C$DW$T$19)
     665                            .dwattr $C$DW$121, DW_AT_location[DW_OP_reg5]
     666                    $C$DW$122       .dwtag  DW_TAG_variable, DW_AT_name("i")
     667                            .dwattr $C$DW$122, DW_AT_TI_symbol_name("i")
     668                            .dwattr $C$DW$122, DW_AT_type(*$C$DW$T$19)
     669                            .dwattr $C$DW$122, DW_AT_location[DW_OP_reg22]
     670                    $C$DW$123       .dwtag  DW_TAG_variable, DW_AT_name("$O$v1")
     671                            .dwattr $C$DW$123, DW_AT_TI_symbol_name("$O$v1")
     672                            .dwattr $C$DW$123, DW_AT_type(*$C$DW$T$101)
     673                            .dwattr $C$DW$123, DW_AT_location[DW_OP_reg26]
     674                    $C$DW$124       .dwtag  DW_TAG_variable, DW_AT_name("$O$v1")
     675                            .dwattr $C$DW$124, DW_AT_TI_symbol_name("$O$v1")
     676                            .dwattr $C$DW$124, DW_AT_type(*$C$DW$T$101)
     677                            .dwattr $C$DW$124, DW_AT_location[DW_OP_regx 0x35]
     678                    $C$DW$125       .dwtag  DW_TAG_variable, DW_AT_name("$O$v2")
     679                            .dwattr $C$DW$125, DW_AT_TI_symbol_name("$O$v2")
     680                            .dwattr $C$DW$125, DW_AT_type(*$C$DW$T$198)
     681                            .dwattr $C$DW$125, DW_AT_location[DW_OP_reg20]
     682                    $C$DW$126       .dwtag  DW_TAG_variable, DW_AT_name("$O$v2")
     683                            .dwattr $C$DW$126, DW_AT_TI_symbol_name("$O$v2")
     684                            .dwattr $C$DW$126, DW_AT_type(*$C$DW$T$198)
     685                            .dwattr $C$DW$126, DW_AT_location[DW_OP_reg24]
     686                    $C$DW$127       .dwtag  DW_TAG_variable, DW_AT_name("orbParams")
     687                            .dwattr $C$DW$127, DW_AT_TI_symbol_name("orbParams")
     688                            .dwattr $C$DW$127, DW_AT_type(*$C$DW$T$68)
     689                            .dwattr $C$DW$127, DW_AT_location[DW_OP_breg31 32]
     690 00000010 0500002a!            MVKL    .S2     test_cases,B10
     691 00000014 0500006a!            MVKH    .S2     test_cases,B10
     692                    $C$DW$128       .dwtag  DW_TAG_TI_branch
     693                            .dwattr $C$DW$128, DW_AT_low_pc(0x00)
     694                            .dwattr $C$DW$128, DW_AT_name("orb_getHarrisScore_getTestParams")
     695                            .dwattr $C$DW$128, DW_AT_TI_call
     696                    
     697 00000018 10000013!            CALLP   .S2     orb_getHarrisScore_getTestParams,B3
     698 00000020     8507  ||         MV      .L2     B10,B4            ; |45| 
     699 00000022     adc5  ||         STW     .D2T1   A4,*+SP(52)       ; |39| 
     700 00000024 120007fc  ||         ADDAW   .D1X    SP,7,A4           ; |45| 
     701                    
     702                            .dwpsn  file "./../packages/ti/vlib/src/VLIB_ORB_getHarrisScore/VLIB_ORB_getHarrisScore_d.c",l
     703                    ;----------------------------------------------------------------------
     704                    ;  45 | orb_getHarrisScore_getTestParams(&prm, &test_cases);                   
     705                    ;----------------------------------------------------------------------
     706 00000028           $C$RL0:    ; CALL OCCURS {orb_getHarrisScore_getTestParams} {0}  ; |45| 
     707                    ;** --------------------------------------------------------------------------*
     708                    ;          EXCLUSIVE CPU CYCLES: 8
     709 00000028 0200002a!            MVKL    .S2     $C$SL1+0,B4
     710 0000002c 0200006a!            MVKH    .S2     $C$SL1+0,B4
     711                    $C$DW$129       .dwtag  DW_TAG_TI_branch
     712                            .dwattr $C$DW$129, DW_AT_low_pc(0x00)
     713                            .dwattr $C$DW$129, DW_AT_name("VLIB_profile_init")
     714                            .dwattr $C$DW$129, DW_AT_TI_call
     715                    
TMS320C6x Assembler PC v7.4.2 Thu Mar 19 12:44:02 2015

Tools Copyright (c) 1996-2012 Texas Instruments Incorporated
package/lib/Regression/regress_d_c/./../packages/ti/vlib/src/VLIB_ORB_getHarrisScore/VLIB_ORB_getHarrisScore_d.se66 PAGE   14

     716 00000030 10000013!            CALLP   .S2     VLIB_profile_init,B3
     717 00000034     4626  ||         MVK     .L1     0x2,A4            ; |48| 
     718                    
     719                            .dwpsn  file "./../packages/ti/vlib/src/VLIB_ORB_getHarrisScore/VLIB_ORB_getHarrisScore_d.c",l
     720                    ;----------------------------------------------------------------------
     721                    ;  48 | VLIB_profile_init(2, "VLIB_ORB_getHarrisScore");                       
     722                    ;----------------------------------------------------------------------
     723 00000040           $C$RL1:    ; CALL OCCURS {VLIB_profile_init} {0}  ; |48| 
     724                    ;** --------------------------------------------------------------------------*
     725                    ;          EXCLUSIVE CPU CYCLES: 13
     726                    ;**     -----------------------    U$13 = prm-24;
     727                    ;**     -----------------------    K$23 = 369696u;
     728                    ;**     -----------------------    K$148 = &desc[0];
     729                    ;**     -----------------------    U$12 = 0;
     730                    ;** 51  -----------------------    tpi = 0;
     731                    ;**     -----------------------    #pragma LOOP_FLAGS(5120u)
     732                    
     733 00000040 0600a35b             ZERO    .L2     B12               ; |51| 
     734 00000044     ecbd  ||         LDW     .D2T1   *+SP(28),A3
     735 00000046     850f  ||         MV      .S2     B10,B4
     736                    
     737                            .dwpsn  file "./../packages/ti/vlib/src/VLIB_ORB_getHarrisScore/VLIB_ORB_getHarrisScore_d.c",l
     738                    ;----------------------------------------------------------------------
     739                    ;  51 | for( tpi=0; tpi < test_cases; tpi++ ) {                                
     740                    ;----------------------------------------------------------------------
     741 00000048 021002e6             LDW     .D2T2   *B4,B4            ; |51| 
     742 0000004c 05800028!            MVKL    .S1     desc,A11
     743                            .dwpsn  file "./../packages/ti/vlib/src/VLIB_ORB_getHarrisScore/VLIB_ORB_getHarrisScore_d.c",l
     744                    ;----------------------------------------------------------------------
     745                    ;  54 | int32_t    status_nat_vs_int = vlib_KERNEL_PASS; /* Test status : Natur
     746                    ;     | al c vs. Optimized */                                                  
     747                    ;  55 | int32_t    status_nat_vs_ref = vlib_KERNEL_PASS; /* Test status : Natur
     748                    ;     | al c vs. Static Reference */                                           
     749                    ;  61 | //uint32_t    nfeatures = CORB_MAX_FEATURES;           /* Typical in pr
     750                    ;     | oduction */                                                            
     751                    ;  62 | uint32_t    nfeatures = prm[tpi].true_num_features;   /* Used for the s
     752                    ;     | ake of this test for memory savings */                                 
     753                    ;----------------------------------------------------------------------
     754 00000050 0580a35a             ZERO    .L2     B11               ; |51| 
     755 00000054 05800068!            MVKH    .S1     desc,A11
     756 00000058 068f09c0             SUB     .D1     A3,24,A13
     757                    
     758 00000060     1227             CMPGT   .L2     B4,0,B0           ; |51| 
     759 00000064 06800c50  ||         ADDK    .S1     24,A13            ; |62| 
     760 00000062     0db6  ||         ADDAW   .D1X    SP,8,A3           ; |65| 
     761                    
     762 00000068 33764121     [!B0]   BNOP    .S1     $C$L23,2          ; |51| 
     763 0000006c 2534a265  || [ B0]   LDW     .D1T1   *+A13(20),A10     ; |62| 
     764 00000070 2328a359  || [ B0]   MVK     .L1     0xa,A6            ; |65| 
     765 00000074 23000a2a  || [ B0]   MVK     .S2     0x14,B6           ; |65| 
     766                    
     767                            .dwpsn  file "./../packages/ti/vlib/src/VLIB_ORB_getHarrisScore/VLIB_ORB_getHarrisScore_d.c",l
     768                    ;----------------------------------------------------------------------
     769                    ;  65 | const CORBParameters    orbParams = getCORBParameters(prm[tpi].imageWid
     770                    ;     | th, prm[tpi].imageHeight, 10, 20, nfeatures);                          
TMS320C6x Assembler PC v7.4.2 Thu Mar 19 12:44:02 2015

Tools Copyright (c) 1996-2012 Texas Instruments Incorporated
package/lib/Regression/regress_d_c/./../packages/ti/vlib/src/VLIB_ORB_getHarrisScore/VLIB_ORB_getHarrisScore_d.se66 PAGE   15

     771                    ;----------------------------------------------------------------------
     772 00000078 22352206     [ B0]   LDHU    .D1T2   *+A13(18),B4      ; |65| 
     773 00000080 22350204     [ B0]   LDHU    .D1T1   *+A13(16),A4      ; |65| 
     774 00000084 04280fd8             MV      .L1     A10,A8            ; |65| 
     775                            .dwpsn  file "./../packages/ti/vlib/src/VLIB_ORB_getHarrisScore/VLIB_ORB_getHarrisScore_d.c",l
     776                               ; BRANCHCC OCCURS {$C$L23}        ; |51| 
     777                    ;** --------------------------------------------------------------------------*
     778                    ;**   BEGIN LOOP $C$L1
     779                    ;** --------------------------------------------------------------------------*
     780 00000088           $C$L1:    
     781                            .dwpsn  file "./../packages/ti/vlib/src/VLIB_ORB_getHarrisScore/VLIB_ORB_getHarrisScore_d.c",l
     782 00000088           $C$DW$L$VLIB_ORB_getHarrisScore_d$4$B:
     783                    ;          EXCLUSIVE CPU CYCLES: 6
     784                    ;**     -----------------------g3:
     785                    ;** 62  -----------------------    nfeatures = (*(U$13 += 24)).true_num_features;
     786                    ;** 65  -----------------------    orbParams = getCORBParameters((int)(*U$13).imageWidth, (int)(*U$13)
     787                    ;** 69  -----------------------    orbInput = (struct $fake3 *)malloc(K$23);
     788                    ;** 70  -----------------------    orbOutput = (struct $fake5 *)VLIB_malloc(8u);
     789                    ;** 71  -----------------------    orbOutput_cn = (struct $fake5 *)malloc(8u);
     790                    ;** 73  -----------------------    if ( !((orbInput == NULL)|(orbOutput == NULL)|(orbOutput_cn == NULL
     791                    ;** 82  -----------------------    dummyPtr = NULL;
     792                    ;** 82  -----------------------    goto g6;
     793                            .dwpsn  file "./../packages/ti/vlib/src/VLIB_ORB_getHarrisScore/VLIB_ORB_getHarrisScore_d.c",l
     794                    ;----------------------------------------------------------------------
     795                    ;  68 | uint32_t     *dummyPtr      = (uint32_t *)1;                           
     796                    ;----------------------------------------------------------------------
     797                    $C$DW$130       .dwtag  DW_TAG_TI_branch
     798                            .dwattr $C$DW$130, DW_AT_low_pc(0x00)
     799                            .dwattr $C$DW$130, DW_AT_name("getCORBParameters")
     800                            .dwattr $C$DW$130, DW_AT_TI_call
     801 00000088 00000010!            CALL    .S1     getCORBParameters ; |65| 
     802 0000008c 01848162             ADDKPC  .S2     $C$RL2,B3,4       ; |65| 
     803 00000090           $C$RL2:    ; CALL OCCURS {getCORBParameters} {0}  ; |65| 
     804 00000090           $C$DW$L$VLIB_ORB_getHarrisScore_d$4$E:
     805                    ;** --------------------------------------------------------------------------*
     806 00000090           $C$DW$L$VLIB_ORB_getHarrisScore_d$5$B:
     807                    ;          EXCLUSIVE CPU CYCLES: 19
     808 00000090 02521028             MVKL    .S1     0x5a420,A4
     809                    $C$DW$131       .dwtag  DW_TAG_TI_branch
     810                            .dwattr $C$DW$131, DW_AT_low_pc(0x00)
     811                            .dwattr $C$DW$131, DW_AT_name("malloc")
     812                            .dwattr $C$DW$131, DW_AT_TI_call
     813                    
     814 00000094 10000013!            CALLP   .S2     malloc,B3
     815 00000098 020002e9  ||         MVKH    .S1     0x5a420,A4
     816                    
     817                            .dwpsn  file "./../packages/ti/vlib/src/VLIB_ORB_getHarrisScore/VLIB_ORB_getHarrisScore_d.c",l
     818                    ;----------------------------------------------------------------------
     819                    ;  69 | CORBInput    *orbInput      = (CORBInput  *) malloc(sizeof(CORBInput));
     820                    ;----------------------------------------------------------------------
     821                    $C$RL3:    ; CALL OCCURS {malloc} {0}        ; |69| 
     822                    $C$DW$132       .dwtag  DW_TAG_TI_branch
     823                            .dwattr $C$DW$132, DW_AT_low_pc(0x00)
     824                            .dwattr $C$DW$132, DW_AT_name("VLIB_malloc")
     825                            .dwattr $C$DW$132, DW_AT_TI_call
TMS320C6x Assembler PC v7.4.2 Thu Mar 19 12:44:02 2015

Tools Copyright (c) 1996-2012 Texas Instruments Incorporated
package/lib/Regression/regress_d_c/./../packages/ti/vlib/src/VLIB_ORB_getHarrisScore/VLIB_ORB_getHarrisScore_d.se66 PAGE   16

     826                    
     827 000000a0 10000013!            CALLP   .S2     VLIB_malloc,B3
     828 000000a4     edc5  ||         STW     .D2T1   A4,*+SP(60)       ; |69| 
     829 000000a6     0e26  ||         MVK     .L1     0x8,A4            ; |70| 
     830                    
     831                            .dwpsn  file "./../packages/ti/vlib/src/VLIB_ORB_getHarrisScore/VLIB_ORB_getHarrisScore_d.c",l
     832                    ;----------------------------------------------------------------------
     833                    ;  70 | CORBOutput   *orbOutput     = (CORBOutput *) VLIB_malloc(sizeof(CORBOut
     834                    ;     | put));                                                                 
     835                    ;----------------------------------------------------------------------
     836                    $C$RL4:    ; CALL OCCURS {VLIB_malloc} {0}   ; |70| 
     837                    $C$DW$133       .dwtag  DW_TAG_TI_branch
     838                            .dwattr $C$DW$133, DW_AT_low_pc(0x00)
     839                            .dwattr $C$DW$133, DW_AT_name("malloc")
     840                            .dwattr $C$DW$133, DW_AT_TI_call
     841                    
     842 000000a8 10000013!            CALLP   .S2     malloc,B3
     843 000000ac     8e45  ||         STW     .D2T1   A4,*+SP(64)       ; |70| 
     844 000000ae     0e26  ||         MVK     .L1     0x8,A4            ; |71| 
     845                    
     846                            .dwpsn  file "./../packages/ti/vlib/src/VLIB_ORB_getHarrisScore/VLIB_ORB_getHarrisScore_d.c",l
     847                    ;----------------------------------------------------------------------
     848                    ;  71 | CORBOutput   *orbOutput_cn  = (CORBOutput *) malloc(sizeof(CORBOutput))
     849                    ;     | ;                                                                      
     850                    ;----------------------------------------------------------------------
     851 000000b0           $C$RL5:    ; CALL OCCURS {malloc} {0}        ; |71| 
     852 000000b0           $C$DW$L$VLIB_ORB_getHarrisScore_d$5$E:
     853                    ;** --------------------------------------------------------------------------*
     854 000000b0           $C$DW$L$VLIB_ORB_getHarrisScore_d$6$B:
     855                    ;          EXCLUSIVE CPU CYCLES: 15
     856                    
     857 000000b0     06a7             ZERO    .L2     B5                ; |73| 
     858 000000b2     2246  ||         MV      .L1     A4,A1             ; |73| 
     859 000000b4     0213  ||         ZERO    .S2     B4                ; |73| 
     860 000000b6     8e0d  ||         LDW     .D2T1   *+SP(64),A0       ; |73| 
     861                    
     862                            .dwpsn  file "./../packages/ti/vlib/src/VLIB_ORB_getHarrisScore/VLIB_ORB_getHarrisScore_d.c",l
     863                    ;----------------------------------------------------------------------
     864                    ;  73 | if( orbInput && orbOutput && orbOutput_cn ) {                          
     865                    ;----------------------------------------------------------------------
     866 000000b8     edad             LDW     .D2T1   *+SP(60),A2       ; |73| 
     867 000000ba     05a6             ZERO    .L1     A3                ; |73| 
     868 000000c0 9204a35a     [!A1]   MVK     .L2     0x1,B4            ; |73| 
     869                            .dwpsn  file "./../packages/ti/vlib/src/VLIB_ORB_getHarrisScore/VLIB_ORB_getHarrisScore_d.c",l
     870 000000c4     ae45             STW     .D2T1   A4,*+SP(68)       ; |71| 
     871                            .dwpsn  file "./../packages/ti/vlib/src/VLIB_ORB_getHarrisScore/VLIB_ORB_getHarrisScore_d.c",l
     872 000000c6     69e6     [!A0]   MVK     .L1     0x1,A3            ; |73| 
     873 000000c8 b284a35a     [!A2]   MVK     .L2     0x1,B5            ; |73| 
     874 000000cc 028cbffa             OR      .L2X    A3,B5,B5          ; |73| 
     875 000000d0     86a9             OR      .L2     B4,B5,B0          ; |73| 
     876                    
     877 000000d4 20001491     [ B0]   B       .S1     $C$L2             ; |82| 
     878 000000d2     8a67  || [ B0]   ZERO    .L2     B4                ; |82| 
     879 000000d8 31b50204  || [!B0]   LDHU    .D1T1   *+A13(16),A3      ; |74| 
     880                    
TMS320C6x Assembler PC v7.4.2 Thu Mar 19 12:44:02 2015

Tools Copyright (c) 1996-2012 Texas Instruments Incorporated
package/lib/Regression/regress_d_c/./../packages/ti/vlib/src/VLIB_ORB_getHarrisScore/VLIB_ORB_getHarrisScore_d.se66 PAGE   17

     881 000000e0 223dc2f7     [ B0]   STW     .D2T2   B4,*+SP(56)       ; |82| 
     882 000000e4 32352204  || [!B0]   LDHU    .D1T1   *+A13(18),A4      ; |74| 
     883                    
     884 000000e8 203dc2e4     [ B0]   LDW     .D2T1   *+SP(56),A0
     885                            .dwpsn  file "./../packages/ti/vlib/src/VLIB_ORB_getHarrisScore/VLIB_ORB_getHarrisScore_d.c",l
     886                    ;----------------------------------------------------------------------
     887                    ;  74 | orbInput->harrisImage       = (int16_t *) VLIB_malloc(prm[tpi].imageWid
     888                    ;     | th * prm[tpi].imageHeight * sizeof(int16_t));                          
     889                    ;  76 | orbOutput->n_features       = prm[tpi].true_num_features;              
     890                    ;  77 | orbOutput->features         = (CORBFeature *) VLIB_malloc((nfeatures) *
     891                    ;     |  sizeof(CORBFeature));                                                 
     892                    ;  79 | orbOutput_cn->n_features    = prm[tpi].true_num_features;              
     893                    ;  80 | orbOutput_cn->features      = (CORBFeature *) malloc((nfeatures) * size
     894                    ;     | of(CORBFeature));                                                      
     895                    ;  81 | } else {                                                               
     896                    ;----------------------------------------------------------------------
     897                    $C$DW$134       .dwtag  DW_TAG_TI_branch
     898                            .dwattr $C$DW$134, DW_AT_low_pc(0x00)
     899                            .dwattr $C$DW$134, DW_AT_name("VLIB_malloc")
     900                            .dwattr $C$DW$134, DW_AT_TI_call
     901 000000ec 30000010!    [!B0]   CALL    .S1     VLIB_malloc       ; |74| 
     902 000000f0 00002000             NOP             2
     903                            .dwpsn  file "./../packages/ti/vlib/src/VLIB_ORB_getHarrisScore/VLIB_ORB_getHarrisScore_d.c",l
     904                    ;----------------------------------------------------------------------
     905                    ;  82 | dummyPtr = NULL;                                                       
     906                    ;----------------------------------------------------------------------
     907                               ; BRANCHCC OCCURS {$C$L2}         ; |82| 
     908 000000f4           $C$DW$L$VLIB_ORB_getHarrisScore_d$6$E:
     909                    ;** --------------------------------------------------------------------------*
     910                            .dwpsn  file "./../packages/ti/vlib/src/VLIB_ORB_getHarrisScore/VLIB_ORB_getHarrisScore_d.c",l
     911 000000f4           $C$DW$L$VLIB_ORB_getHarrisScore_d$7$B:
     912                    ;          EXCLUSIVE CPU CYCLES: 3
     913                    ;**     -----------------------g5:
     914                    ;** 74  -----------------------    (*orbInput).harrisImage = VLIB_malloc((unsigned)((*U$13).imageWidth
     915                    ;** 76  -----------------------    (*orbOutput).n_features = (*U$13).true_num_features;
     916                    ;** 77  -----------------------    C$15 = nfeatures*56u;
     917                    ;** 77  -----------------------    (*orbOutput).features = (struct $fake4 *)VLIB_malloc(C$15);
     918                    ;** 79  -----------------------    (*orbOutput_cn).n_features = (*U$13).true_num_features;
     919                    ;** 80  -----------------------    (*orbOutput_cn).features = (struct $fake4 *)malloc(C$15);
     920                    ;** 68  -----------------------    dummyPtr = (unsigned *)0x1u;
     921                            .dwpsn  file "./../packages/ti/vlib/src/VLIB_ORB_getHarrisScore/VLIB_ORB_getHarrisScore_d.c",l
     922 000000f4 018c8f80             MPYU    .M1     A4,A3,A3          ; |74| 
     923 000000f8 01880162             ADDKPC  .S2     $C$RL6,B3,0       ; |74| 
     924 000000fc 020c6078             ADD     .L1     A3,A3,A4          ; |74| 
     925 00000100           $C$RL6:    ; CALL OCCURS {VLIB_malloc} {0}   ; |74| 
     926 00000100           $C$DW$L$VLIB_ORB_getHarrisScore_d$7$E:
     927                    ;** --------------------------------------------------------------------------*
     928 00000100           $C$DW$L$VLIB_ORB_getHarrisScore_d$8$B:
     929                    ;          EXCLUSIVE CPU CYCLES: 36
     930 00000100 01bde2e4             LDW     .D2T1   *+SP(60),A3
     931 00000104 02b48228             MVKL    .S1     0x16904,A5
     932 00000108 028000e8             MVKH    .S1     0x16904,A5
     933                            .dwpsn  file "./../packages/ti/vlib/src/VLIB_ORB_getHarrisScore/VLIB_ORB_getHarrisScore_d.c",l
     934 0000010c 02287ca2             SHL     .S2X    A10,3,B4          ; |77| 
     935 00000110 02a8dca2             SHL     .S2X    A10,6,B5          ; |77| 
TMS320C6x Assembler PC v7.4.2 Thu Mar 19 12:44:02 2015

Tools Copyright (c) 1996-2012 Texas Instruments Incorporated
package/lib/Regression/regress_d_c/./../packages/ti/vlib/src/VLIB_ORB_getHarrisScore/VLIB_ORB_getHarrisScore_d.se66 PAGE   18

     936                            .dwpsn  file "./../packages/ti/vlib/src/VLIB_ORB_getHarrisScore/VLIB_ORB_getHarrisScore_d.c",l
     937 00000114 020caa74             STW     .D1T1   A4,*+A3[A5]       ; |74| 
     938                            .dwpsn  file "./../packages/ti/vlib/src/VLIB_ORB_getHarrisScore/VLIB_ORB_getHarrisScore_d.c",l
     939 00000118 0234a264             LDW     .D1T1   *+A13(20),A4      ; |76| 
     940                            .dwpsn  file "./../packages/ti/vlib/src/VLIB_ORB_getHarrisScore/VLIB_ORB_getHarrisScore_d.c",l
     941 0000011c 01be02e4             LDW     .D2T1   *+SP(64),A3       ; |77| 
     942 00000120 0510a0fa             SUB     .L2     B5,B4,B10         ; |77| 
     943 00000124     4c6e             NOP             3
     944                    $C$DW$135       .dwtag  DW_TAG_TI_branch
     945                            .dwattr $C$DW$135, DW_AT_low_pc(0x00)
     946                            .dwattr $C$DW$135, DW_AT_name("VLIB_malloc")
     947                            .dwattr $C$DW$135, DW_AT_TI_call
     948                    
     949 0000012c 10000012!            CALLP   .S2     VLIB_malloc,B3
     950 00000128 020c2275  ||         STW     .D1T1   A4,*+A3(4)        ; |76| 
     951 00000126     9506  ||         MV      .L1X    B10,A4            ; |77| 
     952                    
     953 00000130           $C$RL7:    ; CALL OCCURS {VLIB_malloc} {0}   ; |77| 
     954 00000130     8e3d             LDW     .D2T1   *+SP(64),A3       ; |77| 
     955 00000132     6c6e             NOP             4
     956 00000134 020c0274             STW     .D1T1   A4,*A3            ; |77| 
     957 00000138 01be22e4             LDW     .D2T1   *+SP(68),A3
     958                            .dwpsn  file "./../packages/ti/vlib/src/VLIB_ORB_getHarrisScore/VLIB_ORB_getHarrisScore_d.c",l
     959 00000140 0234a264             LDW     .D1T1   *+A13(20),A4      ; |79| 
     960 00000144     6c6e             NOP             4
     961                    $C$DW$136       .dwtag  DW_TAG_TI_branch
     962                            .dwattr $C$DW$136, DW_AT_low_pc(0x00)
     963                            .dwattr $C$DW$136, DW_AT_name("malloc")
     964                            .dwattr $C$DW$136, DW_AT_TI_call
     965                    
     966 0000014c 10000012!            CALLP   .S2     malloc,B3
     967 00000148 020c2275  ||         STW     .D1T1   A4,*+A3(4)        ; |79| 
     968 00000146     9506  ||         MV      .L1X    B10,A4            ; |80| 
     969                    
     970                            .dwpsn  file "./../packages/ti/vlib/src/VLIB_ORB_getHarrisScore/VLIB_ORB_getHarrisScore_d.c",l
     971 00000150           $C$RL8:    ; CALL OCCURS {malloc} {0}        ; |80| 
     972 00000150           $C$DW$L$VLIB_ORB_getHarrisScore_d$8$E:
     973                    ;** --------------------------------------------------------------------------*
     974 00000150           $C$DW$L$VLIB_ORB_getHarrisScore_d$9$B:
     975                    ;          EXCLUSIVE CPU CYCLES: 6
     976                    
     977 00000150     ae3d             LDW     .D2T1   *+SP(68),A3       ; |80| 
     978 00000152     2627  ||         MVK     .L2     0x1,B4            ; |68| 
     979                    
     980 00000154     ddc5             STW     .D2T2   B4,*+SP(56)       ; |80| 
     981 00000156     cd8d             LDW     .D2T1   *+SP(56),A0
     982 00000158 00002000             NOP             2
     983 00000160 020c0274             STW     .D1T1   A4,*A3            ; |80| 
     984 00000164           $C$DW$L$VLIB_ORB_getHarrisScore_d$9$E:
     985                    ;** --------------------------------------------------------------------------*
     986 00000164           $C$L2:    
     987                            .dwpsn  file "./../packages/ti/vlib/src/VLIB_ORB_getHarrisScore/VLIB_ORB_getHarrisScore_d.c",l
     988 00000164           $C$DW$L$VLIB_ORB_getHarrisScore_d$10$B:
     989                    ;          EXCLUSIVE CPU CYCLES: 7
     990                    ;**     -----------------------g6:
TMS320C6x Assembler PC v7.4.2 Thu Mar 19 12:44:02 2015

Tools Copyright (c) 1996-2012 Texas Instruments Incorporated
package/lib/Regression/regress_d_c/./../packages/ti/vlib/src/VLIB_ORB_getHarrisScore/VLIB_ORB_getHarrisScore_d.se66 PAGE   19

     991                    ;** 86  -----------------------    if ( dummyPtr == NULL ) goto g29;
     992 00000164 01be02e4             LDW     .D2T1   *+SP(64),A3
     993                    
     994 00000168 d2906121     [!A0]   BNOP    .S1     $C$L19,3          ; |86| 
     995 0000016c d83ce2e6  || [!A0]   LDW     .D2T2   *+SP(28),B16
     996                    
     997                            .dwpsn  file "./../packages/ti/vlib/src/VLIB_ORB_getHarrisScore/VLIB_ORB_getHarrisScore_d.c",l
     998                    ;----------------------------------------------------------------------
     999                    ;  86 | if( dummyPtr && orbOutput->features && orbOutput_cn->features && orbInp
    1000                    ;     | ut->harrisImage ) {                                                    
    1001                    ;  88 |     int32_t    fail;                                                   
    1002                    ;  89 |     int32_t    i;                                                      
    1003                    ;  92 |     for( i=0; i < prm[tpi].true_num_features; i++ ) {                  
    1004                    ;  93 |         orbOutput->features[i].x = prm[tpi].staticInFeatures[2 * i];   
    1005                    ;  94 |         orbOutput_cn->features[i].x = prm[tpi].staticInFeatures[2 * i];
    1006                    ;  95 |         orbOutput->features[i].y = prm[tpi].staticInFeatures[2 * i + 1]
    1007                    ;     | ;                                                                      
    1008                    ;  96 |         orbOutput_cn->features[i].y = prm[tpi].staticInFeatures[2 * i +
    1009                    ;     |  1];                                                                   
    1010                    ;  99 |     VLIB_fillBuffer(prm[tpi].testPattern,                              
    1011                    ; 100 |                     (uint8_t)255,                                      
    1012                    ; 101 |                     orbInput->harrisImage, prm[tpi].staticInHarris,    
    1013                    ; 102 |                     prm[tpi].imageWidth, prm[tpi].imageHeight, prm[tpi]
    1014                    ;     | .imageWidth * 2,                                                       
    1015                    ; 103 |                     sizeof(int16_t), testPatternString);               
    1016                    ; 106 |     VLIB_profile_start(vlib_KERNEL_OPT);                               
    1017                    ; 107 |     VLIB_ORB_getHarrisScore(&orbParams, orbInput, orbOutput);          
    1018                    ; 108 |     VLIB_profile_stop();                                               
    1019                    ; 111 |     VLIB_profile_start(vlib_KERNEL_CN);                                
    1020                    ; 112 |     VLIB_ORB_getHarrisScore_cn(&orbParams, orbInput, orbOutput_cn);    
    1021                    ; 113 |     VLIB_profile_stop();                                               
    1022                    ; 116 |     for( i=0; i < orbOutput->n_features; i++ ) {                       
    1023                    ; 117 |         if( orbOutput->features[i].harrisResponse != orbOutput_cn->feat
    1024                    ;     | ures[i].harrisResponse ) {                                             
    1025                    ; 118 |             status_nat_vs_int = vlib_KERNEL_FAIL;                      
    1026                    ; 119 |             if( LevelOfFeedback > 0 ) {                                
    1027                    ; 120 |                 printf(" Mismatch in Index = %u \n", i);               
    1028                    ; 122 |             break;                                                     
    1029                    ; 127 |     if((prm[tpi].testPattern == STATIC) && (prm[tpi].staticOut != NULL)
    1030                    ;     | ) {                                                                    
    1031                    ; 128 |         for( i=0; i < orbOutput->n_features; i++ ) {                   
    1032                    ; 129 |             if( orbOutput_cn->features[i].harrisResponse != prm[tpi].st
    1033                    ;     | aticOut[i] ) {                                                         
    1034                    ; 130 |                 status_nat_vs_ref = vlib_KERNEL_FAIL;                  
    1035                    ; 131 |                 if( LevelOfFeedback > 0 ) {                            
    1036                    ; 132 |                     printf(" Mismatch in Index = %u \n", i);           
    1037                    ; 134 |                 break;                                                 
    1038                    ; 140 |     fail = ((status_nat_vs_int == vlib_KERNEL_FAIL) ||                 
    1039                    ; 141 |             (status_nat_vs_ref == vlib_KERNEL_FAIL)) ? 1 : 0;          
    1040                    ; 143 |     est_test=1;                                                        
    1041                    ; 146 |     sprintf(desc, "%s generated input | Opt and NatC results compared |
    1042                    ;     |  input n_features= %d, width= %d, height= %d",                         
    1043                    ; 147 |             testPatternString, prm[tpi].true_num_features, prm[tpi].ima
    1044                    ;     | geWidth, prm[tpi].imageHeight);                                        
    1045                    ; 149 |     VLIB_formula_add_test(prm[tpi].true_num_features, NULL, NULL, fail,
TMS320C6x Assembler PC v7.4.2 Thu Mar 19 12:44:02 2015

Tools Copyright (c) 1996-2012 Texas Instruments Incorporated
package/lib/Regression/regress_d_c/./../packages/ti/vlib/src/VLIB_ORB_getHarrisScore/VLIB_ORB_getHarrisScore_d.se66 PAGE   20

    1046                    ;     |  desc, NULL);                                                          
    1047                    ; 151 | } else {                                                               
    1048                    ;----------------------------------------------------------------------
    1049 00000170 c10c0264     [ A0]   LDW     .D1T1   *A3,A2            ; |86| 
    1050 00000174     0c6e             NOP             1
    1051                               ; BRANCHCC OCCURS {$C$L19}        ; |86| 
    1052 00000176           $C$DW$L$VLIB_ORB_getHarrisScore_d$10$E:
    1053                    ;** --------------------------------------------------------------------------*
    1054 00000176           $C$DW$L$VLIB_ORB_getHarrisScore_d$11$B:
    1055                    ;          EXCLUSIVE CPU CYCLES: 9
    1056                    ;** 86  -----------------------    C$14 = (*orbOutput).features;
    1057                    ;** 86  -----------------------    if ( C$14 == NULL ) goto g28;
    1058 00000176     ae3d             LDW     .D2T1   *+SP(68),A3
    1059 00000178 00002000             NOP             2
    1060                    
    1061 00000180 b0009f11     [!A2]   B       .S1     $C$L18            ; |86| 
    1062 00000184 b83ce2e6  || [!A2]   LDW     .D2T2   *+SP(28),B16
    1063                    
    1064 00000188 b000a110     [!A2]   B       .S1     $C$L20
    1065 0000018c a00c0264     [ A2]   LDW     .D1T1   *A3,A0            ; |86| 
    1066 00000190 00004000             NOP             3
    1067                               ; BRANCHCC OCCURS {$C$L18}        ; |86| 
    1068 00000194           $C$DW$L$VLIB_ORB_getHarrisScore_d$11$E:
    1069                    ;** --------------------------------------------------------------------------*
    1070 00000194           $C$DW$L$VLIB_ORB_getHarrisScore_d$12$B:
    1071                    ;          EXCLUSIVE CPU CYCLES: 20
    1072                    ;** 86  -----------------------    C$13 = (*orbOutput_cn).features;
    1073                    ;** 86  -----------------------    if ( C$13 == NULL ) goto g27;
    1074                    ;** 86  -----------------------    v$1 = prm;
    1075                    ;** 86  -----------------------    U$41 = (*orbInput).harrisImage;
    1076                    ;** 86  -----------------------    if ( U$41 == NULL ) goto g30;
    1077 00000194 02348228             MVKL    .S1     0x16904,A4
    1078 00000198 c1bde2e4     [ A0]   LDW     .D2T1   *+SP(60),A3
    1079 0000019c 020000e8             MVKH    .S1     0x16904,A4
    1080 000001a0 c83ce2e6     [ A0]   LDW     .D2T2   *+SP(28),B16      ; |86| 
    1081 000001a4 d83ce2e6     [!A0]   LDW     .D2T2   *+SP(28),B16
    1082 000001a8 00000000             NOP             1
    1083 000001ac c70c8a64     [ A0]   LDW     .D1T1   *+A3[A4],A14      ; |86| 
    1084 000001b0     6c6e             NOP             4
    1085 000001b2     2706             MV      .L1     A14,A1
    1086 000001b4     48e6     [!A0]   ZERO    .L1     A1
    1087 000001b6     0c6e             NOP             1
    1088                    
    1089 000001c0     10c7             MV      .L2X    A1,B0             ; branch predicate copy
    1090 000001b8 90009f11  || [!A1]   B       .S1     $C$L21            ; |86| 
    1091                    
    1092 000001c4 3232007b     [!B0]   ADD     .L2     B16,B12,B4        ; |153| 
    1093 000001c2     30d7  ||         MV      .D2X    A1,B1             ; branch predicate copy
    1094 000001c8 80b4a265  || [ A1]   LDW     .D1T1   *+A13(20),A1      ; |92| 
    1095 000001cc 3300002a! || [!B0]   MVKL    .S2     $C$SL4+0,B6
    1096                    
    1097                            .dwpsn  file "./../packages/ti/vlib/src/VLIB_ORB_getHarrisScore/VLIB_ORB_getHarrisScore_d.c",l
    1098                    ;----------------------------------------------------------------------
    1099                    ; 153 | sprintf(desc, "input n_features= %d, width= %d, height= %d",           
    1100                    ;----------------------------------------------------------------------
TMS320C6x Assembler PC v7.4.2 Thu Mar 19 12:44:02 2015

Tools Copyright (c) 1996-2012 Texas Instruments Incorporated
package/lib/Regression/regress_d_c/./../packages/ti/vlib/src/VLIB_ORB_getHarrisScore/VLIB_ORB_getHarrisScore_d.se66 PAGE   21

    1101 000001d0 53912286     [!B1]   LDHU    .D2T2   *+B4(18),B7       ; |153| 
    1102 000001d4 52910286     [!B1]   LDHU    .D2T2   *+B4(16),B5       ; |153| 
    1103                    $C$DW$137       .dwtag  DW_TAG_TI_branch
    1104                            .dwattr $C$DW$137, DW_AT_low_pc(0x00)
    1105                            .dwattr $C$DW$137, DW_AT_name("sprintf")
    1106                            .dwattr $C$DW$137, DW_AT_TI_call
    1107                    
    1108 000001d8 50000011!    [!B1]   CALL    .S1     sprintf           ; |153| 
    1109 000001e0 5210a2e6  || [!B1]   LDW     .D2T2   *+B4(20),B4       ; |153| 
    1110                    
    1111 000001e4 5300006a!    [!B1]   MVKH    .S2     $C$SL4+0,B6
    1112                            .dwpsn  file "./../packages/ti/vlib/src/VLIB_ORB_getHarrisScore/VLIB_ORB_getHarrisScore_d.c",l
    1113                               ; BRANCHCC OCCURS {$C$L21}        ; |86| 
    1114 000001e8           $C$DW$L$VLIB_ORB_getHarrisScore_d$12$E:
    1115                    ;** --------------------------------------------------------------------------*
    1116 000001e8           $C$DW$L$VLIB_ORB_getHarrisScore_d$13$B:
    1117                    ;          EXCLUSIVE CPU CYCLES: 6
    1118                    ;**     -----------------------    K$94 = 255;
    1119                    ;** 92  -----------------------    if ( !(*U$13).true_num_features ) goto g13;
    1120                    
    1121 000001e8 022c8ca3             SHL     .S2     B11,4,B4
    1122 000001ec 90000c90  || [!A1]   B       .S1     $C$L6             ; |92| 
    1123                    
    1124 000001f0 02117e42             ADDAD   .D2     B4,B11,B4
    1125 000001f4 0292007a             ADD     .L2     B16,B4,B5
    1126 000001f8 821422e6     [ A1]   LDW     .D2T2   *+B5(4),B4
    1127 000001fc 04807faa             MVK     .S2     0xff,B9
    1128 00000200     0c6e             NOP             1
    1129                            .dwpsn  file "./../packages/ti/vlib/src/VLIB_ORB_getHarrisScore/VLIB_ORB_getHarrisScore_d.c",l
    1130                               ; BRANCHCC OCCURS {$C$L6}         ; |92| 
    1131 00000202           $C$DW$L$VLIB_ORB_getHarrisScore_d$13$E:
    1132                    ;** --------------------------------------------------------------------------*
    1133 00000202           $C$DW$L$VLIB_ORB_getHarrisScore_d$14$B:
    1134                    ;          EXCLUSIVE CPU CYCLES: 3
    1135                    ;**     -----------------------    C$12 = &v$1[tpi];
    1136                    ;**     -----------------------    U$69 = (*C$12).staticInFeatures-4;
    1137                    ;**     -----------------------    U$72 = C$14;
    1138                    ;**     -----------------------    U$75 = C$13;
    1139                    ;**     -----------------------    U$84 = (*C$12).true_num_features;
    1140                    ;**     -----------------------    T$3 = 0u;
    1141                    ;**     -----------------------    #pragma MUST_ITERATE(1, 4294967295, 1)
    1142                    ;**     -----------------------    #pragma LOOP_FLAGS(0u)
    1143                    ;**     -----------------------g12:
    1144                    ;** 93  -----------------------    (*U$72).x = *(U$69 += 2);
    1145                    ;** 94  -----------------------    (*U$75).x = *U$69;
    1146                    ;** 95  -----------------------    (*U$72++{56}).y = U$69[1];
    1147                    ;** 96  -----------------------    (*U$75++{56}).y = U$69[1];
    1148                    ;** 92  -----------------------    if ( (++T$3) < U$84 ) goto g12;
    1149                    
    1150 00000202     d147             MV      .L2X    A2,B6
    1151 00000204     a046  ||         MV      .L1     A0,A5
    1152                    
    1153 00000206     b0fd             LDW     .D2T2   *+B5(20),B7
    1154                    
    1155 00000208     9e60             SUB     .L1X    B4,4,A6
TMS320C6x Assembler PC v7.4.2 Thu Mar 19 12:44:02 2015

Tools Copyright (c) 1996-2012 Texas Instruments Incorporated
package/lib/Regression/regress_d_c/./../packages/ti/vlib/src/VLIB_ORB_getHarrisScore/VLIB_ORB_getHarrisScore_d.se66 PAGE   22

    1156 0000020a     0627  ||         ZERO    .L2     B4
    1157                    
    1158 0000020c           $C$DW$L$VLIB_ORB_getHarrisScore_d$14$E:
    1159                    ;*----------------------------------------------------------------------------*
    1160                    ;*   SOFTWARE PIPELINE INFORMATION
    1161                    ;*
    1162                    ;*      Loop found in file               : ./../packages/ti/vlib/src/VLIB_ORB_getHarrisScore/VLIB_ORB_
    1163                    ;*      Loop source line                 : 92
    1164                    ;*      Loop opening brace source line   : 92
    1165                    ;*      Loop closing brace source line   : 97
    1166                    ;*      Known Minimum Trip Count         : 1                    
    1167                    ;*      Known Max Trip Count Factor      : 1
    1168                    ;*      Loop Carried Dependency Bound(^) : 24
    1169                    ;*      Unpartitioned Resource Bound     : 5
    1170                    ;*      Partitioned Resource Bound(*)    : 6
    1171                    ;*      Resource Partition:
    1172                    ;*                                A-side   B-side
    1173                    ;*      .L units                     1        0     
    1174                    ;*      .S units                     1        1     
    1175                    ;*      .D units                     6*       3     
    1176                    ;*      .M units                     0        0     
    1177                    ;*      .X cross paths               0        0     
    1178                    ;*      .T address paths             4        4     
    1179                    ;*      Long read paths              0        0     
    1180                    ;*      Long write paths             0        0     
    1181                    ;*      Logical  ops (.LS)           0        0     (.L or .S unit)
    1182                    ;*      Addition ops (.LSD)          2        1     (.L or .S or .D unit)
    1183                    ;*      Bound(.L .S .LS)             1        1     
    1184                    ;*      Bound(.L .S .D .LS .LSD)     4        2     
    1185                    ;*
    1186                    ;*      Searching for software pipeline schedule at ...
    1187                    ;*         ii = 24 Schedule found with 1 iterations in parallel
    1188                    ;*
    1189                    ;*      Register Usage Table:
    1190                    ;*          +-----------------------------------------------------------------+
    1191                    ;*          |AAAAAAAAAAAAAAAAAAAAAAAAAAAAAAAA|BBBBBBBBBBBBBBBBBBBBBBBBBBBBBBBB|
    1192                    ;*          |00000000001111111111222222222233|00000000001111111111222222222233|
    1193                    ;*          |01234567890123456789012345678901|01234567890123456789012345678901|
    1194                    ;*          |--------------------------------+--------------------------------|
    1195                    ;*       0: |     **                         |    * **                        |
    1196                    ;*       1: |   ****                         |    * **                        |
    1197                    ;*       2: |   ****                         |    * **                        |
    1198                    ;*       3: |   ****                         |    * **                        |
    1199                    ;*       4: |   ****                         |    * **                        |
    1200                    ;*       5: |   ****                         |    * **                        |
    1201                    ;*       6: |    ***                         |    * **                        |
    1202                    ;*       7: |   ****                         |    * **                        |
    1203                    ;*       8: |   ****                         |    * **                        |
    1204                    ;*       9: |   ****                         |    * **                        |
    1205                    ;*      10: |   ****                         |    * **                        |
    1206                    ;*      11: |   ****                         |    * **                        |
    1207                    ;*      12: |    ***                         |    * **                        |
    1208                    ;*      13: |    ***                         |    ****                        |
    1209                    ;*      14: |    ***                         |    ****                        |
    1210                    ;*      15: |    ***                         |    ****                        |
TMS320C6x Assembler PC v7.4.2 Thu Mar 19 12:44:02 2015

Tools Copyright (c) 1996-2012 Texas Instruments Incorporated
package/lib/Regression/regress_d_c/./../packages/ti/vlib/src/VLIB_ORB_getHarrisScore/VLIB_ORB_getHarrisScore_d.se66 PAGE   23

    1211                    ;*      16: |    ***                         |    ****                        |
    1212                    ;*      17: |    ***                         |    *****                       |
    1213                    ;*      18: |    ***                         |*   * **                        |
    1214                    ;*      19: |   ****                         |    * **                        |
    1215                    ;*      20: |   ****                         |    * **                        |
    1216                    ;*      21: |   ****                         |    * **                        |
    1217                    ;*      22: |   ****                         |    * **                        |
    1218                    ;*      23: |   ****                         |    * **                        |
    1219                    ;*          +-----------------------------------------------------------------+
    1220                    ;*
    1221                    ;*      Done
    1222                    ;*
    1223                    ;*      Loop is interruptible
    1224                    ;*      Collapsed epilog stages       : 0
    1225                    ;*      Collapsed prolog stages       : 0
    1226                    ;*
    1227                    ;*      Minimum safe trip count       : 1
    1228                    ;*
    1229                    ;*
    1230                    ;*      Mem bank conflicts/iter(est.) : { min 0.000, est 0.000, max 0.000 }
    1231                    ;*      Mem bank perf. penalty (est.) : 0.0%
    1232                    ;*
    1233                    ;*
    1234                    ;*      Total cycles (est.)         : 0 + trip_cnt * 24        
    1235                    ;*----------------------------------------------------------------------------*
    1236                    ;*        SINGLE SCHEDULED ITERATION
    1237                    ;*
    1238                    ;*        $C$C232:
    1239                    ;*   0              LDHU    .D1T1   *++A6(4),A3       ; |93|  ^ 
    1240                    ;*     ||           MV      .L1     A5,A4             ; |96| 
    1241                    ;*   1              NOP             4
    1242                    ;*   5              STW     .D2T1   A3,*B6            ; |93|  ^ 
    1243                    ;*   6              LDHU    .D1T1   *A6,A3            ; |94|  ^ 
    1244                    ;*   7              NOP             4
    1245                    ;*  11              STW     .D1T1   A3,*A5            ; |94|  ^ 
    1246                    ;*  12              LDHU    .D1T2   *+A6(2),B5        ; |95|  ^ 
    1247                    ;*  13              NOP             3
    1248                    ;*  16              MV      .S2     B6,B8             ; |95| 
    1249                    ;*     ||           ADD     .L2     1,B4,B4           ; |92| 
    1250                    ;*  17              STW     .D2T2   B5,*+B8(4)        ; |95|  ^ 
    1251                    ;*     ||           CMPLTU  .L2     B4,B7,B0          ; |92| 
    1252                    ;*  18              LDHU    .D1T1   *+A6(2),A3        ; |96|  ^ 
    1253                    ;*     ||   [ B0]   B       .S2     $C$C232           ; |92| 
    1254                    ;*  19              NOP             4
    1255                    ;*  23              ADDAD   .D2     B6,7,B6           ; |95| 
    1256                    ;*     ||           ADDK    .S1     56,A5             ; |96| Define a twin register
    1257                    ;*     ||           STW     .D1T1   A3,*+A4(4)        ; |96|  ^ 
    1258                    ;*  24              ; BRANCHCC OCCURS {$C$C232}       ; |92| 
    1259                    ;*----------------------------------------------------------------------------*
    1260 0000020c           $C$L3:    ; PIPED LOOP PROLOG
    1261                    ;** --------------------------------------------------------------------------*
    1262 0000020c           $C$L4:    ; PIPED LOOP KERNEL
    1263 0000020c           $C$DW$L$VLIB_ORB_getHarrisScore_d$16$B:
    1264                    ;          EXCLUSIVE CPU CYCLES: 24
    1265                    
TMS320C6x Assembler PC v7.4.2 Thu Mar 19 12:44:02 2015

Tools Copyright (c) 1996-2012 Texas Instruments Incorporated
package/lib/Regression/regress_d_c/./../packages/ti/vlib/src/VLIB_ORB_getHarrisScore/VLIB_ORB_getHarrisScore_d.se66 PAGE   24

    1266 0000020c 02140fd9             MV      .L1     A5,A4             ; |96| <0,0> 
    1267 00000210 01985204  ||         LDHU    .D1T1   *++A6(4),A3       ; |93| <0,0>  ^ 
    1268                    
    1269 00000214     6c6e             NOP             4
    1270                            .dwpsn  file "./../packages/ti/vlib/src/VLIB_ORB_getHarrisScore/VLIB_ORB_getHarrisScore_d.c",l
    1271 00000216     0135             STW     .D2T1   A3,*B6            ; |93| <0,5>  ^ 
    1272                            .dwpsn  file "./../packages/ti/vlib/src/VLIB_ORB_getHarrisScore/VLIB_ORB_getHarrisScore_d.c",l
    1273 00000218     033c             LDHU    .D1T1   *A6,A3            ; |94| <0,6>  ^ 
    1274 0000021a     6c6e             NOP             4
    1275 00000220     00b4             STW     .D1T1   A3,*A5            ; |94| <0,11>  ^ 
    1276                            .dwpsn  file "./../packages/ti/vlib/src/VLIB_ORB_getHarrisScore/VLIB_ORB_getHarrisScore_d.c",l
    1277 00000222     335c             LDHU    .D1T2   *+A6(2),B5        ; |95| <0,12>  ^ 
    1278 00000224     4c6e             NOP             3
    1279                    
    1280 00000226     2641             ADD     .L2     1,B4,B4           ; |92| <0,16> 
    1281 00000228     074f  ||         MV      .S2     B6,B8             ; |95| <0,16> 
    1282                    
    1283 0000022a     8fc9             CMPLTU  .L2     B4,B7,B0          ; |92| <0,17> 
    1284 0000022c 02a022f6  ||         STW     .D2T2   B5,*+B8(4)        ; |95| <0,17>  ^ 
    1285                    
    1286 00000230 2ff68123     [ B0]   BNOP    .S2     $C$L4,4           ; |92| <0,18> 
    1287 00000234     233c  ||         LDHU    .D1T1   *+A6(2),A3        ; |96| <0,18>  ^ 
    1288                    
    1289 00000240 0318fec2             ADDAD   .D2     B6,7,B6           ; |95| <0,23> 
    1290 00000238 02801c51  ||         ADDK    .S1     56,A5             ; |96| <0,23> Define a twin register
    1291 00000236     2034  ||         STW     .D1T1   A3,*+A4(4)        ; |96| <0,23>  ^ 
    1292                    
    1293 00000244           $C$DW$L$VLIB_ORB_getHarrisScore_d$16$E:
    1294                    ;** --------------------------------------------------------------------------*
    1295 00000244           $C$L5:    ; PIPED LOOP EPILOG
    1296                    ;** --------------------------------------------------------------------------*
    1297 00000244           $C$L6:    
    1298                            .dwpsn  file "./../packages/ti/vlib/src/VLIB_ORB_getHarrisScore/VLIB_ORB_getHarrisScore_d.c",l
    1299 00000244           $C$DW$L$VLIB_ORB_getHarrisScore_d$18$B:
    1300                    ;          EXCLUSIVE CPU CYCLES: 12
    1301                    ;**     -----------------------g13:
    1302                    ;** 99  -----------------------    C$10 = U$12+v$1;
    1303                    ;** 99  -----------------------    C$11 = (*C$10).imageWidth;
    1304                    ;** 99  -----------------------    VLIB_fillBuffer((*C$10).testPattern, (unsigned char)K$94, U$41, (*C
    1305                    ;** 137 -----------------------    act_kernel = 0;  // [14]
    1306                    ;** 140 -----------------------    VLIB_cache_inval();  // [14]
    1307                    ;** 143 -----------------------    initStack(getSP());  // [14]
    1308                    ;** 146 -----------------------    beg_count = _itoll(TSCH, TSCL);  // [14]
    1309                    ;** 107 -----------------------    VLIB_ORB_getHarrisScore(&orbParams, orbInput, orbOutput);
    1310                    ;** 153 -----------------------    v$2 = _itoll(TSCH, TSCL);  // [15]
    1311                    ;** 153 -----------------------    end_count = v$2;  // [15]
    1312                    ;**     -----------------------    K$103 = &cycles[0];
    1313                    ;** 156 -----------------------    C$9 = act_kernel;  // [15]
    1314                    ;** 156 -----------------------    *((C$9<<3)+K$103) = *((C$9<<3)+K$103)+(v$2-(beg_count+overhead));  
    1315                    ;** 159 -----------------------    setStackDepth();  // [15]
    1316                    ;** 137 -----------------------    act_kernel = 1;  // [14]
    1317                    ;** 140 -----------------------    VLIB_cache_inval();  // [14]
    1318                    ;** 143 -----------------------    initStack(getSP());  // [14]
    1319                    ;** 146 -----------------------    beg_count = _itoll(TSCH, TSCL);  // [14]
    1320                    ;** 112 -----------------------    VLIB_ORB_getHarrisScore_cn(&orbParams, orbInput, orbOutput_cn);
TMS320C6x Assembler PC v7.4.2 Thu Mar 19 12:44:02 2015

Tools Copyright (c) 1996-2012 Texas Instruments Incorporated
package/lib/Regression/regress_d_c/./../packages/ti/vlib/src/VLIB_ORB_getHarrisScore/VLIB_ORB_getHarrisScore_d.se66 PAGE   25

    1321                    ;** 153 -----------------------    v$2 = _itoll(TSCH, TSCL);  // [15]
    1322                    ;** 153 -----------------------    end_count = v$2;  // [15]
    1323                    ;** 156 -----------------------    C$8 = act_kernel;  // [15]
    1324                    ;** 156 -----------------------    *((C$8<<3)+K$103) = *((C$8<<3)+K$103)+(v$2-(beg_count+overhead));  
    1325                    ;** 159 -----------------------    setStackDepth();  // [15]
    1326                            .dwpsn  file "./../packages/ti/vlib/src/VLIB_ORB_getHarrisScore/VLIB_ORB_getHarrisScore_d.c",l
    1327 00000244 0232007a             ADD     .L2     B16,B12,B4        ; |99| 
    1328 00000248 04110284             LDHU    .D2T1   *+B4(16),A8       ; |99| 
    1329 0000024c     506d             LDW     .D2T2   *+B4(8),B6        ; |99| 
    1330 0000024e     024d             LDBU    .D2T1   *B4,A4            ; |99| 
    1331 00000250 07800028!            MVKL    .S1     testPatternString,A15
    1332                    
    1333 00000254 04112287             LDHU    .D2T2   *+B4(18),B8       ; |99| 
    1334 00000258 07800069! ||         MVKH    .S1     testPatternString,A15
    1335 00000260 0227180a  ||         EXTU    .S2     B9,24,24,B4       ; |99| 
    1336                    
    1337                    $C$DW$138       .dwtag  DW_TAG_TI_branch
    1338                            .dwattr $C$DW$138, DW_AT_low_pc(0x00)
    1339                            .dwattr $C$DW$138, DW_AT_name("VLIB_fillBuffer")
    1340                            .dwattr $C$DW$138, DW_AT_TI_call
    1341                    
    1342 00000264 10000013!            CALLP   .S2     VLIB_fillBuffer,B3
    1343 00000268 05223009  ||         EXTU    .S1     A8,17,16,A10      ; |99| 
    1344 0000026c 063c0fd9  ||         MV      .L1     A15,A12           ; |99| 
    1345 00000270 033808f1  ||         MV      .D1     A14,A6            ; |99| 
    1346 00000274 0508a35a  ||         MVK     .L2     0x2,B10           ; |99| 
    1347                    
    1348 00000278           $C$RL9:    ; CALL OCCURS {VLIB_fillBuffer} {0}  ; |99| 
    1349 00000278           $C$DW$L$VLIB_ORB_getHarrisScore_d$18$E:
    1350                    ;** --------------------------------------------------------------------------*
    1351 00000278           $C$DW$L$VLIB_ORB_getHarrisScore_d$19$B:
    1352                    ;          EXCLUSIVE CPU CYCLES: 102
    1353 00000278 06000028!            MVKL    .S1     act_kernel,A12
    1354                    
    1355 0000027c 06000069!            MVKH    .S1     act_kernel,A12
    1356 00000280 0180a358  ||         ZERO    .L1     A3                ; |137| 
    1357                    
    1358                    $C$DW$139       .dwtag  DW_TAG_TI_branch
    1359                            .dwattr $C$DW$139, DW_AT_low_pc(0x00)
    1360                            .dwattr $C$DW$139, DW_AT_name("VLIB_cache_inval")
    1361                            .dwattr $C$DW$139, DW_AT_TI_call
    1362                    
    1363 00000284 10000013!            CALLP   .S2     VLIB_cache_inval,B3
    1364 00000288 01b00274  ||         STW     .D1T1   A3,*A12           ; |137| 
    1365                    
    1366                            .dwpsn  file ".\..\packages\ti\vlib\src\VLIB_ORB_getHarrisScore\..\common\VLIB_profile.h",line
    1367                    $C$RL10:   ; CALL OCCURS {VLIB_cache_inval} {0}  ; |140| 
    1368                    $C$DW$140       .dwtag  DW_TAG_TI_branch
    1369                            .dwattr $C$DW$140, DW_AT_low_pc(0x00)
    1370                            .dwattr $C$DW$140, DW_AT_name("getSP")
    1371                            .dwattr $C$DW$140, DW_AT_TI_call
    1372 0000028c 10000012!            CALLP   .S2     getSP,B3
    1373                            .dwpsn  file ".\..\packages\ti\vlib\src\VLIB_ORB_getHarrisScore\..\common\VLIB_profile.h",line
    1374                    $C$RL11:   ; CALL OCCURS {getSP} {0}         ; |143| 
    1375                    $C$DW$141       .dwtag  DW_TAG_TI_branch
TMS320C6x Assembler PC v7.4.2 Thu Mar 19 12:44:02 2015

Tools Copyright (c) 1996-2012 Texas Instruments Incorporated
package/lib/Regression/regress_d_c/./../packages/ti/vlib/src/VLIB_ORB_getHarrisScore/VLIB_ORB_getHarrisScore_d.se66 PAGE   26

    1376                            .dwattr $C$DW$141, DW_AT_low_pc(0x00)
    1377                            .dwattr $C$DW$141, DW_AT_name("initStack")
    1378                            .dwattr $C$DW$141, DW_AT_TI_call
    1379 00000290 10000012!            CALLP   .S2     initStack,B3
    1380 00000294           $C$RL12:   ; CALL OCCURS {initStack} {0}     ; |143| 
    1381                            .dwpsn  file ".\..\packages\ti\vlib\src\VLIB_ORB_getHarrisScore\..\common\VLIB_profile.h",line
    1382 00000294 032803e2             MVC     .S2     TSCL,B6           ; |146| 
    1383 00000298 022c03e2             MVC     .S2     TSCH,B4           ; |146| 
    1384 0000029c 07800028!            MVKL    .S1     beg_count,A15
    1385                    
    1386 000002a0     e247             MV      .L2     B4,B7             ; |146| 
    1387 000002a2     fdcd  ||         LDW     .D2T2   *+SP(60),B4       ; |107| 
    1388 000002a4 07800069! ||         MVKH    .S1     beg_count,A15
    1389 000002a8     0e36  ||         ADDAW   .D1X    SP,8,A4           ; |107| 
    1390                    
    1391                    $C$DW$142       .dwtag  DW_TAG_TI_branch
    1392                            .dwattr $C$DW$142, DW_AT_low_pc(0x00)
    1393                            .dwattr $C$DW$142, DW_AT_name("VLIB_ORB_getHarrisScore")
    1394                            .dwattr $C$DW$142, DW_AT_TI_call
    1395                    
    1396 000002ac 10000013!            CALLP   .S2     VLIB_ORB_getHarrisScore,B3
    1397 000002aa     8e6d  ||         LDW     .D2T1   *+SP(64),A6       ; |107| 
    1398 000002b0 033c0346  ||         STDW    .D1T2   B7:B6,*A15        ; |146| 
    1399                    
    1400                            .dwpsn  file "./../packages/ti/vlib/src/VLIB_ORB_getHarrisScore/VLIB_ORB_getHarrisScore_d.c",l
    1401 000002b4           $C$RL13:   ; CALL OCCURS {VLIB_ORB_getHarrisScore} {0}  ; |107| 
    1402                            .dwpsn  file ".\..\packages\ti\vlib\src\VLIB_ORB_getHarrisScore\..\common\VLIB_profile.h",line
    1403                    ;----------------------------------------------------------------------
    1404                    ; 154 | prm[tpi].true_num_features, prm[tpi].imageWidth, prm[tpi].imageHeight);
    1405                    ; 155 | VLIB_skip_test(desc);                                                  
    1406                    ;----------------------------------------------------------------------
    1407 000002b4 022803e2             MVC     .S2     TSCL,B4           ; |153| 
    1408 000002b8 02ac03e2             MVC     .S2     TSCH,B5           ; |153| 
    1409 000002c0 0500002a!            MVKL    .S2     overhead,B10
    1410                    
    1411 000002c4 0500006b!            MVKH    .S2     overhead,B10
    1412 000002c8 08300264  ||         LDW     .D1T1   *A12,A16          ; |156| 
    1413                    
    1414 000002cc 032803e7             LDDW    .D2T2   *B10,B7:B6        ; |156| 
    1415 000002d0 043c0364  ||         LDDW    .D1T1   *A15,A9:A8        ; |156| 
    1416                    
    1417 000002d4 0400002a!            MVKL    .S2     cycles,B8
    1418 000002d8 0400006a!            MVKH    .S2     cycles,B8
    1419 000002dc 00000000             NOP             1
    1420 000002e0 05201fd8             MV      .L1X    B8,A10
    1421                    
    1422 000002e4 02191579             ADDU    .L1X    B6,A8,A5:A4       ; |156| 
    1423 000002e8 032a0b64  ||         LDDW    .D1T1   *+A10[A16],A7:A6  ; |156| 
    1424                    
    1425                            .dwpsn  file ".\..\packages\ti\vlib\src\VLIB_ORB_getHarrisScore\..\common\VLIB_profile.h",line
    1426 000002ec 019cb078             ADD     .L1X    A5,B7,A3          ; |156| 
    1427 000002f0 01a46078             ADD     .L1     A3,A9,A3          ; |156| 
    1428 000002f4 021097f8             SUBU    .L1X    B4,A4,A5:A4       ; |156| 
    1429                    
    1430 000002f8 030cb0fb             SUB     .L2X    B5,A3,B6          ; |156| 
TMS320C6x Assembler PC v7.4.2 Thu Mar 19 12:44:02 2015

Tools Copyright (c) 1996-2012 Texas Instruments Incorporated
package/lib/Regression/regress_d_c/./../packages/ti/vlib/src/VLIB_ORB_getHarrisScore/VLIB_ORB_getHarrisScore_d.se66 PAGE   27

    1431 000002fc 0f971848  ||         EXT     .S1     A5,24,24,A31      ; |156| 
    1432                    
    1433 00000300 0210c579             ADDU    .L1     A6,A4,A5:A4       ; |156| 
    1434 00000304 01800028! ||         MVKL    .S1     end_count,A3
    1435                    
    1436 00000308 031bf079             ADD     .L1X    B6,A31,A6         ; |156| 
    1437 00000310     a3b6  ||         ADD     .D1     A5,A7,A5          ; |156| 
    1438 0000030c 01800069! ||         MVKH    .S1     end_count,A3
    1439                    
    1440 00000312     a350             ADD     .L1     A5,A6,A5          ; |156| 
    1441 00000314 020c0346  ||         STDW    .D1T2   B5:B4,*A3         ; |153| 
    1442                    
    1443                    $C$DW$143       .dwtag  DW_TAG_TI_branch
    1444                            .dwattr $C$DW$143, DW_AT_low_pc(0x00)
    1445                            .dwattr $C$DW$143, DW_AT_name("setStackDepth")
    1446                            .dwattr $C$DW$143, DW_AT_TI_call
    1447                    
    1448 00000318 10000013!            CALLP   .S2     setStackDepth,B3
    1449 00000320 022a0b44  ||         STDW    .D1T1   A5:A4,*+A10[A16]  ; |156| 
    1450                    
    1451                            .dwpsn  file ".\..\packages\ti\vlib\src\VLIB_ORB_getHarrisScore\..\common\VLIB_profile.h",line
    1452                    ;----------------------------------------------------------------------
    1453                    ; 159 | VLIB_free(orbInput->harrisImage);                                      
    1454                    ;----------------------------------------------------------------------
    1455 00000324           $C$RL14:   ; CALL OCCURS {setStackDepth} {0}  ; |159| 
    1456                            .dwpsn  file ".\..\packages\ti\vlib\src\VLIB_ORB_getHarrisScore\..\common\VLIB_profile.h",line
    1457 00000324 0184a358             MVK     .L1     1,A3              ; |137| 
    1458                    $C$DW$144       .dwtag  DW_TAG_TI_branch
    1459                            .dwattr $C$DW$144, DW_AT_low_pc(0x00)
    1460                            .dwattr $C$DW$144, DW_AT_name("VLIB_cache_inval")
    1461                            .dwattr $C$DW$144, DW_AT_TI_call
    1462                    
    1463 00000328 10000013!            CALLP   .S2     VLIB_cache_inval,B3
    1464 0000032c 01b00274  ||         STW     .D1T1   A3,*A12           ; |137| 
    1465                    
    1466                            .dwpsn  file ".\..\packages\ti\vlib\src\VLIB_ORB_getHarrisScore\..\common\VLIB_profile.h",line
    1467                    $C$RL15:   ; CALL OCCURS {VLIB_cache_inval} {0}  ; |140| 
    1468                    $C$DW$145       .dwtag  DW_TAG_TI_branch
    1469                            .dwattr $C$DW$145, DW_AT_low_pc(0x00)
    1470                            .dwattr $C$DW$145, DW_AT_name("getSP")
    1471                            .dwattr $C$DW$145, DW_AT_TI_call
    1472 00000330 10000012!            CALLP   .S2     getSP,B3
    1473                            .dwpsn  file ".\..\packages\ti\vlib\src\VLIB_ORB_getHarrisScore\..\common\VLIB_profile.h",line
    1474                    $C$RL16:   ; CALL OCCURS {getSP} {0}         ; |143| 
    1475                    $C$DW$146       .dwtag  DW_TAG_TI_branch
    1476                            .dwattr $C$DW$146, DW_AT_low_pc(0x00)
    1477                            .dwattr $C$DW$146, DW_AT_name("initStack")
    1478                            .dwattr $C$DW$146, DW_AT_TI_call
    1479 00000334 10000012!            CALLP   .S2     initStack,B3
    1480 00000338           $C$RL17:   ; CALL OCCURS {initStack} {0}     ; |143| 
    1481                            .dwpsn  file ".\..\packages\ti\vlib\src\VLIB_ORB_getHarrisScore\..\common\VLIB_profile.h",line
    1482 00000338 022803e2             MVC     .S2     TSCL,B4           ; |146| 
    1483 0000033c 02ac03e2             MVC     .S2     TSCH,B5           ; |146| 
    1484                    
    1485 00000340 023c0347             STDW    .D1T2   B5:B4,*A15        ; |146| 
TMS320C6x Assembler PC v7.4.2 Thu Mar 19 12:44:02 2015

Tools Copyright (c) 1996-2012 Texas Instruments Incorporated
package/lib/Regression/regress_d_c/./../packages/ti/vlib/src/VLIB_ORB_getHarrisScore/VLIB_ORB_getHarrisScore_d.se66 PAGE   28

    1486 00000344     ae6d  ||         LDW     .D2T1   *+SP(68),A6       ; |112| 
    1487                    
    1488                    $C$DW$147       .dwtag  DW_TAG_TI_branch
    1489                            .dwattr $C$DW$147, DW_AT_low_pc(0x00)
    1490                            .dwattr $C$DW$147, DW_AT_name("VLIB_ORB_getHarrisScore_cn")
    1491                            .dwattr $C$DW$147, DW_AT_TI_call
    1492                    
    1493 00000348 10000013!            CALLP   .S2     VLIB_ORB_getHarrisScore_cn,B3
    1494 00000346     fdcd  ||         LDW     .D2T2   *+SP(60),B4       ; |112| 
    1495 0000034c 120008fc  ||         ADDAW   .D1X    SP,8,A4           ; |112| 
    1496                    
    1497                            .dwpsn  file "./../packages/ti/vlib/src/VLIB_ORB_getHarrisScore/VLIB_ORB_getHarrisScore_d.c",l
    1498 00000350           $C$RL18:   ; CALL OCCURS {VLIB_ORB_getHarrisScore_cn} {0}  ; |112| 
    1499                            .dwpsn  file ".\..\packages\ti\vlib\src\VLIB_ORB_getHarrisScore\..\common\VLIB_profile.h",line
    1500 00000350 042803e2             MVC     .S2     TSCL,B8           ; |153| 
    1501 00000354 022c03e2             MVC     .S2     TSCH,B4           ; |153| 
    1502                            .dwpsn  file ".\..\packages\ti\vlib\src\VLIB_ORB_getHarrisScore\..\common\VLIB_profile.h",line
    1503 00000358 02300264             LDW     .D1T1   *A12,A4           ; |156| 
    1504 00000360 043c0364             LDDW    .D1T1   *A15,A9:A8        ; |156| 
    1505 00000364 032803e6             LDDW    .D2T2   *B10,B7:B6        ; |156| 
    1506 00000368 01800028!            MVKL    .S1     end_count,A3
    1507 0000036c 01800068!            MVKH    .S1     end_count,A3
    1508 00000370 03288b64             LDDW    .D1T1   *+A10[A4],A7:A6   ; |156| 
    1509                            .dwpsn  file ".\..\packages\ti\vlib\src\VLIB_ORB_getHarrisScore\..\common\VLIB_profile.h",line
    1510 00000374 04900fda             MV      .L2     B4,B9             ; |153| 
    1511                            .dwpsn  file ".\..\packages\ti\vlib\src\VLIB_ORB_getHarrisScore\..\common\VLIB_profile.h",line
    1512 00000378 0220d57a             ADDU    .L2X    B6,A8,B5:B4       ; |156| 
    1513                    
    1514 0000037c 029ca07b             ADD     .L2     B5,B7,B5          ; |156| 
    1515 00000380     c24f  ||         MV      .S2     B4,B6             ; |156| 
    1516 00000382     91d7  ||         MV      .D2X    A3,B4
    1517                    
    1518 00000384 031905fb             SUBU    .L2     B8,B6,B7:B6       ; |156| 
    1519 00000388 02a4b1e2  ||         ADD     .S2X    B5,A9,B5          ; |156| 
    1520                    
    1521 0000038c 081f184b             EXT     .S2     B7,24,24,B16      ; |156| 
    1522 00000390 0318d57b  ||         ADDU    .L2X    A6,B6,B7:B6       ; |156| 
    1523 00000394 02a4a8c2  ||         SUB     .D2     B9,B5,B5          ; |156| 
    1524                    
    1525 000003a0     f3d1             ADD     .L2X    B7,A7,B5          ; |156| 
    1526 00000398 03c0a1e3  ||         ADD     .S2     B5,B16,B7         ; |156| 
    1527                    
    1528 000003a2     a3f1             ADD     .L2     B5,B7,B7          ; |156| 
    1529 000003a4 041003c6  ||         STDW    .D2T2   B9:B8,*B4         ; |153| 
    1530                    
    1531                    $C$DW$148       .dwtag  DW_TAG_TI_branch
    1532                            .dwattr $C$DW$148, DW_AT_low_pc(0x00)
    1533                            .dwattr $C$DW$148, DW_AT_name("setStackDepth")
    1534                            .dwattr $C$DW$148, DW_AT_TI_call
    1535                    
    1536 000003a8 10000013!            CALLP   .S2     setStackDepth,B3
    1537 000003ac 03288b46  ||         STDW    .D1T2   B7:B6,*+A10[A4]   ; |156| 
    1538                    
    1539                            .dwpsn  file ".\..\packages\ti\vlib\src\VLIB_ORB_getHarrisScore\..\common\VLIB_profile.h",line
    1540 000003b0           $C$RL19:   ; CALL OCCURS {setStackDepth} {0}  ; |159| 
TMS320C6x Assembler PC v7.4.2 Thu Mar 19 12:44:02 2015

Tools Copyright (c) 1996-2012 Texas Instruments Incorporated
package/lib/Regression/regress_d_c/./../packages/ti/vlib/src/VLIB_ORB_getHarrisScore/VLIB_ORB_getHarrisScore_d.se66 PAGE   29

    1541 000003b0           $C$DW$L$VLIB_ORB_getHarrisScore_d$19$E:
    1542                    ;** --------------------------------------------------------------------------*
    1543 000003b0           $C$DW$L$VLIB_ORB_getHarrisScore_d$20$B:
    1544                    ;          EXCLUSIVE CPU CYCLES: 17
    1545                    ;** 116 -----------------------    U$43 = (*orbOutput).n_features;
    1546                    ;** 54  -----------------------    status_nat_vs_int = 1;
    1547                    ;** 55  -----------------------    status_nat_vs_ref = 1;
    1548                    ;** 116 -----------------------    if ( U$43 <= 0 ) goto g19;
    1549 000003b0 01be02e4             LDW     .D2T1   *+SP(64),A3
    1550                            .dwpsn  file "./../packages/ti/vlib/src/VLIB_ORB_getHarrisScore/VLIB_ORB_getHarrisScore_d.c",l
    1551 000003b4 0684a35a             MVK     .L2     0x1,B13           ; |54| 
    1552 000003b8 00004000             NOP             3
    1553                            .dwpsn  file "./../packages/ti/vlib/src/VLIB_ORB_getHarrisScore/VLIB_ORB_getHarrisScore_d.c",l
    1554 000003c0 050c2264             LDW     .D1T1   *+A3(4),A10       ; |116| 
    1555 000003c4 06341fd8             MV      .L1X    B13,A12           ; |116| 
    1556 000003c8 00004000             NOP             3
    1557 000003cc 00280ad8             CMPGT   .L1     A10,0,A0          ; |116| 
    1558                    
    1559 000003d0 d0001d91     [!A0]   B       .S1     $C$L10            ; |116| 
    1560 000003d4 c38c0264  || [ A0]   LDW     .D1T1   *A3,A7
    1561                    
    1562 000003d8     ae3d             LDW     .D2T1   *+SP(68),A3
    1563 000003da     6c6e             NOP             4
    1564                               ; BRANCHCC OCCURS {$C$L10}        ; |116| 
    1565 000003e0           $C$DW$L$VLIB_ORB_getHarrisScore_d$20$E:
    1566                    ;** --------------------------------------------------------------------------*
    1567                            .dwpsn  file "./../packages/ti/vlib/src/VLIB_ORB_getHarrisScore/VLIB_ORB_getHarrisScore_d.c",l
    1568 000003e0           $C$DW$L$VLIB_ORB_getHarrisScore_d$21$B:
    1569                    ;          EXCLUSIVE CPU CYCLES: 4
    1570                    ;**     -----------------------    U$72 = (*orbOutput).features;
    1571                    ;**     -----------------------    U$75 = (*orbOutput_cn).features;
    1572                    ;** 117 -----------------------    L$1 = U$43;
    1573                    ;** 116 -----------------------    U$75 -= 56;
    1574                    ;** 116 -----------------------    U$72 -= 56;
    1575                    ;** 116 -----------------------    i = (-1);
    1576                    ;**     -----------------------    #pragma MUST_ITERATE(1, 18446744073709551615, 1)
    1577                    ;**     -----------------------    #pragma LOOP_FLAGS(4352u)
    1578                    ;**     -----------------------g15:
    1579                    ;** 117 -----------------------    f$4 = (*((short *)U$72+76) != *((short *)U$75+76))-1;
    1580                    ;** 116 -----------------------    U$75 += 56;
    1581                    ;** 116 -----------------------    U$72 += 56;
    1582                    ;** 116 -----------------------    ++i;
    1583                    ;** 116 -----------------------    L$1 = L$1-1;
    1584                    ;** 116 -----------------------    if ( L$1&f$4 ) goto g15;
    1585                    ;**     -----------------------    if ( f$4 ) goto g19;
    1586 000003e0 030c0264             LDW     .D1T1   *A3,A6
    1587                            .dwpsn  file "./../packages/ti/vlib/src/VLIB_ORB_getHarrisScore/VLIB_ORB_getHarrisScore_d.c",l
    1588 000003e4 02001328             MVK     .S1     38,A4             ; |117| 
    1589 000003e8 00b00fd8             MV      .L1     A12,A1
    1590 000003ec 00000000             NOP             1
    1591 000003f0           $C$DW$L$VLIB_ORB_getHarrisScore_d$21$E:
    1592                    ;*----------------------------------------------------------------------------*
    1593                    ;*   SOFTWARE PIPELINE INFORMATION
    1594                    ;*
    1595                    ;*      Loop found in file               : ./../packages/ti/vlib/src/VLIB_ORB_getHarrisScore/VLIB_ORB_
TMS320C6x Assembler PC v7.4.2 Thu Mar 19 12:44:02 2015

Tools Copyright (c) 1996-2012 Texas Instruments Incorporated
package/lib/Regression/regress_d_c/./../packages/ti/vlib/src/VLIB_ORB_getHarrisScore/VLIB_ORB_getHarrisScore_d.se66 PAGE   30

    1596                    ;*      Loop source line                 : 116
    1597                    ;*      Loop opening brace source line   : 116
    1598                    ;*      Loop closing brace source line   : 124
    1599                    ;*      Known Minimum Trip Count         : 1                    
    1600                    ;*      Known Max Trip Count Factor      : 1
    1601                    ;*      Loop Carried Dependency Bound(^) : 9
    1602                    ;*      Unpartitioned Resource Bound     : 3
    1603                    ;*      Partitioned Resource Bound(*)    : 3
    1604                    ;*      Resource Partition:
    1605                    ;*                                A-side   B-side
    1606                    ;*      .L units                     0        1     
    1607                    ;*      .S units                     2        1     
    1608                    ;*      .D units                     2        0     
    1609                    ;*      .M units                     0        0     
    1610                    ;*      .X cross paths               0        1     
    1611                    ;*      .T address paths             1        1     
    1612                    ;*      Long read paths              0        0     
    1613                    ;*      Long write paths             0        0     
    1614                    ;*      Logical  ops (.LS)           0        0     (.L or .S unit)
    1615                    ;*      Addition ops (.LSD)          5        3     (.L or .S or .D unit)
    1616                    ;*      Bound(.L .S .LS)             1        1     
    1617                    ;*      Bound(.L .S .D .LS .LSD)     3*       2     
    1618                    ;*
    1619                    ;*      Searching for software pipeline schedule at ...
    1620                    ;*         ii = 9  Did not find schedule
    1621                    ;*         ii = 10 Schedule found with 2 iterations in parallel
    1622                    ;*
    1623                    ;*      Register Usage Table:
    1624                    ;*          +-----------------------------------------------------------------+
    1625                    ;*          |AAAAAAAAAAAAAAAAAAAAAAAAAAAAAAAA|BBBBBBBBBBBBBBBBBBBBBBBBBBBBBBBB|
    1626                    ;*          |00000000001111111111222222222233|00000000001111111111222222222233|
    1627                    ;*          |01234567890123456789012345678901|01234567890123456789012345678901|
    1628                    ;*          |--------------------------------+--------------------------------|
    1629                    ;*       0: |**  ******                      |    ****                        |
    1630                    ;*       1: | *  ******                      |     ***                        |
    1631                    ;*       2: | *  ******                      |     ***                        |
    1632                    ;*       3: | *  ******                      |     ***                        |
    1633                    ;*       4: | *  ******                      |     ***                        |
    1634                    ;*       5: | *  ******                      |     ***                        |
    1635                    ;*       6: | *  ******                      |     ***                        |
    1636                    ;*       7: | *  ******                      |    ****                        |
    1637                    ;*       8: | *  ******                      |    ****                        |
    1638                    ;*       9: | * *******                      |*   ****                        |
    1639                    ;*          +-----------------------------------------------------------------+
    1640                    ;*
    1641                    ;*      Done
    1642                    ;*
    1643                    ;*      Loop will be splooped
    1644                    ;*      Collapsed epilog stages       : 1
    1645                    ;*      Collapsed prolog stages       : 0
    1646                    ;*      Minimum required memory pad   : 0 bytes
    1647                    ;*
    1648                    ;*      For further improvement on this loop, try option -mh784
    1649                    ;*
    1650                    ;*      Minimum safe trip count       : 1
TMS320C6x Assembler PC v7.4.2 Thu Mar 19 12:44:02 2015

Tools Copyright (c) 1996-2012 Texas Instruments Incorporated
package/lib/Regression/regress_d_c/./../packages/ti/vlib/src/VLIB_ORB_getHarrisScore/VLIB_ORB_getHarrisScore_d.se66 PAGE   31

    1651                    ;*      Min. prof. trip count  (est.) : 4
    1652                    ;*
    1653                    ;*      Mem bank conflicts/iter(est.) : { min 0.000, est 0.000, max 0.000 }
    1654                    ;*      Mem bank perf. penalty (est.) : 0.0%
    1655                    ;*
    1656                    ;*
    1657                    ;*      Total cycles (est.)         : 10 + trip_cnt * 10        
    1658                    ;*----------------------------------------------------------------------------*
    1659                    ;*       SETUP CODE
    1660                    ;*
    1661                    ;*                  MVK             0x1,A1
    1662                    ;*                  MV              A1,A0
    1663                    ;*
    1664                    ;*        SINGLE SCHEDULED ITERATION
    1665                    ;*
    1666                    ;*        $C$C136:
    1667                    ;*   0      [ A1]   LDH     .D1T2   *+A7[A4],B6       ; |117|  ^ 
    1668                    ;*   1      [ A1]   LDH     .D1T1   *+A6[A4],A9       ; |117|  ^ 
    1669                    ;*   2              NOP             4
    1670                    ;*   6              CMPEQ   .L2X    B6,A9,B4          ; |117|  ^ 
    1671                    ;*   7              EXT     .S2     B4,31,31,B4       ; |117|  ^ 
    1672                    ;*     ||           SUB     .L2     B7,1,B7           ; |116| 
    1673                    ;*   8              ADDK    .S1     56,A7             ; |116| 
    1674                    ;*     ||           ADD     .D1     1,A5,A5           ; |116| 
    1675                    ;*     ||           AND     .L2     B4,B7,B0          ; |116|  ^ 
    1676                    ;*   9      [ A1]   MV      .S1     A5,A8             ; |116| 
    1677                    ;*     ||   [!B0]   ZERO    .D1     A1                ; |116|  ^ 
    1678                    ;*  10              ADDK    .S1     56,A6             ; |116| Define a twin register
    1679                    ;*     ||   [ A0]   MV      .L2     B4,B5             ; |116| 
    1680                    ;*  11              NOP             5
    1681                    ;*  16      [ A1]   SPWBR           $C$C136
    1682                    ;*  17              NOP             1
    1683                    ;*  18              MV      .L1     A1,A3             ; |116| Split a long life(pre-sched)
    1684                    ;*  19              MV      .L1     A3,A0             ; |116| Split a long life(pre-sched)
    1685                    ;*  20              ; BRANCHCC OCCURS {$C$C136}       ; |116| 
    1686                    ;*
    1687                    ;*       RESTORE CODE
    1688                    ;*
    1689                    ;*                  MV              A8,A5
    1690                    ;*----------------------------------------------------------------------------*
    1691 000003f0           $C$L7:    ; PIPED LOOP PROLOG
    1692                    ;          EXCLUSIVE CPU CYCLES: 11
    1693                    
    1694 000003f0 8483e001     [ A1]   SPLOOPW 10      ;20               ; (P) 
    1695 000003f4 03ffe451  ||         ADDK    .S1     -56,A7            ; |116| 
    1696                    
    1697                    ;** --------------------------------------------------------------------------*
    1698 00000400           $C$L8:    ; PIPED LOOP KERNEL
    1699                            .dwpsn  file "./../packages/ti/vlib/src/VLIB_ORB_getHarrisScore/VLIB_ORB_getHarrisScore_d.c",l
    1700 00000400           $C$DW$L$VLIB_ORB_getHarrisScore_d$23$B:
    1701                    ;          EXCLUSIVE CPU CYCLES: 10
    1702                    
    1703 00000400 00130001             SPMASK          S1
    1704 00000404 037fe451  ||         ADDK    .S1     -56,A6            ; |116| 
    1705 00000408 831c8a46  || [ A1]   LDH     .D1T2   *+A7[A4],B6       ; |117| (P) <0,0>  ^ 
TMS320C6x Assembler PC v7.4.2 Thu Mar 19 12:44:02 2015

Tools Copyright (c) 1996-2012 Texas Instruments Incorporated
package/lib/Regression/regress_d_c/./../packages/ti/vlib/src/VLIB_ORB_getHarrisScore/VLIB_ORB_getHarrisScore_d.se66 PAGE   32

    1706                    
    1707                            .dwpsn  file "./../packages/ti/vlib/src/VLIB_ORB_getHarrisScore/VLIB_ORB_getHarrisScore_d.c",l
    1708 0000040c 84988a44     [ A1]   LDH     .D1T1   *+A6[A4],A9       ; |117| (P) <0,1>  ^ 
    1709 00000410     4c6e             NOP             3
    1710                    
    1711 00000412     2ce6             SPMASK          L2
    1712 00000414 03a81fda  ||         MV      .L2X    A10,B7            ; |117| 
    1713                    
    1714 00000418 0224da7a             CMPEQ   .L2X    B6,A9,B4          ; |117| (P) <0,6>  ^ 
    1715                    
    1716 00000420     2c67             SPMASK          L1
    1717 00000424 02b3c059  ||         ADD     .L1     -2,A12,A5
    1718 00000422     eff1  ||         SUB     .L2     B7,1,B7           ; |116| (P) <0,7> 
    1719 00000428 0213ff4a  ||         EXT     .S2     B4,31,31,B4       ; |117| (P) <0,7>  ^ 
    1720                    
    1721 0000042c 03801c51             ADDK    .S1     56,A7             ; |116| (P) <0,8> 
    1722 00000430     baf6  ||         ADD     .D1     1,A5,A5           ; |116| (P) <0,8> 
    1723 00000432     8789  ||         AND     .L2     B4,B7,B0          ; |116| (P) <0,8>  ^ 
    1724                    
    1725 00000434     2c67             SPMASK          L1
    1726 00000436     0606  ||         MV      .L1     A12,A0
    1727 00000438 841406a1  || [ A1]   MV      .S1     A5,A8             ; |116| (P) <0,9> 
    1728 00000440 30800040  || [!B0]   ZERO    .D1     A1                ; |116| (P) <0,9>  ^ 
    1729                    
    1730 00000444 03001c51             ADDK    .S1     56,A6             ; |116| <0,10> Define a twin register
    1731 00000448 c2900fda  || [ A0]   MV      .L2     B4,B5             ; |116| <0,10> 
    1732                    
    1733 0000044c     cc6e             NOP             7
    1734                            .dwpsn  file "./../packages/ti/vlib/src/VLIB_ORB_getHarrisScore/VLIB_ORB_getHarrisScore_d.c",l
    1735 0000044e     60c6             MV      .L1     A1,A3             ; |116| <0,18> Split a long life(pre-sched)
    1736                    
    1737 00000450 00034001             SPKERNEL 0,0
    1738 00000454     01c6  ||         MV      .L1     A3,A0             ; |116| <0,19> Split a long life(pre-sched)
    1739                    
    1740 00000456           $C$DW$L$VLIB_ORB_getHarrisScore_d$23$E:
    1741                    ;** --------------------------------------------------------------------------*
    1742 00000456           $C$L9:    ; PIPED LOOP EPILOG
    1743                    ;** --------------------------------------------------------------------------*
    1744 00000456           $C$DW$L$VLIB_ORB_getHarrisScore_d$25$B:
    1745                    ;          EXCLUSIVE CPU CYCLES: 7
    1746                    
    1747 00000456     12c6             MV      .L1X    B5,A0
    1748 00000458     a40e  ||         MV      .S1     A8,A5
    1749                    
    1750 0000045a     2046             MV      .L1     A0,A1             ; branch predicate copy
    1751 00000460     0c2a  || [ A0]   B       .S1     $C$L11
    1752 00000464 d680a35a  || [!A0]   ZERO    .L2     B13               ; |118| 
    1753 00000462     ad8d  ||         LDW     .D2T1   *+SP(52),A0       ; |118| 
    1754                    
    1755                            .dwpsn  file "./../packages/ti/vlib/src/VLIB_ORB_getHarrisScore/VLIB_ORB_getHarrisScore_d.c",l
    1756 00000468 82b40214     [ A1]   LDBU    .D1T1   *A13,A5           ; |127| 
    1757 0000046c 80346264     [ A1]   LDW     .D1T1   *+A13(12),A0      ; |127| 
    1758 00000470 8180a358     [ A1]   ZERO    .L1     A3                ; |127| 
    1759 00000474     2c6e             NOP             2
    1760                               ; BRANCHCC OCCURS {$C$L11}  
TMS320C6x Assembler PC v7.4.2 Thu Mar 19 12:44:02 2015

Tools Copyright (c) 1996-2012 Texas Instruments Incorporated
package/lib/Regression/regress_d_c/./../packages/ti/vlib/src/VLIB_ORB_getHarrisScore/VLIB_ORB_getHarrisScore_d.se66 PAGE   33

    1761 00000480           $C$DW$L$VLIB_ORB_getHarrisScore_d$25$E:
    1762                    ;** --------------------------------------------------------------------------*
    1763 00000480           $C$DW$L$VLIB_ORB_getHarrisScore_d$26$B:
    1764                    ;          EXCLUSIVE CPU CYCLES: 6
    1765                    ;** 118 -----------------------    status_nat_vs_int = 0;
    1766                    ;** 119 -----------------------    if ( !LevelOfFeedback ) goto g19;
    1767                    
    1768 00000480     083a     [!A0]   B       .S1     $C$L11            ; |119| 
    1769 00000488 d2b40214  || [!A0]   LDBU    .D1T1   *A13,A5           ; |127| 
    1770 00000484 c200002b! || [ A0]   MVKL    .S2     $C$SL2+0,B4
    1771 00000482     2046  ||         MV      .L1     A0,A1             ; guard predicate rewrite
    1772                    
    1773 0000048c c200006a!    [ A0]   MVKH    .S2     $C$SL2+0,B4
    1774                    $C$DW$149       .dwtag  DW_TAG_TI_branch
    1775                            .dwattr $C$DW$149, DW_AT_low_pc(0x00)
    1776                            .dwattr $C$DW$149, DW_AT_name("printf")
    1777                            .dwattr $C$DW$149, DW_AT_TI_call
    1778                    
    1779 00000490 c0000011!    [ A0]   CALL    .S1     printf            ; |120| 
    1780 00000494 d0346264  || [!A0]   LDW     .D1T1   *+A13(12),A0      ; |127| 
    1781                    
    1782 00000498 9180a358     [!A1]   ZERO    .L1     A3                ; |127| 
    1783 000004a0     2c6e             NOP             2
    1784                            .dwpsn  file "./../packages/ti/vlib/src/VLIB_ORB_getHarrisScore/VLIB_ORB_getHarrisScore_d.c",l
    1785                               ; BRANCHCC OCCURS {$C$L11}        ; |119| 
    1786 000004a2           $C$DW$L$VLIB_ORB_getHarrisScore_d$26$E:
    1787                    ;** --------------------------------------------------------------------------*
    1788 000004a2           $C$DW$L$VLIB_ORB_getHarrisScore_d$27$B:
    1789                    ;          EXCLUSIVE CPU CYCLES: 2
    1790                    ;** 120 -----------------------    printf((const char *)" Mismatch in Index = %u \n", i);
    1791                            .dwpsn  file "./../packages/ti/vlib/src/VLIB_ORB_getHarrisScore/VLIB_ORB_getHarrisScore_d.c",l
    1792 000004a2     bc45             STW     .D2T2   B4,*+SP(4)        ; |120| 
    1793                    
    1794 000004a8 02bc42f4             STW     .D2T1   A5,*+SP(8)        ; |120| 
    1795 000004a4 01830163  ||         ADDKPC  .S2     $C$RL20,B3,0      ; |120| 
    1796                    
    1797 000004ac           $C$RL20:   ; CALL OCCURS {printf} {0}        ; |120| 
    1798 000004ac           $C$DW$L$VLIB_ORB_getHarrisScore_d$27$E:
    1799                    ;** --------------------------------------------------------------------------*
    1800 000004ac           $C$L10:    
    1801 000004ac           $C$DW$L$VLIB_ORB_getHarrisScore_d$28$B:
    1802                    ;          EXCLUSIVE CPU CYCLES: 5
    1803                            .dwpsn  file "./../packages/ti/vlib/src/VLIB_ORB_getHarrisScore/VLIB_ORB_getHarrisScore_d.c",l
    1804 000004ac 02b40214             LDBU    .D1T1   *A13,A5           ; |127| 
    1805 000004b0 00346264             LDW     .D1T1   *+A13(12),A0      ; |127| 
    1806 000004b4     05a6             ZERO    .L1     A3                ; |127| 
    1807 000004b6     2c6e             NOP             2
    1808 000004c0           $C$DW$L$VLIB_ORB_getHarrisScore_d$28$E:
    1809                    ;** --------------------------------------------------------------------------*
    1810 000004c0           $C$L11:    
    1811                            .dwpsn  file "./../packages/ti/vlib/src/VLIB_ORB_getHarrisScore/VLIB_ORB_getHarrisScore_d.c",l
    1812 000004c0           $C$DW$L$VLIB_ORB_getHarrisScore_d$29$B:
    1813                    ;          EXCLUSIVE CPU CYCLES: 9
    1814                    ;**     -----------------------g19:
    1815                    ;** 127 -----------------------    v$1 = prm;
TMS320C6x Assembler PC v7.4.2 Thu Mar 19 12:44:02 2015

Tools Copyright (c) 1996-2012 Texas Instruments Incorporated
package/lib/Regression/regress_d_c/./../packages/ti/vlib/src/VLIB_ORB_getHarrisScore/VLIB_ORB_getHarrisScore_d.se66 PAGE   34

    1816                    ;** 127 -----------------------    if ( !(((*U$13).testPattern == 4)&((*U$13).staticOut != NULL)) ) go
    1817                    
    1818 000004c0 02948a59             CMPEQ   .L1     A5,4,A5           ; |127| 
    1819 000004c4 053ce2e6  ||         LDW     .D2T2   *+SP(28),B10      ; |127| 
    1820                    
    1821                            .dwpsn  file "./../packages/ti/vlib/src/VLIB_ORB_getHarrisScore/VLIB_ORB_getHarrisScore_d.c",l
    1822 000004c8     29e6     [ A0]   MVK     .L1     0x1,A3            ; |127| 
    1823 000004ca     6688             AND     .L1     A3,A5,A0          ; |127| 
    1824                    
    1825 000004cc     204e             MV      .S1     A0,A1             ; guard predicate rewrite
    1826 000004d0 d0002a93  || [!A0]   B       .S2     $C$L17            ; |127| 
    1827 000004ce     4056  ||         MV      .D1     A0,A2             ; |127| branch predicate copy
    1828 000004d4 c0280ad8  || [ A0]   CMPGT   .L1     A10,0,A0          ; |128| 
    1829                    
    1830 000004d8 9004a359     [!A1]   MVK     .L1     0x1,A0            ; |128| nullify predicate
    1831 000004e0 b400002b! || [!A2]   MVKL    .S2     testPatternString,B8
    1832 000004e4 b2000029! || [!A2]   MVKL    .S1     est_test,A4
    1833 000004e8 b1802040  || [!A2]   MVK     .D1     1,A3              ; |143| 
    1834                    
    1835 000004ec d0002091     [!A0]   B       .S1     $C$L15            ; |128| 
    1836 000004f0 b3b1407b  || [!A2]   ADD     .L2     B10,B12,B7        ; |146| 
    1837 000004f4 b280002a! || [!A2]   MVKL    .S2     $C$SL3+0,B5
    1838                    
    1839 000004f8 b21d2287     [!A2]   LDHU    .D2T2   *+B7(18),B4       ; |146| 
    1840 000004fc b400006b! || [!A2]   MVKH    .S2     testPatternString,B8
    1841 00000500 b2000068! || [!A2]   MVKH    .S1     est_test,A4
    1842                    
    1843 00000504 b31d0287     [!A2]   LDHU    .D2T2   *+B7(16),B6       ; |146| 
    1844 00000508 b280006a! || [!A2]   MVKH    .S2     $C$SL3+0,B5
    1845                    
    1846                    $C$DW$150       .dwtag  DW_TAG_TI_branch
    1847                            .dwattr $C$DW$150, DW_AT_low_pc(0x04)
    1848                            .dwattr $C$DW$150, DW_AT_name("sprintf")
    1849                            .dwattr $C$DW$150, DW_AT_TI_call
    1850                    
    1851 0000050c b39ca2e7     [!A2]   LDW     .D2T2   *+B7(20),B7       ; |146| 
    1852 00000510 b0000010! || [!A2]   CALL    .S1     sprintf           ; |146| 
    1853                    
    1854                               ; BRANCHCC OCCURS {$C$L17}        ; |127| 
    1855 00000514           $C$DW$L$VLIB_ORB_getHarrisScore_d$29$E:
    1856                    ;** --------------------------------------------------------------------------*
    1857 00000514           $C$DW$L$VLIB_ORB_getHarrisScore_d$30$B:
    1858                    ;          EXCLUSIVE CPU CYCLES: 2
    1859                    ;** 128 -----------------------    if ( U$43 <= 0 ) goto g26;
    1860                    
    1861 00000514 c1be22e5     [ A0]   LDW     .D2T1   *+SP(68),A3
    1862 00000518 c2ac8ca2  || [ A0]   SHL     .S2     B11,4,B5
    1863                    
    1864 0000051c c2957e42     [ A0]   ADDAD   .D2     B5,B11,B5
    1865                            .dwpsn  file "./../packages/ti/vlib/src/VLIB_ORB_getHarrisScore/VLIB_ORB_getHarrisScore_d.c",l
    1866                               ; BRANCHCC OCCURS {$C$L15}        ; |128| 
    1867 00000520           $C$DW$L$VLIB_ORB_getHarrisScore_d$30$E:
    1868                    ;** --------------------------------------------------------------------------*
    1869                            .dwpsn  file "./../packages/ti/vlib/src/VLIB_ORB_getHarrisScore/VLIB_ORB_getHarrisScore_d.c",l
    1870 00000520           $C$DW$L$VLIB_ORB_getHarrisScore_d$31$B:
TMS320C6x Assembler PC v7.4.2 Thu Mar 19 12:44:02 2015

Tools Copyright (c) 1996-2012 Texas Instruments Incorporated
package/lib/Regression/regress_d_c/./../packages/ti/vlib/src/VLIB_ORB_getHarrisScore/VLIB_ORB_getHarrisScore_d.se66 PAGE   35

    1871                    ;          EXCLUSIVE CPU CYCLES: 3
    1872                    ;**     -----------------------    U$75 = (*orbOutput_cn).features;
    1873                    ;**     -----------------------    U$137 = (v$1[tpi]).staticOut;
    1874                    ;** 129 -----------------------    L$2 = U$43;
    1875                    ;** 128 -----------------------    --U$137;
    1876                    ;** 128 -----------------------    U$75 -= 56;
    1877                    ;** 128 -----------------------    i = (-1);
    1878                    ;**     -----------------------    #pragma MUST_ITERATE(1, 18446744073709551615, 1)
    1879                    ;**     -----------------------    #pragma LOOP_FLAGS(4352u)
    1880                    ;**     -----------------------g22:
    1881                    ;** 129 -----------------------    f$5 = (*((short *)U$75+76) != *(++U$137))-1;
    1882                    ;** 128 -----------------------    U$75 += 56;
    1883                    ;** 128 -----------------------    ++i;
    1884                    ;** 128 -----------------------    L$2 = L$2-1;
    1885                    ;** 128 -----------------------    if ( L$2&f$5 ) goto g22;
    1886                    ;**     -----------------------    if ( f$5 ) goto g26;
    1887 00000520 0004a358             MVK     .L1     0x1,A0
    1888 00000524 0295407a             ADD     .L2     B10,B5,B5
    1889 00000528 031462e6             LDW     .D2T2   *+B5(12),B6
    1890 0000052c           $C$DW$L$VLIB_ORB_getHarrisScore_d$31$E:
    1891                    ;*----------------------------------------------------------------------------*
    1892                    ;*   SOFTWARE PIPELINE INFORMATION
    1893                    ;*
    1894                    ;*      Loop found in file               : ./../packages/ti/vlib/src/VLIB_ORB_getHarrisScore/VLIB_ORB_
    1895                    ;*      Loop source line                 : 128
    1896                    ;*      Loop opening brace source line   : 128
    1897                    ;*      Loop closing brace source line   : 136
    1898                    ;*      Known Minimum Trip Count         : 1                    
    1899                    ;*      Known Max Trip Count Factor      : 1
    1900                    ;*      Loop Carried Dependency Bound(^) : 1
    1901                    ;*      Unpartitioned Resource Bound     : 2
    1902                    ;*      Partitioned Resource Bound(*)    : 2
    1903                    ;*      Resource Partition:
    1904                    ;*                                A-side   B-side
    1905                    ;*      .L units                     1        0     
    1906                    ;*      .S units                     1        1     
    1907                    ;*      .D units                     1        1     
    1908                    ;*      .M units                     0        0     
    1909                    ;*      .X cross paths               1        0     
    1910                    ;*      .T address paths             1        1     
    1911                    ;*      Long read paths              0        0     
    1912                    ;*      Long write paths             0        0     
    1913                    ;*      Logical  ops (.LS)           0        0     (.L or .S unit)
    1914                    ;*      Addition ops (.LSD)          3        1     (.L or .S or .D unit)
    1915                    ;*      Bound(.L .S .LS)             1        1     
    1916                    ;*      Bound(.L .S .D .LS .LSD)     2*       1     
    1917                    ;*
    1918                    ;*      Searching for software pipeline schedule at ...
    1919                    ;*         ii = 4  Unsafe schedule for irregular loop
    1920                    ;*         ii = 4  Unsafe schedule for irregular loop
    1921                    ;*         ii = 4  Unsafe schedule for irregular loop
    1922                    ;*         ii = 4  Unsafe schedule for irregular loop
    1923                    ;*         ii = 4  Unsafe schedule for irregular loop
    1924                    ;*         ii = 4  Did not find schedule
    1925                    ;*         ii = 5  Unsafe schedule for irregular loop
TMS320C6x Assembler PC v7.4.2 Thu Mar 19 12:44:02 2015

Tools Copyright (c) 1996-2012 Texas Instruments Incorporated
package/lib/Regression/regress_d_c/./../packages/ti/vlib/src/VLIB_ORB_getHarrisScore/VLIB_ORB_getHarrisScore_d.se66 PAGE   36

    1926                    ;*         ii = 5  Unsafe schedule for irregular loop
    1927                    ;*         ii = 5  Unsafe schedule for irregular loop
    1928                    ;*         ii = 5  Unsafe schedule for irregular loop
    1929                    ;*         ii = 5  Unsafe schedule for irregular loop
    1930                    ;*         ii = 5  Did not find schedule
    1931                    ;*         ii = 6  Unsafe schedule for irregular loop
    1932                    ;*         ii = 6  Unsafe schedule for irregular loop
    1933                    ;*         ii = 6  Unsafe schedule for irregular loop
    1934                    ;*         ii = 6  Unsafe schedule for irregular loop
    1935                    ;*         ii = 6  Unsafe schedule for irregular loop
    1936                    ;*         ii = 6  Did not find schedule
    1937                    ;*         ii = 7  Unsafe schedule for irregular loop
    1938                    ;*         ii = 7  Unsafe schedule for irregular loop
    1939                    ;*         ii = 7  Unsafe schedule for irregular loop
    1940                    ;*         ii = 7  Unsafe schedule for irregular loop
    1941                    ;*         ii = 7  Unsafe schedule for irregular loop
    1942                    ;*         ii = 7  Did not find schedule
    1943                    ;*         ii = 8  Unsafe schedule for irregular loop
    1944                    ;*         ii = 8  Unsafe schedule for irregular loop
    1945                    ;*         ii = 8  Unsafe schedule for irregular loop
    1946                    ;*         ii = 8  Unsafe schedule for irregular loop
    1947                    ;*         ii = 8  Unsafe schedule for irregular loop
    1948                    ;*         ii = 8  Did not find schedule
    1949                    ;*         ii = 9  Schedule found with 2 iterations in parallel
    1950                    ;*
    1951                    ;*      Register Usage Table:
    1952                    ;*          +-----------------------------------------------------------------+
    1953                    ;*          |AAAAAAAAAAAAAAAAAAAAAAAAAAAAAAAA|BBBBBBBBBBBBBBBBBBBBBBBBBBBBBBBB|
    1954                    ;*          |00000000001111111111222222222233|00000000001111111111222222222233|
    1955                    ;*          |01234567890123456789012345678901|01234567890123456789012345678901|
    1956                    ;*          |--------------------------------+--------------------------------|
    1957                    ;*       0: |    ***                         |    ****                        |
    1958                    ;*       1: |    ***                         |    ****                        |
    1959                    ;*       2: |   ****                         |    ****                        |
    1960                    ;*       3: |    ****                        |    ****                        |
    1961                    ;*       4: |   ****                         |    ****                        |
    1962                    ;*       5: |*   ***                         |    ****                        |
    1963                    ;*       6: |    ***                         |    ****                        |
    1964                    ;*       7: |    ***                         |    ****                        |
    1965                    ;*       8: |    ***                         |    ****                        |
    1966                    ;*          +-----------------------------------------------------------------+
    1967                    ;*
    1968                    ;*      Done
    1969                    ;*
    1970                    ;*      Loop will be splooped
    1971                    ;*      Collapsed epilog stages       : 1
    1972                    ;*      Collapsed prolog stages       : 0
    1973                    ;*      Minimum required memory pad   : 0 bytes
    1974                    ;*
    1975                    ;*      For further improvement on this loop, try option -mh784
    1976                    ;*
    1977                    ;*      Minimum safe trip count       : 1
    1978                    ;*      Min. prof. trip count  (est.) : 3
    1979                    ;*
    1980                    ;*      Mem bank conflicts/iter(est.) : { min 0.000, est 0.125, max 1.000 }
TMS320C6x Assembler PC v7.4.2 Thu Mar 19 12:44:02 2015

Tools Copyright (c) 1996-2012 Texas Instruments Incorporated
package/lib/Regression/regress_d_c/./../packages/ti/vlib/src/VLIB_ORB_getHarrisScore/VLIB_ORB_getHarrisScore_d.se66 PAGE   37

    1981                    ;*      Mem bank perf. penalty (est.) : 1.4%
    1982                    ;*
    1983                    ;*      Effective ii                : { min 9.00, est 9.13, max 10.00 }
    1984                    ;*
    1985                    ;*
    1986                    ;*      Total cycles (est.)         : 9 + trip_cnt * 9        
    1987                    ;*----------------------------------------------------------------------------*
    1988                    ;*       SETUP CODE
    1989                    ;*
    1990                    ;*                  MVK             0x1,A0
    1991                    ;*
    1992                    ;*        SINGLE SCHEDULED ITERATION
    1993                    ;*
    1994                    ;*        $C$C72:
    1995                    ;*   5      [ A0]   LDH     .D2T2   *+B7[B5],B4       ; |129|  ^ 
    1996                    ;*     ||   [ A0]   LDH     .D1T1   *++A6,A4          ; |129|  ^ 
    1997                    ;*   6              NOP             4
    1998                    ;*  10              CMPEQ   .L1X    B4,A4,A3          ; |129|  ^ 
    1999                    ;*  11              EXT     .S1     A3,31,31,A7       ; |129|  ^ 
    2000                    ;*     ||           SUB     .L1     A5,1,A5           ; |128|  ^ 
    2001                    ;*  12              AND     .L1     A7,A5,A3          ; |128|  ^ 
    2002                    ;*  13              ADDK    .S2     56,B7             ; |128|  ^ 
    2003                    ;*     ||           MV      .L1     A3,A0             ; |128|  ^ 
    2004                    ;*  14      [ A0]   SPWBR           $C$C72
    2005                    ;*  15              NOP             2
    2006                    ;*  17              ADD     .L2     1,B6,B6           ; |128| 
    2007                    ;*  18              ; BRANCHCC OCCURS {$C$C72}        ; |128| 
    2008                    ;*----------------------------------------------------------------------------*
    2009 0000052c           $C$L12:    ; PIPED LOOP PROLOG
    2010                    ;          EXCLUSIVE CPU CYCLES: 10
    2011                    
    2012 0000052c c403e001     [ A0]   SPLOOPW 9       ;18               ; (P) 
    2013 00000530 038c0266  ||         LDW     .D1T2   *A3,B7
    2014                    
    2015                    ;** --------------------------------------------------------------------------*
    2016 00000534           $C$L13:    ; PIPED LOOP KERNEL
    2017 00000534           $C$DW$L$VLIB_ORB_getHarrisScore_d$33$B:
    2018                    ;          EXCLUSIVE CPU CYCLES: 9
    2019 00000534     4c6e             NOP             3
    2020                    
    2021 00000536     2e66             SPMASK          S2
    2022 00000538     c2b3  ||         MVK     .S2     38,B5             ; |129| 
    2023                    
    2024 0000053a     2e67             SPMASK          L1,S2
    2025 00000544 031bd058  ||         SUB     .L1X    B6,2,A6           ; |128| 
    2026 00000540 03ffe453  ||         ADDK    .S2     -56,B7            ; |128| 
    2027                    
    2028 00000548 c21caac7     [ A0]   LDH     .D2T2   *+B7[B5],B4       ; |129| (P) <0,5>  ^ 
    2029 0000054c c2183244  || [ A0]   LDH     .D1T1   *++A6,A4          ; |129| (P) <0,5>  ^ 
    2030                    
    2031 00000550     2c6e             NOP             2
    2032                    
    2033 00000552     2ce7             SPMASK          L1,L2
    2034 00000554     ff27  ||         MVK     .L2     0xffffffff,B6     ; |128| 
    2035 00000556     a506  ||         MV      .L1     A10,A5            ; |129| 
TMS320C6x Assembler PC v7.4.2 Thu Mar 19 12:44:02 2015

Tools Copyright (c) 1996-2012 Texas Instruments Incorporated
package/lib/Regression/regress_d_c/./../packages/ti/vlib/src/VLIB_ORB_getHarrisScore/VLIB_ORB_getHarrisScore_d.se66 PAGE   38

    2036                    
    2037 00000558 00000000             NOP             1
    2038                            .dwpsn  file "./../packages/ti/vlib/src/VLIB_ORB_getHarrisScore/VLIB_ORB_getHarrisScore_d.c",l
    2039 00000560 01909a78             CMPEQ   .L1X    B4,A4,A3          ; |129| <0,10>  ^ 
    2040                    
    2041 00000568 0297e058             SUB     .L1     A5,1,A5           ; |128| <0,11>  ^ 
    2042 00000564 038fff49  ||         EXT     .S1     A3,31,31,A7       ; |129| <0,11>  ^ 
    2043                    
    2044                            .dwpsn  file "./../packages/ti/vlib/src/VLIB_ORB_getHarrisScore/VLIB_ORB_getHarrisScore_d.c",l
    2045 0000056c 0194ef78             AND     .L1     A7,A5,A3          ; |128| <0,12>  ^ 
    2046                    
    2047 00000570 03801c53             ADDK    .S2     56,B7             ; |128| <0,13>  ^ 
    2048 00000574     01c6  ||         MV      .L1     A3,A0             ; |128| <0,13>  ^ 
    2049                    
    2050 00000576     2c6e             NOP             2
    2051 00000578 00000000             NOP             1
    2052                    
    2053 00000580 00034001             SPKERNEL 0,0
    2054 00000584     2761  ||         ADD     .L2     1,B6,B6           ; |128| <0,17> 
    2055                    
    2056 00000586           $C$DW$L$VLIB_ORB_getHarrisScore_d$33$E:
    2057                    ;** --------------------------------------------------------------------------*
    2058 00000586           $C$L14:    ; PIPED LOOP EPILOG
    2059                    ;** --------------------------------------------------------------------------*
    2060 00000586           $C$DW$L$VLIB_ORB_getHarrisScore_d$35$B:
    2061                    ;          EXCLUSIVE CPU CYCLES: 7
    2062 00000586     03c6             MV      .L1     A7,A0
    2063                    
    2064 00000588 c0001011     [ A0]   B       .S1     $C$L16
    2065 0000058c     2046  ||         MV      .L1     A0,A1             ; branch predicate copy
    2066 00000590 d6000040  || [!A0]   ZERO    .D1     A12               ; |130| 
    2067 0000058e     ad8d  ||         LDW     .D2T1   *+SP(52),A0       ; |130| 
    2068                    
    2069 00000594 82000029!    [ A1]   MVKL    .S1     est_test,A4
    2070 00000598 8400002a! || [ A1]   MVKL    .S2     testPatternString,B8
    2071                    
    2072                            .dwpsn  file "./../packages/ti/vlib/src/VLIB_ORB_getHarrisScore/VLIB_ORB_getHarrisScore_d.c",l
    2073 000005a0 83b1407a     [ A1]   ADD     .L2     B10,B12,B7        ; |146| 
    2074 000005a4 8280002a!    [ A1]   MVKL    .S2     $C$SL3+0,B5
    2075 000005a8 821d2286     [ A1]   LDHU    .D2T2   *+B7(18),B4       ; |146| 
    2076 000005ac 831d0286     [ A1]   LDHU    .D2T2   *+B7(16),B6       ; |146| 
    2077                               ; BRANCHCC OCCURS {$C$L16}  
    2078 000005b0           $C$DW$L$VLIB_ORB_getHarrisScore_d$35$E:
    2079                    ;** --------------------------------------------------------------------------*
    2080 000005b0           $C$DW$L$VLIB_ORB_getHarrisScore_d$36$B:
    2081                    ;          EXCLUSIVE CPU CYCLES: 6
    2082                    ;** 130 -----------------------    status_nat_vs_ref = 0;
    2083                    ;** 131 -----------------------    if ( !LevelOfFeedback ) goto g26;
    2084                    
    2085 000005b0 d0000c11     [!A0]   B       .S1     $C$L16            ; |131| 
    2086 000005b4 c200002b! || [ A0]   MVKL    .S2     $C$SL2+0,B4
    2087 000005b8 d3b1407a  || [!A0]   ADD     .L2     B10,B12,B7        ; |146| 
    2088                    
    2089 000005bc c200006b!    [ A0]   MVKH    .S2     $C$SL2+0,B4
    2090 000005c0 d31d0287  || [!A0]   LDHU    .D2T2   *+B7(16),B6       ; |146| 
TMS320C6x Assembler PC v7.4.2 Thu Mar 19 12:44:02 2015

Tools Copyright (c) 1996-2012 Texas Instruments Incorporated
package/lib/Regression/regress_d_c/./../packages/ti/vlib/src/VLIB_ORB_getHarrisScore/VLIB_ORB_getHarrisScore_d.se66 PAGE   39

    2091 000005c4 d2000028! || [!A0]   MVKL    .S1     est_test,A4
    2092                    
    2093                            .dwpsn  file "./../packages/ti/vlib/src/VLIB_ORB_getHarrisScore/VLIB_ORB_getHarrisScore_d.c",l
    2094                    $C$DW$151       .dwtag  DW_TAG_TI_branch
    2095                            .dwattr $C$DW$151, DW_AT_low_pc(0x00)
    2096                            .dwattr $C$DW$151, DW_AT_name("printf")
    2097                            .dwattr $C$DW$151, DW_AT_TI_call
    2098 000005c8 c0000010!    [ A0]   CALL    .S1     printf            ; |132| 
    2099 000005cc d280002a!    [!A0]   MVKL    .S2     $C$SL3+0,B5
    2100                            .dwpsn  file "./../packages/ti/vlib/src/VLIB_ORB_getHarrisScore/VLIB_ORB_getHarrisScore_d.c",l
    2101 000005d0 d21d2286     [!A0]   LDHU    .D2T2   *+B7(18),B4       ; |146| 
    2102 000005d4 d400002a!    [!A0]   MVKL    .S2     testPatternString,B8
    2103                            .dwpsn  file "./../packages/ti/vlib/src/VLIB_ORB_getHarrisScore/VLIB_ORB_getHarrisScore_d.c",l
    2104                               ; BRANCHCC OCCURS {$C$L16}        ; |131| 
    2105 000005d8           $C$DW$L$VLIB_ORB_getHarrisScore_d$36$E:
    2106                    ;** --------------------------------------------------------------------------*
    2107 000005d8           $C$DW$L$VLIB_ORB_getHarrisScore_d$37$B:
    2108                    ;          EXCLUSIVE CPU CYCLES: 2
    2109                    ;** 132 -----------------------    printf((const char *)" Mismatch in Index = %u \n", i);
    2110                            .dwpsn  file "./../packages/ti/vlib/src/VLIB_ORB_getHarrisScore/VLIB_ORB_getHarrisScore_d.c",l
    2111 000005d8     bc45             STW     .D2T2   B4,*+SP(4)        ; |132| 
    2112                    
    2113 000005da     dc65             STW     .D2T2   B6,*+SP(8)        ; |132| 
    2114 000005e0 01810162  ||         ADDKPC  .S2     $C$RL21,B3,0      ; |132| 
    2115                    
    2116 000005e4           $C$RL21:   ; CALL OCCURS {printf} {0}        ; |132| 
    2117 000005e4           $C$DW$L$VLIB_ORB_getHarrisScore_d$37$E:
    2118                    ;** --------------------------------------------------------------------------*
    2119 000005e4           $C$L15:    
    2120 000005e4           $C$DW$L$VLIB_ORB_getHarrisScore_d$38$B:
    2121                    ;          EXCLUSIVE CPU CYCLES: 3
    2122                            .dwpsn  file "./../packages/ti/vlib/src/VLIB_ORB_getHarrisScore/VLIB_ORB_getHarrisScore_d.c",l
    2123 000005e4 03b1407a             ADD     .L2     B10,B12,B7        ; |146| 
    2124                    
    2125 000005ec     1bed             LDHU    .D2T2   *+B7(16),B6       ; |146| 
    2126 000005e8 0400002b! ||         MVKL    .S2     testPatternString,B8
    2127                    
    2128 000005ee     3bcd             LDHU    .D2T2   *+B7(18),B4       ; |146| 
    2129 000005f0 0280002b! ||         MVKL    .S2     $C$SL3+0,B5
    2130 000005f4 02000029! ||         MVKL    .S1     est_test,A4
    2131                    
    2132 00000600           $C$DW$L$VLIB_ORB_getHarrisScore_d$38$E:
    2133                    ;** --------------------------------------------------------------------------*
    2134 00000600           $C$L16:    
    2135 00000600           $C$DW$L$VLIB_ORB_getHarrisScore_d$39$B:
    2136                    ;          EXCLUSIVE CPU CYCLES: 2
    2137                    
    2138 00000600 0400006b!            MVKH    .S2     testPatternString,B8
    2139 00000604     25a6  ||         MVK     .L1     1,A3              ; |143| 
    2140 00000608 02000068! ||         MVKH    .S1     est_test,A4
    2141 00000606     b1fd  ||         LDW     .D2T2   *+B7(20),B7       ; |146| 
    2142                    
    2143                    $C$DW$152       .dwtag  DW_TAG_TI_branch
    2144                            .dwattr $C$DW$152, DW_AT_low_pc(0x00)
    2145                            .dwattr $C$DW$152, DW_AT_name("sprintf")
TMS320C6x Assembler PC v7.4.2 Thu Mar 19 12:44:02 2015

Tools Copyright (c) 1996-2012 Texas Instruments Incorporated
package/lib/Regression/regress_d_c/./../packages/ti/vlib/src/VLIB_ORB_getHarrisScore/VLIB_ORB_getHarrisScore_d.se66 PAGE   40

    2146                            .dwattr $C$DW$152, DW_AT_TI_call
    2147                    
    2148 0000060c 00000011!            CALL    .S1     sprintf           ; |146| 
    2149 00000610 0280006a! ||         MVKH    .S2     $C$SL3+0,B5
    2150                    
    2151 00000614           $C$DW$L$VLIB_ORB_getHarrisScore_d$39$E:
    2152                    ;** --------------------------------------------------------------------------*
    2153 00000614           $C$L17:    
    2154                            .dwpsn  file "./../packages/ti/vlib/src/VLIB_ORB_getHarrisScore/VLIB_ORB_getHarrisScore_d.c",l
    2155 00000614           $C$DW$L$VLIB_ORB_getHarrisScore_d$40$B:
    2156                    ;          EXCLUSIVE CPU CYCLES: 5
    2157                    ;**     -----------------------g26:
    2158                    ;** 143 -----------------------    est_test = 1;
    2159                    ;** 146 -----------------------    C$7 = U$12+v$1;
    2160                    ;** 146 -----------------------    sprintf(K$148, (const char *)"%s generated input | Opt and NatC res
    2161                    ;** 149 -----------------------    VLIB_formula_add_test((int)(*U$13).true_num_features, 0, 0, (status
    2162                    ;** 151 -----------------------    goto g31;
    2163                    ;**     -----------------------g27:
    2164                    ;**     -----------------------    v$1 = prm;
    2165                    ;**     -----------------------    goto g30;
    2166                            .dwpsn  file "./../packages/ti/vlib/src/VLIB_ORB_getHarrisScore/VLIB_ORB_getHarrisScore_d.c",l
    2167 00000614 02bc22f6             STW     .D2T2   B5,*+SP(4)        ; |146| 
    2168 00000618 043c42f6             STW     .D2T2   B8,*+SP(8)        ; |146| 
    2169 00000620     bcc5             STW     .D2T2   B4,*+SP(20)       ; |146| 
    2170 00000622     9ce5             STW     .D2T2   B6,*+SP(16)       ; |146| 
    2171                    
    2172 00000624     fc75             STW     .D2T2   B7,*+SP(12)       ; |146| 
    2173 00000626     0034  ||         STW     .D1T1   A3,*A4            ; |143| 
    2174 0000062c 022c0fd8  ||         MV      .L1     A11,A4            ; |146| 
    2175 00000628 01840163  ||         ADDKPC  .S2     $C$RL22,B3,0      ; |146| 
    2176                    
    2177 00000630           $C$RL22:   ; CALL OCCURS {sprintf} {0}       ; |146| 
    2178 00000630           $C$DW$L$VLIB_ORB_getHarrisScore_d$40$E:
    2179                    ;** --------------------------------------------------------------------------*
    2180 00000630           $C$DW$L$VLIB_ORB_getHarrisScore_d$41$B:
    2181                    ;          EXCLUSIVE CPU CYCLES: 8
    2182                            .dwpsn  file "./../packages/ti/vlib/src/VLIB_ORB_getHarrisScore/VLIB_ORB_getHarrisScore_d.c",l
    2183 00000630 01b00a58             CMPEQ   .L1     A12,0,A3          ; |149| 
    2184                    
    2185 00000634 02340a5b             CMPEQ   .L2     B13,0,B4          ; |149| 
    2186 00000638 0400002a  ||         ZERO    .S2     B8                ; |149| 
    2187                    
    2188                    $C$DW$153       .dwtag  DW_TAG_TI_branch
    2189                            .dwattr $C$DW$153, DW_AT_low_pc(0x00)
    2190                            .dwattr $C$DW$153, DW_AT_name("VLIB_formula_add_test")
    2191                            .dwattr $C$DW$153, DW_AT_TI_call
    2192                    
    2193 00000640 10000013!            CALLP   .S2     VLIB_formula_add_test,B3
    2194 00000644 0234a265  ||         LDW     .D1T1   *+A13(20),A4      ; |149| 
    2195 00000648 030c9ffb  ||         OR      .L2X    A3,B4,B6          ; |149| 
    2196 0000064c 02000043  ||         ZERO    .D2     B4                ; |149| 
    2197 00000650 0300a359  ||         ZERO    .L1     A6                ; |149| 
    2198 00000654 042c06a1  ||         MV      .S1     A11,A8            ; |149| 
    2199                    
    2200 00000660           $C$RL23:   ; CALL OCCURS {VLIB_formula_add_test} {0}  ; |149| 
TMS320C6x Assembler PC v7.4.2 Thu Mar 19 12:44:02 2015

Tools Copyright (c) 1996-2012 Texas Instruments Incorporated
package/lib/Regression/regress_d_c/./../packages/ti/vlib/src/VLIB_ORB_getHarrisScore/VLIB_ORB_getHarrisScore_d.se66 PAGE   41

    2201 00000660           $C$DW$L$VLIB_ORB_getHarrisScore_d$41$E:
    2202                    ;** --------------------------------------------------------------------------*
    2203 00000660           $C$DW$L$VLIB_ORB_getHarrisScore_d$42$B:
    2204                    ;          EXCLUSIVE CPU CYCLES: 6
    2205                    
    2206 00000660 001b4123             BNOP    .S2     $C$L22,2          ; |151| 
    2207 00000668 023de2e4  ||         LDW     .D2T1   *+SP(60),A4
    2208 00000664 01b48229  ||         MVKL    .S1     0x16904,A3
    2209                    
    2210 0000066c 018000e8             MVKH    .S1     0x16904,A3
    2211                            .dwpsn  file "./../packages/ti/vlib/src/VLIB_ORB_getHarrisScore/VLIB_ORB_getHarrisScore_d.c",l
    2212                    $C$DW$154       .dwtag  DW_TAG_TI_branch
    2213                            .dwattr $C$DW$154, DW_AT_low_pc(0x00)
    2214                            .dwattr $C$DW$154, DW_AT_name("VLIB_free")
    2215                            .dwattr $C$DW$154, DW_AT_TI_call
    2216 00000670 00000010!            CALL    .S1     VLIB_free         ; |159| 
    2217 00000674 02106a64             LDW     .D1T1   *+A4[A3],A4       ; |159| 
    2218                            .dwpsn  file "./../packages/ti/vlib/src/VLIB_ORB_getHarrisScore/VLIB_ORB_getHarrisScore_d.c",l
    2219                               ; BRANCH OCCURS {$C$L22}          ; |151| 
    2220 00000678           $C$DW$L$VLIB_ORB_getHarrisScore_d$42$E:
    2221                    ;** --------------------------------------------------------------------------*
    2222 00000678           $C$L18:    
    2223                            .dwpsn  file "./../packages/ti/vlib/src/VLIB_ORB_getHarrisScore/VLIB_ORB_getHarrisScore_d.c",l
    2224 00000678           $C$DW$L$VLIB_ORB_getHarrisScore_d$43$B:
    2225                    ;          EXCLUSIVE CPU CYCLES: 1
    2226                    ;**     -----------------------g28:
    2227                    ;**     -----------------------    v$1 = prm;
    2228                    ;**     -----------------------    goto g30;
    2229                    
    2230 00000678 0232007b             ADD     .L2     B16,B12,B4        ; |153| 
    2231 0000067c 0300002a! ||         MVKL    .S2     $C$SL4+0,B6
    2232                    
    2233                               ; BRANCH OCCURS {$C$L20}  
    2234 00000680           $C$DW$L$VLIB_ORB_getHarrisScore_d$43$E:
    2235                    ;** --------------------------------------------------------------------------*
    2236 00000680           $C$L19:    
    2237 00000680           $C$DW$L$VLIB_ORB_getHarrisScore_d$44$B:
    2238                    ;          EXCLUSIVE CPU CYCLES: 1
    2239                    ;**     -----------------------g29:
    2240                    ;**     -----------------------    v$1 = prm;
    2241                    
    2242 00000680 0300002b!            MVKL    .S2     $C$SL4+0,B6
    2243 00000684 0232007a  ||         ADD     .L2     B16,B12,B4        ; |153| 
    2244                    
    2245 00000688           $C$DW$L$VLIB_ORB_getHarrisScore_d$44$E:
    2246                    ;** --------------------------------------------------------------------------*
    2247 00000688           $C$L20:    
    2248 00000688           $C$DW$L$VLIB_ORB_getHarrisScore_d$45$B:
    2249                    ;          EXCLUSIVE CPU CYCLES: 4
    2250                            .dwpsn  file "./../packages/ti/vlib/src/VLIB_ORB_getHarrisScore/VLIB_ORB_getHarrisScore_d.c",l
    2251 00000688     3a7d             LDHU    .D2T2   *+B4(18),B7       ; |153| 
    2252 0000068a     1a5d             LDHU    .D2T2   *+B4(16),B5       ; |153| 
    2253                    $C$DW$155       .dwtag  DW_TAG_TI_branch
    2254                            .dwattr $C$DW$155, DW_AT_low_pc(0x00)
    2255                            .dwattr $C$DW$155, DW_AT_name("sprintf")
TMS320C6x Assembler PC v7.4.2 Thu Mar 19 12:44:02 2015

Tools Copyright (c) 1996-2012 Texas Instruments Incorporated
package/lib/Regression/regress_d_c/./../packages/ti/vlib/src/VLIB_ORB_getHarrisScore/VLIB_ORB_getHarrisScore_d.se66 PAGE   42

    2256                            .dwattr $C$DW$155, DW_AT_TI_call
    2257                    
    2258 0000068c 00000011!            CALL    .S1     sprintf           ; |153| 
    2259 00000690 0210a2e6  ||         LDW     .D2T2   *+B4(20),B4       ; |153| 
    2260                    
    2261 00000694 0300006a!            MVKH    .S2     $C$SL4+0,B6
    2262 00000698           $C$DW$L$VLIB_ORB_getHarrisScore_d$45$E:
    2263                    ;** --------------------------------------------------------------------------*
    2264 00000698           $C$L21:    
    2265                            .dwpsn  file "./../packages/ti/vlib/src/VLIB_ORB_getHarrisScore/VLIB_ORB_getHarrisScore_d.c",l
    2266 00000698           $C$DW$L$VLIB_ORB_getHarrisScore_d$46$B:
    2267                    ;          EXCLUSIVE CPU CYCLES: 4
    2268                    ;**     -----------------------g30:
    2269                    ;** 153 -----------------------    C$6 = U$12+v$1;
    2270                    ;** 153 -----------------------    sprintf(K$148, (const char *)"input n_features= %d, width= %d, heig
    2271                    ;** 155 -----------------------    VLIB_skip_test(K$148);
    2272                            .dwpsn  file "./../packages/ti/vlib/src/VLIB_ORB_getHarrisScore/VLIB_ORB_getHarrisScore_d.c",l
    2273 00000698     bc65             STW     .D2T2   B6,*+SP(4)        ; |153| 
    2274 0000069a     9cf5             STW     .D2T2   B7,*+SP(16)       ; |153| 
    2275 000006a0     fc55             STW     .D2T2   B5,*+SP(12)       ; |153| 
    2276                    
    2277 000006a2     dc45             STW     .D2T2   B4,*+SP(8)        ; |153| 
    2278 000006a4 01830163  ||         ADDKPC  .S2     $C$RL24,B3,0      ; |153| 
    2279 000006a8 022c0fd8  ||         MV      .L1     A11,A4            ; |153| 
    2280                    
    2281                    $C$RL24:   ; CALL OCCURS {sprintf} {0}       ; |153| 
    2282                    $C$DW$L$VLIB_ORB_getHarrisScore_d$46$E:
    2283                    ;** --------------------------------------------------------------------------*
    2284                    $C$DW$L$VLIB_ORB_getHarrisScore_d$47$B:
    2285                    ;          EXCLUSIVE CPU CYCLES: 12
    2286                    $C$DW$156       .dwtag  DW_TAG_TI_branch
    2287                            .dwattr $C$DW$156, DW_AT_low_pc(0x00)
    2288                            .dwattr $C$DW$156, DW_AT_name("VLIB_skip_test")
    2289                            .dwattr $C$DW$156, DW_AT_TI_call
    2290                    
    2291 000006ac 10000013!            CALLP   .S2     VLIB_skip_test,B3
    2292 000006b0     8586  ||         MV      .L1     A11,A4            ; |155| 
    2293                    
    2294                            .dwpsn  file "./../packages/ti/vlib/src/VLIB_ORB_getHarrisScore/VLIB_ORB_getHarrisScore_d.c",l
    2295 000006b2           $C$RL25:   ; CALL OCCURS {VLIB_skip_test} {0}  ; |155| 
    2296 000006b2     edcd             LDW     .D2T1   *+SP(60),A4
    2297 000006b4 01b48228             MVKL    .S1     0x16904,A3
    2298 000006b8 018000e8             MVKH    .S1     0x16904,A3
    2299 000006c0 00000000             NOP             1
    2300                            .dwpsn  file "./../packages/ti/vlib/src/VLIB_ORB_getHarrisScore/VLIB_ORB_getHarrisScore_d.c",l
    2301                    $C$DW$157       .dwtag  DW_TAG_TI_branch
    2302                            .dwattr $C$DW$157, DW_AT_low_pc(0x00)
    2303                            .dwattr $C$DW$157, DW_AT_name("VLIB_free")
    2304                            .dwattr $C$DW$157, DW_AT_TI_call
    2305 000006c4 00000010!            CALL    .S1     VLIB_free         ; |159| 
    2306 000006c8 02106a64             LDW     .D1T1   *+A4[A3],A4       ; |159| 
    2307 000006cc           $C$DW$L$VLIB_ORB_getHarrisScore_d$47$E:
    2308                    ;** --------------------------------------------------------------------------*
    2309 000006cc           $C$L22:    
    2310                            .dwpsn  file "./../packages/ti/vlib/src/VLIB_ORB_getHarrisScore/VLIB_ORB_getHarrisScore_d.c",l
TMS320C6x Assembler PC v7.4.2 Thu Mar 19 12:44:02 2015

Tools Copyright (c) 1996-2012 Texas Instruments Incorporated
package/lib/Regression/regress_d_c/./../packages/ti/vlib/src/VLIB_ORB_getHarrisScore/VLIB_ORB_getHarrisScore_d.se66 PAGE   43

    2311 000006cc           $C$DW$L$VLIB_ORB_getHarrisScore_d$48$B:
    2312                    ;          EXCLUSIVE CPU CYCLES: 4
    2313                    ;**     -----------------------g31:
    2314                    ;** 159 -----------------------    VLIB_free((*orbInput).harrisImage);
    2315                    ;** 160 -----------------------    free((*orbOutput_cn).features);
    2316                    ;** 161 -----------------------    VLIB_free((*orbOutput).features);
    2317                    ;** 162 -----------------------    free((void *)orbOutput_cn);
    2318                    ;** 163 -----------------------    VLIB_free((void *)orbOutput);
    2319                    ;** 164 -----------------------    free((void *)orbInput);
    2320                    ;** 51  -----------------------    U$12 += 24;
    2321                    ;** 51  -----------------------    if ( test_cases > (++tpi) ) goto g3;
    2322                            .dwpsn  file "./../packages/ti/vlib/src/VLIB_ORB_getHarrisScore/VLIB_ORB_getHarrisScore_d.c",l
    2323 000006cc 01846162             ADDKPC  .S2     $C$RL26,B3,3      ; |159| 
    2324 000006d0           $C$RL26:   ; CALL OCCURS {VLIB_free} {0}     ; |159| 
    2325 000006d0           $C$DW$L$VLIB_ORB_getHarrisScore_d$48$E:
    2326                    ;** --------------------------------------------------------------------------*
    2327 000006d0           $C$DW$L$VLIB_ORB_getHarrisScore_d$49$B:
    2328                    ;          EXCLUSIVE CPU CYCLES: 40
    2329 000006d0     ae3d             LDW     .D2T1   *+SP(68),A3       ; |159| 
    2330 000006d2     6c6e             NOP             4
    2331                    $C$DW$158       .dwtag  DW_TAG_TI_branch
    2332                            .dwattr $C$DW$158, DW_AT_low_pc(0x00)
    2333                            .dwattr $C$DW$158, DW_AT_name("free")
    2334                            .dwattr $C$DW$158, DW_AT_TI_call
    2335                    
    2336 000006d4 10000013!            CALLP   .S2     free,B3
    2337 000006d8 020c0264  ||         LDW     .D1T1   *A3,A4            ; |160| 
    2338                    
    2339                            .dwpsn  file "./../packages/ti/vlib/src/VLIB_ORB_getHarrisScore/VLIB_ORB_getHarrisScore_d.c",l
    2340                    ;----------------------------------------------------------------------
    2341                    ; 160 | free(orbOutput_cn->features);                                          
    2342                    ;----------------------------------------------------------------------
    2343 000006e0           $C$RL27:   ; CALL OCCURS {free} {0}          ; |160| 
    2344 000006e0     8e3d             LDW     .D2T1   *+SP(64),A3       ; |160| 
    2345 000006e2     6c6e             NOP             4
    2346                    $C$DW$159       .dwtag  DW_TAG_TI_branch
    2347                            .dwattr $C$DW$159, DW_AT_low_pc(0x00)
    2348                            .dwattr $C$DW$159, DW_AT_name("VLIB_free")
    2349                            .dwattr $C$DW$159, DW_AT_TI_call
    2350                    
    2351 000006e4 10000013!            CALLP   .S2     VLIB_free,B3
    2352 000006e8 020c0264  ||         LDW     .D1T1   *A3,A4            ; |161| 
    2353                    
    2354                            .dwpsn  file "./../packages/ti/vlib/src/VLIB_ORB_getHarrisScore/VLIB_ORB_getHarrisScore_d.c",l
    2355                    ;----------------------------------------------------------------------
    2356                    ; 161 | VLIB_free(orbOutput->features);                                        
    2357                    ;----------------------------------------------------------------------
    2358                    $C$RL28:   ; CALL OCCURS {VLIB_free} {0}     ; |161| 
    2359                    $C$DW$160       .dwtag  DW_TAG_TI_branch
    2360                            .dwattr $C$DW$160, DW_AT_low_pc(0x00)
    2361                            .dwattr $C$DW$160, DW_AT_name("free")
    2362                            .dwattr $C$DW$160, DW_AT_TI_call
    2363                    
    2364 000006ec 10000013!            CALLP   .S2     free,B3
    2365 000006f0 023e22e4  ||         LDW     .D2T1   *+SP(68),A4       ; |162| 
TMS320C6x Assembler PC v7.4.2 Thu Mar 19 12:44:02 2015

Tools Copyright (c) 1996-2012 Texas Instruments Incorporated
package/lib/Regression/regress_d_c/./../packages/ti/vlib/src/VLIB_ORB_getHarrisScore/VLIB_ORB_getHarrisScore_d.se66 PAGE   44

    2366                    
    2367                            .dwpsn  file "./../packages/ti/vlib/src/VLIB_ORB_getHarrisScore/VLIB_ORB_getHarrisScore_d.c",l
    2368                    ;----------------------------------------------------------------------
    2369                    ; 162 | free(orbOutput_cn);                                                    
    2370                    ;----------------------------------------------------------------------
    2371                    $C$RL29:   ; CALL OCCURS {free} {0}          ; |162| 
    2372                    $C$DW$161       .dwtag  DW_TAG_TI_branch
    2373                            .dwattr $C$DW$161, DW_AT_low_pc(0x00)
    2374                            .dwattr $C$DW$161, DW_AT_name("VLIB_free")
    2375                            .dwattr $C$DW$161, DW_AT_TI_call
    2376                    
    2377 000006f4 10000013!            CALLP   .S2     VLIB_free,B3
    2378 000006f8 023e02e4  ||         LDW     .D2T1   *+SP(64),A4       ; |163| 
    2379                    
    2380                            .dwpsn  file "./../packages/ti/vlib/src/VLIB_ORB_getHarrisScore/VLIB_ORB_getHarrisScore_d.c",l
    2381                    ;----------------------------------------------------------------------
    2382                    ; 163 | VLIB_free(orbOutput);                                                  
    2383                    ;----------------------------------------------------------------------
    2384                    $C$RL30:   ; CALL OCCURS {VLIB_free} {0}     ; |163| 
    2385                    $C$DW$162       .dwtag  DW_TAG_TI_branch
    2386                            .dwattr $C$DW$162, DW_AT_low_pc(0x00)
    2387                            .dwattr $C$DW$162, DW_AT_name("free")
    2388                            .dwattr $C$DW$162, DW_AT_TI_call
    2389                    
    2390 00000700 10000013!            CALLP   .S2     free,B3
    2391 00000704 023de2e4  ||         LDW     .D2T1   *+SP(60),A4       ; |164| 
    2392                    
    2393                            .dwpsn  file "./../packages/ti/vlib/src/VLIB_ORB_getHarrisScore/VLIB_ORB_getHarrisScore_d.c",l
    2394                    ;----------------------------------------------------------------------
    2395                    ; 164 | free(orbInput);                                                        
    2396                    ;----------------------------------------------------------------------
    2397 00000708           $C$RL31:   ; CALL OCCURS {free} {0}          ; |164| 
    2398 00000708           $C$DW$L$VLIB_ORB_getHarrisScore_d$49$E:
    2399                    ;** --------------------------------------------------------------------------*
    2400 00000708           $C$DW$L$VLIB_ORB_getHarrisScore_d$50$B:
    2401                    ;          EXCLUSIVE CPU CYCLES: 16
    2402 00000708 01800028!            MVKL    .S1     test_cases,A3
    2403 0000070c 01800068!            MVKH    .S1     test_cases,A3
    2404                            .dwpsn  file "./../packages/ti/vlib/src/VLIB_ORB_getHarrisScore/VLIB_ORB_getHarrisScore_d.c",l
    2405 00000710 06000c52             ADDK    .S2     24,B12            ; |51| 
    2406 00000714     91c7             MV      .L2X    A3,B4             ; |51| 
    2407 00000716     104d             LDW     .D2T2   *B4,B4            ; |51| 
    2408 00000718 05ac205a             ADD     .L2     1,B11,B11         ; |51| 
    2409                            .dwpsn  file "./../packages/ti/vlib/src/VLIB_ORB_getHarrisScore/VLIB_ORB_getHarrisScore_d.c",l
    2410 00000720 06800c50             ADDK    .S1     24,A13            ; |62| 
    2411                            .dwpsn  file "./../packages/ti/vlib/src/VLIB_ORB_getHarrisScore/VLIB_ORB_getHarrisScore_d.c",l
    2412 00000724     0db6             ADDAW   .D1X    SP,8,A3           ; |65| 
    2413 00000726     0c6e             NOP             1
    2414                            .dwpsn  file "./../packages/ti/vlib/src/VLIB_ORB_getHarrisScore/VLIB_ORB_getHarrisScore_d.c",l
    2415 00000728 002c88fa             CMPGT   .L2     B4,B11,B0         ; |51| 
    2416                    
    2417 0000072c 2cb44121     [ B0]   BNOP    .S1     $C$L1,2           ; |51| 
    2418 00000730 2534a265  || [ B0]   LDW     .D1T1   *+A13(20),A10     ; |62| 
    2419 00000734 23000a2b  || [ B0]   MVK     .S2     0x14,B6           ; |65| 
    2420 00000738 2328a358  || [ B0]   MVK     .L1     0xa,A6            ; |65| 
TMS320C6x Assembler PC v7.4.2 Thu Mar 19 12:44:02 2015

Tools Copyright (c) 1996-2012 Texas Instruments Incorporated
package/lib/Regression/regress_d_c/./../packages/ti/vlib/src/VLIB_ORB_getHarrisScore/VLIB_ORB_getHarrisScore_d.se66 PAGE   45

    2421                    
    2422                            .dwpsn  file "./../packages/ti/vlib/src/VLIB_ORB_getHarrisScore/VLIB_ORB_getHarrisScore_d.c",l
    2423 00000740 22352206     [ B0]   LDHU    .D1T2   *+A13(18),B4      ; |65| 
    2424 00000744 22350204     [ B0]   LDHU    .D1T1   *+A13(16),A4      ; |65| 
    2425 00000748 04280fd8             MV      .L1     A10,A8            ; |65| 
    2426                            .dwpsn  file "./../packages/ti/vlib/src/VLIB_ORB_getHarrisScore/VLIB_ORB_getHarrisScore_d.c",l
    2427                               ; BRANCHCC OCCURS {$C$L1}         ; |51| 
    2428 0000074c           $C$DW$L$VLIB_ORB_getHarrisScore_d$50$E:
    2429                    ;** --------------------------------------------------------------------------*
    2430 0000074c           $C$L23:    
    2431                    ;          EXCLUSIVE CPU CYCLES: 8
    2432                    ;**     -----------------------g32:
    2433                    ;** 169 -----------------------    VLIB_profile_cycle_report(2, "N = output->n_features", "output->n_f
    2434                    ;** 158 -----------------------    printf((const char *)"---------------------------------------------
    2435                    ;** 165 -----------------------    VLIB_stack_memory();  // [17]
    2436                    ;**     -----------------------    return;
    2437 0000074c 0200002a!            MVKL    .S2     $C$SL6+0,B4
    2438                    
    2439 00000750 03000029!            MVKL    .S1     $C$SL5+0,A6
    2440 00000754 0200006a! ||         MVKH    .S2     $C$SL6+0,B4
    2441                    
    2442                    $C$DW$163       .dwtag  DW_TAG_TI_branch
    2443                            .dwattr $C$DW$163, DW_AT_low_pc(0x00)
    2444                            .dwattr $C$DW$163, DW_AT_name("VLIB_profile_cycle_report")
    2445                            .dwattr $C$DW$163, DW_AT_TI_call
    2446                    
    2447 00000758 10000013!            CALLP   .S2     VLIB_profile_cycle_report,B3
    2448 0000075c 03000069! ||         MVKH    .S1     $C$SL5+0,A6
    2449 00000760 0208a358  ||         MVK     .L1     0x2,A4            ; |169| 
    2450                    
    2451                            .dwpsn  file "./../packages/ti/vlib/src/VLIB_ORB_getHarrisScore/VLIB_ORB_getHarrisScore_d.c",l
    2452                    ;----------------------------------------------------------------------
    2453                    ; 169 | VLIB_profile_cycle_report(vlib_PROFILE_FORMULA_RANGE,                  
    2454                    ; 170 |                           "N = output->n_features",                    
    2455                    ; 171 |                           "output->n_features");                       
    2456                    ; 174 | VLIB_kernel_memory();                                                  
    2457                    ;----------------------------------------------------------------------
    2458 00000764           $C$RL32:   ; CALL OCCURS {VLIB_profile_cycle_report} {0}  ; |169| 
    2459                    ;** --------------------------------------------------------------------------*
    2460                    ;          EXCLUSIVE CPU CYCLES: 14
    2461 00000764 0200002a!            MVKL    .S2     $C$SL7+0,B4
    2462 00000768 0200006a!            MVKH    .S2     $C$SL7+0,B4
    2463                    $C$DW$164       .dwtag  DW_TAG_TI_branch
    2464                            .dwattr $C$DW$164, DW_AT_low_pc(0x00)
    2465                            .dwattr $C$DW$164, DW_AT_name("printf")
    2466                            .dwattr $C$DW$164, DW_AT_TI_call
    2467                    
    2468 0000076c 10000013!            CALLP   .S2     printf,B3
    2469 00000770 023c22f6  ||         STW     .D2T2   B4,*+SP(4)        ; |158| 
    2470                    
    2471                            .dwpsn  file ".\..\packages\ti\vlib\src\VLIB_ORB_getHarrisScore\../common/VLIB_memory.h",line 
    2472                    $C$RL33:   ; CALL OCCURS {printf} {0}        ; |158| 
    2473                    $C$DW$165       .dwtag  DW_TAG_TI_branch
    2474                            .dwattr $C$DW$165, DW_AT_low_pc(0x00)
    2475                            .dwattr $C$DW$165, DW_AT_name("VLIB_stack_memory")
TMS320C6x Assembler PC v7.4.2 Thu Mar 19 12:44:02 2015

Tools Copyright (c) 1996-2012 Texas Instruments Incorporated
package/lib/Regression/regress_d_c/./../packages/ti/vlib/src/VLIB_ORB_getHarrisScore/VLIB_ORB_getHarrisScore_d.se66 PAGE   46

    2476                            .dwattr $C$DW$165, DW_AT_TI_call
    2477 00000774 10000012!            CALLP   .S2     VLIB_stack_memory,B3
    2478                            .dwpsn  file ".\..\packages\ti\vlib\src\VLIB_ORB_getHarrisScore\../common/VLIB_memory.h",line 
    2479 00000778           $C$RL34:   ; CALL OCCURS {VLIB_stack_memory} {0}  ; |165| 
    2480                    ;** --------------------------------------------------------------------------*
    2481                    ;          EXCLUSIVE CPU CYCLES: 13
    2482                            .dwpsn  file "./../packages/ti/vlib/src/VLIB_ORB_getHarrisScore/VLIB_ORB_getHarrisScore_d.c",l
    2483 00000778 01be92e6             LDW     .D2T2   *++SP(80),B3      ; |176| 
    2484                            .dwcfi  cfa_offset, 48
    2485                            .dwcfi  restore_reg, 19
    2486 0000077c 063c33e4             LDDW    .D2T1   *++SP,A13:A12
    2487                            .dwcfi  cfa_offset, 40
    2488                            .dwcfi  restore_reg, 13
    2489                            .dwcfi  restore_reg, 12
    2490 00000780 073c33e4             LDDW    .D2T1   *++SP,A15:A14
    2491                            .dwcfi  cfa_offset, 32
    2492                            .dwcfi  restore_reg, 15
    2493                            .dwcfi  restore_reg, 14
    2494 00000784 053c33e6             LDDW    .D2T2   *++SP,B11:B10
    2495                            .dwcfi  cfa_offset, 24
    2496                            .dwcfi  restore_reg, 27
    2497                            .dwcfi  restore_reg, 26
    2498 00000788 063c33e6             LDDW    .D2T2   *++SP,B13:B12
    2499                            .dwcfi  cfa_offset, 16
    2500                            .dwcfi  restore_reg, 29
    2501                            .dwcfi  restore_reg, 28
    2502 0000078c 053c52e4             LDW     .D2T1   *++SP(8),A10
    2503                            .dwcfi  cfa_offset, 8
    2504                            .dwcfi  restore_reg, 10
    2505 00000790 05bc52e4             LDW     .D2T1   *++SP(8),A11      ; |176| 
    2506                            .dwcfi  cfa_offset, 0
    2507                            .dwcfi  restore_reg, 11
    2508                            .dwcfi  cfa_offset, 0
    2509                    $C$DW$166       .dwtag  DW_TAG_TI_branch
    2510                            .dwattr $C$DW$166, DW_AT_low_pc(0x00)
    2511                            .dwattr $C$DW$166, DW_AT_TI_return
    2512 00000794 008ca362             RETNOP  .S2     B3,5
    2513                               ; BRANCH OCCURS {B3}  
    2514                    
    2515                    $C$DW$167       .dwtag  DW_TAG_TI_loop
    2516                            .dwattr $C$DW$167, DW_AT_name("c:\nightlybuilds\vlib\ti\vlib\vlib\examples\package/lib/Regress
    2517                            .dwattr $C$DW$167, DW_AT_TI_begin_file("./../packages/ti/vlib/src/VLIB_ORB_getHarrisScore/VLIB
    2518                            .dwattr $C$DW$167, DW_AT_TI_begin_line(0x33)
    2519                            .dwattr $C$DW$167, DW_AT_TI_end_line(0xa6)
    2520                    $C$DW$168       .dwtag  DW_TAG_TI_loop_range
    2521                            .dwattr $C$DW$168, DW_AT_low_pc($C$DW$L$VLIB_ORB_getHarrisScore_d$4$B)
    2522                            .dwattr $C$DW$168, DW_AT_high_pc($C$DW$L$VLIB_ORB_getHarrisScore_d$4$E)
    2523                    $C$DW$169       .dwtag  DW_TAG_TI_loop_range
    2524                            .dwattr $C$DW$169, DW_AT_low_pc($C$DW$L$VLIB_ORB_getHarrisScore_d$43$B)
    2525                            .dwattr $C$DW$169, DW_AT_high_pc($C$DW$L$VLIB_ORB_getHarrisScore_d$43$E)
    2526                    $C$DW$170       .dwtag  DW_TAG_TI_loop_range
    2527                            .dwattr $C$DW$170, DW_AT_low_pc($C$DW$L$VLIB_ORB_getHarrisScore_d$44$B)
    2528                            .dwattr $C$DW$170, DW_AT_high_pc($C$DW$L$VLIB_ORB_getHarrisScore_d$44$E)
    2529                    $C$DW$171       .dwtag  DW_TAG_TI_loop_range
    2530                            .dwattr $C$DW$171, DW_AT_low_pc($C$DW$L$VLIB_ORB_getHarrisScore_d$45$B)
TMS320C6x Assembler PC v7.4.2 Thu Mar 19 12:44:02 2015

Tools Copyright (c) 1996-2012 Texas Instruments Incorporated
package/lib/Regression/regress_d_c/./../packages/ti/vlib/src/VLIB_ORB_getHarrisScore/VLIB_ORB_getHarrisScore_d.se66 PAGE   47

    2531                            .dwattr $C$DW$171, DW_AT_high_pc($C$DW$L$VLIB_ORB_getHarrisScore_d$45$E)
    2532                    $C$DW$172       .dwtag  DW_TAG_TI_loop_range
    2533                            .dwattr $C$DW$172, DW_AT_low_pc($C$DW$L$VLIB_ORB_getHarrisScore_d$46$B)
    2534                            .dwattr $C$DW$172, DW_AT_high_pc($C$DW$L$VLIB_ORB_getHarrisScore_d$46$E)
    2535                    $C$DW$173       .dwtag  DW_TAG_TI_loop_range
    2536                            .dwattr $C$DW$173, DW_AT_low_pc($C$DW$L$VLIB_ORB_getHarrisScore_d$37$B)
    2537                            .dwattr $C$DW$173, DW_AT_high_pc($C$DW$L$VLIB_ORB_getHarrisScore_d$37$E)
    2538                    $C$DW$174       .dwtag  DW_TAG_TI_loop_range
    2539                            .dwattr $C$DW$174, DW_AT_low_pc($C$DW$L$VLIB_ORB_getHarrisScore_d$30$B)
    2540                            .dwattr $C$DW$174, DW_AT_high_pc($C$DW$L$VLIB_ORB_getHarrisScore_d$30$E)
    2541                    $C$DW$175       .dwtag  DW_TAG_TI_loop_range
    2542                            .dwattr $C$DW$175, DW_AT_low_pc($C$DW$L$VLIB_ORB_getHarrisScore_d$31$B)
    2543                            .dwattr $C$DW$175, DW_AT_high_pc($C$DW$L$VLIB_ORB_getHarrisScore_d$31$E)
    2544                    $C$DW$176       .dwtag  DW_TAG_TI_loop_range
    2545                            .dwattr $C$DW$176, DW_AT_low_pc($C$DW$L$VLIB_ORB_getHarrisScore_d$35$B)
    2546                            .dwattr $C$DW$176, DW_AT_high_pc($C$DW$L$VLIB_ORB_getHarrisScore_d$35$E)
    2547                    $C$DW$177       .dwtag  DW_TAG_TI_loop_range
    2548                            .dwattr $C$DW$177, DW_AT_low_pc($C$DW$L$VLIB_ORB_getHarrisScore_d$36$B)
    2549                            .dwattr $C$DW$177, DW_AT_high_pc($C$DW$L$VLIB_ORB_getHarrisScore_d$36$E)
    2550                    $C$DW$178       .dwtag  DW_TAG_TI_loop_range
    2551                            .dwattr $C$DW$178, DW_AT_low_pc($C$DW$L$VLIB_ORB_getHarrisScore_d$38$B)
    2552                            .dwattr $C$DW$178, DW_AT_high_pc($C$DW$L$VLIB_ORB_getHarrisScore_d$38$E)
    2553                    $C$DW$179       .dwtag  DW_TAG_TI_loop_range
    2554                            .dwattr $C$DW$179, DW_AT_low_pc($C$DW$L$VLIB_ORB_getHarrisScore_d$27$B)
    2555                            .dwattr $C$DW$179, DW_AT_high_pc($C$DW$L$VLIB_ORB_getHarrisScore_d$27$E)
    2556                    $C$DW$180       .dwtag  DW_TAG_TI_loop_range
    2557                            .dwattr $C$DW$180, DW_AT_low_pc($C$DW$L$VLIB_ORB_getHarrisScore_d$14$B)
    2558                            .dwattr $C$DW$180, DW_AT_high_pc($C$DW$L$VLIB_ORB_getHarrisScore_d$14$E)
    2559                    $C$DW$181       .dwtag  DW_TAG_TI_loop_range
    2560                            .dwattr $C$DW$181, DW_AT_low_pc($C$DW$L$VLIB_ORB_getHarrisScore_d$7$B)
    2561                            .dwattr $C$DW$181, DW_AT_high_pc($C$DW$L$VLIB_ORB_getHarrisScore_d$7$E)
    2562                    $C$DW$182       .dwtag  DW_TAG_TI_loop_range
    2563                            .dwattr $C$DW$182, DW_AT_low_pc($C$DW$L$VLIB_ORB_getHarrisScore_d$8$B)
    2564                            .dwattr $C$DW$182, DW_AT_high_pc($C$DW$L$VLIB_ORB_getHarrisScore_d$8$E)
    2565                    $C$DW$183       .dwtag  DW_TAG_TI_loop_range
    2566                            .dwattr $C$DW$183, DW_AT_low_pc($C$DW$L$VLIB_ORB_getHarrisScore_d$5$B)
    2567                            .dwattr $C$DW$183, DW_AT_high_pc($C$DW$L$VLIB_ORB_getHarrisScore_d$5$E)
    2568                    $C$DW$184       .dwtag  DW_TAG_TI_loop_range
    2569                            .dwattr $C$DW$184, DW_AT_low_pc($C$DW$L$VLIB_ORB_getHarrisScore_d$6$B)
    2570                            .dwattr $C$DW$184, DW_AT_high_pc($C$DW$L$VLIB_ORB_getHarrisScore_d$6$E)
    2571                    $C$DW$185       .dwtag  DW_TAG_TI_loop_range
    2572                            .dwattr $C$DW$185, DW_AT_low_pc($C$DW$L$VLIB_ORB_getHarrisScore_d$9$B)
    2573                            .dwattr $C$DW$185, DW_AT_high_pc($C$DW$L$VLIB_ORB_getHarrisScore_d$9$E)
    2574                    $C$DW$186       .dwtag  DW_TAG_TI_loop_range
    2575                            .dwattr $C$DW$186, DW_AT_low_pc($C$DW$L$VLIB_ORB_getHarrisScore_d$10$B)
    2576                            .dwattr $C$DW$186, DW_AT_high_pc($C$DW$L$VLIB_ORB_getHarrisScore_d$10$E)
    2577                    $C$DW$187       .dwtag  DW_TAG_TI_loop_range
    2578                            .dwattr $C$DW$187, DW_AT_low_pc($C$DW$L$VLIB_ORB_getHarrisScore_d$11$B)
    2579                            .dwattr $C$DW$187, DW_AT_high_pc($C$DW$L$VLIB_ORB_getHarrisScore_d$11$E)
    2580                    $C$DW$188       .dwtag  DW_TAG_TI_loop_range
    2581                            .dwattr $C$DW$188, DW_AT_low_pc($C$DW$L$VLIB_ORB_getHarrisScore_d$12$B)
    2582                            .dwattr $C$DW$188, DW_AT_high_pc($C$DW$L$VLIB_ORB_getHarrisScore_d$12$E)
    2583                    $C$DW$189       .dwtag  DW_TAG_TI_loop_range
    2584                            .dwattr $C$DW$189, DW_AT_low_pc($C$DW$L$VLIB_ORB_getHarrisScore_d$13$B)
    2585                            .dwattr $C$DW$189, DW_AT_high_pc($C$DW$L$VLIB_ORB_getHarrisScore_d$13$E)
TMS320C6x Assembler PC v7.4.2 Thu Mar 19 12:44:02 2015

Tools Copyright (c) 1996-2012 Texas Instruments Incorporated
package/lib/Regression/regress_d_c/./../packages/ti/vlib/src/VLIB_ORB_getHarrisScore/VLIB_ORB_getHarrisScore_d.se66 PAGE   48

    2586                    $C$DW$190       .dwtag  DW_TAG_TI_loop_range
    2587                            .dwattr $C$DW$190, DW_AT_low_pc($C$DW$L$VLIB_ORB_getHarrisScore_d$18$B)
    2588                            .dwattr $C$DW$190, DW_AT_high_pc($C$DW$L$VLIB_ORB_getHarrisScore_d$18$E)
    2589                    $C$DW$191       .dwtag  DW_TAG_TI_loop_range
    2590                            .dwattr $C$DW$191, DW_AT_low_pc($C$DW$L$VLIB_ORB_getHarrisScore_d$19$B)
    2591                            .dwattr $C$DW$191, DW_AT_high_pc($C$DW$L$VLIB_ORB_getHarrisScore_d$19$E)
    2592                    $C$DW$192       .dwtag  DW_TAG_TI_loop_range
    2593                            .dwattr $C$DW$192, DW_AT_low_pc($C$DW$L$VLIB_ORB_getHarrisScore_d$20$B)
    2594                            .dwattr $C$DW$192, DW_AT_high_pc($C$DW$L$VLIB_ORB_getHarrisScore_d$20$E)
    2595                    $C$DW$193       .dwtag  DW_TAG_TI_loop_range
    2596                            .dwattr $C$DW$193, DW_AT_low_pc($C$DW$L$VLIB_ORB_getHarrisScore_d$21$B)
    2597                            .dwattr $C$DW$193, DW_AT_high_pc($C$DW$L$VLIB_ORB_getHarrisScore_d$21$E)
    2598                    $C$DW$194       .dwtag  DW_TAG_TI_loop_range
    2599                            .dwattr $C$DW$194, DW_AT_low_pc($C$DW$L$VLIB_ORB_getHarrisScore_d$25$B)
    2600                            .dwattr $C$DW$194, DW_AT_high_pc($C$DW$L$VLIB_ORB_getHarrisScore_d$25$E)
    2601                    $C$DW$195       .dwtag  DW_TAG_TI_loop_range
    2602                            .dwattr $C$DW$195, DW_AT_low_pc($C$DW$L$VLIB_ORB_getHarrisScore_d$26$B)
    2603                            .dwattr $C$DW$195, DW_AT_high_pc($C$DW$L$VLIB_ORB_getHarrisScore_d$26$E)
    2604                    $C$DW$196       .dwtag  DW_TAG_TI_loop_range
    2605                            .dwattr $C$DW$196, DW_AT_low_pc($C$DW$L$VLIB_ORB_getHarrisScore_d$28$B)
    2606                            .dwattr $C$DW$196, DW_AT_high_pc($C$DW$L$VLIB_ORB_getHarrisScore_d$28$E)
    2607                    $C$DW$197       .dwtag  DW_TAG_TI_loop_range
    2608                            .dwattr $C$DW$197, DW_AT_low_pc($C$DW$L$VLIB_ORB_getHarrisScore_d$29$B)
    2609                            .dwattr $C$DW$197, DW_AT_high_pc($C$DW$L$VLIB_ORB_getHarrisScore_d$29$E)
    2610                    $C$DW$198       .dwtag  DW_TAG_TI_loop_range
    2611                            .dwattr $C$DW$198, DW_AT_low_pc($C$DW$L$VLIB_ORB_getHarrisScore_d$39$B)
    2612                            .dwattr $C$DW$198, DW_AT_high_pc($C$DW$L$VLIB_ORB_getHarrisScore_d$39$E)
    2613                    $C$DW$199       .dwtag  DW_TAG_TI_loop_range
    2614                            .dwattr $C$DW$199, DW_AT_low_pc($C$DW$L$VLIB_ORB_getHarrisScore_d$40$B)
    2615                            .dwattr $C$DW$199, DW_AT_high_pc($C$DW$L$VLIB_ORB_getHarrisScore_d$40$E)
    2616                    $C$DW$200       .dwtag  DW_TAG_TI_loop_range
    2617                            .dwattr $C$DW$200, DW_AT_low_pc($C$DW$L$VLIB_ORB_getHarrisScore_d$41$B)
    2618                            .dwattr $C$DW$200, DW_AT_high_pc($C$DW$L$VLIB_ORB_getHarrisScore_d$41$E)
    2619                    $C$DW$201       .dwtag  DW_TAG_TI_loop_range
    2620                            .dwattr $C$DW$201, DW_AT_low_pc($C$DW$L$VLIB_ORB_getHarrisScore_d$42$B)
    2621                            .dwattr $C$DW$201, DW_AT_high_pc($C$DW$L$VLIB_ORB_getHarrisScore_d$42$E)
    2622                    $C$DW$202       .dwtag  DW_TAG_TI_loop_range
    2623                            .dwattr $C$DW$202, DW_AT_low_pc($C$DW$L$VLIB_ORB_getHarrisScore_d$47$B)
    2624                            .dwattr $C$DW$202, DW_AT_high_pc($C$DW$L$VLIB_ORB_getHarrisScore_d$47$E)
    2625                    $C$DW$203       .dwtag  DW_TAG_TI_loop_range
    2626                            .dwattr $C$DW$203, DW_AT_low_pc($C$DW$L$VLIB_ORB_getHarrisScore_d$48$B)
    2627                            .dwattr $C$DW$203, DW_AT_high_pc($C$DW$L$VLIB_ORB_getHarrisScore_d$48$E)
    2628                    $C$DW$204       .dwtag  DW_TAG_TI_loop_range
    2629                            .dwattr $C$DW$204, DW_AT_low_pc($C$DW$L$VLIB_ORB_getHarrisScore_d$49$B)
    2630                            .dwattr $C$DW$204, DW_AT_high_pc($C$DW$L$VLIB_ORB_getHarrisScore_d$49$E)
    2631                    $C$DW$205       .dwtag  DW_TAG_TI_loop_range
    2632                            .dwattr $C$DW$205, DW_AT_low_pc($C$DW$L$VLIB_ORB_getHarrisScore_d$50$B)
    2633                            .dwattr $C$DW$205, DW_AT_high_pc($C$DW$L$VLIB_ORB_getHarrisScore_d$50$E)
    2634                    
    2635                    $C$DW$206       .dwtag  DW_TAG_TI_loop
    2636                            .dwattr $C$DW$206, DW_AT_name("c:\nightlybuilds\vlib\ti\vlib\vlib\examples\package/lib/Regress
    2637                            .dwattr $C$DW$206, DW_AT_TI_begin_file("./../packages/ti/vlib/src/VLIB_ORB_getHarrisScore/VLIB
    2638                            .dwattr $C$DW$206, DW_AT_TI_begin_line(0x80)
    2639                            .dwattr $C$DW$206, DW_AT_TI_end_line(0x88)
    2640                    $C$DW$207       .dwtag  DW_TAG_TI_loop_range
TMS320C6x Assembler PC v7.4.2 Thu Mar 19 12:44:02 2015

Tools Copyright (c) 1996-2012 Texas Instruments Incorporated
package/lib/Regression/regress_d_c/./../packages/ti/vlib/src/VLIB_ORB_getHarrisScore/VLIB_ORB_getHarrisScore_d.se66 PAGE   49

    2641                            .dwattr $C$DW$207, DW_AT_low_pc($C$DW$L$VLIB_ORB_getHarrisScore_d$33$B)
    2642                            .dwattr $C$DW$207, DW_AT_high_pc($C$DW$L$VLIB_ORB_getHarrisScore_d$33$E)
    2643                            .dwendtag $C$DW$206
    2644                    
    2645                    
    2646                    $C$DW$208       .dwtag  DW_TAG_TI_loop
    2647                            .dwattr $C$DW$208, DW_AT_name("c:\nightlybuilds\vlib\ti\vlib\vlib\examples\package/lib/Regress
    2648                            .dwattr $C$DW$208, DW_AT_TI_begin_file("./../packages/ti/vlib/src/VLIB_ORB_getHarrisScore/VLIB
    2649                            .dwattr $C$DW$208, DW_AT_TI_begin_line(0x5c)
    2650                            .dwattr $C$DW$208, DW_AT_TI_end_line(0x61)
    2651                    $C$DW$209       .dwtag  DW_TAG_TI_loop_range
    2652                            .dwattr $C$DW$209, DW_AT_low_pc($C$DW$L$VLIB_ORB_getHarrisScore_d$16$B)
    2653                            .dwattr $C$DW$209, DW_AT_high_pc($C$DW$L$VLIB_ORB_getHarrisScore_d$16$E)
    2654                            .dwendtag $C$DW$208
    2655                    
    2656                    
    2657                    $C$DW$210       .dwtag  DW_TAG_TI_loop
    2658                            .dwattr $C$DW$210, DW_AT_name("c:\nightlybuilds\vlib\ti\vlib\vlib\examples\package/lib/Regress
    2659                            .dwattr $C$DW$210, DW_AT_TI_begin_file("./../packages/ti/vlib/src/VLIB_ORB_getHarrisScore/VLIB
    2660                            .dwattr $C$DW$210, DW_AT_TI_begin_line(0x74)
    2661                            .dwattr $C$DW$210, DW_AT_TI_end_line(0x7c)
    2662                    $C$DW$211       .dwtag  DW_TAG_TI_loop_range
    2663                            .dwattr $C$DW$211, DW_AT_low_pc($C$DW$L$VLIB_ORB_getHarrisScore_d$23$B)
    2664                            .dwattr $C$DW$211, DW_AT_high_pc($C$DW$L$VLIB_ORB_getHarrisScore_d$23$E)
    2665                            .dwendtag $C$DW$210
    2666                    
    2667                            .dwendtag $C$DW$167
    2668                    
    2669                            .dwattr $C$DW$77, DW_AT_TI_end_file("./../packages/ti/vlib/src/VLIB_ORB_getHarrisScore/VLIB_OR
    2670                            .dwattr $C$DW$77, DW_AT_TI_end_line(0xb0)
    2671                            .dwattr $C$DW$77, DW_AT_TI_end_column(0x01)
    2672                            .dwendentry
    2673                            .dwendtag $C$DW$77
    2674                    
    2675                    ;; Inlined function references:
    2676                    ;; [ 14] VLIB_profile_start
    2677                    ;; [ 15] VLIB_profile_stop
    2678                    ;; [ 17] VLIB_kernel_memory
    2679                    ;******************************************************************************
    2680                    ;* STRINGS                                                                    *
    2681                    ;******************************************************************************
    2682 00000000                   .sect   ".const:.string"
    2683 00000000 00000056  $C$SL1: .string "VLIB_ORB_getHarrisScore",0
         00000001 0000004C 
         00000002 00000049 
         00000003 00000042 
         00000004 0000005F 
         00000005 0000004F 
         00000006 00000052 
         00000007 00000042 
         00000008 0000005F 
         00000009 00000067 
         0000000a 00000065 
         0000000b 00000074 
         0000000c 00000048 
TMS320C6x Assembler PC v7.4.2 Thu Mar 19 12:44:02 2015

Tools Copyright (c) 1996-2012 Texas Instruments Incorporated
package/lib/Regression/regress_d_c/./../packages/ti/vlib/src/VLIB_ORB_getHarrisScore/VLIB_ORB_getHarrisScore_d.se66 PAGE   50

         0000000d 00000061 
         0000000e 00000072 
         0000000f 00000072 
         00000010 00000069 
         00000011 00000073 
         00000012 00000053 
         00000013 00000063 
         00000014 0000006F 
         00000015 00000072 
         00000016 00000065 
         00000017 00000000 
    2684 00000018 00000020  $C$SL2: .string " Mismatch in Index = %u ",10,0
         00000019 0000004D 
         0000001a 00000069 
         0000001b 00000073 
         0000001c 0000006D 
         0000001d 00000061 
         0000001e 00000074 
         0000001f 00000063 
         00000020 00000068 
         00000021 00000020 
         00000022 00000069 
         00000023 0000006E 
         00000024 00000020 
         00000025 00000049 
         00000026 0000006E 
         00000027 00000064 
         00000028 00000065 
         00000029 00000078 
         0000002a 00000020 
         0000002b 0000003D 
         0000002c 00000020 
         0000002d 00000025 
         0000002e 00000075 
         0000002f 00000020 
         00000030 0000000A 
         00000031 00000000 
    2685 00000032 00000025  $C$SL3: .string "%s generated input | Opt and NatC results compared | input "
         00000033 00000073 
         00000034 00000020 
         00000035 00000067 
         00000036 00000065 
         00000037 0000006E 
         00000038 00000065 
         00000039 00000072 
         0000003a 00000061 
         0000003b 00000074 
         0000003c 00000065 
         0000003d 00000064 
         0000003e 00000020 
         0000003f 00000069 
         00000040 0000006E 
         00000041 00000070 
         00000042 00000075 
         00000043 00000074 
TMS320C6x Assembler PC v7.4.2 Thu Mar 19 12:44:02 2015

Tools Copyright (c) 1996-2012 Texas Instruments Incorporated
package/lib/Regression/regress_d_c/./../packages/ti/vlib/src/VLIB_ORB_getHarrisScore/VLIB_ORB_getHarrisScore_d.se66 PAGE   51

         00000044 00000020 
         00000045 0000007C 
         00000046 00000020 
         00000047 0000004F 
         00000048 00000070 
         00000049 00000074 
         0000004a 00000020 
         0000004b 00000061 
         0000004c 0000006E 
         0000004d 00000064 
         0000004e 00000020 
         0000004f 0000004E 
         00000050 00000061 
         00000051 00000074 
         00000052 00000043 
         00000053 00000020 
         00000054 00000072 
         00000055 00000065 
         00000056 00000073 
         00000057 00000075 
         00000058 0000006C 
         00000059 00000074 
         0000005a 00000073 
         0000005b 00000020 
         0000005c 00000063 
         0000005d 0000006F 
         0000005e 0000006D 
         0000005f 00000070 
         00000060 00000061 
         00000061 00000072 
         00000062 00000065 
         00000063 00000064 
         00000064 00000020 
         00000065 0000007C 
         00000066 00000020 
         00000067 00000069 
         00000068 0000006E 
         00000069 00000070 
         0000006a 00000075 
         0000006b 00000074 
         0000006c 00000020 
    2686 0000006d 0000006E          .string "n_features= %d, width= %d, height= %d",0
         0000006e 0000005F 
         0000006f 00000066 
         00000070 00000065 
         00000071 00000061 
         00000072 00000074 
         00000073 00000075 
         00000074 00000072 
         00000075 00000065 
         00000076 00000073 
         00000077 0000003D 
         00000078 00000020 
         00000079 00000025 
         0000007a 00000064 
TMS320C6x Assembler PC v7.4.2 Thu Mar 19 12:44:02 2015

Tools Copyright (c) 1996-2012 Texas Instruments Incorporated
package/lib/Regression/regress_d_c/./../packages/ti/vlib/src/VLIB_ORB_getHarrisScore/VLIB_ORB_getHarrisScore_d.se66 PAGE   52

         0000007b 0000002C 
         0000007c 00000020 
         0000007d 00000077 
         0000007e 00000069 
         0000007f 00000064 
         00000080 00000074 
         00000081 00000068 
         00000082 0000003D 
         00000083 00000020 
         00000084 00000025 
         00000085 00000064 
         00000086 0000002C 
         00000087 00000020 
         00000088 00000068 
         00000089 00000065 
         0000008a 00000069 
         0000008b 00000067 
         0000008c 00000068 
         0000008d 00000074 
         0000008e 0000003D 
         0000008f 00000020 
         00000090 00000025 
         00000091 00000064 
         00000092 00000000 
    2687 00000093 00000069  $C$SL4: .string "input n_features= %d, width= %d, height= %d",0
         00000094 0000006E 
         00000095 00000070 
         00000096 00000075 
         00000097 00000074 
         00000098 00000020 
         00000099 0000006E 
         0000009a 0000005F 
         0000009b 00000066 
         0000009c 00000065 
         0000009d 00000061 
         0000009e 00000074 
         0000009f 00000075 
         000000a0 00000072 
         000000a1 00000065 
         000000a2 00000073 
         000000a3 0000003D 
         000000a4 00000020 
         000000a5 00000025 
         000000a6 00000064 
         000000a7 0000002C 
         000000a8 00000020 
         000000a9 00000077 
         000000aa 00000069 
         000000ab 00000064 
         000000ac 00000074 
         000000ad 00000068 
         000000ae 0000003D 
         000000af 00000020 
         000000b0 00000025 
         000000b1 00000064 
TMS320C6x Assembler PC v7.4.2 Thu Mar 19 12:44:02 2015

Tools Copyright (c) 1996-2012 Texas Instruments Incorporated
package/lib/Regression/regress_d_c/./../packages/ti/vlib/src/VLIB_ORB_getHarrisScore/VLIB_ORB_getHarrisScore_d.se66 PAGE   53

         000000b2 0000002C 
         000000b3 00000020 
         000000b4 00000068 
         000000b5 00000065 
         000000b6 00000069 
         000000b7 00000067 
         000000b8 00000068 
         000000b9 00000074 
         000000ba 0000003D 
         000000bb 00000020 
         000000bc 00000025 
         000000bd 00000064 
         000000be 00000000 
    2688 000000bf 0000006F  $C$SL5: .string "output->n_features",0
         000000c0 00000075 
         000000c1 00000074 
         000000c2 00000070 
         000000c3 00000075 
         000000c4 00000074 
         000000c5 0000002D 
         000000c6 0000003E 
         000000c7 0000006E 
         000000c8 0000005F 
         000000c9 00000066 
         000000ca 00000065 
         000000cb 00000061 
         000000cc 00000074 
         000000cd 00000075 
         000000ce 00000072 
         000000cf 00000065 
         000000d0 00000073 
         000000d1 00000000 
    2689 000000d2 0000004E  $C$SL6: .string "N = output->n_features",0
         000000d3 00000020 
         000000d4 0000003D 
         000000d5 00000020 
         000000d6 0000006F 
         000000d7 00000075 
         000000d8 00000074 
         000000d9 00000070 
         000000da 00000075 
         000000db 00000074 
         000000dc 0000002D 
         000000dd 0000003E 
         000000de 0000006E 
         000000df 0000005F 
         000000e0 00000066 
         000000e1 00000065 
         000000e2 00000061 
         000000e3 00000074 
         000000e4 00000075 
         000000e5 00000072 
         000000e6 00000065 
         000000e7 00000073 
         000000e8 00000000 
TMS320C6x Assembler PC v7.4.2 Thu Mar 19 12:44:02 2015

Tools Copyright (c) 1996-2012 Texas Instruments Incorporated
package/lib/Regression/regress_d_c/./../packages/ti/vlib/src/VLIB_ORB_getHarrisScore/VLIB_ORB_getHarrisScore_d.se66 PAGE   54

    2690 000000e9 0000002D  $C$SL7: .string "-----------------------------------------------------------"
         000000ea 0000002D 
         000000eb 0000002D 
         000000ec 0000002D 
         000000ed 0000002D 
         000000ee 0000002D 
         000000ef 0000002D 
         000000f0 0000002D 
         000000f1 0000002D 
         000000f2 0000002D 
         000000f3 0000002D 
         000000f4 0000002D 
         000000f5 0000002D 
         000000f6 0000002D 
         000000f7 0000002D 
         000000f8 0000002D 
         000000f9 0000002D 
         000000fa 0000002D 
         000000fb 0000002D 
         000000fc 0000002D 
         000000fd 0000002D 
         000000fe 0000002D 
         000000ff 0000002D 
         00000100 0000002D 
         00000101 0000002D 
         00000102 0000002D 
         00000103 0000002D 
         00000104 0000002D 
         00000105 0000002D 
         00000106 0000002D 
         00000107 0000002D 
         00000108 0000002D 
         00000109 0000002D 
         0000010a 0000002D 
         0000010b 0000002D 
         0000010c 0000002D 
         0000010d 0000002D 
         0000010e 0000002D 
         0000010f 0000002D 
         00000110 0000002D 
         00000111 0000002D 
         00000112 0000002D 
         00000113 0000002D 
         00000114 0000002D 
         00000115 0000002D 
         00000116 0000002D 
         00000117 0000002D 
         00000118 0000002D 
         00000119 0000002D 
         0000011a 0000002D 
         0000011b 0000002D 
         0000011c 0000002D 
         0000011d 0000002D 
         0000011e 0000002D 
         0000011f 0000002D 
TMS320C6x Assembler PC v7.4.2 Thu Mar 19 12:44:02 2015

Tools Copyright (c) 1996-2012 Texas Instruments Incorporated
package/lib/Regression/regress_d_c/./../packages/ti/vlib/src/VLIB_ORB_getHarrisScore/VLIB_ORB_getHarrisScore_d.se66 PAGE   55

         00000120 0000002D 
         00000121 0000002D 
         00000122 0000002D 
         00000123 0000002D 
    2691 00000124 0000002D          .string "-----------------------------------------------------------"
         00000125 0000002D 
         00000126 0000002D 
         00000127 0000002D 
         00000128 0000002D 
         00000129 0000002D 
         0000012a 0000002D 
         0000012b 0000002D 
         0000012c 0000002D 
         0000012d 0000002D 
         0000012e 0000002D 
         0000012f 0000002D 
         00000130 0000002D 
         00000131 0000002D 
         00000132 0000002D 
         00000133 0000002D 
         00000134 0000002D 
         00000135 0000002D 
         00000136 0000002D 
         00000137 0000002D 
         00000138 0000002D 
         00000139 0000002D 
         0000013a 0000002D 
         0000013b 0000002D 
         0000013c 0000002D 
         0000013d 0000002D 
         0000013e 0000002D 
         0000013f 0000002D 
         00000140 0000002D 
         00000141 0000002D 
         00000142 0000002D 
         00000143 0000002D 
         00000144 0000002D 
         00000145 0000002D 
         00000146 0000002D 
         00000147 0000002D 
         00000148 0000002D 
         00000149 0000002D 
         0000014a 0000002D 
         0000014b 0000002D 
         0000014c 0000002D 
         0000014d 0000002D 
         0000014e 0000002D 
         0000014f 0000002D 
         00000150 0000002D 
         00000151 0000002D 
         00000152 0000002D 
         00000153 0000002D 
         00000154 0000002D 
         00000155 0000002D 
         00000156 0000002D 
TMS320C6x Assembler PC v7.4.2 Thu Mar 19 12:44:02 2015

Tools Copyright (c) 1996-2012 Texas Instruments Incorporated
package/lib/Regression/regress_d_c/./../packages/ti/vlib/src/VLIB_ORB_getHarrisScore/VLIB_ORB_getHarrisScore_d.se66 PAGE   56

         00000157 0000002D 
         00000158 0000002D 
         00000159 0000002D 
         0000015a 0000002D 
         0000015b 0000002D 
         0000015c 0000002D 
         0000015d 0000002D 
         0000015e 0000002D 
    2692 0000015f 0000002D          .string "-----------------------",10,0
         00000160 0000002D 
         00000161 0000002D 
         00000162 0000002D 
         00000163 0000002D 
         00000164 0000002D 
         00000165 0000002D 
         00000166 0000002D 
         00000167 0000002D 
         00000168 0000002D 
         00000169 0000002D 
         0000016a 0000002D 
         0000016b 0000002D 
         0000016c 0000002D 
         0000016d 0000002D 
         0000016e 0000002D 
         0000016f 0000002D 
         00000170 0000002D 
         00000171 0000002D 
         00000172 0000002D 
         00000173 0000002D 
         00000174 0000002D 
         00000175 0000002D 
         00000176 0000000A 
         00000177 00000000 
    2693                    ;*****************************************************************************
    2694                    ;* UNDEFINED EXTERNAL REFERENCES                                             *
    2695                    ;*****************************************************************************
    2696                            .global printf
    2697                            .global sprintf
    2698                            .global malloc
    2699                            .global free
    2700                            .global VLIB_cache_inval
    2701                            .global VLIB_profile_init
    2702                            .global VLIB_formula_add_test
    2703                            .global VLIB_skip_test
    2704                            .global VLIB_profile_cycle_report
    2705                            .global initStack
    2706                            .global setStackDepth
    2707                            .global getSP
    2708                            .global VLIB_stack_memory
    2709                            .global VLIB_fillBuffer
    2710                            .global VLIB_malloc
    2711                            .global VLIB_free
    2712                            .global getCORBParameters
    2713                            .global VLIB_ORB_getHarrisScore
    2714                            .global VLIB_ORB_getHarrisScore_cn
TMS320C6x Assembler PC v7.4.2 Thu Mar 19 12:44:02 2015

Tools Copyright (c) 1996-2012 Texas Instruments Incorporated
package/lib/Regression/regress_d_c/./../packages/ti/vlib/src/VLIB_ORB_getHarrisScore/VLIB_ORB_getHarrisScore_d.se66 PAGE   57

    2715                            .global orb_getHarrisScore_getTestParams
    2716                            .global test_cases
    2717                            .global act_kernel
    2718                            .global desc
    2719                            .global testPatternString
    2720                            .global est_test
    2721                            .global beg_count
    2722                            .global end_count
    2723                            .global overhead
    2724                            .global cycles
    2725                    
    2726                    ;******************************************************************************
    2727                    ;* BUILD ATTRIBUTES                                                           *
    2728                    ;******************************************************************************
    2729                            .battr "TI", Tag_File, 1, Tag_Long_Precision_Bits(2)
    2730                            .battr "TI", Tag_File, 1, Tag_Bitfield_layout(2)
    2731                            .battr "TI", Tag_File, 1, Tag_ABI_enum_size(2)
    2732                            .battr "c6xabi", Tag_File, 1, Tag_ABI_wchar_t(1)
    2733                            .battr "c6xabi", Tag_File, 1, Tag_ABI_array_object_alignment(0)
    2734                            .battr "c6xabi", Tag_File, 1, Tag_ABI_array_object_align_expected(0)
    2735                            .battr "c6xabi", Tag_File, 1, Tag_ABI_PIC(0)
    2736                            .battr "c6xabi", Tag_File, 1, Tag_ABI_PID(0)
    2737                            .battr "c6xabi", Tag_File, 1, Tag_ABI_DSBT(0)
    2738                            .battr "c6xabi", Tag_File, 1, Tag_ABI_stack_align_needed(0)
    2739                            .battr "c6xabi", Tag_File, 1, Tag_ABI_stack_align_preserved(0)
    2740                            .battr "TI", Tag_File, 1, Tag_Tramps_Use_SOC(1)
    2741                    
    2742                    ;******************************************************************************
    2743                    ;* TYPE INFORMATION                                                           *
    2744                    ;******************************************************************************
    2745                    
    2746                    $C$DW$T$65      .dwtag  DW_TAG_enumeration_type
    2747                            .dwattr $C$DW$T$65, DW_AT_byte_size(0x04)
    2748                    $C$DW$212       .dwtag  DW_TAG_enumerator, DW_AT_name("CORB_OK"), DW_AT_const_value(0x00)
    2749                            .dwattr $C$DW$212, DW_AT_decl_file(".\..\packages\ti\vlib\src\VLIB_ORB_getHarrisScore\..\commo
    2750                            .dwattr $C$DW$212, DW_AT_decl_line(0xa2)
    2751                            .dwattr $C$DW$212, DW_AT_decl_column(0x05)
    2752                    $C$DW$213       .dwtag  DW_TAG_enumerator, DW_AT_name("CORB_FAIL"), DW_AT_const_value(-1)
    2753                            .dwattr $C$DW$213, DW_AT_decl_file(".\..\packages\ti\vlib\src\VLIB_ORB_getHarrisScore\..\commo
    2754                            .dwattr $C$DW$213, DW_AT_decl_line(0xa3)
    2755                            .dwattr $C$DW$213, DW_AT_decl_column(0x05)
    2756                            .dwendtag $C$DW$T$65
    2757                    
    2758                            .dwattr $C$DW$T$65, DW_AT_decl_file(".\..\packages\ti\vlib\src\VLIB_ORB_getHarrisScore\..\comm
    2759                            .dwattr $C$DW$T$65, DW_AT_decl_line(0xa1)
    2760                            .dwattr $C$DW$T$65, DW_AT_decl_column(0x0e)
    2761                    $C$DW$T$66      .dwtag  DW_TAG_typedef, DW_AT_name("CORBResult")
    2762                            .dwattr $C$DW$T$66, DW_AT_type(*$C$DW$T$65)
    2763                            .dwattr $C$DW$T$66, DW_AT_language(DW_LANG_C)
    2764                            .dwattr $C$DW$T$66, DW_AT_decl_file(".\..\packages\ti\vlib\src\VLIB_ORB_getHarrisScore\..\comm
    2765                            .dwattr $C$DW$T$66, DW_AT_decl_line(0xa4)
    2766                            .dwattr $C$DW$T$66, DW_AT_decl_column(0x02)
    2767                    
    2768                    $C$DW$T$83      .dwtag  DW_TAG_enumeration_type
    2769                            .dwattr $C$DW$T$83, DW_AT_byte_size(0x04)
TMS320C6x Assembler PC v7.4.2 Thu Mar 19 12:44:02 2015

Tools Copyright (c) 1996-2012 Texas Instruments Incorporated
package/lib/Regression/regress_d_c/./../packages/ti/vlib/src/VLIB_ORB_getHarrisScore/VLIB_ORB_getHarrisScore_d.se66 PAGE   58

    2770                    $C$DW$214       .dwtag  DW_TAG_enumerator, DW_AT_name("VLIB_NO_ERROR"), DW_AT_const_value(0x00)
    2771                            .dwattr $C$DW$214, DW_AT_decl_file(".\..\packages\ti\vlib\src\VLIB_ORB_getHarrisScore\..\commo
    2772                            .dwattr $C$DW$214, DW_AT_decl_line(0x7a)
    2773                            .dwattr $C$DW$214, DW_AT_decl_column(0x05)
    2774                    $C$DW$215       .dwtag  DW_TAG_enumerator, DW_AT_name("VLIB_ERR_INPUT_INVALID"), DW_AT_const_value(0x0
    2775                            .dwattr $C$DW$215, DW_AT_decl_file(".\..\packages\ti\vlib\src\VLIB_ORB_getHarrisScore\..\commo
    2776                            .dwattr $C$DW$215, DW_AT_decl_line(0x7b)
    2777                            .dwattr $C$DW$215, DW_AT_decl_column(0x05)
    2778                    $C$DW$216       .dwtag  DW_TAG_enumerator, DW_AT_name("VLIB_ERR_INPUT_NEGATIVE"), DW_AT_const_value(0x
    2779                            .dwattr $C$DW$216, DW_AT_decl_file(".\..\packages\ti\vlib\src\VLIB_ORB_getHarrisScore\..\commo
    2780                            .dwattr $C$DW$216, DW_AT_decl_line(0x7c)
    2781                            .dwattr $C$DW$216, DW_AT_decl_column(0x05)
    2782                    $C$DW$217       .dwtag  DW_TAG_enumerator, DW_AT_name("VLIB_ERR_INPUT_EXCEEDED_RANGE"), DW_AT_const_va
    2783                            .dwattr $C$DW$217, DW_AT_decl_file(".\..\packages\ti\vlib\src\VLIB_ORB_getHarrisScore\..\commo
    2784                            .dwattr $C$DW$217, DW_AT_decl_line(0x7d)
    2785                            .dwattr $C$DW$217, DW_AT_decl_column(0x05)
