TMS320C6x Assembler PC v7.4.2 Thu Mar 19 12:40:35 2015

Tools Copyright (c) 1996-2012 Texas Instruments Incorporated
package/lib/Regression/regress_d_c/./../packages/ti/vlib/src/VLIB_convertUYVYsemipl_to_YUVpl/VLIB_convertUYVYsemipl_to_YUVpl_d.se66 PAGE    1

       1                    ;******************************************************************************
       2                    ;* TMS320C6x C/C++ Codegen                                          PC v7.4.2 *
       3                    ;* Date/Time created: Thu Mar 19 12:40:35 2015                                *
       4                    ;******************************************************************************
       5                            .compiler_opts --abi=eabi --c64p_l1d_workaround=off --endian=little --hll_source=on --long_pre
       6                    
       7                    ;******************************************************************************
       8                    ;* GLOBAL FILE PARAMETERS                                                     *
       9                    ;*                                                                            *
      10                    ;*   Architecture      : TMS320C66xx                                          *
      11                    ;*   Optimization      : Enabled at level 3                                   *
      12                    ;*   Optimizing for    : Speed                                                *
      13                    ;*                       Based on options: -o3, no -ms                        *
      14                    ;*   Endian            : Little                                               *
      15                    ;*   Interrupt Thrshld : 10000                                                *
      16                    ;*   Data Access Model : Far                                                  *
      17                    ;*   Pipelining        : Enabled                                              *
      18                    ;*   Speculate Loads   : Enabled with threshold = 0                           *
      19                    ;*   Memory Aliases    : Presume are aliases (pessimistic)                    *
      20                    ;*   Debug Info        : DWARF Debug w/Optimization                           *
      21                    ;*                                                                            *
      22                    ;******************************************************************************
      23                    
      24                            .asg    A15, FP
      25                            .asg    B14, DP
      26                            .asg    B15, SP
      27                            .global $bss
      28                    
      29                    
      30                    $C$DW$CU        .dwtag  DW_TAG_compile_unit
      31                            .dwattr $C$DW$CU, DW_AT_name("./../packages/ti/vlib/src/VLIB_convertUYVYsemipl_to_YUVpl/VLIB_c
      32                            .dwattr $C$DW$CU, DW_AT_producer("TI TMS320C6x C/C++ Codegen PC v7.4.2 Copyright (c) 1996-2012
      33                            .dwattr $C$DW$CU, DW_AT_TI_version(0x01)
      34                            .dwattr $C$DW$CU, DW_AT_comp_dir("c:\nightlybuilds\vlib\ti\vlib\vlib\examples")
      35                    
      36                    $C$DW$1 .dwtag  DW_TAG_subprogram, DW_AT_name("_itoll")
      37                            .dwattr $C$DW$1, DW_AT_TI_symbol_name("_itoll")
      38                            .dwattr $C$DW$1, DW_AT_type(*$C$DW$T$14)
      39                            .dwattr $C$DW$1, DW_AT_declaration
      40                            .dwattr $C$DW$1, DW_AT_external
      41                            .dwattr $C$DW$1, DW_AT_decl_file("C:/VLIB_Tools/CCSV5_4_0/ccsv5/tools/compiler/C6000/include/c
      42                            .dwattr $C$DW$1, DW_AT_decl_line(0xdf)
      43                            .dwattr $C$DW$1, DW_AT_decl_column(0x0b)
      44                    $C$DW$2 .dwtag  DW_TAG_formal_parameter
      45                            .dwattr $C$DW$2, DW_AT_type(*$C$DW$T$11)
      46                    $C$DW$3 .dwtag  DW_TAG_formal_parameter
      47                            .dwattr $C$DW$3, DW_AT_type(*$C$DW$T$11)
      48                            .dwendtag $C$DW$1
      49                    
      50                    
      51                    $C$DW$4 .dwtag  DW_TAG_subprogram, DW_AT_name("printf")
      52                            .dwattr $C$DW$4, DW_AT_TI_symbol_name("printf")
      53                            .dwattr $C$DW$4, DW_AT_type(*$C$DW$T$10)
      54                            .dwattr $C$DW$4, DW_AT_declaration
      55                            .dwattr $C$DW$4, DW_AT_external
TMS320C6x Assembler PC v7.4.2 Thu Mar 19 12:40:35 2015

Tools Copyright (c) 1996-2012 Texas Instruments Incorporated
package/lib/Regression/regress_d_c/./../packages/ti/vlib/src/VLIB_convertUYVYsemipl_to_YUVpl/VLIB_convertUYVYsemipl_to_YUVpl_d.se66 PAGE    2

      56                            .dwattr $C$DW$4, DW_AT_decl_file("C:/VLIB_Tools/CCSV5_4_0/ccsv5/tools/compiler/C6000/include/s
      57                            .dwattr $C$DW$4, DW_AT_decl_line(0xb8)
      58                            .dwattr $C$DW$4, DW_AT_decl_column(0x19)
      59                    $C$DW$5 .dwtag  DW_TAG_formal_parameter
      60                            .dwattr $C$DW$5, DW_AT_type(*$C$DW$T$103)
      61                    $C$DW$6 .dwtag  DW_TAG_unspecified_parameters
      62                            .dwendtag $C$DW$4
      63                    
      64                    
      65                    $C$DW$7 .dwtag  DW_TAG_subprogram, DW_AT_name("sprintf")
      66                            .dwattr $C$DW$7, DW_AT_TI_symbol_name("sprintf")
      67                            .dwattr $C$DW$7, DW_AT_type(*$C$DW$T$10)
      68                            .dwattr $C$DW$7, DW_AT_declaration
      69                            .dwattr $C$DW$7, DW_AT_external
      70                            .dwattr $C$DW$7, DW_AT_decl_file("C:/VLIB_Tools/CCSV5_4_0/ccsv5/tools/compiler/C6000/include/s
      71                            .dwattr $C$DW$7, DW_AT_decl_line(0xbc)
      72                            .dwattr $C$DW$7, DW_AT_decl_column(0x19)
      73                    $C$DW$8 .dwtag  DW_TAG_formal_parameter
      74                            .dwattr $C$DW$8, DW_AT_type(*$C$DW$T$59)
      75                    $C$DW$9 .dwtag  DW_TAG_formal_parameter
      76                            .dwattr $C$DW$9, DW_AT_type(*$C$DW$T$103)
      77                    $C$DW$10        .dwtag  DW_TAG_unspecified_parameters
      78                            .dwendtag $C$DW$7
      79                    
      80                    
      81                    $C$DW$11        .dwtag  DW_TAG_subprogram, DW_AT_name("malloc")
      82                            .dwattr $C$DW$11, DW_AT_TI_symbol_name("malloc")
      83                            .dwattr $C$DW$11, DW_AT_type(*$C$DW$T$3)
      84                            .dwattr $C$DW$11, DW_AT_declaration
      85                            .dwattr $C$DW$11, DW_AT_external
      86                            .dwattr $C$DW$11, DW_AT_decl_file("C:/VLIB_Tools/CCSV5_4_0/ccsv5/tools/compiler/C6000/include/
      87                            .dwattr $C$DW$11, DW_AT_decl_line(0x82)
      88                            .dwattr $C$DW$11, DW_AT_decl_column(0x19)
      89                    $C$DW$12        .dwtag  DW_TAG_formal_parameter
      90                            .dwattr $C$DW$12, DW_AT_type(*$C$DW$T$52)
      91                            .dwendtag $C$DW$11
      92                    
      93                    
      94                    $C$DW$13        .dwtag  DW_TAG_subprogram, DW_AT_name("free")
      95                            .dwattr $C$DW$13, DW_AT_TI_symbol_name("free")
      96                            .dwattr $C$DW$13, DW_AT_declaration
      97                            .dwattr $C$DW$13, DW_AT_external
      98                            .dwattr $C$DW$13, DW_AT_decl_file("C:/VLIB_Tools/CCSV5_4_0/ccsv5/tools/compiler/C6000/include/
      99                            .dwattr $C$DW$13, DW_AT_decl_line(0x86)
     100                            .dwattr $C$DW$13, DW_AT_decl_column(0x19)
     101                    $C$DW$14        .dwtag  DW_TAG_formal_parameter
     102                            .dwattr $C$DW$14, DW_AT_type(*$C$DW$T$3)
     103                            .dwendtag $C$DW$13
     104                    
     105                    
     106                    $C$DW$15        .dwtag  DW_TAG_subprogram, DW_AT_name("VLIB_cache_inval")
     107                            .dwattr $C$DW$15, DW_AT_TI_symbol_name("VLIB_cache_inval")
     108                            .dwattr $C$DW$15, DW_AT_type(*$C$DW$T$10)
     109                            .dwattr $C$DW$15, DW_AT_declaration
     110                            .dwattr $C$DW$15, DW_AT_external
TMS320C6x Assembler PC v7.4.2 Thu Mar 19 12:40:35 2015

Tools Copyright (c) 1996-2012 Texas Instruments Incorporated
package/lib/Regression/regress_d_c/./../packages/ti/vlib/src/VLIB_convertUYVYsemipl_to_YUVpl/VLIB_convertUYVYsemipl_to_YUVpl_d.se66 PAGE    3

     111                            .dwattr $C$DW$15, DW_AT_decl_file(".\..\packages\ti\vlib\src\VLIB_convertUYVYsemipl_to_YUVpl\.
     112                            .dwattr $C$DW$15, DW_AT_decl_line(0x58)
     113                            .dwattr $C$DW$15, DW_AT_decl_column(0x05)
     114                    
     115                    $C$DW$16        .dwtag  DW_TAG_subprogram, DW_AT_name("VLIB_profile_init")
     116                            .dwattr $C$DW$16, DW_AT_TI_symbol_name("VLIB_profile_init")
     117                            .dwattr $C$DW$16, DW_AT_declaration
     118                            .dwattr $C$DW$16, DW_AT_external
     119                            .dwattr $C$DW$16, DW_AT_decl_file(".\..\packages\ti\vlib\src\VLIB_convertUYVYsemipl_to_YUVpl\.
     120                            .dwattr $C$DW$16, DW_AT_decl_line(0x7b)
     121                            .dwattr $C$DW$16, DW_AT_decl_column(0x06)
     122                    $C$DW$17        .dwtag  DW_TAG_formal_parameter
     123                            .dwattr $C$DW$17, DW_AT_type(*$C$DW$T$10)
     124                    $C$DW$18        .dwtag  DW_TAG_formal_parameter
     125                            .dwattr $C$DW$18, DW_AT_type(*$C$DW$T$59)
     126                            .dwendtag $C$DW$16
     127                    
     128                    
     129                    $C$DW$19        .dwtag  DW_TAG_subprogram, DW_AT_name("VLIB_profile_setMode")
     130                            .dwattr $C$DW$19, DW_AT_TI_symbol_name("VLIB_profile_setMode")
     131                            .dwattr $C$DW$19, DW_AT_declaration
     132                            .dwattr $C$DW$19, DW_AT_external
     133                            .dwattr $C$DW$19, DW_AT_decl_file(".\..\packages\ti\vlib\src\VLIB_convertUYVYsemipl_to_YUVpl\.
     134                            .dwattr $C$DW$19, DW_AT_decl_line(0x7c)
     135                            .dwattr $C$DW$19, DW_AT_decl_column(0x06)
     136                    $C$DW$20        .dwtag  DW_TAG_formal_parameter
     137                            .dwattr $C$DW$20, DW_AT_type(*$C$DW$T$10)
     138                    $C$DW$21        .dwtag  DW_TAG_formal_parameter
     139                            .dwattr $C$DW$21, DW_AT_type(*$C$DW$T$10)
     140                    $C$DW$22        .dwtag  DW_TAG_formal_parameter
     141                            .dwattr $C$DW$22, DW_AT_type(*$C$DW$T$59)
     142                    $C$DW$23        .dwtag  DW_TAG_formal_parameter
     143                            .dwattr $C$DW$23, DW_AT_type(*$C$DW$T$10)
     144                            .dwendtag $C$DW$19
     145                    
     146                    
     147                    $C$DW$24        .dwtag  DW_TAG_subprogram, DW_AT_name("VLIB_formula_add_test")
     148                            .dwattr $C$DW$24, DW_AT_TI_symbol_name("VLIB_formula_add_test")
     149                            .dwattr $C$DW$24, DW_AT_declaration
     150                            .dwattr $C$DW$24, DW_AT_external
     151                            .dwattr $C$DW$24, DW_AT_decl_file(".\..\packages\ti\vlib\src\VLIB_convertUYVYsemipl_to_YUVpl\.
     152                            .dwattr $C$DW$24, DW_AT_decl_line(0x7d)
     153                            .dwattr $C$DW$24, DW_AT_decl_column(0x06)
     154                    $C$DW$25        .dwtag  DW_TAG_formal_parameter
     155                            .dwattr $C$DW$25, DW_AT_type(*$C$DW$T$10)
     156                    $C$DW$26        .dwtag  DW_TAG_formal_parameter
     157                            .dwattr $C$DW$26, DW_AT_type(*$C$DW$T$10)
     158                    $C$DW$27        .dwtag  DW_TAG_formal_parameter
     159                            .dwattr $C$DW$27, DW_AT_type(*$C$DW$T$10)
     160                    $C$DW$28        .dwtag  DW_TAG_formal_parameter
     161                            .dwattr $C$DW$28, DW_AT_type(*$C$DW$T$10)
     162                    $C$DW$29        .dwtag  DW_TAG_formal_parameter
     163                            .dwattr $C$DW$29, DW_AT_type(*$C$DW$T$59)
     164                    $C$DW$30        .dwtag  DW_TAG_formal_parameter
     165                            .dwattr $C$DW$30, DW_AT_type(*$C$DW$T$10)
TMS320C6x Assembler PC v7.4.2 Thu Mar 19 12:40:35 2015

Tools Copyright (c) 1996-2012 Texas Instruments Incorporated
package/lib/Regression/regress_d_c/./../packages/ti/vlib/src/VLIB_convertUYVYsemipl_to_YUVpl/VLIB_convertUYVYsemipl_to_YUVpl_d.se66 PAGE    4

     166                            .dwendtag $C$DW$24
     167                    
     168                    
     169                    $C$DW$31        .dwtag  DW_TAG_subprogram, DW_AT_name("VLIB_skip_test")
     170                            .dwattr $C$DW$31, DW_AT_TI_symbol_name("VLIB_skip_test")
     171                            .dwattr $C$DW$31, DW_AT_declaration
     172                            .dwattr $C$DW$31, DW_AT_external
     173                            .dwattr $C$DW$31, DW_AT_decl_file(".\..\packages\ti\vlib\src\VLIB_convertUYVYsemipl_to_YUVpl\.
     174                            .dwattr $C$DW$31, DW_AT_decl_line(0x7e)
     175                            .dwattr $C$DW$31, DW_AT_decl_column(0x06)
     176                    $C$DW$32        .dwtag  DW_TAG_formal_parameter
     177                            .dwattr $C$DW$32, DW_AT_type(*$C$DW$T$59)
     178                            .dwendtag $C$DW$31
     179                    
     180                    
     181                    $C$DW$33        .dwtag  DW_TAG_subprogram, DW_AT_name("VLIB_profile_cycle_report")
     182                            .dwattr $C$DW$33, DW_AT_TI_symbol_name("VLIB_profile_cycle_report")
     183                            .dwattr $C$DW$33, DW_AT_declaration
     184                            .dwattr $C$DW$33, DW_AT_external
     185                            .dwattr $C$DW$33, DW_AT_decl_file(".\..\packages\ti\vlib\src\VLIB_convertUYVYsemipl_to_YUVpl\.
     186                            .dwattr $C$DW$33, DW_AT_decl_line(0x7f)
     187                            .dwattr $C$DW$33, DW_AT_decl_column(0x06)
     188                    $C$DW$34        .dwtag  DW_TAG_formal_parameter
     189                            .dwattr $C$DW$34, DW_AT_type(*$C$DW$T$10)
     190                    $C$DW$35        .dwtag  DW_TAG_formal_parameter
     191                            .dwattr $C$DW$35, DW_AT_type(*$C$DW$T$59)
     192                    $C$DW$36        .dwtag  DW_TAG_formal_parameter
     193                            .dwattr $C$DW$36, DW_AT_type(*$C$DW$T$59)
     194                            .dwendtag $C$DW$33
     195                    
     196                    
     197                    $C$DW$37        .dwtag  DW_TAG_subprogram, DW_AT_name("initStack")
     198                            .dwattr $C$DW$37, DW_AT_TI_symbol_name("initStack")
     199                            .dwattr $C$DW$37, DW_AT_declaration
     200                            .dwattr $C$DW$37, DW_AT_external
     201                            .dwattr $C$DW$37, DW_AT_decl_file(".\..\packages\ti\vlib\src\VLIB_convertUYVYsemipl_to_YUVpl\.
     202                            .dwattr $C$DW$37, DW_AT_decl_line(0x80)
     203                            .dwattr $C$DW$37, DW_AT_decl_column(0x06)
     204                    $C$DW$38        .dwtag  DW_TAG_formal_parameter
     205                            .dwattr $C$DW$38, DW_AT_type(*$C$DW$T$21)
     206                            .dwendtag $C$DW$37
     207                    
     208                    
     209                    $C$DW$39        .dwtag  DW_TAG_subprogram, DW_AT_name("setStackDepth")
     210                            .dwattr $C$DW$39, DW_AT_TI_symbol_name("setStackDepth")
     211                            .dwattr $C$DW$39, DW_AT_declaration
     212                            .dwattr $C$DW$39, DW_AT_external
     213                            .dwattr $C$DW$39, DW_AT_decl_file(".\..\packages\ti\vlib\src\VLIB_convertUYVYsemipl_to_YUVpl\.
     214                            .dwattr $C$DW$39, DW_AT_decl_line(0x81)
     215                            .dwattr $C$DW$39, DW_AT_decl_column(0x06)
     216                    
     217                    $C$DW$40        .dwtag  DW_TAG_subprogram, DW_AT_name("getSP")
     218                            .dwattr $C$DW$40, DW_AT_TI_symbol_name("getSP")
     219                            .dwattr $C$DW$40, DW_AT_type(*$C$DW$T$21)
     220                            .dwattr $C$DW$40, DW_AT_declaration
TMS320C6x Assembler PC v7.4.2 Thu Mar 19 12:40:35 2015

Tools Copyright (c) 1996-2012 Texas Instruments Incorporated
package/lib/Regression/regress_d_c/./../packages/ti/vlib/src/VLIB_convertUYVYsemipl_to_YUVpl/VLIB_convertUYVYsemipl_to_YUVpl_d.se66 PAGE    5

     221                            .dwattr $C$DW$40, DW_AT_external
     222                            .dwattr $C$DW$40, DW_AT_decl_file(".\..\packages\ti\vlib\src\VLIB_convertUYVYsemipl_to_YUVpl\.
     223                            .dwattr $C$DW$40, DW_AT_decl_line(0x82)
     224                            .dwattr $C$DW$40, DW_AT_decl_column(0x0a)
     225                    
     226                    $C$DW$41        .dwtag  DW_TAG_subprogram, DW_AT_name("VLIB_stack_memory")
     227                            .dwattr $C$DW$41, DW_AT_TI_symbol_name("VLIB_stack_memory")
     228                            .dwattr $C$DW$41, DW_AT_declaration
     229                            .dwattr $C$DW$41, DW_AT_external
     230                            .dwattr $C$DW$41, DW_AT_decl_file(".\..\packages\ti\vlib\src\VLIB_convertUYVYsemipl_to_YUVpl\.
     231                            .dwattr $C$DW$41, DW_AT_decl_line(0x83)
     232                            .dwattr $C$DW$41, DW_AT_decl_column(0x06)
     233                    
     234                    $C$DW$42        .dwtag  DW_TAG_subprogram, DW_AT_name("VLIB_compare_mem")
     235                            .dwattr $C$DW$42, DW_AT_TI_symbol_name("VLIB_compare_mem")
     236                            .dwattr $C$DW$42, DW_AT_type(*$C$DW$T$22)
     237                            .dwattr $C$DW$42, DW_AT_declaration
     238                            .dwattr $C$DW$42, DW_AT_external
     239                            .dwattr $C$DW$42, DW_AT_decl_file(".\..\packages\ti\vlib\src\VLIB_convertUYVYsemipl_to_YUVpl\.
     240                            .dwattr $C$DW$42, DW_AT_decl_line(0x6f)
     241                            .dwattr $C$DW$42, DW_AT_decl_column(0x11)
     242                    $C$DW$43        .dwtag  DW_TAG_formal_parameter
     243                            .dwattr $C$DW$43, DW_AT_type(*$C$DW$T$51)
     244                    $C$DW$44        .dwtag  DW_TAG_formal_parameter
     245                            .dwattr $C$DW$44, DW_AT_type(*$C$DW$T$51)
     246                    $C$DW$45        .dwtag  DW_TAG_formal_parameter
     247                            .dwattr $C$DW$45, DW_AT_type(*$C$DW$T$22)
     248                            .dwendtag $C$DW$42
     249                    
     250                    
     251                    $C$DW$46        .dwtag  DW_TAG_subprogram, DW_AT_name("VLIB_fillBuffer")
     252                            .dwattr $C$DW$46, DW_AT_TI_symbol_name("VLIB_fillBuffer")
     253                            .dwattr $C$DW$46, DW_AT_declaration
     254                            .dwattr $C$DW$46, DW_AT_external
     255                            .dwattr $C$DW$46, DW_AT_decl_file(".\..\packages\ti\vlib\src\VLIB_convertUYVYsemipl_to_YUVpl\.
     256                            .dwattr $C$DW$46, DW_AT_decl_line(0x77)
     257                            .dwattr $C$DW$46, DW_AT_decl_column(0x06)
     258                    $C$DW$47        .dwtag  DW_TAG_formal_parameter
     259                            .dwattr $C$DW$47, DW_AT_type(*$C$DW$T$19)
     260                    $C$DW$48        .dwtag  DW_TAG_formal_parameter
     261                            .dwattr $C$DW$48, DW_AT_type(*$C$DW$T$19)
     262                    $C$DW$49        .dwtag  DW_TAG_formal_parameter
     263                            .dwattr $C$DW$49, DW_AT_type(*$C$DW$T$3)
     264                    $C$DW$50        .dwtag  DW_TAG_formal_parameter
     265                            .dwattr $C$DW$50, DW_AT_type(*$C$DW$T$3)
     266                    $C$DW$51        .dwtag  DW_TAG_formal_parameter
     267                            .dwattr $C$DW$51, DW_AT_type(*$C$DW$T$75)
     268                    $C$DW$52        .dwtag  DW_TAG_formal_parameter
     269                            .dwattr $C$DW$52, DW_AT_type(*$C$DW$T$75)
     270                    $C$DW$53        .dwtag  DW_TAG_formal_parameter
     271                            .dwattr $C$DW$53, DW_AT_type(*$C$DW$T$75)
     272                    $C$DW$54        .dwtag  DW_TAG_formal_parameter
     273                            .dwattr $C$DW$54, DW_AT_type(*$C$DW$T$19)
     274                    $C$DW$55        .dwtag  DW_TAG_formal_parameter
     275                            .dwattr $C$DW$55, DW_AT_type(*$C$DW$T$59)
TMS320C6x Assembler PC v7.4.2 Thu Mar 19 12:40:35 2015

Tools Copyright (c) 1996-2012 Texas Instruments Incorporated
package/lib/Regression/regress_d_c/./../packages/ti/vlib/src/VLIB_convertUYVYsemipl_to_YUVpl/VLIB_convertUYVYsemipl_to_YUVpl_d.se66 PAGE    6

     276                            .dwendtag $C$DW$46
     277                    
     278                    
     279                    $C$DW$56        .dwtag  DW_TAG_subprogram, DW_AT_name("VLIB_memalign")
     280                            .dwattr $C$DW$56, DW_AT_TI_symbol_name("VLIB_memalign")
     281                            .dwattr $C$DW$56, DW_AT_type(*$C$DW$T$3)
     282                            .dwattr $C$DW$56, DW_AT_declaration
     283                            .dwattr $C$DW$56, DW_AT_external
     284                            .dwattr $C$DW$56, DW_AT_decl_file(".\..\packages\ti\vlib\src\VLIB_convertUYVYsemipl_to_YUVpl\.
     285                            .dwattr $C$DW$56, DW_AT_decl_line(0xae)
     286                            .dwattr $C$DW$56, DW_AT_decl_column(0x07)
     287                    $C$DW$57        .dwtag  DW_TAG_formal_parameter
     288                            .dwattr $C$DW$57, DW_AT_type(*$C$DW$T$52)
     289                    $C$DW$58        .dwtag  DW_TAG_formal_parameter
     290                            .dwattr $C$DW$58, DW_AT_type(*$C$DW$T$52)
     291                            .dwendtag $C$DW$56
     292                    
     293                    
     294                    $C$DW$59        .dwtag  DW_TAG_subprogram, DW_AT_name("VLIB_align_free")
     295                            .dwattr $C$DW$59, DW_AT_TI_symbol_name("VLIB_align_free")
     296                            .dwattr $C$DW$59, DW_AT_declaration
     297                            .dwattr $C$DW$59, DW_AT_external
     298                            .dwattr $C$DW$59, DW_AT_decl_file(".\..\packages\ti\vlib\src\VLIB_convertUYVYsemipl_to_YUVpl\.
     299                            .dwattr $C$DW$59, DW_AT_decl_line(0xb3)
     300                            .dwattr $C$DW$59, DW_AT_decl_column(0x07)
     301                    $C$DW$60        .dwtag  DW_TAG_formal_parameter
     302                            .dwattr $C$DW$60, DW_AT_type(*$C$DW$T$3)
     303                            .dwendtag $C$DW$59
     304                    
     305                    
     306                    $C$DW$61        .dwtag  DW_TAG_subprogram, DW_AT_name("VLIB_convertUYVYsemipl_to_YUVpl")
     307                            .dwattr $C$DW$61, DW_AT_TI_symbol_name("VLIB_convertUYVYsemipl_to_YUVpl")
     308                            .dwattr $C$DW$61, DW_AT_type(*$C$DW$T$22)
     309                            .dwattr $C$DW$61, DW_AT_declaration
     310                            .dwattr $C$DW$61, DW_AT_external
     311                            .dwattr $C$DW$61, DW_AT_decl_file(".\..\packages\ti\vlib\src\VLIB_convertUYVYsemipl_to_YUVpl\c
     312                            .dwattr $C$DW$61, DW_AT_decl_line(0x7d)
     313                            .dwattr $C$DW$61, DW_AT_decl_column(0x09)
     314                    $C$DW$62        .dwtag  DW_TAG_formal_parameter
     315                            .dwattr $C$DW$62, DW_AT_type(*$C$DW$T$96)
     316                    $C$DW$63        .dwtag  DW_TAG_formal_parameter
     317                            .dwattr $C$DW$63, DW_AT_type(*$C$DW$T$21)
     318                    $C$DW$64        .dwtag  DW_TAG_formal_parameter
     319                            .dwattr $C$DW$64, DW_AT_type(*$C$DW$T$22)
     320                    $C$DW$65        .dwtag  DW_TAG_formal_parameter
     321                            .dwattr $C$DW$65, DW_AT_type(*$C$DW$T$21)
     322                    $C$DW$66        .dwtag  DW_TAG_formal_parameter
     323                            .dwattr $C$DW$66, DW_AT_type(*$C$DW$T$94)
     324                    $C$DW$67        .dwtag  DW_TAG_formal_parameter
     325                            .dwattr $C$DW$67, DW_AT_type(*$C$DW$T$94)
     326                            .dwendtag $C$DW$61
     327                    
     328                    
     329                    $C$DW$68        .dwtag  DW_TAG_subprogram, DW_AT_name("VLIB_convertUYVYsemipl_to_YUVpl_cn")
     330                            .dwattr $C$DW$68, DW_AT_TI_symbol_name("VLIB_convertUYVYsemipl_to_YUVpl_cn")
TMS320C6x Assembler PC v7.4.2 Thu Mar 19 12:40:35 2015

Tools Copyright (c) 1996-2012 Texas Instruments Incorporated
package/lib/Regression/regress_d_c/./../packages/ti/vlib/src/VLIB_convertUYVYsemipl_to_YUVpl/VLIB_convertUYVYsemipl_to_YUVpl_d.se66 PAGE    7

     331                            .dwattr $C$DW$68, DW_AT_type(*$C$DW$T$22)
     332                            .dwattr $C$DW$68, DW_AT_declaration
     333                            .dwattr $C$DW$68, DW_AT_external
     334                            .dwattr $C$DW$68, DW_AT_decl_file(".\..\packages\ti\vlib\src\VLIB_convertUYVYsemipl_to_YUVpl\V
     335                            .dwattr $C$DW$68, DW_AT_decl_line(0x20)
     336                            .dwattr $C$DW$68, DW_AT_decl_column(0x09)
     337                    $C$DW$69        .dwtag  DW_TAG_formal_parameter
     338                            .dwattr $C$DW$69, DW_AT_type(*$C$DW$T$96)
     339                    $C$DW$70        .dwtag  DW_TAG_formal_parameter
     340                            .dwattr $C$DW$70, DW_AT_type(*$C$DW$T$21)
     341                    $C$DW$71        .dwtag  DW_TAG_formal_parameter
     342                            .dwattr $C$DW$71, DW_AT_type(*$C$DW$T$22)
     343                    $C$DW$72        .dwtag  DW_TAG_formal_parameter
     344                            .dwattr $C$DW$72, DW_AT_type(*$C$DW$T$21)
     345                    $C$DW$73        .dwtag  DW_TAG_formal_parameter
     346                            .dwattr $C$DW$73, DW_AT_type(*$C$DW$T$94)
     347                    $C$DW$74        .dwtag  DW_TAG_formal_parameter
     348                            .dwattr $C$DW$74, DW_AT_type(*$C$DW$T$94)
     349                            .dwendtag $C$DW$68
     350                    
     351                    
     352                    $C$DW$75        .dwtag  DW_TAG_subprogram, DW_AT_name("UYVYsemipl_to_YUVpl_getTestParams")
     353                            .dwattr $C$DW$75, DW_AT_TI_symbol_name("UYVYsemipl_to_YUVpl_getTestParams")
     354                            .dwattr $C$DW$75, DW_AT_declaration
     355                            .dwattr $C$DW$75, DW_AT_external
     356                            .dwattr $C$DW$75, DW_AT_decl_file(".\..\packages\ti\vlib\src\VLIB_convertUYVYsemipl_to_YUVpl\V
     357                            .dwattr $C$DW$75, DW_AT_decl_line(0x2d)
     358                            .dwattr $C$DW$75, DW_AT_decl_column(0x06)
     359                    $C$DW$76        .dwtag  DW_TAG_formal_parameter
     360                            .dwattr $C$DW$76, DW_AT_type(*$C$DW$T$42)
     361                    $C$DW$77        .dwtag  DW_TAG_formal_parameter
     362                            .dwattr $C$DW$77, DW_AT_type(*$C$DW$T$78)
     363                            .dwendtag $C$DW$75
     364                    
     365                    $C$DW$78        .dwtag  DW_TAG_variable, DW_AT_name("test_cases")
     366                            .dwattr $C$DW$78, DW_AT_TI_symbol_name("test_cases")
     367                            .dwattr $C$DW$78, DW_AT_type(*$C$DW$T$22)
     368                            .dwattr $C$DW$78, DW_AT_declaration
     369                            .dwattr $C$DW$78, DW_AT_external
     370                            .dwattr $C$DW$78, DW_AT_decl_file(".\..\packages\ti\vlib\src\VLIB_convertUYVYsemipl_to_YUVpl\.
     371                            .dwattr $C$DW$78, DW_AT_decl_line(0x60)
     372                            .dwattr $C$DW$78, DW_AT_decl_column(0x13)
     373                    $C$DW$79        .dwtag  DW_TAG_variable, DW_AT_name("act_kernel")
     374                            .dwattr $C$DW$79, DW_AT_TI_symbol_name("act_kernel")
     375                            .dwattr $C$DW$79, DW_AT_type(*$C$DW$T$10)
     376                            .dwattr $C$DW$79, DW_AT_declaration
     377                            .dwattr $C$DW$79, DW_AT_external
     378                            .dwattr $C$DW$79, DW_AT_decl_file(".\..\packages\ti\vlib\src\VLIB_convertUYVYsemipl_to_YUVpl\.
     379                            .dwattr $C$DW$79, DW_AT_decl_line(0x62)
     380                            .dwattr $C$DW$79, DW_AT_decl_column(0x13)
     381                    $C$DW$80        .dwtag  DW_TAG_variable, DW_AT_name("desc")
     382                            .dwattr $C$DW$80, DW_AT_TI_symbol_name("desc")
     383                            .dwattr $C$DW$80, DW_AT_type(*$C$DW$T$159)
     384                            .dwattr $C$DW$80, DW_AT_declaration
     385                            .dwattr $C$DW$80, DW_AT_external
TMS320C6x Assembler PC v7.4.2 Thu Mar 19 12:40:35 2015

Tools Copyright (c) 1996-2012 Texas Instruments Incorporated
package/lib/Regression/regress_d_c/./../packages/ti/vlib/src/VLIB_convertUYVYsemipl_to_YUVpl/VLIB_convertUYVYsemipl_to_YUVpl_d.se66 PAGE    8

     386                            .dwattr $C$DW$80, DW_AT_decl_file(".\..\packages\ti\vlib\src\VLIB_convertUYVYsemipl_to_YUVpl\.
     387                            .dwattr $C$DW$80, DW_AT_decl_line(0x63)
     388                            .dwattr $C$DW$80, DW_AT_decl_column(0x13)
     389                    $C$DW$81        .dwtag  DW_TAG_variable, DW_AT_name("testPatternString")
     390                            .dwattr $C$DW$81, DW_AT_TI_symbol_name("testPatternString")
     391                            .dwattr $C$DW$81, DW_AT_type(*$C$DW$T$159)
     392                            .dwattr $C$DW$81, DW_AT_declaration
     393                            .dwattr $C$DW$81, DW_AT_external
     394                            .dwattr $C$DW$81, DW_AT_decl_file(".\..\packages\ti\vlib\src\VLIB_convertUYVYsemipl_to_YUVpl\.
     395                            .dwattr $C$DW$81, DW_AT_decl_line(0x64)
     396                            .dwattr $C$DW$81, DW_AT_decl_column(0x13)
     397                    $C$DW$82        .dwtag  DW_TAG_variable, DW_AT_name("est_test")
     398                            .dwattr $C$DW$82, DW_AT_TI_symbol_name("est_test")
     399                            .dwattr $C$DW$82, DW_AT_type(*$C$DW$T$10)
     400                            .dwattr $C$DW$82, DW_AT_declaration
     401                            .dwattr $C$DW$82, DW_AT_external
     402                            .dwattr $C$DW$82, DW_AT_decl_file(".\..\packages\ti\vlib\src\VLIB_convertUYVYsemipl_to_YUVpl\.
     403                            .dwattr $C$DW$82, DW_AT_decl_line(0x75)
     404                            .dwattr $C$DW$82, DW_AT_decl_column(0x14)
     405                    $C$DW$83        .dwtag  DW_TAG_variable, DW_AT_name("beg_count")
     406                            .dwattr $C$DW$83, DW_AT_TI_symbol_name("beg_count")
     407                            .dwattr $C$DW$83, DW_AT_type(*$C$DW$T$149)
     408                            .dwattr $C$DW$83, DW_AT_declaration
     409                            .dwattr $C$DW$83, DW_AT_external
     410                            .dwattr $C$DW$83, DW_AT_decl_file(".\..\packages\ti\vlib\src\VLIB_convertUYVYsemipl_to_YUVpl\.
     411                            .dwattr $C$DW$83, DW_AT_decl_line(0x76)
     412                            .dwattr $C$DW$83, DW_AT_decl_column(0x14)
     413                    $C$DW$84        .dwtag  DW_TAG_variable, DW_AT_name("end_count")
     414                            .dwattr $C$DW$84, DW_AT_TI_symbol_name("end_count")
     415                            .dwattr $C$DW$84, DW_AT_type(*$C$DW$T$149)
     416                            .dwattr $C$DW$84, DW_AT_declaration
     417                            .dwattr $C$DW$84, DW_AT_external
     418                            .dwattr $C$DW$84, DW_AT_decl_file(".\..\packages\ti\vlib\src\VLIB_convertUYVYsemipl_to_YUVpl\.
     419                            .dwattr $C$DW$84, DW_AT_decl_line(0x77)
     420                            .dwattr $C$DW$84, DW_AT_decl_column(0x14)
     421                    $C$DW$85        .dwtag  DW_TAG_variable, DW_AT_name("overhead")
     422                            .dwattr $C$DW$85, DW_AT_TI_symbol_name("overhead")
     423                            .dwattr $C$DW$85, DW_AT_type(*$C$DW$T$149)
     424                            .dwattr $C$DW$85, DW_AT_declaration
     425                            .dwattr $C$DW$85, DW_AT_external
     426                            .dwattr $C$DW$85, DW_AT_decl_file(".\..\packages\ti\vlib\src\VLIB_convertUYVYsemipl_to_YUVpl\.
     427                            .dwattr $C$DW$85, DW_AT_decl_line(0x78)
     428                            .dwattr $C$DW$85, DW_AT_decl_column(0x14)
     429                    $C$DW$86        .dwtag  DW_TAG_variable, DW_AT_name("cycles")
     430                            .dwattr $C$DW$86, DW_AT_TI_symbol_name("cycles")
     431                            .dwattr $C$DW$86, DW_AT_type(*$C$DW$T$150)
     432                            .dwattr $C$DW$86, DW_AT_declaration
     433                            .dwattr $C$DW$86, DW_AT_external
     434                            .dwattr $C$DW$86, DW_AT_decl_file(".\..\packages\ti\vlib\src\VLIB_convertUYVYsemipl_to_YUVpl\.
     435                            .dwattr $C$DW$86, DW_AT_decl_line(0x79)
     436                            .dwattr $C$DW$86, DW_AT_decl_column(0x14)
     437                    ;       C:\VLIB_Tools\CCSV5_4_0\ccsv5\tools\compiler\C6000\bin\opt6x.exe C:\\Users\\gtbldadm\\AppData\
     438 00000000                   .sect   ".text"
     439                            .clink
     440                            .global VLIB_convertUYVYsemipl_to_YUVpl_d
TMS320C6x Assembler PC v7.4.2 Thu Mar 19 12:40:35 2015

Tools Copyright (c) 1996-2012 Texas Instruments Incorporated
package/lib/Regression/regress_d_c/./../packages/ti/vlib/src/VLIB_convertUYVYsemipl_to_YUVpl/VLIB_convertUYVYsemipl_to_YUVpl_d.se66 PAGE    9

     441                    
     442                    $C$DW$87        .dwtag  DW_TAG_subprogram, DW_AT_name("VLIB_convertUYVYsemipl_to_YUVpl_d")
     443                            .dwattr $C$DW$87, DW_AT_low_pc(VLIB_convertUYVYsemipl_to_YUVpl_d)
     444                            .dwattr $C$DW$87, DW_AT_high_pc(0x00)
     445                            .dwattr $C$DW$87, DW_AT_TI_symbol_name("VLIB_convertUYVYsemipl_to_YUVpl_d")
     446                            .dwattr $C$DW$87, DW_AT_external
     447                            .dwattr $C$DW$87, DW_AT_TI_begin_file("./../packages/ti/vlib/src/VLIB_convertUYVYsemipl_to_YUV
     448                            .dwattr $C$DW$87, DW_AT_TI_begin_line(0x26)
     449                            .dwattr $C$DW$87, DW_AT_TI_begin_column(0x06)
     450                            .dwattr $C$DW$87, DW_AT_decl_file("./../packages/ti/vlib/src/VLIB_convertUYVYsemipl_to_YUVpl/V
     451                            .dwattr $C$DW$87, DW_AT_decl_line(0x26)
     452                            .dwattr $C$DW$87, DW_AT_decl_column(0x06)
     453                            .dwattr $C$DW$87, DW_AT_TI_max_frame_size(0x68)
     454                            .dwpsn  file "./../packages/ti/vlib/src/VLIB_convertUYVYsemipl_to_YUVpl/VLIB_convertUYVYsemipl
     455                    
     456                            .dwfde $C$DW$CIE, VLIB_convertUYVYsemipl_to_YUVpl_d
     457                    $C$DW$88        .dwtag  DW_TAG_formal_parameter, DW_AT_name("LevelOfFeedback")
     458                            .dwattr $C$DW$88, DW_AT_TI_symbol_name("LevelOfFeedback")
     459                            .dwattr $C$DW$88, DW_AT_type(*$C$DW$T$19)
     460                            .dwattr $C$DW$88, DW_AT_location[DW_OP_reg4]
     461                    ;----------------------------------------------------------------------
     462                    ;  38 | void VLIB_convertUYVYsemipl_to_YUVpl_d (uint8_t LevelOfFeedback)       
     463                    ;----------------------------------------------------------------------
     464                    
     465                    ;******************************************************************************
     466                    ;* FUNCTION NAME: VLIB_convertUYVYsemipl_to_YUVpl_d                           *
     467                    ;*                                                                            *
     468                    ;*   Regs Modified     : A0,A1,A2,A3,A4,A5,A6,A7,A8,A9,A10,A11,A12,A13,A14,   *
     469                    ;*                           A15,B0,B1,B2,B3,B4,B5,B6,B7,B8,B9,B10,B11,B12,   *
     470                    ;*                           B13,SP,A16,A17,A18,A19,A20,A21,A22,A23,A24,A25,  *
     471                    ;*                           A26,A27,A28,A29,A30,A31,B16,B17,B18,B19,B20,B21, *
     472                    ;*                           B22,B23,B24,B25,B26,B27,B28,B29,B30,B31          *
     473                    ;*   Regs Used         : A0,A1,A2,A3,A4,A5,A6,A7,A8,A9,A10,A11,A12,A13,A14,   *
     474                    ;*                           A15,B0,B1,B2,B3,B4,B5,B6,B7,B8,B9,B10,B11,B12,   *
     475                    ;*                           B13,DP,SP,A16,A17,A18,A19,A20,A21,A22,A23,A24,   *
     476                    ;*                           A25,A26,A27,A28,A29,A30,A31,B16,B17,B18,B19,B20, *
     477                    ;*                           B21,B22,B23,B24,B25,B26,B27,B28,B29,B30,B31      *
     478                    ;*   Local Frame Size  : 24 Args + 24 Auto + 56 Save = 104 byte               *
     479                    ;******************************************************************************
     480                    
     481                    ;******************************************************************************
     482                    ;*                                                                            *
     483                    ;* Using -g (debug) with optimization (-o3) may disable key optimizations!    *
     484                    ;*                                                                            *
     485                    ;******************************************************************************
     486 00000000           VLIB_convertUYVYsemipl_to_YUVpl_d:
     487                    ;** --------------------------------------------------------------------------*
     488                    ;          EXCLUSIVE CPU CYCLES: 16
     489                    ;** 45  -----------------------    UYVYsemipl_to_YUVpl_getTestParams(&prm, &test_cases);
     490                    ;** 48  -----------------------    VLIB_profile_init(3, "VLIB_convertUYVYsemipl_to_YUVpl");
     491                    ;** 51  -----------------------    if ( test_cases <= 0 ) goto g16;
     492                            .dwcfi  cfa_offset, 0
     493                    ;----------------------------------------------------------------------
     494                    ;  40 | int32_t    tpi;  /* test parameter index */                            
     495                    ;  43 | UYVYsemipl_to_YUVpl_testParams_t   *prm;                               
TMS320C6x Assembler PC v7.4.2 Thu Mar 19 12:40:35 2015

Tools Copyright (c) 1996-2012 Texas Instruments Incorporated
package/lib/Regression/regress_d_c/./../packages/ti/vlib/src/VLIB_convertUYVYsemipl_to_YUVpl/VLIB_convertUYVYsemipl_to_YUVpl_d.se66 PAGE   10

     496                    ;----------------------------------------------------------------------
     497 00000000     25f7             STW     .D2T1   A11,*SP--(8)      ; |39| 
     498                            .dwcfi  cfa_offset, 8
     499                            .dwcfi  save_reg_to_mem, 11, 0
     500 00000002     2577             STW     .D2T1   A10,*SP--(8)      ; |39| 
     501                            .dwcfi  cfa_offset, 16
     502                            .dwcfi  save_reg_to_mem, 10, -8
     503 00000004     9677             STDW    .D2T2   B13:B12,*SP--     ; |39| 
     504                            .dwcfi  cfa_offset, 24
     505                            .dwcfi  save_reg_to_mem, 29, -12
     506                            .dwcfi  save_reg_to_mem, 28, -16
     507 00000006     9577             STDW    .D2T2   B11:B10,*SP--     ; |39| 
     508                            .dwcfi  cfa_offset, 32
     509                            .dwcfi  save_reg_to_mem, 27, -20
     510                            .dwcfi  save_reg_to_mem, 26, -24
     511 00000008     8777             STDW    .D2T1   A15:A14,*SP--     ; |39| 
     512                            .dwcfi  cfa_offset, 40
     513                            .dwcfi  save_reg_to_mem, 15, -28
     514                            .dwcfi  save_reg_to_mem, 14, -32
     515 0000000a     8677             STDW    .D2T1   A13:A12,*SP--     ; |39| 
     516                            .dwcfi  cfa_offset, 48
     517                            .dwcfi  save_reg_to_mem, 13, -36
     518                            .dwcfi  save_reg_to_mem, 12, -40
     519 0000000c 01bdd4f6             STW     .D2T2   B3,*SP--(56)      ; |39| 
     520                            .dwcfi  cfa_offset, 104
     521                            .dwcfi  save_reg_to_mem, 19, 0
     522                    $C$DW$89        .dwtag  DW_TAG_variable, DW_AT_name("$O$C1")
     523                            .dwattr $C$DW$89, DW_AT_TI_symbol_name("$O$C1")
     524                            .dwattr $C$DW$89, DW_AT_type(*$C$DW$T$82)
     525                            .dwattr $C$DW$89, DW_AT_location[DW_OP_reg10]
     526                    $C$DW$90        .dwtag  DW_TAG_variable, DW_AT_name("$O$C2")
     527                            .dwattr $C$DW$90, DW_AT_TI_symbol_name("$O$C2")
     528                            .dwattr $C$DW$90, DW_AT_type(*$C$DW$T$43)
     529                            .dwattr $C$DW$90, DW_AT_location[DW_OP_reg20]
     530                    $C$DW$91        .dwtag  DW_TAG_variable, DW_AT_name("$O$C3")
     531                            .dwattr $C$DW$91, DW_AT_TI_symbol_name("$O$C3")
     532                            .dwattr $C$DW$91, DW_AT_type(*$C$DW$T$24)
     533                            .dwattr $C$DW$91, DW_AT_location[DW_OP_reg0]
     534                    $C$DW$92        .dwtag  DW_TAG_variable, DW_AT_name("$O$C4")
     535                            .dwattr $C$DW$92, DW_AT_TI_symbol_name("$O$C4")
     536                            .dwattr $C$DW$92, DW_AT_type(*$C$DW$T$10)
     537                            .dwattr $C$DW$92, DW_AT_location[DW_OP_reg3]
     538                    $C$DW$93        .dwtag  DW_TAG_variable, DW_AT_name("$O$C5")
     539                            .dwattr $C$DW$93, DW_AT_TI_symbol_name("$O$C5")
     540                            .dwattr $C$DW$93, DW_AT_type(*$C$DW$T$10)
     541                            .dwattr $C$DW$93, DW_AT_location[DW_OP_reg3]
     542                    $C$DW$94        .dwtag  DW_TAG_variable, DW_AT_name("$O$C6")
     543                            .dwattr $C$DW$94, DW_AT_TI_symbol_name("$O$C6")
     544                            .dwattr $C$DW$94, DW_AT_type(*$C$DW$T$11)
     545                            .dwattr $C$DW$94, DW_AT_location[DW_OP_reg11]
     546                    $C$DW$95        .dwtag  DW_TAG_variable, DW_AT_name("$O$C7")
     547                            .dwattr $C$DW$95, DW_AT_TI_symbol_name("$O$C7")
     548                            .dwattr $C$DW$95, DW_AT_type(*$C$DW$T$11)
     549                            .dwattr $C$DW$95, DW_AT_location[DW_OP_reg13]
     550                    $C$DW$96        .dwtag  DW_TAG_variable, DW_AT_name("$O$U12")
TMS320C6x Assembler PC v7.4.2 Thu Mar 19 12:40:35 2015

Tools Copyright (c) 1996-2012 Texas Instruments Incorporated
package/lib/Regression/regress_d_c/./../packages/ti/vlib/src/VLIB_convertUYVYsemipl_to_YUVpl/VLIB_convertUYVYsemipl_to_YUVpl_d.se66 PAGE   11

     551                            .dwattr $C$DW$96, DW_AT_TI_symbol_name("$O$U12")
     552                            .dwattr $C$DW$96, DW_AT_type(*$C$DW$T$43)
     553                            .dwattr $C$DW$96, DW_AT_location[DW_OP_reg14]
     554                    $C$DW$97        .dwtag  DW_TAG_variable, DW_AT_name("$O$K42")
     555                            .dwattr $C$DW$97, DW_AT_TI_symbol_name("$O$K42")
     556                            .dwattr $C$DW$97, DW_AT_type(*$C$DW$T$82)
     557                            .dwattr $C$DW$97, DW_AT_location[DW_OP_reg12]
     558                    $C$DW$98        .dwtag  DW_TAG_variable, DW_AT_name("$O$K48")
     559                            .dwattr $C$DW$98, DW_AT_TI_symbol_name("$O$K48")
     560                            .dwattr $C$DW$98, DW_AT_type(*$C$DW$T$10)
     561                            .dwattr $C$DW$98, DW_AT_location[DW_OP_reg20]
     562                    $C$DW$99        .dwtag  DW_TAG_variable, DW_AT_name("$O$K56")
     563                            .dwattr $C$DW$99, DW_AT_TI_symbol_name("$O$K56")
     564                            .dwattr $C$DW$99, DW_AT_type(*$C$DW$T$148)
     565                            .dwattr $C$DW$99, DW_AT_location[DW_OP_reg4]
     566                    $C$DW$100       .dwtag  DW_TAG_variable, DW_AT_name("$O$U64")
     567                            .dwattr $C$DW$100, DW_AT_TI_symbol_name("$O$U64")
     568                            .dwattr $C$DW$100, DW_AT_type(*$C$DW$T$10)
     569                            .dwattr $C$DW$100, DW_AT_location[DW_OP_reg11]
     570                    $C$DW$101       .dwtag  DW_TAG_variable, DW_AT_name("$O$U11")
     571                            .dwattr $C$DW$101, DW_AT_TI_symbol_name("$O$U11")
     572                            .dwattr $C$DW$101, DW_AT_type(*$C$DW$T$10)
     573                            .dwattr $C$DW$101, DW_AT_location[DW_OP_reg27]
     574                    $C$DW$102       .dwtag  DW_TAG_variable, DW_AT_name("$O$K85")
     575                            .dwattr $C$DW$102, DW_AT_TI_symbol_name("$O$K85")
     576                            .dwattr $C$DW$102, DW_AT_type(*$C$DW$T$82)
     577                            .dwattr $C$DW$102, DW_AT_location[DW_OP_reg8]
     578                    $C$DW$103       .dwtag  DW_TAG_variable, DW_AT_name("tpi")
     579                            .dwattr $C$DW$103, DW_AT_TI_symbol_name("tpi")
     580                            .dwattr $C$DW$103, DW_AT_type(*$C$DW$T$22)
     581                            .dwattr $C$DW$103, DW_AT_location[DW_OP_reg15]
     582                    $C$DW$104       .dwtag  DW_TAG_variable, DW_AT_name("prm")
     583                            .dwattr $C$DW$104, DW_AT_TI_symbol_name("prm")
     584                            .dwattr $C$DW$104, DW_AT_type(*$C$DW$T$41)
     585                            .dwattr $C$DW$104, DW_AT_location[DW_OP_breg31 28]
     586                    $C$DW$105       .dwtag  DW_TAG_variable, DW_AT_name("status_nat_vs_int")
     587                            .dwattr $C$DW$105, DW_AT_TI_symbol_name("status_nat_vs_int")
     588                            .dwattr $C$DW$105, DW_AT_type(*$C$DW$T$22)
     589                            .dwattr $C$DW$105, DW_AT_location[DW_OP_reg28]
     590                    $C$DW$106       .dwtag  DW_TAG_variable, DW_AT_name("status_nat_vs_ref")
     591                            .dwattr $C$DW$106, DW_AT_TI_symbol_name("status_nat_vs_ref")
     592                            .dwattr $C$DW$106, DW_AT_type(*$C$DW$T$22)
     593                            .dwattr $C$DW$106, DW_AT_location[DW_OP_reg29]
     594                    $C$DW$107       .dwtag  DW_TAG_variable, DW_AT_name("out_size")
     595                            .dwattr $C$DW$107, DW_AT_TI_symbol_name("out_size")
     596                            .dwattr $C$DW$107, DW_AT_type(*$C$DW$T$21)
     597                            .dwattr $C$DW$107, DW_AT_location[DW_OP_reg11]
     598                    $C$DW$108       .dwtag  DW_TAG_variable, DW_AT_name("num_pts")
     599                            .dwattr $C$DW$108, DW_AT_TI_symbol_name("num_pts")
     600                            .dwattr $C$DW$108, DW_AT_type(*$C$DW$T$21)
     601                            .dwattr $C$DW$108, DW_AT_location[DW_OP_reg13]
     602                    $C$DW$109       .dwtag  DW_TAG_variable, DW_AT_name("crcb")
     603                            .dwattr $C$DW$109, DW_AT_TI_symbol_name("crcb")
     604                            .dwattr $C$DW$109, DW_AT_type(*$C$DW$T$20)
     605                            .dwattr $C$DW$109, DW_AT_location[DW_OP_breg31 32]
TMS320C6x Assembler PC v7.4.2 Thu Mar 19 12:40:35 2015

Tools Copyright (c) 1996-2012 Texas Instruments Incorporated
package/lib/Regression/regress_d_c/./../packages/ti/vlib/src/VLIB_convertUYVYsemipl_to_YUVpl/VLIB_convertUYVYsemipl_to_YUVpl_d.se66 PAGE   12

     606                    $C$DW$110       .dwtag  DW_TAG_variable, DW_AT_name("cr")
     607                            .dwattr $C$DW$110, DW_AT_TI_symbol_name("cr")
     608                            .dwattr $C$DW$110, DW_AT_type(*$C$DW$T$20)
     609                            .dwattr $C$DW$110, DW_AT_location[DW_OP_breg31 36]
     610                    $C$DW$111       .dwtag  DW_TAG_variable, DW_AT_name("cb")
     611                            .dwattr $C$DW$111, DW_AT_TI_symbol_name("cb")
     612                            .dwattr $C$DW$111, DW_AT_type(*$C$DW$T$20)
     613                            .dwattr $C$DW$111, DW_AT_location[DW_OP_breg31 40]
     614                    $C$DW$112       .dwtag  DW_TAG_variable, DW_AT_name("cr_cn")
     615                            .dwattr $C$DW$112, DW_AT_TI_symbol_name("cr_cn")
     616                            .dwattr $C$DW$112, DW_AT_type(*$C$DW$T$20)
     617                            .dwattr $C$DW$112, DW_AT_location[DW_OP_breg31 44]
     618                    $C$DW$113       .dwtag  DW_TAG_variable, DW_AT_name("cb_cn")
     619                            .dwattr $C$DW$113, DW_AT_TI_symbol_name("cb_cn")
     620                            .dwattr $C$DW$113, DW_AT_type(*$C$DW$T$20)
     621                            .dwattr $C$DW$113, DW_AT_location[DW_OP_breg31 48]
     622                    $C$DW$114       .dwtag  DW_TAG_variable, DW_AT_name("$O$v1")
     623                            .dwattr $C$DW$114, DW_AT_TI_symbol_name("$O$v1")
     624                            .dwattr $C$DW$114, DW_AT_type(*$C$DW$T$41)
     625                            .dwattr $C$DW$114, DW_AT_location[DW_OP_reg26]
     626                    $C$DW$115       .dwtag  DW_TAG_variable, DW_AT_name("$O$v2")
     627                            .dwattr $C$DW$115, DW_AT_TI_symbol_name("$O$v2")
     628                            .dwattr $C$DW$115, DW_AT_type(*$C$DW$T$149)
     629                            .dwattr $C$DW$115, DW_AT_location[DW_OP_reg24]
     630                    $C$DW$116       .dwtag  DW_TAG_variable, DW_AT_name("$O$v2")
     631                            .dwattr $C$DW$116, DW_AT_TI_symbol_name("$O$v2")
     632                            .dwattr $C$DW$116, DW_AT_type(*$C$DW$T$149)
     633                            .dwattr $C$DW$116, DW_AT_location[DW_OP_reg22]
     634 00000010 05000028!            MVKL    .S1     test_cases,A10
     635 00000014 05000068!            MVKH    .S1     test_cases,A10
     636                            .dwpsn  file "./../packages/ti/vlib/src/VLIB_convertUYVYsemipl_to_YUVpl/VLIB_convertUYVYsemipl
     637                    ;----------------------------------------------------------------------
     638                    ;  45 | UYVYsemipl_to_YUVpl_getTestParams(&prm, &test_cases);                  
     639                    ;----------------------------------------------------------------------
     640 00000018     e636             ADDAW   .D1X    SP,7,A4           ; |45| 
     641                    $C$DW$117       .dwtag  DW_TAG_TI_branch
     642                            .dwattr $C$DW$117, DW_AT_low_pc(0x00)
     643                            .dwattr $C$DW$117, DW_AT_name("UYVYsemipl_to_YUVpl_getTestParams")
     644                            .dwattr $C$DW$117, DW_AT_TI_call
     645                    
     646 00000020 10000012!            CALLP   .S2     UYVYsemipl_to_YUVpl_getTestParams,B3
     647 0000001a     9507  ||         MV      .L2X    A10,B4            ; |45| 
     648                    
     649 00000024           $C$RL0:    ; CALL OCCURS {UYVYsemipl_to_YUVpl_getTestParams} {0}  ; |45| 
     650                    ;** --------------------------------------------------------------------------*
     651                    ;          EXCLUSIVE CPU CYCLES: 8
     652 00000024 0200002a!            MVKL    .S2     $C$SL1+0,B4
     653 00000028 0200006a!            MVKH    .S2     $C$SL1+0,B4
     654                    $C$DW$118       .dwtag  DW_TAG_TI_branch
     655                            .dwattr $C$DW$118, DW_AT_low_pc(0x00)
     656                            .dwattr $C$DW$118, DW_AT_name("VLIB_profile_init")
     657                            .dwattr $C$DW$118, DW_AT_TI_call
     658                    
     659 0000002c 10000013!            CALLP   .S2     VLIB_profile_init,B3
     660 00000030 020ca358  ||         MVK     .L1     0x3,A4            ; |48| 
TMS320C6x Assembler PC v7.4.2 Thu Mar 19 12:40:35 2015

Tools Copyright (c) 1996-2012 Texas Instruments Incorporated
package/lib/Regression/regress_d_c/./../packages/ti/vlib/src/VLIB_convertUYVYsemipl_to_YUVpl/VLIB_convertUYVYsemipl_to_YUVpl_d.se66 PAGE   13

     661                    
     662                            .dwpsn  file "./../packages/ti/vlib/src/VLIB_convertUYVYsemipl_to_YUVpl/VLIB_convertUYVYsemipl
     663                    ;----------------------------------------------------------------------
     664                    ;  48 | VLIB_profile_init(3, "VLIB_convertUYVYsemipl_to_YUVpl");               
     665                    ;----------------------------------------------------------------------
     666 00000034           $C$RL1:    ; CALL OCCURS {VLIB_profile_init} {0}  ; |48| 
     667                    ;** --------------------------------------------------------------------------*
     668                    ;          EXCLUSIVE CPU CYCLES: 12
     669                            .dwpsn  file "./../packages/ti/vlib/src/VLIB_convertUYVYsemipl_to_YUVpl/VLIB_convertUYVYsemipl
     670                    ;----------------------------------------------------------------------
     671                    ;  51 | for( tpi=0; tpi < test_cases; tpi++ ) {                                
     672                    ;----------------------------------------------------------------------
     673 00000034 02280264             LDW     .D1T1   *A10,A4           ; |51| 
     674 00000038 02bce2e4             LDW     .D2T1   *+SP(28),A5
     675                            .dwpsn  file "./../packages/ti/vlib/src/VLIB_convertUYVYsemipl_to_YUVpl/VLIB_convertUYVYsemipl
     676                    ;----------------------------------------------------------------------
     677                    ;  54 | int32_t    status_nat_vs_int = vlib_KERNEL_PASS; /* Test status : Natur
     678                    ;     | al c vs. Optimized */                                                  
     679                    ;  55 | int32_t    status_nat_vs_ref = vlib_KERNEL_PASS; /* Test status : Natur
     680                    ;     | al c vs. Static Reference */                                           
     681                    ;  58 | uint32_t    inp_size   =  prm[tpi].pitch * prm[tpi].height;            
     682                    ;----------------------------------------------------------------------
     683 0000003c 0580a35a             ZERO    .L2     B11               ; |51| 
     684 00000040 0780a358             ZERO    .L1     A15               ; |51| 
     685 00000044     0c6e             NOP             1
     686                            .dwpsn  file "./../packages/ti/vlib/src/VLIB_convertUYVYsemipl_to_YUVpl/VLIB_convertUYVYsemipl
     687 00000046     1226             CMPGT   .L1     A4,0,A0           ; |51| 
     688                    
     689 00000048 d000a091     [!A0]   B       .S1     $C$L9             ; |51| 
     690 0000004c 071789c0  ||         SUB     .D1     A5,28,A14
     691                    
     692                            .dwpsn  file "./../packages/ti/vlib/src/VLIB_convertUYVYsemipl_to_YUVpl/VLIB_convertUYVYsemipl
     693                    ;----------------------------------------------------------------------
     694                    ;  59 | uint32_t    out_size   =  prm[tpi].width * prm[tpi].height / 2;        
     695                    ;  60 | uint32_t    num_pts    =  prm[tpi].width * prm[tpi].height;            
     696                    ;----------------------------------------------------------------------
     697 00000050 c7000e50     [ A0]   ADDK    .S1     28,A14            ; |59| 
     698 00000054 c5b8c264     [ A0]   LDW     .D1T1   *+A14(24),A11     ; |59| 
     699                            .dwpsn  file "./../packages/ti/vlib/src/VLIB_convertUYVYsemipl_to_YUVpl/VLIB_convertUYVYsemipl
     700                    ;----------------------------------------------------------------------
     701                    ;  63 | uint8_t   *crcb  = (uint8_t *) VLIB_memalign(8, inp_size);             
     702                    ;----------------------------------------------------------------------
     703 00000058 c238a266     [ A0]   LDW     .D1T2   *+A14(20),B4      ; |63| 
     704 00000060 c220a358     [ A0]   MVK     .L1     0x8,A4            ; |63| 
     705                            .dwpsn  file "./../packages/ti/vlib/src/VLIB_convertUYVYsemipl_to_YUVpl/VLIB_convertUYVYsemipl
     706 00000064 c6388264     [ A0]   LDW     .D1T1   *+A14(16),A12     ; |59| 
     707                            .dwpsn  file "./../packages/ti/vlib/src/VLIB_convertUYVYsemipl_to_YUVpl/VLIB_convertUYVYsemipl
     708                               ; BRANCHCC OCCURS {$C$L9}         ; |51| 
     709                    ;** --------------------------------------------------------------------------*
     710                    ;**     -----------------------    K$42 = &testPatternString[0];
     711                    ;**     -----------------------    K$48 = 255;
     712                    ;**     -----------------------    K$56 = &cycles[0];
     713                    ;**     -----------------------    K$85 = &desc[0];
     714                    ;**     -----------------------    U$12 = prm-28;
     715                    ;**     -----------------------    U$11 = 0;
TMS320C6x Assembler PC v7.4.2 Thu Mar 19 12:40:35 2015

Tools Copyright (c) 1996-2012 Texas Instruments Incorporated
package/lib/Regression/regress_d_c/./../packages/ti/vlib/src/VLIB_convertUYVYsemipl_to_YUVpl/VLIB_convertUYVYsemipl_to_YUVpl_d.se66 PAGE   14

     716                    ;** 51  -----------------------    tpi = 0;
     717                    ;**     -----------------------    #pragma LOOP_FLAGS(5120u)
     718                    ;*----------------------------------------------------------------------------*
     719                    ;*   SOFTWARE PIPELINE INFORMATION
     720                    ;*      Disqualified loop: Loop contains a call
     721                    ;*      Disqualified loop: Loop contains non-pipelinable instructions
     722                    ;*      Disqualified loop: Loop contains a call
     723                    ;*      Disqualified loop: Loop contains non-pipelinable instructions
     724                    ;*      Disqualified loop: Loop contains a call
     725                    ;*      Disqualified loop: Loop contains non-pipelinable instructions
     726                    ;*      Disqualified loop: Loop contains a call
     727                    ;*      Disqualified loop: Loop contains non-pipelinable instructions
     728                    ;*      Disqualified loop: Loop contains a call
     729                    ;*      Disqualified loop: Loop contains non-pipelinable instructions
     730                    ;*      Disqualified loop: Loop contains control code
     731                    ;*----------------------------------------------------------------------------*
     732 00000068           $C$L1:    
     733                            .dwpsn  file "./../packages/ti/vlib/src/VLIB_convertUYVYsemipl_to_YUVpl/VLIB_convertUYVYsemipl
     734 00000068           $C$DW$L$VLIB_convertUYVYsemipl_to_YUVpl_d$5$B:
     735                    ;          EXCLUSIVE CPU CYCLES: 6
     736                    ;**     -----------------------g3:
     737                    ;** 59  -----------------------    C$6 = (*(U$12 += 28)).height;
     738                    ;** 59  -----------------------    C$7 = (*U$12).width*C$6;
     739                    ;** 59  -----------------------    out_size = C$7>>1;
     740                    ;** 60  -----------------------    num_pts = C$7;
     741                    ;** 63  -----------------------    crcb = VLIB_memalign(8u, (*U$12).pitch*C$6);
     742                    ;** 64  -----------------------    cr = VLIB_memalign(8u, out_size);
     743                    ;** 65  -----------------------    cb = VLIB_memalign(8u, out_size);
     744                    ;** 66  -----------------------    cr_cn = malloc(out_size);
     745                    ;** 67  -----------------------    cb_cn = malloc(out_size);
     746                    ;** 70  -----------------------    if ( !((crcb != NULL)&(cr != NULL)&(cb != NULL)&(cr_cn != NULL)&(cb
     747                            .dwpsn  file "./../packages/ti/vlib/src/VLIB_convertUYVYsemipl_to_YUVpl/VLIB_convertUYVYsemipl
     748                    $C$DW$119       .dwtag  DW_TAG_TI_branch
     749                            .dwattr $C$DW$119, DW_AT_low_pc(0x00)
     750                            .dwattr $C$DW$119, DW_AT_name("VLIB_memalign")
     751                            .dwattr $C$DW$119, DW_AT_TI_call
     752 00000068 00000010!            CALL    .S1     VLIB_memalign     ; |63| 
     753 0000006c 01860162             ADDKPC  .S2     $C$RL2,B3,0       ; |63| 
     754 00000070 022c9802             MPY32   .M2X    A11,B4,B4         ; |63| 
     755 00000074 00004000             NOP             3
     756 00000078           $C$RL2:    ; CALL OCCURS {VLIB_memalign} {0}  ; |63| 
     757 00000078           $C$DW$L$VLIB_convertUYVYsemipl_to_YUVpl_d$5$E:
     758                    ;** --------------------------------------------------------------------------*
     759 00000078           $C$DW$L$VLIB_convertUYVYsemipl_to_YUVpl_d$6$B:
     760                    ;          EXCLUSIVE CPU CYCLES: 33
     761                            .dwpsn  file "./../packages/ti/vlib/src/VLIB_convertUYVYsemipl_to_YUVpl/VLIB_convertUYVYsemipl
     762 00000078 06b16800             MPY32   .M1     A11,A12,A13       ; |59| 
     763                            .dwpsn  file "./../packages/ti/vlib/src/VLIB_convertUYVYsemipl_to_YUVpl/VLIB_convertUYVYsemipl
     764 0000007c 05100fd8             MV      .L1     A4,A10            ; |63| 
     765 00000080 053d02f4             STW     .D2T1   A10,*+SP(32)      ; |63| 
     766                            .dwpsn  file "./../packages/ti/vlib/src/VLIB_convertUYVYsemipl_to_YUVpl/VLIB_convertUYVYsemipl
     767                    ;----------------------------------------------------------------------
     768                    ;  64 | uint8_t   *cr    = (uint8_t *) VLIB_memalign(8, out_size);             
     769                    ;----------------------------------------------------------------------
     770 00000084 0220a358             MVK     .L1     0x8,A4            ; |64| 
TMS320C6x Assembler PC v7.4.2 Thu Mar 19 12:40:35 2015

Tools Copyright (c) 1996-2012 Texas Instruments Incorporated
package/lib/Regression/regress_d_c/./../packages/ti/vlib/src/VLIB_convertUYVYsemipl_to_YUVpl/VLIB_convertUYVYsemipl_to_YUVpl_d.se66 PAGE   15

     771                            .dwpsn  file "./../packages/ti/vlib/src/VLIB_convertUYVYsemipl_to_YUVpl/VLIB_convertUYVYsemipl
     772 00000088 05b429a0             SHRU    .S1     A13,1,A11         ; |59| 
     773 0000008c     0c6e             NOP             1
     774                    $C$DW$120       .dwtag  DW_TAG_TI_branch
     775                            .dwattr $C$DW$120, DW_AT_low_pc(0x00)
     776                            .dwattr $C$DW$120, DW_AT_name("VLIB_memalign")
     777                            .dwattr $C$DW$120, DW_AT_TI_call
     778                    
     779 00000090 10000012!            CALLP   .S2     VLIB_memalign,B3
     780 0000008e     9587  ||         MV      .L2X    A11,B4            ; |64| 
     781                    
     782                            .dwpsn  file "./../packages/ti/vlib/src/VLIB_convertUYVYsemipl_to_YUVpl/VLIB_convertUYVYsemipl
     783 00000094           $C$RL3:    ; CALL OCCURS {VLIB_memalign} {0}  ; |64| 
     784 00000094     8646             MV      .L1     A4,A12            ; |64| 
     785                    $C$DW$121       .dwtag  DW_TAG_TI_branch
     786                            .dwattr $C$DW$121, DW_AT_low_pc(0x00)
     787                            .dwattr $C$DW$121, DW_AT_name("VLIB_memalign")
     788                            .dwattr $C$DW$121, DW_AT_TI_call
     789                    
     790 000000a0 10000013!            CALLP   .S2     VLIB_memalign,B3
     791 00000098 063d22f5  ||         STW     .D2T1   A12,*+SP(36)      ; |64| 
     792 00000096     9587  ||         MV      .L2X    A11,B4            ; |65| 
     793 000000a4     0e26  ||         MVK     .L1     0x8,A4            ; |65| 
     794                    
     795                            .dwpsn  file "./../packages/ti/vlib/src/VLIB_convertUYVYsemipl_to_YUVpl/VLIB_convertUYVYsemipl
     796                    ;----------------------------------------------------------------------
     797                    ;  65 | uint8_t   *cb    = (uint8_t *) VLIB_memalign(8, out_size);             
     798                    ;----------------------------------------------------------------------
     799 000000a6           $C$RL4:    ; CALL OCCURS {VLIB_memalign} {0}  ; |65| 
     800 000000a6     5647             MV      .L2X    A4,B10            ; |65| 
     801                    $C$DW$122       .dwtag  DW_TAG_TI_branch
     802                            .dwattr $C$DW$122, DW_AT_low_pc(0x00)
     803                            .dwattr $C$DW$122, DW_AT_name("malloc")
     804                            .dwattr $C$DW$122, DW_AT_TI_call
     805                    
     806 000000a8 10000013!            CALLP   .S2     malloc,B3
     807 000000ac 053d42f7  ||         STW     .D2T2   B10,*+SP(40)      ; |65| 
     808 000000b0     8586  ||         MV      .L1     A11,A4            ; |66| 
     809                    
     810                            .dwpsn  file "./../packages/ti/vlib/src/VLIB_convertUYVYsemipl_to_YUVpl/VLIB_convertUYVYsemipl
     811                    ;----------------------------------------------------------------------
     812                    ;  66 | uint8_t   *cr_cn = (uint8_t *) malloc(out_size);                       
     813                    ;----------------------------------------------------------------------
     814 000000b2           $C$RL5:    ; CALL OCCURS {malloc} {0}        ; |66| 
     815 000000b2     b647             MV      .L2X    A4,B13            ; |66| 
     816                    $C$DW$123       .dwtag  DW_TAG_TI_branch
     817                            .dwattr $C$DW$123, DW_AT_low_pc(0x00)
     818                            .dwattr $C$DW$123, DW_AT_name("malloc")
     819                            .dwattr $C$DW$123, DW_AT_TI_call
     820                    
     821 000000b4 10000013!            CALLP   .S2     malloc,B3
     822 000000b8 06bd62f7  ||         STW     .D2T2   B13,*+SP(44)      ; |66| 
     823 000000c0     8586  ||         MV      .L1     A11,A4            ; |67| 
     824                    
     825                            .dwpsn  file "./../packages/ti/vlib/src/VLIB_convertUYVYsemipl_to_YUVpl/VLIB_convertUYVYsemipl
TMS320C6x Assembler PC v7.4.2 Thu Mar 19 12:40:35 2015

Tools Copyright (c) 1996-2012 Texas Instruments Incorporated
package/lib/Regression/regress_d_c/./../packages/ti/vlib/src/VLIB_convertUYVYsemipl_to_YUVpl/VLIB_convertUYVYsemipl_to_YUVpl_d.se66 PAGE   16

     826                    ;----------------------------------------------------------------------
     827                    ;  67 | uint8_t   *cb_cn = (uint8_t *) malloc(out_size);                       
     828                    ;----------------------------------------------------------------------
     829 000000c2           $C$RL6:    ; CALL OCCURS {malloc} {0}        ; |67| 
     830 000000c2           $C$DW$L$VLIB_convertUYVYsemipl_to_YUVpl_d$6$E:
     831                    ;** --------------------------------------------------------------------------*
     832 000000c2           $C$DW$L$VLIB_convertUYVYsemipl_to_YUVpl_d$7$B:
     833                    ;          EXCLUSIVE CPU CYCLES: 13
     834                    
     835 000000c2     06a7             ZERO    .L2     B5                ; |70| 
     836 000000c4     160f  ||         MV      .S2X    A12,B0            ; |70| 
     837 000000c6     0506  ||         MV      .L1     A10,A0            ; |70| 
     838 000000c8     1a77  ||         ZERO    .D2     B4                ; |70| 
     839 000000ca     550e  ||         MV      .S1X    B10,A2            ; |70| 
     840 000000cc     19f6  ||         ZERO    .D1     A3                ; |70| 
     841                    
     842 000000ce     2ae7     [ A0]   MVK     .L2     0x1,B5            ; |70| 
     843 000000d0     aa6f  || [ B0]   MVK     .S2     0x1,B4            ; |70| 
     844 000000d2     1b77  ||         ZERO    .D2     B6                ; |70| 
     845 000000d4     2246  ||         MV      .L1     A4,A1             ; |70| 
     846                    
     847 000000d6     4687             MV      .L2     B13,B2            ; |70| 
     848 000000d8 021487e3  ||         AND     .S2     B4,B5,B4          ; |70| 
     849 000000e0 a3002042  || [ A2]   MVK     .D2     0x1,B6            ; |70| 
     850                    
     851 000000e4 6184a359     [ B2]   MVK     .L1     0x1,A3            ; |70| 
     852 000000e8 0290cf7b  ||         AND     .L2     B6,B4,B5          ; |70| 
     853 000000f0     0213  ||         ZERO    .S2     B4                ; |70| 
     854 000000ec 06bd02e7  ||         LDW     .D2T2   *+SP(32),B13      ; |75| 
     855                    
     856 000000f4 8204a35a     [ A1]   MVK     .L2     0x1,B4            ; |70| 
     857 000000f2     8dc5  ||         STW     .D2T1   A4,*+SP(48)       ; |67| 
     858                    
     859                            .dwpsn  file "./../packages/ti/vlib/src/VLIB_convertUYVYsemipl_to_YUVpl/VLIB_convertUYVYsemipl
     860                    ;----------------------------------------------------------------------
     861                    ;  70 | if( crcb && cr && cb && cr_cn && cb_cn ) {                             
     862                    ;  72 |     int32_t    fail, mode;                                             
     863                    ;----------------------------------------------------------------------
     864 000000f8 028cbf7a             AND     .L2X    A3,B5,B5          ; |70| 
     865 00000100 00148f7a             AND     .L2     B4,B5,B0          ; |70| 
     866                    
     867 00000104 26000029!    [ B0]   MVKL    .S1     testPatternString,A12
     868 00000108 25394205  || [ B0]   LDHU    .D1T1   *+A14(20),A10     ; |75| 
     869 0000010c 30007412  || [!B0]   B       .S2     $C$L7             ; |70| 
     870                    
     871 00000110 22007fab     [ B0]   MVK     .S2     0xff,B4
     872 00000114 23382266  || [ B0]   LDW     .D1T2   *+A14(4),B6       ; |75| 
     873                    
     874                            .dwpsn  file "./../packages/ti/vlib/src/VLIB_convertUYVYsemipl_to_YUVpl/VLIB_convertUYVYsemipl
     875                    ;----------------------------------------------------------------------
     876                    ;  75 | VLIB_fillBuffer(prm[tpi].testPattern,                                  
     877                    ;  76 |                 (uint8_t)255,                                          
     878                    ;  77 |                 crcb, prm[tpi].staticIn,                               
     879                    ;  78 |                 prm[tpi].width, prm[tpi].height, prm[tpi].pitch,       
     880                    ;  79 |                 sizeof(uint8_t), testPatternString);                   
TMS320C6x Assembler PC v7.4.2 Thu Mar 19 12:40:35 2015

Tools Copyright (c) 1996-2012 Texas Instruments Incorporated
package/lib/Regression/regress_d_c/./../packages/ti/vlib/src/VLIB_convertUYVYsemipl_to_YUVpl/VLIB_convertUYVYsemipl_to_YUVpl_d.se66 PAGE   17

     881                    ;  82 | VLIB_profile_start(vlib_KERNEL_OPT);                                   
     882                    ;  83 | VLIB_convertUYVYsemipl_to_YUVpl(crcb, prm[tpi].width, prm[tpi].pitch, p
     883                    ;     | rm[tpi].height, cr, cb);                                               
     884                    ;  84 | VLIB_profile_stop();                                                   
     885                    ;  87 | VLIB_profile_start(vlib_KERNEL_CN);                                    
     886                    ;  88 | VLIB_convertUYVYsemipl_to_YUVpl_cn(crcb, prm[tpi].width, prm[tpi].pitch
     887                    ;     | , prm[tpi].height, cr_cn, cb_cn);                                      
     888                    ;  89 | VLIB_profile_stop();                                                   
     889                    ;  93 | if( VLIB_compare_mem((void *) cr, (void *)cr_cn, out_size) == vlib_KERN
     890                    ;     | EL_FAIL ||                                                             
     891                    ;  94 |     VLIB_compare_mem((void *) cb, (void *)cb_cn, out_size) == vlib_KERN
     892                    ;     | EL_FAIL ) {                                                            
     893                    ;  95 |     status_nat_vs_int = vlib_KERNEL_FAIL;                              
     894                    ;  96 | } else {                                                               
     895                    ;  97 |     status_nat_vs_int = vlib_KERNEL_PASS;                              
     896                    ; 101 | if( prm[tpi].staticOutCr != NULL &&                                    
     897                    ; 102 |     prm[tpi].staticOutCb != NULL ) {                                   
     898                    ; 104 |     if( VLIB_compare_mem((void *) prm[tpi].staticOutCr, (void *)cr_cn,
     899                    ;     | out_size) == vlib_KERNEL_FAIL ||                                       
     900                    ; 105 |         VLIB_compare_mem((void *) prm[tpi].staticOutCb, (void *)cb_cn,
     901                    ;     | out_size) == vlib_KERNEL_FAIL ) {                                      
     902                    ; 106 |         status_nat_vs_ref = vlib_KERNEL_FAIL;                          
     903                    ; 107 |     } else {                                                           
     904                    ; 108 |         status_nat_vs_ref = vlib_KERNEL_PASS;                          
     905                    ; 113 | fail = ((status_nat_vs_int == vlib_KERNEL_FAIL) || (status_nat_vs_ref =
     906                    ;     | = vlib_KERNEL_FAIL)) ? 1 : 0;                                          
     907                    ; 115 | est_test=1;                                                            
     908                    ; 118 | sprintf(desc, "%s generated input | Opt results compared to NatC result
     909                    ;     | s | width=%d, pitch=%d, height=%d, num_pts=%d",                        
     910                    ; 119 |         testPatternString, prm[tpi].width, prm[tpi].pitch, prm[tpi].hei
     911                    ;     | ght, num_pts);                                                         
     912                    ; 120 | mode = (prm[tpi].pitch == prm[tpi].width) ? 1 : 2;                     
     913                    ; 121 | VLIB_formula_add_test(num_pts, prm[tpi].height, NULL, fail, desc, mode)
     914                    ;     | ;                                                                      
     915                    ; 123 | } else {                                                               
     916                    ;----------------------------------------------------------------------
     917 00000118 24398206     [ B0]   LDHU    .D1T2   *+A14(24),B8      ; |75| 
     918                    $C$DW$124       .dwtag  DW_TAG_TI_branch
     919                            .dwattr $C$DW$124, DW_AT_low_pc(0x04)
     920                            .dwattr $C$DW$124, DW_AT_name("VLIB_fillBuffer")
     921                            .dwattr $C$DW$124, DW_AT_TI_call
     922                    
     923 0000011c 24390205     [ B0]   LDHU    .D1T1   *+A14(16),A8      ; |75| 
     924 00000120 20000010! || [ B0]   CALL    .S1     VLIB_fillBuffer   ; |75| 
     925                    
     926 00000124 22380214     [ B0]   LDBU    .D1T1   *A14,A4           ; |75| 
     927                            .dwpsn  file "./../packages/ti/vlib/src/VLIB_convertUYVYsemipl_to_YUVpl/VLIB_convertUYVYsemipl
     928                    ;----------------------------------------------------------------------
     929                    ; 125 | sprintf(desc, "width=%d, pitch=%d, height=%d, num_pts=%d",             
     930                    ; 126 |         prm[tpi].width, prm[tpi].pitch, prm[tpi].height, num_pts);     
     931                    ; 127 | VLIB_skip_test(desc);                                                  
     932                    ; 131 | free(cb_cn);                                                           
     933                    ; 132 | free(cr_cn);                                                           
     934                    ; 133 | VLIB_align_free(cb);                                                   
     935                    ; 134 | VLIB_align_free(cr);                                                   
TMS320C6x Assembler PC v7.4.2 Thu Mar 19 12:40:35 2015

Tools Copyright (c) 1996-2012 Texas Instruments Incorporated
package/lib/Regression/regress_d_c/./../packages/ti/vlib/src/VLIB_convertUYVYsemipl_to_YUVpl/VLIB_convertUYVYsemipl_to_YUVpl_d.se66 PAGE   18

     936                    ; 135 | VLIB_align_free(crcb);                                                 
     937                    ; 139 | VLIB_profile_setMode(1, 2, "pitch == width", 0); /* Mode 1 */          
     938                    ;----------------------------------------------------------------------
     939 00000128 3238a264     [!B0]   LDW     .D1T1   *+A14(20),A4      ; |125| 
     940                            .dwpsn  file "./../packages/ti/vlib/src/VLIB_convertUYVYsemipl_to_YUVpl/VLIB_convertUYVYsemipl
     941                               ; BRANCHCC OCCURS {$C$L7}         ; |70| 
     942 0000012c           $C$DW$L$VLIB_convertUYVYsemipl_to_YUVpl_d$7$E:
     943                    ;** --------------------------------------------------------------------------*
     944 0000012c           $C$DW$L$VLIB_convertUYVYsemipl_to_YUVpl_d$8$B:
     945                    ;          EXCLUSIVE CPU CYCLES: 3
     946                    ;** 75  -----------------------    VLIB_fillBuffer((*U$12).testPattern, (unsigned char)K$48, (void *)c
     947                    ;** 137 -----------------------    act_kernel = 0;  // [15]
     948                    ;** 140 -----------------------    VLIB_cache_inval();  // [15]
     949                    ;** 143 -----------------------    initStack(getSP());  // [15]
     950                    ;** 146 -----------------------    beg_count = _itoll(TSCH, TSCL);  // [15]
     951                    ;** 83  -----------------------    VLIB_convertUYVYsemipl_to_YUVpl(crcb, (*U$12).width, (*U$12).pitch,
     952                    ;** 153 -----------------------    v$2 = _itoll(TSCH, TSCL);  // [16]
     953                    ;** 153 -----------------------    end_count = v$2;  // [16]
     954                    ;** 156 -----------------------    C$5 = act_kernel;  // [16]
     955                    ;** 156 -----------------------    *((C$5<<3)+K$56) = *((C$5<<3)+K$56)+(v$2-(beg_count+overhead));  //
     956                    ;** 159 -----------------------    setStackDepth();  // [16]
     957                    ;** 137 -----------------------    act_kernel = 1;  // [15]
     958                    ;** 140 -----------------------    VLIB_cache_inval();  // [15]
     959                    ;** 143 -----------------------    initStack(getSP());  // [15]
     960                    ;** 146 -----------------------    beg_count = _itoll(TSCH, TSCL);  // [15]
     961                    ;** 88  -----------------------    VLIB_convertUYVYsemipl_to_YUVpl_cn(crcb, (*U$12).width, (*U$12).pit
     962                    ;** 153 -----------------------    v$2 = _itoll(TSCH, TSCL);  // [16]
     963                    ;** 153 -----------------------    end_count = v$2;  // [16]
     964                    ;** 156 -----------------------    C$4 = act_kernel;  // [16]
     965                    ;** 156 -----------------------    *((C$4<<3)+K$56) = *((C$4<<3)+K$56)+(v$2-(beg_count+overhead));  //
     966                    ;** 159 -----------------------    setStackDepth();  // [16]
     967                            .dwpsn  file "./../packages/ti/vlib/src/VLIB_convertUYVYsemipl_to_YUVpl/VLIB_convertUYVYsemipl
     968 0000012c 0213180a             EXTU    .S2     B4,24,24,B4       ; |75| 
     969 00000130 06000068!            MVKH    .S1     testPatternString,A12
     970                    
     971 00000134 0504a35b             MVK     .L2     0x1,B10           ; |75| 
     972 00000138 03341fd9  ||         MV      .L1X    B13,A6            ; |75| 
     973 0000013c 01880162  ||         ADDKPC  .S2     $C$RL7,B3,0       ; |75| 
     974                    
     975 00000140           $C$RL7:    ; CALL OCCURS {VLIB_fillBuffer} {0}  ; |75| 
     976 00000140           $C$DW$L$VLIB_convertUYVYsemipl_to_YUVpl_d$8$E:
     977                    ;** --------------------------------------------------------------------------*
     978 00000140           $C$DW$L$VLIB_convertUYVYsemipl_to_YUVpl_d$9$B:
     979                    ;          EXCLUSIVE CPU CYCLES: 113
     980 00000140 0280002a!            MVKL    .S2     act_kernel,B5
     981                    
     982 00000144 0280006b!            MVKH    .S2     act_kernel,B5
     983 00000148     0627  ||         ZERO    .L2     B4                ; |137| 
     984                    
     985                    $C$DW$125       .dwtag  DW_TAG_TI_branch
     986                            .dwattr $C$DW$125, DW_AT_low_pc(0x00)
     987                            .dwattr $C$DW$125, DW_AT_name("VLIB_cache_inval")
     988                            .dwattr $C$DW$125, DW_AT_TI_call
     989                    
     990 0000014c 10000012!            CALLP   .S2     VLIB_cache_inval,B3
TMS320C6x Assembler PC v7.4.2 Thu Mar 19 12:40:35 2015

Tools Copyright (c) 1996-2012 Texas Instruments Incorporated
package/lib/Regression/regress_d_c/./../packages/ti/vlib/src/VLIB_convertUYVYsemipl_to_YUVpl/VLIB_convertUYVYsemipl_to_YUVpl_d.se66 PAGE   19

     991 0000014a     10c5  ||         STW     .D2T2   B4,*B5            ; |137| 
     992                    
     993                            .dwpsn  file ".\..\packages\ti\vlib\src\VLIB_convertUYVYsemipl_to_YUVpl\..\common\VLIB_profile
     994                    ;----------------------------------------------------------------------
     995                    ; 140 | VLIB_profile_cycle_report(vlib_PROFILE_FORMULA_RANGE,                  
     996                    ; 141 |                           "N = width * height",                        
     997                    ; 142 |                           "width * height");                           
     998                    ;----------------------------------------------------------------------
     999                    $C$RL8:    ; CALL OCCURS {VLIB_cache_inval} {0}  ; |140| 
    1000                    $C$DW$126       .dwtag  DW_TAG_TI_branch
    1001                            .dwattr $C$DW$126, DW_AT_low_pc(0x00)
    1002                            .dwattr $C$DW$126, DW_AT_name("getSP")
    1003                            .dwattr $C$DW$126, DW_AT_TI_call
    1004 00000150 10000012!            CALLP   .S2     getSP,B3
    1005                            .dwpsn  file ".\..\packages\ti\vlib\src\VLIB_convertUYVYsemipl_to_YUVpl\..\common\VLIB_profile
    1006                    ;----------------------------------------------------------------------
    1007                    ; 144 | VLIB_profile_setMode(2, 3, "pitch > width", 1); /* Mode 2 */           
    1008                    ; 145 | VLIB_profile_cycle_report(vlib_PROFILE_FORMULA_RANGE,                  
    1009                    ;----------------------------------------------------------------------
    1010                    $C$RL9:    ; CALL OCCURS {getSP} {0}         ; |143| 
    1011                    $C$DW$127       .dwtag  DW_TAG_TI_branch
    1012                            .dwattr $C$DW$127, DW_AT_low_pc(0x00)
    1013                            .dwattr $C$DW$127, DW_AT_name("initStack")
    1014                            .dwattr $C$DW$127, DW_AT_TI_call
    1015 00000154 10000012!            CALLP   .S2     initStack,B3
    1016 00000158           $C$RL10:   ; CALL OCCURS {initStack} {0}     ; |143| 
    1017                            .dwpsn  file ".\..\packages\ti\vlib\src\VLIB_convertUYVYsemipl_to_YUVpl\..\common\VLIB_profile
    1018                    ;----------------------------------------------------------------------
    1019                    ; 146 | "N = width * height; M = height",                                      
    1020                    ; 147 | "width * height");                                                     
    1021                    ; 150 | VLIB_kernel_memory();                                                  
    1022                    ;----------------------------------------------------------------------
    1023 00000158 042803e2             MVC     .S2     TSCL,B8           ; |146| 
    1024 00000160 022c03e2             MVC     .S2     TSCH,B4           ; |146| 
    1025                    
    1026 00000164 0280002b!            MVKL    .S2     beg_count,B5
    1027 00000168 0338c266  ||         LDW     .D1T2   *+A14(24),B6      ; |83| 
    1028                    
    1029 0000016c 0280006b!            MVKH    .S2     beg_count,B5
    1030 00000170 04900fdb  ||         MV      .L2     B4,B9             ; |146| 
    1031 00000174 043d22e5  ||         LDW     .D2T1   *+SP(36),A8       ; |83| 
    1032 00000178 02388266  ||         LDW     .D1T2   *+A14(16),B4      ; |83| 
    1033                    
    1034 0000017c 041403c6             STDW    .D2T2   B9:B8,*B5         ; |146| 
    1035                    $C$DW$128       .dwtag  DW_TAG_TI_branch
    1036                            .dwattr $C$DW$128, DW_AT_low_pc(0x00)
    1037                            .dwattr $C$DW$128, DW_AT_name("VLIB_convertUYVYsemipl_to_YUVpl")
    1038                            .dwattr $C$DW$128, DW_AT_TI_call
    1039                    
    1040 00000180 10000013!            CALLP   .S2     VLIB_convertUYVYsemipl_to_YUVpl,B3
    1041 00000184 043d42e7  ||         LDW     .D2T2   *+SP(40),B8       ; |83| 
    1042 00000188 0338a265  ||         LDW     .D1T1   *+A14(20),A6      ; |83| 
    1043 0000018c 02341fd8  ||         MV      .L1X    B13,A4            ; |83| 
    1044                    
    1045                            .dwpsn  file "./../packages/ti/vlib/src/VLIB_convertUYVYsemipl_to_YUVpl/VLIB_convertUYVYsemipl
TMS320C6x Assembler PC v7.4.2 Thu Mar 19 12:40:35 2015

Tools Copyright (c) 1996-2012 Texas Instruments Incorporated
package/lib/Regression/regress_d_c/./../packages/ti/vlib/src/VLIB_convertUYVYsemipl_to_YUVpl/VLIB_convertUYVYsemipl_to_YUVpl_d.se66 PAGE   20

    1046 00000190           $C$RL11:   ; CALL OCCURS {VLIB_convertUYVYsemipl_to_YUVpl} {0}  ; |83| 
    1047                            .dwpsn  file ".\..\packages\ti\vlib\src\VLIB_convertUYVYsemipl_to_YUVpl\..\common\VLIB_profile
    1048                    ;----------------------------------------------------------------------
    1049                    ; 154 | #ifndef __ONESHOTTEST                                                  
    1050                    ;----------------------------------------------------------------------
    1051 00000190 042803e2             MVC     .S2     TSCL,B8           ; |153| 
    1052 00000194 032c03e2             MVC     .S2     TSCH,B6           ; |153| 
    1053 00000198 02000028!            MVKL    .S1     beg_count,A4
    1054 0000019c 01800028!            MVKL    .S1     act_kernel,A3
    1055                    
    1056 000001a0 01800069!            MVKH    .S1     act_kernel,A3
    1057 000001a4 0200002a! ||         MVKL    .S2     overhead,B4
    1058                    
    1059 000001a8 018c0265             LDW     .D1T1   *A3,A3            ; |156| 
    1060 000001ac 02000069! ||         MVKH    .S1     beg_count,A4
    1061 000001b0 0200006a! ||         MVKH    .S2     overhead,B4
    1062                    
    1063 000001b4     004c             LDDW    .D1T1   *A4,A5:A4         ; |156| 
    1064 000001b6     104d  ||         LDDW    .D2T2   *B4,B5:B4         ; |156| 
    1065                    
    1066 000001b8 03000028!            MVKL    .S1     cycles,A6
    1067 000001c0 03000068!            MVKH    .S1     cycles,A6
    1068 000001c4     2747             MV      .L2     B6,B9             ; |153| 
    1069                            .dwpsn  file ".\..\packages\ti\vlib\src\VLIB_convertUYVYsemipl_to_YUVpl\..\common\VLIB_profile
    1070                    ;----------------------------------------------------------------------
    1071                    ; 156 | main() {                                                               
    1072                    ; 157 | if( VLIB_cache_init()) {                                               
    1073                    ; 158 |     VLIB_memError("VLIB_convertUYVYsemipl_to_YUVpl");                  
    1074                    ;----------------------------------------------------------------------
    1075 000001c6     656c             LDDW    .D1T1   *+A6[A3],A7:A6    ; |156| 
    1076 000001c8 0310957a             ADDU    .L2X    B4,A4,B7:B6       ; |156| 
    1077                    
    1078 000001d0     e2eb             ADD     .S2     B7,B5,B6          ; |156| 
    1079 000001cc 021905fb  ||         SUBU    .L2     B8,B6,B5:B4       ; |156| 
    1080                    
    1081 000001d2     d2e1             ADD     .L2X    B6,A5,B6          ; |156| 
    1082                    
    1083 000001d4 0f9920fb             SUB     .L2     B9,B6,B31         ; |156| 
    1084 000001d8 0297184a  ||         EXT     .S2     B5,24,24,B5       ; |156| 
    1085                    
    1086 000001e0 0210d579             ADDU    .L1X    A6,B4,A5:A4       ; |156| 
    1087 000001e4 0217e07b  ||         ADD     .L2     B31,B5,B4         ; |156| 
    1088 000001e8 04000028! ||         MVKL    .S1     end_count,A8
    1089                    
    1090 000001f4     c246             MV      .L1     A4,A6             ; |156| 
    1091 000001f0 0214e841  ||         ADD     .D1     A5,A7,A4          ; |156| 
    1092 000001ec 04000069! ||         MVKH    .S1     end_count,A8
    1093                    
    1094 000001f6     9270             ADD     .L1X    A4,B4,A7          ; |156| 
    1095 000001f8 02000028! ||         MVKL    .S1     cycles,A4
    1096                    
    1097 00000200 02000069!            MVKH    .S1     cycles,A4
    1098 00000204 04200346  ||         STDW    .D1T2   B9:B8,*A8         ; |153| 
    1099                    
    1100                    $C$DW$129       .dwtag  DW_TAG_TI_branch
TMS320C6x Assembler PC v7.4.2 Thu Mar 19 12:40:35 2015

Tools Copyright (c) 1996-2012 Texas Instruments Incorporated
package/lib/Regression/regress_d_c/./../packages/ti/vlib/src/VLIB_convertUYVYsemipl_to_YUVpl/VLIB_convertUYVYsemipl_to_YUVpl_d.se66 PAGE   21

    1101                            .dwattr $C$DW$129, DW_AT_low_pc(0x00)
    1102                            .dwattr $C$DW$129, DW_AT_name("setStackDepth")
    1103                            .dwattr $C$DW$129, DW_AT_TI_call
    1104                    
    1105 00000208 10000013!            CALLP   .S2     setStackDepth,B3
    1106 0000020c 03106b44  ||         STDW    .D1T1   A7:A6,*+A4[A3]    ; |156| 
    1107                    
    1108                            .dwpsn  file ".\..\packages\ti\vlib\src\VLIB_convertUYVYsemipl_to_YUVpl\..\common\VLIB_profile
    1109                    ;----------------------------------------------------------------------
    1110                    ; 159 | } else {                                                               
    1111                    ;----------------------------------------------------------------------
    1112 00000210           $C$RL12:   ; CALL OCCURS {setStackDepth} {0}  ; |159| 
    1113 00000210 0280002a!            MVKL    .S2     act_kernel,B5
    1114                    
    1115 00000214 0280006b!            MVKH    .S2     act_kernel,B5
    1116 00000218     2627  ||         MVK     .L2     1,B4              ; |137| 
    1117                    
    1118                    $C$DW$130       .dwtag  DW_TAG_TI_branch
    1119                            .dwattr $C$DW$130, DW_AT_low_pc(0x00)
    1120                            .dwattr $C$DW$130, DW_AT_name("VLIB_cache_inval")
    1121                            .dwattr $C$DW$130, DW_AT_TI_call
    1122                    
    1123 00000220 10000012!            CALLP   .S2     VLIB_cache_inval,B3
    1124 0000021a     10c5  ||         STW     .D2T2   B4,*B5            ; |137| 
    1125                    
    1126                            .dwpsn  file ".\..\packages\ti\vlib\src\VLIB_convertUYVYsemipl_to_YUVpl\..\common\VLIB_profile
    1127                    $C$RL13:   ; CALL OCCURS {VLIB_cache_inval} {0}  ; |140| 
    1128                    $C$DW$131       .dwtag  DW_TAG_TI_branch
    1129                            .dwattr $C$DW$131, DW_AT_low_pc(0x00)
    1130                            .dwattr $C$DW$131, DW_AT_name("getSP")
    1131                            .dwattr $C$DW$131, DW_AT_TI_call
    1132 00000224 10000012!            CALLP   .S2     getSP,B3
    1133                            .dwpsn  file ".\..\packages\ti\vlib\src\VLIB_convertUYVYsemipl_to_YUVpl\..\common\VLIB_profile
    1134                    $C$RL14:   ; CALL OCCURS {getSP} {0}         ; |143| 
    1135                    $C$DW$132       .dwtag  DW_TAG_TI_branch
    1136                            .dwattr $C$DW$132, DW_AT_low_pc(0x00)
    1137                            .dwattr $C$DW$132, DW_AT_name("initStack")
    1138                            .dwattr $C$DW$132, DW_AT_TI_call
    1139 00000228 10000012!            CALLP   .S2     initStack,B3
    1140 0000022c           $C$RL15:   ; CALL OCCURS {initStack} {0}     ; |143| 
    1141                            .dwpsn  file ".\..\packages\ti\vlib\src\VLIB_convertUYVYsemipl_to_YUVpl\..\common\VLIB_profile
    1142 0000022c 032803e2             MVC     .S2     TSCL,B6           ; |146| 
    1143 00000230 022c03e2             MVC     .S2     TSCH,B4           ; |146| 
    1144 00000234 0280002a!            MVKL    .S2     beg_count,B5
    1145                    
    1146 00000238 0280006b!            MVKH    .S2     beg_count,B5
    1147 0000023c 03900fdb  ||         MV      .L2     B4,B7             ; |146| 
    1148 00000240 043d82e6  ||         LDW     .D2T2   *+SP(48),B8       ; |88| 
    1149                    
    1150 00000244 031403c7             STDW    .D2T2   B7:B6,*B5         ; |146| 
    1151 00000248 0338a264  ||         LDW     .D1T1   *+A14(20),A6      ; |88| 
    1152                    
    1153                            .dwpsn  file "./../packages/ti/vlib/src/VLIB_convertUYVYsemipl_to_YUVpl/VLIB_convertUYVYsemipl
    1154 0000024c 02388266             LDW     .D1T2   *+A14(16),B4      ; |88| 
    1155                    $C$DW$133       .dwtag  DW_TAG_TI_branch
TMS320C6x Assembler PC v7.4.2 Thu Mar 19 12:40:35 2015

Tools Copyright (c) 1996-2012 Texas Instruments Incorporated
package/lib/Regression/regress_d_c/./../packages/ti/vlib/src/VLIB_convertUYVYsemipl_to_YUVpl/VLIB_convertUYVYsemipl_to_YUVpl_d.se66 PAGE   22

    1156                            .dwattr $C$DW$133, DW_AT_low_pc(0x00)
    1157                            .dwattr $C$DW$133, DW_AT_name("VLIB_convertUYVYsemipl_to_YUVpl_cn")
    1158                            .dwattr $C$DW$133, DW_AT_TI_call
    1159                    
    1160 00000250 10000013!            CALLP   .S2     VLIB_convertUYVYsemipl_to_YUVpl_cn,B3
    1161 00000254 0338c267  ||         LDW     .D1T2   *+A14(24),B6      ; |88| 
    1162 00000258 043d62e5  ||         LDW     .D2T1   *+SP(44),A8       ; |88| 
    1163 0000025c 02341fd8  ||         MV      .L1X    B13,A4            ; |88| 
    1164                    
    1165 00000260           $C$RL16:   ; CALL OCCURS {VLIB_convertUYVYsemipl_to_YUVpl_cn} {0}  ; |88| 
    1166                            .dwpsn  file ".\..\packages\ti\vlib\src\VLIB_convertUYVYsemipl_to_YUVpl\..\common\VLIB_profile
    1167 00000260 032803e2             MVC     .S2     TSCL,B6           ; |153| 
    1168 00000264 03ac03e2             MVC     .S2     TSCH,B7           ; |153| 
    1169 00000268 0280002a!            MVKL    .S2     beg_count,B5
    1170                    
    1171 0000026c 01800029!            MVKL    .S1     act_kernel,A3
    1172 00000270 0200002a! ||         MVKL    .S2     overhead,B4
    1173                    
    1174 00000274 01800069!            MVKH    .S1     act_kernel,A3
    1175 00000278 0280006a! ||         MVKH    .S2     beg_count,B5
    1176                    
    1177 0000027c 018c0265             LDW     .D1T1   *A3,A3            ; |156| 
    1178 00000280 0200006b! ||         MVKH    .S2     overhead,B4
    1179 00000284 041403e6  ||         LDDW    .D2T2   *B5,B9:B8         ; |156| 
    1180                    
    1181                            .dwpsn  file ".\..\packages\ti\vlib\src\VLIB_convertUYVYsemipl_to_YUVpl\..\common\VLIB_profile
    1182 00000288 081003e6             LDDW    .D2T2   *B4,B17:B16       ; |156| 
    1183 0000028c 02000028!            MVKL    .S1     cycles,A4
    1184 00000290 02000068!            MVKH    .S1     cycles,A4
    1185 00000294     0c6e             NOP             1
    1186 00000296     646c             LDDW    .D1T1   *+A4[A3],A7:A6    ; |156| 
    1187 00000298 0222057a             ADDU    .L2     B16,B8,B5:B4      ; |156| 
    1188 000002a0 0444a07a             ADD     .L2     B5,B17,B8         ; |156| 
    1189                    
    1190 000002a4 042501e3             ADD     .S2     B8,B9,B8          ; |156| 
    1191 000002a8 0210c5fa  ||         SUBU    .L2     B6,B4,B5:B4       ; |156| 
    1192                    
    1193 000002ac 0fa0e0fb             SUB     .L2     B7,B8,B31         ; |156| 
    1194 000002b0 0297184a  ||         EXT     .S2     B5,24,24,B5       ; |156| 
    1195                    
    1196 000002b4 0210d579             ADDU    .L1X    A6,B4,A5:A4       ; |156| 
    1197 000002b8 0217e07a  ||         ADD     .L2     B31,B5,B4         ; |156| 
    1198                    
    1199 000002bc 03100fd9             MV      .L1     A4,A6             ; |156| 
    1200 000002c0     a3ca  ||         ADD     .S1     A5,A7,A4          ; |156| 
    1201                    
    1202 000002c2     9270             ADD     .L1X    A4,B4,A7          ; |156| 
    1203 000002c4 02000029! ||         MVKL    .S1     cycles,A4
    1204 000002c8 0800002a! ||         MVKL    .S2     end_count,B16
    1205                    
    1206 000002cc 02000069!            MVKH    .S1     cycles,A4
    1207 000002d0 0800006a! ||         MVKH    .S2     end_count,B16
    1208                    
    1209                    $C$DW$134       .dwtag  DW_TAG_TI_branch
    1210                            .dwattr $C$DW$134, DW_AT_low_pc(0x00)
TMS320C6x Assembler PC v7.4.2 Thu Mar 19 12:40:35 2015

Tools Copyright (c) 1996-2012 Texas Instruments Incorporated
package/lib/Regression/regress_d_c/./../packages/ti/vlib/src/VLIB_convertUYVYsemipl_to_YUVpl/VLIB_convertUYVYsemipl_to_YUVpl_d.se66 PAGE   23

    1211                            .dwattr $C$DW$134, DW_AT_name("setStackDepth")
    1212                            .dwattr $C$DW$134, DW_AT_TI_call
    1213                    
    1214 000002d4 10000013!            CALLP   .S2     setStackDepth,B3
    1215 000002d8 03106b45  ||         STDW    .D1T1   A7:A6,*+A4[A3]    ; |156| 
    1216 000002e0 034003c6  ||         STDW    .D2T2   B7:B6,*B16        ; |153| 
    1217                    
    1218                            .dwpsn  file ".\..\packages\ti\vlib\src\VLIB_convertUYVYsemipl_to_YUVpl\..\common\VLIB_profile
    1219                    ;----------------------------------------------------------------------
    1220                    ; 160 | VLIB_convertUYVYsemipl_to_YUVpl_d(0);                                  
    1221                    ; 163 | #endif /* __ONESHOTTEST */                                             
    1222                    ;----------------------------------------------------------------------
    1223 000002e4           $C$RL17:   ; CALL OCCURS {setStackDepth} {0}  ; |159| 
    1224 000002e4           $C$DW$L$VLIB_convertUYVYsemipl_to_YUVpl_d$9$E:
    1225                    ;** --------------------------------------------------------------------------*
    1226 000002e4           $C$DW$L$VLIB_convertUYVYsemipl_to_YUVpl_d$10$B:
    1227                    ;          EXCLUSIVE CPU CYCLES: 7
    1228                    ;** 93  -----------------------    U$64 = out_size;
    1229                    ;** 55  -----------------------    status_nat_vs_ref = 1;
    1230                    ;** 93  -----------------------    if ( !VLIB_compare_mem((void *)cr, (void *)cr_cn, U$64) ) goto g7;
    1231                            .dwpsn  file "./../packages/ti/vlib/src/VLIB_convertUYVYsemipl_to_YUVpl/VLIB_convertUYVYsemipl
    1232 000002e4     ad4d             LDW     .D2T1   *+SP(36),A4       ; |93| 
    1233                    $C$DW$135       .dwtag  DW_TAG_TI_branch
    1234                            .dwattr $C$DW$135, DW_AT_low_pc(0x00)
    1235                            .dwattr $C$DW$135, DW_AT_name("VLIB_compare_mem")
    1236                            .dwattr $C$DW$135, DW_AT_TI_call
    1237                    
    1238 000002e8 10000013!            CALLP   .S2     VLIB_compare_mem,B3
    1239 000002e6     fd4d  ||         LDW     .D2T2   *+SP(44),B4       ; |93| 
    1240 000002ec     c586  ||         MV      .L1     A11,A6            ; |93| 
    1241                    
    1242 000002ee           $C$RL18:   ; CALL OCCURS {VLIB_compare_mem} {0}  ; |93| 
    1243 000002ee           $C$DW$L$VLIB_convertUYVYsemipl_to_YUVpl_d$10$E:
    1244                    ;** --------------------------------------------------------------------------*
    1245 000002ee           $C$DW$L$VLIB_convertUYVYsemipl_to_YUVpl_d$11$B:
    1246                    ;          EXCLUSIVE CPU CYCLES: 7
    1247 000002ee     0246             MV      .L1     A4,A0             ; |93| 
    1248                    
    1249 000002f0 d0000b91     [!A0]   B       .S1     $C$L2             ; |93| 
    1250 000002f4 c23d82e6  || [ A0]   LDW     .D2T2   *+SP(48),B4       ; |93| 
    1251                    
    1252                    $C$DW$136       .dwtag  DW_TAG_TI_branch
    1253                            .dwattr $C$DW$136, DW_AT_low_pc(0x00)
    1254                            .dwattr $C$DW$136, DW_AT_name("VLIB_compare_mem")
    1255                            .dwattr $C$DW$136, DW_AT_TI_call
    1256 000002f8 c0000010!    [ A0]   CALL    .S1     VLIB_compare_mem  ; |93| 
    1257 00000300 c23d42e4     [ A0]   LDW     .D2T1   *+SP(40),A4       ; |93| 
    1258 00000304 06a80fda             MV      .L2     B10,B13           ; |93| 
    1259                            .dwpsn  file "./../packages/ti/vlib/src/VLIB_convertUYVYsemipl_to_YUVpl/VLIB_convertUYVYsemipl
    1260 00000308 d600a35a     [!A0]   ZERO    .L2     B12               ; |95| 
    1261 0000030c     0c6e             NOP             1
    1262                            .dwpsn  file "./../packages/ti/vlib/src/VLIB_convertUYVYsemipl_to_YUVpl/VLIB_convertUYVYsemipl
    1263                               ; BRANCHCC OCCURS {$C$L2}         ; |93| 
    1264 0000030e           $C$DW$L$VLIB_convertUYVYsemipl_to_YUVpl_d$11$E:
    1265                    ;** --------------------------------------------------------------------------*
TMS320C6x Assembler PC v7.4.2 Thu Mar 19 12:40:35 2015

Tools Copyright (c) 1996-2012 Texas Instruments Incorporated
package/lib/Regression/regress_d_c/./../packages/ti/vlib/src/VLIB_convertUYVYsemipl_to_YUVpl/VLIB_convertUYVYsemipl_to_YUVpl_d.se66 PAGE   24

    1266 0000030e           $C$DW$L$VLIB_convertUYVYsemipl_to_YUVpl_d$12$B:
    1267                    ;          EXCLUSIVE CPU CYCLES: 1
    1268                    ;** 93  -----------------------    if ( !VLIB_compare_mem((void *)cb, (void *)cb_cn, U$64) ) goto g7;
    1269                    ;** 54  -----------------------    status_nat_vs_int = 1;
    1270                    ;**     -----------------------    goto g8;
    1271                    
    1272 0000030e     c586             MV      .L1     A11,A6            ; |93| 
    1273 00000310 01850162  ||         ADDKPC  .S2     $C$RL19,B3,0      ; |93| 
    1274                    
    1275 00000314           $C$RL19:   ; CALL OCCURS {VLIB_compare_mem} {0}  ; |93| 
    1276 00000314           $C$DW$L$VLIB_convertUYVYsemipl_to_YUVpl_d$12$E:
    1277                    ;** --------------------------------------------------------------------------*
    1278 00000314           $C$DW$L$VLIB_convertUYVYsemipl_to_YUVpl_d$13$B:
    1279                    ;          EXCLUSIVE CPU CYCLES: 7
    1280 00000314     0246             MV      .L1     A4,A0             ; |93| 
    1281                    
    1282 00000320 c00b2121     [ A0]   BNOP    .S1     $C$L3,1
    1283 00000318 c0b86265  || [ A0]   LDW     .D1T1   *+A14(12),A1      ; |101| 
    1284 00000316     4046  ||         MV      .L1     A0,A2             ; guard predicate rewrite
    1285 00000324 c6340fdb  || [ A0]   MV      .L2     B13,B12           ; |93| 
    1286 00000328 d600002a  || [!A0]   ZERO    .S2     B12               ; |95| 
    1287                    
    1288                            .dwpsn  file "./../packages/ti/vlib/src/VLIB_convertUYVYsemipl_to_YUVpl/VLIB_convertUYVYsemipl
    1289 0000032c c0384264     [ A0]   LDW     .D1T1   *+A14(8),A0       ; |101| 
    1290 00000330 a180a358     [ A2]   ZERO    .L1     A3                ; |101| 
    1291 00000334 a200a358     [ A2]   ZERO    .L1     A4                ; |101| 
    1292 00000338 00000000             NOP             1
    1293                               ; BRANCHCC OCCURS {$C$L3}  
    1294 0000033c           $C$DW$L$VLIB_convertUYVYsemipl_to_YUVpl_d$13$E:
    1295                    ;** --------------------------------------------------------------------------*
    1296 0000033c           $C$L2:    
    1297                            .dwpsn  file "./../packages/ti/vlib/src/VLIB_convertUYVYsemipl_to_YUVpl/VLIB_convertUYVYsemipl
    1298 0000033c           $C$DW$L$VLIB_convertUYVYsemipl_to_YUVpl_d$14$B:
    1299                    ;          EXCLUSIVE CPU CYCLES: 5
    1300                    ;**     -----------------------g7:
    1301                    ;** 95  -----------------------    status_nat_vs_int = 0;
    1302                            .dwpsn  file "./../packages/ti/vlib/src/VLIB_convertUYVYsemipl_to_YUVpl/VLIB_convertUYVYsemipl
    1303 0000033c 00b86264             LDW     .D1T1   *+A14(12),A1      ; |101| 
    1304 00000340 00384264             LDW     .D1T1   *+A14(8),A0       ; |101| 
    1305 00000344     05a6             ZERO    .L1     A3                ; |101| 
    1306 00000346     0626             ZERO    .L1     A4                ; |101| 
    1307 00000348 00000000             NOP             1
    1308 0000034c           $C$DW$L$VLIB_convertUYVYsemipl_to_YUVpl_d$14$E:
    1309                    ;** --------------------------------------------------------------------------*
    1310 0000034c           $C$L3:    
    1311 0000034c           $C$DW$L$VLIB_convertUYVYsemipl_to_YUVpl_d$15$B:
    1312                    ;          EXCLUSIVE CPU CYCLES: 9
    1313                    ;**     -----------------------g8:
    1314                    ;** 101 -----------------------    v$1 = prm;
    1315                    ;** 101 -----------------------    C$3 = (*U$12).staticOutCr;
    1316                    ;** 101 -----------------------    if ( !((C$3 != NULL)&((*U$12).staticOutCb != NULL)) ) goto g13;
    1317                    
    1318 0000034c 81b41fd9     [ A1]   MV      .L1X    B13,A3            ; |101| 
    1319 00000350 053ce2e6  ||         LDW     .D2T2   *+SP(28),B10      ; |101| 
    1320                    
TMS320C6x Assembler PC v7.4.2 Thu Mar 19 12:40:35 2015

Tools Copyright (c) 1996-2012 Texas Instruments Incorporated
package/lib/Regression/regress_d_c/./../packages/ti/vlib/src/VLIB_convertUYVYsemipl_to_YUVpl/VLIB_convertUYVYsemipl_to_YUVpl_d.se66 PAGE   25

    1321 00000354 c2341fd8     [ A0]   MV      .L1X    B13,A4            ; |101| 
    1322 00000358 00906f78             AND     .L1     A3,A4,A1          ; |101| 
    1323                    
    1324 00000360 823d62e7     [ A1]   LDW     .D2T2   *+SP(44),B4       ; |104| 
    1325 00000364 91800029! || [!A1]   MVKL    .S1     $C$SL2+0,A3
    1326 00000368 90001b12  || [!A1]   B       .S2     $C$L6             ; |101| 
    1327                    
    1328                    $C$DW$137       .dwtag  DW_TAG_TI_branch
    1329                            .dwattr $C$DW$137, DW_AT_low_pc(0x04)
    1330                            .dwattr $C$DW$137, DW_AT_name("VLIB_compare_mem")
    1331                            .dwattr $C$DW$137, DW_AT_TI_call
    1332                    
    1333 0000036c 91800069!    [!A1]   MVKH    .S1     $C$SL2+0,A3
    1334 00000370 80000012! || [ A1]   CALL    .S2     VLIB_compare_mem  ; |104| 
    1335                    
    1336 00000374 922d407b     [!A1]   ADD     .L2     B10,B11,B4        ; |118| 
    1337 00000378 92000029! || [!A1]   MVKL    .S1     est_test,A4
    1338 0000037c 91bc22f5  || [!A1]   STW     .D2T1   A3,*+SP(4)        ; |118| 
    1339 00000380 9184a358  || [!A1]   MVK     .L1     1,A3              ; |115| 
    1340                    
    1341 00000384 939082e7     [!A1]   LDW     .D2T2   *+B4(16),B7       ; |118| 
    1342 00000388 92000068! || [!A1]   MVKH    .S1     est_test,A4
    1343                    
    1344 0000038c 9290c2e7     [!A1]   LDW     .D2T2   *+B4(24),B5       ; |118| 
    1345 00000390 91900275  || [!A1]   STW     .D1T1   A3,*A4            ; |115| 
    1346 00000394 92000028! || [!A1]   MVKL    .S1     desc,A4
    1347                    
    1348                    $C$DW$138       .dwtag  DW_TAG_TI_branch
    1349                            .dwattr $C$DW$138, DW_AT_low_pc(0x04)
    1350                            .dwattr $C$DW$138, DW_AT_name("sprintf")
    1351                            .dwattr $C$DW$138, DW_AT_TI_call
    1352                    
    1353 00000398 9310a2e7     [!A1]   LDW     .D2T2   *+B4(20),B6       ; |118| 
    1354 0000039c 90000011! || [!A1]   CALL    .S1     sprintf           ; |118| 
    1355 000003a0 92301fda  || [!A1]   MV      .L2X    A12,B4            ; |118| 
    1356                    
    1357                               ; BRANCHCC OCCURS {$C$L6}         ; |101| 
    1358 000003a4           $C$DW$L$VLIB_convertUYVYsemipl_to_YUVpl_d$15$E:
    1359                    ;** --------------------------------------------------------------------------*
    1360 000003a4           $C$DW$L$VLIB_convertUYVYsemipl_to_YUVpl_d$16$B:
    1361                    ;          EXCLUSIVE CPU CYCLES: 1
    1362                    ;** 104 -----------------------    if ( !VLIB_compare_mem((void *)C$3, (void *)cr_cn, U$64) ) goto g12
    1363                    
    1364 000003a4     c586             MV      .L1     A11,A6            ; |104| 
    1365 000003a6     804e  ||         MV      .S1     A0,A4             ; |104| 
    1366 000003a8 01830162  ||         ADDKPC  .S2     $C$RL20,B3,0      ; |104| 
    1367                    
    1368                            .dwpsn  file "./../packages/ti/vlib/src/VLIB_convertUYVYsemipl_to_YUVpl/VLIB_convertUYVYsemipl
    1369 000003ac           $C$RL20:   ; CALL OCCURS {VLIB_compare_mem} {0}  ; |104| 
    1370 000003ac           $C$DW$L$VLIB_convertUYVYsemipl_to_YUVpl_d$16$E:
    1371                    ;** --------------------------------------------------------------------------*
    1372 000003ac           $C$DW$L$VLIB_convertUYVYsemipl_to_YUVpl_d$17$B:
    1373                    ;          EXCLUSIVE CPU CYCLES: 7
    1374 000003ac     0246             MV      .L1     A4,A0             ; |104| 
    1375                    
TMS320C6x Assembler PC v7.4.2 Thu Mar 19 12:40:35 2015

Tools Copyright (c) 1996-2012 Texas Instruments Incorporated
package/lib/Regression/regress_d_c/./../packages/ti/vlib/src/VLIB_convertUYVYsemipl_to_YUVpl/VLIB_convertUYVYsemipl_to_YUVpl_d.se66 PAGE   26

    1376 000003b0 c2386264     [ A0]   LDW     .D1T1   *+A14(12),A4      ; |104| 
    1377 000003ae     0d3a  || [!A0]   B       .S1     $C$L4             ; |104| 
    1378                    
    1379                    $C$DW$139       .dwtag  DW_TAG_TI_branch
    1380                            .dwattr $C$DW$139, DW_AT_low_pc(0x00)
    1381                            .dwattr $C$DW$139, DW_AT_name("VLIB_compare_mem")
    1382                            .dwattr $C$DW$139, DW_AT_TI_call
    1383                    
    1384 000003b4 c0000011!    [ A0]   CALL    .S1     VLIB_compare_mem  ; |104| 
    1385 000003b8 d53ce2e6  || [!A0]   LDW     .D2T2   *+SP(28),B10      ; |107| 
    1386                    
    1387 000003c0 c23d82e6     [ A0]   LDW     .D2T2   *+SP(48),B4       ; |104| 
    1388                            .dwpsn  file "./../packages/ti/vlib/src/VLIB_convertUYVYsemipl_to_YUVpl/VLIB_convertUYVYsemipl
    1389 000003c4 d680a35a     [!A0]   ZERO    .L2     B13               ; |106| 
    1390 000003c8     2c6e             NOP             2
    1391                            .dwpsn  file "./../packages/ti/vlib/src/VLIB_convertUYVYsemipl_to_YUVpl/VLIB_convertUYVYsemipl
    1392                               ; BRANCHCC OCCURS {$C$L4}         ; |104| 
    1393 000003ca           $C$DW$L$VLIB_convertUYVYsemipl_to_YUVpl_d$17$E:
    1394                    ;** --------------------------------------------------------------------------*
    1395 000003ca           $C$DW$L$VLIB_convertUYVYsemipl_to_YUVpl_d$18$B:
    1396                    ;          EXCLUSIVE CPU CYCLES: 1
    1397                    ;** 104 -----------------------    if ( !VLIB_compare_mem((*U$12).staticOutCb, (void *)cb_cn, U$64) ) 
    1398                    ;** 108 -----------------------    status_nat_vs_ref = 1;
    1399                    ;** 108 -----------------------    goto g13;
    1400                    
    1401 000003ca     c586             MV      .L1     A11,A6            ; |104| 
    1402 000003cc 01840162  ||         ADDKPC  .S2     $C$RL21,B3,0      ; |104| 
    1403                    
    1404 000003d0           $C$RL21:   ; CALL OCCURS {VLIB_compare_mem} {0}  ; |104| 
    1405 000003d0           $C$DW$L$VLIB_convertUYVYsemipl_to_YUVpl_d$18$E:
    1406                    ;** --------------------------------------------------------------------------*
    1407 000003d0           $C$DW$L$VLIB_convertUYVYsemipl_to_YUVpl_d$19$B:
    1408                    ;          EXCLUSIVE CPU CYCLES: 7
    1409 000003d0 00100fd8             MV      .L1     A4,A0             ; |104| 
    1410                    
    1411 000003d4 c0000d13     [ A0]   B       .S2     $C$L5             ; |108| 
    1412 000003d8 d53ce2e7  || [!A0]   LDW     .D2T2   *+SP(28),B10      ; |107| 
    1413 000003e0 c22d407b  || [ A0]   ADD     .L2     B10,B11,B4        ; |118| 
    1414 000003e4 c1800028! || [ A0]   MVKL    .S1     $C$SL2+0,A3
    1415                    
    1416 000003e8 c1800069!    [ A0]   MVKH    .S1     $C$SL2+0,A3
    1417 000003ec c39082e7  || [ A0]   LDW     .D2T2   *+B4(16),B7       ; |118| 
    1418 000003f0 d680a35a  || [!A0]   ZERO    .L2     B13               ; |106| 
    1419                    
    1420 000003f4 c1bc22f5     [ A0]   STW     .D2T1   A3,*+SP(4)        ; |118| 
    1421 000003f8 c184a358  || [ A0]   MVK     .L1     1,A3              ; |115| 
    1422                    
    1423 000003fc c2000028!    [ A0]   MVKL    .S1     est_test,A4
    1424                            .dwpsn  file "./../packages/ti/vlib/src/VLIB_convertUYVYsemipl_to_YUVpl/VLIB_convertUYVYsemipl
    1425 00000400 c290c2e6     [ A0]   LDW     .D2T2   *+B4(24),B5       ; |118| 
    1426 00000404 c2000068!    [ A0]   MVKH    .S1     est_test,A4
    1427                            .dwpsn  file "./../packages/ti/vlib/src/VLIB_convertUYVYsemipl_to_YUVpl/VLIB_convertUYVYsemipl
    1428                               ; BRANCHCC OCCURS {$C$L5}         ; |108| 
    1429 00000408           $C$DW$L$VLIB_convertUYVYsemipl_to_YUVpl_d$19$E:
    1430                    ;** --------------------------------------------------------------------------*
TMS320C6x Assembler PC v7.4.2 Thu Mar 19 12:40:35 2015

Tools Copyright (c) 1996-2012 Texas Instruments Incorporated
package/lib/Regression/regress_d_c/./../packages/ti/vlib/src/VLIB_convertUYVYsemipl_to_YUVpl/VLIB_convertUYVYsemipl_to_YUVpl_d.se66 PAGE   27

    1431 00000408           $C$L4:    
    1432                            .dwpsn  file "./../packages/ti/vlib/src/VLIB_convertUYVYsemipl_to_YUVpl/VLIB_convertUYVYsemipl
    1433 00000408           $C$DW$L$VLIB_convertUYVYsemipl_to_YUVpl_d$20$B:
    1434                    ;          EXCLUSIVE CPU CYCLES: 4
    1435                    ;**     -----------------------g12:
    1436                    ;** 107 -----------------------    v$1 = prm;
    1437                    ;** 106 -----------------------    status_nat_vs_ref = 0;
    1438                    
    1439 00000408 01800029!            MVKL    .S1     $C$SL2+0,A3
    1440 0000040c 022d407a  ||         ADD     .L2     B10,B11,B4        ; |118| 
    1441                    
    1442 00000410 01800069!            MVKH    .S1     $C$SL2+0,A3
    1443 00000414     907d  ||         LDW     .D2T2   *+B4(16),B7       ; |118| 
    1444                    
    1445 00000418 02000029!            MVKL    .S1     est_test,A4
    1446 00000416     ac35  ||         STW     .D2T1   A3,*+SP(4)        ; |118| 
    1447 00000420     25a6  ||         MVK     .L1     1,A3              ; |115| 
    1448                    
    1449 00000422     d05d             LDW     .D2T2   *+B4(24),B5       ; |118| 
    1450 00000424 02000068! ||         MVKH    .S1     est_test,A4
    1451                    
    1452                    $C$DW$L$VLIB_convertUYVYsemipl_to_YUVpl_d$20$E:
    1453                    ;** --------------------------------------------------------------------------*
    1454                    $C$L5:    
    1455                    $C$DW$L$VLIB_convertUYVYsemipl_to_YUVpl_d$21$B:
    1456                    ;          EXCLUSIVE CPU CYCLES: 1
    1457                    $C$DW$140       .dwtag  DW_TAG_TI_branch
    1458                            .dwattr $C$DW$140, DW_AT_low_pc(0x10)
    1459                            .dwattr $C$DW$140, DW_AT_name("sprintf")
    1460                            .dwattr $C$DW$140, DW_AT_TI_call
    1461                    
    1462 00000428     b06d             LDW     .D2T2   *+B4(20),B6       ; |118| 
    1463 0000042a     9607  ||         MV      .L2X    A12,B4            ; |118| 
    1464 00000434 01900274  ||         STW     .D1T1   A3,*A4            ; |115| 
    1465 00000430 02000029! ||         MVKL    .S1     desc,A4
    1466 0000042c 00000013! ||         CALL    .S2     sprintf           ; |118| 
    1467                    
    1468 00000438           $C$DW$L$VLIB_convertUYVYsemipl_to_YUVpl_d$21$E:
    1469                    ;** --------------------------------------------------------------------------*
    1470 00000438           $C$L6:    
    1471                            .dwpsn  file "./../packages/ti/vlib/src/VLIB_convertUYVYsemipl_to_YUVpl/VLIB_convertUYVYsemipl
    1472 00000438           $C$DW$L$VLIB_convertUYVYsemipl_to_YUVpl_d$22$B:
    1473                    ;          EXCLUSIVE CPU CYCLES: 5
    1474                    ;**     -----------------------g13:
    1475                    ;** 115 -----------------------    est_test = 1;
    1476                    ;** 118 -----------------------    C$2 = U$11+v$1;
    1477                    ;** 118 -----------------------    sprintf(K$85, (const char *)"%s generated input | Opt results compa
    1478                    ;** 121 -----------------------    VLIB_formula_add_test((int)num_pts, (int)(*U$12).height, 0, (status
    1479                    ;** 123 -----------------------    goto g15;
    1480                            .dwpsn  file "./../packages/ti/vlib/src/VLIB_convertUYVYsemipl_to_YUVpl/VLIB_convertUYVYsemipl
    1481 00000438 023c42f6             STW     .D2T2   B4,*+SP(8)        ; |118| 
    1482 00000440 06bcc2f4             STW     .D2T1   A13,*+SP(24)      ; |118| 
    1483 00000444     fc75             STW     .D2T2   B7,*+SP(12)       ; |118| 
    1484 00000446     bcd5             STW     .D2T2   B5,*+SP(20)       ; |118| 
    1485                    
TMS320C6x Assembler PC v7.4.2 Thu Mar 19 12:40:35 2015

Tools Copyright (c) 1996-2012 Texas Instruments Incorporated
package/lib/Regression/regress_d_c/./../packages/ti/vlib/src/VLIB_convertUYVYsemipl_to_YUVpl/VLIB_convertUYVYsemipl_to_YUVpl_d.se66 PAGE   28

    1486 00000450 033c82f6             STW     .D2T2   B6,*+SP(16)       ; |118| 
    1487 0000044c 01850163  ||         ADDKPC  .S2     $C$RL22,B3,0      ; |118| 
    1488 00000448 02000069! ||         MVKH    .S1     desc,A4
    1489                    
    1490 00000454           $C$RL22:   ; CALL OCCURS {sprintf} {0}       ; |118| 
    1491 00000454           $C$DW$L$VLIB_convertUYVYsemipl_to_YUVpl_d$22$E:
    1492                    ;** --------------------------------------------------------------------------*
    1493 00000454           $C$DW$L$VLIB_convertUYVYsemipl_to_YUVpl_d$23$B:
    1494                    ;          EXCLUSIVE CPU CYCLES: 15
    1495                            .dwpsn  file "./../packages/ti/vlib/src/VLIB_convertUYVYsemipl_to_YUVpl/VLIB_convertUYVYsemipl
    1496 00000454 01b88264             LDW     .D1T1   *+A14(16),A3      ; |121| 
    1497 00000458 02b8a264             LDW     .D1T1   *+A14(20),A5      ; |121| 
    1498 00000460 02300a5a             CMPEQ   .L2     B12,0,B4          ; |121| 
    1499 00000464 02b40a5a             CMPEQ   .L2     B13,0,B5          ; |121| 
    1500 00000468 04000028!            MVKL    .S1     desc,A8
    1501 0000046c     8686             MV      .L1     A13,A4            ; |121| 
    1502 0000046e     a5e8             CMPEQ   .L1     A5,A3,A0          ; |121| 
    1503                    
    1504 00000470 d188a359     [!A0]   MVK     .L1     0x2,A3            ; |121| 
    1505 00000474 c18000a8  || [ A0]   MVK     .S1     0x1,A3            ; |121| 
    1506                    
    1507 00000478 0310affa             OR      .L2     B5,B4,B6          ; |121| 
    1508                    $C$DW$141       .dwtag  DW_TAG_TI_branch
    1509                            .dwattr $C$DW$141, DW_AT_low_pc(0x10)
    1510                            .dwattr $C$DW$141, DW_AT_name("VLIB_formula_add_test")
    1511                            .dwattr $C$DW$141, DW_AT_TI_call
    1512                    
    1513 00000480 0238c267             LDW     .D1T2   *+A14(24),B4      ; |121| 
    1514 00000484     15c7  ||         MV      .L2X    A3,B8             ; |121| 
    1515 00000488 04000069! ||         MVKH    .S1     desc,A8
    1516 00000486     0726  ||         ZERO    .L1     A6                ; |121| 
    1517 0000048c 10000012! ||         CALLP   .S2     VLIB_formula_add_test,B3
    1518                    
    1519 00000490           $C$RL23:   ; CALL OCCURS {VLIB_formula_add_test} {0}  ; |121| 
    1520 00000490           $C$DW$L$VLIB_convertUYVYsemipl_to_YUVpl_d$23$E:
    1521                    ;** --------------------------------------------------------------------------*
    1522 00000490           $C$DW$L$VLIB_convertUYVYsemipl_to_YUVpl_d$24$B:
    1523                    ;          EXCLUSIVE CPU CYCLES: 6
    1524                            .dwpsn  file "./../packages/ti/vlib/src/VLIB_convertUYVYsemipl_to_YUVpl/VLIB_convertUYVYsemipl
    1525 00000490 00000d10             B       .S1     $C$L8             ; |123| 
    1526                            .dwpsn  file "./../packages/ti/vlib/src/VLIB_convertUYVYsemipl_to_YUVpl/VLIB_convertUYVYsemipl
    1527                    $C$DW$142       .dwtag  DW_TAG_TI_branch
    1528                            .dwattr $C$DW$142, DW_AT_low_pc(0x00)
    1529                            .dwattr $C$DW$142, DW_AT_name("free")
    1530                            .dwattr $C$DW$142, DW_AT_TI_call
    1531 00000494 00000010!            CALL    .S1     free              ; |131| 
    1532 00000498     8dcd             LDW     .D2T1   *+SP(48),A4       ; |131| 
    1533 0000049a     4c6e             NOP             3
    1534                            .dwpsn  file "./../packages/ti/vlib/src/VLIB_convertUYVYsemipl_to_YUVpl/VLIB_convertUYVYsemipl
    1535                               ; BRANCH OCCURS {$C$L8}           ; |123| 
    1536 000004a0           $C$DW$L$VLIB_convertUYVYsemipl_to_YUVpl_d$24$E:
    1537                    ;** --------------------------------------------------------------------------*
    1538 000004a0           $C$L7:    
    1539                            .dwpsn  file "./../packages/ti/vlib/src/VLIB_convertUYVYsemipl_to_YUVpl/VLIB_convertUYVYsemipl
    1540 000004a0           $C$DW$L$VLIB_convertUYVYsemipl_to_YUVpl_d$25$B:
TMS320C6x Assembler PC v7.4.2 Thu Mar 19 12:40:35 2015

Tools Copyright (c) 1996-2012 Texas Instruments Incorporated
package/lib/Regression/regress_d_c/./../packages/ti/vlib/src/VLIB_convertUYVYsemipl_to_YUVpl/VLIB_convertUYVYsemipl_to_YUVpl_d.se66 PAGE   29

    1541                    ;          EXCLUSIVE CPU CYCLES: 7
    1542                    ;**     -----------------------g14:
    1543                    ;** 125 -----------------------    sprintf(K$85, (const char *)"width=%d, pitch=%d, height=%d, num_pts
    1544                    ;** 127 -----------------------    VLIB_skip_test(K$85);
    1545                    
    1546 000004a0 02b88265             LDW     .D1T1   *+A14(16),A5      ; |125| 
    1547 000004a4 0200002a! ||         MVKL    .S2     $C$SL3+0,B4
    1548                    
    1549                    $C$DW$143       .dwtag  DW_TAG_TI_branch
    1550                            .dwattr $C$DW$143, DW_AT_low_pc(0x04)
    1551                            .dwattr $C$DW$143, DW_AT_name("sprintf")
    1552                            .dwattr $C$DW$143, DW_AT_TI_call
    1553                    
    1554 000004a8 01b8c265             LDW     .D1T1   *+A14(24),A3      ; |125| 
    1555 000004ac 00000011! ||         CALL    .S1     sprintf           ; |125| 
    1556 000004b0 0200006a! ||         MVKH    .S2     $C$SL3+0,B4
    1557                    
    1558                            .dwpsn  file "./../packages/ti/vlib/src/VLIB_convertUYVYsemipl_to_YUVpl/VLIB_convertUYVYsemipl
    1559 000004b4 023c22f6             STW     .D2T2   B4,*+SP(4)        ; |125| 
    1560 000004b8 06bca2f4             STW     .D2T1   A13,*+SP(20)      ; |125| 
    1561 000004bc 023c62f4             STW     .D2T1   A4,*+SP(12)       ; |125| 
    1562                    
    1563 000004c0 02000029!            MVKL    .S1     desc,A4
    1564 000004c4     cc55  ||         STW     .D2T1   A5,*+SP(8)        ; |125| 
    1565                    
    1566 000004c6     8cb5             STW     .D2T1   A3,*+SP(16)       ; |125| 
    1567 000004c8 02000069! ||         MVKH    .S1     desc,A4
    1568 000004cc 01840162  ||         ADDKPC  .S2     $C$RL24,B3,0      ; |125| 
    1569                    
    1570 000004d0           $C$RL24:   ; CALL OCCURS {sprintf} {0}       ; |125| 
    1571 000004d0           $C$DW$L$VLIB_convertUYVYsemipl_to_YUVpl_d$25$E:
    1572                    ;** --------------------------------------------------------------------------*
    1573 000004d0           $C$DW$L$VLIB_convertUYVYsemipl_to_YUVpl_d$26$B:
    1574                    ;          EXCLUSIVE CPU CYCLES: 12
    1575 000004d0 02000028!            MVKL    .S1     desc,A4
    1576                    $C$DW$144       .dwtag  DW_TAG_TI_branch
    1577                            .dwattr $C$DW$144, DW_AT_low_pc(0x00)
    1578                            .dwattr $C$DW$144, DW_AT_name("VLIB_skip_test")
    1579                            .dwattr $C$DW$144, DW_AT_TI_call
    1580                    
    1581 000004d4 10000013!            CALLP   .S2     VLIB_skip_test,B3
    1582 000004d8 02000068! ||         MVKH    .S1     desc,A4
    1583                    
    1584                            .dwpsn  file "./../packages/ti/vlib/src/VLIB_convertUYVYsemipl_to_YUVpl/VLIB_convertUYVYsemipl
    1585 000004e0           $C$RL25:   ; CALL OCCURS {VLIB_skip_test} {0}  ; |127| 
    1586                            .dwpsn  file "./../packages/ti/vlib/src/VLIB_convertUYVYsemipl_to_YUVpl/VLIB_convertUYVYsemipl
    1587                    $C$DW$145       .dwtag  DW_TAG_TI_branch
    1588                            .dwattr $C$DW$145, DW_AT_low_pc(0x00)
    1589                            .dwattr $C$DW$145, DW_AT_name("free")
    1590                            .dwattr $C$DW$145, DW_AT_TI_call
    1591 000004e0 00000010!            CALL    .S1     free              ; |131| 
    1592 000004e4     8dcd             LDW     .D2T1   *+SP(48),A4       ; |131| 
    1593 000004e6     4c6e             NOP             3
    1594 000004e8           $C$DW$L$VLIB_convertUYVYsemipl_to_YUVpl_d$26$E:
    1595                    ;** --------------------------------------------------------------------------*
TMS320C6x Assembler PC v7.4.2 Thu Mar 19 12:40:35 2015

Tools Copyright (c) 1996-2012 Texas Instruments Incorporated
package/lib/Regression/regress_d_c/./../packages/ti/vlib/src/VLIB_convertUYVYsemipl_to_YUVpl/VLIB_convertUYVYsemipl_to_YUVpl_d.se66 PAGE   30

    1596 000004e8           $C$L8:    
    1597                            .dwpsn  file "./../packages/ti/vlib/src/VLIB_convertUYVYsemipl_to_YUVpl/VLIB_convertUYVYsemipl
    1598 000004e8           $C$DW$L$VLIB_convertUYVYsemipl_to_YUVpl_d$27$B:
    1599                    ;          EXCLUSIVE CPU CYCLES: 1
    1600                    ;**     -----------------------g15:
    1601                    ;** 131 -----------------------    free((void *)cb_cn);
    1602                    ;** 132 -----------------------    free((void *)cr_cn);
    1603                    ;** 133 -----------------------    VLIB_align_free((void *)cb);
    1604                    ;** 134 -----------------------    VLIB_align_free((void *)cr);
    1605                    ;** 135 -----------------------    VLIB_align_free((void *)crcb);
    1606                    ;** 51  -----------------------    U$11 += 28;
    1607                    ;** 51  -----------------------    if ( test_cases > (++tpi) ) goto g3;
    1608                            .dwpsn  file "./../packages/ti/vlib/src/VLIB_convertUYVYsemipl_to_YUVpl/VLIB_convertUYVYsemipl
    1609 000004e8 01830162             ADDKPC  .S2     $C$RL26,B3,0      ; |131| 
    1610                    $C$RL26:   ; CALL OCCURS {free} {0}          ; |131| 
    1611                    $C$DW$L$VLIB_convertUYVYsemipl_to_YUVpl_d$27$E:
    1612                    ;** --------------------------------------------------------------------------*
    1613                    $C$DW$L$VLIB_convertUYVYsemipl_to_YUVpl_d$28$B:
    1614                    ;          EXCLUSIVE CPU CYCLES: 24
    1615                    $C$DW$146       .dwtag  DW_TAG_TI_branch
    1616                            .dwattr $C$DW$146, DW_AT_low_pc(0x00)
    1617                            .dwattr $C$DW$146, DW_AT_name("free")
    1618                            .dwattr $C$DW$146, DW_AT_TI_call
    1619                    
    1620 000004ec 10000013!            CALLP   .S2     free,B3
    1621 000004f0 023d62e4  ||         LDW     .D2T1   *+SP(44),A4       ; |132| 
    1622                    
    1623                            .dwpsn  file "./../packages/ti/vlib/src/VLIB_convertUYVYsemipl_to_YUVpl/VLIB_convertUYVYsemipl
    1624                    $C$RL27:   ; CALL OCCURS {free} {0}          ; |132| 
    1625                    $C$DW$147       .dwtag  DW_TAG_TI_branch
    1626                            .dwattr $C$DW$147, DW_AT_low_pc(0x00)
    1627                            .dwattr $C$DW$147, DW_AT_name("VLIB_align_free")
    1628                            .dwattr $C$DW$147, DW_AT_TI_call
    1629                    
    1630 000004f4 10000013!            CALLP   .S2     VLIB_align_free,B3
    1631 000004f8 023d42e4  ||         LDW     .D2T1   *+SP(40),A4       ; |133| 
    1632                    
    1633                            .dwpsn  file "./../packages/ti/vlib/src/VLIB_convertUYVYsemipl_to_YUVpl/VLIB_convertUYVYsemipl
    1634                    $C$RL28:   ; CALL OCCURS {VLIB_align_free} {0}  ; |133| 
    1635                    $C$DW$148       .dwtag  DW_TAG_TI_branch
    1636                            .dwattr $C$DW$148, DW_AT_low_pc(0x00)
    1637                            .dwattr $C$DW$148, DW_AT_name("VLIB_align_free")
    1638                            .dwattr $C$DW$148, DW_AT_TI_call
    1639                    
    1640 00000500 10000013!            CALLP   .S2     VLIB_align_free,B3
    1641 00000504 023d22e4  ||         LDW     .D2T1   *+SP(36),A4       ; |134| 
    1642                    
    1643                            .dwpsn  file "./../packages/ti/vlib/src/VLIB_convertUYVYsemipl_to_YUVpl/VLIB_convertUYVYsemipl
    1644                    $C$RL29:   ; CALL OCCURS {VLIB_align_free} {0}  ; |134| 
    1645                    $C$DW$149       .dwtag  DW_TAG_TI_branch
    1646                            .dwattr $C$DW$149, DW_AT_low_pc(0x00)
    1647                            .dwattr $C$DW$149, DW_AT_name("VLIB_align_free")
    1648                            .dwattr $C$DW$149, DW_AT_TI_call
    1649                    
    1650 00000508 10000013!            CALLP   .S2     VLIB_align_free,B3
TMS320C6x Assembler PC v7.4.2 Thu Mar 19 12:40:35 2015

Tools Copyright (c) 1996-2012 Texas Instruments Incorporated
package/lib/Regression/regress_d_c/./../packages/ti/vlib/src/VLIB_convertUYVYsemipl_to_YUVpl/VLIB_convertUYVYsemipl_to_YUVpl_d.se66 PAGE   31

    1651 0000050c 023d02e4  ||         LDW     .D2T1   *+SP(32),A4       ; |135| 
    1652                    
    1653                            .dwpsn  file "./../packages/ti/vlib/src/VLIB_convertUYVYsemipl_to_YUVpl/VLIB_convertUYVYsemipl
    1654 00000510           $C$RL30:   ; CALL OCCURS {VLIB_align_free} {0}  ; |135| 
    1655 00000510           $C$DW$L$VLIB_convertUYVYsemipl_to_YUVpl_d$28$E:
    1656                    ;** --------------------------------------------------------------------------*
    1657 00000510           $C$DW$L$VLIB_convertUYVYsemipl_to_YUVpl_d$29$B:
    1658                    ;          EXCLUSIVE CPU CYCLES: 14
    1659 00000510 01800028!            MVKL    .S1     test_cases,A3
    1660 00000514 01800068!            MVKH    .S1     test_cases,A3
    1661                            .dwpsn  file "./../packages/ti/vlib/src/VLIB_convertUYVYsemipl_to_YUVpl/VLIB_convertUYVYsemipl
    1662 00000518 018c0264             LDW     .D1T1   *A3,A3            ; |51| 
    1663 0000051c 05800e52             ADDK    .S2     28,B11            ; |51| 
    1664 00000520 07bc2058             ADD     .L1     1,A15,A15         ; |51| 
    1665                            .dwpsn  file "./../packages/ti/vlib/src/VLIB_convertUYVYsemipl_to_YUVpl/VLIB_convertUYVYsemipl
    1666 00000524 07000e50             ADDK    .S1     28,A14            ; |59| 
    1667 00000528 00000000             NOP             1
    1668                            .dwpsn  file "./../packages/ti/vlib/src/VLIB_convertUYVYsemipl_to_YUVpl/VLIB_convertUYVYsemipl
    1669 0000052c 003c68f8             CMPGT   .L1     A3,A15,A0         ; |51| 
    1670                    
    1671 00000530 ced24121     [ A0]   BNOP    .S1     $C$L1,2           ; |51| 
    1672 00000534 c5b8c264  || [ A0]   LDW     .D1T1   *+A14(24),A11     ; |59| 
    1673                    
    1674                            .dwpsn  file "./../packages/ti/vlib/src/VLIB_convertUYVYsemipl_to_YUVpl/VLIB_convertUYVYsemipl
    1675 00000538 c238a266     [ A0]   LDW     .D1T2   *+A14(20),B4      ; |63| 
    1676 0000053c c220a358     [ A0]   MVK     .L1     0x8,A4            ; |63| 
    1677                            .dwpsn  file "./../packages/ti/vlib/src/VLIB_convertUYVYsemipl_to_YUVpl/VLIB_convertUYVYsemipl
    1678 00000540 c6388264     [ A0]   LDW     .D1T1   *+A14(16),A12     ; |59| 
    1679                            .dwpsn  file "./../packages/ti/vlib/src/VLIB_convertUYVYsemipl_to_YUVpl/VLIB_convertUYVYsemipl
    1680                               ; BRANCHCC OCCURS {$C$L1}         ; |51| 
    1681 00000544           $C$DW$L$VLIB_convertUYVYsemipl_to_YUVpl_d$29$E:
    1682                    ;** --------------------------------------------------------------------------*
    1683 00000544           $C$L9:    
    1684                    ;          EXCLUSIVE CPU CYCLES: 7
    1685                    ;**     -----------------------g16:
    1686                    ;** 139 -----------------------    VLIB_profile_setMode(1, 2, "pitch == width", 0);
    1687                    ;** 140 -----------------------    VLIB_profile_cycle_report(2, "N = width * height", C$1 = "width * h
    1688                    ;** 144 -----------------------    VLIB_profile_setMode(2, 3, "pitch > width", 1);
    1689                    ;** 145 -----------------------    VLIB_profile_cycle_report(2, "N = width * height; M = height", C$1)
    1690                    ;** 158 -----------------------    printf((const char *)"---------------------------------------------
    1691                    ;** 165 -----------------------    VLIB_stack_memory();  // [19]
    1692                    ;**     -----------------------    return;
    1693 00000544 03000028!            MVKL    .S1     $C$SL4+0,A6
    1694                    $C$DW$150       .dwtag  DW_TAG_TI_branch
    1695                            .dwattr $C$DW$150, DW_AT_low_pc(0x00)
    1696                            .dwattr $C$DW$150, DW_AT_name("VLIB_profile_setMode")
    1697                            .dwattr $C$DW$150, DW_AT_TI_call
    1698                    
    1699 00000548 10000013!            CALLP   .S2     VLIB_profile_setMode,B3
    1700 0000054c 03000069! ||         MVKH    .S1     $C$SL4+0,A6
    1701 00000550     2626  ||         MVK     .L1     0x1,A4            ; |139| 
    1702 00000552     4627  ||         MVK     .L2     0x2,B4            ; |139| 
    1703 00000554     1b77  ||         ZERO    .D2     B6                ; |139| 
    1704                    
    1705                            .dwpsn  file "./../packages/ti/vlib/src/VLIB_convertUYVYsemipl_to_YUVpl/VLIB_convertUYVYsemipl
TMS320C6x Assembler PC v7.4.2 Thu Mar 19 12:40:35 2015

Tools Copyright (c) 1996-2012 Texas Instruments Incorporated
package/lib/Regression/regress_d_c/./../packages/ti/vlib/src/VLIB_convertUYVYsemipl_to_YUVpl/VLIB_convertUYVYsemipl_to_YUVpl_d.se66 PAGE   32

    1706 00000560           $C$RL31:   ; CALL OCCURS {VLIB_profile_setMode} {0}  ; |139| 
    1707                    ;** --------------------------------------------------------------------------*
    1708                    ;          EXCLUSIVE CPU CYCLES: 37
    1709                    
    1710 00000560 05000029!            MVKL    .S1     $C$SL5+0,A10
    1711 00000564 0200002a! ||         MVKL    .S2     $C$SL6+0,B4
    1712                    
    1713 00000568 05000069!            MVKH    .S1     $C$SL5+0,A10
    1714 0000056c 0200006a! ||         MVKH    .S2     $C$SL6+0,B4
    1715                    
    1716                    $C$DW$151       .dwtag  DW_TAG_TI_branch
    1717                            .dwattr $C$DW$151, DW_AT_low_pc(0x00)
    1718                            .dwattr $C$DW$151, DW_AT_name("VLIB_profile_cycle_report")
    1719                            .dwattr $C$DW$151, DW_AT_TI_call
    1720                    
    1721 00000570 10000013!            CALLP   .S2     VLIB_profile_cycle_report,B3
    1722 00000574     c506  ||         MV      .L1     A10,A6            ; |140| 
    1723 00000576     4212  ||         MVK     .S1     0x2,A4            ; |140| 
    1724                    
    1725                            .dwpsn  file "./../packages/ti/vlib/src/VLIB_convertUYVYsemipl_to_YUVpl/VLIB_convertUYVYsemipl
    1726 00000578           $C$RL32:   ; CALL OCCURS {VLIB_profile_cycle_report} {0}  ; |140| 
    1727 00000578 03000028!            MVKL    .S1     $C$SL7+0,A6
    1728                    $C$DW$152       .dwtag  DW_TAG_TI_branch
    1729                            .dwattr $C$DW$152, DW_AT_low_pc(0x00)
    1730                            .dwattr $C$DW$152, DW_AT_name("VLIB_profile_setMode")
    1731                            .dwattr $C$DW$152, DW_AT_TI_call
    1732                    
    1733 00000580 10000013!            CALLP   .S2     VLIB_profile_setMode,B3
    1734 00000584 03000069! ||         MVKH    .S1     $C$SL7+0,A6
    1735 00000588     2727  ||         MVK     .L2     0x1,B6            ; |144| 
    1736 0000058a     4626  ||         MVK     .L1     0x2,A4            ; |144| 
    1737 0000058c 02006042  ||         MVK     .D2     0x3,B4            ; |144| 
    1738                    
    1739                            .dwpsn  file "./../packages/ti/vlib/src/VLIB_convertUYVYsemipl_to_YUVpl/VLIB_convertUYVYsemipl
    1740 00000590           $C$RL33:   ; CALL OCCURS {VLIB_profile_setMode} {0}  ; |144| 
    1741 00000590 0200002a!            MVKL    .S2     $C$SL8+0,B4
    1742 00000594 0200006a!            MVKH    .S2     $C$SL8+0,B4
    1743                    $C$DW$153       .dwtag  DW_TAG_TI_branch
    1744                            .dwattr $C$DW$153, DW_AT_low_pc(0x00)
    1745                            .dwattr $C$DW$153, DW_AT_name("VLIB_profile_cycle_report")
    1746                            .dwattr $C$DW$153, DW_AT_TI_call
    1747                    
    1748 00000598 10000013!            CALLP   .S2     VLIB_profile_cycle_report,B3
    1749 000005a0     c506  ||         MV      .L1     A10,A6            ; |145| 
    1750 000005a2     4212  ||         MVK     .S1     0x2,A4            ; |145| 
    1751                    
    1752                            .dwpsn  file "./../packages/ti/vlib/src/VLIB_convertUYVYsemipl_to_YUVpl/VLIB_convertUYVYsemipl
    1753 000005a4           $C$RL34:   ; CALL OCCURS {VLIB_profile_cycle_report} {0}  ; |145| 
    1754 000005a4 01800028!            MVKL    .S1     $C$SL9+0,A3
    1755 000005a8 01800068!            MVKH    .S1     $C$SL9+0,A3
    1756                    $C$DW$154       .dwtag  DW_TAG_TI_branch
    1757                            .dwattr $C$DW$154, DW_AT_low_pc(0x00)
    1758                            .dwattr $C$DW$154, DW_AT_name("printf")
    1759                            .dwattr $C$DW$154, DW_AT_TI_call
    1760                    
TMS320C6x Assembler PC v7.4.2 Thu Mar 19 12:40:35 2015

Tools Copyright (c) 1996-2012 Texas Instruments Incorporated
package/lib/Regression/regress_d_c/./../packages/ti/vlib/src/VLIB_convertUYVYsemipl_to_YUVpl/VLIB_convertUYVYsemipl_to_YUVpl_d.se66 PAGE   33

    1761 000005ac 10000013!            CALLP   .S2     printf,B3
    1762 000005b0 01bc22f4  ||         STW     .D2T1   A3,*+SP(4)        ; |158| 
    1763                    
    1764                            .dwpsn  file ".\..\packages\ti\vlib\src\VLIB_convertUYVYsemipl_to_YUVpl\../common/VLIB_memory.
    1765                    $C$RL35:   ; CALL OCCURS {printf} {0}        ; |158| 
    1766                    $C$DW$155       .dwtag  DW_TAG_TI_branch
    1767                            .dwattr $C$DW$155, DW_AT_low_pc(0x00)
    1768                            .dwattr $C$DW$155, DW_AT_name("VLIB_stack_memory")
    1769                            .dwattr $C$DW$155, DW_AT_TI_call
    1770 000005b4 10000012!            CALLP   .S2     VLIB_stack_memory,B3
    1771                            .dwpsn  file ".\..\packages\ti\vlib\src\VLIB_convertUYVYsemipl_to_YUVpl\../common/VLIB_memory.
    1772 000005b8           $C$RL36:   ; CALL OCCURS {VLIB_stack_memory} {0}  ; |165| 
    1773                    ;** --------------------------------------------------------------------------*
    1774                    ;          EXCLUSIVE CPU CYCLES: 13
    1775                            .dwpsn  file "./../packages/ti/vlib/src/VLIB_convertUYVYsemipl_to_YUVpl/VLIB_convertUYVYsemipl
    1776 000005b8 01bdd2e6             LDW     .D2T2   *++SP(56),B3      ; |151| 
    1777                            .dwcfi  cfa_offset, 48
    1778                            .dwcfi  restore_reg, 19
    1779 000005c0 063c33e4             LDDW    .D2T1   *++SP,A13:A12
    1780                            .dwcfi  cfa_offset, 40
    1781                            .dwcfi  restore_reg, 13
    1782                            .dwcfi  restore_reg, 12
    1783 000005c4 073c33e4             LDDW    .D2T1   *++SP,A15:A14
    1784                            .dwcfi  cfa_offset, 32
    1785                            .dwcfi  restore_reg, 15
    1786                            .dwcfi  restore_reg, 14
    1787 000005c8 053c33e6             LDDW    .D2T2   *++SP,B11:B10
    1788                            .dwcfi  cfa_offset, 24
    1789                            .dwcfi  restore_reg, 27
    1790                            .dwcfi  restore_reg, 26
    1791 000005cc 063c33e6             LDDW    .D2T2   *++SP,B13:B12
    1792                            .dwcfi  cfa_offset, 16
    1793                            .dwcfi  restore_reg, 29
    1794                            .dwcfi  restore_reg, 28
    1795 000005d0 053c52e4             LDW     .D2T1   *++SP(8),A10
    1796                            .dwcfi  cfa_offset, 8
    1797                            .dwcfi  restore_reg, 10
    1798 000005d4 05bc52e4             LDW     .D2T1   *++SP(8),A11      ; |151| 
    1799                            .dwcfi  cfa_offset, 0
    1800                            .dwcfi  restore_reg, 11
    1801                            .dwcfi  cfa_offset, 0
    1802                    $C$DW$156       .dwtag  DW_TAG_TI_branch
    1803                            .dwattr $C$DW$156, DW_AT_low_pc(0x00)
    1804                            .dwattr $C$DW$156, DW_AT_TI_return
    1805 000005d8 008ca362             RETNOP  .S2     B3,5
    1806                               ; BRANCH OCCURS {B3}  
    1807                    
    1808                    $C$DW$157       .dwtag  DW_TAG_TI_loop
    1809                            .dwattr $C$DW$157, DW_AT_name("c:\nightlybuilds\vlib\ti\vlib\vlib\examples\package/lib/Regress
    1810                            .dwattr $C$DW$157, DW_AT_TI_begin_file("./../packages/ti/vlib/src/VLIB_convertUYVYsemipl_to_YU
    1811                            .dwattr $C$DW$157, DW_AT_TI_begin_line(0x33)
    1812                            .dwattr $C$DW$157, DW_AT_TI_end_line(0x88)
    1813                    $C$DW$158       .dwtag  DW_TAG_TI_loop_range
    1814                            .dwattr $C$DW$158, DW_AT_low_pc($C$DW$L$VLIB_convertUYVYsemipl_to_YUVpl_d$5$B)
    1815                            .dwattr $C$DW$158, DW_AT_high_pc($C$DW$L$VLIB_convertUYVYsemipl_to_YUVpl_d$5$E)
TMS320C6x Assembler PC v7.4.2 Thu Mar 19 12:40:35 2015

Tools Copyright (c) 1996-2012 Texas Instruments Incorporated
package/lib/Regression/regress_d_c/./../packages/ti/vlib/src/VLIB_convertUYVYsemipl_to_YUVpl/VLIB_convertUYVYsemipl_to_YUVpl_d.se66 PAGE   34

    1816                    $C$DW$159       .dwtag  DW_TAG_TI_loop_range
    1817                            .dwattr $C$DW$159, DW_AT_low_pc($C$DW$L$VLIB_convertUYVYsemipl_to_YUVpl_d$25$B)
    1818                            .dwattr $C$DW$159, DW_AT_high_pc($C$DW$L$VLIB_convertUYVYsemipl_to_YUVpl_d$25$E)
    1819                    $C$DW$160       .dwtag  DW_TAG_TI_loop_range
    1820                            .dwattr $C$DW$160, DW_AT_low_pc($C$DW$L$VLIB_convertUYVYsemipl_to_YUVpl_d$16$B)
    1821                            .dwattr $C$DW$160, DW_AT_high_pc($C$DW$L$VLIB_convertUYVYsemipl_to_YUVpl_d$16$E)
    1822                    $C$DW$161       .dwtag  DW_TAG_TI_loop_range
    1823                            .dwattr $C$DW$161, DW_AT_low_pc($C$DW$L$VLIB_convertUYVYsemipl_to_YUVpl_d$17$B)
    1824                            .dwattr $C$DW$161, DW_AT_high_pc($C$DW$L$VLIB_convertUYVYsemipl_to_YUVpl_d$17$E)
    1825                    $C$DW$162       .dwtag  DW_TAG_TI_loop_range
    1826                            .dwattr $C$DW$162, DW_AT_low_pc($C$DW$L$VLIB_convertUYVYsemipl_to_YUVpl_d$18$B)
    1827                            .dwattr $C$DW$162, DW_AT_high_pc($C$DW$L$VLIB_convertUYVYsemipl_to_YUVpl_d$18$E)
    1828                    $C$DW$163       .dwtag  DW_TAG_TI_loop_range
    1829                            .dwattr $C$DW$163, DW_AT_low_pc($C$DW$L$VLIB_convertUYVYsemipl_to_YUVpl_d$19$B)
    1830                            .dwattr $C$DW$163, DW_AT_high_pc($C$DW$L$VLIB_convertUYVYsemipl_to_YUVpl_d$19$E)
    1831                    $C$DW$164       .dwtag  DW_TAG_TI_loop_range
    1832                            .dwattr $C$DW$164, DW_AT_low_pc($C$DW$L$VLIB_convertUYVYsemipl_to_YUVpl_d$20$B)
    1833                            .dwattr $C$DW$164, DW_AT_high_pc($C$DW$L$VLIB_convertUYVYsemipl_to_YUVpl_d$20$E)
    1834                    $C$DW$165       .dwtag  DW_TAG_TI_loop_range
    1835                            .dwattr $C$DW$165, DW_AT_low_pc($C$DW$L$VLIB_convertUYVYsemipl_to_YUVpl_d$6$B)
    1836                            .dwattr $C$DW$165, DW_AT_high_pc($C$DW$L$VLIB_convertUYVYsemipl_to_YUVpl_d$6$E)
    1837                    $C$DW$166       .dwtag  DW_TAG_TI_loop_range
    1838                            .dwattr $C$DW$166, DW_AT_low_pc($C$DW$L$VLIB_convertUYVYsemipl_to_YUVpl_d$7$B)
    1839                            .dwattr $C$DW$166, DW_AT_high_pc($C$DW$L$VLIB_convertUYVYsemipl_to_YUVpl_d$7$E)
    1840                    $C$DW$167       .dwtag  DW_TAG_TI_loop_range
    1841                            .dwattr $C$DW$167, DW_AT_low_pc($C$DW$L$VLIB_convertUYVYsemipl_to_YUVpl_d$8$B)
    1842                            .dwattr $C$DW$167, DW_AT_high_pc($C$DW$L$VLIB_convertUYVYsemipl_to_YUVpl_d$8$E)
    1843                    $C$DW$168       .dwtag  DW_TAG_TI_loop_range
    1844                            .dwattr $C$DW$168, DW_AT_low_pc($C$DW$L$VLIB_convertUYVYsemipl_to_YUVpl_d$9$B)
    1845                            .dwattr $C$DW$168, DW_AT_high_pc($C$DW$L$VLIB_convertUYVYsemipl_to_YUVpl_d$9$E)
    1846                    $C$DW$169       .dwtag  DW_TAG_TI_loop_range
    1847                            .dwattr $C$DW$169, DW_AT_low_pc($C$DW$L$VLIB_convertUYVYsemipl_to_YUVpl_d$10$B)
    1848                            .dwattr $C$DW$169, DW_AT_high_pc($C$DW$L$VLIB_convertUYVYsemipl_to_YUVpl_d$10$E)
    1849                    $C$DW$170       .dwtag  DW_TAG_TI_loop_range
    1850                            .dwattr $C$DW$170, DW_AT_low_pc($C$DW$L$VLIB_convertUYVYsemipl_to_YUVpl_d$11$B)
    1851                            .dwattr $C$DW$170, DW_AT_high_pc($C$DW$L$VLIB_convertUYVYsemipl_to_YUVpl_d$11$E)
    1852                    $C$DW$171       .dwtag  DW_TAG_TI_loop_range
    1853                            .dwattr $C$DW$171, DW_AT_low_pc($C$DW$L$VLIB_convertUYVYsemipl_to_YUVpl_d$12$B)
    1854                            .dwattr $C$DW$171, DW_AT_high_pc($C$DW$L$VLIB_convertUYVYsemipl_to_YUVpl_d$12$E)
    1855                    $C$DW$172       .dwtag  DW_TAG_TI_loop_range
    1856                            .dwattr $C$DW$172, DW_AT_low_pc($C$DW$L$VLIB_convertUYVYsemipl_to_YUVpl_d$13$B)
    1857                            .dwattr $C$DW$172, DW_AT_high_pc($C$DW$L$VLIB_convertUYVYsemipl_to_YUVpl_d$13$E)
    1858                    $C$DW$173       .dwtag  DW_TAG_TI_loop_range
    1859                            .dwattr $C$DW$173, DW_AT_low_pc($C$DW$L$VLIB_convertUYVYsemipl_to_YUVpl_d$14$B)
    1860                            .dwattr $C$DW$173, DW_AT_high_pc($C$DW$L$VLIB_convertUYVYsemipl_to_YUVpl_d$14$E)
    1861                    $C$DW$174       .dwtag  DW_TAG_TI_loop_range
    1862                            .dwattr $C$DW$174, DW_AT_low_pc($C$DW$L$VLIB_convertUYVYsemipl_to_YUVpl_d$15$B)
    1863                            .dwattr $C$DW$174, DW_AT_high_pc($C$DW$L$VLIB_convertUYVYsemipl_to_YUVpl_d$15$E)
    1864                    $C$DW$175       .dwtag  DW_TAG_TI_loop_range
    1865                            .dwattr $C$DW$175, DW_AT_low_pc($C$DW$L$VLIB_convertUYVYsemipl_to_YUVpl_d$21$B)
    1866                            .dwattr $C$DW$175, DW_AT_high_pc($C$DW$L$VLIB_convertUYVYsemipl_to_YUVpl_d$21$E)
    1867                    $C$DW$176       .dwtag  DW_TAG_TI_loop_range
    1868                            .dwattr $C$DW$176, DW_AT_low_pc($C$DW$L$VLIB_convertUYVYsemipl_to_YUVpl_d$22$B)
    1869                            .dwattr $C$DW$176, DW_AT_high_pc($C$DW$L$VLIB_convertUYVYsemipl_to_YUVpl_d$22$E)
    1870                    $C$DW$177       .dwtag  DW_TAG_TI_loop_range
TMS320C6x Assembler PC v7.4.2 Thu Mar 19 12:40:35 2015

Tools Copyright (c) 1996-2012 Texas Instruments Incorporated
package/lib/Regression/regress_d_c/./../packages/ti/vlib/src/VLIB_convertUYVYsemipl_to_YUVpl/VLIB_convertUYVYsemipl_to_YUVpl_d.se66 PAGE   35

    1871                            .dwattr $C$DW$177, DW_AT_low_pc($C$DW$L$VLIB_convertUYVYsemipl_to_YUVpl_d$23$B)
    1872                            .dwattr $C$DW$177, DW_AT_high_pc($C$DW$L$VLIB_convertUYVYsemipl_to_YUVpl_d$23$E)
    1873                    $C$DW$178       .dwtag  DW_TAG_TI_loop_range
    1874                            .dwattr $C$DW$178, DW_AT_low_pc($C$DW$L$VLIB_convertUYVYsemipl_to_YUVpl_d$24$B)
    1875                            .dwattr $C$DW$178, DW_AT_high_pc($C$DW$L$VLIB_convertUYVYsemipl_to_YUVpl_d$24$E)
    1876                    $C$DW$179       .dwtag  DW_TAG_TI_loop_range
    1877                            .dwattr $C$DW$179, DW_AT_low_pc($C$DW$L$VLIB_convertUYVYsemipl_to_YUVpl_d$26$B)
    1878                            .dwattr $C$DW$179, DW_AT_high_pc($C$DW$L$VLIB_convertUYVYsemipl_to_YUVpl_d$26$E)
    1879                    $C$DW$180       .dwtag  DW_TAG_TI_loop_range
    1880                            .dwattr $C$DW$180, DW_AT_low_pc($C$DW$L$VLIB_convertUYVYsemipl_to_YUVpl_d$27$B)
    1881                            .dwattr $C$DW$180, DW_AT_high_pc($C$DW$L$VLIB_convertUYVYsemipl_to_YUVpl_d$27$E)
    1882                    $C$DW$181       .dwtag  DW_TAG_TI_loop_range
    1883                            .dwattr $C$DW$181, DW_AT_low_pc($C$DW$L$VLIB_convertUYVYsemipl_to_YUVpl_d$28$B)
    1884                            .dwattr $C$DW$181, DW_AT_high_pc($C$DW$L$VLIB_convertUYVYsemipl_to_YUVpl_d$28$E)
    1885                    $C$DW$182       .dwtag  DW_TAG_TI_loop_range
    1886                            .dwattr $C$DW$182, DW_AT_low_pc($C$DW$L$VLIB_convertUYVYsemipl_to_YUVpl_d$29$B)
    1887                            .dwattr $C$DW$182, DW_AT_high_pc($C$DW$L$VLIB_convertUYVYsemipl_to_YUVpl_d$29$E)
    1888                            .dwendtag $C$DW$157
    1889                    
    1890                            .dwattr $C$DW$87, DW_AT_TI_end_file("./../packages/ti/vlib/src/VLIB_convertUYVYsemipl_to_YUVpl
    1891                            .dwattr $C$DW$87, DW_AT_TI_end_line(0x97)
    1892                            .dwattr $C$DW$87, DW_AT_TI_end_column(0x01)
    1893                            .dwendentry
    1894                            .dwendtag $C$DW$87
    1895                    
    1896                    ;; Inlined function references:
    1897                    ;; [ 15] VLIB_profile_start
    1898                    ;; [ 16] VLIB_profile_stop
    1899                    ;; [ 19] VLIB_kernel_memory
    1900                    ;******************************************************************************
    1901                    ;* STRINGS                                                                    *
    1902                    ;******************************************************************************
    1903 00000000                   .sect   ".const:.string"
    1904 00000000 00000056  $C$SL1: .string "VLIB_convertUYVYsemipl_to_YUVpl",0
         00000001 0000004C 
         00000002 00000049 
         00000003 00000042 
         00000004 0000005F 
         00000005 00000063 
         00000006 0000006F 
         00000007 0000006E 
         00000008 00000076 
         00000009 00000065 
         0000000a 00000072 
         0000000b 00000074 
         0000000c 00000055 
         0000000d 00000059 
         0000000e 00000056 
         0000000f 00000059 
         00000010 00000073 
         00000011 00000065 
         00000012 0000006D 
         00000013 00000069 
         00000014 00000070 
         00000015 0000006C 
TMS320C6x Assembler PC v7.4.2 Thu Mar 19 12:40:35 2015

Tools Copyright (c) 1996-2012 Texas Instruments Incorporated
package/lib/Regression/regress_d_c/./../packages/ti/vlib/src/VLIB_convertUYVYsemipl_to_YUVpl/VLIB_convertUYVYsemipl_to_YUVpl_d.se66 PAGE   36

         00000016 0000005F 
         00000017 00000074 
         00000018 0000006F 
         00000019 0000005F 
         0000001a 00000059 
         0000001b 00000055 
         0000001c 00000056 
         0000001d 00000070 
         0000001e 0000006C 
         0000001f 00000000 
    1905 00000020 00000025  $C$SL2: .string "%s generated input | Opt results compared to NatC results |"
         00000021 00000073 
         00000022 00000020 
         00000023 00000067 
         00000024 00000065 
         00000025 0000006E 
         00000026 00000065 
         00000027 00000072 
         00000028 00000061 
         00000029 00000074 
         0000002a 00000065 
         0000002b 00000064 
         0000002c 00000020 
         0000002d 00000069 
         0000002e 0000006E 
         0000002f 00000070 
         00000030 00000075 
         00000031 00000074 
         00000032 00000020 
         00000033 0000007C 
         00000034 00000020 
         00000035 0000004F 
         00000036 00000070 
         00000037 00000074 
         00000038 00000020 
         00000039 00000072 
         0000003a 00000065 
         0000003b 00000073 
         0000003c 00000075 
         0000003d 0000006C 
         0000003e 00000074 
         0000003f 00000073 
         00000040 00000020 
         00000041 00000063 
         00000042 0000006F 
         00000043 0000006D 
         00000044 00000070 
         00000045 00000061 
         00000046 00000072 
         00000047 00000065 
         00000048 00000064 
         00000049 00000020 
         0000004a 00000074 
         0000004b 0000006F 
         0000004c 00000020 
TMS320C6x Assembler PC v7.4.2 Thu Mar 19 12:40:35 2015

Tools Copyright (c) 1996-2012 Texas Instruments Incorporated
package/lib/Regression/regress_d_c/./../packages/ti/vlib/src/VLIB_convertUYVYsemipl_to_YUVpl/VLIB_convertUYVYsemipl_to_YUVpl_d.se66 PAGE   37

         0000004d 0000004E 
         0000004e 00000061 
         0000004f 00000074 
         00000050 00000043 
         00000051 00000020 
         00000052 00000072 
         00000053 00000065 
         00000054 00000073 
         00000055 00000075 
         00000056 0000006C 
         00000057 00000074 
         00000058 00000073 
         00000059 00000020 
         0000005a 0000007C 
    1906 0000005b 00000020          .string " width=%d, pitch=%d, height=%d, num_pts=%d",0
         0000005c 00000077 
         0000005d 00000069 
         0000005e 00000064 
         0000005f 00000074 
         00000060 00000068 
         00000061 0000003D 
         00000062 00000025 
         00000063 00000064 
         00000064 0000002C 
         00000065 00000020 
         00000066 00000070 
         00000067 00000069 
         00000068 00000074 
         00000069 00000063 
         0000006a 00000068 
         0000006b 0000003D 
         0000006c 00000025 
         0000006d 00000064 
         0000006e 0000002C 
         0000006f 00000020 
         00000070 00000068 
         00000071 00000065 
         00000072 00000069 
         00000073 00000067 
         00000074 00000068 
         00000075 00000074 
         00000076 0000003D 
         00000077 00000025 
         00000078 00000064 
         00000079 0000002C 
         0000007a 00000020 
         0000007b 0000006E 
         0000007c 00000075 
         0000007d 0000006D 
         0000007e 0000005F 
         0000007f 00000070 
         00000080 00000074 
         00000081 00000073 
         00000082 0000003D 
         00000083 00000025 
TMS320C6x Assembler PC v7.4.2 Thu Mar 19 12:40:35 2015

Tools Copyright (c) 1996-2012 Texas Instruments Incorporated
package/lib/Regression/regress_d_c/./../packages/ti/vlib/src/VLIB_convertUYVYsemipl_to_YUVpl/VLIB_convertUYVYsemipl_to_YUVpl_d.se66 PAGE   38

         00000084 00000064 
         00000085 00000000 
    1907 00000086 00000077  $C$SL3: .string "width=%d, pitch=%d, height=%d, num_pts=%d",0
         00000087 00000069 
         00000088 00000064 
         00000089 00000074 
         0000008a 00000068 
         0000008b 0000003D 
         0000008c 00000025 
         0000008d 00000064 
         0000008e 0000002C 
         0000008f 00000020 
         00000090 00000070 
         00000091 00000069 
         00000092 00000074 
         00000093 00000063 
         00000094 00000068 
         00000095 0000003D 
         00000096 00000025 
         00000097 00000064 
         00000098 0000002C 
         00000099 00000020 
         0000009a 00000068 
         0000009b 00000065 
         0000009c 00000069 
         0000009d 00000067 
         0000009e 00000068 
         0000009f 00000074 
         000000a0 0000003D 
         000000a1 00000025 
         000000a2 00000064 
         000000a3 0000002C 
         000000a4 00000020 
         000000a5 0000006E 
         000000a6 00000075 
         000000a7 0000006D 
         000000a8 0000005F 
         000000a9 00000070 
         000000aa 00000074 
         000000ab 00000073 
         000000ac 0000003D 
         000000ad 00000025 
         000000ae 00000064 
         000000af 00000000 
    1908 000000b0 00000070  $C$SL4: .string "pitch == width",0
         000000b1 00000069 
         000000b2 00000074 
         000000b3 00000063 
         000000b4 00000068 
         000000b5 00000020 
         000000b6 0000003D 
         000000b7 0000003D 
         000000b8 00000020 
         000000b9 00000077 
         000000ba 00000069 
TMS320C6x Assembler PC v7.4.2 Thu Mar 19 12:40:35 2015

Tools Copyright (c) 1996-2012 Texas Instruments Incorporated
package/lib/Regression/regress_d_c/./../packages/ti/vlib/src/VLIB_convertUYVYsemipl_to_YUVpl/VLIB_convertUYVYsemipl_to_YUVpl_d.se66 PAGE   39

         000000bb 00000064 
         000000bc 00000074 
         000000bd 00000068 
         000000be 00000000 
    1909 000000bf 00000077  $C$SL5: .string "width * height",0
         000000c0 00000069 
         000000c1 00000064 
         000000c2 00000074 
         000000c3 00000068 
         000000c4 00000020 
         000000c5 0000002A 
         000000c6 00000020 
         000000c7 00000068 
         000000c8 00000065 
         000000c9 00000069 
         000000ca 00000067 
         000000cb 00000068 
         000000cc 00000074 
         000000cd 00000000 
    1910 000000ce 0000004E  $C$SL6: .string "N = width * height",0
         000000cf 00000020 
         000000d0 0000003D 
         000000d1 00000020 
         000000d2 00000077 
         000000d3 00000069 
         000000d4 00000064 
         000000d5 00000074 
         000000d6 00000068 
         000000d7 00000020 
         000000d8 0000002A 
         000000d9 00000020 
         000000da 00000068 
         000000db 00000065 
         000000dc 00000069 
         000000dd 00000067 
         000000de 00000068 
         000000df 00000074 
         000000e0 00000000 
    1911 000000e1 00000070  $C$SL7: .string "pitch > width",0
         000000e2 00000069 
         000000e3 00000074 
         000000e4 00000063 
         000000e5 00000068 
         000000e6 00000020 
         000000e7 0000003E 
         000000e8 00000020 
         000000e9 00000077 
         000000ea 00000069 
         000000eb 00000064 
         000000ec 00000074 
         000000ed 00000068 
         000000ee 00000000 
    1912 000000ef 0000004E  $C$SL8: .string "N = width * height; M = height",0
         000000f0 00000020 
         000000f1 0000003D 
TMS320C6x Assembler PC v7.4.2 Thu Mar 19 12:40:35 2015

Tools Copyright (c) 1996-2012 Texas Instruments Incorporated
package/lib/Regression/regress_d_c/./../packages/ti/vlib/src/VLIB_convertUYVYsemipl_to_YUVpl/VLIB_convertUYVYsemipl_to_YUVpl_d.se66 PAGE   40

         000000f2 00000020 
         000000f3 00000077 
         000000f4 00000069 
         000000f5 00000064 
         000000f6 00000074 
         000000f7 00000068 
         000000f8 00000020 
         000000f9 0000002A 
         000000fa 00000020 
         000000fb 00000068 
         000000fc 00000065 
         000000fd 00000069 
         000000fe 00000067 
         000000ff 00000068 
         00000100 00000074 
         00000101 0000003B 
         00000102 00000020 
         00000103 0000004D 
         00000104 00000020 
         00000105 0000003D 
         00000106 00000020 
         00000107 00000068 
         00000108 00000065 
         00000109 00000069 
         0000010a 00000067 
         0000010b 00000068 
         0000010c 00000074 
         0000010d 00000000 
    1913 0000010e 0000002D  $C$SL9: .string "-----------------------------------------------------------"
         0000010f 0000002D 
         00000110 0000002D 
         00000111 0000002D 
         00000112 0000002D 
         00000113 0000002D 
         00000114 0000002D 
         00000115 0000002D 
         00000116 0000002D 
         00000117 0000002D 
         00000118 0000002D 
         00000119 0000002D 
         0000011a 0000002D 
         0000011b 0000002D 
         0000011c 0000002D 
         0000011d 0000002D 
         0000011e 0000002D 
         0000011f 0000002D 
         00000120 0000002D 
         00000121 0000002D 
         00000122 0000002D 
         00000123 0000002D 
         00000124 0000002D 
         00000125 0000002D 
         00000126 0000002D 
         00000127 0000002D 
         00000128 0000002D 
TMS320C6x Assembler PC v7.4.2 Thu Mar 19 12:40:35 2015

Tools Copyright (c) 1996-2012 Texas Instruments Incorporated
package/lib/Regression/regress_d_c/./../packages/ti/vlib/src/VLIB_convertUYVYsemipl_to_YUVpl/VLIB_convertUYVYsemipl_to_YUVpl_d.se66 PAGE   41

         00000129 0000002D 
         0000012a 0000002D 
         0000012b 0000002D 
         0000012c 0000002D 
         0000012d 0000002D 
         0000012e 0000002D 
         0000012f 0000002D 
         00000130 0000002D 
         00000131 0000002D 
         00000132 0000002D 
         00000133 0000002D 
         00000134 0000002D 
         00000135 0000002D 
         00000136 0000002D 
         00000137 0000002D 
         00000138 0000002D 
         00000139 0000002D 
         0000013a 0000002D 
         0000013b 0000002D 
         0000013c 0000002D 
         0000013d 0000002D 
         0000013e 0000002D 
         0000013f 0000002D 
         00000140 0000002D 
         00000141 0000002D 
         00000142 0000002D 
         00000143 0000002D 
         00000144 0000002D 
         00000145 0000002D 
         00000146 0000002D 
         00000147 0000002D 
         00000148 0000002D 
    1914 00000149 0000002D          .string "-----------------------------------------------------------"
         0000014a 0000002D 
         0000014b 0000002D 
         0000014c 0000002D 
         0000014d 0000002D 
         0000014e 0000002D 
         0000014f 0000002D 
         00000150 0000002D 
         00000151 0000002D 
         00000152 0000002D 
         00000153 0000002D 
         00000154 0000002D 
         00000155 0000002D 
         00000156 0000002D 
         00000157 0000002D 
         00000158 0000002D 
         00000159 0000002D 
         0000015a 0000002D 
         0000015b 0000002D 
         0000015c 0000002D 
         0000015d 0000002D 
         0000015e 0000002D 
         0000015f 0000002D 
TMS320C6x Assembler PC v7.4.2 Thu Mar 19 12:40:35 2015

Tools Copyright (c) 1996-2012 Texas Instruments Incorporated
package/lib/Regression/regress_d_c/./../packages/ti/vlib/src/VLIB_convertUYVYsemipl_to_YUVpl/VLIB_convertUYVYsemipl_to_YUVpl_d.se66 PAGE   42

         00000160 0000002D 
         00000161 0000002D 
         00000162 0000002D 
         00000163 0000002D 
         00000164 0000002D 
         00000165 0000002D 
         00000166 0000002D 
         00000167 0000002D 
         00000168 0000002D 
         00000169 0000002D 
         0000016a 0000002D 
         0000016b 0000002D 
         0000016c 0000002D 
         0000016d 0000002D 
         0000016e 0000002D 
         0000016f 0000002D 
         00000170 0000002D 
         00000171 0000002D 
         00000172 0000002D 
         00000173 0000002D 
         00000174 0000002D 
         00000175 0000002D 
         00000176 0000002D 
         00000177 0000002D 
         00000178 0000002D 
         00000179 0000002D 
         0000017a 0000002D 
         0000017b 0000002D 
         0000017c 0000002D 
         0000017d 0000002D 
         0000017e 0000002D 
         0000017f 0000002D 
         00000180 0000002D 
         00000181 0000002D 
         00000182 0000002D 
         00000183 0000002D 
    1915 00000184 0000002D          .string "-----------------------",10,0
         00000185 0000002D 
         00000186 0000002D 
         00000187 0000002D 
         00000188 0000002D 
         00000189 0000002D 
         0000018a 0000002D 
         0000018b 0000002D 
         0000018c 0000002D 
         0000018d 0000002D 
         0000018e 0000002D 
         0000018f 0000002D 
         00000190 0000002D 
         00000191 0000002D 
         00000192 0000002D 
         00000193 0000002D 
         00000194 0000002D 
         00000195 0000002D 
         00000196 0000002D 
TMS320C6x Assembler PC v7.4.2 Thu Mar 19 12:40:35 2015

Tools Copyright (c) 1996-2012 Texas Instruments Incorporated
package/lib/Regression/regress_d_c/./../packages/ti/vlib/src/VLIB_convertUYVYsemipl_to_YUVpl/VLIB_convertUYVYsemipl_to_YUVpl_d.se66 PAGE   43

         00000197 0000002D 
         00000198 0000002D 
         00000199 0000002D 
         0000019a 0000002D 
         0000019b 0000000A 
         0000019c 00000000 
    1916                    ;*****************************************************************************
    1917                    ;* UNDEFINED EXTERNAL REFERENCES                                             *
    1918                    ;*****************************************************************************
    1919                            .global printf
    1920                            .global sprintf
    1921                            .global malloc
    1922                            .global free
    1923                            .global VLIB_cache_inval
    1924                            .global VLIB_profile_init
    1925                            .global VLIB_profile_setMode
    1926                            .global VLIB_formula_add_test
    1927                            .global VLIB_skip_test
    1928                            .global VLIB_profile_cycle_report
    1929                            .global initStack
    1930                            .global setStackDepth
    1931                            .global getSP
    1932                            .global VLIB_stack_memory
    1933                            .global VLIB_compare_mem
    1934                            .global VLIB_fillBuffer
    1935                            .global VLIB_memalign
    1936                            .global VLIB_align_free
    1937                            .global VLIB_convertUYVYsemipl_to_YUVpl
    1938                            .global VLIB_convertUYVYsemipl_to_YUVpl_cn
    1939                            .global UYVYsemipl_to_YUVpl_getTestParams
    1940                            .global test_cases
    1941                            .global act_kernel
    1942                            .global desc
    1943                            .global testPatternString
    1944                            .global est_test
    1945                            .global beg_count
    1946                            .global end_count
    1947                            .global overhead
    1948                            .global cycles
    1949                    
    1950                    ;******************************************************************************
    1951                    ;* BUILD ATTRIBUTES                                                           *
    1952                    ;******************************************************************************
    1953                            .battr "TI", Tag_File, 1, Tag_Long_Precision_Bits(2)
    1954                            .battr "TI", Tag_File, 1, Tag_Bitfield_layout(2)
    1955                            .battr "TI", Tag_File, 1, Tag_ABI_enum_size(2)
    1956                            .battr "c6xabi", Tag_File, 1, Tag_ABI_wchar_t(1)
    1957                            .battr "c6xabi", Tag_File, 1, Tag_ABI_array_object_alignment(0)
    1958                            .battr "c6xabi", Tag_File, 1, Tag_ABI_array_object_align_expected(0)
    1959                            .battr "c6xabi", Tag_File, 1, Tag_ABI_PIC(0)
    1960                            .battr "c6xabi", Tag_File, 1, Tag_ABI_PID(0)
    1961                            .battr "c6xabi", Tag_File, 1, Tag_ABI_DSBT(0)
    1962                            .battr "c6xabi", Tag_File, 1, Tag_ABI_stack_align_needed(0)
    1963                            .battr "c6xabi", Tag_File, 1, Tag_ABI_stack_align_preserved(0)
    1964                            .battr "TI", Tag_File, 1, Tag_Tramps_Use_SOC(1)
TMS320C6x Assembler PC v7.4.2 Thu Mar 19 12:40:35 2015

Tools Copyright (c) 1996-2012 Texas Instruments Incorporated
package/lib/Regression/regress_d_c/./../packages/ti/vlib/src/VLIB_convertUYVYsemipl_to_YUVpl/VLIB_convertUYVYsemipl_to_YUVpl_d.se66 PAGE   44

    1965                    
    1966                    ;******************************************************************************
    1967                    ;* TYPE INFORMATION                                                           *
    1968                    ;******************************************************************************
    1969                    
    1970                    $C$DW$T$36      .dwtag  DW_TAG_enumeration_type
    1971                            .dwattr $C$DW$T$36, DW_AT_byte_size(0x04)
    1972                    $C$DW$183       .dwtag  DW_TAG_enumerator, DW_AT_name("VLIB_NO_ERROR"), DW_AT_const_value(0x00)
    1973                            .dwattr $C$DW$183, DW_AT_decl_file(".\..\packages\ti\vlib\src\VLIB_convertUYVYsemipl_to_YUVpl\
    1974                            .dwattr $C$DW$183, DW_AT_decl_line(0x7a)
    1975                            .dwattr $C$DW$183, DW_AT_decl_column(0x05)
    1976                    $C$DW$184       .dwtag  DW_TAG_enumerator, DW_AT_name("VLIB_ERR_INPUT_INVALID"), DW_AT_const_value(0x0
    1977                            .dwattr $C$DW$184, DW_AT_decl_file(".\..\packages\ti\vlib\src\VLIB_convertUYVYsemipl_to_YUVpl\
    1978                            .dwattr $C$DW$184, DW_AT_decl_line(0x7b)
    1979                            .dwattr $C$DW$184, DW_AT_decl_column(0x05)
    1980                    $C$DW$185       .dwtag  DW_TAG_enumerator, DW_AT_name("VLIB_ERR_INPUT_NEGATIVE"), DW_AT_const_value(0x
    1981                            .dwattr $C$DW$185, DW_AT_decl_file(".\..\packages\ti\vlib\src\VLIB_convertUYVYsemipl_to_YUVpl\
    1982                            .dwattr $C$DW$185, DW_AT_decl_line(0x7c)
    1983                            .dwattr $C$DW$185, DW_AT_decl_column(0x05)
    1984                    $C$DW$186       .dwtag  DW_TAG_enumerator, DW_AT_name("VLIB_ERR_INPUT_EXCEEDED_RANGE"), DW_AT_const_va
    1985                            .dwattr $C$DW$186, DW_AT_decl_file(".\..\packages\ti\vlib\src\VLIB_convertUYVYsemipl_to_YUVpl\
    1986                            .dwattr $C$DW$186, DW_AT_decl_line(0x7d)
    1987                            .dwattr $C$DW$186, DW_AT_decl_column(0x05)
    1988                    $C$DW$187       .dwtag  DW_TAG_enumerator, DW_AT_name("VLIB_ERR_MEMORY_EXCEEDED_BOUNDARY"), DW_AT_cons
    1989                            .dwattr $C$DW$187, DW_AT_decl_file(".\..\packages\ti\vlib\src\VLIB_convertUYVYsemipl_to_YUVpl\
    1990                            .dwattr $C$DW$187, DW_AT_decl_line(0x7e)
    1991                            .dwattr $C$DW$187, DW_AT_decl_column(0x05)
    1992                    $C$DW$188       .dwtag  DW_TAG_enumerator, DW_AT_name("VLIB_ERR_MEMORY_ALLOCATION_FAILURE"), DW_AT_con
    1993                            .dwattr $C$DW$188, DW_AT_decl_file(".\..\packages\ti\vlib\src\VLIB_convertUYVYsemipl_to_YUVpl\
    1994                            .dwattr $C$DW$188, DW_AT_decl_line(0x7f)
    1995                            .dwattr $C$DW$188, DW_AT_decl_column(0x05)
    1996                    $C$DW$189       .dwtag  DW_TAG_enumerator, DW_AT_name("VLIB_ERR_MEMORY_POINTER_NULL"), DW_AT_const_val
    1997                            .dwattr $C$DW$189, DW_AT_decl_file(".\..\packages\ti\vlib\src\VLIB_convertUYVYsemipl_to_YUVpl\
    1998                            .dwattr $C$DW$189, DW_AT_decl_line(0x80)
    1999                            .dwattr $C$DW$189, DW_AT_decl_column(0x05)
    2000                    $C$DW$190       .dwtag  DW_TAG_enumerator, DW_AT_name("VLIB_ERR_DMA_FAILURE"), DW_AT_const_value(0x07)
    2001                            .dwattr $C$DW$190, DW_AT_decl_file(".\..\packages\ti\vlib\src\VLIB_convertUYVYsemipl_to_YUVpl\
    2002                            .dwattr $C$DW$190, DW_AT_decl_line(0x81)
    2003                            .dwattr $C$DW$190, DW_AT_decl_column(0x05)
    2004                    $C$DW$191       .dwtag  DW_TAG_enumerator, DW_AT_name("VLIB_ERR_FILE_OPEN_FAILURE"), DW_AT_const_value
    2005                            .dwattr $C$DW$191, DW_AT_decl_file(".\..\packages\ti\vlib\src\VLIB_convertUYVYsemipl_to_YUVpl\
    2006                            .dwattr $C$DW$191, DW_AT_decl_line(0x82)
    2007                            .dwattr $C$DW$191, DW_AT_decl_column(0x05)
    2008                    $C$DW$192       .dwtag  DW_TAG_enumerator, DW_AT_name("VLIB_ERR_FILE_READ_FAILURE"), DW_AT_const_value
    2009                            .dwattr $C$DW$192, DW_AT_decl_file(".\..\packages\ti\vlib\src\VLIB_convertUYVYsemipl_to_YUVpl\
    2010                            .dwattr $C$DW$192, DW_AT_decl_line(0x83)
    2011                            .dwattr $C$DW$192, DW_AT_decl_column(0x05)
    2012                    $C$DW$193       .dwtag  DW_TAG_enumerator, DW_AT_name("VLIB_ERR_FILE_WRITE_FAILURE"), DW_AT_const_valu
    2013                            .dwattr $C$DW$193, DW_AT_decl_file(".\..\packages\ti\vlib\src\VLIB_convertUYVYsemipl_to_YUVpl\
    2014                            .dwattr $C$DW$193, DW_AT_decl_line(0x84)
    2015                            .dwattr $C$DW$193, DW_AT_decl_column(0x05)
    2016                    $C$DW$194       .dwtag  DW_TAG_enumerator, DW_AT_name("VLIB_ERR_FILE_CLOSE_FAILURE"), DW_AT_const_valu
    2017                            .dwattr $C$DW$194, DW_AT_decl_file(".\..\packages\ti\vlib\src\VLIB_convertUYVYsemipl_to_YUVpl\
    2018                            .dwattr $C$DW$194, DW_AT_decl_line(0x85)
    2019                            .dwattr $C$DW$194, DW_AT_decl_column(0x05)
TMS320C6x Assembler PC v7.4.2 Thu Mar 19 12:40:35 2015

Tools Copyright (c) 1996-2012 Texas Instruments Incorporated
package/lib/Regression/regress_d_c/./../packages/ti/vlib/src/VLIB_convertUYVYsemipl_to_YUVpl/VLIB_convertUYVYsemipl_to_YUVpl_d.se66 PAGE   45

    2020                    $C$DW$195       .dwtag  DW_TAG_enumerator, DW_AT_name("VLIB_ERR_FILE_FORMAT_FAILURE"), DW_AT_const_val
    2021                            .dwattr $C$DW$195, DW_AT_decl_file(".\..\packages\ti\vlib\src\VLIB_convertUYVYsemipl_to_YUVpl\
    2022                            .dwattr $C$DW$195, DW_AT_decl_line(0x86)
    2023                            .dwattr $C$DW$195, DW_AT_decl_column(0x05)
    2024                    $C$DW$196       .dwtag  DW_TAG_enumerator, DW_AT_name("VLIB_WARNING_LOW_MEMORY"), DW_AT_const_value(0x
    2025                            .dwattr $C$DW$196, DW_AT_decl_file(".\..\packages\ti\vlib\src\VLIB_convertUYVYsemipl_to_YUVpl\
    2026                            .dwattr $C$DW$196, DW_AT_decl_line(0x87)
    2027                            .dwattr $C$DW$196, DW_AT_decl_column(0x05)
    2028                    $C$DW$197       .dwtag  DW_TAG_enumerator, DW_AT_name("VLIB_ERR_NOT_IMPLEMENTED"), DW_AT_const_value(0
    2029                            .dwattr $C$DW$197, DW_AT_decl_file(".\..\packages\ti\vlib\src\VLIB_convertUYVYsemipl_to_YUVpl\
    2030                            .dwattr $C$DW$197, DW_AT_decl_line(0x88)
    2031                            .dwattr $C$DW$197, DW_AT_decl_column(0x05)
    2032                    $C$DW$198       .dwtag  DW_TAG_enumerator, DW_AT_name("VLIB_ERROR_MAX"), DW_AT_const_value(0x0f)
    2033                            .dwattr $C$DW$198, DW_AT_decl_file(".\..\packages\ti\vlib\src\VLIB_convertUYVYsemipl_to_YUVpl\
    2034                            .dwattr $C$DW$198, DW_AT_decl_line(0x89)
    2035                            .dwattr $C$DW$198, DW_AT_decl_column(0x05)
    2036                            .dwendtag $C$DW$T$36
    2037                    
    2038                            .dwattr $C$DW$T$36, DW_AT_decl_file(".\..\packages\ti\vlib\src\VLIB_convertUYVYsemipl_to_YUVpl
    2039                            .dwattr $C$DW$T$36, DW_AT_decl_line(0x79)
    2040                            .dwattr $C$DW$T$36, DW_AT_decl_column(0x0e)
    2041                    $C$DW$T$37      .dwtag  DW_TAG_typedef, DW_AT_name("VLIB_STATUS")
    2042                            .dwattr $C$DW$T$37, DW_AT_type(*$C$DW$T$36)
    2043                            .dwattr $C$DW$T$37, DW_AT_language(DW_LANG_C)
    2044                            .dwattr $C$DW$T$37, DW_AT_decl_file(".\..\packages\ti\vlib\src\VLIB_convertUYVYsemipl_to_YUVpl
    2045                            .dwattr $C$DW$T$37, DW_AT_decl_line(0x8a)
    2046                            .dwattr $C$DW$T$37, DW_AT_decl_column(0x03)
    2047                    
    2048                    $C$DW$T$38      .dwtag  DW_TAG_enumeration_type
    2049                            .dwattr $C$DW$T$38, DW_AT_byte_size(0x04)
    2050                    $C$DW$199       .dwtag  DW_TAG_enumerator, DW_AT_name("vlib_KERNEL_OPT"), DW_AT_const_value(0x00)
    2051                            .dwattr $C$DW$199, DW_AT_decl_file(".\..\packages\ti\vlib\src\VLIB_convertUYVYsemipl_to_YUVpl\
    2052                            .dwattr $C$DW$199, DW_AT_decl_line(0x6a)
    2053                            .dwattr $C$DW$199, DW_AT_decl_column(0x05)
    2054                    $C$DW$200       .dwtag  DW_TAG_enumerator, DW_AT_name("vlib_KERNEL_CN"), DW_AT_const_value(0x01)
    2055                            .dwattr $C$DW$200, DW_AT_decl_file(".\..\packages\ti\vlib\src\VLIB_convertUYVYsemipl_to_YUVpl\
    2056                            .dwattr $C$DW$200, DW_AT_decl_line(0x6b)
    2057                            .dwattr $C$DW$200, DW_AT_decl_column(0x05)
    2058                    $C$DW$201       .dwtag  DW_TAG_enumerator, DW_AT_name("vlib_KERNEL_CNT"), DW_AT_const_value(0x02)
    2059                            .dwattr $C$DW$201, DW_AT_decl_file(".\..\packages\ti\vlib\src\VLIB_convertUYVYsemipl_to_YUVpl\
    2060                            .dwattr $C$DW$201, DW_AT_decl_line(0x6c)
    2061                            .dwattr $C$DW$201, DW_AT_decl_column(0x05)
    2062                            .dwendtag $C$DW$T$38
    2063                    
    2064                            .dwattr $C$DW$T$38, DW_AT_decl_file(".\..\packages\ti\vlib\src\VLIB_convertUYVYsemipl_to_YUVpl
    2065                            .dwattr $C$DW$T$38, DW_AT_decl_line(0x69)
    2066                            .dwattr $C$DW$T$38, DW_AT_decl_column(0x06)
    2067                    
    2068                    $C$DW$T$39      .dwtag  DW_TAG_enumeration_type
    2069                            .dwattr $C$DW$T$39, DW_AT_byte_size(0x04)
    2070                    $C$DW$202       .dwtag  DW_TAG_enumerator, DW_AT_name("vlib_KERNEL_FAIL"), DW_AT_const_value(0x00)
    2071                            .dwattr $C$DW$202, DW_AT_decl_file(".\..\packages\ti\vlib\src\VLIB_convertUYVYsemipl_to_YUVpl\
    2072                            .dwattr $C$DW$202, DW_AT_decl_line(0x72)
    2073                            .dwattr $C$DW$202, DW_AT_decl_column(0x05)
    2074                    $C$DW$203       .dwtag  DW_TAG_enumerator, DW_AT_name("vlib_KERNEL_PASS"), DW_AT_const_value(0x01)
TMS320C6x Assembler PC v7.4.2 Thu Mar 19 12:40:35 2015

Tools Copyright (c) 1996-2012 Texas Instruments Incorporated
package/lib/Regression/regress_d_c/./../packages/ti/vlib/src/VLIB_convertUYVYsemipl_to_YUVpl/VLIB_convertUYVYsemipl_to_YUVpl_d.se66 PAGE   46

    2075                            .dwattr $C$DW$203, DW_AT_decl_file(".\..\packages\ti\vlib\src\VLIB_convertUYVYsemipl_to_YUVpl\
    2076                            .dwattr $C$DW$203, DW_AT_decl_line(0x73)
    2077                            .dwattr $C$DW$203, DW_AT_decl_column(0x05)
    2078                            .dwendtag $C$DW$T$39
    2079                    
    2080                            .dwattr $C$DW$T$39, DW_AT_decl_file(".\..\packages\ti\vlib\src\VLIB_convertUYVYsemipl_to_YUVpl
    2081                            .dwattr $C$DW$T$39, DW_AT_decl_line(0x71)
    2082                            .dwattr $C$DW$T$39, DW_AT_decl_column(0x06)
    2083                    
    2084                    $C$DW$T$23      .dwtag  DW_TAG_structure_type
    2085                            .dwattr $C$DW$T$23, DW_AT_byte_size(0x1c)
    2086                    $C$DW$204       .dwtag  DW_TAG_member
    2087                            .dwattr $C$DW$204, DW_AT_type(*$C$DW$T$19)
    2088                            .dwattr $C$DW$204, DW_AT_name("testPattern")
    2089                            .dwattr $C$DW$204, DW_AT_TI_symbol_name("testPattern")
    2090                            .dwattr $C$DW$204, DW_AT_data_member_location[DW_OP_plus_uconst 0x0]
    2091                            .dwattr $C$DW$204, DW_AT_accessibility(DW_ACCESS_public)
    2092                            .dwattr $C$DW$204, DW_AT_decl_file(".\..\packages\ti\vlib\src\VLIB_convertUYVYsemipl_to_YUVpl\
    2093                            .dwattr $C$DW$204, DW_AT_decl_line(0x24)
    2094                            .dwattr $C$DW$204, DW_AT_decl_column(0x0e)
    2095                    $C$DW$205       .dwtag  DW_TAG_member
    2096                            .dwattr $C$DW$205, DW_AT_type(*$C$DW$T$20)
    2097                            .dwattr $C$DW$205, DW_AT_name("staticIn")
    2098                            .dwattr $C$DW$205, DW_AT_TI_symbol_name("staticIn")
    2099                            .dwattr $C$DW$205, DW_AT_data_member_location[DW_OP_plus_uconst 0x4]
    2100                            .dwattr $C$DW$205, DW_AT_accessibility(DW_ACCESS_public)
    2101                            .dwattr $C$DW$205, DW_AT_decl_file(".\..\packages\ti\vlib\src\VLIB_convertUYVYsemipl_to_YUVpl\
    2102                            .dwattr $C$DW$205, DW_AT_decl_line(0x25)
    2103                            .dwattr $C$DW$205, DW_AT_decl_column(0x0e)
    2104                    $C$DW$206       .dwtag  DW_TAG_member
    2105                            .dwattr $C$DW$206, DW_AT_type(*$C$DW$T$20)
    2106                            .dwattr $C$DW$206, DW_AT_name("staticOutCr")
    2107                            .dwattr $C$DW$206, DW_AT_TI_symbol_name("staticOutCr")
    2108                            .dwattr $C$DW$206, DW_AT_data_member_location[DW_OP_plus_uconst 0x8]
    2109                            .dwattr $C$DW$206, DW_AT_accessibility(DW_ACCESS_public)
    2110                            .dwattr $C$DW$206, DW_AT_decl_file(".\..\packages\ti\vlib\src\VLIB_convertUYVYsemipl_to_YUVpl\
    2111                            .dwattr $C$DW$206, DW_AT_decl_line(0x26)
    2112                            .dwattr $C$DW$206, DW_AT_decl_column(0x0e)
    2113                    $C$DW$207       .dwtag  DW_TAG_member
    2114                            .dwattr $C$DW$207, DW_AT_type(*$C$DW$T$20)
    2115                            .dwattr $C$DW$207, DW_AT_name("staticOutCb")
    2116                            .dwattr $C$DW$207, DW_AT_TI_symbol_name("staticOutCb")
    2117                            .dwattr $C$DW$207, DW_AT_data_member_location[DW_OP_plus_uconst 0xc]
    2118                            .dwattr $C$DW$207, DW_AT_accessibility(DW_ACCESS_public)
    2119                            .dwattr $C$DW$207, DW_AT_decl_file(".\..\packages\ti\vlib\src\VLIB_convertUYVYsemipl_to_YUVpl\
    2120                            .dwattr $C$DW$207, DW_AT_decl_line(0x27)
    2121                            .dwattr $C$DW$207, DW_AT_decl_column(0x0e)
    2122                    $C$DW$208       .dwtag  DW_TAG_member
    2123                            .dwattr $C$DW$208, DW_AT_type(*$C$DW$T$21)
    2124                            .dwattr $C$DW$208, DW_AT_name("width")
    2125                            .dwattr $C$DW$208, DW_AT_TI_symbol_name("width")
    2126                            .dwattr $C$DW$208, DW_AT_data_member_location[DW_OP_plus_uconst 0x10]
    2127                            .dwattr $C$DW$208, DW_AT_accessibility(DW_ACCESS_public)
    2128                            .dwattr $C$DW$208, DW_AT_decl_file(".\..\packages\ti\vlib\src\VLIB_convertUYVYsemipl_to_YUVpl\
    2129                            .dwattr $C$DW$208, DW_AT_decl_line(0x28)
TMS320C6x Assembler PC v7.4.2 Thu Mar 19 12:40:35 2015

Tools Copyright (c) 1996-2012 Texas Instruments Incorporated
package/lib/Regression/regress_d_c/./../packages/ti/vlib/src/VLIB_convertUYVYsemipl_to_YUVpl/VLIB_convertUYVYsemipl_to_YUVpl_d.se66 PAGE   47

    2130                            .dwattr $C$DW$208, DW_AT_decl_column(0x0e)
    2131                    $C$DW$209       .dwtag  DW_TAG_member
    2132                            .dwattr $C$DW$209, DW_AT_type(*$C$DW$T$22)
    2133                            .dwattr $C$DW$209, DW_AT_name("pitch")
    2134                            .dwattr $C$DW$209, DW_AT_TI_symbol_name("pitch")
    2135                            .dwattr $C$DW$209, DW_AT_data_member_location[DW_OP_plus_uconst 0x14]
    2136                            .dwattr $C$DW$209, DW_AT_accessibility(DW_ACCESS_public)
    2137                            .dwattr $C$DW$209, DW_AT_decl_file(".\..\packages\ti\vlib\src\VLIB_convertUYVYsemipl_to_YUVpl\
    2138                            .dwattr $C$DW$209, DW_AT_decl_line(0x29)
    2139                            .dwattr $C$DW$209, DW_AT_decl_column(0x0e)
    2140                    $C$DW$210       .dwtag  DW_TAG_member
    2141                            .dwattr $C$DW$210, DW_AT_type(*$C$DW$T$21)
    2142                            .dwattr $C$DW$210, DW_AT_name("height")
    2143                            .dwattr $C$DW$210, DW_AT_TI_symbol_name("height")
    2144                            .dwattr $C$DW$210, DW_AT_data_member_location[DW_OP_plus_uconst 0x18]
    2145                            .dwattr $C$DW$210, DW_AT_accessibility(DW_ACCESS_public)
    2146                            .dwattr $C$DW$210, DW_AT_decl_file(".\..\packages\ti\vlib\src\VLIB_convertUYVYsemipl_to_YUVpl\
    2147                            .dwattr $C$DW$210, DW_AT_decl_line(0x2a)
    2148                            .dwattr $C$DW$210, DW_AT_decl_column(0x0e)
    2149                            .dwendtag $C$DW$T$23
    2150                    
    2151                            .dwattr $C$DW$T$23, DW_AT_decl_file(".\..\packages\ti\vlib\src\VLIB_convertUYVYsemipl_to_YUVpl
    2152                            .dwattr $C$DW$T$23, DW_AT_decl_line(0x23)
    2153                            .dwattr $C$DW$T$23, DW_AT_decl_column(0x10)
    2154                    $C$DW$T$40      .dwtag  DW_TAG_typedef, DW_AT_name("UYVYsemipl_to_YUVpl_testParams_t")
    2155                            .dwattr $C$DW$T$40, DW_AT_type(*$C$DW$T$23)
    2156                            .dwattr $C$DW$T$40, DW_AT_language(DW_LANG_C)
    2157                            .dwattr $C$DW$T$40, DW_AT_decl_file(".\..\packages\ti\vlib\src\VLIB_convertUYVYsemipl_to_YUVpl
    2158                            .dwattr $C$DW$T$40, DW_AT_decl_line(0x2b)
    2159                            .dwattr $C$DW$T$40, DW_AT_decl_column(0x03)
    2160                    $C$DW$T$41      .dwtag  DW_TAG_pointer_type
    2161                            .dwattr $C$DW$T$41, DW_AT_type(*$C$DW$T$40)
    2162                            .dwattr $C$DW$T$41, DW_AT_address_class(0x20)
    2163                    $C$DW$T$42      .dwtag  DW_TAG_pointer_type
    2164                            .dwattr $C$DW$T$42, DW_AT_type(*$C$DW$T$41)
    2165                            .dwattr $C$DW$T$42, DW_AT_address_class(0x20)
    2166                    $C$DW$T$43      .dwtag  DW_TAG_pointer_type
    2167                            .dwattr $C$DW$T$43, DW_AT_type(*$C$DW$T$23)
    2168                            .dwattr $C$DW$T$43, DW_AT_address_class(0x20)
    2169                    
    2170                    $C$DW$T$25      .dwtag  DW_TAG_structure_type
    2171                            .dwattr $C$DW$T$25, DW_AT_byte_size(0x18)
    2172                    $C$DW$211       .dwtag  DW_TAG_member
    2173                            .dwattr $C$DW$211, DW_AT_type(*$C$DW$T$10)
    2174                            .dwattr $C$DW$211, DW_AT_name("fd")
    2175                            .dwattr $C$DW$211, DW_AT_TI_symbol_name("fd")
    2176                            .dwattr $C$DW$211, DW_AT_data_member_location[DW_OP_plus_uconst 0x0]
    2177                            .dwattr $C$DW$211, DW_AT_accessibility(DW_ACCESS_public)
    2178                            .dwattr $C$DW$211, DW_AT_decl_file("C:/VLIB_Tools/CCSV5_4_0/ccsv5/tools/compiler/C6000/include
    2179                            .dwattr $C$DW$211, DW_AT_decl_line(0x49)
    2180                            .dwattr $C$DW$211, DW_AT_decl_column(0x0b)
    2181                    $C$DW$212       .dwtag  DW_TAG_member
    2182                            .dwattr $C$DW$212, DW_AT_type(*$C$DW$T$24)
    2183                            .dwattr $C$DW$212, DW_AT_name("buf")
    2184                            .dwattr $C$DW$212, DW_AT_TI_symbol_name("buf")
TMS320C6x Assembler PC v7.4.2 Thu Mar 19 12:40:35 2015

Tools Copyright (c) 1996-2012 Texas Instruments Incorporated
package/lib/Regression/regress_d_c/./../packages/ti/vlib/src/VLIB_convertUYVYsemipl_to_YUVpl/VLIB_convertUYVYsemipl_to_YUVpl_d.se66 PAGE   48

    2185                            .dwattr $C$DW$212, DW_AT_data_member_location[DW_OP_plus_uconst 0x4]
    2186                            .dwattr $C$DW$212, DW_AT_accessibility(DW_ACCESS_public)
    2187                            .dwattr $C$DW$212, DW_AT_decl_file("C:/VLIB_Tools/CCSV5_4_0/ccsv5/tools/compiler/C6000/include
    2188                            .dwattr $C$DW$212, DW_AT_decl_line(0x4a)
    2189                            .dwattr $C$DW$212, DW_AT_decl_column(0x16)
    2190                    $C$DW$213       .dwtag  DW_TAG_member
    2191                            .dwattr $C$DW$213, DW_AT_type(*$C$DW$T$24)
    2192                            .dwattr $C$DW$213, DW_AT_name("pos")
    2193                            .dwattr $C$DW$213, DW_AT_TI_symbol_name("pos")
    2194                            .dwattr $C$DW$213, DW_AT_data_member_location[DW_OP_plus_uconst 0x8]
    2195                            .dwattr $C$DW$213, DW_AT_accessibility(DW_ACCESS_public)
    2196                            .dwattr $C$DW$213, DW_AT_decl_file("C:/VLIB_Tools/CCSV5_4_0/ccsv5/tools/compiler/C6000/include
    2197                            .dwattr $C$DW$213, DW_AT_decl_line(0x4b)
    2198                            .dwattr $C$DW$213, DW_AT_decl_column(0x16)
    2199                    $C$DW$214       .dwtag  DW_TAG_member
    2200                            .dwattr $C$DW$214, DW_AT_type(*$C$DW$T$24)
    2201                            .dwattr $C$DW$214, DW_AT_name("bufend")
    2202                            .dwattr $C$DW$214, DW_AT_TI_symbol_name("bufend")
    2203                            .dwattr $C$DW$214, DW_AT_data_member_location[DW_OP_plus_uconst 0xc]
    2204                            .dwattr $C$DW$214, DW_AT_accessibility(DW_ACCESS_public)
    2205                            .dwattr $C$DW$214, DW_AT_decl_file("C:/VLIB_Tools/CCSV5_4_0/ccsv5/tools/compiler/C6000/include
    2206                            .dwattr $C$DW$214, DW_AT_decl_line(0x4c)
    2207                            .dwattr $C$DW$214, DW_AT_decl_column(0x16)
    2208                    $C$DW$215       .dwtag  DW_TAG_member
    2209                            .dwattr $C$DW$215, DW_AT_type(*$C$DW$T$24)
    2210                            .dwattr $C$DW$215, DW_AT_name("buff_stop")
    2211                            .dwattr $C$DW$215, DW_AT_TI_symbol_name("buff_stop")
    2212                            .dwattr $C$DW$215, DW_AT_data_member_location[DW_OP_plus_uconst 0x10]
    2213                            .dwattr $C$DW$215, DW_AT_accessibility(DW_ACCESS_public)
    2214                            .dwattr $C$DW$215, DW_AT_decl_file("C:/VLIB_Tools/CCSV5_4_0/ccsv5/tools/compiler/C6000/include
    2215                            .dwattr $C$DW$215, DW_AT_decl_line(0x4d)
    2216                            .dwattr $C$DW$215, DW_AT_decl_column(0x16)
    2217                    $C$DW$216       .dwtag  DW_TAG_member
    2218                            .dwattr $C$DW$216, DW_AT_type(*$C$DW$T$11)
    2219                            .dwattr $C$DW$216, DW_AT_name("flags")
    2220                            .dwattr $C$DW$216, DW_AT_TI_symbol_name("flags")
    2221                            .dwattr $C$DW$216, DW_AT_data_member_location[DW_OP_plus_uconst 0x14]
    2222                            .dwattr $C$DW$216, DW_AT_accessibility(DW_ACCESS_public)
    2223                            .dwattr $C$DW$216, DW_AT_decl_file("C:/VLIB_Tools/CCSV5_4_0/ccsv5/tools/compiler/C6000/include
    2224                            .dwattr $C$DW$216, DW_AT_decl_line(0x4e)
    2225                            .dwattr $C$DW$216, DW_AT_decl_column(0x16)
    2226                            .dwendtag $C$DW$T$25
    2227                    
    2228                            .dwattr $C$DW$T$25, DW_AT_decl_file("C:/VLIB_Tools/CCSV5_4_0/ccsv5/tools/compiler/C6000/includ
    2229                            .dwattr $C$DW$T$25, DW_AT_decl_line(0x48)
    2230                            .dwattr $C$DW$T$25, DW_AT_decl_column(0x10)
    2231                    $C$DW$T$45      .dwtag  DW_TAG_typedef, DW_AT_name("FILE")
    2232                            .dwattr $C$DW$T$45, DW_AT_type(*$C$DW$T$25)
    2233                            .dwattr $C$DW$T$45, DW_AT_language(DW_LANG_C)
    2234                            .dwattr $C$DW$T$45, DW_AT_decl_file("C:/VLIB_Tools/CCSV5_4_0/ccsv5/tools/compiler/C6000/includ
    2235                            .dwattr $C$DW$T$45, DW_AT_decl_line(0x4f)
    2236                            .dwattr $C$DW$T$45, DW_AT_decl_column(0x03)
    2237                    
    2238                    $C$DW$T$26      .dwtag  DW_TAG_structure_type
    2239                            .dwattr $C$DW$T$26, DW_AT_byte_size(0x08)
TMS320C6x Assembler PC v7.4.2 Thu Mar 19 12:40:35 2015

Tools Copyright (c) 1996-2012 Texas Instruments Incorporated
package/lib/Regression/regress_d_c/./../packages/ti/vlib/src/VLIB_convertUYVYsemipl_to_YUVpl/VLIB_convertUYVYsemipl_to_YUVpl_d.se66 PAGE   49

    2240                    $C$DW$217       .dwtag  DW_TAG_member
    2241                            .dwattr $C$DW$217, DW_AT_type(*$C$DW$T$10)
    2242                            .dwattr $C$DW$217, DW_AT_name("quot")
    2243                            .dwattr $C$DW$217, DW_AT_TI_symbol_name("quot")
    2244                            .dwattr $C$DW$217, DW_AT_data_member_location[DW_OP_plus_uconst 0x0]
    2245                            .dwattr $C$DW$217, DW_AT_accessibility(DW_ACCESS_public)
    2246                            .dwattr $C$DW$217, DW_AT_decl_file("C:/VLIB_Tools/CCSV5_4_0/ccsv5/tools/compiler/C6000/include
    2247                            .dwattr $C$DW$217, DW_AT_decl_line(0x3e)
    2248                            .dwattr $C$DW$217, DW_AT_decl_column(0x16)
    2249                    $C$DW$218       .dwtag  DW_TAG_member
    2250                            .dwattr $C$DW$218, DW_AT_type(*$C$DW$T$10)
    2251                            .dwattr $C$DW$218, DW_AT_name("rem")
    2252                            .dwattr $C$DW$218, DW_AT_TI_symbol_name("rem")
    2253                            .dwattr $C$DW$218, DW_AT_data_member_location[DW_OP_plus_uconst 0x4]
    2254                            .dwattr $C$DW$218, DW_AT_accessibility(DW_ACCESS_public)
    2255                            .dwattr $C$DW$218, DW_AT_decl_file("C:/VLIB_Tools/CCSV5_4_0/ccsv5/tools/compiler/C6000/include
    2256                            .dwattr $C$DW$218, DW_AT_decl_line(0x3e)
    2257                            .dwattr $C$DW$218, DW_AT_decl_column(0x1c)
    2258                            .dwendtag $C$DW$T$26
    2259                    
    2260                            .dwattr $C$DW$T$26, DW_AT_decl_file("C:/VLIB_Tools/CCSV5_4_0/ccsv5/tools/compiler/C6000/includ
    2261                            .dwattr $C$DW$T$26, DW_AT_decl_line(0x3e)
    2262                            .dwattr $C$DW$T$26, DW_AT_decl_column(0x10)
    2263                    $C$DW$T$46      .dwtag  DW_TAG_typedef, DW_AT_name("div_t")
    2264                            .dwattr $C$DW$T$46, DW_AT_type(*$C$DW$T$26)
    2265                            .dwattr $C$DW$T$46, DW_AT_language(DW_LANG_C)
    2266                            .dwattr $C$DW$T$46, DW_AT_decl_file("C:/VLIB_Tools/CCSV5_4_0/ccsv5/tools/compiler/C6000/includ
    2267                            .dwattr $C$DW$T$46, DW_AT_decl_line(0x3e)
    2268                            .dwattr $C$DW$T$46, DW_AT_decl_column(0x23)
    2269                    
    2270                    $C$DW$T$27      .dwtag  DW_TAG_structure_type
    2271                            .dwattr $C$DW$T$27, DW_AT_byte_size(0x08)
    2272                    $C$DW$219       .dwtag  DW_TAG_member
    2273                            .dwattr $C$DW$219, DW_AT_type(*$C$DW$T$10)
    2274                            .dwattr $C$DW$219, DW_AT_name("quot")
    2275                            .dwattr $C$DW$219, DW_AT_TI_symbol_name("quot")
    2276                            .dwattr $C$DW$219, DW_AT_data_member_location[DW_OP_plus_uconst 0x0]
    2277                            .dwattr $C$DW$219, DW_AT_accessibility(DW_ACCESS_public)
    2278                            .dwattr $C$DW$219, DW_AT_decl_file("C:/VLIB_Tools/CCSV5_4_0/ccsv5/tools/compiler/C6000/include
    2279                            .dwattr $C$DW$219, DW_AT_decl_line(0x40)
    2280                            .dwattr $C$DW$219, DW_AT_decl_column(0x17)
    2281                    $C$DW$220       .dwtag  DW_TAG_member
    2282                            .dwattr $C$DW$220, DW_AT_type(*$C$DW$T$10)
    2283                            .dwattr $C$DW$220, DW_AT_name("rem")
    2284                            .dwattr $C$DW$220, DW_AT_TI_symbol_name("rem")
    2285                            .dwattr $C$DW$220, DW_AT_data_member_location[DW_OP_plus_uconst 0x4]
    2286                            .dwattr $C$DW$220, DW_AT_accessibility(DW_ACCESS_public)
    2287                            .dwattr $C$DW$220, DW_AT_decl_file("C:/VLIB_Tools/CCSV5_4_0/ccsv5/tools/compiler/C6000/include
    2288                            .dwattr $C$DW$220, DW_AT_decl_line(0x40)
    2289                            .dwattr $C$DW$220, DW_AT_decl_column(0x1d)
    2290                            .dwendtag $C$DW$T$27
    2291                    
    2292                            .dwattr $C$DW$T$27, DW_AT_decl_file("C:/VLIB_Tools/CCSV5_4_0/ccsv5/tools/compiler/C6000/includ
    2293                            .dwattr $C$DW$T$27, DW_AT_decl_line(0x40)
    2294                            .dwattr $C$DW$T$27, DW_AT_decl_column(0x10)
TMS320C6x Assembler PC v7.4.2 Thu Mar 19 12:40:35 2015

Tools Copyright (c) 1996-2012 Texas Instruments Incorporated
package/lib/Regression/regress_d_c/./../packages/ti/vlib/src/VLIB_convertUYVYsemipl_to_YUVpl/VLIB_convertUYVYsemipl_to_YUVpl_d.se66 PAGE   50

    2295                    $C$DW$T$47      .dwtag  DW_TAG_typedef, DW_AT_name("ldiv_t")
    2296                            .dwattr $C$DW$T$47, DW_AT_type(*$C$DW$T$27)
    2297                            .dwattr $C$DW$T$47, DW_AT_language(DW_LANG_C)
    2298                            .dwattr $C$DW$T$47, DW_AT_decl_file("C:/VLIB_Tools/CCSV5_4_0/ccsv5/tools/compiler/C6000/includ
    2299                            .dwattr $C$DW$T$47, DW_AT_decl_line(0x40)
    2300                            .dwattr $C$DW$T$47, DW_AT_decl_column(0x24)
    2301                    
    2302                    $C$DW$T$28      .dwtag  DW_TAG_structure_type
    2303                            .dwattr $C$DW$T$28, DW_AT_byte_size(0x10)
    2304                    $C$DW$221       .dwtag  DW_TAG_member
    2305                            .dwattr $C$DW$221, DW_AT_type(*$C$DW$T$14)
    2306                            .dwattr $C$DW$221, DW_AT_name("quot")
    2307                            .dwattr $C$DW$221, DW_AT_TI_symbol_name("quot")
    2308                            .dwattr $C$DW$221, DW_AT_data_member_location[DW_OP_plus_uconst 0x0]
    2309                            .dwattr $C$DW$221, DW_AT_accessibility(DW_ACCESS_public)
    2310                            .dwattr $C$DW$221, DW_AT_decl_file("C:/VLIB_Tools/CCSV5_4_0/ccsv5/tools/compiler/C6000/include
    2311                            .dwattr $C$DW$221, DW_AT_decl_line(0x43)
    2312                            .dwattr $C$DW$221, DW_AT_decl_column(0x1c)
    2313                    $C$DW$222       .dwtag  DW_TAG_member
    2314                            .dwattr $C$DW$222, DW_AT_type(*$C$DW$T$14)
    2315                            .dwattr $C$DW$222, DW_AT_name("rem")
    2316                            .dwattr $C$DW$222, DW_AT_TI_symbol_name("rem")
    2317                            .dwattr $C$DW$222, DW_AT_data_member_location[DW_OP_plus_uconst 0x8]
    2318                            .dwattr $C$DW$222, DW_AT_accessibility(DW_ACCESS_public)
    2319                            .dwattr $C$DW$222, DW_AT_decl_file("C:/VLIB_Tools/CCSV5_4_0/ccsv5/tools/compiler/C6000/include
    2320                            .dwattr $C$DW$222, DW_AT_decl_line(0x43)
    2321                            .dwattr $C$DW$222, DW_AT_decl_column(0x22)
    2322                            .dwendtag $C$DW$T$28
    2323                    
    2324                            .dwattr $C$DW$T$28, DW_AT_decl_file("C:/VLIB_Tools/CCSV5_4_0/ccsv5/tools/compiler/C6000/includ
    2325                            .dwattr $C$DW$T$28, DW_AT_decl_line(0x43)
    2326                            .dwattr $C$DW$T$28, DW_AT_decl_column(0x10)
    2327                    $C$DW$T$48      .dwtag  DW_TAG_typedef, DW_AT_name("lldiv_t")
    2328                            .dwattr $C$DW$T$48, DW_AT_type(*$C$DW$T$28)
    2329                            .dwattr $C$DW$T$48, DW_AT_language(DW_LANG_C)
    2330                            .dwattr $C$DW$T$48, DW_AT_decl_file("C:/VLIB_Tools/CCSV5_4_0/ccsv5/tools/compiler/C6000/includ
    2331                            .dwattr $C$DW$T$48, DW_AT_decl_line(0x43)
    2332                            .dwattr $C$DW$T$48, DW_AT_decl_column(0x29)
    2333                    
    2334                    $C$DW$T$29      .dwtag  DW_TAG_structure_type
    2335                            .dwattr $C$DW$T$29, DW_AT_byte_size(0x24)
    2336                    $C$DW$223       .dwtag  DW_TAG_member
    2337                            .dwattr $C$DW$223, DW_AT_type(*$C$DW$T$22)
    2338                            .dwattr $C$DW$223, DW_AT_name("area")
    2339                            .dwattr $C$DW$223, DW_AT_TI_symbol_name("area")
    2340                            .dwattr $C$DW$223, DW_AT_data_member_location[DW_OP_plus_uconst 0x0]
    2341                            .dwattr $C$DW$223, DW_AT_accessibility(DW_ACCESS_public)
    2342                            .dwattr $C$DW$223, DW_AT_decl_file(".\..\packages\ti\vlib\src\VLIB_convertUYVYsemipl_to_YUVpl\
    2343                            .dwattr $C$DW$223, DW_AT_decl_line(0x69)
    2344                            .dwattr $C$DW$223, DW_AT_decl_column(0x0d)
    2345                    $C$DW$224       .dwtag  DW_TAG_member
    2346                            .dwattr $C$DW$224, DW_AT_type(*$C$DW$T$22)
    2347                            .dwattr $C$DW$224, DW_AT_name("xsum")
    2348                            .dwattr $C$DW$224, DW_AT_TI_symbol_name("xsum")
    2349                            .dwattr $C$DW$224, DW_AT_data_member_location[DW_OP_plus_uconst 0x4]
TMS320C6x Assembler PC v7.4.2 Thu Mar 19 12:40:35 2015

Tools Copyright (c) 1996-2012 Texas Instruments Incorporated
package/lib/Regression/regress_d_c/./../packages/ti/vlib/src/VLIB_convertUYVYsemipl_to_YUVpl/VLIB_convertUYVYsemipl_to_YUVpl_d.se66 PAGE   51

    2350                            .dwattr $C$DW$224, DW_AT_accessibility(DW_ACCESS_public)
    2351                            .dwattr $C$DW$224, DW_AT_decl_file(".\..\packages\ti\vlib\src\VLIB_convertUYVYsemipl_to_YUVpl\
    2352                            .dwattr $C$DW$224, DW_AT_decl_line(0x6a)
    2353                            .dwattr $C$DW$224, DW_AT_decl_column(0x0d)
    2354                    $C$DW$225       .dwtag  DW_TAG_member
    2355                            .dwattr $C$DW$225, DW_AT_type(*$C$DW$T$22)
    2356                            .dwattr $C$DW$225, DW_AT_name("ysum")
    2357                            .dwattr $C$DW$225, DW_AT_TI_symbol_name("ysum")
    2358                            .dwattr $C$DW$225, DW_AT_data_member_location[DW_OP_plus_uconst 0x8]
    2359                            .dwattr $C$DW$225, DW_AT_accessibility(DW_ACCESS_public)
    2360                            .dwattr $C$DW$225, DW_AT_decl_file(".\..\packages\ti\vlib\src\VLIB_convertUYVYsemipl_to_YUVpl\
    2361                            .dwattr $C$DW$225, DW_AT_decl_line(0x6b)
    2362                            .dwattr $C$DW$225, DW_AT_decl_column(0x0d)
    2363                    $C$DW$226       .dwtag  DW_TAG_member
    2364                            .dwattr $C$DW$226, DW_AT_type(*$C$DW$T$22)
    2365                            .dwattr $C$DW$226, DW_AT_name("xmin")
    2366                            .dwattr $C$DW$226, DW_AT_TI_symbol_name("xmin")
    2367                            .dwattr $C$DW$226, DW_AT_data_member_location[DW_OP_plus_uconst 0xc]
    2368                            .dwattr $C$DW$226, DW_AT_accessibility(DW_ACCESS_public)
    2369                            .dwattr $C$DW$226, DW_AT_decl_file(".\..\packages\ti\vlib\src\VLIB_convertUYVYsemipl_to_YUVpl\
    2370                            .dwattr $C$DW$226, DW_AT_decl_line(0x6d)
    2371                            .dwattr $C$DW$226, DW_AT_decl_column(0x0d)
    2372                    $C$DW$227       .dwtag  DW_TAG_member
    2373                            .dwattr $C$DW$227, DW_AT_type(*$C$DW$T$22)
    2374                            .dwattr $C$DW$227, DW_AT_name("ymin")
    2375                            .dwattr $C$DW$227, DW_AT_TI_symbol_name("ymin")
    2376                            .dwattr $C$DW$227, DW_AT_data_member_location[DW_OP_plus_uconst 0x10]
    2377                            .dwattr $C$DW$227, DW_AT_accessibility(DW_ACCESS_public)
    2378                            .dwattr $C$DW$227, DW_AT_decl_file(".\..\packages\ti\vlib\src\VLIB_convertUYVYsemipl_to_YUVpl\
    2379                            .dwattr $C$DW$227, DW_AT_decl_line(0x6e)
    2380                            .dwattr $C$DW$227, DW_AT_decl_column(0x0d)
    2381                    $C$DW$228       .dwtag  DW_TAG_member
    2382                            .dwattr $C$DW$228, DW_AT_type(*$C$DW$T$22)
    2383                            .dwattr $C$DW$228, DW_AT_name("xmax")
    2384                            .dwattr $C$DW$228, DW_AT_TI_symbol_name("xmax")
    2385                            .dwattr $C$DW$228, DW_AT_data_member_location[DW_OP_plus_uconst 0x14]
    2386                            .dwattr $C$DW$228, DW_AT_accessibility(DW_ACCESS_public)
    2387                            .dwattr $C$DW$228, DW_AT_decl_file(".\..\packages\ti\vlib\src\VLIB_convertUYVYsemipl_to_YUVpl\
    2388                            .dwattr $C$DW$228, DW_AT_decl_line(0x6f)
    2389                            .dwattr $C$DW$228, DW_AT_decl_column(0x0d)
    2390                    $C$DW$229       .dwtag  DW_TAG_member
    2391                            .dwattr $C$DW$229, DW_AT_type(*$C$DW$T$22)
    2392                            .dwattr $C$DW$229, DW_AT_name("ymax")
    2393                            .dwattr $C$DW$229, DW_AT_TI_symbol_name("ymax")
    2394                            .dwattr $C$DW$229, DW_AT_data_member_location[DW_OP_plus_uconst 0x18]
    2395                            .dwattr $C$DW$229, DW_AT_accessibility(DW_ACCESS_public)
    2396                            .dwattr $C$DW$229, DW_AT_decl_file(".\..\packages\ti\vlib\src\VLIB_convertUYVYsemipl_to_YUVpl\
    2397                            .dwattr $C$DW$229, DW_AT_decl_line(0x70)
    2398                            .dwattr $C$DW$229, DW_AT_decl_column(0x0d)
    2399                    $C$DW$230       .dwtag  DW_TAG_member
    2400                            .dwattr $C$DW$230, DW_AT_type(*$C$DW$T$22)
    2401                            .dwattr $C$DW$230, DW_AT_name("seedx")
    2402                            .dwattr $C$DW$230, DW_AT_TI_symbol_name("seedx")
    2403                            .dwattr $C$DW$230, DW_AT_data_member_location[DW_OP_plus_uconst 0x1c]
    2404                            .dwattr $C$DW$230, DW_AT_accessibility(DW_ACCESS_public)
TMS320C6x Assembler PC v7.4.2 Thu Mar 19 12:40:35 2015

Tools Copyright (c) 1996-2012 Texas Instruments Incorporated
package/lib/Regression/regress_d_c/./../packages/ti/vlib/src/VLIB_convertUYVYsemipl_to_YUVpl/VLIB_convertUYVYsemipl_to_YUVpl_d.se66 PAGE   52

    2405                            .dwattr $C$DW$230, DW_AT_decl_file(".\..\packages\ti\vlib\src\VLIB_convertUYVYsemipl_to_YUVpl\
    2406                            .dwattr $C$DW$230, DW_AT_decl_line(0x72)
    2407                            .dwattr $C$DW$230, DW_AT_decl_column(0x0d)
    2408                    $C$DW$231       .dwtag  DW_TAG_member
    2409                            .dwattr $C$DW$231, DW_AT_type(*$C$DW$T$22)
    2410                            .dwattr $C$DW$231, DW_AT_name("seedy")
    2411                            .dwattr $C$DW$231, DW_AT_TI_symbol_name("seedy")
    2412                            .dwattr $C$DW$231, DW_AT_data_member_location[DW_OP_plus_uconst 0x20]
    2413                            .dwattr $C$DW$231, DW_AT_accessibility(DW_ACCESS_public)
    2414                            .dwattr $C$DW$231, DW_AT_decl_file(".\..\packages\ti\vlib\src\VLIB_convertUYVYsemipl_to_YUVpl\
    2415                            .dwattr $C$DW$231, DW_AT_decl_line(0x73)
    2416                            .dwattr $C$DW$231, DW_AT_decl_column(0x0d)
    2417                            .dwendtag $C$DW$T$29
    2418                    
    2419                            .dwattr $C$DW$T$29, DW_AT_decl_file(".\..\packages\ti\vlib\src\VLIB_convertUYVYsemipl_to_YUVpl
    2420                            .dwattr $C$DW$T$29, DW_AT_decl_line(0x68)
    2421                            .dwattr $C$DW$T$29, DW_AT_decl_column(0x10)
    2422                    $C$DW$T$49      .dwtag  DW_TAG_typedef, DW_AT_name("VLIB_CC")
    2423                            .dwattr $C$DW$T$49, DW_AT_type(*$C$DW$T$29)
    2424                            .dwattr $C$DW$T$49, DW_AT_language(DW_LANG_C)
    2425                            .dwattr $C$DW$T$49, DW_AT_decl_file(".\..\packages\ti\vlib\src\VLIB_convertUYVYsemipl_to_YUVpl
    2426                            .dwattr $C$DW$T$49, DW_AT_decl_line(0x75)
    2427                            .dwattr $C$DW$T$49, DW_AT_decl_column(0x03)
    2428                    
    2429                    $C$DW$T$32      .dwtag  DW_TAG_structure_type
    2430                            .dwattr $C$DW$T$32, DW_AT_byte_size(0x10)
    2431                    $C$DW$232       .dwtag  DW_TAG_member
    2432                            .dwattr $C$DW$232, DW_AT_type(*$C$DW$T$8)
    2433                            .dwattr $C$DW$232, DW_AT_name("daylight")
    2434                            .dwattr $C$DW$232, DW_AT_TI_symbol_name("daylight")
    2435                            .dwattr $C$DW$232, DW_AT_data_member_location[DW_OP_plus_uconst 0x0]
    2436                            .dwattr $C$DW$232, DW_AT_accessibility(DW_ACCESS_public)
    2437                            .dwattr $C$DW$232, DW_AT_decl_file("C:/VLIB_Tools/CCSV5_4_0/ccsv5/tools/compiler/C6000/include
    2438                            .dwattr $C$DW$232, DW_AT_decl_line(0x52)
    2439                            .dwattr $C$DW$232, DW_AT_decl_column(0x0b)
    2440                    $C$DW$233       .dwtag  DW_TAG_member
    2441                            .dwattr $C$DW$233, DW_AT_type(*$C$DW$T$10)
    2442                            .dwattr $C$DW$233, DW_AT_name("timezone")
    2443                            .dwattr $C$DW$233, DW_AT_TI_symbol_name("timezone")
    2444                            .dwattr $C$DW$233, DW_AT_data_member_location[DW_OP_plus_uconst 0x4]
    2445                            .dwattr $C$DW$233, DW_AT_accessibility(DW_ACCESS_public)
    2446                            .dwattr $C$DW$233, DW_AT_decl_file("C:/VLIB_Tools/CCSV5_4_0/ccsv5/tools/compiler/C6000/include
    2447                            .dwattr $C$DW$233, DW_AT_decl_line(0x53)
    2448                            .dwattr $C$DW$233, DW_AT_decl_column(0x0b)
    2449                    $C$DW$234       .dwtag  DW_TAG_member
    2450                            .dwattr $C$DW$234, DW_AT_type(*$C$DW$T$31)
    2451                            .dwattr $C$DW$234, DW_AT_name("tzname")
    2452                            .dwattr $C$DW$234, DW_AT_TI_symbol_name("tzname")
    2453                            .dwattr $C$DW$234, DW_AT_data_member_location[DW_OP_plus_uconst 0x8]
    2454                            .dwattr $C$DW$234, DW_AT_accessibility(DW_ACCESS_public)
    2455                            .dwattr $C$DW$234, DW_AT_decl_file("C:/VLIB_Tools/CCSV5_4_0/ccsv5/tools/compiler/C6000/include
    2456                            .dwattr $C$DW$234, DW_AT_decl_line(0x54)
    2457                            .dwattr $C$DW$234, DW_AT_decl_column(0x0b)
    2458                    $C$DW$235       .dwtag  DW_TAG_member
    2459                            .dwattr $C$DW$235, DW_AT_type(*$C$DW$T$31)
TMS320C6x Assembler PC v7.4.2 Thu Mar 19 12:40:35 2015

Tools Copyright (c) 1996-2012 Texas Instruments Incorporated
package/lib/Regression/regress_d_c/./../packages/ti/vlib/src/VLIB_convertUYVYsemipl_to_YUVpl/VLIB_convertUYVYsemipl_to_YUVpl_d.se66 PAGE   53

    2460                            .dwattr $C$DW$235, DW_AT_name("dstname")
    2461                            .dwattr $C$DW$235, DW_AT_TI_symbol_name("dstname")
    2462                            .dwattr $C$DW$235, DW_AT_data_member_location[DW_OP_plus_uconst 0xc]
    2463                            .dwattr $C$DW$235, DW_AT_accessibility(DW_ACCESS_public)
    2464                            .dwattr $C$DW$235, DW_AT_decl_file("C:/VLIB_Tools/CCSV5_4_0/ccsv5/tools/compiler/C6000/include
    2465                            .dwattr $C$DW$235, DW_AT_decl_line(0x55)
    2466                            .dwattr $C$DW$235, DW_AT_decl_column(0x0b)
    2467                            .dwendtag $C$DW$T$32
    2468                    
    2469                            .dwattr $C$DW$T$32, DW_AT_decl_file("C:/VLIB_Tools/CCSV5_4_0/ccsv5/tools/compiler/C6000/includ
    2470                            .dwattr $C$DW$T$32, DW_AT_decl_line(0x51)
    2471                            .dwattr $C$DW$T$32, DW_AT_decl_column(0x01)
    2472                    $C$DW$T$50      .dwtag  DW_TAG_typedef, DW_AT_name("TZ")
    2473                            .dwattr $C$DW$T$50, DW_AT_type(*$C$DW$T$32)
    2474                            .dwattr $C$DW$T$50, DW_AT_language(DW_LANG_C)
    2475                            .dwattr $C$DW$T$50, DW_AT_decl_file("C:/VLIB_Tools/CCSV5_4_0/ccsv5/tools/compiler/C6000/includ
    2476                            .dwattr $C$DW$T$50, DW_AT_decl_line(0x56)
    2477                            .dwattr $C$DW$T$50, DW_AT_decl_column(0x03)
    2478                    $C$DW$T$2       .dwtag  DW_TAG_unspecified_type
    2479                            .dwattr $C$DW$T$2, DW_AT_name("void")
    2480                    $C$DW$T$3       .dwtag  DW_TAG_pointer_type
    2481                            .dwattr $C$DW$T$3, DW_AT_type(*$C$DW$T$2)
    2482                            .dwattr $C$DW$T$3, DW_AT_address_class(0x20)
    2483                    $C$DW$T$51      .dwtag  DW_TAG_typedef, DW_AT_name("VLIB_PTR")
    2484                            .dwattr $C$DW$T$51, DW_AT_type(*$C$DW$T$3)
    2485                            .dwattr $C$DW$T$51, DW_AT_language(DW_LANG_C)
    2486                            .dwattr $C$DW$T$51, DW_AT_decl_file(".\..\packages\ti\vlib\src\VLIB_convertUYVYsemipl_to_YUVpl
    2487                            .dwattr $C$DW$T$51, DW_AT_decl_line(0x5c)
    2488                            .dwattr $C$DW$T$51, DW_AT_decl_column(0x19)
    2489                    $C$DW$T$4       .dwtag  DW_TAG_base_type
    2490                            .dwattr $C$DW$T$4, DW_AT_encoding(DW_ATE_boolean)
    2491                            .dwattr $C$DW$T$4, DW_AT_name("bool")
    2492                            .dwattr $C$DW$T$4, DW_AT_byte_size(0x01)
    2493                    $C$DW$T$5       .dwtag  DW_TAG_base_type
    2494                            .dwattr $C$DW$T$5, DW_AT_encoding(DW_ATE_signed_char)
    2495                            .dwattr $C$DW$T$5, DW_AT_name("signed char")
    2496                            .dwattr $C$DW$T$5, DW_AT_byte_size(0x01)
    2497                    $C$DW$T$82      .dwtag  DW_TAG_pointer_type
    2498                            .dwattr $C$DW$T$82, DW_AT_type(*$C$DW$T$5)
    2499                            .dwattr $C$DW$T$82, DW_AT_address_class(0x20)
    2500                    $C$DW$T$92      .dwtag  DW_TAG_typedef, DW_AT_name("int8_t")
    2501                            .dwattr $C$DW$T$92, DW_AT_type(*$C$DW$T$5)
    2502                            .dwattr $C$DW$T$92, DW_AT_language(DW_LANG_C)
    2503                            .dwattr $C$DW$T$92, DW_AT_decl_file("C:/VLIB_Tools/CCSV5_4_0/ccsv5/tools/compiler/C6000/includ
    2504                            .dwattr $C$DW$T$92, DW_AT_decl_line(0x2a)
    2505                            .dwattr $C$DW$T$92, DW_AT_decl_column(0x1d)
    2506                    $C$DW$T$93      .dwtag  DW_TAG_typedef, DW_AT_name("int_least8_t")
    2507                            .dwattr $C$DW$T$93, DW_AT_type(*$C$DW$T$92)
    2508                            .dwattr $C$DW$T$93, DW_AT_language(DW_LANG_C)
    2509                            .dwattr $C$DW$T$93, DW_AT_decl_file("C:/VLIB_Tools/CCSV5_4_0/ccsv5/tools/compiler/C6000/includ
    2510                            .dwattr $C$DW$T$93, DW_AT_decl_line(0x39)
    2511                            .dwattr $C$DW$T$93, DW_AT_decl_column(0x17)
    2512                    $C$DW$T$6       .dwtag  DW_TAG_base_type
    2513                            .dwattr $C$DW$T$6, DW_AT_encoding(DW_ATE_unsigned_char)
    2514                            .dwattr $C$DW$T$6, DW_AT_name("unsigned char")
TMS320C6x Assembler PC v7.4.2 Thu Mar 19 12:40:35 2015

Tools Copyright (c) 1996-2012 Texas Instruments Incorporated
package/lib/Regression/regress_d_c/./../packages/ti/vlib/src/VLIB_convertUYVYsemipl_to_YUVpl/VLIB_convertUYVYsemipl_to_YUVpl_d.se66 PAGE   54

    2515                            .dwattr $C$DW$T$6, DW_AT_byte_size(0x01)
    2516                    $C$DW$T$24      .dwtag  DW_TAG_pointer_type
    2517                            .dwattr $C$DW$T$24, DW_AT_type(*$C$DW$T$6)
    2518                            .dwattr $C$DW$T$24, DW_AT_address_class(0x20)
    2519                    $C$DW$T$19      .dwtag  DW_TAG_typedef, DW_AT_name("uint8_t")
    2520                            .dwattr $C$DW$T$19, DW_AT_type(*$C$DW$T$6)
    2521                            .dwattr $C$DW$T$19, DW_AT_language(DW_LANG_C)
    2522                            .dwattr $C$DW$T$19, DW_AT_decl_file("C:/VLIB_Tools/CCSV5_4_0/ccsv5/tools/compiler/C6000/includ
    2523                            .dwattr $C$DW$T$19, DW_AT_decl_line(0x2b)
    2524                            .dwattr $C$DW$T$19, DW_AT_decl_column(0x1c)
    2525                    $C$DW$T$20      .dwtag  DW_TAG_pointer_type
    2526                            .dwattr $C$DW$T$20, DW_AT_type(*$C$DW$T$19)
    2527                            .dwattr $C$DW$T$20, DW_AT_address_class(0x20)
    2528                    $C$DW$T$94      .dwtag  DW_TAG_restrict_type
    2529                            .dwattr $C$DW$T$94, DW_AT_type(*$C$DW$T$20)
    2530                    $C$DW$T$95      .dwtag  DW_TAG_const_type
    2531                            .dwattr $C$DW$T$95, DW_AT_type(*$C$DW$T$19)
    2532                    $C$DW$T$96      .dwtag  DW_TAG_pointer_type
    2533                            .dwattr $C$DW$T$96, DW_AT_type(*$C$DW$T$95)
    2534                            .dwattr $C$DW$T$96, DW_AT_address_class(0x20)
    2535                    $C$DW$T$97      .dwtag  DW_TAG_typedef, DW_AT_name("uint_least8_t")
    2536                            .dwattr $C$DW$T$97, DW_AT_type(*$C$DW$T$19)
    2537                            .dwattr $C$DW$T$97, DW_AT_language(DW_LANG_C)
    2538                            .dwattr $C$DW$T$97, DW_AT_decl_file("C:/VLIB_Tools/CCSV5_4_0/ccsv5/tools/compiler/C6000/includ
    2539                            .dwattr $C$DW$T$97, DW_AT_decl_line(0x3a)
    2540                            .dwattr $C$DW$T$97, DW_AT_decl_column(0x16)
    2541                    $C$DW$T$7       .dwtag  DW_TAG_base_type
    2542                            .dwattr $C$DW$T$7, DW_AT_encoding(DW_ATE_signed_char)
    2543                            .dwattr $C$DW$T$7, DW_AT_name("wchar_t")
    2544                            .dwattr $C$DW$T$7, DW_AT_byte_size(0x02)
    2545                    $C$DW$T$8       .dwtag  DW_TAG_base_type
    2546                            .dwattr $C$DW$T$8, DW_AT_encoding(DW_ATE_signed)
    2547                            .dwattr $C$DW$T$8, DW_AT_name("short")
    2548                            .dwattr $C$DW$T$8, DW_AT_byte_size(0x02)
    2549                    $C$DW$T$98      .dwtag  DW_TAG_typedef, DW_AT_name("int16_t")
    2550                            .dwattr $C$DW$T$98, DW_AT_type(*$C$DW$T$8)
    2551                            .dwattr $C$DW$T$98, DW_AT_language(DW_LANG_C)
    2552                            .dwattr $C$DW$T$98, DW_AT_decl_file("C:/VLIB_Tools/CCSV5_4_0/ccsv5/tools/compiler/C6000/includ
    2553                            .dwattr $C$DW$T$98, DW_AT_decl_line(0x2c)
    2554                            .dwattr $C$DW$T$98, DW_AT_decl_column(0x1d)
    2555                    $C$DW$T$99      .dwtag  DW_TAG_typedef, DW_AT_name("int_least16_t")
    2556                            .dwattr $C$DW$T$99, DW_AT_type(*$C$DW$T$98)
    2557                            .dwattr $C$DW$T$99, DW_AT_language(DW_LANG_C)
    2558                            .dwattr $C$DW$T$99, DW_AT_decl_file("C:/VLIB_Tools/CCSV5_4_0/ccsv5/tools/compiler/C6000/includ
    2559                            .dwattr $C$DW$T$99, DW_AT_decl_line(0x3c)
    2560                            .dwattr $C$DW$T$99, DW_AT_decl_column(0x17)
    2561                    $C$DW$T$9       .dwtag  DW_TAG_base_type
    2562                            .dwattr $C$DW$T$9, DW_AT_encoding(DW_ATE_unsigned)
    2563                            .dwattr $C$DW$T$9, DW_AT_name("unsigned short")
    2564                            .dwattr $C$DW$T$9, DW_AT_byte_size(0x02)
    2565                    $C$DW$T$75      .dwtag  DW_TAG_typedef, DW_AT_name("uint16_t")
    2566                            .dwattr $C$DW$T$75, DW_AT_type(*$C$DW$T$9)
    2567                            .dwattr $C$DW$T$75, DW_AT_language(DW_LANG_C)
    2568                            .dwattr $C$DW$T$75, DW_AT_decl_file("C:/VLIB_Tools/CCSV5_4_0/ccsv5/tools/compiler/C6000/includ
    2569                            .dwattr $C$DW$T$75, DW_AT_decl_line(0x2d)
TMS320C6x Assembler PC v7.4.2 Thu Mar 19 12:40:35 2015

Tools Copyright (c) 1996-2012 Texas Instruments Incorporated
package/lib/Regression/regress_d_c/./../packages/ti/vlib/src/VLIB_convertUYVYsemipl_to_YUVpl/VLIB_convertUYVYsemipl_to_YUVpl_d.se66 PAGE   55

    2570                            .dwattr $C$DW$T$75, DW_AT_decl_column(0x1c)
    2571                    $C$DW$T$101     .dwtag  DW_TAG_typedef, DW_AT_name("uint_least16_t")
    2572                            .dwattr $C$DW$T$101, DW_AT_type(*$C$DW$T$75)
    2573                            .dwattr $C$DW$T$101, DW_AT_language(DW_LANG_C)
    2574                            .dwattr $C$DW$T$101, DW_AT_decl_file("C:/VLIB_Tools/CCSV5_4_0/ccsv5/tools/compiler/C6000/inclu
    2575                            .dwattr $C$DW$T$101, DW_AT_decl_line(0x3d)
    2576                            .dwattr $C$DW$T$101, DW_AT_decl_column(0x16)
    2577                    $C$DW$T$100     .dwtag  DW_TAG_typedef, DW_AT_name("wchar_t")
    2578                            .dwattr $C$DW$T$100, DW_AT_type(*$C$DW$T$9)
    2579                            .dwattr $C$DW$T$100, DW_AT_language(DW_LANG_C)
    2580                            .dwattr $C$DW$T$100, DW_AT_decl_file("C:/VLIB_Tools/CCSV5_4_0/ccsv5/tools/compiler/C6000/inclu
    2581                            .dwattr $C$DW$T$100, DW_AT_decl_line(0x53)
    2582                            .dwattr $C$DW$T$100, DW_AT_decl_column(0x1a)
    2583                    $C$DW$T$10      .dwtag  DW_TAG_base_type
    2584                            .dwattr $C$DW$T$10, DW_AT_encoding(DW_ATE_signed)
    2585                            .dwattr $C$DW$T$10, DW_AT_name("int")
    2586                            .dwattr $C$DW$T$10, DW_AT_byte_size(0x04)
    2587                    $C$DW$T$123     .dwtag  DW_TAG_typedef, DW_AT_name("fpos_t")
    2588                            .dwattr $C$DW$T$123, DW_AT_type(*$C$DW$T$10)
    2589                            .dwattr $C$DW$T$123, DW_AT_language(DW_LANG_C)
    2590                            .dwattr $C$DW$T$123, DW_AT_decl_file("C:/VLIB_Tools/CCSV5_4_0/ccsv5/tools/compiler/C6000/inclu
    2591                            .dwattr $C$DW$T$123, DW_AT_decl_line(0x53)
    2592                            .dwattr $C$DW$T$123, DW_AT_decl_column(0x0d)
    2593                    $C$DW$T$22      .dwtag  DW_TAG_typedef, DW_AT_name("int32_t")
    2594                            .dwattr $C$DW$T$22, DW_AT_type(*$C$DW$T$10)
    2595                            .dwattr $C$DW$T$22, DW_AT_language(DW_LANG_C)
    2596                            .dwattr $C$DW$T$22, DW_AT_decl_file("C:/VLIB_Tools/CCSV5_4_0/ccsv5/tools/compiler/C6000/includ
    2597                            .dwattr $C$DW$T$22, DW_AT_decl_line(0x2e)
    2598                            .dwattr $C$DW$T$22, DW_AT_decl_column(0x1d)
    2599                    $C$DW$T$115     .dwtag  DW_TAG_typedef, DW_AT_name("VLIB_CCHandle")
    2600                            .dwattr $C$DW$T$115, DW_AT_type(*$C$DW$T$22)
    2601                            .dwattr $C$DW$T$115, DW_AT_language(DW_LANG_C)
    2602                            .dwattr $C$DW$T$115, DW_AT_decl_file(".\..\packages\ti\vlib\src\VLIB_convertUYVYsemipl_to_YUVp
    2603                            .dwattr $C$DW$T$115, DW_AT_decl_line(0x77)
    2604                            .dwattr $C$DW$T$115, DW_AT_decl_column(0x11)
    2605                    
    2606                    $C$DW$T$33      .dwtag  DW_TAG_array_type
    2607                            .dwattr $C$DW$T$33, DW_AT_type(*$C$DW$T$22)
    2608                            .dwattr $C$DW$T$33, DW_AT_language(DW_LANG_C)
    2609                            .dwattr $C$DW$T$33, DW_AT_byte_size(0x10)
    2610                    $C$DW$236       .dwtag  DW_TAG_subrange_type
    2611                            .dwattr $C$DW$236, DW_AT_upper_bound(0x03)
    2612                            .dwendtag $C$DW$T$33
    2613                    
    2614                    $C$DW$T$78      .dwtag  DW_TAG_pointer_type
    2615                            .dwattr $C$DW$T$78, DW_AT_type(*$C$DW$T$22)
    2616                            .dwattr $C$DW$T$78, DW_AT_address_class(0x20)
    2617                    $C$DW$T$118     .dwtag  DW_TAG_typedef, DW_AT_name("int_fast16_t")
    2618                            .dwattr $C$DW$T$118, DW_AT_type(*$C$DW$T$22)
    2619                            .dwattr $C$DW$T$118, DW_AT_language(DW_LANG_C)
    2620                            .dwattr $C$DW$T$118, DW_AT_decl_file("C:/VLIB_Tools/CCSV5_4_0/ccsv5/tools/compiler/C6000/inclu
    2621                            .dwattr $C$DW$T$118, DW_AT_decl_line(0x4b)
    2622                            .dwattr $C$DW$T$118, DW_AT_decl_column(0x17)
    2623                    $C$DW$T$119     .dwtag  DW_TAG_typedef, DW_AT_name("int_fast32_t")
    2624                            .dwattr $C$DW$T$119, DW_AT_type(*$C$DW$T$22)
TMS320C6x Assembler PC v7.4.2 Thu Mar 19 12:40:35 2015

Tools Copyright (c) 1996-2012 Texas Instruments Incorporated
package/lib/Regression/regress_d_c/./../packages/ti/vlib/src/VLIB_convertUYVYsemipl_to_YUVpl/VLIB_convertUYVYsemipl_to_YUVpl_d.se66 PAGE   56

    2625                            .dwattr $C$DW$T$119, DW_AT_language(DW_LANG_C)
    2626                            .dwattr $C$DW$T$119, DW_AT_decl_file("C:/VLIB_Tools/CCSV5_4_0/ccsv5/tools/compiler/C6000/inclu
    2627                            .dwattr $C$DW$T$119, DW_AT_decl_line(0x4e)
    2628                            .dwattr $C$DW$T$119, DW_AT_decl_column(0x17)
    2629                    $C$DW$T$120     .dwtag  DW_TAG_typedef, DW_AT_name("int_fast8_t")
    2630                            .dwattr $C$DW$T$120, DW_AT_type(*$C$DW$T$22)
    2631                            .dwattr $C$DW$T$120, DW_AT_language(DW_LANG_C)
    2632                            .dwattr $C$DW$T$120, DW_AT_decl_file("C:/VLIB_Tools/CCSV5_4_0/ccsv5/tools/compiler/C6000/inclu
    2633                            .dwattr $C$DW$T$120, DW_AT_decl_line(0x49)
    2634                            .dwattr $C$DW$T$120, DW_AT_decl_column(0x17)
    2635                    $C$DW$T$121     .dwtag  DW_TAG_typedef, DW_AT_name("int_least32_t")
    2636                            .dwattr $C$DW$T$121, DW_AT_type(*$C$DW$T$22)
    2637                            .dwattr $C$DW$T$121, DW_AT_language(DW_LANG_C)
    2638                            .dwattr $C$DW$T$121, DW_AT_decl_file("C:/VLIB_Tools/CCSV5_4_0/ccsv5/tools/compiler/C6000/inclu
    2639                            .dwattr $C$DW$T$121, DW_AT_decl_line(0x3e)
    2640                            .dwattr $C$DW$T$121, DW_AT_decl_column(0x17)
    2641                    $C$DW$T$122     .dwtag  DW_TAG_typedef, DW_AT_name("intptr_t")
    2642                            .dwattr $C$DW$T$122, DW_AT_type(*$C$DW$T$10)
    2643                            .dwattr $C$DW$T$122, DW_AT_language(DW_LANG_C)
    2644                            .dwattr $C$DW$T$122, DW_AT_decl_file("C:/VLIB_Tools/CCSV5_4_0/ccsv5/tools/compiler/C6000/inclu
    2645                            .dwattr $C$DW$T$122, DW_AT_decl_line(0x58)
    2646                            .dwattr $C$DW$T$122, DW_AT_decl_column(0x1a)
    2647                    $C$DW$T$11      .dwtag  DW_TAG_base_type
    2648                            .dwattr $C$DW$T$11, DW_AT_encoding(DW_ATE_unsigned)
    2649                            .dwattr $C$DW$T$11, DW_AT_name("unsigned int")
    2650                            .dwattr $C$DW$T$11, DW_AT_byte_size(0x04)
    2651                    $C$DW$T$124     .dwtag  DW_TAG_typedef, DW_AT_name("VLIB_VAL")
    2652                            .dwattr $C$DW$T$124, DW_AT_type(*$C$DW$T$11)
    2653                            .dwattr $C$DW$T$124, DW_AT_language(DW_LANG_C)
    2654                            .dwattr $C$DW$T$124, DW_AT_decl_file(".\..\packages\ti\vlib\src\VLIB_convertUYVYsemipl_to_YUVp
    2655                            .dwattr $C$DW$T$124, DW_AT_decl_line(0x5d)
    2656                            .dwattr $C$DW$T$124, DW_AT_decl_column(0x17)
    2657                    $C$DW$T$135     .dwtag  DW_TAG_typedef, DW_AT_name("clock_t")
    2658                            .dwattr $C$DW$T$135, DW_AT_type(*$C$DW$T$11)
    2659                            .dwattr $C$DW$T$135, DW_AT_language(DW_LANG_C)
    2660                            .dwattr $C$DW$T$135, DW_AT_decl_file("C:/VLIB_Tools/CCSV5_4_0/ccsv5/tools/compiler/C6000/inclu
    2661                            .dwattr $C$DW$T$135, DW_AT_decl_line(0x37)
    2662                            .dwattr $C$DW$T$135, DW_AT_decl_column(0x16)
    2663                    $C$DW$T$52      .dwtag  DW_TAG_typedef, DW_AT_name("size_t")
    2664                            .dwattr $C$DW$T$52, DW_AT_type(*$C$DW$T$11)
    2665                            .dwattr $C$DW$T$52, DW_AT_language(DW_LANG_C)
    2666                            .dwattr $C$DW$T$52, DW_AT_decl_file("C:/VLIB_Tools/CCSV5_4_0/ccsv5/tools/compiler/C6000/includ
    2667                            .dwattr $C$DW$T$52, DW_AT_decl_line(0x45)
    2668                            .dwattr $C$DW$T$52, DW_AT_decl_column(0x19)
    2669                    $C$DW$T$128     .dwtag  DW_TAG_typedef, DW_AT_name("time_t")
    2670                            .dwattr $C$DW$T$128, DW_AT_type(*$C$DW$T$11)
    2671                            .dwattr $C$DW$T$128, DW_AT_language(DW_LANG_C)
    2672                            .dwattr $C$DW$T$128, DW_AT_decl_file("C:/VLIB_Tools/CCSV5_4_0/ccsv5/tools/compiler/C6000/inclu
    2673                            .dwattr $C$DW$T$128, DW_AT_decl_line(0x38)
    2674                            .dwattr $C$DW$T$128, DW_AT_decl_column(0x16)
    2675                    $C$DW$T$21      .dwtag  DW_TAG_typedef, DW_AT_name("uint32_t")
    2676                            .dwattr $C$DW$T$21, DW_AT_type(*$C$DW$T$11)
    2677                            .dwattr $C$DW$T$21, DW_AT_language(DW_LANG_C)
    2678                            .dwattr $C$DW$T$21, DW_AT_decl_file("C:/VLIB_Tools/CCSV5_4_0/ccsv5/tools/compiler/C6000/includ
    2679                            .dwattr $C$DW$T$21, DW_AT_decl_line(0x2f)
TMS320C6x Assembler PC v7.4.2 Thu Mar 19 12:40:35 2015

Tools Copyright (c) 1996-2012 Texas Instruments Incorporated
package/lib/Regression/regress_d_c/./../packages/ti/vlib/src/VLIB_convertUYVYsemipl_to_YUVpl/VLIB_convertUYVYsemipl_to_YUVpl_d.se66 PAGE   57

    2680                            .dwattr $C$DW$T$21, DW_AT_decl_column(0x1c)
    2681                    $C$DW$T$130     .dwtag  DW_TAG_typedef, DW_AT_name("uint_fast16_t")
    2682                            .dwattr $C$DW$T$130, DW_AT_type(*$C$DW$T$21)
    2683                            .dwattr $C$DW$T$130, DW_AT_language(DW_LANG_C)
    2684                            .dwattr $C$DW$T$130, DW_AT_decl_file("C:/VLIB_Tools/CCSV5_4_0/ccsv5/tools/compiler/C6000/inclu
    2685                            .dwattr $C$DW$T$130, DW_AT_decl_line(0x4c)
    2686                            .dwattr $C$DW$T$130, DW_AT_decl_column(0x16)
    2687                    $C$DW$T$131     .dwtag  DW_TAG_typedef, DW_AT_name("uint_fast32_t")
    2688                            .dwattr $C$DW$T$131, DW_AT_type(*$C$DW$T$21)
    2689                            .dwattr $C$DW$T$131, DW_AT_language(DW_LANG_C)
    2690                            .dwattr $C$DW$T$131, DW_AT_decl_file("C:/VLIB_Tools/CCSV5_4_0/ccsv5/tools/compiler/C6000/inclu
    2691                            .dwattr $C$DW$T$131, DW_AT_decl_line(0x4f)
