TMS320C6x Assembler PC v7.4.2 Thu Mar 19 12:41:42 2015

Tools Copyright (c) 1996-2012 Texas Instruments Incorporated
package/lib/Regression/regress_d_c/./../packages/ti/vlib/src/VLIB_histogram_1D_U16/VLIB_histogram_1D_U16_d.se66 PAGE    1

       1                    ;******************************************************************************
       2                    ;* TMS320C6x C/C++ Codegen                                          PC v7.4.2 *
       3                    ;* Date/Time created: Thu Mar 19 12:41:41 2015                                *
       4                    ;******************************************************************************
       5                            .compiler_opts --abi=eabi --c64p_l1d_workaround=off --endian=little --hll_source=on --long_pre
       6                    
       7                    ;******************************************************************************
       8                    ;* GLOBAL FILE PARAMETERS                                                     *
       9                    ;*                                                                            *
      10                    ;*   Architecture      : TMS320C66xx                                          *
      11                    ;*   Optimization      : Enabled at level 3                                   *
      12                    ;*   Optimizing for    : Speed                                                *
      13                    ;*                       Based on options: -o3, no -ms                        *
      14                    ;*   Endian            : Little                                               *
      15                    ;*   Interrupt Thrshld : 10000                                                *
      16                    ;*   Data Access Model : Far                                                  *
      17                    ;*   Pipelining        : Enabled                                              *
      18                    ;*   Speculate Loads   : Enabled with threshold = 0                           *
      19                    ;*   Memory Aliases    : Presume are aliases (pessimistic)                    *
      20                    ;*   Debug Info        : DWARF Debug w/Optimization                           *
      21                    ;*                                                                            *
      22                    ;******************************************************************************
      23                    
      24                            .asg    A15, FP
      25                            .asg    B14, DP
      26                            .asg    B15, SP
      27                            .global $bss
      28                    
      29                    
      30                    $C$DW$CU        .dwtag  DW_TAG_compile_unit
      31                            .dwattr $C$DW$CU, DW_AT_name("./../packages/ti/vlib/src/VLIB_histogram_1D_U16/VLIB_histogram_1
      32                            .dwattr $C$DW$CU, DW_AT_producer("TI TMS320C6x C/C++ Codegen PC v7.4.2 Copyright (c) 1996-2012
      33                            .dwattr $C$DW$CU, DW_AT_TI_version(0x01)
      34                            .dwattr $C$DW$CU, DW_AT_comp_dir("c:\nightlybuilds\vlib\ti\vlib\vlib\examples")
      35                    
      36                    $C$DW$1 .dwtag  DW_TAG_subprogram, DW_AT_name("_itoll")
      37                            .dwattr $C$DW$1, DW_AT_TI_symbol_name("_itoll")
      38                            .dwattr $C$DW$1, DW_AT_type(*$C$DW$T$14)
      39                            .dwattr $C$DW$1, DW_AT_declaration
      40                            .dwattr $C$DW$1, DW_AT_external
      41                            .dwattr $C$DW$1, DW_AT_decl_file("C:/VLIB_Tools/CCSV5_4_0/ccsv5/tools/compiler/C6000/include/c
      42                            .dwattr $C$DW$1, DW_AT_decl_line(0xdf)
      43                            .dwattr $C$DW$1, DW_AT_decl_column(0x0b)
      44                    $C$DW$2 .dwtag  DW_TAG_formal_parameter
      45                            .dwattr $C$DW$2, DW_AT_type(*$C$DW$T$11)
      46                    $C$DW$3 .dwtag  DW_TAG_formal_parameter
      47                            .dwattr $C$DW$3, DW_AT_type(*$C$DW$T$11)
      48                            .dwendtag $C$DW$1
      49                    
      50                    
      51                    $C$DW$4 .dwtag  DW_TAG_subprogram, DW_AT_name("printf")
      52                            .dwattr $C$DW$4, DW_AT_TI_symbol_name("printf")
      53                            .dwattr $C$DW$4, DW_AT_type(*$C$DW$T$10)
      54                            .dwattr $C$DW$4, DW_AT_declaration
      55                            .dwattr $C$DW$4, DW_AT_external
TMS320C6x Assembler PC v7.4.2 Thu Mar 19 12:41:42 2015

Tools Copyright (c) 1996-2012 Texas Instruments Incorporated
package/lib/Regression/regress_d_c/./../packages/ti/vlib/src/VLIB_histogram_1D_U16/VLIB_histogram_1D_U16_d.se66 PAGE    2

      56                            .dwattr $C$DW$4, DW_AT_decl_file("C:/VLIB_Tools/CCSV5_4_0/ccsv5/tools/compiler/C6000/include/s
      57                            .dwattr $C$DW$4, DW_AT_decl_line(0xb8)
      58                            .dwattr $C$DW$4, DW_AT_decl_column(0x19)
      59                    $C$DW$5 .dwtag  DW_TAG_formal_parameter
      60                            .dwattr $C$DW$5, DW_AT_type(*$C$DW$T$103)
      61                    $C$DW$6 .dwtag  DW_TAG_unspecified_parameters
      62                            .dwendtag $C$DW$4
      63                    
      64                    
      65                    $C$DW$7 .dwtag  DW_TAG_subprogram, DW_AT_name("sprintf")
      66                            .dwattr $C$DW$7, DW_AT_TI_symbol_name("sprintf")
      67                            .dwattr $C$DW$7, DW_AT_type(*$C$DW$T$10)
      68                            .dwattr $C$DW$7, DW_AT_declaration
      69                            .dwattr $C$DW$7, DW_AT_external
      70                            .dwattr $C$DW$7, DW_AT_decl_file("C:/VLIB_Tools/CCSV5_4_0/ccsv5/tools/compiler/C6000/include/s
      71                            .dwattr $C$DW$7, DW_AT_decl_line(0xbc)
      72                            .dwattr $C$DW$7, DW_AT_decl_column(0x19)
      73                    $C$DW$8 .dwtag  DW_TAG_formal_parameter
      74                            .dwattr $C$DW$8, DW_AT_type(*$C$DW$T$59)
      75                    $C$DW$9 .dwtag  DW_TAG_formal_parameter
      76                            .dwattr $C$DW$9, DW_AT_type(*$C$DW$T$103)
      77                    $C$DW$10        .dwtag  DW_TAG_unspecified_parameters
      78                            .dwendtag $C$DW$7
      79                    
      80                    
      81                    $C$DW$11        .dwtag  DW_TAG_subprogram, DW_AT_name("memset")
      82                            .dwattr $C$DW$11, DW_AT_TI_symbol_name("memset")
      83                            .dwattr $C$DW$11, DW_AT_type(*$C$DW$T$3)
      84                            .dwattr $C$DW$11, DW_AT_declaration
      85                            .dwattr $C$DW$11, DW_AT_external
      86                            .dwattr $C$DW$11, DW_AT_decl_file("C:/VLIB_Tools/CCSV5_4_0/ccsv5/tools/compiler/C6000/include/
      87                            .dwattr $C$DW$11, DW_AT_decl_line(0x5b)
      88                            .dwattr $C$DW$11, DW_AT_decl_column(0x16)
      89                    $C$DW$12        .dwtag  DW_TAG_formal_parameter
      90                            .dwattr $C$DW$12, DW_AT_type(*$C$DW$T$3)
      91                    $C$DW$13        .dwtag  DW_TAG_formal_parameter
      92                            .dwattr $C$DW$13, DW_AT_type(*$C$DW$T$10)
      93                    $C$DW$14        .dwtag  DW_TAG_formal_parameter
      94                            .dwattr $C$DW$14, DW_AT_type(*$C$DW$T$52)
      95                            .dwendtag $C$DW$11
      96                    
      97                    
      98                    $C$DW$15        .dwtag  DW_TAG_subprogram, DW_AT_name("malloc")
      99                            .dwattr $C$DW$15, DW_AT_TI_symbol_name("malloc")
     100                            .dwattr $C$DW$15, DW_AT_type(*$C$DW$T$3)
     101                            .dwattr $C$DW$15, DW_AT_declaration
     102                            .dwattr $C$DW$15, DW_AT_external
     103                            .dwattr $C$DW$15, DW_AT_decl_file("C:/VLIB_Tools/CCSV5_4_0/ccsv5/tools/compiler/C6000/include/
     104                            .dwattr $C$DW$15, DW_AT_decl_line(0x82)
     105                            .dwattr $C$DW$15, DW_AT_decl_column(0x19)
     106                    $C$DW$16        .dwtag  DW_TAG_formal_parameter
     107                            .dwattr $C$DW$16, DW_AT_type(*$C$DW$T$52)
     108                            .dwendtag $C$DW$15
     109                    
     110                    
TMS320C6x Assembler PC v7.4.2 Thu Mar 19 12:41:42 2015

Tools Copyright (c) 1996-2012 Texas Instruments Incorporated
package/lib/Regression/regress_d_c/./../packages/ti/vlib/src/VLIB_histogram_1D_U16/VLIB_histogram_1D_U16_d.se66 PAGE    3

     111                    $C$DW$17        .dwtag  DW_TAG_subprogram, DW_AT_name("free")
     112                            .dwattr $C$DW$17, DW_AT_TI_symbol_name("free")
     113                            .dwattr $C$DW$17, DW_AT_declaration
     114                            .dwattr $C$DW$17, DW_AT_external
     115                            .dwattr $C$DW$17, DW_AT_decl_file("C:/VLIB_Tools/CCSV5_4_0/ccsv5/tools/compiler/C6000/include/
     116                            .dwattr $C$DW$17, DW_AT_decl_line(0x86)
     117                            .dwattr $C$DW$17, DW_AT_decl_column(0x19)
     118                    $C$DW$18        .dwtag  DW_TAG_formal_parameter
     119                            .dwattr $C$DW$18, DW_AT_type(*$C$DW$T$3)
     120                            .dwendtag $C$DW$17
     121                    
     122                    
     123                    $C$DW$19        .dwtag  DW_TAG_subprogram, DW_AT_name("VLIB_cache_inval")
     124                            .dwattr $C$DW$19, DW_AT_TI_symbol_name("VLIB_cache_inval")
     125                            .dwattr $C$DW$19, DW_AT_type(*$C$DW$T$10)
     126                            .dwattr $C$DW$19, DW_AT_declaration
     127                            .dwattr $C$DW$19, DW_AT_external
     128                            .dwattr $C$DW$19, DW_AT_decl_file(".\..\packages\ti\vlib\src\VLIB_histogram_1D_U16\..\common\c
     129                            .dwattr $C$DW$19, DW_AT_decl_line(0x58)
     130                            .dwattr $C$DW$19, DW_AT_decl_column(0x05)
     131                    
     132                    $C$DW$20        .dwtag  DW_TAG_subprogram, DW_AT_name("VLIB_profile_init")
     133                            .dwattr $C$DW$20, DW_AT_TI_symbol_name("VLIB_profile_init")
     134                            .dwattr $C$DW$20, DW_AT_declaration
     135                            .dwattr $C$DW$20, DW_AT_external
     136                            .dwattr $C$DW$20, DW_AT_decl_file(".\..\packages\ti\vlib\src\VLIB_histogram_1D_U16\..\common\V
     137                            .dwattr $C$DW$20, DW_AT_decl_line(0x7b)
     138                            .dwattr $C$DW$20, DW_AT_decl_column(0x06)
     139                    $C$DW$21        .dwtag  DW_TAG_formal_parameter
     140                            .dwattr $C$DW$21, DW_AT_type(*$C$DW$T$10)
     141                    $C$DW$22        .dwtag  DW_TAG_formal_parameter
     142                            .dwattr $C$DW$22, DW_AT_type(*$C$DW$T$59)
     143                            .dwendtag $C$DW$20
     144                    
     145                    
     146                    $C$DW$23        .dwtag  DW_TAG_subprogram, DW_AT_name("VLIB_formula_add_test")
     147                            .dwattr $C$DW$23, DW_AT_TI_symbol_name("VLIB_formula_add_test")
     148                            .dwattr $C$DW$23, DW_AT_declaration
     149                            .dwattr $C$DW$23, DW_AT_external
     150                            .dwattr $C$DW$23, DW_AT_decl_file(".\..\packages\ti\vlib\src\VLIB_histogram_1D_U16\..\common\V
     151                            .dwattr $C$DW$23, DW_AT_decl_line(0x7d)
     152                            .dwattr $C$DW$23, DW_AT_decl_column(0x06)
     153                    $C$DW$24        .dwtag  DW_TAG_formal_parameter
     154                            .dwattr $C$DW$24, DW_AT_type(*$C$DW$T$10)
     155                    $C$DW$25        .dwtag  DW_TAG_formal_parameter
     156                            .dwattr $C$DW$25, DW_AT_type(*$C$DW$T$10)
     157                    $C$DW$26        .dwtag  DW_TAG_formal_parameter
     158                            .dwattr $C$DW$26, DW_AT_type(*$C$DW$T$10)
     159                    $C$DW$27        .dwtag  DW_TAG_formal_parameter
     160                            .dwattr $C$DW$27, DW_AT_type(*$C$DW$T$10)
     161                    $C$DW$28        .dwtag  DW_TAG_formal_parameter
     162                            .dwattr $C$DW$28, DW_AT_type(*$C$DW$T$59)
     163                    $C$DW$29        .dwtag  DW_TAG_formal_parameter
     164                            .dwattr $C$DW$29, DW_AT_type(*$C$DW$T$10)
     165                            .dwendtag $C$DW$23
TMS320C6x Assembler PC v7.4.2 Thu Mar 19 12:41:42 2015

Tools Copyright (c) 1996-2012 Texas Instruments Incorporated
package/lib/Regression/regress_d_c/./../packages/ti/vlib/src/VLIB_histogram_1D_U16/VLIB_histogram_1D_U16_d.se66 PAGE    4

     166                    
     167                    
     168                    $C$DW$30        .dwtag  DW_TAG_subprogram, DW_AT_name("VLIB_skip_test")
     169                            .dwattr $C$DW$30, DW_AT_TI_symbol_name("VLIB_skip_test")
     170                            .dwattr $C$DW$30, DW_AT_declaration
     171                            .dwattr $C$DW$30, DW_AT_external
     172                            .dwattr $C$DW$30, DW_AT_decl_file(".\..\packages\ti\vlib\src\VLIB_histogram_1D_U16\..\common\V
     173                            .dwattr $C$DW$30, DW_AT_decl_line(0x7e)
     174                            .dwattr $C$DW$30, DW_AT_decl_column(0x06)
     175                    $C$DW$31        .dwtag  DW_TAG_formal_parameter
     176                            .dwattr $C$DW$31, DW_AT_type(*$C$DW$T$59)
     177                            .dwendtag $C$DW$30
     178                    
     179                    
     180                    $C$DW$32        .dwtag  DW_TAG_subprogram, DW_AT_name("VLIB_profile_cycle_report")
     181                            .dwattr $C$DW$32, DW_AT_TI_symbol_name("VLIB_profile_cycle_report")
     182                            .dwattr $C$DW$32, DW_AT_declaration
     183                            .dwattr $C$DW$32, DW_AT_external
     184                            .dwattr $C$DW$32, DW_AT_decl_file(".\..\packages\ti\vlib\src\VLIB_histogram_1D_U16\..\common\V
     185                            .dwattr $C$DW$32, DW_AT_decl_line(0x7f)
     186                            .dwattr $C$DW$32, DW_AT_decl_column(0x06)
     187                    $C$DW$33        .dwtag  DW_TAG_formal_parameter
     188                            .dwattr $C$DW$33, DW_AT_type(*$C$DW$T$10)
     189                    $C$DW$34        .dwtag  DW_TAG_formal_parameter
     190                            .dwattr $C$DW$34, DW_AT_type(*$C$DW$T$59)
     191                    $C$DW$35        .dwtag  DW_TAG_formal_parameter
     192                            .dwattr $C$DW$35, DW_AT_type(*$C$DW$T$59)
     193                            .dwendtag $C$DW$32
     194                    
     195                    
     196                    $C$DW$36        .dwtag  DW_TAG_subprogram, DW_AT_name("initStack")
     197                            .dwattr $C$DW$36, DW_AT_TI_symbol_name("initStack")
     198                            .dwattr $C$DW$36, DW_AT_declaration
     199                            .dwattr $C$DW$36, DW_AT_external
     200                            .dwattr $C$DW$36, DW_AT_decl_file(".\..\packages\ti\vlib\src\VLIB_histogram_1D_U16\..\common\V
     201                            .dwattr $C$DW$36, DW_AT_decl_line(0x80)
     202                            .dwattr $C$DW$36, DW_AT_decl_column(0x06)
     203                    $C$DW$37        .dwtag  DW_TAG_formal_parameter
     204                            .dwattr $C$DW$37, DW_AT_type(*$C$DW$T$68)
     205                            .dwendtag $C$DW$36
     206                    
     207                    
     208                    $C$DW$38        .dwtag  DW_TAG_subprogram, DW_AT_name("setStackDepth")
     209                            .dwattr $C$DW$38, DW_AT_TI_symbol_name("setStackDepth")
     210                            .dwattr $C$DW$38, DW_AT_declaration
     211                            .dwattr $C$DW$38, DW_AT_external
     212                            .dwattr $C$DW$38, DW_AT_decl_file(".\..\packages\ti\vlib\src\VLIB_histogram_1D_U16\..\common\V
     213                            .dwattr $C$DW$38, DW_AT_decl_line(0x81)
     214                            .dwattr $C$DW$38, DW_AT_decl_column(0x06)
     215                    
     216                    $C$DW$39        .dwtag  DW_TAG_subprogram, DW_AT_name("getSP")
     217                            .dwattr $C$DW$39, DW_AT_TI_symbol_name("getSP")
     218                            .dwattr $C$DW$39, DW_AT_type(*$C$DW$T$68)
     219                            .dwattr $C$DW$39, DW_AT_declaration
     220                            .dwattr $C$DW$39, DW_AT_external
TMS320C6x Assembler PC v7.4.2 Thu Mar 19 12:41:42 2015

Tools Copyright (c) 1996-2012 Texas Instruments Incorporated
package/lib/Regression/regress_d_c/./../packages/ti/vlib/src/VLIB_histogram_1D_U16/VLIB_histogram_1D_U16_d.se66 PAGE    5

     221                            .dwattr $C$DW$39, DW_AT_decl_file(".\..\packages\ti\vlib\src\VLIB_histogram_1D_U16\..\common\V
     222                            .dwattr $C$DW$39, DW_AT_decl_line(0x82)
     223                            .dwattr $C$DW$39, DW_AT_decl_column(0x0a)
     224                    
     225                    $C$DW$40        .dwtag  DW_TAG_subprogram, DW_AT_name("VLIB_stack_memory")
     226                            .dwattr $C$DW$40, DW_AT_TI_symbol_name("VLIB_stack_memory")
     227                            .dwattr $C$DW$40, DW_AT_declaration
     228                            .dwattr $C$DW$40, DW_AT_external
     229                            .dwattr $C$DW$40, DW_AT_decl_file(".\..\packages\ti\vlib\src\VLIB_histogram_1D_U16\..\common\V
     230                            .dwattr $C$DW$40, DW_AT_decl_line(0x83)
     231                            .dwattr $C$DW$40, DW_AT_decl_column(0x06)
     232                    
     233                    $C$DW$41        .dwtag  DW_TAG_subprogram, DW_AT_name("VLIB_compare_mem")
     234                            .dwattr $C$DW$41, DW_AT_TI_symbol_name("VLIB_compare_mem")
     235                            .dwattr $C$DW$41, DW_AT_type(*$C$DW$T$22)
     236                            .dwattr $C$DW$41, DW_AT_declaration
     237                            .dwattr $C$DW$41, DW_AT_external
     238                            .dwattr $C$DW$41, DW_AT_decl_file(".\..\packages\ti\vlib\src\VLIB_histogram_1D_U16\../common/V
     239                            .dwattr $C$DW$41, DW_AT_decl_line(0x6f)
     240                            .dwattr $C$DW$41, DW_AT_decl_column(0x11)
     241                    $C$DW$42        .dwtag  DW_TAG_formal_parameter
     242                            .dwattr $C$DW$42, DW_AT_type(*$C$DW$T$51)
     243                    $C$DW$43        .dwtag  DW_TAG_formal_parameter
     244                            .dwattr $C$DW$43, DW_AT_type(*$C$DW$T$51)
     245                    $C$DW$44        .dwtag  DW_TAG_formal_parameter
     246                            .dwattr $C$DW$44, DW_AT_type(*$C$DW$T$22)
     247                            .dwendtag $C$DW$41
     248                    
     249                    
     250                    $C$DW$45        .dwtag  DW_TAG_subprogram, DW_AT_name("VLIB_fillBuffer")
     251                            .dwattr $C$DW$45, DW_AT_TI_symbol_name("VLIB_fillBuffer")
     252                            .dwattr $C$DW$45, DW_AT_declaration
     253                            .dwattr $C$DW$45, DW_AT_external
     254                            .dwattr $C$DW$45, DW_AT_decl_file(".\..\packages\ti\vlib\src\VLIB_histogram_1D_U16\../common/V
     255                            .dwattr $C$DW$45, DW_AT_decl_line(0x77)
     256                            .dwattr $C$DW$45, DW_AT_decl_column(0x06)
     257                    $C$DW$46        .dwtag  DW_TAG_formal_parameter
     258                            .dwattr $C$DW$46, DW_AT_type(*$C$DW$T$19)
     259                    $C$DW$47        .dwtag  DW_TAG_formal_parameter
     260                            .dwattr $C$DW$47, DW_AT_type(*$C$DW$T$19)
     261                    $C$DW$48        .dwtag  DW_TAG_formal_parameter
     262                            .dwattr $C$DW$48, DW_AT_type(*$C$DW$T$3)
     263                    $C$DW$49        .dwtag  DW_TAG_formal_parameter
     264                            .dwattr $C$DW$49, DW_AT_type(*$C$DW$T$3)
     265                    $C$DW$50        .dwtag  DW_TAG_formal_parameter
     266                            .dwattr $C$DW$50, DW_AT_type(*$C$DW$T$20)
     267                    $C$DW$51        .dwtag  DW_TAG_formal_parameter
     268                            .dwattr $C$DW$51, DW_AT_type(*$C$DW$T$20)
     269                    $C$DW$52        .dwtag  DW_TAG_formal_parameter
     270                            .dwattr $C$DW$52, DW_AT_type(*$C$DW$T$20)
     271                    $C$DW$53        .dwtag  DW_TAG_formal_parameter
     272                            .dwattr $C$DW$53, DW_AT_type(*$C$DW$T$19)
     273                    $C$DW$54        .dwtag  DW_TAG_formal_parameter
     274                            .dwattr $C$DW$54, DW_AT_type(*$C$DW$T$59)
     275                            .dwendtag $C$DW$45
TMS320C6x Assembler PC v7.4.2 Thu Mar 19 12:41:42 2015

Tools Copyright (c) 1996-2012 Texas Instruments Incorporated
package/lib/Regression/regress_d_c/./../packages/ti/vlib/src/VLIB_histogram_1D_U16/VLIB_histogram_1D_U16_d.se66 PAGE    6

     276                    
     277                    
     278                    $C$DW$55        .dwtag  DW_TAG_subprogram, DW_AT_name("VLIB_malloc")
     279                            .dwattr $C$DW$55, DW_AT_TI_symbol_name("VLIB_malloc")
     280                            .dwattr $C$DW$55, DW_AT_type(*$C$DW$T$3)
     281                            .dwattr $C$DW$55, DW_AT_declaration
     282                            .dwattr $C$DW$55, DW_AT_external
     283                            .dwattr $C$DW$55, DW_AT_decl_file(".\..\packages\ti\vlib\src\VLIB_histogram_1D_U16\../common/V
     284                            .dwattr $C$DW$55, DW_AT_decl_line(0xaf)
     285                            .dwattr $C$DW$55, DW_AT_decl_column(0x07)
     286                    $C$DW$56        .dwtag  DW_TAG_formal_parameter
     287                            .dwattr $C$DW$56, DW_AT_type(*$C$DW$T$52)
     288                            .dwendtag $C$DW$55
     289                    
     290                    
     291                    $C$DW$57        .dwtag  DW_TAG_subprogram, DW_AT_name("VLIB_free")
     292                            .dwattr $C$DW$57, DW_AT_TI_symbol_name("VLIB_free")
     293                            .dwattr $C$DW$57, DW_AT_declaration
     294                            .dwattr $C$DW$57, DW_AT_external
     295                            .dwattr $C$DW$57, DW_AT_decl_file(".\..\packages\ti\vlib\src\VLIB_histogram_1D_U16\../common/V
     296                            .dwattr $C$DW$57, DW_AT_decl_line(0xb4)
     297                            .dwattr $C$DW$57, DW_AT_decl_column(0x07)
     298                    $C$DW$58        .dwtag  DW_TAG_formal_parameter
     299                            .dwattr $C$DW$58, DW_AT_type(*$C$DW$T$3)
     300                            .dwendtag $C$DW$57
     301                    
     302                    
     303                    $C$DW$59        .dwtag  DW_TAG_subprogram, DW_AT_name("VLIB_histogram_1D_U16")
     304                            .dwattr $C$DW$59, DW_AT_TI_symbol_name("VLIB_histogram_1D_U16")
     305                            .dwattr $C$DW$59, DW_AT_type(*$C$DW$T$22)
     306                            .dwattr $C$DW$59, DW_AT_declaration
     307                            .dwattr $C$DW$59, DW_AT_external
     308                            .dwattr $C$DW$59, DW_AT_decl_file(".\..\packages\ti\vlib\src\VLIB_histogram_1D_U16\c66/VLIB_hi
     309                            .dwattr $C$DW$59, DW_AT_decl_line(0x78)
     310                            .dwattr $C$DW$59, DW_AT_decl_column(0x09)
     311                    $C$DW$60        .dwtag  DW_TAG_formal_parameter
     312                            .dwattr $C$DW$60, DW_AT_type(*$C$DW$T$100)
     313                    $C$DW$61        .dwtag  DW_TAG_formal_parameter
     314                            .dwattr $C$DW$61, DW_AT_type(*$C$DW$T$112)
     315                    $C$DW$62        .dwtag  DW_TAG_formal_parameter
     316                            .dwattr $C$DW$62, DW_AT_type(*$C$DW$T$112)
     317                    $C$DW$63        .dwtag  DW_TAG_formal_parameter
     318                            .dwattr $C$DW$63, DW_AT_type(*$C$DW$T$98)
     319                    $C$DW$64        .dwtag  DW_TAG_formal_parameter
     320                            .dwattr $C$DW$64, DW_AT_type(*$C$DW$T$100)
     321                    $C$DW$65        .dwtag  DW_TAG_formal_parameter
     322                            .dwattr $C$DW$65, DW_AT_type(*$C$DW$T$97)
     323                    $C$DW$66        .dwtag  DW_TAG_formal_parameter
     324                            .dwattr $C$DW$66, DW_AT_type(*$C$DW$T$97)
     325                            .dwendtag $C$DW$59
     326                    
     327                    
     328                    $C$DW$67        .dwtag  DW_TAG_subprogram, DW_AT_name("VLIB_histogram_1D_U16_cn")
     329                            .dwattr $C$DW$67, DW_AT_TI_symbol_name("VLIB_histogram_1D_U16_cn")
     330                            .dwattr $C$DW$67, DW_AT_type(*$C$DW$T$22)
TMS320C6x Assembler PC v7.4.2 Thu Mar 19 12:41:42 2015

Tools Copyright (c) 1996-2012 Texas Instruments Incorporated
package/lib/Regression/regress_d_c/./../packages/ti/vlib/src/VLIB_histogram_1D_U16/VLIB_histogram_1D_U16_d.se66 PAGE    7

     331                            .dwattr $C$DW$67, DW_AT_declaration
     332                            .dwattr $C$DW$67, DW_AT_external
     333                            .dwattr $C$DW$67, DW_AT_decl_file(".\..\packages\ti\vlib\src\VLIB_histogram_1D_U16\VLIB_histog
     334                            .dwattr $C$DW$67, DW_AT_decl_line(0x20)
     335                            .dwattr $C$DW$67, DW_AT_decl_column(0x09)
     336                    $C$DW$68        .dwtag  DW_TAG_formal_parameter
     337                            .dwattr $C$DW$68, DW_AT_type(*$C$DW$T$97)
     338                    $C$DW$69        .dwtag  DW_TAG_formal_parameter
     339                            .dwattr $C$DW$69, DW_AT_type(*$C$DW$T$112)
     340                    $C$DW$70        .dwtag  DW_TAG_formal_parameter
     341                            .dwattr $C$DW$70, DW_AT_type(*$C$DW$T$112)
     342                    $C$DW$71        .dwtag  DW_TAG_formal_parameter
     343                            .dwattr $C$DW$71, DW_AT_type(*$C$DW$T$98)
     344                    $C$DW$72        .dwtag  DW_TAG_formal_parameter
     345                            .dwattr $C$DW$72, DW_AT_type(*$C$DW$T$97)
     346                    $C$DW$73        .dwtag  DW_TAG_formal_parameter
     347                            .dwattr $C$DW$73, DW_AT_type(*$C$DW$T$97)
     348                    $C$DW$74        .dwtag  DW_TAG_formal_parameter
     349                            .dwattr $C$DW$74, DW_AT_type(*$C$DW$T$97)
     350                            .dwendtag $C$DW$67
     351                    
     352                    
     353                    $C$DW$75        .dwtag  DW_TAG_subprogram, DW_AT_name("histogram_1D_U16_getTestParams")
     354                            .dwattr $C$DW$75, DW_AT_TI_symbol_name("histogram_1D_U16_getTestParams")
     355                            .dwattr $C$DW$75, DW_AT_declaration
     356                            .dwattr $C$DW$75, DW_AT_external
     357                            .dwattr $C$DW$75, DW_AT_decl_file(".\..\packages\ti\vlib\src\VLIB_histogram_1D_U16\VLIB_histog
     358                            .dwattr $C$DW$75, DW_AT_decl_line(0x2e)
     359                            .dwattr $C$DW$75, DW_AT_decl_column(0x06)
     360                    $C$DW$76        .dwtag  DW_TAG_formal_parameter
     361                            .dwattr $C$DW$76, DW_AT_type(*$C$DW$T$44)
     362                    $C$DW$77        .dwtag  DW_TAG_formal_parameter
     363                            .dwattr $C$DW$77, DW_AT_type(*$C$DW$T$76)
     364                            .dwendtag $C$DW$75
     365                    
     366                    
     367                    $C$DW$78        .dwtag  DW_TAG_subprogram, DW_AT_name("VLIB_histogram_1D_Init_U16_cn")
     368                            .dwattr $C$DW$78, DW_AT_TI_symbol_name("VLIB_histogram_1D_Init_U16_cn")
     369                            .dwattr $C$DW$78, DW_AT_type(*$C$DW$T$22)
     370                            .dwattr $C$DW$78, DW_AT_declaration
     371                            .dwattr $C$DW$78, DW_AT_external
     372                            .dwattr $C$DW$78, DW_AT_decl_file(".\..\packages\ti\vlib\src\VLIB_histogram_1D_U16\../VLIB_his
     373                            .dwattr $C$DW$78, DW_AT_decl_line(0x20)
     374                            .dwattr $C$DW$78, DW_AT_decl_column(0x09)
     375                    $C$DW$79        .dwtag  DW_TAG_formal_parameter
     376                            .dwattr $C$DW$79, DW_AT_type(*$C$DW$T$97)
     377                    $C$DW$80        .dwtag  DW_TAG_formal_parameter
     378                            .dwattr $C$DW$80, DW_AT_type(*$C$DW$T$112)
     379                    $C$DW$81        .dwtag  DW_TAG_formal_parameter
     380                            .dwattr $C$DW$81, DW_AT_type(*$C$DW$T$97)
     381                            .dwendtag $C$DW$78
     382                    
     383                    $C$DW$82        .dwtag  DW_TAG_variable, DW_AT_name("test_cases")
     384                            .dwattr $C$DW$82, DW_AT_TI_symbol_name("test_cases")
     385                            .dwattr $C$DW$82, DW_AT_type(*$C$DW$T$22)
TMS320C6x Assembler PC v7.4.2 Thu Mar 19 12:41:42 2015

Tools Copyright (c) 1996-2012 Texas Instruments Incorporated
package/lib/Regression/regress_d_c/./../packages/ti/vlib/src/VLIB_histogram_1D_U16/VLIB_histogram_1D_U16_d.se66 PAGE    8

     386                            .dwattr $C$DW$82, DW_AT_declaration
     387                            .dwattr $C$DW$82, DW_AT_external
     388                            .dwattr $C$DW$82, DW_AT_decl_file(".\..\packages\ti\vlib\src\VLIB_histogram_1D_U16\../common/V
     389                            .dwattr $C$DW$82, DW_AT_decl_line(0x60)
     390                            .dwattr $C$DW$82, DW_AT_decl_column(0x13)
     391                    $C$DW$83        .dwtag  DW_TAG_variable, DW_AT_name("act_kernel")
     392                            .dwattr $C$DW$83, DW_AT_TI_symbol_name("act_kernel")
     393                            .dwattr $C$DW$83, DW_AT_type(*$C$DW$T$10)
     394                            .dwattr $C$DW$83, DW_AT_declaration
     395                            .dwattr $C$DW$83, DW_AT_external
     396                            .dwattr $C$DW$83, DW_AT_decl_file(".\..\packages\ti\vlib\src\VLIB_histogram_1D_U16\../common/V
     397                            .dwattr $C$DW$83, DW_AT_decl_line(0x62)
     398                            .dwattr $C$DW$83, DW_AT_decl_column(0x13)
     399                    $C$DW$84        .dwtag  DW_TAG_variable, DW_AT_name("desc")
     400                            .dwattr $C$DW$84, DW_AT_TI_symbol_name("desc")
     401                            .dwattr $C$DW$84, DW_AT_type(*$C$DW$T$166)
     402                            .dwattr $C$DW$84, DW_AT_declaration
     403                            .dwattr $C$DW$84, DW_AT_external
     404                            .dwattr $C$DW$84, DW_AT_decl_file(".\..\packages\ti\vlib\src\VLIB_histogram_1D_U16\../common/V
     405                            .dwattr $C$DW$84, DW_AT_decl_line(0x63)
     406                            .dwattr $C$DW$84, DW_AT_decl_column(0x13)
     407                    $C$DW$85        .dwtag  DW_TAG_variable, DW_AT_name("testPatternString")
     408                            .dwattr $C$DW$85, DW_AT_TI_symbol_name("testPatternString")
     409                            .dwattr $C$DW$85, DW_AT_type(*$C$DW$T$166)
     410                            .dwattr $C$DW$85, DW_AT_declaration
     411                            .dwattr $C$DW$85, DW_AT_external
     412                            .dwattr $C$DW$85, DW_AT_decl_file(".\..\packages\ti\vlib\src\VLIB_histogram_1D_U16\../common/V
     413                            .dwattr $C$DW$85, DW_AT_decl_line(0x64)
     414                            .dwattr $C$DW$85, DW_AT_decl_column(0x13)
     415                    $C$DW$86        .dwtag  DW_TAG_variable, DW_AT_name("est_test")
     416                            .dwattr $C$DW$86, DW_AT_TI_symbol_name("est_test")
     417                            .dwattr $C$DW$86, DW_AT_type(*$C$DW$T$10)
     418                            .dwattr $C$DW$86, DW_AT_declaration
     419                            .dwattr $C$DW$86, DW_AT_external
     420                            .dwattr $C$DW$86, DW_AT_decl_file(".\..\packages\ti\vlib\src\VLIB_histogram_1D_U16\..\common\V
     421                            .dwattr $C$DW$86, DW_AT_decl_line(0x75)
     422                            .dwattr $C$DW$86, DW_AT_decl_column(0x14)
     423                    $C$DW$87        .dwtag  DW_TAG_variable, DW_AT_name("beg_count")
     424                            .dwattr $C$DW$87, DW_AT_TI_symbol_name("beg_count")
     425                            .dwattr $C$DW$87, DW_AT_type(*$C$DW$T$156)
     426                            .dwattr $C$DW$87, DW_AT_declaration
     427                            .dwattr $C$DW$87, DW_AT_external
     428                            .dwattr $C$DW$87, DW_AT_decl_file(".\..\packages\ti\vlib\src\VLIB_histogram_1D_U16\..\common\V
     429                            .dwattr $C$DW$87, DW_AT_decl_line(0x76)
     430                            .dwattr $C$DW$87, DW_AT_decl_column(0x14)
     431                    $C$DW$88        .dwtag  DW_TAG_variable, DW_AT_name("end_count")
     432                            .dwattr $C$DW$88, DW_AT_TI_symbol_name("end_count")
     433                            .dwattr $C$DW$88, DW_AT_type(*$C$DW$T$156)
     434                            .dwattr $C$DW$88, DW_AT_declaration
     435                            .dwattr $C$DW$88, DW_AT_external
     436                            .dwattr $C$DW$88, DW_AT_decl_file(".\..\packages\ti\vlib\src\VLIB_histogram_1D_U16\..\common\V
     437                            .dwattr $C$DW$88, DW_AT_decl_line(0x77)
     438                            .dwattr $C$DW$88, DW_AT_decl_column(0x14)
     439                    $C$DW$89        .dwtag  DW_TAG_variable, DW_AT_name("overhead")
     440                            .dwattr $C$DW$89, DW_AT_TI_symbol_name("overhead")
TMS320C6x Assembler PC v7.4.2 Thu Mar 19 12:41:42 2015

Tools Copyright (c) 1996-2012 Texas Instruments Incorporated
package/lib/Regression/regress_d_c/./../packages/ti/vlib/src/VLIB_histogram_1D_U16/VLIB_histogram_1D_U16_d.se66 PAGE    9

     441                            .dwattr $C$DW$89, DW_AT_type(*$C$DW$T$156)
     442                            .dwattr $C$DW$89, DW_AT_declaration
     443                            .dwattr $C$DW$89, DW_AT_external
     444                            .dwattr $C$DW$89, DW_AT_decl_file(".\..\packages\ti\vlib\src\VLIB_histogram_1D_U16\..\common\V
     445                            .dwattr $C$DW$89, DW_AT_decl_line(0x78)
     446                            .dwattr $C$DW$89, DW_AT_decl_column(0x14)
     447                    $C$DW$90        .dwtag  DW_TAG_variable, DW_AT_name("cycles")
     448                            .dwattr $C$DW$90, DW_AT_TI_symbol_name("cycles")
     449                            .dwattr $C$DW$90, DW_AT_type(*$C$DW$T$157)
     450                            .dwattr $C$DW$90, DW_AT_declaration
     451                            .dwattr $C$DW$90, DW_AT_external
     452                            .dwattr $C$DW$90, DW_AT_decl_file(".\..\packages\ti\vlib\src\VLIB_histogram_1D_U16\..\common\V
     453                            .dwattr $C$DW$90, DW_AT_decl_line(0x79)
     454                            .dwattr $C$DW$90, DW_AT_decl_column(0x14)
     455                    ;       C:\VLIB_Tools\CCSV5_4_0\ccsv5\tools\compiler\C6000\bin\opt6x.exe C:\\Users\\gtbldadm\\AppData\
     456 00000000                   .sect   ".text"
     457                            .clink
     458                            .global VLIB_histogram_1D_U16_d
     459                    
     460                    $C$DW$91        .dwtag  DW_TAG_subprogram, DW_AT_name("VLIB_histogram_1D_U16_d")
     461                            .dwattr $C$DW$91, DW_AT_low_pc(VLIB_histogram_1D_U16_d)
     462                            .dwattr $C$DW$91, DW_AT_high_pc(0x00)
     463                            .dwattr $C$DW$91, DW_AT_TI_symbol_name("VLIB_histogram_1D_U16_d")
     464                            .dwattr $C$DW$91, DW_AT_external
     465                            .dwattr $C$DW$91, DW_AT_TI_begin_file("./../packages/ti/vlib/src/VLIB_histogram_1D_U16/VLIB_hi
     466                            .dwattr $C$DW$91, DW_AT_TI_begin_line(0x28)
     467                            .dwattr $C$DW$91, DW_AT_TI_begin_column(0x06)
     468                            .dwattr $C$DW$91, DW_AT_decl_file("./../packages/ti/vlib/src/VLIB_histogram_1D_U16/VLIB_histog
     469                            .dwattr $C$DW$91, DW_AT_decl_line(0x28)
     470                            .dwattr $C$DW$91, DW_AT_decl_column(0x06)
     471                            .dwattr $C$DW$91, DW_AT_TI_max_frame_size(0x70)
     472                            .dwpsn  file "./../packages/ti/vlib/src/VLIB_histogram_1D_U16/VLIB_histogram_1D_U16_d.c",line 
     473                    
     474                            .dwfde $C$DW$CIE, VLIB_histogram_1D_U16_d
     475                    $C$DW$92        .dwtag  DW_TAG_formal_parameter, DW_AT_name("LevelOfFeedback")
     476                            .dwattr $C$DW$92, DW_AT_TI_symbol_name("LevelOfFeedback")
     477                            .dwattr $C$DW$92, DW_AT_type(*$C$DW$T$19)
     478                            .dwattr $C$DW$92, DW_AT_location[DW_OP_reg4]
     479                    ;----------------------------------------------------------------------
     480                    ;  40 | void VLIB_histogram_1D_U16_d (uint8_t LevelOfFeedback)                 
     481                    ;----------------------------------------------------------------------
     482                    
     483                    ;******************************************************************************
     484                    ;* FUNCTION NAME: VLIB_histogram_1D_U16_d                                     *
     485                    ;*                                                                            *
     486                    ;*   Regs Modified     : A0,A1,A2,A3,A4,A5,A6,A7,A8,A9,A10,A11,A12,A13,A14,   *
     487                    ;*                           A15,B0,B1,B2,B3,B4,B5,B6,B7,B8,B9,B10,B11,B12,   *
     488                    ;*                           B13,SP,A16,A17,A18,A19,A20,A21,A22,A23,A24,A25,  *
     489                    ;*                           A26,A27,A28,A29,A30,A31,B16,B17,B18,B19,B20,B21, *
     490                    ;*                           B22,B23,B24,B25,B26,B27,B28,B29,B30,B31          *
     491                    ;*   Regs Used         : A0,A1,A2,A3,A4,A5,A6,A7,A8,A9,A10,A11,A12,A13,A14,   *
     492                    ;*                           A15,B0,B1,B2,B3,B4,B5,B6,B7,B8,B9,B10,B11,B12,   *
     493                    ;*                           B13,DP,SP,A16,A17,A18,A19,A20,A21,A22,A23,A24,   *
     494                    ;*                           A25,A26,A27,A28,A29,A30,A31,B16,B17,B18,B19,B20, *
     495                    ;*                           B21,B22,B23,B24,B25,B26,B27,B28,B29,B30,B31      *
TMS320C6x Assembler PC v7.4.2 Thu Mar 19 12:41:42 2015

Tools Copyright (c) 1996-2012 Texas Instruments Incorporated
package/lib/Regression/regress_d_c/./../packages/ti/vlib/src/VLIB_histogram_1D_U16/VLIB_histogram_1D_U16_d.se66 PAGE   10

     496                    ;*   Local Frame Size  : 24 Args + 28 Auto + 56 Save = 108 byte               *
     497                    ;******************************************************************************
     498                    
     499                    ;******************************************************************************
     500                    ;*                                                                            *
     501                    ;* Using -g (debug) with optimization (-o3) may disable key optimizations!    *
     502                    ;*                                                                            *
     503                    ;******************************************************************************
     504 00000000           VLIB_histogram_1D_U16_d:
     505                    ;** --------------------------------------------------------------------------*
     506                    ;          EXCLUSIVE CPU CYCLES: 15
     507                    ;** 47  -----------------------    histogram_1D_U16_getTestParams(&prm, &test_cases);
     508                    ;** 50  -----------------------    VLIB_profile_init(2, "VLIB_histogram_1D_U16");
     509                    ;** 53  -----------------------    if ( test_cases <= 0 ) goto g15;
     510                            .dwcfi  cfa_offset, 0
     511                    ;----------------------------------------------------------------------
     512                    ;  42 | int32_t    tpi;  /* test parameter index */                            
     513                    ;  45 | histogram_1D_U16_testParams_t   *prm;                                  
     514                    ;----------------------------------------------------------------------
     515 00000000     25f7             STW     .D2T1   A11,*SP--(8)      ; |41| 
     516                            .dwcfi  cfa_offset, 8
     517                            .dwcfi  save_reg_to_mem, 11, 0
     518 00000002     2577             STW     .D2T1   A10,*SP--(8)      ; |41| 
     519                            .dwcfi  cfa_offset, 16
     520                            .dwcfi  save_reg_to_mem, 10, -8
     521 00000004     9677             STDW    .D2T2   B13:B12,*SP--     ; |41| 
     522                            .dwcfi  cfa_offset, 24
     523                            .dwcfi  save_reg_to_mem, 29, -12
     524                            .dwcfi  save_reg_to_mem, 28, -16
     525 00000006     9577             STDW    .D2T2   B11:B10,*SP--     ; |41| 
     526                            .dwcfi  cfa_offset, 32
     527                            .dwcfi  save_reg_to_mem, 27, -20
     528                            .dwcfi  save_reg_to_mem, 26, -24
     529 00000008     8777             STDW    .D2T1   A15:A14,*SP--     ; |41| 
     530                            .dwcfi  cfa_offset, 40
     531                            .dwcfi  save_reg_to_mem, 15, -28
     532                            .dwcfi  save_reg_to_mem, 14, -32
     533 0000000a     8677             STDW    .D2T1   A13:A12,*SP--     ; |41| 
     534                            .dwcfi  cfa_offset, 48
     535                            .dwcfi  save_reg_to_mem, 13, -36
     536                            .dwcfi  save_reg_to_mem, 12, -40
     537 0000000c 01be14f6             STW     .D2T2   B3,*SP--(64)      ; |41| 
     538                            .dwcfi  cfa_offset, 112
     539                            .dwcfi  save_reg_to_mem, 19, 0
     540                    $C$DW$93        .dwtag  DW_TAG_variable, DW_AT_name("$O$C2")
     541                            .dwattr $C$DW$93, DW_AT_TI_symbol_name("$O$C2")
     542                            .dwattr $C$DW$93, DW_AT_type(*$C$DW$T$40)
     543                            .dwattr $C$DW$93, DW_AT_location[DW_OP_reg20]
     544                    $C$DW$94        .dwtag  DW_TAG_variable, DW_AT_name("$O$C3")
     545                            .dwattr $C$DW$94, DW_AT_TI_symbol_name("$O$C3")
     546                            .dwattr $C$DW$94, DW_AT_type(*$C$DW$T$10)
     547                            .dwattr $C$DW$94, DW_AT_location[DW_OP_reg4]
     548                    $C$DW$95        .dwtag  DW_TAG_variable, DW_AT_name("$O$C4")
     549                            .dwattr $C$DW$95, DW_AT_TI_symbol_name("$O$C4")
     550                            .dwattr $C$DW$95, DW_AT_type(*$C$DW$T$10)
TMS320C6x Assembler PC v7.4.2 Thu Mar 19 12:41:42 2015

Tools Copyright (c) 1996-2012 Texas Instruments Incorporated
package/lib/Regression/regress_d_c/./../packages/ti/vlib/src/VLIB_histogram_1D_U16/VLIB_histogram_1D_U16_d.se66 PAGE   11

     551                            .dwattr $C$DW$95, DW_AT_location[DW_OP_reg3]
     552                    $C$DW$96        .dwtag  DW_TAG_variable, DW_AT_name("$O$C5")
     553                            .dwattr $C$DW$96, DW_AT_TI_symbol_name("$O$C5")
     554                            .dwattr $C$DW$96, DW_AT_type(*$C$DW$T$10)
     555                            .dwattr $C$DW$96, DW_AT_location[DW_OP_reg3]
     556                    $C$DW$97        .dwtag  DW_TAG_variable, DW_AT_name("$O$C6")
     557                            .dwattr $C$DW$97, DW_AT_TI_symbol_name("$O$C6")
     558                            .dwattr $C$DW$97, DW_AT_type(*$C$DW$T$10)
     559                            .dwattr $C$DW$97, DW_AT_location[DW_OP_reg3]
     560                    $C$DW$98        .dwtag  DW_TAG_variable, DW_AT_name("$O$C7")
     561                            .dwattr $C$DW$98, DW_AT_TI_symbol_name("$O$C7")
     562                            .dwattr $C$DW$98, DW_AT_type(*$C$DW$T$10)
     563                            .dwattr $C$DW$98, DW_AT_location[DW_OP_reg4]
     564                    $C$DW$99        .dwtag  DW_TAG_variable, DW_AT_name("$O$C8")
     565                            .dwattr $C$DW$99, DW_AT_TI_symbol_name("$O$C8")
     566                            .dwattr $C$DW$99, DW_AT_type(*$C$DW$T$10)
     567                            .dwattr $C$DW$99, DW_AT_location[DW_OP_reg20]
     568                    $C$DW$100       .dwtag  DW_TAG_variable, DW_AT_name("$O$U12")
     569                            .dwattr $C$DW$100, DW_AT_TI_symbol_name("$O$U12")
     570                            .dwattr $C$DW$100, DW_AT_type(*$C$DW$T$40)
     571                            .dwattr $C$DW$100, DW_AT_location[DW_OP_reg13]
     572                    $C$DW$101       .dwtag  DW_TAG_variable, DW_AT_name("$O$K44")
     573                            .dwattr $C$DW$101, DW_AT_TI_symbol_name("$O$K44")
     574                            .dwattr $C$DW$101, DW_AT_type(*$C$DW$T$80)
     575                            .dwattr $C$DW$101, DW_AT_location[DW_OP_reg27]
     576                    $C$DW$102       .dwtag  DW_TAG_variable, DW_AT_name("$O$U64")
     577                            .dwattr $C$DW$102, DW_AT_TI_symbol_name("$O$U64")
     578                            .dwattr $C$DW$102, DW_AT_type(*$C$DW$T$40)
     579                            .dwattr $C$DW$102, DW_AT_location[DW_OP_reg4]
     580                    $C$DW$103       .dwtag  DW_TAG_variable, DW_AT_name("$O$U62")
     581                            .dwattr $C$DW$103, DW_AT_TI_symbol_name("$O$U62")
     582                            .dwattr $C$DW$103, DW_AT_type(*$C$DW$T$95)
     583                            .dwattr $C$DW$103, DW_AT_location[DW_OP_reg22]
     584                    $C$DW$104       .dwtag  DW_TAG_variable, DW_AT_name("$O$U11")
     585                            .dwattr $C$DW$104, DW_AT_TI_symbol_name("$O$U11")
     586                            .dwattr $C$DW$104, DW_AT_type(*$C$DW$T$10)
     587                            .dwattr $C$DW$104, DW_AT_location[DW_OP_reg28]
     588                    $C$DW$105       .dwtag  DW_TAG_variable, DW_AT_name("$O$K85")
     589                            .dwattr $C$DW$105, DW_AT_TI_symbol_name("$O$K85")
     590                            .dwattr $C$DW$105, DW_AT_type(*$C$DW$T$155)
     591                            .dwattr $C$DW$105, DW_AT_location[DW_OP_reg12]
     592                    $C$DW$106       .dwtag  DW_TAG_variable, DW_AT_name("$O$U93")
     593                            .dwattr $C$DW$106, DW_AT_TI_symbol_name("$O$U93")
     594                            .dwattr $C$DW$106, DW_AT_type(*$C$DW$T$95)
     595                            .dwattr $C$DW$106, DW_AT_location[DW_OP_reg0]
     596                    $C$DW$107       .dwtag  DW_TAG_variable, DW_AT_name("$O$K104")
     597                            .dwattr $C$DW$107, DW_AT_TI_symbol_name("$O$K104")
     598                            .dwattr $C$DW$107, DW_AT_type(*$C$DW$T$80)
     599                            .dwattr $C$DW$107, DW_AT_location[DW_OP_reg8]
     600                    $C$DW$108       .dwtag  DW_TAG_variable, DW_AT_name("tpi")
     601                            .dwattr $C$DW$108, DW_AT_TI_symbol_name("tpi")
     602                            .dwattr $C$DW$108, DW_AT_type(*$C$DW$T$22)
     603                            .dwattr $C$DW$108, DW_AT_location[DW_OP_reg14]
     604                    $C$DW$109       .dwtag  DW_TAG_variable, DW_AT_name("prm")
     605                            .dwattr $C$DW$109, DW_AT_TI_symbol_name("prm")
TMS320C6x Assembler PC v7.4.2 Thu Mar 19 12:41:42 2015

Tools Copyright (c) 1996-2012 Texas Instruments Incorporated
package/lib/Regression/regress_d_c/./../packages/ti/vlib/src/VLIB_histogram_1D_U16/VLIB_histogram_1D_U16_d.se66 PAGE   12

     606                            .dwattr $C$DW$109, DW_AT_type(*$C$DW$T$43)
     607                            .dwattr $C$DW$109, DW_AT_location[DW_OP_breg31 28]
     608                    $C$DW$110       .dwtag  DW_TAG_variable, DW_AT_name("status_nat_vs_int")
     609                            .dwattr $C$DW$110, DW_AT_TI_symbol_name("status_nat_vs_int")
     610                            .dwattr $C$DW$110, DW_AT_type(*$C$DW$T$22)
     611                            .dwattr $C$DW$110, DW_AT_location[DW_OP_reg26]
     612                    $C$DW$111       .dwtag  DW_TAG_variable, DW_AT_name("status_nat_vs_ref")
     613                            .dwattr $C$DW$111, DW_AT_TI_symbol_name("status_nat_vs_ref")
     614                            .dwattr $C$DW$111, DW_AT_type(*$C$DW$T$22)
     615                            .dwattr $C$DW$111, DW_AT_location[DW_OP_reg15]
     616                    $C$DW$112       .dwtag  DW_TAG_variable, DW_AT_name("binEdges")
     617                            .dwattr $C$DW$112, DW_AT_TI_symbol_name("binEdges")
     618                            .dwattr $C$DW$112, DW_AT_type(*$C$DW$T$21)
     619                            .dwattr $C$DW$112, DW_AT_location[DW_OP_breg31 32]
     620                    $C$DW$113       .dwtag  DW_TAG_variable, DW_AT_name("histArray")
     621                            .dwattr $C$DW$113, DW_AT_TI_symbol_name("histArray")
     622                            .dwattr $C$DW$113, DW_AT_type(*$C$DW$T$21)
     623                            .dwattr $C$DW$113, DW_AT_location[DW_OP_breg31 36]
     624                    $C$DW$114       .dwtag  DW_TAG_variable, DW_AT_name("X")
     625                            .dwattr $C$DW$114, DW_AT_TI_symbol_name("X")
     626                            .dwattr $C$DW$114, DW_AT_type(*$C$DW$T$21)
     627                            .dwattr $C$DW$114, DW_AT_location[DW_OP_breg31 40]
     628                    $C$DW$115       .dwtag  DW_TAG_variable, DW_AT_name("H")
     629                            .dwattr $C$DW$115, DW_AT_TI_symbol_name("H")
     630                            .dwattr $C$DW$115, DW_AT_type(*$C$DW$T$21)
     631                            .dwattr $C$DW$115, DW_AT_location[DW_OP_breg31 44]
     632                    $C$DW$116       .dwtag  DW_TAG_variable, DW_AT_name("H_cn")
     633                            .dwattr $C$DW$116, DW_AT_TI_symbol_name("H_cn")
     634                            .dwattr $C$DW$116, DW_AT_type(*$C$DW$T$21)
     635                            .dwattr $C$DW$116, DW_AT_location[DW_OP_breg31 48]
     636                    $C$DW$117       .dwtag  DW_TAG_variable, DW_AT_name("H1")
     637                            .dwattr $C$DW$117, DW_AT_TI_symbol_name("H1")
     638                            .dwattr $C$DW$117, DW_AT_type(*$C$DW$T$21)
     639                            .dwattr $C$DW$117, DW_AT_location[DW_OP_breg31 52]
     640                    $C$DW$118       .dwtag  DW_TAG_variable, DW_AT_name("$O$v1")
     641                            .dwattr $C$DW$118, DW_AT_TI_symbol_name("$O$v1")
     642                            .dwattr $C$DW$118, DW_AT_type(*$C$DW$T$43)
     643                            .dwattr $C$DW$118, DW_AT_location[DW_OP_reg23]
     644                    $C$DW$119       .dwtag  DW_TAG_variable, DW_AT_name("$O$v1")
     645                            .dwattr $C$DW$119, DW_AT_TI_symbol_name("$O$v1")
     646                            .dwattr $C$DW$119, DW_AT_type(*$C$DW$T$43)
     647                            .dwattr $C$DW$119, DW_AT_location[DW_OP_reg20]
     648                    $C$DW$120       .dwtag  DW_TAG_variable, DW_AT_name("$O$v2")
     649                            .dwattr $C$DW$120, DW_AT_TI_symbol_name("$O$v2")
     650                            .dwattr $C$DW$120, DW_AT_type(*$C$DW$T$156)
     651                            .dwattr $C$DW$120, DW_AT_location[DW_OP_reg22]
     652                    $C$DW$121       .dwtag  DW_TAG_variable, DW_AT_name("$O$v2")
     653                            .dwattr $C$DW$121, DW_AT_TI_symbol_name("$O$v2")
     654                            .dwattr $C$DW$121, DW_AT_type(*$C$DW$T$156)
     655                            .dwattr $C$DW$121, DW_AT_location[DW_OP_reg22]
     656 00000010 0200002a!            MVKL    .S2     test_cases,B4
     657 00000014 0200006a!            MVKH    .S2     test_cases,B4
     658                    $C$DW$122       .dwtag  DW_TAG_TI_branch
     659                            .dwattr $C$DW$122, DW_AT_low_pc(0x00)
     660                            .dwattr $C$DW$122, DW_AT_name("histogram_1D_U16_getTestParams")
TMS320C6x Assembler PC v7.4.2 Thu Mar 19 12:41:42 2015

Tools Copyright (c) 1996-2012 Texas Instruments Incorporated
package/lib/Regression/regress_d_c/./../packages/ti/vlib/src/VLIB_histogram_1D_U16/VLIB_histogram_1D_U16_d.se66 PAGE   13

     661                            .dwattr $C$DW$122, DW_AT_TI_call
     662                    
     663 00000018 10000013!            CALLP   .S2     histogram_1D_U16_getTestParams,B3
     664 00000020 120007fc  ||         ADDAW   .D1X    SP,7,A4           ; |47| 
     665                    
     666                            .dwpsn  file "./../packages/ti/vlib/src/VLIB_histogram_1D_U16/VLIB_histogram_1D_U16_d.c",line 
     667                    ;----------------------------------------------------------------------
     668                    ;  47 | histogram_1D_U16_getTestParams(&prm, &test_cases);                     
     669                    ;----------------------------------------------------------------------
     670 00000024           $C$RL0:    ; CALL OCCURS {histogram_1D_U16_getTestParams} {0}  ; |47| 
     671                    ;** --------------------------------------------------------------------------*
     672                    ;          EXCLUSIVE CPU CYCLES: 8
     673 00000024 0200002a!            MVKL    .S2     $C$SL1+0,B4
     674 00000028 0200006a!            MVKH    .S2     $C$SL1+0,B4
     675                    $C$DW$123       .dwtag  DW_TAG_TI_branch
     676                            .dwattr $C$DW$123, DW_AT_low_pc(0x00)
     677                            .dwattr $C$DW$123, DW_AT_name("VLIB_profile_init")
     678                            .dwattr $C$DW$123, DW_AT_TI_call
     679                    
     680 0000002c 10000013!            CALLP   .S2     VLIB_profile_init,B3
     681 00000030 0208a359  ||         MVK     .L1     0x2,A4            ; |50| 
     682                    
     683                            .dwpsn  file "./../packages/ti/vlib/src/VLIB_histogram_1D_U16/VLIB_histogram_1D_U16_d.c",line 
     684                    ;----------------------------------------------------------------------
     685                    ;  50 | VLIB_profile_init(2, "VLIB_histogram_1D_U16");                         
     686                    ;----------------------------------------------------------------------
     687 00000040           $C$RL1:    ; CALL OCCURS {VLIB_profile_init} {0}  ; |50| 
     688                    ;** --------------------------------------------------------------------------*
     689                    ;          EXCLUSIVE CPU CYCLES: 14
     690                    ;**     -----------------------    K$44 = &testPatternString[0];
     691                    ;**     -----------------------    K$104 = &desc[0];
     692                    ;**     -----------------------    U$12 = prm-32;
     693                    ;**     -----------------------    U$11 = 0;
     694                    ;** 53  -----------------------    tpi = 0;
     695                    ;**     -----------------------    #pragma LOOP_FLAGS(5120u)
     696                    
     697 00000040 01800029!            MVKL    .S1     test_cases,A3
     698 00000044 02bce2e7  ||         LDW     .D2T2   *+SP(28),B5
     699 00000048 0580002b! ||         MVKL    .S2     testPatternString,B11
     700 0000004c 0700a359  ||         ZERO    .L1     A14               ; |53| 
     701 00000050 0600a35a  ||         ZERO    .L2     B12               ; |53| 
     702                    
     703 00000054 01800068!            MVKH    .S1     test_cases,A3
     704                            .dwpsn  file "./../packages/ti/vlib/src/VLIB_histogram_1D_U16/VLIB_histogram_1D_U16_d.c",line 
     705                    ;----------------------------------------------------------------------
     706                    ;  53 | for( tpi=0; tpi < test_cases; tpi++ ) {                                
     707                    ;  56 |     int32_t    status_nat_vs_int = vlib_KERNEL_PASS; /* Test status : N
     708                    ;     | atural c vs. Optimized */                                              
     709                    ;  57 |     int32_t    status_nat_vs_ref = vlib_KERNEL_PASS; /* Test status : N
     710                    ;     | atural c vs. Static Reference */                                       
     711                    ;----------------------------------------------------------------------
     712 00000058 020c0264             LDW     .D1T1   *A3,A4            ; |53| 
     713 0000005c 0580006a!            MVKH    .S2     testPatternString,B11
     714 00000060 02801028             MVK     .S1     32,A5
     715 00000064 0694b2f8             SUB     .L1X    B5,A5,A13
TMS320C6x Assembler PC v7.4.2 Thu Mar 19 12:41:42 2015

Tools Copyright (c) 1996-2012 Texas Instruments Incorporated
package/lib/Regression/regress_d_c/./../packages/ti/vlib/src/VLIB_histogram_1D_U16/VLIB_histogram_1D_U16_d.se66 PAGE   14

     716                            .dwpsn  file "./../packages/ti/vlib/src/VLIB_histogram_1D_U16/VLIB_histogram_1D_U16_d.c",line 
     717                    ;----------------------------------------------------------------------
     718                    ;  60 | uint16_t   *binEdges       =  (uint16_t *) VLIB_malloc(prm[tpi].numBins
     719                    ;     |  * sizeof(uint16_t));                                                  
     720                    ;----------------------------------------------------------------------
     721 00000068 06801050             ADDK    .S1     32,A13            ; |60| 
     722                            .dwpsn  file "./../packages/ti/vlib/src/VLIB_histogram_1D_U16/VLIB_histogram_1D_U16_d.c",line 
     723 0000006c 00100ad8             CMPGT   .L1     A4,0,A0           ; |53| 
     724                    
     725 00000070 d1398121     [!A0]   BNOP    .S1     $C$L9,4           ; |53| 
     726 00000074 c1b4a264  || [ A0]   LDW     .D1T1   *+A13(20),A3      ; |60| 
     727                    
     728                            .dwpsn  file "./../packages/ti/vlib/src/VLIB_histogram_1D_U16/VLIB_histogram_1D_U16_d.c",line 
     729 00000078 020c6078             ADD     .L1     A3,A3,A4          ; |60| 
     730                            .dwpsn  file "./../packages/ti/vlib/src/VLIB_histogram_1D_U16/VLIB_histogram_1D_U16_d.c",line 
     731                               ; BRANCHCC OCCURS {$C$L9}         ; |53| 
     732                    ;** --------------------------------------------------------------------------*
     733                    ;**   BEGIN LOOP $C$L1
     734                    ;** --------------------------------------------------------------------------*
     735 0000007c           $C$L1:    
     736                            .dwpsn  file "./../packages/ti/vlib/src/VLIB_histogram_1D_U16/VLIB_histogram_1D_U16_d.c",line 
     737 0000007c           $C$DW$L$VLIB_histogram_1D_U16_d$4$B:
     738                    ;          EXCLUSIVE CPU CYCLES: 6
     739                    ;**     -----------------------g3:
     740                    ;** 60  -----------------------    binEdges = VLIB_malloc((unsigned)((*(U$12 += 32)).numBins*2));
     741                    ;** 61  -----------------------    histArray = VLIB_malloc((unsigned)((*U$12).maxSize*2));
     742                    ;** 62  -----------------------    X = VLIB_malloc((unsigned)((*U$12).numX*2));
     743                    ;** 63  -----------------------    H = VLIB_malloc((unsigned)((*U$12).numBins*2));
     744                    ;** 64  -----------------------    H_cn = malloc((unsigned)((*U$12).numBins*2));
     745                    ;** 65  -----------------------    H1 = VLIB_malloc((unsigned)((*U$12).numBins*2));
     746                    ;** 68  -----------------------    if ( !((binEdges != NULL)&(histArray != NULL)&(X != NULL)&(H != NUL
     747                            .dwpsn  file "./../packages/ti/vlib/src/VLIB_histogram_1D_U16/VLIB_histogram_1D_U16_d.c",line 
     748                    $C$DW$124       .dwtag  DW_TAG_TI_branch
     749                            .dwattr $C$DW$124, DW_AT_low_pc(0x00)
     750                            .dwattr $C$DW$124, DW_AT_name("VLIB_malloc")
     751                            .dwattr $C$DW$124, DW_AT_TI_call
     752 0000007c 00000010!            CALL    .S1     VLIB_malloc       ; |60| 
     753 00000080 01818162             ADDKPC  .S2     $C$RL2,B3,4       ; |60| 
     754 00000084           $C$RL2:    ; CALL OCCURS {VLIB_malloc} {0}   ; |60| 
     755 00000084           $C$DW$L$VLIB_histogram_1D_U16_d$4$E:
     756                    ;** --------------------------------------------------------------------------*
     757 00000084           $C$DW$L$VLIB_histogram_1D_U16_d$5$B:
     758                    ;          EXCLUSIVE CPU CYCLES: 55
     759                            .dwpsn  file "./../packages/ti/vlib/src/VLIB_histogram_1D_U16/VLIB_histogram_1D_U16_d.c",line 
     760                    ;----------------------------------------------------------------------
     761                    ;  61 | uint16_t   *histArray      =  (uint16_t *) VLIB_malloc(prm[tpi].maxSize
     762                    ;     |  * sizeof(uint16_t));                                                  
     763                    ;----------------------------------------------------------------------
     764 00000084 01b4e264             LDW     .D1T1   *+A13(28),A3      ; |61| 
     765                            .dwpsn  file "./../packages/ti/vlib/src/VLIB_histogram_1D_U16/VLIB_histogram_1D_U16_d.c",line 
     766 00000088 05100fd8             MV      .L1     A4,A10            ; |60| 
     767 0000008c 053d02f4             STW     .D2T1   A10,*+SP(32)      ; |60| 
     768 00000090     2c6e             NOP             2
     769                    $C$DW$125       .dwtag  DW_TAG_TI_branch
     770                            .dwattr $C$DW$125, DW_AT_low_pc(0x00)
TMS320C6x Assembler PC v7.4.2 Thu Mar 19 12:41:42 2015

Tools Copyright (c) 1996-2012 Texas Instruments Incorporated
package/lib/Regression/regress_d_c/./../packages/ti/vlib/src/VLIB_histogram_1D_U16/VLIB_histogram_1D_U16_d.se66 PAGE   15

     771                            .dwattr $C$DW$125, DW_AT_name("VLIB_malloc")
     772                            .dwattr $C$DW$125, DW_AT_TI_call
     773                    
     774 00000094 10000012!            CALLP   .S2     VLIB_malloc,B3
     775 00000092     61c0  ||         ADD     .L1     A3,A3,A4          ; |61| 
     776                    
     777                            .dwpsn  file "./../packages/ti/vlib/src/VLIB_histogram_1D_U16/VLIB_histogram_1D_U16_d.c",line 
     778 00000098           $C$RL3:    ; CALL OCCURS {VLIB_malloc} {0}   ; |61| 
     779                            .dwpsn  file "./../packages/ti/vlib/src/VLIB_histogram_1D_U16/VLIB_histogram_1D_U16_d.c",line 
     780                    ;----------------------------------------------------------------------
     781                    ;  62 | uint16_t   *X              =  (uint16_t *) VLIB_malloc(prm[tpi].numX *
     782                    ;     | sizeof(uint16_t));                                                     
     783                    ;----------------------------------------------------------------------
     784 00000098 01b48264             LDW     .D1T1   *+A13(16),A3      ; |62| 
     785                            .dwpsn  file "./../packages/ti/vlib/src/VLIB_histogram_1D_U16/VLIB_histogram_1D_U16_d.c",line 
     786 000000a0 05900fd8             MV      .L1     A4,A11            ; |61| 
     787 000000a4 05bd22f4             STW     .D2T1   A11,*+SP(36)      ; |61| 
     788 000000a8     2c6e             NOP             2
     789                    $C$DW$126       .dwtag  DW_TAG_TI_branch
     790                            .dwattr $C$DW$126, DW_AT_low_pc(0x00)
     791                            .dwattr $C$DW$126, DW_AT_name("VLIB_malloc")
     792                            .dwattr $C$DW$126, DW_AT_TI_call
     793                    
     794 000000ac 10000012!            CALLP   .S2     VLIB_malloc,B3
     795 000000aa     61c0  ||         ADD     .L1     A3,A3,A4          ; |62| 
     796                    
     797                            .dwpsn  file "./../packages/ti/vlib/src/VLIB_histogram_1D_U16/VLIB_histogram_1D_U16_d.c",line 
     798 000000b0           $C$RL4:    ; CALL OCCURS {VLIB_malloc} {0}   ; |62| 
     799                            .dwpsn  file "./../packages/ti/vlib/src/VLIB_histogram_1D_U16/VLIB_histogram_1D_U16_d.c",line 
     800                    ;----------------------------------------------------------------------
     801                    ;  63 | uint16_t   *H              =  (uint16_t *) VLIB_malloc(prm[tpi].numBins
     802                    ;     |  * sizeof(uint16_t));                                                  
     803                    ;----------------------------------------------------------------------
     804 000000b0 01b4a264             LDW     .D1T1   *+A13(20),A3      ; |63| 
     805                            .dwpsn  file "./../packages/ti/vlib/src/VLIB_histogram_1D_U16/VLIB_histogram_1D_U16_d.c",line 
     806 000000b4 06901fda             MV      .L2X    A4,B13            ; |62| 
     807 000000b8 06bd42f6             STW     .D2T2   B13,*+SP(40)      ; |62| 
     808 000000c0     2c6e             NOP             2
     809                    $C$DW$127       .dwtag  DW_TAG_TI_branch
     810                            .dwattr $C$DW$127, DW_AT_low_pc(0x00)
     811                            .dwattr $C$DW$127, DW_AT_name("VLIB_malloc")
     812                            .dwattr $C$DW$127, DW_AT_TI_call
     813                    
     814 000000c4 10000012!            CALLP   .S2     VLIB_malloc,B3
     815 000000c2     61c0  ||         ADD     .L1     A3,A3,A4          ; |63| 
     816                    
     817                            .dwpsn  file "./../packages/ti/vlib/src/VLIB_histogram_1D_U16/VLIB_histogram_1D_U16_d.c",line 
     818 000000c8           $C$RL5:    ; CALL OCCURS {VLIB_malloc} {0}   ; |63| 
     819                            .dwpsn  file "./../packages/ti/vlib/src/VLIB_histogram_1D_U16/VLIB_histogram_1D_U16_d.c",line 
     820                    ;----------------------------------------------------------------------
     821                    ;  64 | uint16_t   *H_cn           =  (uint16_t *) malloc(prm[tpi].numBins * si
     822                    ;     | zeof(uint16_t));                                                       
     823                    ;----------------------------------------------------------------------
     824 000000c8 01b4a264             LDW     .D1T1   *+A13(20),A3      ; |64| 
     825                            .dwpsn  file "./../packages/ti/vlib/src/VLIB_histogram_1D_U16/VLIB_histogram_1D_U16_d.c",line 
TMS320C6x Assembler PC v7.4.2 Thu Mar 19 12:41:42 2015

Tools Copyright (c) 1996-2012 Texas Instruments Incorporated
package/lib/Regression/regress_d_c/./../packages/ti/vlib/src/VLIB_histogram_1D_U16/VLIB_histogram_1D_U16_d.se66 PAGE   16

     826 000000cc 06100fd8             MV      .L1     A4,A12            ; |63| 
     827 000000d0 063d62f4             STW     .D2T1   A12,*+SP(44)      ; |63| 
     828 000000d4     2c6e             NOP             2
     829                    $C$DW$128       .dwtag  DW_TAG_TI_branch
     830                            .dwattr $C$DW$128, DW_AT_low_pc(0x00)
     831                            .dwattr $C$DW$128, DW_AT_name("malloc")
     832                            .dwattr $C$DW$128, DW_AT_TI_call
     833                    
     834 000000d8 10000012!            CALLP   .S2     malloc,B3
     835 000000d6     61c0  ||         ADD     .L1     A3,A3,A4          ; |64| 
     836                    
     837                            .dwpsn  file "./../packages/ti/vlib/src/VLIB_histogram_1D_U16/VLIB_histogram_1D_U16_d.c",line 
     838 000000e0           $C$RL6:    ; CALL OCCURS {malloc} {0}        ; |64| 
     839                            .dwpsn  file "./../packages/ti/vlib/src/VLIB_histogram_1D_U16/VLIB_histogram_1D_U16_d.c",line 
     840                    ;----------------------------------------------------------------------
     841                    ;  65 | uint16_t   *H1             =  (uint16_t *) VLIB_malloc(prm[tpi].numBins
     842                    ;     |  * sizeof(uint16_t));                                                  
     843                    ;----------------------------------------------------------------------
     844 000000e0 01b4a264             LDW     .D1T1   *+A13(20),A3      ; |65| 
     845                            .dwpsn  file "./../packages/ti/vlib/src/VLIB_histogram_1D_U16/VLIB_histogram_1D_U16_d.c",line 
     846 000000e4 05101fda             MV      .L2X    A4,B10            ; |64| 
     847 000000e8 053d82f6             STW     .D2T2   B10,*+SP(48)      ; |64| 
     848 000000ec     2c6e             NOP             2
     849                    $C$DW$129       .dwtag  DW_TAG_TI_branch
     850                            .dwattr $C$DW$129, DW_AT_low_pc(0x00)
     851                            .dwattr $C$DW$129, DW_AT_name("VLIB_malloc")
     852                            .dwattr $C$DW$129, DW_AT_TI_call
     853                    
     854 000000f0 10000013!            CALLP   .S2     VLIB_malloc,B3
     855 000000ee     61c0  ||         ADD     .L1     A3,A3,A4          ; |65| 
     856                    
     857                            .dwpsn  file "./../packages/ti/vlib/src/VLIB_histogram_1D_U16/VLIB_histogram_1D_U16_d.c",line 
     858 00000100           $C$RL7:    ; CALL OCCURS {VLIB_malloc} {0}   ; |65| 
     859 00000100           $C$DW$L$VLIB_histogram_1D_U16_d$5$E:
     860                    ;** --------------------------------------------------------------------------*
     861 00000100           $C$DW$L$VLIB_histogram_1D_U16_d$6$B:
     862                    ;          EXCLUSIVE CPU CYCLES: 13
     863                    
     864 00000100     1587             MV      .L2X    A11,B0            ; |68| 
     865 00000102     3686  ||         MV      .L1X    B13,A1            ; |68| 
     866 00000104     050e  ||         MV      .S1     A10,A0            ; |68| 
     867 00000106     0293  ||         ZERO    .S2     B5                ; |68| 
     868 00000108     1a77  ||         ZERO    .D2     B4                ; |68| 
     869 0000010a     19f6  ||         ZERO    .D1     A3                ; |68| 
     870                    
     871 0000010c     aa67     [ B0]   MVK     .L2     0x1,B4            ; |68| 
     872 00000110 8184a359  || [ A1]   MVK     .L1     0x1,A3            ; |68| 
     873 0000010e     2aef  || [ A0]   MVK     .S2     0x1,B5            ; |68| 
     874 00000114     4517  ||         MV      .D2     B10,B2            ; |68| 
     875 00000116     460e  ||         MV      .S1     A12,A2            ; |68| 
     876 00000118     1af6  ||         ZERO    .D1     A5                ; |68| 
     877                    
     878 00000120 02948f7b             AND     .L2     B4,B5,B5          ; |68| 
     879 0000011a     0213  ||         ZERO    .S2     B4                ; |68| 
     880 00000124 6284a359  || [ B2]   MVK     .L1     0x1,A5            ; |68| 
TMS320C6x Assembler PC v7.4.2 Thu Mar 19 12:41:42 2015

Tools Copyright (c) 1996-2012 Texas Instruments Incorporated
package/lib/Regression/regress_d_c/./../packages/ti/vlib/src/VLIB_histogram_1D_U16/VLIB_histogram_1D_U16_d.se66 PAGE   17

     881 00000128     224e  ||         MV      .S1     A4,A1             ; |68| 
     882 0000012a     adc5  ||         STW     .D2T1   A4,*+SP(52)       ; |65| 
     883                    
     884 0000012c 028cbf7b             AND     .L2X    A3,B5,B5          ; |68| 
     885 00000130 a20000aa  || [ A2]   MVK     .S2     0x1,B4            ; |68| 
     886                    
     887 00000134 02948f7b             AND     .L2     B4,B5,B5          ; |68| 
     888 00000138 0200002a  ||         ZERO    .S2     B4                ; |68| 
     889                    
     890 00000140 0294bf7b             AND     .L2X    A5,B5,B5          ; |68| 
     891 00000144 820000aa  || [ A1]   MVK     .S2     0x1,B4            ; |68| 
     892                    
     893                            .dwpsn  file "./../packages/ti/vlib/src/VLIB_histogram_1D_U16/VLIB_histogram_1D_U16_d.c",line 
     894                    ;----------------------------------------------------------------------
     895                    ;  68 | if( binEdges && histArray && X && H && H_cn && H1 ) {                  
     896                    ;  70 |     int32_t    fail, i;                                                
     897                    ;  73 |     VLIB_fillBuffer(STATIC,                                            
     898                    ;  74 |                     (uint16_t)1,                                       
     899                    ;  75 |                     binEdges, prm[tpi].staticInEdges,                  
     900                    ;  76 |                     prm[tpi].numBins, 1, prm[tpi].numBins * sizeof(binE
     901                    ;     | dges[0]),                                                              
     902                    ;  77 |                     sizeof(binEdges[0]), testPatternString);           
     903                    ;  79 |     VLIB_fillBuffer(prm[tpi].testPattern,                              
     904                    ;  80 |                     (uint16_t)1,                                       
     905                    ;  81 |                     X, prm[tpi].staticInImg,                           
     906                    ;  82 |                     prm[tpi].numX, 1, prm[tpi].numX * sizeof(X[0]),    
     907                    ;  83 |                     sizeof(X[0]), testPatternString);                  
     908                    ;  85 |     for( i=0; i < prm[tpi].numX; i++ ) {                               
     909                    ;  86 |         if( X[i] > prm[tpi].maxSize - 1 ) {                            
     910                    ;  87 |             X[i] = prm[tpi].maxSize - 1;                               
     911                    ;  92 |     memset(histArray, 0, prm[tpi].maxSize * sizeof(uint16_t));         
     912                    ;  94 |     VLIB_histogram_1D_Init_U16_cn(binEdges, prm[tpi].numBins, histArray
     913                    ;     | );                                                                     
     914                    ;  97 |     memset(H, 0, prm[tpi].numBins * sizeof(uint16_t));                 
     915                    ;  98 |     memset(H1, 0, prm[tpi].numBins * sizeof(uint16_t));                
     916                    ; 101 |     VLIB_profile_start(vlib_KERNEL_OPT);                               
     917                    ; 102 |     VLIB_histogram_1D_U16(X, prm[tpi].numX, prm[tpi].numBins, prm[tpi].
     918                    ;     | binWeight, histArray, H1, H);                                          
     919                    ; 103 |     VLIB_profile_stop();                                               
     920                    ; 106 |     memset(H_cn, 0, prm[tpi].numBins * sizeof(uint16_t));              
     921                    ; 107 |     memset(H1, 0, prm[tpi].numBins * sizeof(uint16_t));                
     922                    ; 110 |     VLIB_profile_start(vlib_KERNEL_CN);                                
     923                    ; 111 |     VLIB_histogram_1D_U16_cn(X, prm[tpi].numX, prm[tpi].numBins, prm[tp
     924                    ;     | i].binWeight, histArray, H1, H_cn);                                    
     925                    ; 112 |     VLIB_profile_stop();                                               
     926                    ; 116 |     status_nat_vs_int = VLIB_compare_mem((void *) H, (void *)H_cn, prm[
     927                    ;     | tpi].numBins * sizeof(uint16_t));                                      
     928                    ; 119 |     if( prm[tpi].staticOut != NULL ) {                                 
     929                    ; 120 |         status_nat_vs_ref = VLIB_compare_mem((void *) prm[tpi].staticOu
     930                    ;     | t, (void *)H_cn, prm[tpi].numBins * sizeof(uint16_t));                 
     931                    ; 124 |     fail = ((status_nat_vs_int == vlib_KERNEL_FAIL) || (status_nat_vs_r
     932                    ;     | ef == vlib_KERNEL_FAIL)) ? 1 : 0;                                      
     933                    ; 126 |     est_test=1;                                                        
     934                    ; 129 |     sprintf(desc, "%s generated input | Opt results compared to NatC re
     935                    ;     | sults | numBins=%d, maxSize=%d, numX=%d",                              
TMS320C6x Assembler PC v7.4.2 Thu Mar 19 12:41:42 2015

Tools Copyright (c) 1996-2012 Texas Instruments Incorporated
package/lib/Regression/regress_d_c/./../packages/ti/vlib/src/VLIB_histogram_1D_U16/VLIB_histogram_1D_U16_d.se66 PAGE   18

     936                    ; 130 |             testPatternString, prm[tpi].numBins, prm[tpi].maxSize, prm[
     937                    ;     | tpi].numX);                                                            
     938                    ; 131 |     VLIB_formula_add_test(prm[tpi].numX, NULL, NULL, fail, desc, NULL);
     939                    ; 133 | } else {                                                               
     940                    ;----------------------------------------------------------------------
     941 00000148 00148f7a             AND     .L2     B4,B5,B0          ; |68| 
     942                    
     943 0000014c 30006e11     [!B0]   B       .S1     $C$L7             ; |68| 
     944 00000150 2234a266  || [ B0]   LDW     .D1T2   *+A13(20),B4      ; |73| 
     945                    
     946                            .dwpsn  file "./../packages/ti/vlib/src/VLIB_histogram_1D_U16/VLIB_histogram_1D_U16_d.c",line 
     947                    ;----------------------------------------------------------------------
     948                    ; 135 | sprintf(desc, "numBins=%d, maxSize=%d, numX=%d",                       
     949                    ; 136 |         prm[tpi].numBins, prm[tpi].maxSize, prm[tpi].numX);            
     950                    ; 137 | VLIB_skip_test(desc);                                                  
     951                    ;----------------------------------------------------------------------
     952 00000154 3234e264     [!B0]   LDW     .D1T1   *+A13(28),A4      ; |135| 
     953 00000158 31b48264     [!B0]   LDW     .D1T1   *+A13(16),A3      ; |135| 
     954                    $C$DW$130       .dwtag  DW_TAG_TI_branch
     955                            .dwattr $C$DW$130, DW_AT_low_pc(0x00)
     956                            .dwattr $C$DW$130, DW_AT_name("VLIB_fillBuffer")
     957                            .dwattr $C$DW$130, DW_AT_TI_call
     958                    
     959 0000015c 20000011!    [ B0]   CALL    .S1     VLIB_fillBuffer   ; |73| 
     960 00000160 21b42264  || [ B0]   LDW     .D1T1   *+A13(4),A3       ; |73| 
     961                    
     962                    $C$DW$131       .dwtag  DW_TAG_TI_branch
     963                            .dwattr $C$DW$131, DW_AT_low_pc(0x04)
     964                            .dwattr $C$DW$131, DW_AT_name("sprintf")
     965                            .dwattr $C$DW$131, DW_AT_TI_call
     966                    
     967 00000164 32b4a265     [!B0]   LDW     .D1T1   *+A13(20),A5      ; |135| 
     968 00000168 30000010! || [!B0]   CALL    .S1     sprintf           ; |135| 
     969                    
     970                            .dwpsn  file "./../packages/ti/vlib/src/VLIB_histogram_1D_U16/VLIB_histogram_1D_U16_d.c",line 
     971 0000016c     f263             EXTU    .S2     B4,16,16,B7       ; |73| 
     972                            .dwpsn  file "./../packages/ti/vlib/src/VLIB_histogram_1D_U16/VLIB_histogram_1D_U16_d.c",line 
     973                               ; BRANCHCC OCCURS {$C$L7}         ; |68| 
     974 0000016e           $C$DW$L$VLIB_histogram_1D_U16_d$6$E:
     975                    ;** --------------------------------------------------------------------------*
     976 0000016e           $C$DW$L$VLIB_histogram_1D_U16_d$7$B:
     977                    ;          EXCLUSIVE CPU CYCLES: 3
     978                    ;** 73  -----------------------    C$8 = (*U$12).numBins;
     979                    ;** 73  -----------------------    VLIB_fillBuffer(4u, 1u, (void *)binEdges, (*U$12).staticInEdges, (u
     980                    ;** 79  -----------------------    C$7 = (*U$12).numX;
     981                    ;** 79  -----------------------    VLIB_fillBuffer((*U$12).testPattern, 1u, (void *)X, (*U$12).staticI
     982                    ;** 85  -----------------------    v$1 = prm;
     983                    ;** 85  -----------------------    if ( (C$6 = (*U$12).numX) <= 0 ) goto g9;
     984                    
     985 0000016e     2627             MVK     .L2     0x1,B4            ; |73| 
     986 00000170 062c1fd9  ||         MV      .L1X    B11,A12           ; |73| 
     987 00000174 0292300a  ||         EXTU    .S2     B4,17,16,B5       ; |73| 
     988                    
     989 00000178     0647             MV      .L2     B4,B8             ; |73| 
     990 00000184 01840163  ||         ADDKPC  .S2     $C$RL8,B3,0       ; |73| 
TMS320C6x Assembler PC v7.4.2 Thu Mar 19 12:41:42 2015

Tools Copyright (c) 1996-2012 Texas Instruments Incorporated
package/lib/Regression/regress_d_c/./../packages/ti/vlib/src/VLIB_histogram_1D_U16/VLIB_histogram_1D_U16_d.se66 PAGE   19

     991 00000180 05004043  ||         MVK     .D2     0x2,B10           ; |73| 
     992 0000017a     17c6  ||         MV      .L1X    B7,A8             ; |73| 
     993 00000188     8212  ||         MVK     .S1     0x4,A4            ; |73| 
     994                    
     995 0000018a     56c6             MV      .L1X    B5,A10            ; |73| 
     996 0000018c     c50e  ||         MV      .S1     A10,A6            ; |73| 
     997 0000018e     d1c7  ||         MV      .L2X    A3,B6             ; |73| 
     998                    
     999                            .dwpsn  file "./../packages/ti/vlib/src/VLIB_histogram_1D_U16/VLIB_histogram_1D_U16_d.c",line 
    1000 00000190           $C$RL8:    ; CALL OCCURS {VLIB_fillBuffer} {0}  ; |73| 
    1001 00000190           $C$DW$L$VLIB_histogram_1D_U16_d$7$E:
    1002                    ;** --------------------------------------------------------------------------*
    1003 00000190           $C$DW$L$VLIB_histogram_1D_U16_d$8$B:
    1004                    ;          EXCLUSIVE CPU CYCLES: 12
    1005                            .dwpsn  file "./../packages/ti/vlib/src/VLIB_histogram_1D_U16/VLIB_histogram_1D_U16_d.c",line 
    1006 00000190 02348264             LDW     .D1T1   *+A13(16),A4      ; |79| 
    1007 00000194 01b44264             LDW     .D1T1   *+A13(8),A3       ; |79| 
    1008 00000198 0404a35a             MVK     .L2     0x1,B8            ; |79| 
    1009 000001a0     8407             MV      .L2     B8,B4             ; |79| 
    1010 000001a2     d686             MV      .L1X    B13,A6            ; |79| 
    1011 000001a4 04121008             EXTU    .S1     A4,16,16,A8       ; |79| 
    1012                    $C$DW$132       .dwtag  DW_TAG_TI_branch
    1013                            .dwattr $C$DW$132, DW_AT_low_pc(0x00)
    1014                            .dwattr $C$DW$132, DW_AT_name("VLIB_fillBuffer")
    1015                            .dwattr $C$DW$132, DW_AT_TI_call
    1016                    
    1017 000001a8 10000013!            CALLP   .S2     VLIB_fillBuffer,B3
    1018 000001ac 05123009  ||         EXTU    .S1     A4,17,16,A10      ; |79| 
    1019 000001b0 02340215  ||         LDBU    .D1T1   *A13,A4           ; |79| 
    1020 000001b4 030c1fda  ||         MV      .L2X    A3,B6             ; |79| 
    1021                    
    1022 000001b8           $C$RL9:    ; CALL OCCURS {VLIB_fillBuffer} {0}  ; |79| 
    1023 000001b8           $C$DW$L$VLIB_histogram_1D_U16_d$8$E:
    1024                    ;** --------------------------------------------------------------------------*
    1025 000001b8           $C$DW$L$VLIB_histogram_1D_U16_d$9$B:
    1026                    ;          EXCLUSIVE CPU CYCLES: 12
    1027                            .dwpsn  file "./../packages/ti/vlib/src/VLIB_histogram_1D_U16/VLIB_histogram_1D_U16_d.c",line 
    1028 000001b8 01b48264             LDW     .D1T1   *+A13(16),A3      ; |85| 
    1029 000001c0 03bce2e6             LDW     .D2T2   *+SP(28),B7       ; |85| 
    1030 000001c4 00004000             NOP             3
    1031 000001c8 000c0ad8             CMPGT   .L1     A3,0,A0           ; |85| 
    1032                    
    1033 000001cc d012a121     [!A0]   BNOP    .S1     $C$L5,5           ; |85| 
    1034 000001d0 c2b0e07b  || [ A0]   ADD     .L2     B7,B12,B5
    1035 000001d4 cf8ff1a3  || [ A0]   SUB     .S2X    A3,1,B31
    1036                    
    1037                               ; BRANCHCC OCCURS {$C$L5}         ; |85| 
    1038 000001e0           $C$DW$L$VLIB_histogram_1D_U16_d$9$E:
    1039                    ;** --------------------------------------------------------------------------*
    1040                            .dwpsn  file "./../packages/ti/vlib/src/VLIB_histogram_1D_U16/VLIB_histogram_1D_U16_d.c",line 
    1041 000001e0           $C$DW$L$VLIB_histogram_1D_U16_d$10$B:
    1042                    ;**     -----------------------    U$62 = &X[-1];
    1043                    ;**     -----------------------    U$64 = U$11+v$1;
    1044                    ;** 86  -----------------------    L$1 = C$6;
    1045                    ;**     -----------------------    #pragma MUST_ITERATE(1, 18446744073709551615, 1)
TMS320C6x Assembler PC v7.4.2 Thu Mar 19 12:41:42 2015

Tools Copyright (c) 1996-2012 Texas Instruments Incorporated
package/lib/Regression/regress_d_c/./../packages/ti/vlib/src/VLIB_histogram_1D_U16/VLIB_histogram_1D_U16_d.se66 PAGE   20

    1046                    ;**     -----------------------    #pragma LOOP_FLAGS(4096u)
    1047                    ;**     -----------------------g6:
    1048                    ;** 86  -----------------------    C$5 = (*U$64).maxSize-1;
    1049                    ;** 86  -----------------------    if ( *(++U$62) <= C$5 ) goto g8;
    1050                    ;** 87  -----------------------    *U$62 = C$5;
    1051                    ;**     -----------------------g8:
    1052                    ;** 85  -----------------------    if ( L$1 = L$1-1 ) goto g6;
    1053 000001e0           $C$DW$L$VLIB_histogram_1D_U16_d$10$E:
    1054                    ;*----------------------------------------------------------------------------*
    1055                    ;*   SOFTWARE PIPELINE INFORMATION
    1056                    ;*
    1057                    ;*      Loop found in file               : ./../packages/ti/vlib/src/VLIB_histogram_1D_U16/VLIB_histog
    1058                    ;*      Loop source line                 : 85
    1059                    ;*      Loop opening brace source line   : 85
    1060                    ;*      Loop closing brace source line   : 89
    1061                    ;*      Known Minimum Trip Count         : 1                    
    1062                    ;*      Known Max Trip Count Factor      : 1
    1063                    ;*      Loop Carried Dependency Bound(^) : 8
    1064                    ;*      Unpartitioned Resource Bound     : 2
    1065                    ;*      Partitioned Resource Bound(*)    : 2
    1066                    ;*      Resource Partition:
    1067                    ;*                                A-side   B-side
    1068                    ;*      .L units                     1        0     
    1069                    ;*      .S units                     0        0     
    1070                    ;*      .D units                     1        2*    
    1071                    ;*      .M units                     0        0     
    1072                    ;*      .X cross paths               1        0     
    1073                    ;*      .T address paths             2*       1     
    1074                    ;*      Long read paths              0        0     
    1075                    ;*      Long write paths             0        0     
    1076                    ;*      Logical  ops (.LS)           0        0     (.L or .S unit)
    1077                    ;*      Addition ops (.LSD)          1        1     (.L or .S or .D unit)
    1078                    ;*      Bound(.L .S .LS)             1        0     
    1079                    ;*      Bound(.L .S .D .LS .LSD)     1        1     
    1080                    ;*
    1081                    ;*      Searching for software pipeline schedule at ...
    1082                    ;*         ii = 8  Schedule found with 2 iterations in parallel
    1083                    ;*
    1084                    ;*      Register Usage Table:
    1085                    ;*          +-----------------------------------------------------------------+
    1086                    ;*          |AAAAAAAAAAAAAAAAAAAAAAAAAAAAAAAA|BBBBBBBBBBBBBBBBBBBBBBBBBBBBBBBB|
    1087                    ;*          |00000000001111111111222222222233|00000000001111111111222222222233|
    1088                    ;*          |01234567890123456789012345678901|01234567890123456789012345678901|
    1089                    ;*          |--------------------------------+--------------------------------|
    1090                    ;*       0: |    *                           |     **                         |
    1091                    ;*       1: |    *                           |     **                         |
    1092                    ;*       2: |    *                           |     **                         |
    1093                    ;*       3: |    *                           |     **                         |
    1094                    ;*       4: |    *                           |     **                         |
    1095                    ;*       5: |   **                           |     **                         |
    1096                    ;*       6: |   **                           |    ***                         |
    1097                    ;*       7: |*  **                           |     **                         |
    1098                    ;*          +-----------------------------------------------------------------+
    1099                    ;*
    1100                    ;*      Done
TMS320C6x Assembler PC v7.4.2 Thu Mar 19 12:41:42 2015

Tools Copyright (c) 1996-2012 Texas Instruments Incorporated
package/lib/Regression/regress_d_c/./../packages/ti/vlib/src/VLIB_histogram_1D_U16/VLIB_histogram_1D_U16_d.se66 PAGE   21

    1101                    ;*
    1102                    ;*      Loop will be splooped
    1103                    ;*      Collapsed epilog stages       : 0
    1104                    ;*      Collapsed prolog stages       : 0
    1105                    ;*      Minimum required memory pad   : 0 bytes
    1106                    ;*
    1107                    ;*      Minimum safe trip count       : 1
    1108                    ;*      Min. prof. trip count  (est.) : 5
    1109                    ;*
    1110                    ;*      Mem bank conflicts/iter(est.) : { min 0.000, est 0.000, max 0.000 }
    1111                    ;*      Mem bank perf. penalty (est.) : 0.0%
    1112                    ;*
    1113                    ;*
    1114                    ;*      Total cycles (est.)         : 8 + trip_cnt * 8        
    1115                    ;*----------------------------------------------------------------------------*
    1116                    ;*       SETUP CODE
    1117                    ;*
    1118                    ;*                  MV              B6,B5
    1119                    ;*                  ADD             2,B5,B5
    1120                    ;*                  ADD             2,B6,B6
    1121                    ;*
    1122                    ;*        SINGLE SCHEDULED ITERATION
    1123                    ;*
    1124                    ;*        $C$C50:
    1125                    ;*   0              LDW     .D1T1   *+A4(28),A3       ; |86|  ^ 
    1126                    ;*   1              LDHU    .D2T2   *B6++,B4          ; |86| 
    1127                    ;*   2              NOP             3
    1128                    ;*   5              SUB     .L1     A3,1,A3           ; |86|  ^ 
    1129                    ;*   6              CMPGT   .L1X    B4,A3,A0          ; |86|  ^ 
    1130                    ;*     ||           ADD     .L2     2,B5,B5           ; |86| 
    1131                    ;*   7      [ A0]   STH     .D2T1   A3,*-B5(2)        ; |87|  ^ 
    1132                    ;*     ||           SPBR            $C$C50
    1133                    ;*   8              NOP             8
    1134                    ;*  16              ; BRANCHCC OCCURS {$C$C50}        ; |85| 
    1135                    ;*----------------------------------------------------------------------------*
    1136 000001e0           $C$L2:    ; PIPED LOOP PROLOG
    1137                    ;          EXCLUSIVE CPU CYCLES: 9
    1138                    
    1139 000001e0     0fe7             SPLOOPD 8       ;16               ; (P) 
    1140 000001e4 06fc03a2  ||         MVC     .S2     B31,ILC
    1141 000001e2     92c6  ||         MV      .L1X    B5,A4             ; Define a twin register
    1142                    
    1143                    ;** --------------------------------------------------------------------------*
    1144 000001e8           $C$L3:    ; PIPED LOOP KERNEL
    1145 000001e8           $C$DW$L$VLIB_histogram_1D_U16_d$12$B:
    1146                    ;          EXCLUSIVE CPU CYCLES: 8
    1147                    
    1148 000001e8     2ce6             SPMASK          L2
    1149 000001ea     c687  ||         MV      .L2     B13,B6
    1150 000001ec     e03c  ||         LDW     .D1T1   *+A4(28),A3       ; |86| (P) <0,0>  ^ 
    1151                    
    1152 000001ee     1f4d             LDHU    .D2T2   *B6++,B4          ; |86| (P) <0,1> 
    1153 000001f0     4c6e             NOP             3
    1154                    
    1155 000001f2     2ce6             SPMASK          L2
TMS320C6x Assembler PC v7.4.2 Thu Mar 19 12:41:42 2015

Tools Copyright (c) 1996-2012 Texas Instruments Incorporated
package/lib/Regression/regress_d_c/./../packages/ti/vlib/src/VLIB_histogram_1D_U16/VLIB_histogram_1D_U16_d.se66 PAGE   22

    1156 000001f4     a687  ||         MV      .L2     B13,B5
    1157 000001f6     edb0  ||         SUB     .L1     A3,1,A3           ; |86| (P) <0,5>  ^ 
    1158                    
    1159 000001f8     46d1             ADD     .L2     2,B5,B5           ; |86| (P) <0,6> 
    1160 000001fa     7e08  ||         CMPGT   .L1X    B4,A3,A0          ; |86| (P) <0,6>  ^ 
    1161                    
    1162                            .dwpsn  file "./../packages/ti/vlib/src/VLIB_histogram_1D_U16/VLIB_histogram_1D_U16_d.c",line 
    1163 00000200 c19420d4     [ A0]   STH     .D2T1   A3,*-B5(2)        ; |87| (P) <0,7>  ^ 
    1164 00000204     1c66             SPKERNEL 0,0
    1165 00000206           $C$DW$L$VLIB_histogram_1D_U16_d$12$E:
    1166                    ;** --------------------------------------------------------------------------*
    1167 00000206           $C$L4:    ; PIPED LOOP EPILOG
    1168                    ;          EXCLUSIVE CPU CYCLES: 1
    1169 00000206     0c6e             NOP             1
    1170                    ;** --------------------------------------------------------------------------*
    1171 00000208           $C$L5:    
    1172                            .dwpsn  file "./../packages/ti/vlib/src/VLIB_histogram_1D_U16/VLIB_histogram_1D_U16_d.c",line 
    1173 00000208           $C$DW$L$VLIB_histogram_1D_U16_d$14$B:
    1174                    ;          EXCLUSIVE CPU CYCLES: 14
    1175                    ;**     -----------------------g9:
    1176                    ;** 92  -----------------------    memset((void *)histArray, 0, (unsigned)((*(U$11+v$1)).maxSize*2));
    1177                    ;** 94  -----------------------    VLIB_histogram_1D_Init_U16_cn(binEdges, (*U$12).numBins, histArray)
    1178                    ;** 97  -----------------------    memset((void *)H, 0, (unsigned)((*U$12).numBins*2));
    1179                    ;** 98  -----------------------    memset((void *)H1, 0, (unsigned)((*U$12).numBins*2));
    1180                    ;** 137 -----------------------    act_kernel = 0;  // [15]
    1181                    ;** 140 -----------------------    VLIB_cache_inval();  // [15]
    1182                    ;** 143 -----------------------    initStack(getSP());  // [15]
    1183                    ;** 146 -----------------------    beg_count = _itoll(TSCH, TSCL);  // [15]
    1184                    ;** 102 -----------------------    VLIB_histogram_1D_U16(X, (*U$12).numX, (*U$12).numBins, (*U$12).bin
    1185                    ;** 153 -----------------------    v$2 = _itoll(TSCH, TSCL);  // [16]
    1186                    ;** 153 -----------------------    end_count = v$2;  // [16]
    1187                    ;**     -----------------------    K$85 = &cycles[0];
    1188                    ;** 156 -----------------------    C$4 = act_kernel;  // [16]
    1189                    ;** 156 -----------------------    *((C$4<<3)+K$85) = *((C$4<<3)+K$85)+(v$2-(beg_count+overhead));  //
    1190                    ;** 159 -----------------------    setStackDepth();  // [16]
    1191                    ;** 106 -----------------------    memset((void *)H_cn, 0, (unsigned)((*U$12).numBins*2));
    1192                    ;** 107 -----------------------    memset((void *)H1, 0, (unsigned)((*U$12).numBins*2));
    1193                            .dwpsn  file "./../packages/ti/vlib/src/VLIB_histogram_1D_U16/VLIB_histogram_1D_U16_d.c",line 
    1194 00000208 0230e07a             ADD     .L2     B7,B12,B4         ; |92| 
    1195 0000020c 0210e2e6             LDW     .D2T2   *+B4(28),B4       ; |92| 
    1196 00000210 06bd22e6             LDW     .D2T2   *+SP(36),B13      ; |92| 
    1197 00000214     4c6e             NOP             3
    1198 00000216     8251             ADD     .L2     B4,B4,B5          ; |92| 
    1199 00000218     9686             MV      .L1X    B13,A4            ; |92| 
    1200                    $C$DW$133       .dwtag  DW_TAG_TI_branch
    1201                            .dwattr $C$DW$133, DW_AT_low_pc(0x00)
    1202                            .dwattr $C$DW$133, DW_AT_name("memset")
    1203                            .dwattr $C$DW$133, DW_AT_TI_call
    1204                    
    1205 00000220 10000013!            CALLP   .S2     memset,B3
    1206 0000021a     d2c6  ||         MV      .L1X    B5,A6             ; |92| 
    1207 00000224 0200a35a  ||         ZERO    .L2     B4                ; |92| 
    1208                    
    1209                    $C$RL10:   ; CALL OCCURS {memset} {0}        ; |92| 
    1210                    $C$DW$L$VLIB_histogram_1D_U16_d$14$E:
TMS320C6x Assembler PC v7.4.2 Thu Mar 19 12:41:42 2015

Tools Copyright (c) 1996-2012 Texas Instruments Incorporated
package/lib/Regression/regress_d_c/./../packages/ti/vlib/src/VLIB_histogram_1D_U16/VLIB_histogram_1D_U16_d.se66 PAGE   23

    1211                    ;** --------------------------------------------------------------------------*
    1212                    $C$DW$L$VLIB_histogram_1D_U16_d$15$B:
    1213                    ;          EXCLUSIVE CPU CYCLES: 107
    1214                    $C$DW$134       .dwtag  DW_TAG_TI_branch
    1215                            .dwattr $C$DW$134, DW_AT_low_pc(0x00)
    1216                            .dwattr $C$DW$134, DW_AT_name("VLIB_histogram_1D_Init_U16_cn")
    1217                            .dwattr $C$DW$134, DW_AT_TI_call
    1218                    
    1219 00000228 10000013!            CALLP   .S2     VLIB_histogram_1D_Init_U16_cn,B3
    1220 0000022c 0234a267  ||         LDW     .D1T2   *+A13(20),B4      ; |94| 
    1221 00000230     8d4d  ||         LDW     .D2T1   *+SP(32),A4       ; |94| 
    1222 00000232     d686  ||         MV      .L1X    B13,A6            ; |94| 
    1223                    
    1224                            .dwpsn  file "./../packages/ti/vlib/src/VLIB_histogram_1D_U16/VLIB_histogram_1D_U16_d.c",line 
    1225 00000234           $C$RL11:   ; CALL OCCURS {VLIB_histogram_1D_Init_U16_cn} {0}  ; |94| 
    1226                            .dwpsn  file "./../packages/ti/vlib/src/VLIB_histogram_1D_U16/VLIB_histogram_1D_U16_d.c",line 
    1227 00000234 053d62e4             LDW     .D2T1   *+SP(44),A10      ; |97| 
    1228 00000238 01b4a264             LDW     .D1T1   *+A13(20),A3      ; |97| 
    1229 00000240     0627             ZERO    .L2     B4                ; |97| 
    1230 00000242     4c6e             NOP             3
    1231                    $C$DW$135       .dwtag  DW_TAG_TI_branch
    1232                            .dwattr $C$DW$135, DW_AT_low_pc(0x00)
    1233                            .dwattr $C$DW$135, DW_AT_name("memset")
    1234                            .dwattr $C$DW$135, DW_AT_TI_call
    1235                    
    1236 00000244 10000013!            CALLP   .S2     memset,B3
    1237 00000248     8506  ||         MV      .L1     A10,A4            ; |97| 
    1238 0000024a     61ea  ||         ADD     .S1     A3,A3,A6          ; |97| 
    1239                    
    1240 0000024c           $C$RL12:   ; CALL OCCURS {memset} {0}        ; |97| 
    1241                            .dwpsn  file "./../packages/ti/vlib/src/VLIB_histogram_1D_U16/VLIB_histogram_1D_U16_d.c",line 
    1242 0000024c 01b4a264             LDW     .D1T1   *+A13(20),A3      ; |98| 
    1243 00000250 05bda2e4             LDW     .D2T1   *+SP(52),A11      ; |98| 
    1244 00000254     0627             ZERO    .L2     B4                ; |98| 
    1245 00000256     4c6e             NOP             3
    1246                    $C$DW$136       .dwtag  DW_TAG_TI_branch
    1247                            .dwattr $C$DW$136, DW_AT_low_pc(0x00)
    1248                            .dwattr $C$DW$136, DW_AT_name("memset")
    1249                            .dwattr $C$DW$136, DW_AT_TI_call
    1250                    
    1251 00000258 10000013!            CALLP   .S2     memset,B3
    1252 00000260     61e0  ||         ADD     .L1     A3,A3,A6          ; |98| 
    1253 00000262     858e  ||         MV      .S1     A11,A4            ; |98| 
    1254                    
    1255 00000264           $C$RL13:   ; CALL OCCURS {memset} {0}        ; |98| 
    1256 00000264 06000028!            MVKL    .S1     act_kernel,A12
    1257                    
    1258 00000268 06000069!            MVKH    .S1     act_kernel,A12
    1259 0000026c 0200a35a  ||         ZERO    .L2     B4                ; |137| 
    1260                    
    1261                    $C$DW$137       .dwtag  DW_TAG_TI_branch
    1262                            .dwattr $C$DW$137, DW_AT_low_pc(0x00)
    1263                            .dwattr $C$DW$137, DW_AT_name("VLIB_cache_inval")
    1264                            .dwattr $C$DW$137, DW_AT_TI_call
    1265                    
TMS320C6x Assembler PC v7.4.2 Thu Mar 19 12:41:42 2015

Tools Copyright (c) 1996-2012 Texas Instruments Incorporated
package/lib/Regression/regress_d_c/./../packages/ti/vlib/src/VLIB_histogram_1D_U16/VLIB_histogram_1D_U16_d.se66 PAGE   24

    1266 00000270 10000013!            CALLP   .S2     VLIB_cache_inval,B3
    1267 00000274 02300276  ||         STW     .D1T2   B4,*A12           ; |137| 
    1268                    
    1269                            .dwpsn  file ".\..\packages\ti\vlib\src\VLIB_histogram_1D_U16\..\common\VLIB_profile.h",line 1
    1270                    ;----------------------------------------------------------------------
    1271                    ; 141 | VLIB_free(H1);                                                         
    1272                    ; 142 | free(H_cn);                                                            
    1273                    ;----------------------------------------------------------------------
    1274                    $C$RL14:   ; CALL OCCURS {VLIB_cache_inval} {0}  ; |140| 
    1275                    $C$DW$138       .dwtag  DW_TAG_TI_branch
    1276                            .dwattr $C$DW$138, DW_AT_low_pc(0x00)
    1277                            .dwattr $C$DW$138, DW_AT_name("getSP")
    1278                            .dwattr $C$DW$138, DW_AT_TI_call
    1279 00000278 10000012!            CALLP   .S2     getSP,B3
    1280                            .dwpsn  file ".\..\packages\ti\vlib\src\VLIB_histogram_1D_U16\..\common\VLIB_profile.h",line 1
    1281                    ;----------------------------------------------------------------------
    1282                    ; 143 | VLIB_free(H);                                                          
    1283                    ; 144 | VLIB_free(X);                                                          
    1284                    ; 145 | VLIB_free(histArray);                                                  
    1285                    ;----------------------------------------------------------------------
    1286                    $C$RL15:   ; CALL OCCURS {getSP} {0}         ; |143| 
    1287                    $C$DW$139       .dwtag  DW_TAG_TI_branch
    1288                            .dwattr $C$DW$139, DW_AT_low_pc(0x00)
    1289                            .dwattr $C$DW$139, DW_AT_name("initStack")
    1290                            .dwattr $C$DW$139, DW_AT_TI_call
    1291 00000280 10000012!            CALLP   .S2     initStack,B3
    1292 00000284           $C$RL16:   ; CALL OCCURS {initStack} {0}     ; |143| 
    1293                            .dwpsn  file ".\..\packages\ti\vlib\src\VLIB_histogram_1D_U16\..\common\VLIB_profile.h",line 1
    1294                    ;----------------------------------------------------------------------
    1295                    ; 146 | VLIB_free(binEdges);                                                   
    1296                    ; 150 | VLIB_profile_cycle_report(vlib_PROFILE_FORMULA_RANGE,                  
    1297                    ; 151 |                       "N = numX",                                      
    1298                    ; 152 |                       "numX");                                         
    1299                    ;----------------------------------------------------------------------
    1300 00000284 032803e2             MVC     .S2     TSCL,B6           ; |146| 
    1301 00000288 022c03e2             MVC     .S2     TSCH,B4           ; |146| 
    1302 0000028c 0500002a!            MVKL    .S2     beg_count,B10
    1303                    
    1304 00000290 0500006b!            MVKH    .S2     beg_count,B10
    1305 00000294 03900fda  ||         MV      .L2     B4,B7             ; |146| 
    1306                    
    1307 00000298 032803c7             STDW    .D2T2   B7:B6,*B10        ; |146| 
    1308 0000029c 0334a264  ||         LDW     .D1T1   *+A13(20),A6      ; |102| 
    1309                    
    1310                            .dwpsn  file "./../packages/ti/vlib/src/VLIB_histogram_1D_U16/VLIB_histogram_1D_U16_d.c",line 
    1311 000002a0 02348266             LDW     .D1T2   *+A13(16),B4      ; |102| 
    1312                    $C$DW$140       .dwtag  DW_TAG_TI_branch
    1313                            .dwattr $C$DW$140, DW_AT_low_pc(0x00)
    1314                            .dwattr $C$DW$140, DW_AT_name("VLIB_histogram_1D_U16")
    1315                            .dwattr $C$DW$140, DW_AT_TI_call
    1316                    
    1317 000002a4 10000013!            CALLP   .S2     VLIB_histogram_1D_U16,B3
    1318 000002a8 03358207  ||         LDHU    .D1T2   *+A13(24),B6      ; |102| 
    1319 000002ac 023d42e5  ||         LDW     .D2T1   *+SP(40),A4       ; |102| 
    1320 000002b0 04341fd9  ||         MV      .L1X    B13,A8            ; |102| 
TMS320C6x Assembler PC v7.4.2 Thu Mar 19 12:41:42 2015

Tools Copyright (c) 1996-2012 Texas Instruments Incorporated
package/lib/Regression/regress_d_c/./../packages/ti/vlib/src/VLIB_histogram_1D_U16/VLIB_histogram_1D_U16_d.se66 PAGE   25

    1321 000002b4 042c1fda  ||         MV      .L2X    A11,B8            ; |102| 
    1322                    
    1323 000002b8           $C$RL17:   ; CALL OCCURS {VLIB_histogram_1D_U16} {0}  ; |102| 
    1324                            .dwpsn  file ".\..\packages\ti\vlib\src\VLIB_histogram_1D_U16\..\common\VLIB_profile.h",line 1
    1325                    ;----------------------------------------------------------------------
    1326                    ; 155 | VLIB_kernel_memory();                                                  
    1327                    ;----------------------------------------------------------------------
    1328 000002b8 032803e2             MVC     .S2     TSCL,B6           ; |153| 
    1329 000002bc 03ac03e2             MVC     .S2     TSCH,B7           ; |153| 
    1330                    
    1331 000002c0 0680002b!            MVKL    .S2     overhead,B13
    1332 000002c4 05300fd8  ||         MV      .L1     A12,A10
    1333                    
    1334 000002c8 01a80265             LDW     .D1T1   *A10,A3           ; |156| 
    1335 000002cc 0680006b! ||         MVKH    .S2     overhead,B13
    1336 000002d0 042803e6  ||         LDDW    .D2T2   *B10,B9:B8        ; |156| 
    1337                    
    1338 000002d4 023403e7             LDDW    .D2T2   *B13,B5:B4        ; |156| 
    1339 000002d8 0800002a! ||         MVKL    .S2     cycles,B16
    1340                    
    1341 000002dc 0800006a!            MVKH    .S2     cycles,B16
    1342 000002e0     0c6e             NOP             1
    1343 000002e2     9446             MV      .L1X    B16,A12
    1344                            .dwpsn  file ".\..\packages\ti\vlib\src\VLIB_histogram_1D_U16\..\common\VLIB_profile.h",line 1
    1345 000002e4 03306b64             LDDW    .D1T1   *+A12[A3],A7:A6   ; |156| 
    1346 000002e8 0820857a             ADDU    .L2     B4,B8,B17:B16     ; |156| 
    1347                    
    1348 000002ec 081621e3             ADD     .S2     B17,B5,B16        ; |156| 
    1349 000002f0 0240c5fa  ||         SUBU    .L2     B6,B16,B5:B4      ; |156| 
    1350                    
    1351 000002f4 0426007a             ADD     .L2     B16,B9,B8         ; |156| 
    1352                    
    1353 000002f8 0fa0e0fb             SUB     .L2     B7,B8,B31         ; |156| 
    1354 00000300 0297184a  ||         EXT     .S2     B5,24,24,B5       ; |156| 
    1355                    
    1356 00000304 0210d579             ADDU    .L1X    A6,B4,A5:A4       ; |156| 
    1357 00000308 0217e07a  ||         ADD     .L2     B31,B5,B4         ; |156| 
    1358                    
    1359 0000030c     a3d0             ADD     .L1     A5,A7,A5          ; |156| 
    1360                    
    1361 0000030e     b250             ADD     .L1X    A5,B4,A5          ; |156| 
    1362 00000310 0200002a! ||         MVKL    .S2     end_count,B4
    1363                    
    1364 00000314 0200006a!            MVKH    .S2     end_count,B4
    1365                    $C$DW$141       .dwtag  DW_TAG_TI_branch
    1366                            .dwattr $C$DW$141, DW_AT_low_pc(0x00)
    1367                            .dwattr $C$DW$141, DW_AT_name("setStackDepth")
    1368                            .dwattr $C$DW$141, DW_AT_TI_call
    1369                    
    1370 00000318 10000013!            CALLP   .S2     setStackDepth,B3
    1371 00000320 031003c7  ||         STDW    .D2T2   B7:B6,*B4         ; |153| 
    1372 00000324 02306b44  ||         STDW    .D1T1   A5:A4,*+A12[A3]   ; |156| 
    1373                    
    1374                            .dwpsn  file ".\..\packages\ti\vlib\src\VLIB_histogram_1D_U16\..\common\VLIB_profile.h",line 1
    1375                    ;----------------------------------------------------------------------
TMS320C6x Assembler PC v7.4.2 Thu Mar 19 12:41:42 2015

Tools Copyright (c) 1996-2012 Texas Instruments Incorporated
package/lib/Regression/regress_d_c/./../packages/ti/vlib/src/VLIB_histogram_1D_U16/VLIB_histogram_1D_U16_d.se66 PAGE   26

    1376                    ; 159 | #ifndef __ONESHOTTEST                                                  
    1377                    ;----------------------------------------------------------------------
    1378 00000328           $C$RL18:   ; CALL OCCURS {setStackDepth} {0}  ; |159| 
    1379                            .dwpsn  file "./../packages/ti/vlib/src/VLIB_histogram_1D_U16/VLIB_histogram_1D_U16_d.c",line 
    1380 00000328 01b4a264             LDW     .D1T1   *+A13(20),A3      ; |106| 
    1381 0000032c     8dcd             LDW     .D2T1   *+SP(48),A4       ; |106| 
    1382 0000032e     0627             ZERO    .L2     B4                ; |106| 
    1383 00000330     2c6e             NOP             2
    1384                    $C$DW$142       .dwtag  DW_TAG_TI_branch
    1385                            .dwattr $C$DW$142, DW_AT_low_pc(0x00)
    1386                            .dwattr $C$DW$142, DW_AT_name("memset")
    1387                            .dwattr $C$DW$142, DW_AT_TI_call
    1388                    
    1389 00000334 10000012!            CALLP   .S2     memset,B3
    1390 00000332     61e0  ||         ADD     .L1     A3,A3,A6          ; |106| 
    1391                    
    1392 00000338           $C$RL19:   ; CALL OCCURS {memset} {0}        ; |106| 
    1393                            .dwpsn  file "./../packages/ti/vlib/src/VLIB_histogram_1D_U16/VLIB_histogram_1D_U16_d.c",line 
    1394 00000338 01b4a264             LDW     .D1T1   *+A13(20),A3      ; |107| 
    1395 00000340     8586             MV      .L1     A11,A4            ; |107| 
    1396 00000342     0627             ZERO    .L2     B4                ; |107| 
    1397 00000344     2c6e             NOP             2
    1398                    $C$DW$143       .dwtag  DW_TAG_TI_branch
    1399                            .dwattr $C$DW$143, DW_AT_low_pc(0x00)
    1400                            .dwattr $C$DW$143, DW_AT_name("memset")
    1401                            .dwattr $C$DW$143, DW_AT_TI_call
    1402                    
    1403 00000348 10000012!            CALLP   .S2     memset,B3
    1404 00000346     61e0  ||         ADD     .L1     A3,A3,A6          ; |107| 
    1405                    
    1406 0000034c           $C$RL20:   ; CALL OCCURS {memset} {0}        ; |107| 
    1407 0000034c           $C$DW$L$VLIB_histogram_1D_U16_d$15$E:
    1408                    ;** --------------------------------------------------------------------------*
    1409 0000034c           $C$DW$L$VLIB_histogram_1D_U16_d$16$B:
    1410                    ;          EXCLUSIVE CPU CYCLES: 7
    1411                    ;** 137 -----------------------    act_kernel = 1;  // [15]
    1412                    ;** 140 -----------------------    VLIB_cache_inval();  // [15]
    1413                    ;** 143 -----------------------    initStack(getSP());  // [15]
    1414                    ;** 146 -----------------------    beg_count = _itoll(TSCH, TSCL);  // [15]
    1415                    ;** 111 -----------------------    VLIB_histogram_1D_U16_cn(X, (*U$12).numX, (*U$12).numBins, (*U$12).
    1416                    ;** 153 -----------------------    v$2 = _itoll(TSCH, TSCL);  // [16]
    1417                    ;** 153 -----------------------    end_count = v$2;  // [16]
    1418                    ;** 156 -----------------------    C$3 = act_kernel;  // [16]
    1419                    ;** 156 -----------------------    *((C$3<<3)+K$85) = *((C$3<<3)+K$85)+(v$2-(beg_count+overhead));  //
    1420                    ;** 159 -----------------------    setStackDepth();  // [16]
    1421                    ;** 116 -----------------------    status_nat_vs_int = VLIB_compare_mem((void *)H, (void *)H_cn, (*U$1
    1422                    ;** 119 -----------------------    v$1 = prm;
    1423                    ;** 119 -----------------------    U$93 = (*U$12).staticOut;
    1424                    ;** 119 -----------------------    if ( U$93 ) goto g11;
    1425                    ;** 57  -----------------------    status_nat_vs_ref = 1;
    1426                    ;**     -----------------------    goto g12;
    1427                    
    1428 0000034c 05a80fd9             MV      .L1     A10,A11           ; |137| 
    1429 00000350 018000a8  ||         MVK     .S1     1,A3              ; |137| 
    1430                    
TMS320C6x Assembler PC v7.4.2 Thu Mar 19 12:41:42 2015

Tools Copyright (c) 1996-2012 Texas Instruments Incorporated
package/lib/Regression/regress_d_c/./../packages/ti/vlib/src/VLIB_histogram_1D_U16/VLIB_histogram_1D_U16_d.se66 PAGE   27

    1431                    $C$DW$144       .dwtag  DW_TAG_TI_branch
    1432                            .dwattr $C$DW$144, DW_AT_low_pc(0x00)
    1433                            .dwattr $C$DW$144, DW_AT_name("VLIB_cache_inval")
    1434                            .dwattr $C$DW$144, DW_AT_TI_call
    1435                    
    1436 00000354 10000013!            CALLP   .S2     VLIB_cache_inval,B3
    1437 00000358 01ac0274  ||         STW     .D1T1   A3,*A11           ; |137| 
    1438                    
    1439                            .dwpsn  file ".\..\packages\ti\vlib\src\VLIB_histogram_1D_U16\..\common\VLIB_profile.h",line 1
    1440                    $C$RL21:   ; CALL OCCURS {VLIB_cache_inval} {0}  ; |140| 
    1441                    $C$DW$L$VLIB_histogram_1D_U16_d$16$E:
    1442                    ;** --------------------------------------------------------------------------*
    1443                    $C$DW$L$VLIB_histogram_1D_U16_d$17$B:
    1444                    ;          EXCLUSIVE CPU CYCLES: 56
    1445                    $C$DW$145       .dwtag  DW_TAG_TI_branch
    1446                            .dwattr $C$DW$145, DW_AT_low_pc(0x00)
    1447                            .dwattr $C$DW$145, DW_AT_name("getSP")
    1448                            .dwattr $C$DW$145, DW_AT_TI_call
    1449 00000360 10000012!            CALLP   .S2     getSP,B3
    1450                            .dwpsn  file ".\..\packages\ti\vlib\src\VLIB_histogram_1D_U16\..\common\VLIB_profile.h",line 1
    1451                    $C$RL22:   ; CALL OCCURS {getSP} {0}         ; |143| 
    1452                    $C$DW$146       .dwtag  DW_TAG_TI_branch
    1453                            .dwattr $C$DW$146, DW_AT_low_pc(0x00)
    1454                            .dwattr $C$DW$146, DW_AT_name("initStack")
    1455                            .dwattr $C$DW$146, DW_AT_TI_call
    1456 00000364 10000012!            CALLP   .S2     initStack,B3
    1457 00000368           $C$RL23:   ; CALL OCCURS {initStack} {0}     ; |143| 
    1458                            .dwpsn  file ".\..\packages\ti\vlib\src\VLIB_histogram_1D_U16\..\common\VLIB_profile.h",line 1
    1459 00000368 032803e2             MVC     .S2     TSCL,B6           ; |146| 
    1460 0000036c 022c03e2             MVC     .S2     TSCH,B4           ; |146| 
    1461                            .dwpsn  file "./../packages/ti/vlib/src/VLIB_histogram_1D_U16/VLIB_histogram_1D_U16_d.c",line 
    1462 00000370 043da2e6             LDW     .D2T2   *+SP(52),B8       ; |111| 
    1463                    
    1464 00000374 03900fdb             MV      .L2     B4,B7             ; |146| 
    1465 00000378 043d22e4  ||         LDW     .D2T1   *+SP(36),A8       ; |111| 
    1466                    
    1467 0000037c 032803c7             STDW    .D2T2   B7:B6,*B10        ; |146| 
    1468 00000380 0334a264  ||         LDW     .D1T1   *+A13(20),A6      ; |111| 
    1469                    
    1470 00000384 053d82e5             LDW     .D2T1   *+SP(48),A10      ; |111| 
    1471 00000388 02348266  ||         LDW     .D1T2   *+A13(16),B4      ; |111| 
    1472                    
    1473                    $C$DW$147       .dwtag  DW_TAG_TI_branch
    1474                            .dwattr $C$DW$147, DW_AT_low_pc(0x00)
    1475                            .dwattr $C$DW$147, DW_AT_name("VLIB_histogram_1D_U16_cn")
    1476                            .dwattr $C$DW$147, DW_AT_TI_call
    1477                    
    1478 0000038c 10000013!            CALLP   .S2     VLIB_histogram_1D_U16_cn,B3
    1479 00000390 03358207  ||         LDHU    .D1T2   *+A13(24),B6      ; |111| 
    1480 00000394 023d42e4  ||         LDW     .D2T1   *+SP(40),A4       ; |111| 
    1481                    
    1482 00000398           $C$RL24:   ; CALL OCCURS {VLIB_histogram_1D_U16_cn} {0}  ; |111| 
    1483                            .dwpsn  file ".\..\packages\ti\vlib\src\VLIB_histogram_1D_U16\..\common\VLIB_profile.h",line 1
    1484 00000398 032803e2             MVC     .S2     TSCL,B6           ; |153| 
    1485 0000039c 022c03e2             MVC     .S2     TSCH,B4           ; |153| 
TMS320C6x Assembler PC v7.4.2 Thu Mar 19 12:41:42 2015

Tools Copyright (c) 1996-2012 Texas Instruments Incorporated
package/lib/Regression/regress_d_c/./../packages/ti/vlib/src/VLIB_histogram_1D_U16/VLIB_histogram_1D_U16_d.se66 PAGE   28

    1486                    
    1487 000003a0 022c0265             LDW     .D1T1   *A11,A4           ; |156| 
    1488 000003a4 042803e6  ||         LDDW    .D2T2   *B10,B9:B8        ; |156| 
    1489                    
    1490                            .dwpsn  file ".\..\packages\ti\vlib\src\VLIB_histogram_1D_U16\..\common\VLIB_profile.h",line 1
    1491 000003a8 083403e6             LDDW    .D2T2   *B13,B17:B16      ; |156| 
    1492                            .dwpsn  file ".\..\packages\ti\vlib\src\VLIB_histogram_1D_U16\..\common\VLIB_profile.h",line 1
    1493 000003ac 03900fda             MV      .L2     B4,B7             ; |153| 
    1494 000003b0 01800028!            MVKL    .S1     end_count,A3
    1495 000003b4 01800068!            MVKH    .S1     end_count,A3
    1496                            .dwpsn  file ".\..\packages\ti\vlib\src\VLIB_histogram_1D_U16\..\common\VLIB_profile.h",line 1
    1497 000003b8 03308b64             LDDW    .D1T1   *+A12[A4],A7:A6   ; |156| 
    1498 000003bc 0222057a             ADDU    .L2     B16,B8,B5:B4      ; |156| 
    1499                    
    1500 000003c0 0444a1e3             ADD     .S2     B5,B17,B8         ; |156| 
    1501 000003c4 0210c5fa  ||         SUBU    .L2     B6,B4,B5:B4       ; |156| 
    1502                    
    1503 000003c8 0425007a             ADD     .L2     B8,B9,B8          ; |156| 
    1504                    
    1505 000003cc 02901fd9             MV      .L1X    B4,A5             ; |156| 
    1506 000003d0 02a0e0fb  ||         SUB     .L2     B7,B8,B5          ; |156| 
    1507 000003d4 0417184a  ||         EXT     .S2     B5,24,24,B8       ; |156| 
    1508                    
    1509 000003d8 0414c579             ADDU    .L1     A6,A5,A9:A8       ; |156| 
    1510 000003dc 02a0a07a  ||         ADD     .L2     B5,B8,B5          ; |156| 
    1511                    
    1512 000003e0 020c1fdb             MV      .L2X    A3,B4
    1513 000003e4 019d2078  ||         ADD     .L1     A9,A7,A3          ; |156| 
    1514                    
    1515 000003e8 04947078             ADD     .L1X    A3,B5,A9          ; |156| 
    1516                    $C$DW$148       .dwtag  DW_TAG_TI_branch
    1517                            .dwattr $C$DW$148, DW_AT_low_pc(0x00)
    1518                            .dwattr $C$DW$148, DW_AT_name("setStackDepth")
    1519                            .dwattr $C$DW$148, DW_AT_TI_call
    1520                    
    1521 000003ec 10000013!            CALLP   .S2     setStackDepth,B3
    1522 000003f0 04308b45  ||         STDW    .D1T1   A9:A8,*+A12[A4]   ; |156| 
    1523 000003f4 031003c6  ||         STDW    .D2T2   B7:B6,*B4         ; |153| 
    1524                    
    1525                            .dwpsn  file ".\..\packages\ti\vlib\src\VLIB_histogram_1D_U16\..\common\VLIB_profile.h",line 1
    1526                    ;----------------------------------------------------------------------
    1527                    ; 161 | main() {                                                               
    1528                    ; 162 | if( VLIB_cache_init()) {                                               
    1529                    ; 163 |     VLIB_memError("VLIB_histogram_1D_U16");                            
    1530                    ; 164 | } else {                                                               
    1531                    ;----------------------------------------------------------------------
    1532 000003f8           $C$RL25:   ; CALL OCCURS {setStackDepth} {0}  ; |159| 
    1533                            .dwpsn  file "./../packages/ti/vlib/src/VLIB_histogram_1D_U16/VLIB_histogram_1D_U16_d.c",line 
    1534 000003f8 01b4a264             LDW     .D1T1   *+A13(20),A3      ; |116| 
    1535 000003fc 023d62e4             LDW     .D2T1   *+SP(44),A4       ; |116| 
    1536 00000400     9507             MV      .L2X    A10,B4            ; |116| 
    1537 00000402     2c6e             NOP             2
    1538                    $C$DW$149       .dwtag  DW_TAG_TI_branch
    1539                            .dwattr $C$DW$149, DW_AT_low_pc(0x00)
    1540                            .dwattr $C$DW$149, DW_AT_name("VLIB_compare_mem")
TMS320C6x Assembler PC v7.4.2 Thu Mar 19 12:41:42 2015

Tools Copyright (c) 1996-2012 Texas Instruments Incorporated
package/lib/Regression/regress_d_c/./../packages/ti/vlib/src/VLIB_histogram_1D_U16/VLIB_histogram_1D_U16_d.se66 PAGE   29

    1541                            .dwattr $C$DW$149, DW_AT_TI_call
    1542                    
    1543 00000404 10000013!            CALLP   .S2     VLIB_compare_mem,B3
    1544 00000408 030c6078  ||         ADD     .L1     A3,A3,A6          ; |116| 
    1545                    
    1546 0000040c           $C$RL26:   ; CALL OCCURS {VLIB_compare_mem} {0}  ; |116| 
    1547 0000040c           $C$DW$L$VLIB_histogram_1D_U16_d$17$E:
    1548                    ;** --------------------------------------------------------------------------*
    1549 0000040c           $C$DW$L$VLIB_histogram_1D_U16_d$18$B:
    1550                    ;          EXCLUSIVE CPU CYCLES: 11
    1551                            .dwpsn  file "./../packages/ti/vlib/src/VLIB_histogram_1D_U16/VLIB_histogram_1D_U16_d.c",line 
    1552 0000040c 00346264             LDW     .D1T1   *+A13(12),A0      ; |119| 
    1553 00000410     fccd             LDW     .D2T2   *+SP(28),B4       ; |119| 
    1554                            .dwpsn  file "./../packages/ti/vlib/src/VLIB_histogram_1D_U16/VLIB_histogram_1D_U16_d.c",line 
    1555 00000412     5647             MV      .L2X    A4,B10            ; |116| 
    1556 00000414     2c6e             NOP             2
    1557                    
    1558 00000416     083a     [!A0]   B       .S1     $C$L6
    1559 00000418 c1b4a264  || [ A0]   LDW     .D1T1   *+A13(20),A3      ; |120| 
    1560                    
    1561                            .dwpsn  file "./../packages/ti/vlib/src/VLIB_histogram_1D_U16/VLIB_histogram_1D_U16_d.c",line 
    1562                    $C$DW$150       .dwtag  DW_TAG_TI_branch
    1563                            .dwattr $C$DW$150, DW_AT_low_pc(0x00)
    1564                            .dwattr $C$DW$150, DW_AT_name("VLIB_compare_mem")
    1565                            .dwattr $C$DW$150, DW_AT_TI_call
    1566 00000420 c0000010!    [ A0]   CALL    .S1     VLIB_compare_mem  ; |120| 
    1567                            .dwpsn  file "./../packages/ti/vlib/src/VLIB_histogram_1D_U16/VLIB_histogram_1D_U16_d.c",line 
    1568 00000424 d784a358     [!A0]   MVK     .L1     0x1,A15           ; |57| 
    1569 00000428     4c6e             NOP             3
    1570                               ; BRANCHCC OCCURS {$C$L6}  
    1571 0000042a           $C$DW$L$VLIB_histogram_1D_U16_d$18$E:
    1572                    ;** --------------------------------------------------------------------------*
    1573                            .dwpsn  file "./../packages/ti/vlib/src/VLIB_histogram_1D_U16/VLIB_histogram_1D_U16_d.c",line 
    1574 0000042a           $C$DW$L$VLIB_histogram_1D_U16_d$19$B:
    1575                    ;          EXCLUSIVE CPU CYCLES: 1
    1576                    ;**     -----------------------g11:
    1577                    ;** 120 -----------------------    status_nat_vs_ref = VLIB_compare_mem((void *)U$93, (void *)H_cn, (*
    1578                    ;** 120 -----------------------    v$1 = prm;
    1579                    
    1580 0000042a     9507             MV      .L2X    A10,B4            ; |120| 
    1581 0000042c     8046  ||         MV      .L1     A0,A4             ; |120| 
    1582 0000042e     61ea  ||         ADD     .S1     A3,A3,A6          ; |120| 
    1583 00000430 01850162  ||         ADDKPC  .S2     $C$RL27,B3,0      ; |120| 
    1584                    
    1585                            .dwpsn  file "./../packages/ti/vlib/src/VLIB_histogram_1D_U16/VLIB_histogram_1D_U16_d.c",line 
    1586 00000434           $C$RL27:   ; CALL OCCURS {VLIB_compare_mem} {0}  ; |120| 
    1587 00000434           $C$DW$L$VLIB_histogram_1D_U16_d$19$E:
    1588                    ;** --------------------------------------------------------------------------*
    1589 00000434           $C$DW$L$VLIB_histogram_1D_U16_d$20$B:
    1590                    ;          EXCLUSIVE CPU CYCLES: 5
    1591 00000434     fccd             LDW     .D2T2   *+SP(28),B4       ; |120| 
    1592 00000436     e646             MV      .L1     A4,A15            ; |120| 
    1593 00000438 00004000             NOP             3
    1594 00000440           $C$DW$L$VLIB_histogram_1D_U16_d$20$E:
    1595                    ;** --------------------------------------------------------------------------*
TMS320C6x Assembler PC v7.4.2 Thu Mar 19 12:41:42 2015

Tools Copyright (c) 1996-2012 Texas Instruments Incorporated
package/lib/Regression/regress_d_c/./../packages/ti/vlib/src/VLIB_histogram_1D_U16/VLIB_histogram_1D_U16_d.se66 PAGE   30

    1596 00000440           $C$L6:    
    1597 00000440           $C$DW$L$VLIB_histogram_1D_U16_d$21$B:
    1598                    ;          EXCLUSIVE CPU CYCLES: 14
    1599                    ;**     -----------------------g12:
    1600                    ;** 126 -----------------------    est_test = 1;
    1601                    ;** 129 -----------------------    C$2 = U$11+v$1;
    1602                    ;** 129 -----------------------    sprintf(K$104, (const char *)"%s generated input | Opt results comp
    1603                    ;** 131 -----------------------    VLIB_formula_add_test((*U$12).numX, 0, 0, (status_nat_vs_int == 0)|
    1604                    ;** 133 -----------------------    goto g14;
    1605                            .dwpsn  file "./../packages/ti/vlib/src/VLIB_histogram_1D_U16/VLIB_histogram_1D_U16_d.c",line 
    1606 00000440 0230807a             ADD     .L2     B4,B12,B4         ; |129| 
    1607 00000444     f06d             LDW     .D2T2   *+B4(28),B6       ; |129| 
    1608 00000446     905d             LDW     .D2T2   *+B4(16),B5       ; |129| 
    1609                    
    1610 0000044c 0210a2e6             LDW     .D2T2   *+B4(20),B4       ; |129| 
    1611 00000448 0380002b! ||         MVKL    .S2     $C$SL2+0,B7
    1612                    
    1613 00000450 0380006b!            MVKH    .S2     $C$SL2+0,B7
    1614 00000454 05bc42f6  ||         STW     .D2T2   B11,*+SP(8)       ; |129| 
    1615                    
    1616 00000458 02000029!            MVKL    .S1     est_test,A4
    1617 00000460     bc75  ||         STW     .D2T2   B7,*+SP(4)        ; |129| 
    1618                    
    1619 00000464 02000069!            MVKH    .S1     est_test,A4
    1620 00000462     25a6  ||         MVK     .L1     1,A3              ; |126| 
    1621 00000468     9ce5  ||         STW     .D2T2   B6,*+SP(16)       ; |129| 
    1622                    
    1623 0000046a     0034             STW     .D1T1   A3,*A4            ; |126| 
    1624 0000046c 02000029! ||         MVKL    .S1     desc,A4
    1625 00000470     bcd5  ||         STW     .D2T2   B5,*+SP(20)       ; |129| 
    1626                    
    1627                    $C$DW$151       .dwtag  DW_TAG_TI_branch
    1628                            .dwattr $C$DW$151, DW_AT_low_pc(0x00)
    1629                            .dwattr $C$DW$151, DW_AT_name("sprintf")
    1630                            .dwattr $C$DW$151, DW_AT_TI_call
    1631                    
    1632 00000474 10000013!            CALLP   .S2     sprintf,B3
    1633 00000472     fc45  ||         STW     .D2T2   B4,*+SP(12)       ; |129| 
    1634 00000478 02000068! ||         MVKH    .S1     desc,A4
    1635                    
    1636 00000480           $C$RL28:   ; CALL OCCURS {sprintf} {0}       ; |129| 
    1637 00000480           $C$DW$L$VLIB_histogram_1D_U16_d$21$E:
    1638                    ;** --------------------------------------------------------------------------*
    1639 00000480           $C$DW$L$VLIB_histogram_1D_U16_d$22$B:
    1640                    ;          EXCLUSIVE CPU CYCLES: 8
    1641                            .dwpsn  file "./../packages/ti/vlib/src/VLIB_histogram_1D_U16/VLIB_histogram_1D_U16_d.c",line 
    1642 00000480 01bc0a58             CMPEQ   .L1     A15,0,A3          ; |131| 
    1643                    
    1644 00000484 02280a5b             CMPEQ   .L2     B10,0,B4          ; |131| 
    1645 00000488 04000029! ||         MVKL    .S1     desc,A8
    1646 0000048c 0400002a  ||         ZERO    .S2     B8                ; |131| 
    1647                    
    1648                    $C$DW$152       .dwtag  DW_TAG_TI_branch
    1649                            .dwattr $C$DW$152, DW_AT_low_pc(0x00)
    1650                            .dwattr $C$DW$152, DW_AT_name("VLIB_formula_add_test")
TMS320C6x Assembler PC v7.4.2 Thu Mar 19 12:41:42 2015

Tools Copyright (c) 1996-2012 Texas Instruments Incorporated
package/lib/Regression/regress_d_c/./../packages/ti/vlib/src/VLIB_histogram_1D_U16/VLIB_histogram_1D_U16_d.se66 PAGE   31

    1651                            .dwattr $C$DW$152, DW_AT_TI_call
    1652                    
    1653 00000490 10000013!            CALLP   .S2     VLIB_formula_add_test,B3
    1654 00000494 02348265  ||         LDW     .D1T1   *+A13(16),A4      ; |131| 
    1655 00000498 030c9ffb  ||         OR      .L2X    A3,B4,B6          ; |131| 
    1656 0000049c 02000043  ||         ZERO    .D2     B4                ; |131| 
    1657 000004a0 04000069! ||         MVKH    .S1     desc,A8
    1658 000004a4     0726  ||         ZERO    .L1     A6                ; |131| 
    1659                    
    1660 000004a6           $C$RL29:   ; CALL OCCURS {VLIB_formula_add_test} {0}  ; |131| 
    1661 000004a6           $C$DW$L$VLIB_histogram_1D_U16_d$22$E:
    1662                    ;** --------------------------------------------------------------------------*
    1663 000004a6           $C$DW$L$VLIB_histogram_1D_U16_d$23$B:
    1664                    ;          EXCLUSIVE CPU CYCLES: 6
    1665                            .dwpsn  file "./../packages/ti/vlib/src/VLIB_histogram_1D_U16/VLIB_histogram_1D_U16_d.c",line 
    1666 000004a6     090a             B       .S1     $C$L8             ; |133| 
    1667                            .dwpsn  file "./../packages/ti/vlib/src/VLIB_histogram_1D_U16/VLIB_histogram_1D_U16_d.c",line 
    1668                    $C$DW$153       .dwtag  DW_TAG_TI_branch
    1669                            .dwattr $C$DW$153, DW_AT_low_pc(0x00)
    1670                            .dwattr $C$DW$153, DW_AT_name("VLIB_free")
    1671                            .dwattr $C$DW$153, DW_AT_TI_call
    1672 000004a8 00000010!            CALL    .S1     VLIB_free         ; |141| 
    1673 000004ac     adcd             LDW     .D2T1   *+SP(52),A4       ; |141| 
    1674 000004ae     4c6e             NOP             3
    1675                            .dwpsn  file "./../packages/ti/vlib/src/VLIB_histogram_1D_U16/VLIB_histogram_1D_U16_d.c",line 
    1676                               ; BRANCH OCCURS {$C$L8}           ; |133| 
    1677 000004b0           $C$DW$L$VLIB_histogram_1D_U16_d$23$E:
    1678                    ;** --------------------------------------------------------------------------*
    1679 000004b0           $C$L7:    
    1680                            .dwpsn  file "./../packages/ti/vlib/src/VLIB_histogram_1D_U16/VLIB_histogram_1D_U16_d.c",line 
    1681 000004b0           $C$DW$L$VLIB_histogram_1D_U16_d$24$B:
    1682                    ;          EXCLUSIVE CPU CYCLES: 4
    1683                    ;**     -----------------------g13:
    1684                    ;** 135 -----------------------    sprintf(K$104, (const char *)"numBins=%d, maxSize=%d, numX=%d", (*U
    1685                    ;** 137 -----------------------    VLIB_skip_test(K$104);
    1686                    
    1687 000004b0 0200002b!            MVKL    .S2     $C$SL3+0,B4
    1688 000004b4     ec45  ||         STW     .D2T1   A4,*+SP(12)       ; |135| 
    1689                    
    1690 000004b8 0200006a!            MVKH    .S2     $C$SL3+0,B4
    1691 000004b6     8cb5  ||         STW     .D2T1   A3,*+SP(16)       ; |135| 
    1692                    
    1693 000004c0 02000029!            MVKL    .S1     desc,A4
    1694 000004c4     bc45  ||         STW     .D2T2   B4,*+SP(4)        ; |135| 
    1695                    
    1696 000004c6     cc55             STW     .D2T1   A5,*+SP(8)        ; |135| 
    1697 000004c8 02000069! ||         MVKH    .S1     desc,A4
    1698 000004cc 01840162  ||         ADDKPC  .S2     $C$RL30,B3,0      ; |135| 
    1699                    
    1700                            .dwpsn  file "./../packages/ti/vlib/src/VLIB_histogram_1D_U16/VLIB_histogram_1D_U16_d.c",line 
    1701 000004d0           $C$RL30:   ; CALL OCCURS {sprintf} {0}       ; |135| 
    1702 000004d0           $C$DW$L$VLIB_histogram_1D_U16_d$24$E:
    1703                    ;** --------------------------------------------------------------------------*
    1704 000004d0           $C$DW$L$VLIB_histogram_1D_U16_d$25$B:
    1705                    ;          EXCLUSIVE CPU CYCLES: 12
TMS320C6x Assembler PC v7.4.2 Thu Mar 19 12:41:42 2015

Tools Copyright (c) 1996-2012 Texas Instruments Incorporated
package/lib/Regression/regress_d_c/./../packages/ti/vlib/src/VLIB_histogram_1D_U16/VLIB_histogram_1D_U16_d.se66 PAGE   32

    1706 000004d0 02000028!            MVKL    .S1     desc,A4
    1707                    $C$DW$154       .dwtag  DW_TAG_TI_branch
    1708                            .dwattr $C$DW$154, DW_AT_low_pc(0x00)
    1709                            .dwattr $C$DW$154, DW_AT_name("VLIB_skip_test")
    1710                            .dwattr $C$DW$154, DW_AT_TI_call
    1711                    
    1712 000004d4 10000013!            CALLP   .S2     VLIB_skip_test,B3
    1713 000004d8 02000068! ||         MVKH    .S1     desc,A4
    1714                    
    1715                            .dwpsn  file "./../packages/ti/vlib/src/VLIB_histogram_1D_U16/VLIB_histogram_1D_U16_d.c",line 
    1716 000004e0           $C$RL31:   ; CALL OCCURS {VLIB_skip_test} {0}  ; |137| 
    1717                            .dwpsn  file "./../packages/ti/vlib/src/VLIB_histogram_1D_U16/VLIB_histogram_1D_U16_d.c",line 
    1718                    $C$DW$155       .dwtag  DW_TAG_TI_branch
    1719                            .dwattr $C$DW$155, DW_AT_low_pc(0x00)
    1720                            .dwattr $C$DW$155, DW_AT_name("VLIB_free")
    1721                            .dwattr $C$DW$155, DW_AT_TI_call
    1722 000004e0 00000010!            CALL    .S1     VLIB_free         ; |141| 
    1723 000004e4     adcd             LDW     .D2T1   *+SP(52),A4       ; |141| 
    1724 000004e6     4c6e             NOP             3
    1725 000004e8           $C$DW$L$VLIB_histogram_1D_U16_d$25$E:
    1726                    ;** --------------------------------------------------------------------------*
    1727 000004e8           $C$L8:    
    1728                            .dwpsn  file "./../packages/ti/vlib/src/VLIB_histogram_1D_U16/VLIB_histogram_1D_U16_d.c",line 
    1729 000004e8           $C$DW$L$VLIB_histogram_1D_U16_d$26$B:
    1730                    ;          EXCLUSIVE CPU CYCLES: 1
    1731                    ;**     -----------------------g14:
    1732                    ;** 141 -----------------------    VLIB_free((void *)H1);
    1733                    ;** 142 -----------------------    free((void *)H_cn);
    1734                    ;** 143 -----------------------    VLIB_free((void *)H);
    1735                    ;** 144 -----------------------    VLIB_free((void *)X);
    1736                    ;** 145 -----------------------    VLIB_free((void *)histArray);
    1737                    ;** 146 -----------------------    VLIB_free((void *)binEdges);
    1738                    ;** 53  -----------------------    U$11 += 32;
    1739                    ;** 53  -----------------------    if ( test_cases > (++tpi) ) goto g3;
    1740                            .dwpsn  file "./../packages/ti/vlib/src/VLIB_histogram_1D_U16/VLIB_histogram_1D_U16_d.c",line 
    1741 000004e8 01830162             ADDKPC  .S2     $C$RL32,B3,0      ; |141| 
    1742                    $C$RL32:   ; CALL OCCURS {VLIB_free} {0}     ; |141| 
    1743                    $C$DW$L$VLIB_histogram_1D_U16_d$26$E:
    1744                    ;** --------------------------------------------------------------------------*
    1745                    $C$DW$L$VLIB_histogram_1D_U16_d$27$B:
    1746                    ;          EXCLUSIVE CPU CYCLES: 30
    1747                    $C$DW$156       .dwtag  DW_TAG_TI_branch
    1748                            .dwattr $C$DW$156, DW_AT_low_pc(0x00)
    1749                            .dwattr $C$DW$156, DW_AT_name("free")
    1750                            .dwattr $C$DW$156, DW_AT_TI_call
    1751                    
    1752 000004ec 10000013!            CALLP   .S2     free,B3
    1753 000004f0 023d82e4  ||         LDW     .D2T1   *+SP(48),A4       ; |142| 
    1754                    
    1755                            .dwpsn  file "./../packages/ti/vlib/src/VLIB_histogram_1D_U16/VLIB_histogram_1D_U16_d.c",line 
    1756                    $C$RL33:   ; CALL OCCURS {free} {0}          ; |142| 
    1757                    $C$DW$157       .dwtag  DW_TAG_TI_branch
    1758                            .dwattr $C$DW$157, DW_AT_low_pc(0x00)
    1759                            .dwattr $C$DW$157, DW_AT_name("VLIB_free")
    1760                            .dwattr $C$DW$157, DW_AT_TI_call
TMS320C6x Assembler PC v7.4.2 Thu Mar 19 12:41:42 2015

Tools Copyright (c) 1996-2012 Texas Instruments Incorporated
package/lib/Regression/regress_d_c/./../packages/ti/vlib/src/VLIB_histogram_1D_U16/VLIB_histogram_1D_U16_d.se66 PAGE   33

    1761                    
    1762 000004f4 10000013!            CALLP   .S2     VLIB_free,B3
    1763 000004f8 023d62e4  ||         LDW     .D2T1   *+SP(44),A4       ; |143| 
    1764                    
    1765                            .dwpsn  file "./../packages/ti/vlib/src/VLIB_histogram_1D_U16/VLIB_histogram_1D_U16_d.c",line 
    1766                    $C$RL34:   ; CALL OCCURS {VLIB_free} {0}     ; |143| 
    1767                    $C$DW$158       .dwtag  DW_TAG_TI_branch
    1768                            .dwattr $C$DW$158, DW_AT_low_pc(0x00)
    1769                            .dwattr $C$DW$158, DW_AT_name("VLIB_free")
    1770                            .dwattr $C$DW$158, DW_AT_TI_call
    1771                    
    1772 00000500 10000013!            CALLP   .S2     VLIB_free,B3
    1773 00000504 023d42e4  ||         LDW     .D2T1   *+SP(40),A4       ; |144| 
    1774                    
    1775                            .dwpsn  file "./../packages/ti/vlib/src/VLIB_histogram_1D_U16/VLIB_histogram_1D_U16_d.c",line 
    1776                    $C$RL35:   ; CALL OCCURS {VLIB_free} {0}     ; |144| 
    1777                    $C$DW$159       .dwtag  DW_TAG_TI_branch
    1778                            .dwattr $C$DW$159, DW_AT_low_pc(0x00)
    1779                            .dwattr $C$DW$159, DW_AT_name("VLIB_free")
    1780                            .dwattr $C$DW$159, DW_AT_TI_call
    1781                    
    1782 00000508 10000013!            CALLP   .S2     VLIB_free,B3
    1783 0000050c 023d22e4  ||         LDW     .D2T1   *+SP(36),A4       ; |145| 
    1784                    
    1785                            .dwpsn  file "./../packages/ti/vlib/src/VLIB_histogram_1D_U16/VLIB_histogram_1D_U16_d.c",line 
    1786                    $C$RL36:   ; CALL OCCURS {VLIB_free} {0}     ; |145| 
    1787                    $C$DW$160       .dwtag  DW_TAG_TI_branch
    1788                            .dwattr $C$DW$160, DW_AT_low_pc(0x00)
    1789                            .dwattr $C$DW$160, DW_AT_name("VLIB_free")
    1790                            .dwattr $C$DW$160, DW_AT_TI_call
    1791                    
    1792 00000510 10000013!            CALLP   .S2     VLIB_free,B3
    1793 00000514 023d02e4  ||         LDW     .D2T1   *+SP(32),A4       ; |146| 
    1794                    
    1795                            .dwpsn  file "./../packages/ti/vlib/src/VLIB_histogram_1D_U16/VLIB_histogram_1D_U16_d.c",line 
    1796 00000518           $C$RL37:   ; CALL OCCURS {VLIB_free} {0}     ; |146| 
    1797 00000518           $C$DW$L$VLIB_histogram_1D_U16_d$27$E:
    1798                    ;** --------------------------------------------------------------------------*
    1799 00000518           $C$DW$L$VLIB_histogram_1D_U16_d$28$B:
    1800                    ;          EXCLUSIVE CPU CYCLES: 14
    1801 00000518 01800028!            MVKL    .S1     test_cases,A3
    1802 0000051c 01800068!            MVKH    .S1     test_cases,A3
    1803                            .dwpsn  file "./../packages/ti/vlib/src/VLIB_histogram_1D_U16/VLIB_histogram_1D_U16_d.c",line 
    1804 00000520 018c0264             LDW     .D1T1   *A3,A3            ; |53| 
    1805 00000524 06001052             ADDK    .S2     32,B12            ; |53| 
    1806 00000528 07382058             ADD     .L1     1,A14,A14         ; |53| 
    1807                            .dwpsn  file "./../packages/ti/vlib/src/VLIB_histogram_1D_U16/VLIB_histogram_1D_U16_d.c",line 
    1808 0000052c 06801050             ADDK    .S1     32,A13            ; |60| 
    1809 00000530 00000000             NOP             1
    1810                            .dwpsn  file "./../packages/ti/vlib/src/VLIB_histogram_1D_U16/VLIB_histogram_1D_U16_d.c",line 
    1811 00000534 003868f8             CMPGT   .L1     A3,A14,A0         ; |53| 
    1812                    
    1813 00000538 ced78121     [ A0]   BNOP    .S1     $C$L1,4           ; |53| 
    1814 0000053c c1b4a264  || [ A0]   LDW     .D1T1   *+A13(20),A3      ; |60| 
    1815                    
TMS320C6x Assembler PC v7.4.2 Thu Mar 19 12:41:42 2015

Tools Copyright (c) 1996-2012 Texas Instruments Incorporated
package/lib/Regression/regress_d_c/./../packages/ti/vlib/src/VLIB_histogram_1D_U16/VLIB_histogram_1D_U16_d.se66 PAGE   34

    1816                            .dwpsn  file "./../packages/ti/vlib/src/VLIB_histogram_1D_U16/VLIB_histogram_1D_U16_d.c",line 
    1817 00000540 020c6078             ADD     .L1     A3,A3,A4          ; |60| 
    1818                            .dwpsn  file "./../packages/ti/vlib/src/VLIB_histogram_1D_U16/VLIB_histogram_1D_U16_d.c",line 
    1819                               ; BRANCHCC OCCURS {$C$L1}         ; |53| 
    1820 00000544           $C$DW$L$VLIB_histogram_1D_U16_d$28$E:
    1821                    ;** --------------------------------------------------------------------------*
    1822 00000544           $C$L9:    
    1823                    ;          EXCLUSIVE CPU CYCLES: 8
    1824                    ;**     -----------------------g15:
    1825                    ;** 150 -----------------------    VLIB_profile_cycle_report(2, "N = numX", "numX");
    1826                    ;** 158 -----------------------    printf((const char *)"---------------------------------------------
    1827                    ;** 165 -----------------------    VLIB_stack_memory();  // [19]
    1828                    ;**     -----------------------    return;
    1829 00000544 0200002a!            MVKL    .S2     $C$SL5+0,B4
    1830                    
    1831 00000548 03000029!            MVKL    .S1     $C$SL4+0,A6
    1832 0000054c 0200006a! ||         MVKH    .S2     $C$SL5+0,B4
    1833                    
    1834                    $C$DW$161       .dwtag  DW_TAG_TI_branch
    1835                            .dwattr $C$DW$161, DW_AT_low_pc(0x00)
    1836                            .dwattr $C$DW$161, DW_AT_name("VLIB_profile_cycle_report")
    1837                            .dwattr $C$DW$161, DW_AT_TI_call
    1838                    
    1839 00000550 10000013!            CALLP   .S2     VLIB_profile_cycle_report,B3
    1840 00000554 03000069! ||         MVKH    .S1     $C$SL4+0,A6
    1841 00000558 0208a358  ||         MVK     .L1     0x2,A4            ; |150| 
    1842                    
    1843                            .dwpsn  file "./../packages/ti/vlib/src/VLIB_histogram_1D_U16/VLIB_histogram_1D_U16_d.c",line 
    1844 0000055c           $C$RL38:   ; CALL OCCURS {VLIB_profile_cycle_report} {0}  ; |150| 
    1845                    ;** --------------------------------------------------------------------------*
    1846                    ;          EXCLUSIVE CPU CYCLES: 14
    1847 0000055c 0200002a!            MVKL    .S2     $C$SL6+0,B4
    1848 00000560 0200006a!            MVKH    .S2     $C$SL6+0,B4
    1849                    $C$DW$162       .dwtag  DW_TAG_TI_branch
    1850                            .dwattr $C$DW$162, DW_AT_low_pc(0x00)
    1851                            .dwattr $C$DW$162, DW_AT_name("printf")
    1852                            .dwattr $C$DW$162, DW_AT_TI_call
    1853                    
    1854 00000564 10000013!            CALLP   .S2     printf,B3
    1855 00000568 023c22f6  ||         STW     .D2T2   B4,*+SP(4)        ; |158| 
    1856                    
    1857                            .dwpsn  file ".\..\packages\ti\vlib\src\VLIB_histogram_1D_U16\../common/VLIB_memory.h",line 15
    1858                    $C$RL39:   ; CALL OCCURS {printf} {0}        ; |158| 
    1859                    $C$DW$163       .dwtag  DW_TAG_TI_branch
    1860                            .dwattr $C$DW$163, DW_AT_low_pc(0x00)
    1861                            .dwattr $C$DW$163, DW_AT_name("VLIB_stack_memory")
    1862                            .dwattr $C$DW$163, DW_AT_TI_call
    1863 0000056c 10000012!            CALLP   .S2     VLIB_stack_memory,B3
    1864                            .dwpsn  file ".\..\packages\ti\vlib\src\VLIB_histogram_1D_U16\../common/VLIB_memory.h",line 16
    1865 00000570           $C$RL40:   ; CALL OCCURS {VLIB_stack_memory} {0}  ; |165| 
    1866                    ;** --------------------------------------------------------------------------*
    1867                    ;          EXCLUSIVE CPU CYCLES: 13
    1868                            .dwpsn  file "./../packages/ti/vlib/src/VLIB_histogram_1D_U16/VLIB_histogram_1D_U16_d.c",line 
    1869 00000570 01be12e6             LDW     .D2T2   *++SP(64),B3      ; |156| 
    1870                            .dwcfi  cfa_offset, 48
TMS320C6x Assembler PC v7.4.2 Thu Mar 19 12:41:42 2015

Tools Copyright (c) 1996-2012 Texas Instruments Incorporated
package/lib/Regression/regress_d_c/./../packages/ti/vlib/src/VLIB_histogram_1D_U16/VLIB_histogram_1D_U16_d.se66 PAGE   35

    1871                            .dwcfi  restore_reg, 19
    1872 00000574     c677             LDDW    .D2T1   *++SP,A13:A12
    1873                            .dwcfi  cfa_offset, 40
    1874                            .dwcfi  restore_reg, 13
    1875                            .dwcfi  restore_reg, 12
    1876 00000576     c777             LDDW    .D2T1   *++SP,A15:A14
    1877                            .dwcfi  cfa_offset, 32
    1878                            .dwcfi  restore_reg, 15
    1879                            .dwcfi  restore_reg, 14
    1880 00000578     d577             LDDW    .D2T2   *++SP,B11:B10
    1881                            .dwcfi  cfa_offset, 24
    1882                            .dwcfi  restore_reg, 27
    1883                            .dwcfi  restore_reg, 26
    1884 0000057a     d677             LDDW    .D2T2   *++SP,B13:B12
    1885                            .dwcfi  cfa_offset, 16
    1886                            .dwcfi  restore_reg, 29
    1887                            .dwcfi  restore_reg, 28
    1888 00000580 053c52e4             LDW     .D2T1   *++SP(8),A10
    1889                            .dwcfi  cfa_offset, 8
    1890                            .dwcfi  restore_reg, 10
    1891 00000584 05bc52e4             LDW     .D2T1   *++SP(8),A11      ; |156| 
    1892                            .dwcfi  cfa_offset, 0
    1893                            .dwcfi  restore_reg, 11
    1894                            .dwcfi  cfa_offset, 0
    1895                    $C$DW$164       .dwtag  DW_TAG_TI_branch
    1896                            .dwattr $C$DW$164, DW_AT_low_pc(0x00)
    1897                            .dwattr $C$DW$164, DW_AT_TI_return
    1898 00000588 008ca362             RETNOP  .S2     B3,5
    1899                               ; BRANCH OCCURS {B3}  
    1900                    
    1901                    $C$DW$165       .dwtag  DW_TAG_TI_loop
    1902                            .dwattr $C$DW$165, DW_AT_name("c:\nightlybuilds\vlib\ti\vlib\vlib\examples\package/lib/Regress
    1903                            .dwattr $C$DW$165, DW_AT_TI_begin_file("./../packages/ti/vlib/src/VLIB_histogram_1D_U16/VLIB_h
    1904                            .dwattr $C$DW$165, DW_AT_TI_begin_line(0x35)
    1905                            .dwattr $C$DW$165, DW_AT_TI_end_line(0x93)
    1906                    $C$DW$166       .dwtag  DW_TAG_TI_loop_range
    1907                            .dwattr $C$DW$166, DW_AT_low_pc($C$DW$L$VLIB_histogram_1D_U16_d$4$B)
    1908                            .dwattr $C$DW$166, DW_AT_high_pc($C$DW$L$VLIB_histogram_1D_U16_d$4$E)
    1909                    $C$DW$167       .dwtag  DW_TAG_TI_loop_range
    1910                            .dwattr $C$DW$167, DW_AT_low_pc($C$DW$L$VLIB_histogram_1D_U16_d$24$B)
    1911                            .dwattr $C$DW$167, DW_AT_high_pc($C$DW$L$VLIB_histogram_1D_U16_d$24$E)
    1912                    $C$DW$168       .dwtag  DW_TAG_TI_loop_range
    1913                            .dwattr $C$DW$168, DW_AT_low_pc($C$DW$L$VLIB_histogram_1D_U16_d$19$B)
    1914                            .dwattr $C$DW$168, DW_AT_high_pc($C$DW$L$VLIB_histogram_1D_U16_d$19$E)
    1915                    $C$DW$169       .dwtag  DW_TAG_TI_loop_range
    1916                            .dwattr $C$DW$169, DW_AT_low_pc($C$DW$L$VLIB_histogram_1D_U16_d$10$B)
    1917                            .dwattr $C$DW$169, DW_AT_high_pc($C$DW$L$VLIB_histogram_1D_U16_d$10$E)
    1918                    $C$DW$170       .dwtag  DW_TAG_TI_loop_range
    1919                            .dwattr $C$DW$170, DW_AT_low_pc($C$DW$L$VLIB_histogram_1D_U16_d$5$B)
    1920                            .dwattr $C$DW$170, DW_AT_high_pc($C$DW$L$VLIB_histogram_1D_U16_d$5$E)
    1921                    $C$DW$171       .dwtag  DW_TAG_TI_loop_range
    1922                            .dwattr $C$DW$171, DW_AT_low_pc($C$DW$L$VLIB_histogram_1D_U16_d$6$B)
    1923                            .dwattr $C$DW$171, DW_AT_high_pc($C$DW$L$VLIB_histogram_1D_U16_d$6$E)
    1924                    $C$DW$172       .dwtag  DW_TAG_TI_loop_range
    1925                            .dwattr $C$DW$172, DW_AT_low_pc($C$DW$L$VLIB_histogram_1D_U16_d$7$B)
TMS320C6x Assembler PC v7.4.2 Thu Mar 19 12:41:42 2015

Tools Copyright (c) 1996-2012 Texas Instruments Incorporated
package/lib/Regression/regress_d_c/./../packages/ti/vlib/src/VLIB_histogram_1D_U16/VLIB_histogram_1D_U16_d.se66 PAGE   36

    1926                            .dwattr $C$DW$172, DW_AT_high_pc($C$DW$L$VLIB_histogram_1D_U16_d$7$E)
    1927                    $C$DW$173       .dwtag  DW_TAG_TI_loop_range
    1928                            .dwattr $C$DW$173, DW_AT_low_pc($C$DW$L$VLIB_histogram_1D_U16_d$8$B)
    1929                            .dwattr $C$DW$173, DW_AT_high_pc($C$DW$L$VLIB_histogram_1D_U16_d$8$E)
    1930                    $C$DW$174       .dwtag  DW_TAG_TI_loop_range
    1931                            .dwattr $C$DW$174, DW_AT_low_pc($C$DW$L$VLIB_histogram_1D_U16_d$9$B)
    1932                            .dwattr $C$DW$174, DW_AT_high_pc($C$DW$L$VLIB_histogram_1D_U16_d$9$E)
    1933                    $C$DW$175       .dwtag  DW_TAG_TI_loop_range
    1934                            .dwattr $C$DW$175, DW_AT_low_pc($C$DW$L$VLIB_histogram_1D_U16_d$14$B)
    1935                            .dwattr $C$DW$175, DW_AT_high_pc($C$DW$L$VLIB_histogram_1D_U16_d$14$E)
    1936                    $C$DW$176       .dwtag  DW_TAG_TI_loop_range
    1937                            .dwattr $C$DW$176, DW_AT_low_pc($C$DW$L$VLIB_histogram_1D_U16_d$15$B)
    1938                            .dwattr $C$DW$176, DW_AT_high_pc($C$DW$L$VLIB_histogram_1D_U16_d$15$E)
    1939                    $C$DW$177       .dwtag  DW_TAG_TI_loop_range
    1940                            .dwattr $C$DW$177, DW_AT_low_pc($C$DW$L$VLIB_histogram_1D_U16_d$16$B)
    1941                            .dwattr $C$DW$177, DW_AT_high_pc($C$DW$L$VLIB_histogram_1D_U16_d$16$E)
    1942                    $C$DW$178       .dwtag  DW_TAG_TI_loop_range
    1943                            .dwattr $C$DW$178, DW_AT_low_pc($C$DW$L$VLIB_histogram_1D_U16_d$17$B)
    1944                            .dwattr $C$DW$178, DW_AT_high_pc($C$DW$L$VLIB_histogram_1D_U16_d$17$E)
    1945                    $C$DW$179       .dwtag  DW_TAG_TI_loop_range
    1946                            .dwattr $C$DW$179, DW_AT_low_pc($C$DW$L$VLIB_histogram_1D_U16_d$18$B)
    1947                            .dwattr $C$DW$179, DW_AT_high_pc($C$DW$L$VLIB_histogram_1D_U16_d$18$E)
    1948                    $C$DW$180       .dwtag  DW_TAG_TI_loop_range
    1949                            .dwattr $C$DW$180, DW_AT_low_pc($C$DW$L$VLIB_histogram_1D_U16_d$20$B)
    1950                            .dwattr $C$DW$180, DW_AT_high_pc($C$DW$L$VLIB_histogram_1D_U16_d$20$E)
    1951                    $C$DW$181       .dwtag  DW_TAG_TI_loop_range
    1952                            .dwattr $C$DW$181, DW_AT_low_pc($C$DW$L$VLIB_histogram_1D_U16_d$21$B)
    1953                            .dwattr $C$DW$181, DW_AT_high_pc($C$DW$L$VLIB_histogram_1D_U16_d$21$E)
    1954                    $C$DW$182       .dwtag  DW_TAG_TI_loop_range
    1955                            .dwattr $C$DW$182, DW_AT_low_pc($C$DW$L$VLIB_histogram_1D_U16_d$22$B)
    1956                            .dwattr $C$DW$182, DW_AT_high_pc($C$DW$L$VLIB_histogram_1D_U16_d$22$E)
    1957                    $C$DW$183       .dwtag  DW_TAG_TI_loop_range
    1958                            .dwattr $C$DW$183, DW_AT_low_pc($C$DW$L$VLIB_histogram_1D_U16_d$23$B)
    1959                            .dwattr $C$DW$183, DW_AT_high_pc($C$DW$L$VLIB_histogram_1D_U16_d$23$E)
    1960                    $C$DW$184       .dwtag  DW_TAG_TI_loop_range
    1961                            .dwattr $C$DW$184, DW_AT_low_pc($C$DW$L$VLIB_histogram_1D_U16_d$25$B)
    1962                            .dwattr $C$DW$184, DW_AT_high_pc($C$DW$L$VLIB_histogram_1D_U16_d$25$E)
    1963                    $C$DW$185       .dwtag  DW_TAG_TI_loop_range
    1964                            .dwattr $C$DW$185, DW_AT_low_pc($C$DW$L$VLIB_histogram_1D_U16_d$26$B)
    1965                            .dwattr $C$DW$185, DW_AT_high_pc($C$DW$L$VLIB_histogram_1D_U16_d$26$E)
    1966                    $C$DW$186       .dwtag  DW_TAG_TI_loop_range
    1967                            .dwattr $C$DW$186, DW_AT_low_pc($C$DW$L$VLIB_histogram_1D_U16_d$27$B)
    1968                            .dwattr $C$DW$186, DW_AT_high_pc($C$DW$L$VLIB_histogram_1D_U16_d$27$E)
    1969                    $C$DW$187       .dwtag  DW_TAG_TI_loop_range
    1970                            .dwattr $C$DW$187, DW_AT_low_pc($C$DW$L$VLIB_histogram_1D_U16_d$28$B)
    1971                            .dwattr $C$DW$187, DW_AT_high_pc($C$DW$L$VLIB_histogram_1D_U16_d$28$E)
    1972                    
    1973                    $C$DW$188       .dwtag  DW_TAG_TI_loop
    1974                            .dwattr $C$DW$188, DW_AT_name("c:\nightlybuilds\vlib\ti\vlib\vlib\examples\package/lib/Regress
    1975                            .dwattr $C$DW$188, DW_AT_TI_begin_file("./../packages/ti/vlib/src/VLIB_histogram_1D_U16/VLIB_h
    1976                            .dwattr $C$DW$188, DW_AT_TI_begin_line(0x55)
    1977                            .dwattr $C$DW$188, DW_AT_TI_end_line(0x59)
    1978                    $C$DW$189       .dwtag  DW_TAG_TI_loop_range
    1979                            .dwattr $C$DW$189, DW_AT_low_pc($C$DW$L$VLIB_histogram_1D_U16_d$12$B)
    1980                            .dwattr $C$DW$189, DW_AT_high_pc($C$DW$L$VLIB_histogram_1D_U16_d$12$E)
TMS320C6x Assembler PC v7.4.2 Thu Mar 19 12:41:42 2015

Tools Copyright (c) 1996-2012 Texas Instruments Incorporated
package/lib/Regression/regress_d_c/./../packages/ti/vlib/src/VLIB_histogram_1D_U16/VLIB_histogram_1D_U16_d.se66 PAGE   37

    1981                            .dwendtag $C$DW$188
    1982                    
    1983                            .dwendtag $C$DW$165
    1984                    
    1985                            .dwattr $C$DW$91, DW_AT_TI_end_file("./../packages/ti/vlib/src/VLIB_histogram_1D_U16/VLIB_hist
    1986                            .dwattr $C$DW$91, DW_AT_TI_end_line(0x9c)
    1987                            .dwattr $C$DW$91, DW_AT_TI_end_column(0x01)
    1988                            .dwendentry
    1989                            .dwendtag $C$DW$91
    1990                    
    1991                    ;; Inlined function references:
    1992                    ;; [ 15] VLIB_profile_start
    1993                    ;; [ 16] VLIB_profile_stop
    1994                    ;; [ 19] VLIB_kernel_memory
    1995                    ;******************************************************************************
    1996                    ;* STRINGS                                                                    *
    1997                    ;******************************************************************************
    1998 00000000                   .sect   ".const:.string"
    1999 00000000 00000056  $C$SL1: .string "VLIB_histogram_1D_U16",0
         00000001 0000004C 
         00000002 00000049 
         00000003 00000042 
         00000004 0000005F 
         00000005 00000068 
         00000006 00000069 
         00000007 00000073 
         00000008 00000074 
         00000009 0000006F 
         0000000a 00000067 
         0000000b 00000072 
         0000000c 00000061 
         0000000d 0000006D 
         0000000e 0000005F 
         0000000f 00000031 
         00000010 00000044 
         00000011 0000005F 
         00000012 00000055 
         00000013 00000031 
         00000014 00000036 
         00000015 00000000 
    2000 00000016 00000025  $C$SL2: .string "%s generated input | Opt results compared to NatC results |"
         00000017 00000073 
         00000018 00000020 
         00000019 00000067 
         0000001a 00000065 
         0000001b 0000006E 
         0000001c 00000065 
         0000001d 00000072 
         0000001e 00000061 
         0000001f 00000074 
         00000020 00000065 
         00000021 00000064 
         00000022 00000020 
         00000023 00000069 
         00000024 0000006E 
TMS320C6x Assembler PC v7.4.2 Thu Mar 19 12:41:42 2015

Tools Copyright (c) 1996-2012 Texas Instruments Incorporated
package/lib/Regression/regress_d_c/./../packages/ti/vlib/src/VLIB_histogram_1D_U16/VLIB_histogram_1D_U16_d.se66 PAGE   38

         00000025 00000070 
         00000026 00000075 
         00000027 00000074 
         00000028 00000020 
         00000029 0000007C 
         0000002a 00000020 
         0000002b 0000004F 
         0000002c 00000070 
         0000002d 00000074 
         0000002e 00000020 
         0000002f 00000072 
         00000030 00000065 
         00000031 00000073 
         00000032 00000075 
         00000033 0000006C 
         00000034 00000074 
         00000035 00000073 
         00000036 00000020 
         00000037 00000063 
         00000038 0000006F 
         00000039 0000006D 
         0000003a 00000070 
         0000003b 00000061 
         0000003c 00000072 
         0000003d 00000065 
         0000003e 00000064 
         0000003f 00000020 
         00000040 00000074 
         00000041 0000006F 
         00000042 00000020 
         00000043 0000004E 
         00000044 00000061 
         00000045 00000074 
         00000046 00000043 
         00000047 00000020 
         00000048 00000072 
         00000049 00000065 
         0000004a 00000073 
         0000004b 00000075 
         0000004c 0000006C 
         0000004d 00000074 
         0000004e 00000073 
         0000004f 00000020 
         00000050 0000007C 
    2001 00000051 00000020          .string " numBins=%d, maxSize=%d, numX=%d",0
         00000052 0000006E 
         00000053 00000075 
         00000054 0000006D 
         00000055 00000042 
         00000056 00000069 
         00000057 0000006E 
         00000058 00000073 
         00000059 0000003D 
         0000005a 00000025 
         0000005b 00000064 
TMS320C6x Assembler PC v7.4.2 Thu Mar 19 12:41:42 2015

Tools Copyright (c) 1996-2012 Texas Instruments Incorporated
package/lib/Regression/regress_d_c/./../packages/ti/vlib/src/VLIB_histogram_1D_U16/VLIB_histogram_1D_U16_d.se66 PAGE   39

         0000005c 0000002C 
         0000005d 00000020 
         0000005e 0000006D 
         0000005f 00000061 
         00000060 00000078 
         00000061 00000053 
         00000062 00000069 
         00000063 0000007A 
         00000064 00000065 
         00000065 0000003D 
         00000066 00000025 
         00000067 00000064 
         00000068 0000002C 
         00000069 00000020 
         0000006a 0000006E 
         0000006b 00000075 
         0000006c 0000006D 
         0000006d 00000058 
         0000006e 0000003D 
         0000006f 00000025 
         00000070 00000064 
         00000071 00000000 
    2002 00000072 0000006E  $C$SL3: .string "numBins=%d, maxSize=%d, numX=%d",0
         00000073 00000075 
         00000074 0000006D 
         00000075 00000042 
         00000076 00000069 
         00000077 0000006E 
         00000078 00000073 
         00000079 0000003D 
         0000007a 00000025 
         0000007b 00000064 
         0000007c 0000002C 
         0000007d 00000020 
         0000007e 0000006D 
         0000007f 00000061 
         00000080 00000078 
         00000081 00000053 
         00000082 00000069 
         00000083 0000007A 
         00000084 00000065 
         00000085 0000003D 
         00000086 00000025 
         00000087 00000064 
         00000088 0000002C 
         00000089 00000020 
         0000008a 0000006E 
         0000008b 00000075 
         0000008c 0000006D 
         0000008d 00000058 
         0000008e 0000003D 
         0000008f 00000025 
         00000090 00000064 
         00000091 00000000 
    2003 00000092 0000006E  $C$SL4: .string "numX",0
TMS320C6x Assembler PC v7.4.2 Thu Mar 19 12:41:42 2015

Tools Copyright (c) 1996-2012 Texas Instruments Incorporated
package/lib/Regression/regress_d_c/./../packages/ti/vlib/src/VLIB_histogram_1D_U16/VLIB_histogram_1D_U16_d.se66 PAGE   40

         00000093 00000075 
         00000094 0000006D 
         00000095 00000058 
         00000096 00000000 
    2004 00000097 0000004E  $C$SL5: .string "N = numX",0
         00000098 00000020 
         00000099 0000003D 
         0000009a 00000020 
         0000009b 0000006E 
         0000009c 00000075 
         0000009d 0000006D 
         0000009e 00000058 
         0000009f 00000000 
    2005 000000a0 0000002D  $C$SL6: .string "-----------------------------------------------------------"
         000000a1 0000002D 
         000000a2 0000002D 
         000000a3 0000002D 
         000000a4 0000002D 
         000000a5 0000002D 
         000000a6 0000002D 
         000000a7 0000002D 
         000000a8 0000002D 
         000000a9 0000002D 
         000000aa 0000002D 
         000000ab 0000002D 
         000000ac 0000002D 
         000000ad 0000002D 
         000000ae 0000002D 
         000000af 0000002D 
         000000b0 0000002D 
         000000b1 0000002D 
         000000b2 0000002D 
         000000b3 0000002D 
         000000b4 0000002D 
         000000b5 0000002D 
         000000b6 0000002D 
         000000b7 0000002D 
         000000b8 0000002D 
         000000b9 0000002D 
         000000ba 0000002D 
         000000bb 0000002D 
         000000bc 0000002D 
         000000bd 0000002D 
         000000be 0000002D 
         000000bf 0000002D 
         000000c0 0000002D 
         000000c1 0000002D 
         000000c2 0000002D 
         000000c3 0000002D 
         000000c4 0000002D 
         000000c5 0000002D 
         000000c6 0000002D 
         000000c7 0000002D 
         000000c8 0000002D 
         000000c9 0000002D 
TMS320C6x Assembler PC v7.4.2 Thu Mar 19 12:41:42 2015

Tools Copyright (c) 1996-2012 Texas Instruments Incorporated
package/lib/Regression/regress_d_c/./../packages/ti/vlib/src/VLIB_histogram_1D_U16/VLIB_histogram_1D_U16_d.se66 PAGE   41

         000000ca 0000002D 
         000000cb 0000002D 
         000000cc 0000002D 
         000000cd 0000002D 
         000000ce 0000002D 
         000000cf 0000002D 
         000000d0 0000002D 
         000000d1 0000002D 
         000000d2 0000002D 
         000000d3 0000002D 
         000000d4 0000002D 
         000000d5 0000002D 
         000000d6 0000002D 
         000000d7 0000002D 
         000000d8 0000002D 
         000000d9 0000002D 
         000000da 0000002D 
    2006 000000db 0000002D          .string "-----------------------------------------------------------"
         000000dc 0000002D 
         000000dd 0000002D 
         000000de 0000002D 
         000000df 0000002D 
         000000e0 0000002D 
         000000e1 0000002D 
         000000e2 0000002D 
         000000e3 0000002D 
         000000e4 0000002D 
         000000e5 0000002D 
         000000e6 0000002D 
         000000e7 0000002D 
         000000e8 0000002D 
         000000e9 0000002D 
         000000ea 0000002D 
         000000eb 0000002D 
         000000ec 0000002D 
         000000ed 0000002D 
         000000ee 0000002D 
         000000ef 0000002D 
         000000f0 0000002D 
         000000f1 0000002D 
         000000f2 0000002D 
         000000f3 0000002D 
         000000f4 0000002D 
         000000f5 0000002D 
         000000f6 0000002D 
         000000f7 0000002D 
         000000f8 0000002D 
         000000f9 0000002D 
         000000fa 0000002D 
         000000fb 0000002D 
         000000fc 0000002D 
         000000fd 0000002D 
         000000fe 0000002D 
         000000ff 0000002D 
         00000100 0000002D 
TMS320C6x Assembler PC v7.4.2 Thu Mar 19 12:41:42 2015

Tools Copyright (c) 1996-2012 Texas Instruments Incorporated
package/lib/Regression/regress_d_c/./../packages/ti/vlib/src/VLIB_histogram_1D_U16/VLIB_histogram_1D_U16_d.se66 PAGE   42

         00000101 0000002D 
         00000102 0000002D 
         00000103 0000002D 
         00000104 0000002D 
         00000105 0000002D 
         00000106 0000002D 
         00000107 0000002D 
         00000108 0000002D 
         00000109 0000002D 
         0000010a 0000002D 
         0000010b 0000002D 
         0000010c 0000002D 
         0000010d 0000002D 
         0000010e 0000002D 
         0000010f 0000002D 
         00000110 0000002D 
         00000111 0000002D 
         00000112 0000002D 
         00000113 0000002D 
         00000114 0000002D 
         00000115 0000002D 
    2007 00000116 0000002D          .string "-----------------------",10,0
         00000117 0000002D 
         00000118 0000002D 
         00000119 0000002D 
         0000011a 0000002D 
         0000011b 0000002D 
         0000011c 0000002D 
         0000011d 0000002D 
         0000011e 0000002D 
         0000011f 0000002D 
         00000120 0000002D 
         00000121 0000002D 
         00000122 0000002D 
         00000123 0000002D 
         00000124 0000002D 
         00000125 0000002D 
         00000126 0000002D 
         00000127 0000002D 
         00000128 0000002D 
         00000129 0000002D 
         0000012a 0000002D 
         0000012b 0000002D 
         0000012c 0000002D 
         0000012d 0000000A 
         0000012e 00000000 
    2008                    ;*****************************************************************************
    2009                    ;* UNDEFINED EXTERNAL REFERENCES                                             *
    2010                    ;*****************************************************************************
    2011                            .global printf
    2012                            .global sprintf
    2013                            .global memset
    2014                            .global malloc
    2015                            .global free
    2016                            .global VLIB_cache_inval
TMS320C6x Assembler PC v7.4.2 Thu Mar 19 12:41:42 2015

Tools Copyright (c) 1996-2012 Texas Instruments Incorporated
package/lib/Regression/regress_d_c/./../packages/ti/vlib/src/VLIB_histogram_1D_U16/VLIB_histogram_1D_U16_d.se66 PAGE   43

    2017                            .global VLIB_profile_init
    2018                            .global VLIB_formula_add_test
    2019                            .global VLIB_skip_test
    2020                            .global VLIB_profile_cycle_report
    2021                            .global initStack
    2022                            .global setStackDepth
    2023                            .global getSP
    2024                            .global VLIB_stack_memory
    2025                            .global VLIB_compare_mem
    2026                            .global VLIB_fillBuffer
    2027                            .global VLIB_malloc
    2028                            .global VLIB_free
    2029                            .global VLIB_histogram_1D_U16
    2030                            .global VLIB_histogram_1D_U16_cn
    2031                            .global histogram_1D_U16_getTestParams
    2032                            .global VLIB_histogram_1D_Init_U16_cn
    2033                            .global test_cases
    2034                            .global act_kernel
    2035                            .global desc
    2036                            .global testPatternString
    2037                            .global est_test
    2038                            .global beg_count
    2039                            .global end_count
    2040                            .global overhead
    2041                            .global cycles
    2042                    
    2043                    ;******************************************************************************
    2044                    ;* BUILD ATTRIBUTES                                                           *
    2045                    ;******************************************************************************
    2046                            .battr "TI", Tag_File, 1, Tag_Long_Precision_Bits(2)
    2047                            .battr "TI", Tag_File, 1, Tag_Bitfield_layout(2)
    2048                            .battr "TI", Tag_File, 1, Tag_ABI_enum_size(2)
    2049                            .battr "c6xabi", Tag_File, 1, Tag_ABI_wchar_t(1)
    2050                            .battr "c6xabi", Tag_File, 1, Tag_ABI_array_object_alignment(0)
    2051                            .battr "c6xabi", Tag_File, 1, Tag_ABI_array_object_align_expected(0)
    2052                            .battr "c6xabi", Tag_File, 1, Tag_ABI_PIC(0)
    2053                            .battr "c6xabi", Tag_File, 1, Tag_ABI_PID(0)
    2054                            .battr "c6xabi", Tag_File, 1, Tag_ABI_DSBT(0)
    2055                            .battr "c6xabi", Tag_File, 1, Tag_ABI_stack_align_needed(0)
    2056                            .battr "c6xabi", Tag_File, 1, Tag_ABI_stack_align_preserved(0)
    2057                            .battr "TI", Tag_File, 1, Tag_Tramps_Use_SOC(1)
    2058                    
    2059                    ;******************************************************************************
    2060                    ;* TYPE INFORMATION                                                           *
    2061                    ;******************************************************************************
    2062                    
    2063                    $C$DW$T$36      .dwtag  DW_TAG_enumeration_type
    2064                            .dwattr $C$DW$T$36, DW_AT_byte_size(0x04)
    2065                    $C$DW$190       .dwtag  DW_TAG_enumerator, DW_AT_name("VLIB_NO_ERROR"), DW_AT_const_value(0x00)
    2066                            .dwattr $C$DW$190, DW_AT_decl_file(".\..\packages\ti\vlib\src\VLIB_histogram_1D_U16\..\common\
    2067                            .dwattr $C$DW$190, DW_AT_decl_line(0x7a)
    2068                            .dwattr $C$DW$190, DW_AT_decl_column(0x05)
    2069                    $C$DW$191       .dwtag  DW_TAG_enumerator, DW_AT_name("VLIB_ERR_INPUT_INVALID"), DW_AT_const_value(0x0
    2070                            .dwattr $C$DW$191, DW_AT_decl_file(".\..\packages\ti\vlib\src\VLIB_histogram_1D_U16\..\common\
    2071                            .dwattr $C$DW$191, DW_AT_decl_line(0x7b)
TMS320C6x Assembler PC v7.4.2 Thu Mar 19 12:41:42 2015

Tools Copyright (c) 1996-2012 Texas Instruments Incorporated
package/lib/Regression/regress_d_c/./../packages/ti/vlib/src/VLIB_histogram_1D_U16/VLIB_histogram_1D_U16_d.se66 PAGE   44

    2072                            .dwattr $C$DW$191, DW_AT_decl_column(0x05)
    2073                    $C$DW$192       .dwtag  DW_TAG_enumerator, DW_AT_name("VLIB_ERR_INPUT_NEGATIVE"), DW_AT_const_value(0x
    2074                            .dwattr $C$DW$192, DW_AT_decl_file(".\..\packages\ti\vlib\src\VLIB_histogram_1D_U16\..\common\
    2075                            .dwattr $C$DW$192, DW_AT_decl_line(0x7c)
    2076                            .dwattr $C$DW$192, DW_AT_decl_column(0x05)
    2077                    $C$DW$193       .dwtag  DW_TAG_enumerator, DW_AT_name("VLIB_ERR_INPUT_EXCEEDED_RANGE"), DW_AT_const_va
    2078                            .dwattr $C$DW$193, DW_AT_decl_file(".\..\packages\ti\vlib\src\VLIB_histogram_1D_U16\..\common\
    2079                            .dwattr $C$DW$193, DW_AT_decl_line(0x7d)
    2080                            .dwattr $C$DW$193, DW_AT_decl_column(0x05)
    2081                    $C$DW$194       .dwtag  DW_TAG_enumerator, DW_AT_name("VLIB_ERR_MEMORY_EXCEEDED_BOUNDARY"), DW_AT_cons
    2082                            .dwattr $C$DW$194, DW_AT_decl_file(".\..\packages\ti\vlib\src\VLIB_histogram_1D_U16\..\common\
    2083                            .dwattr $C$DW$194, DW_AT_decl_line(0x7e)
    2084                            .dwattr $C$DW$194, DW_AT_decl_column(0x05)
    2085                    $C$DW$195       .dwtag  DW_TAG_enumerator, DW_AT_name("VLIB_ERR_MEMORY_ALLOCATION_FAILURE"), DW_AT_con
    2086                            .dwattr $C$DW$195, DW_AT_decl_file(".\..\packages\ti\vlib\src\VLIB_histogram_1D_U16\..\common\
    2087                            .dwattr $C$DW$195, DW_AT_decl_line(0x7f)
    2088                            .dwattr $C$DW$195, DW_AT_decl_column(0x05)
    2089                    $C$DW$196       .dwtag  DW_TAG_enumerator, DW_AT_name("VLIB_ERR_MEMORY_POINTER_NULL"), DW_AT_const_val
    2090                            .dwattr $C$DW$196, DW_AT_decl_file(".\..\packages\ti\vlib\src\VLIB_histogram_1D_U16\..\common\
    2091                            .dwattr $C$DW$196, DW_AT_decl_line(0x80)
    2092                            .dwattr $C$DW$196, DW_AT_decl_column(0x05)
    2093                    $C$DW$197       .dwtag  DW_TAG_enumerator, DW_AT_name("VLIB_ERR_DMA_FAILURE"), DW_AT_const_value(0x07)
    2094                            .dwattr $C$DW$197, DW_AT_decl_file(".\..\packages\ti\vlib\src\VLIB_histogram_1D_U16\..\common\
    2095                            .dwattr $C$DW$197, DW_AT_decl_line(0x81)
    2096                            .dwattr $C$DW$197, DW_AT_decl_column(0x05)
    2097                    $C$DW$198       .dwtag  DW_TAG_enumerator, DW_AT_name("VLIB_ERR_FILE_OPEN_FAILURE"), DW_AT_const_value
    2098                            .dwattr $C$DW$198, DW_AT_decl_file(".\..\packages\ti\vlib\src\VLIB_histogram_1D_U16\..\common\
    2099                            .dwattr $C$DW$198, DW_AT_decl_line(0x82)
    2100                            .dwattr $C$DW$198, DW_AT_decl_column(0x05)
    2101                    $C$DW$199       .dwtag  DW_TAG_enumerator, DW_AT_name("VLIB_ERR_FILE_READ_FAILURE"), DW_AT_const_value
    2102                            .dwattr $C$DW$199, DW_AT_decl_file(".\..\packages\ti\vlib\src\VLIB_histogram_1D_U16\..\common\
    2103                            .dwattr $C$DW$199, DW_AT_decl_line(0x83)
    2104                            .dwattr $C$DW$199, DW_AT_decl_column(0x05)
    2105                    $C$DW$200       .dwtag  DW_TAG_enumerator, DW_AT_name("VLIB_ERR_FILE_WRITE_FAILURE"), DW_AT_const_valu
    2106                            .dwattr $C$DW$200, DW_AT_decl_file(".\..\packages\ti\vlib\src\VLIB_histogram_1D_U16\..\common\
    2107                            .dwattr $C$DW$200, DW_AT_decl_line(0x84)
    2108                            .dwattr $C$DW$200, DW_AT_decl_column(0x05)
    2109                    $C$DW$201       .dwtag  DW_TAG_enumerator, DW_AT_name("VLIB_ERR_FILE_CLOSE_FAILURE"), DW_AT_const_valu
    2110                            .dwattr $C$DW$201, DW_AT_decl_file(".\..\packages\ti\vlib\src\VLIB_histogram_1D_U16\..\common\
    2111                            .dwattr $C$DW$201, DW_AT_decl_line(0x85)
    2112                            .dwattr $C$DW$201, DW_AT_decl_column(0x05)
    2113                    $C$DW$202       .dwtag  DW_TAG_enumerator, DW_AT_name("VLIB_ERR_FILE_FORMAT_FAILURE"), DW_AT_const_val
    2114                            .dwattr $C$DW$202, DW_AT_decl_file(".\..\packages\ti\vlib\src\VLIB_histogram_1D_U16\..\common\
    2115                            .dwattr $C$DW$202, DW_AT_decl_line(0x86)
    2116                            .dwattr $C$DW$202, DW_AT_decl_column(0x05)
    2117                    $C$DW$203       .dwtag  DW_TAG_enumerator, DW_AT_name("VLIB_WARNING_LOW_MEMORY"), DW_AT_const_value(0x
    2118                            .dwattr $C$DW$203, DW_AT_decl_file(".\..\packages\ti\vlib\src\VLIB_histogram_1D_U16\..\common\
    2119                            .dwattr $C$DW$203, DW_AT_decl_line(0x87)
    2120                            .dwattr $C$DW$203, DW_AT_decl_column(0x05)
    2121                    $C$DW$204       .dwtag  DW_TAG_enumerator, DW_AT_name("VLIB_ERR_NOT_IMPLEMENTED"), DW_AT_const_value(0
    2122                            .dwattr $C$DW$204, DW_AT_decl_file(".\..\packages\ti\vlib\src\VLIB_histogram_1D_U16\..\common\
    2123                            .dwattr $C$DW$204, DW_AT_decl_line(0x88)
    2124                            .dwattr $C$DW$204, DW_AT_decl_column(0x05)
    2125                    $C$DW$205       .dwtag  DW_TAG_enumerator, DW_AT_name("VLIB_ERROR_MAX"), DW_AT_const_value(0x0f)
    2126                            .dwattr $C$DW$205, DW_AT_decl_file(".\..\packages\ti\vlib\src\VLIB_histogram_1D_U16\..\common\
TMS320C6x Assembler PC v7.4.2 Thu Mar 19 12:41:42 2015

Tools Copyright (c) 1996-2012 Texas Instruments Incorporated
package/lib/Regression/regress_d_c/./../packages/ti/vlib/src/VLIB_histogram_1D_U16/VLIB_histogram_1D_U16_d.se66 PAGE   45

    2127                            .dwattr $C$DW$205, DW_AT_decl_line(0x89)
    2128                            .dwattr $C$DW$205, DW_AT_decl_column(0x05)
    2129                            .dwendtag $C$DW$T$36
    2130                    
    2131                            .dwattr $C$DW$T$36, DW_AT_decl_file(".\..\packages\ti\vlib\src\VLIB_histogram_1D_U16\..\common
    2132                            .dwattr $C$DW$T$36, DW_AT_decl_line(0x79)
    2133                            .dwattr $C$DW$T$36, DW_AT_decl_column(0x0e)
    2134                    $C$DW$T$37      .dwtag  DW_TAG_typedef, DW_AT_name("VLIB_STATUS")
    2135                            .dwattr $C$DW$T$37, DW_AT_type(*$C$DW$T$36)
    2136                            .dwattr $C$DW$T$37, DW_AT_language(DW_LANG_C)
    2137                            .dwattr $C$DW$T$37, DW_AT_decl_file(".\..\packages\ti\vlib\src\VLIB_histogram_1D_U16\..\common
    2138                            .dwattr $C$DW$T$37, DW_AT_decl_line(0x8a)
    2139                            .dwattr $C$DW$T$37, DW_AT_decl_column(0x03)
    2140                    
    2141                    $C$DW$T$38      .dwtag  DW_TAG_enumeration_type
    2142                            .dwattr $C$DW$T$38, DW_AT_byte_size(0x04)
    2143                    $C$DW$206       .dwtag  DW_TAG_enumerator, DW_AT_name("vlib_KERNEL_OPT"), DW_AT_const_value(0x00)
    2144                            .dwattr $C$DW$206, DW_AT_decl_file(".\..\packages\ti\vlib\src\VLIB_histogram_1D_U16\../common/
    2145                            .dwattr $C$DW$206, DW_AT_decl_line(0x6a)
    2146                            .dwattr $C$DW$206, DW_AT_decl_column(0x05)
    2147                    $C$DW$207       .dwtag  DW_TAG_enumerator, DW_AT_name("vlib_KERNEL_CN"), DW_AT_const_value(0x01)
    2148                            .dwattr $C$DW$207, DW_AT_decl_file(".\..\packages\ti\vlib\src\VLIB_histogram_1D_U16\../common/
    2149                            .dwattr $C$DW$207, DW_AT_decl_line(0x6b)
    2150                            .dwattr $C$DW$207, DW_AT_decl_column(0x05)
    2151                    $C$DW$208       .dwtag  DW_TAG_enumerator, DW_AT_name("vlib_KERNEL_CNT"), DW_AT_const_value(0x02)
    2152                            .dwattr $C$DW$208, DW_AT_decl_file(".\..\packages\ti\vlib\src\VLIB_histogram_1D_U16\../common/
    2153                            .dwattr $C$DW$208, DW_AT_decl_line(0x6c)
    2154                            .dwattr $C$DW$208, DW_AT_decl_column(0x05)
    2155                            .dwendtag $C$DW$T$38
    2156                    
    2157                            .dwattr $C$DW$T$38, DW_AT_decl_file(".\..\packages\ti\vlib\src\VLIB_histogram_1D_U16\../common
    2158                            .dwattr $C$DW$T$38, DW_AT_decl_line(0x69)
    2159                            .dwattr $C$DW$T$38, DW_AT_decl_column(0x06)
    2160                    
    2161                    $C$DW$T$39      .dwtag  DW_TAG_enumeration_type
    2162                            .dwattr $C$DW$T$39, DW_AT_byte_size(0x04)
    2163                    $C$DW$209       .dwtag  DW_TAG_enumerator, DW_AT_name("vlib_KERNEL_FAIL"), DW_AT_const_value(0x00)
    2164                            .dwattr $C$DW$209, DW_AT_decl_file(".\..\packages\ti\vlib\src\VLIB_histogram_1D_U16\../common/
    2165                            .dwattr $C$DW$209, DW_AT_decl_line(0x72)
    2166                            .dwattr $C$DW$209, DW_AT_decl_column(0x05)
    2167                    $C$DW$210       .dwtag  DW_TAG_enumerator, DW_AT_name("vlib_KERNEL_PASS"), DW_AT_const_value(0x01)
    2168                            .dwattr $C$DW$210, DW_AT_decl_file(".\..\packages\ti\vlib\src\VLIB_histogram_1D_U16\../common/
    2169                            .dwattr $C$DW$210, DW_AT_decl_line(0x73)
    2170                            .dwattr $C$DW$210, DW_AT_decl_column(0x05)
    2171                            .dwendtag $C$DW$T$39
    2172                    
    2173                            .dwattr $C$DW$T$39, DW_AT_decl_file(".\..\packages\ti\vlib\src\VLIB_histogram_1D_U16\../common
    2174                            .dwattr $C$DW$T$39, DW_AT_decl_line(0x71)
    2175                            .dwattr $C$DW$T$39, DW_AT_decl_column(0x06)
    2176                    
    2177                    $C$DW$T$23      .dwtag  DW_TAG_structure_type
    2178                            .dwattr $C$DW$T$23, DW_AT_byte_size(0x20)
    2179                    $C$DW$211       .dwtag  DW_TAG_member
    2180                            .dwattr $C$DW$211, DW_AT_type(*$C$DW$T$19)
    2181                            .dwattr $C$DW$211, DW_AT_name("testPattern")
TMS320C6x Assembler PC v7.4.2 Thu Mar 19 12:41:42 2015

Tools Copyright (c) 1996-2012 Texas Instruments Incorporated
package/lib/Regression/regress_d_c/./../packages/ti/vlib/src/VLIB_histogram_1D_U16/VLIB_histogram_1D_U16_d.se66 PAGE   46

    2182                            .dwattr $C$DW$211, DW_AT_TI_symbol_name("testPattern")
    2183                            .dwattr $C$DW$211, DW_AT_data_member_location[DW_OP_plus_uconst 0x0]
    2184                            .dwattr $C$DW$211, DW_AT_accessibility(DW_ACCESS_public)
    2185                            .dwattr $C$DW$211, DW_AT_decl_file(".\..\packages\ti\vlib\src\VLIB_histogram_1D_U16\VLIB_histo
    2186                            .dwattr $C$DW$211, DW_AT_decl_line(0x24)
    2187                            .dwattr $C$DW$211, DW_AT_decl_column(0x0f)
    2188                    $C$DW$212       .dwtag  DW_TAG_member
    2189                            .dwattr $C$DW$212, DW_AT_type(*$C$DW$T$21)
    2190                            .dwattr $C$DW$212, DW_AT_name("staticInEdges")
    2191                            .dwattr $C$DW$212, DW_AT_TI_symbol_name("staticInEdges")
    2192                            .dwattr $C$DW$212, DW_AT_data_member_location[DW_OP_plus_uconst 0x4]
    2193                            .dwattr $C$DW$212, DW_AT_accessibility(DW_ACCESS_public)
    2194                            .dwattr $C$DW$212, DW_AT_decl_file(".\..\packages\ti\vlib\src\VLIB_histogram_1D_U16\VLIB_histo
    2195                            .dwattr $C$DW$212, DW_AT_decl_line(0x25)
    2196                            .dwattr $C$DW$212, DW_AT_decl_column(0x0f)
    2197                    $C$DW$213       .dwtag  DW_TAG_member
    2198                            .dwattr $C$DW$213, DW_AT_type(*$C$DW$T$21)
    2199                            .dwattr $C$DW$213, DW_AT_name("staticInImg")
    2200                            .dwattr $C$DW$213, DW_AT_TI_symbol_name("staticInImg")
    2201                            .dwattr $C$DW$213, DW_AT_data_member_location[DW_OP_plus_uconst 0x8]
    2202                            .dwattr $C$DW$213, DW_AT_accessibility(DW_ACCESS_public)
    2203                            .dwattr $C$DW$213, DW_AT_decl_file(".\..\packages\ti\vlib\src\VLIB_histogram_1D_U16\VLIB_histo
    2204                            .dwattr $C$DW$213, DW_AT_decl_line(0x26)
    2205                            .dwattr $C$DW$213, DW_AT_decl_column(0x0f)
    2206                    $C$DW$214       .dwtag  DW_TAG_member
    2207                            .dwattr $C$DW$214, DW_AT_type(*$C$DW$T$21)
    2208                            .dwattr $C$DW$214, DW_AT_name("staticOut")
    2209                            .dwattr $C$DW$214, DW_AT_TI_symbol_name("staticOut")
    2210                            .dwattr $C$DW$214, DW_AT_data_member_location[DW_OP_plus_uconst 0xc]
    2211                            .dwattr $C$DW$214, DW_AT_accessibility(DW_ACCESS_public)
    2212                            .dwattr $C$DW$214, DW_AT_decl_file(".\..\packages\ti\vlib\src\VLIB_histogram_1D_U16\VLIB_histo
    2213                            .dwattr $C$DW$214, DW_AT_decl_line(0x27)
    2214                            .dwattr $C$DW$214, DW_AT_decl_column(0x0f)
    2215                    $C$DW$215       .dwtag  DW_TAG_member
    2216                            .dwattr $C$DW$215, DW_AT_type(*$C$DW$T$22)
    2217                            .dwattr $C$DW$215, DW_AT_name("numX")
    2218                            .dwattr $C$DW$215, DW_AT_TI_symbol_name("numX")
    2219                            .dwattr $C$DW$215, DW_AT_data_member_location[DW_OP_plus_uconst 0x10]
    2220                            .dwattr $C$DW$215, DW_AT_accessibility(DW_ACCESS_public)
    2221                            .dwattr $C$DW$215, DW_AT_decl_file(".\..\packages\ti\vlib\src\VLIB_histogram_1D_U16\VLIB_histo
    2222                            .dwattr $C$DW$215, DW_AT_decl_line(0x28)
    2223                            .dwattr $C$DW$215, DW_AT_decl_column(0x0f)
    2224                    $C$DW$216       .dwtag  DW_TAG_member
    2225                            .dwattr $C$DW$216, DW_AT_type(*$C$DW$T$22)
    2226                            .dwattr $C$DW$216, DW_AT_name("numBins")
    2227                            .dwattr $C$DW$216, DW_AT_TI_symbol_name("numBins")
    2228                            .dwattr $C$DW$216, DW_AT_data_member_location[DW_OP_plus_uconst 0x14]
    2229                            .dwattr $C$DW$216, DW_AT_accessibility(DW_ACCESS_public)
    2230                            .dwattr $C$DW$216, DW_AT_decl_file(".\..\packages\ti\vlib\src\VLIB_histogram_1D_U16\VLIB_histo
    2231                            .dwattr $C$DW$216, DW_AT_decl_line(0x29)
    2232                            .dwattr $C$DW$216, DW_AT_decl_column(0x0f)
    2233                    $C$DW$217       .dwtag  DW_TAG_member
    2234                            .dwattr $C$DW$217, DW_AT_type(*$C$DW$T$20)
    2235                            .dwattr $C$DW$217, DW_AT_name("binWeight")
    2236                            .dwattr $C$DW$217, DW_AT_TI_symbol_name("binWeight")
TMS320C6x Assembler PC v7.4.2 Thu Mar 19 12:41:42 2015

Tools Copyright (c) 1996-2012 Texas Instruments Incorporated
package/lib/Regression/regress_d_c/./../packages/ti/vlib/src/VLIB_histogram_1D_U16/VLIB_histogram_1D_U16_d.se66 PAGE   47

    2237                            .dwattr $C$DW$217, DW_AT_data_member_location[DW_OP_plus_uconst 0x18]
    2238                            .dwattr $C$DW$217, DW_AT_accessibility(DW_ACCESS_public)
    2239                            .dwattr $C$DW$217, DW_AT_decl_file(".\..\packages\ti\vlib\src\VLIB_histogram_1D_U16\VLIB_histo
    2240                            .dwattr $C$DW$217, DW_AT_decl_line(0x2a)
    2241                            .dwattr $C$DW$217, DW_AT_decl_column(0x0f)
    2242                    $C$DW$218       .dwtag  DW_TAG_member
    2243                            .dwattr $C$DW$218, DW_AT_type(*$C$DW$T$22)
    2244                            .dwattr $C$DW$218, DW_AT_name("maxSize")
    2245                            .dwattr $C$DW$218, DW_AT_TI_symbol_name("maxSize")
    2246                            .dwattr $C$DW$218, DW_AT_data_member_location[DW_OP_plus_uconst 0x1c]
    2247                            .dwattr $C$DW$218, DW_AT_accessibility(DW_ACCESS_public)
    2248                            .dwattr $C$DW$218, DW_AT_decl_file(".\..\packages\ti\vlib\src\VLIB_histogram_1D_U16\VLIB_histo
    2249                            .dwattr $C$DW$218, DW_AT_decl_line(0x2b)
    2250                            .dwattr $C$DW$218, DW_AT_decl_column(0x0f)
    2251                            .dwendtag $C$DW$T$23
    2252                    
    2253                            .dwattr $C$DW$T$23, DW_AT_decl_file(".\..\packages\ti\vlib\src\VLIB_histogram_1D_U16\VLIB_hist
    2254                            .dwattr $C$DW$T$23, DW_AT_decl_line(0x23)
    2255                            .dwattr $C$DW$T$23, DW_AT_decl_column(0x10)
    2256                    $C$DW$T$40      .dwtag  DW_TAG_pointer_type
    2257                            .dwattr $C$DW$T$40, DW_AT_type(*$C$DW$T$23)
    2258                            .dwattr $C$DW$T$40, DW_AT_address_class(0x20)
    2259                    $C$DW$T$42      .dwtag  DW_TAG_typedef, DW_AT_name("histogram_1D_U16_testParams_t")
    2260                            .dwattr $C$DW$T$42, DW_AT_type(*$C$DW$T$23)
    2261                            .dwattr $C$DW$T$42, DW_AT_language(DW_LANG_C)
    2262                            .dwattr $C$DW$T$42, DW_AT_decl_file(".\..\packages\ti\vlib\src\VLIB_histogram_1D_U16\VLIB_hist
    2263                            .dwattr $C$DW$T$42, DW_AT_decl_line(0x2c)
    2264                            .dwattr $C$DW$T$42, DW_AT_decl_column(0x03)
    2265                    $C$DW$T$43      .dwtag  DW_TAG_pointer_type
    2266                            .dwattr $C$DW$T$43, DW_AT_type(*$C$DW$T$42)
    2267                            .dwattr $C$DW$T$43, DW_AT_address_class(0x20)
    2268                    $C$DW$T$44      .dwtag  DW_TAG_pointer_type
    2269                            .dwattr $C$DW$T$44, DW_AT_type(*$C$DW$T$43)
    2270                            .dwattr $C$DW$T$44, DW_AT_address_class(0x20)
    2271                    
    2272                    $C$DW$T$25      .dwtag  DW_TAG_structure_type
    2273                            .dwattr $C$DW$T$25, DW_AT_byte_size(0x18)
    2274                    $C$DW$219       .dwtag  DW_TAG_member
    2275                            .dwattr $C$DW$219, DW_AT_type(*$C$DW$T$10)
    2276                            .dwattr $C$DW$219, DW_AT_name("fd")
    2277                            .dwattr $C$DW$219, DW_AT_TI_symbol_name("fd")
    2278                            .dwattr $C$DW$219, DW_AT_data_member_location[DW_OP_plus_uconst 0x0]
    2279                            .dwattr $C$DW$219, DW_AT_accessibility(DW_ACCESS_public)
    2280                            .dwattr $C$DW$219, DW_AT_decl_file("C:/VLIB_Tools/CCSV5_4_0/ccsv5/tools/compiler/C6000/include
    2281                            .dwattr $C$DW$219, DW_AT_decl_line(0x49)
    2282                            .dwattr $C$DW$219, DW_AT_decl_column(0x0b)
    2283                    $C$DW$220       .dwtag  DW_TAG_member
    2284                            .dwattr $C$DW$220, DW_AT_type(*$C$DW$T$24)
    2285                            .dwattr $C$DW$220, DW_AT_name("buf")
    2286                            .dwattr $C$DW$220, DW_AT_TI_symbol_name("buf")
    2287                            .dwattr $C$DW$220, DW_AT_data_member_location[DW_OP_plus_uconst 0x4]
    2288                            .dwattr $C$DW$220, DW_AT_accessibility(DW_ACCESS_public)
    2289                            .dwattr $C$DW$220, DW_AT_decl_file("C:/VLIB_Tools/CCSV5_4_0/ccsv5/tools/compiler/C6000/include
    2290                            .dwattr $C$DW$220, DW_AT_decl_line(0x4a)
    2291                            .dwattr $C$DW$220, DW_AT_decl_column(0x16)
TMS320C6x Assembler PC v7.4.2 Thu Mar 19 12:41:42 2015

Tools Copyright (c) 1996-2012 Texas Instruments Incorporated
package/lib/Regression/regress_d_c/./../packages/ti/vlib/src/VLIB_histogram_1D_U16/VLIB_histogram_1D_U16_d.se66 PAGE   48

    2292                    $C$DW$221       .dwtag  DW_TAG_member
    2293                            .dwattr $C$DW$221, DW_AT_type(*$C$DW$T$24)
    2294                            .dwattr $C$DW$221, DW_AT_name("pos")
    2295                            .dwattr $C$DW$221, DW_AT_TI_symbol_name("pos")
    2296                            .dwattr $C$DW$221, DW_AT_data_member_location[DW_OP_plus_uconst 0x8]
    2297                            .dwattr $C$DW$221, DW_AT_accessibility(DW_ACCESS_public)
    2298                            .dwattr $C$DW$221, DW_AT_decl_file("C:/VLIB_Tools/CCSV5_4_0/ccsv5/tools/compiler/C6000/include
    2299                            .dwattr $C$DW$221, DW_AT_decl_line(0x4b)
    2300                            .dwattr $C$DW$221, DW_AT_decl_column(0x16)
    2301                    $C$DW$222       .dwtag  DW_TAG_member
    2302                            .dwattr $C$DW$222, DW_AT_type(*$C$DW$T$24)
    2303                            .dwattr $C$DW$222, DW_AT_name("bufend")
    2304                            .dwattr $C$DW$222, DW_AT_TI_symbol_name("bufend")
    2305                            .dwattr $C$DW$222, DW_AT_data_member_location[DW_OP_plus_uconst 0xc]
    2306                            .dwattr $C$DW$222, DW_AT_accessibility(DW_ACCESS_public)
    2307                            .dwattr $C$DW$222, DW_AT_decl_file("C:/VLIB_Tools/CCSV5_4_0/ccsv5/tools/compiler/C6000/include
    2308                            .dwattr $C$DW$222, DW_AT_decl_line(0x4c)
    2309                            .dwattr $C$DW$222, DW_AT_decl_column(0x16)
    2310                    $C$DW$223       .dwtag  DW_TAG_member
    2311                            .dwattr $C$DW$223, DW_AT_type(*$C$DW$T$24)
    2312                            .dwattr $C$DW$223, DW_AT_name("buff_stop")
    2313                            .dwattr $C$DW$223, DW_AT_TI_symbol_name("buff_stop")
    2314                            .dwattr $C$DW$223, DW_AT_data_member_location[DW_OP_plus_uconst 0x10]
    2315                            .dwattr $C$DW$223, DW_AT_accessibility(DW_ACCESS_public)
    2316                            .dwattr $C$DW$223, DW_AT_decl_file("C:/VLIB_Tools/CCSV5_4_0/ccsv5/tools/compiler/C6000/include
    2317                            .dwattr $C$DW$223, DW_AT_decl_line(0x4d)
    2318                            .dwattr $C$DW$223, DW_AT_decl_column(0x16)
    2319                    $C$DW$224       .dwtag  DW_TAG_member
    2320                            .dwattr $C$DW$224, DW_AT_type(*$C$DW$T$11)
    2321                            .dwattr $C$DW$224, DW_AT_name("flags")
    2322                            .dwattr $C$DW$224, DW_AT_TI_symbol_name("flags")
    2323                            .dwattr $C$DW$224, DW_AT_data_member_location[DW_OP_plus_uconst 0x14]
    2324                            .dwattr $C$DW$224, DW_AT_accessibility(DW_ACCESS_public)
    2325                            .dwattr $C$DW$224, DW_AT_decl_file("C:/VLIB_Tools/CCSV5_4_0/ccsv5/tools/compiler/C6000/include
    2326                            .dwattr $C$DW$224, DW_AT_decl_line(0x4e)
    2327                            .dwattr $C$DW$224, DW_AT_decl_column(0x16)
    2328                            .dwendtag $C$DW$T$25
    2329                    
    2330                            .dwattr $C$DW$T$25, DW_AT_decl_file("C:/VLIB_Tools/CCSV5_4_0/ccsv5/tools/compiler/C6000/includ
    2331                            .dwattr $C$DW$T$25, DW_AT_decl_line(0x48)
    2332                            .dwattr $C$DW$T$25, DW_AT_decl_column(0x10)
    2333                    $C$DW$T$45      .dwtag  DW_TAG_typedef, DW_AT_name("FILE")
    2334                            .dwattr $C$DW$T$45, DW_AT_type(*$C$DW$T$25)
    2335                            .dwattr $C$DW$T$45, DW_AT_language(DW_LANG_C)
    2336                            .dwattr $C$DW$T$45, DW_AT_decl_file("C:/VLIB_Tools/CCSV5_4_0/ccsv5/tools/compiler/C6000/includ
    2337                            .dwattr $C$DW$T$45, DW_AT_decl_line(0x4f)
    2338                            .dwattr $C$DW$T$45, DW_AT_decl_column(0x03)
    2339                    
    2340                    $C$DW$T$26      .dwtag  DW_TAG_structure_type
    2341                            .dwattr $C$DW$T$26, DW_AT_byte_size(0x08)
    2342                    $C$DW$225       .dwtag  DW_TAG_member
    2343                            .dwattr $C$DW$225, DW_AT_type(*$C$DW$T$10)
    2344                            .dwattr $C$DW$225, DW_AT_name("quot")
    2345                            .dwattr $C$DW$225, DW_AT_TI_symbol_name("quot")
    2346                            .dwattr $C$DW$225, DW_AT_data_member_location[DW_OP_plus_uconst 0x0]
TMS320C6x Assembler PC v7.4.2 Thu Mar 19 12:41:42 2015

Tools Copyright (c) 1996-2012 Texas Instruments Incorporated
package/lib/Regression/regress_d_c/./../packages/ti/vlib/src/VLIB_histogram_1D_U16/VLIB_histogram_1D_U16_d.se66 PAGE   49

    2347                            .dwattr $C$DW$225, DW_AT_accessibility(DW_ACCESS_public)
    2348                            .dwattr $C$DW$225, DW_AT_decl_file("C:/VLIB_Tools/CCSV5_4_0/ccsv5/tools/compiler/C6000/include
    2349                            .dwattr $C$DW$225, DW_AT_decl_line(0x3e)
    2350                            .dwattr $C$DW$225, DW_AT_decl_column(0x16)
    2351                    $C$DW$226       .dwtag  DW_TAG_member
    2352                            .dwattr $C$DW$226, DW_AT_type(*$C$DW$T$10)
    2353                            .dwattr $C$DW$226, DW_AT_name("rem")
    2354                            .dwattr $C$DW$226, DW_AT_TI_symbol_name("rem")
    2355                            .dwattr $C$DW$226, DW_AT_data_member_location[DW_OP_plus_uconst 0x4]
    2356                            .dwattr $C$DW$226, DW_AT_accessibility(DW_ACCESS_public)
    2357                            .dwattr $C$DW$226, DW_AT_decl_file("C:/VLIB_Tools/CCSV5_4_0/ccsv5/tools/compiler/C6000/include
    2358                            .dwattr $C$DW$226, DW_AT_decl_line(0x3e)
    2359                            .dwattr $C$DW$226, DW_AT_decl_column(0x1c)
    2360                            .dwendtag $C$DW$T$26
    2361                    
    2362                            .dwattr $C$DW$T$26, DW_AT_decl_file("C:/VLIB_Tools/CCSV5_4_0/ccsv5/tools/compiler/C6000/includ
    2363                            .dwattr $C$DW$T$26, DW_AT_decl_line(0x3e)
    2364                            .dwattr $C$DW$T$26, DW_AT_decl_column(0x10)
    2365                    $C$DW$T$46      .dwtag  DW_TAG_typedef, DW_AT_name("div_t")
    2366                            .dwattr $C$DW$T$46, DW_AT_type(*$C$DW$T$26)
    2367                            .dwattr $C$DW$T$46, DW_AT_language(DW_LANG_C)
    2368                            .dwattr $C$DW$T$46, DW_AT_decl_file("C:/VLIB_Tools/CCSV5_4_0/ccsv5/tools/compiler/C6000/includ
    2369                            .dwattr $C$DW$T$46, DW_AT_decl_line(0x3e)
    2370                            .dwattr $C$DW$T$46, DW_AT_decl_column(0x23)
    2371                    
    2372                    $C$DW$T$27      .dwtag  DW_TAG_structure_type
    2373                            .dwattr $C$DW$T$27, DW_AT_byte_size(0x08)
    2374                    $C$DW$227       .dwtag  DW_TAG_member
    2375                            .dwattr $C$DW$227, DW_AT_type(*$C$DW$T$10)
    2376                            .dwattr $C$DW$227, DW_AT_name("quot")
    2377                            .dwattr $C$DW$227, DW_AT_TI_symbol_name("quot")
    2378                            .dwattr $C$DW$227, DW_AT_data_member_location[DW_OP_plus_uconst 0x0]
    2379                            .dwattr $C$DW$227, DW_AT_accessibility(DW_ACCESS_public)
    2380                            .dwattr $C$DW$227, DW_AT_decl_file("C:/VLIB_Tools/CCSV5_4_0/ccsv5/tools/compiler/C6000/include
    2381                            .dwattr $C$DW$227, DW_AT_decl_line(0x40)
    2382                            .dwattr $C$DW$227, DW_AT_decl_column(0x17)
    2383                    $C$DW$228       .dwtag  DW_TAG_member
    2384                            .dwattr $C$DW$228, DW_AT_type(*$C$DW$T$10)
    2385                            .dwattr $C$DW$228, DW_AT_name("rem")
    2386                            .dwattr $C$DW$228, DW_AT_TI_symbol_name("rem")
    2387                            .dwattr $C$DW$228, DW_AT_data_member_location[DW_OP_plus_uconst 0x4]
    2388                            .dwattr $C$DW$228, DW_AT_accessibility(DW_ACCESS_public)
    2389                            .dwattr $C$DW$228, DW_AT_decl_file("C:/VLIB_Tools/CCSV5_4_0/ccsv5/tools/compiler/C6000/include
    2390                            .dwattr $C$DW$228, DW_AT_decl_line(0x40)
    2391                            .dwattr $C$DW$228, DW_AT_decl_column(0x1d)
    2392                            .dwendtag $C$DW$T$27
    2393                    
    2394                            .dwattr $C$DW$T$27, DW_AT_decl_file("C:/VLIB_Tools/CCSV5_4_0/ccsv5/tools/compiler/C6000/includ
    2395                            .dwattr $C$DW$T$27, DW_AT_decl_line(0x40)
    2396                            .dwattr $C$DW$T$27, DW_AT_decl_column(0x10)
    2397                    $C$DW$T$47      .dwtag  DW_TAG_typedef, DW_AT_name("ldiv_t")
    2398                            .dwattr $C$DW$T$47, DW_AT_type(*$C$DW$T$27)
    2399                            .dwattr $C$DW$T$47, DW_AT_language(DW_LANG_C)
    2400                            .dwattr $C$DW$T$47, DW_AT_decl_file("C:/VLIB_Tools/CCSV5_4_0/ccsv5/tools/compiler/C6000/includ
    2401                            .dwattr $C$DW$T$47, DW_AT_decl_line(0x40)
TMS320C6x Assembler PC v7.4.2 Thu Mar 19 12:41:42 2015

Tools Copyright (c) 1996-2012 Texas Instruments Incorporated
package/lib/Regression/regress_d_c/./../packages/ti/vlib/src/VLIB_histogram_1D_U16/VLIB_histogram_1D_U16_d.se66 PAGE   50

    2402                            .dwattr $C$DW$T$47, DW_AT_decl_column(0x24)
    2403                    
    2404                    $C$DW$T$28      .dwtag  DW_TAG_structure_type
    2405                            .dwattr $C$DW$T$28, DW_AT_byte_size(0x10)
    2406                    $C$DW$229       .dwtag  DW_TAG_member
    2407                            .dwattr $C$DW$229, DW_AT_type(*$C$DW$T$14)
    2408                            .dwattr $C$DW$229, DW_AT_name("quot")
    2409                            .dwattr $C$DW$229, DW_AT_TI_symbol_name("quot")
    2410                            .dwattr $C$DW$229, DW_AT_data_member_location[DW_OP_plus_uconst 0x0]
    2411                            .dwattr $C$DW$229, DW_AT_accessibility(DW_ACCESS_public)
    2412                            .dwattr $C$DW$229, DW_AT_decl_file("C:/VLIB_Tools/CCSV5_4_0/ccsv5/tools/compiler/C6000/include
    2413                            .dwattr $C$DW$229, DW_AT_decl_line(0x43)
    2414                            .dwattr $C$DW$229, DW_AT_decl_column(0x1c)
    2415                    $C$DW$230       .dwtag  DW_TAG_member
    2416                            .dwattr $C$DW$230, DW_AT_type(*$C$DW$T$14)
    2417                            .dwattr $C$DW$230, DW_AT_name("rem")
    2418                            .dwattr $C$DW$230, DW_AT_TI_symbol_name("rem")
    2419                            .dwattr $C$DW$230, DW_AT_data_member_location[DW_OP_plus_uconst 0x8]
    2420                            .dwattr $C$DW$230, DW_AT_accessibility(DW_ACCESS_public)
    2421                            .dwattr $C$DW$230, DW_AT_decl_file("C:/VLIB_Tools/CCSV5_4_0/ccsv5/tools/compiler/C6000/include
    2422                            .dwattr $C$DW$230, DW_AT_decl_line(0x43)
    2423                            .dwattr $C$DW$230, DW_AT_decl_column(0x22)
    2424                            .dwendtag $C$DW$T$28
    2425                    
    2426                            .dwattr $C$DW$T$28, DW_AT_decl_file("C:/VLIB_Tools/CCSV5_4_0/ccsv5/tools/compiler/C6000/includ
    2427                            .dwattr $C$DW$T$28, DW_AT_decl_line(0x43)
    2428                            .dwattr $C$DW$T$28, DW_AT_decl_column(0x10)
    2429                    $C$DW$T$48      .dwtag  DW_TAG_typedef, DW_AT_name("lldiv_t")
    2430                            .dwattr $C$DW$T$48, DW_AT_type(*$C$DW$T$28)
    2431                            .dwattr $C$DW$T$48, DW_AT_language(DW_LANG_C)
    2432                            .dwattr $C$DW$T$48, DW_AT_decl_file("C:/VLIB_Tools/CCSV5_4_0/ccsv5/tools/compiler/C6000/includ
    2433                            .dwattr $C$DW$T$48, DW_AT_decl_line(0x43)
    2434                            .dwattr $C$DW$T$48, DW_AT_decl_column(0x29)
    2435                    
    2436                    $C$DW$T$29      .dwtag  DW_TAG_structure_type
    2437                            .dwattr $C$DW$T$29, DW_AT_byte_size(0x24)
    2438                    $C$DW$231       .dwtag  DW_TAG_member
    2439                            .dwattr $C$DW$231, DW_AT_type(*$C$DW$T$22)
    2440                            .dwattr $C$DW$231, DW_AT_name("area")
    2441                            .dwattr $C$DW$231, DW_AT_TI_symbol_name("area")
    2442                            .dwattr $C$DW$231, DW_AT_data_member_location[DW_OP_plus_uconst 0x0]
    2443                            .dwattr $C$DW$231, DW_AT_accessibility(DW_ACCESS_public)
    2444                            .dwattr $C$DW$231, DW_AT_decl_file(".\..\packages\ti\vlib\src\VLIB_histogram_1D_U16\..\common\
    2445                            .dwattr $C$DW$231, DW_AT_decl_line(0x69)
    2446                            .dwattr $C$DW$231, DW_AT_decl_column(0x0d)
    2447                    $C$DW$232       .dwtag  DW_TAG_member
    2448                            .dwattr $C$DW$232, DW_AT_type(*$C$DW$T$22)
    2449                            .dwattr $C$DW$232, DW_AT_name("xsum")
    2450                            .dwattr $C$DW$232, DW_AT_TI_symbol_name("xsum")
    2451                            .dwattr $C$DW$232, DW_AT_data_member_location[DW_OP_plus_uconst 0x4]
    2452                            .dwattr $C$DW$232, DW_AT_accessibility(DW_ACCESS_public)
    2453                            .dwattr $C$DW$232, DW_AT_decl_file(".\..\packages\ti\vlib\src\VLIB_histogram_1D_U16\..\common\
    2454                            .dwattr $C$DW$232, DW_AT_decl_line(0x6a)
    2455                            .dwattr $C$DW$232, DW_AT_decl_column(0x0d)
    2456                    $C$DW$233       .dwtag  DW_TAG_member
TMS320C6x Assembler PC v7.4.2 Thu Mar 19 12:41:42 2015

Tools Copyright (c) 1996-2012 Texas Instruments Incorporated
package/lib/Regression/regress_d_c/./../packages/ti/vlib/src/VLIB_histogram_1D_U16/VLIB_histogram_1D_U16_d.se66 PAGE   51

    2457                            .dwattr $C$DW$233, DW_AT_type(*$C$DW$T$22)
    2458                            .dwattr $C$DW$233, DW_AT_name("ysum")
    2459                            .dwattr $C$DW$233, DW_AT_TI_symbol_name("ysum")
    2460                            .dwattr $C$DW$233, DW_AT_data_member_location[DW_OP_plus_uconst 0x8]
    2461                            .dwattr $C$DW$233, DW_AT_accessibility(DW_ACCESS_public)
    2462                            .dwattr $C$DW$233, DW_AT_decl_file(".\..\packages\ti\vlib\src\VLIB_histogram_1D_U16\..\common\
    2463                            .dwattr $C$DW$233, DW_AT_decl_line(0x6b)
    2464                            .dwattr $C$DW$233, DW_AT_decl_column(0x0d)
    2465                    $C$DW$234       .dwtag  DW_TAG_member
    2466                            .dwattr $C$DW$234, DW_AT_type(*$C$DW$T$22)
    2467                            .dwattr $C$DW$234, DW_AT_name("xmin")
    2468                            .dwattr $C$DW$234, DW_AT_TI_symbol_name("xmin")
    2469                            .dwattr $C$DW$234, DW_AT_data_member_location[DW_OP_plus_uconst 0xc]
    2470                            .dwattr $C$DW$234, DW_AT_accessibility(DW_ACCESS_public)
    2471                            .dwattr $C$DW$234, DW_AT_decl_file(".\..\packages\ti\vlib\src\VLIB_histogram_1D_U16\..\common\
    2472                            .dwattr $C$DW$234, DW_AT_decl_line(0x6d)
    2473                            .dwattr $C$DW$234, DW_AT_decl_column(0x0d)
    2474                    $C$DW$235       .dwtag  DW_TAG_member
    2475                            .dwattr $C$DW$235, DW_AT_type(*$C$DW$T$22)
    2476                            .dwattr $C$DW$235, DW_AT_name("ymin")
    2477                            .dwattr $C$DW$235, DW_AT_TI_symbol_name("ymin")
    2478                            .dwattr $C$DW$235, DW_AT_data_member_location[DW_OP_plus_uconst 0x10]
    2479                            .dwattr $C$DW$235, DW_AT_accessibility(DW_ACCESS_public)
    2480                            .dwattr $C$DW$235, DW_AT_decl_file(".\..\packages\ti\vlib\src\VLIB_histogram_1D_U16\..\common\
    2481                            .dwattr $C$DW$235, DW_AT_decl_line(0x6e)
    2482                            .dwattr $C$DW$235, DW_AT_decl_column(0x0d)
    2483                    $C$DW$236       .dwtag  DW_TAG_member
    2484                            .dwattr $C$DW$236, DW_AT_type(*$C$DW$T$22)
    2485                            .dwattr $C$DW$236, DW_AT_name("xmax")
    2486                            .dwattr $C$DW$236, DW_AT_TI_symbol_name("xmax")
    2487                            .dwattr $C$DW$236, DW_AT_data_member_location[DW_OP_plus_uconst 0x14]
    2488                            .dwattr $C$DW$236, DW_AT_accessibility(DW_ACCESS_public)
    2489                            .dwattr $C$DW$236, DW_AT_decl_file(".\..\packages\ti\vlib\src\VLIB_histogram_1D_U16\..\common\
    2490                            .dwattr $C$DW$236, DW_AT_decl_line(0x6f)
    2491                            .dwattr $C$DW$236, DW_AT_decl_column(0x0d)
    2492                    $C$DW$237       .dwtag  DW_TAG_member
    2493                            .dwattr $C$DW$237, DW_AT_type(*$C$DW$T$22)
    2494                            .dwattr $C$DW$237, DW_AT_name("ymax")
    2495                            .dwattr $C$DW$237, DW_AT_TI_symbol_name("ymax")
    2496                            .dwattr $C$DW$237, DW_AT_data_member_location[DW_OP_plus_uconst 0x18]
    2497                            .dwattr $C$DW$237, DW_AT_accessibility(DW_ACCESS_public)
    2498                            .dwattr $C$DW$237, DW_AT_decl_file(".\..\packages\ti\vlib\src\VLIB_histogram_1D_U16\..\common\
    2499                            .dwattr $C$DW$237, DW_AT_decl_line(0x70)
    2500                            .dwattr $C$DW$237, DW_AT_decl_column(0x0d)
    2501                    $C$DW$238       .dwtag  DW_TAG_member
    2502                            .dwattr $C$DW$238, DW_AT_type(*$C$DW$T$22)
    2503                            .dwattr $C$DW$238, DW_AT_name("seedx")
    2504                            .dwattr $C$DW$238, DW_AT_TI_symbol_name("seedx")
    2505                            .dwattr $C$DW$238, DW_AT_data_member_location[DW_OP_plus_uconst 0x1c]
    2506                            .dwattr $C$DW$238, DW_AT_accessibility(DW_ACCESS_public)
    2507                            .dwattr $C$DW$238, DW_AT_decl_file(".\..\packages\ti\vlib\src\VLIB_histogram_1D_U16\..\common\
    2508                            .dwattr $C$DW$238, DW_AT_decl_line(0x72)
    2509                            .dwattr $C$DW$238, DW_AT_decl_column(0x0d)
    2510                    $C$DW$239       .dwtag  DW_TAG_member
    2511                            .dwattr $C$DW$239, DW_AT_type(*$C$DW$T$22)
TMS320C6x Assembler PC v7.4.2 Thu Mar 19 12:41:42 2015

Tools Copyright (c) 1996-2012 Texas Instruments Incorporated
package/lib/Regression/regress_d_c/./../packages/ti/vlib/src/VLIB_histogram_1D_U16/VLIB_histogram_1D_U16_d.se66 PAGE   52

    2512                            .dwattr $C$DW$239, DW_AT_name("seedy")
    2513                            .dwattr $C$DW$239, DW_AT_TI_symbol_name("seedy")
    2514                            .dwattr $C$DW$239, DW_AT_data_member_location[DW_OP_plus_uconst 0x20]
    2515                            .dwattr $C$DW$239, DW_AT_accessibility(DW_ACCESS_public)
    2516                            .dwattr $C$DW$239, DW_AT_decl_file(".\..\packages\ti\vlib\src\VLIB_histogram_1D_U16\..\common\
    2517                            .dwattr $C$DW$239, DW_AT_decl_line(0x73)
    2518                            .dwattr $C$DW$239, DW_AT_decl_column(0x0d)
    2519                            .dwendtag $C$DW$T$29
    2520                    
    2521                            .dwattr $C$DW$T$29, DW_AT_decl_file(".\..\packages\ti\vlib\src\VLIB_histogram_1D_U16\..\common
    2522                            .dwattr $C$DW$T$29, DW_AT_decl_line(0x68)
    2523                            .dwattr $C$DW$T$29, DW_AT_decl_column(0x10)
    2524                    $C$DW$T$49      .dwtag  DW_TAG_typedef, DW_AT_name("VLIB_CC")
    2525                            .dwattr $C$DW$T$49, DW_AT_type(*$C$DW$T$29)
    2526                            .dwattr $C$DW$T$49, DW_AT_language(DW_LANG_C)
    2527                            .dwattr $C$DW$T$49, DW_AT_decl_file(".\..\packages\ti\vlib\src\VLIB_histogram_1D_U16\..\common
    2528                            .dwattr $C$DW$T$49, DW_AT_decl_line(0x75)
    2529                            .dwattr $C$DW$T$49, DW_AT_decl_column(0x03)
    2530                    
    2531                    $C$DW$T$32      .dwtag  DW_TAG_structure_type
    2532                            .dwattr $C$DW$T$32, DW_AT_byte_size(0x10)
    2533                    $C$DW$240       .dwtag  DW_TAG_member
    2534                            .dwattr $C$DW$240, DW_AT_type(*$C$DW$T$8)
    2535                            .dwattr $C$DW$240, DW_AT_name("daylight")
    2536                            .dwattr $C$DW$240, DW_AT_TI_symbol_name("daylight")
    2537                            .dwattr $C$DW$240, DW_AT_data_member_location[DW_OP_plus_uconst 0x0]
    2538                            .dwattr $C$DW$240, DW_AT_accessibility(DW_ACCESS_public)
    2539                            .dwattr $C$DW$240, DW_AT_decl_file("C:/VLIB_Tools/CCSV5_4_0/ccsv5/tools/compiler/C6000/include
    2540                            .dwattr $C$DW$240, DW_AT_decl_line(0x52)
    2541                            .dwattr $C$DW$240, DW_AT_decl_column(0x0b)
    2542                    $C$DW$241       .dwtag  DW_TAG_member
    2543                            .dwattr $C$DW$241, DW_AT_type(*$C$DW$T$10)
    2544                            .dwattr $C$DW$241, DW_AT_name("timezone")
    2545                            .dwattr $C$DW$241, DW_AT_TI_symbol_name("timezone")
    2546                            .dwattr $C$DW$241, DW_AT_data_member_location[DW_OP_plus_uconst 0x4]
    2547                            .dwattr $C$DW$241, DW_AT_accessibility(DW_ACCESS_public)
    2548                            .dwattr $C$DW$241, DW_AT_decl_file("C:/VLIB_Tools/CCSV5_4_0/ccsv5/tools/compiler/C6000/include
    2549                            .dwattr $C$DW$241, DW_AT_decl_line(0x53)
    2550                            .dwattr $C$DW$241, DW_AT_decl_column(0x0b)
    2551                    $C$DW$242       .dwtag  DW_TAG_member
    2552                            .dwattr $C$DW$242, DW_AT_type(*$C$DW$T$31)
    2553                            .dwattr $C$DW$242, DW_AT_name("tzname")
    2554                            .dwattr $C$DW$242, DW_AT_TI_symbol_name("tzname")
    2555                            .dwattr $C$DW$242, DW_AT_data_member_location[DW_OP_plus_uconst 0x8]
    2556                            .dwattr $C$DW$242, DW_AT_accessibility(DW_ACCESS_public)
    2557                            .dwattr $C$DW$242, DW_AT_decl_file("C:/VLIB_Tools/CCSV5_4_0/ccsv5/tools/compiler/C6000/include
    2558                            .dwattr $C$DW$242, DW_AT_decl_line(0x54)
    2559                            .dwattr $C$DW$242, DW_AT_decl_column(0x0b)
    2560                    $C$DW$243       .dwtag  DW_TAG_member
    2561                            .dwattr $C$DW$243, DW_AT_type(*$C$DW$T$31)
    2562                            .dwattr $C$DW$243, DW_AT_name("dstname")
    2563                            .dwattr $C$DW$243, DW_AT_TI_symbol_name("dstname")
    2564                            .dwattr $C$DW$243, DW_AT_data_member_location[DW_OP_plus_uconst 0xc]
    2565                            .dwattr $C$DW$243, DW_AT_accessibility(DW_ACCESS_public)
    2566                            .dwattr $C$DW$243, DW_AT_decl_file("C:/VLIB_Tools/CCSV5_4_0/ccsv5/tools/compiler/C6000/include
TMS320C6x Assembler PC v7.4.2 Thu Mar 19 12:41:42 2015

Tools Copyright (c) 1996-2012 Texas Instruments Incorporated
package/lib/Regression/regress_d_c/./../packages/ti/vlib/src/VLIB_histogram_1D_U16/VLIB_histogram_1D_U16_d.se66 PAGE   53

    2567                            .dwattr $C$DW$243, DW_AT_decl_line(0x55)
    2568                            .dwattr $C$DW$243, DW_AT_decl_column(0x0b)
    2569                            .dwendtag $C$DW$T$32
    2570                    
    2571                            .dwattr $C$DW$T$32, DW_AT_decl_file("C:/VLIB_Tools/CCSV5_4_0/ccsv5/tools/compiler/C6000/includ
    2572                            .dwattr $C$DW$T$32, DW_AT_decl_line(0x51)
    2573                            .dwattr $C$DW$T$32, DW_AT_decl_column(0x01)
    2574                    $C$DW$T$50      .dwtag  DW_TAG_typedef, DW_AT_name("TZ")
    2575                            .dwattr $C$DW$T$50, DW_AT_type(*$C$DW$T$32)
    2576                            .dwattr $C$DW$T$50, DW_AT_language(DW_LANG_C)
    2577                            .dwattr $C$DW$T$50, DW_AT_decl_file("C:/VLIB_Tools/CCSV5_4_0/ccsv5/tools/compiler/C6000/includ
    2578                            .dwattr $C$DW$T$50, DW_AT_decl_line(0x56)
    2579                            .dwattr $C$DW$T$50, DW_AT_decl_column(0x03)
    2580                    $C$DW$T$2       .dwtag  DW_TAG_unspecified_type
    2581                            .dwattr $C$DW$T$2, DW_AT_name("void")
    2582                    $C$DW$T$3       .dwtag  DW_TAG_pointer_type
    2583                            .dwattr $C$DW$T$3, DW_AT_type(*$C$DW$T$2)
    2584                            .dwattr $C$DW$T$3, DW_AT_address_class(0x20)
    2585                    $C$DW$T$51      .dwtag  DW_TAG_typedef, DW_AT_name("VLIB_PTR")
    2586                            .dwattr $C$DW$T$51, DW_AT_type(*$C$DW$T$3)
    2587                            .dwattr $C$DW$T$51, DW_AT_language(DW_LANG_C)
    2588                            .dwattr $C$DW$T$51, DW_AT_decl_file(".\..\packages\ti\vlib\src\VLIB_histogram_1D_U16\..\common
    2589                            .dwattr $C$DW$T$51, DW_AT_decl_line(0x5c)
    2590                            .dwattr $C$DW$T$51, DW_AT_decl_column(0x19)
    2591                    $C$DW$T$4       .dwtag  DW_TAG_base_type
    2592                            .dwattr $C$DW$T$4, DW_AT_encoding(DW_ATE_boolean)
    2593                            .dwattr $C$DW$T$4, DW_AT_name("bool")
    2594                            .dwattr $C$DW$T$4, DW_AT_byte_size(0x01)
    2595                    $C$DW$T$5       .dwtag  DW_TAG_base_type
    2596                            .dwattr $C$DW$T$5, DW_AT_encoding(DW_ATE_signed_char)
    2597                            .dwattr $C$DW$T$5, DW_AT_name("signed char")
    2598                            .dwattr $C$DW$T$5, DW_AT_byte_size(0x01)
    2599                    $C$DW$T$80      .dwtag  DW_TAG_pointer_type
    2600                            .dwattr $C$DW$T$80, DW_AT_type(*$C$DW$T$5)
    2601                            .dwattr $C$DW$T$80, DW_AT_address_class(0x20)
    2602                    $C$DW$T$90      .dwtag  DW_TAG_typedef, DW_AT_name("int8_t")
    2603                            .dwattr $C$DW$T$90, DW_AT_type(*$C$DW$T$5)
    2604                            .dwattr $C$DW$T$90, DW_AT_language(DW_LANG_C)
    2605                            .dwattr $C$DW$T$90, DW_AT_decl_file("C:/VLIB_Tools/CCSV5_4_0/ccsv5/tools/compiler/C6000/includ
    2606                            .dwattr $C$DW$T$90, DW_AT_decl_line(0x2a)
    2607                            .dwattr $C$DW$T$90, DW_AT_decl_column(0x1d)
    2608                    $C$DW$T$91      .dwtag  DW_TAG_typedef, DW_AT_name("int_least8_t")
    2609                            .dwattr $C$DW$T$91, DW_AT_type(*$C$DW$T$90)
    2610                            .dwattr $C$DW$T$91, DW_AT_language(DW_LANG_C)
    2611                            .dwattr $C$DW$T$91, DW_AT_decl_file("C:/VLIB_Tools/CCSV5_4_0/ccsv5/tools/compiler/C6000/includ
    2612                            .dwattr $C$DW$T$91, DW_AT_decl_line(0x39)
    2613                            .dwattr $C$DW$T$91, DW_AT_decl_column(0x17)
    2614                    $C$DW$T$6       .dwtag  DW_TAG_base_type
    2615                            .dwattr $C$DW$T$6, DW_AT_encoding(DW_ATE_unsigned_char)
    2616                            .dwattr $C$DW$T$6, DW_AT_name("unsigned char")
    2617                            .dwattr $C$DW$T$6, DW_AT_byte_size(0x01)
    2618                    $C$DW$T$24      .dwtag  DW_TAG_pointer_type
    2619                            .dwattr $C$DW$T$24, DW_AT_type(*$C$DW$T$6)
    2620                            .dwattr $C$DW$T$24, DW_AT_address_class(0x20)
    2621                    $C$DW$T$19      .dwtag  DW_TAG_typedef, DW_AT_name("uint8_t")
TMS320C6x Assembler PC v7.4.2 Thu Mar 19 12:41:42 2015

Tools Copyright (c) 1996-2012 Texas Instruments Incorporated
package/lib/Regression/regress_d_c/./../packages/ti/vlib/src/VLIB_histogram_1D_U16/VLIB_histogram_1D_U16_d.se66 PAGE   54

    2622                            .dwattr $C$DW$T$19, DW_AT_type(*$C$DW$T$6)
    2623                            .dwattr $C$DW$T$19, DW_AT_language(DW_LANG_C)
    2624                            .dwattr $C$DW$T$19, DW_AT_decl_file("C:/VLIB_Tools/CCSV5_4_0/ccsv5/tools/compiler/C6000/includ
    2625                            .dwattr $C$DW$T$19, DW_AT_decl_line(0x2b)
    2626                            .dwattr $C$DW$T$19, DW_AT_decl_column(0x1c)
    2627                    $C$DW$T$92      .dwtag  DW_TAG_typedef, DW_AT_name("uint_least8_t")
    2628                            .dwattr $C$DW$T$92, DW_AT_type(*$C$DW$T$19)
    2629                            .dwattr $C$DW$T$92, DW_AT_language(DW_LANG_C)
    2630                            .dwattr $C$DW$T$92, DW_AT_decl_file("C:/VLIB_Tools/CCSV5_4_0/ccsv5/tools/compiler/C6000/includ
    2631                            .dwattr $C$DW$T$92, DW_AT_decl_line(0x3a)
    2632                            .dwattr $C$DW$T$92, DW_AT_decl_column(0x16)
    2633                    $C$DW$T$7       .dwtag  DW_TAG_base_type
    2634                            .dwattr $C$DW$T$7, DW_AT_encoding(DW_ATE_signed_char)
    2635                            .dwattr $C$DW$T$7, DW_AT_name("wchar_t")
    2636                            .dwattr $C$DW$T$7, DW_AT_byte_size(0x02)
    2637                    $C$DW$T$8       .dwtag  DW_TAG_base_type
    2638                            .dwattr $C$DW$T$8, DW_AT_encoding(DW_ATE_signed)
    2639                            .dwattr $C$DW$T$8, DW_AT_name("short")
    2640                            .dwattr $C$DW$T$8, DW_AT_byte_size(0x02)
    2641                    $C$DW$T$93      .dwtag  DW_TAG_typedef, DW_AT_name("int16_t")
    2642                            .dwattr $C$DW$T$93, DW_AT_type(*$C$DW$T$8)
    2643                            .dwattr $C$DW$T$93, DW_AT_language(DW_LANG_C)
    2644                            .dwattr $C$DW$T$93, DW_AT_decl_file("C:/VLIB_Tools/CCSV5_4_0/ccsv5/tools/compiler/C6000/includ
    2645                            .dwattr $C$DW$T$93, DW_AT_decl_line(0x2c)
    2646                            .dwattr $C$DW$T$93, DW_AT_decl_column(0x1d)
    2647                    $C$DW$T$94      .dwtag  DW_TAG_typedef, DW_AT_name("int_least16_t")
    2648                            .dwattr $C$DW$T$94, DW_AT_type(*$C$DW$T$93)
    2649                            .dwattr $C$DW$T$94, DW_AT_language(DW_LANG_C)
    2650                            .dwattr $C$DW$T$94, DW_AT_decl_file("C:/VLIB_Tools/CCSV5_4_0/ccsv5/tools/compiler/C6000/includ
    2651                            .dwattr $C$DW$T$94, DW_AT_decl_line(0x3c)
    2652                            .dwattr $C$DW$T$94, DW_AT_decl_column(0x17)
    2653                    $C$DW$T$9       .dwtag  DW_TAG_base_type
    2654                            .dwattr $C$DW$T$9, DW_AT_encoding(DW_ATE_unsigned)
    2655                            .dwattr $C$DW$T$9, DW_AT_name("unsigned short")
    2656                            .dwattr $C$DW$T$9, DW_AT_byte_size(0x02)
    2657                    $C$DW$T$95      .dwtag  DW_TAG_pointer_type
    2658                            .dwattr $C$DW$T$95, DW_AT_type(*$C$DW$T$9)
    2659                            .dwattr $C$DW$T$95, DW_AT_address_class(0x20)
    2660                    $C$DW$T$20      .dwtag  DW_TAG_typedef, DW_AT_name("uint16_t")
    2661                            .dwattr $C$DW$T$20, DW_AT_type(*$C$DW$T$9)
    2662                            .dwattr $C$DW$T$20, DW_AT_language(DW_LANG_C)
    2663                            .dwattr $C$DW$T$20, DW_AT_decl_file("C:/VLIB_Tools/CCSV5_4_0/ccsv5/tools/compiler/C6000/includ
    2664                            .dwattr $C$DW$T$20, DW_AT_decl_line(0x2d)
    2665                            .dwattr $C$DW$T$20, DW_AT_decl_column(0x1c)
    2666                    $C$DW$T$21      .dwtag  DW_TAG_pointer_type
    2667                            .dwattr $C$DW$T$21, DW_AT_type(*$C$DW$T$20)
    2668                            .dwattr $C$DW$T$21, DW_AT_address_class(0x20)
    2669                    $C$DW$T$97      .dwtag  DW_TAG_restrict_type
    2670                            .dwattr $C$DW$T$97, DW_AT_type(*$C$DW$T$21)
    2671                    $C$DW$T$98      .dwtag  DW_TAG_const_type
    2672                            .dwattr $C$DW$T$98, DW_AT_type(*$C$DW$T$20)
    2673                    $C$DW$T$99      .dwtag  DW_TAG_pointer_type
    2674                            .dwattr $C$DW$T$99, DW_AT_type(*$C$DW$T$98)
    2675                            .dwattr $C$DW$T$99, DW_AT_address_class(0x20)
    2676                    $C$DW$T$100     .dwtag  DW_TAG_restrict_type
TMS320C6x Assembler PC v7.4.2 Thu Mar 19 12:41:42 2015

Tools Copyright (c) 1996-2012 Texas Instruments Incorporated
package/lib/Regression/regress_d_c/./../packages/ti/vlib/src/VLIB_histogram_1D_U16/VLIB_histogram_1D_U16_d.se66 PAGE   55

    2677                            .dwattr $C$DW$T$100, DW_AT_type(*$C$DW$T$99)
    2678                    $C$DW$T$101     .dwtag  DW_TAG_typedef, DW_AT_name("uint_least16_t")
    2679                            .dwattr $C$DW$T$101, DW_AT_type(*$C$DW$T$20)
    2680                            .dwattr $C$DW$T$101, DW_AT_language(DW_LANG_C)
    2681                            .dwattr $C$DW$T$101, DW_AT_decl_file("C:/VLIB_Tools/CCSV5_4_0/ccsv5/tools/compiler/C6000/inclu
    2682                            .dwattr $C$DW$T$101, DW_AT_decl_line(0x3d)
    2683                            .dwattr $C$DW$T$101, DW_AT_decl_column(0x16)
    2684                    $C$DW$T$96      .dwtag  DW_TAG_typedef, DW_AT_name("wchar_t")
    2685                            .dwattr $C$DW$T$96, DW_AT_type(*$C$DW$T$9)
    2686                            .dwattr $C$DW$T$96, DW_AT_language(DW_LANG_C)
    2687                            .dwattr $C$DW$T$96, DW_AT_decl_file("C:/VLIB_Tools/CCSV5_4_0/ccsv5/tools/compiler/C6000/includ
    2688                            .dwattr $C$DW$T$96, DW_AT_decl_line(0x53)
    2689                            .dwattr $C$DW$T$96, DW_AT_decl_column(0x1a)
    2690                    $C$DW$T$10      .dwtag  DW_TAG_base_type
    2691                            .dwattr $C$DW$T$10, DW_AT_encoding(DW_ATE_signed)
    2692                            .dwattr $C$DW$T$10, DW_AT_name("int")
    2693                            .dwattr $C$DW$T$10, DW_AT_byte_size(0x04)
    2694                    $C$DW$T$130     .dwtag  DW_TAG_typedef, DW_AT_name("fpos_t")
    2695                            .dwattr $C$DW$T$130, DW_AT_type(*$C$DW$T$10)
    2696                            .dwattr $C$DW$T$130, DW_AT_language(DW_LANG_C)
    2697                            .dwattr $C$DW$T$130, DW_AT_decl_file("C:/VLIB_Tools/CCSV5_4_0/ccsv5/tools/compiler/C6000/inclu
    2698                            .dwattr $C$DW$T$130, DW_AT_decl_line(0x53)
    2699                            .dwattr $C$DW$T$130, DW_AT_decl_column(0x0d)
    2700                    $C$DW$T$22      .dwtag  DW_TAG_typedef, DW_AT_name("int32_t")
    2701                            .dwattr $C$DW$T$22, DW_AT_type(*$C$DW$T$10)
    2702                            .dwattr $C$DW$T$22, DW_AT_language(DW_LANG_C)
    2703                            .dwattr $C$DW$T$22, DW_AT_decl_file("C:/VLIB_Tools/CCSV5_4_0/ccsv5/tools/compiler/C6000/includ
    2704                            .dwattr $C$DW$T$22, DW_AT_decl_line(0x2e)
    2705                            .dwattr $C$DW$T$22, DW_AT_decl_column(0x1d)
    2706                    $C$DW$T$120     .dwtag  DW_TAG_typedef, DW_AT_name("VLIB_CCHandle")
    2707                            .dwattr $C$DW$T$120, DW_AT_type(*$C$DW$T$22)
    2708                            .dwattr $C$DW$T$120, DW_AT_language(DW_LANG_C)
    2709                            .dwattr $C$DW$T$120, DW_AT_decl_file(".\..\packages\ti\vlib\src\VLIB_histogram_1D_U16\..\commo
    2710                            .dwattr $C$DW$T$120, DW_AT_decl_line(0x77)
    2711                            .dwattr $C$DW$T$120, DW_AT_decl_column(0x11)
    2712                    
    2713                    $C$DW$T$33      .dwtag  DW_TAG_array_type
    2714                            .dwattr $C$DW$T$33, DW_AT_type(*$C$DW$T$22)
    2715                            .dwattr $C$DW$T$33, DW_AT_language(DW_LANG_C)
    2716                            .dwattr $C$DW$T$33, DW_AT_byte_size(0x10)
    2717                    $C$DW$244       .dwtag  DW_TAG_subrange_type
    2718                            .dwattr $C$DW$244, DW_AT_upper_bound(0x03)
    2719                            .dwendtag $C$DW$T$33
    2720                    
    2721                    $C$DW$T$76      .dwtag  DW_TAG_pointer_type
    2722                            .dwattr $C$DW$T$76, DW_AT_type(*$C$DW$T$22)
    2723                            .dwattr $C$DW$T$76, DW_AT_address_class(0x20)
    2724                    $C$DW$T$112     .dwtag  DW_TAG_const_type
    2725                            .dwattr $C$DW$T$112, DW_AT_type(*$C$DW$T$22)
    2726                    $C$DW$T$125     .dwtag  DW_TAG_typedef, DW_AT_name("int_fast16_t")
    2727                            .dwattr $C$DW$T$125, DW_AT_type(*$C$DW$T$22)
    2728                            .dwattr $C$DW$T$125, DW_AT_language(DW_LANG_C)
    2729                            .dwattr $C$DW$T$125, DW_AT_decl_file("C:/VLIB_Tools/CCSV5_4_0/ccsv5/tools/compiler/C6000/inclu
    2730                            .dwattr $C$DW$T$125, DW_AT_decl_line(0x4b)
    2731                            .dwattr $C$DW$T$125, DW_AT_decl_column(0x17)
TMS320C6x Assembler PC v7.4.2 Thu Mar 19 12:41:42 2015

Tools Copyright (c) 1996-2012 Texas Instruments Incorporated
package/lib/Regression/regress_d_c/./../packages/ti/vlib/src/VLIB_histogram_1D_U16/VLIB_histogram_1D_U16_d.se66 PAGE   56

    2732                    $C$DW$T$126     .dwtag  DW_TAG_typedef, DW_AT_name("int_fast32_t")
    2733                            .dwattr $C$DW$T$126, DW_AT_type(*$C$DW$T$22)
    2734                            .dwattr $C$DW$T$126, DW_AT_language(DW_LANG_C)
    2735                            .dwattr $C$DW$T$126, DW_AT_decl_file("C:/VLIB_Tools/CCSV5_4_0/ccsv5/tools/compiler/C6000/inclu
    2736                            .dwattr $C$DW$T$126, DW_AT_decl_line(0x4e)
    2737                            .dwattr $C$DW$T$126, DW_AT_decl_column(0x17)
    2738                    $C$DW$T$127     .dwtag  DW_TAG_typedef, DW_AT_name("int_fast8_t")
    2739                            .dwattr $C$DW$T$127, DW_AT_type(*$C$DW$T$22)
    2740                            .dwattr $C$DW$T$127, DW_AT_language(DW_LANG_C)
    2741                            .dwattr $C$DW$T$127, DW_AT_decl_file("C:/VLIB_Tools/CCSV5_4_0/ccsv5/tools/compiler/C6000/inclu
    2742                            .dwattr $C$DW$T$127, DW_AT_decl_line(0x49)
    2743                            .dwattr $C$DW$T$127, DW_AT_decl_column(0x17)
    2744                    $C$DW$T$128     .dwtag  DW_TAG_typedef, DW_AT_name("int_least32_t")
    2745                            .dwattr $C$DW$T$128, DW_AT_type(*$C$DW$T$22)
    2746                            .dwattr $C$DW$T$128, DW_AT_language(DW_LANG_C)
    2747                            .dwattr $C$DW$T$128, DW_AT_decl_file("C:/VLIB_Tools/CCSV5_4_0/ccsv5/tools/compiler/C6000/inclu
    2748                            .dwattr $C$DW$T$128, DW_AT_decl_line(0x3e)
    2749                            .dwattr $C$DW$T$128, DW_AT_decl_column(0x17)
    2750                    $C$DW$T$129     .dwtag  DW_TAG_typedef, DW_AT_name("intptr_t")
    2751                            .dwattr $C$DW$T$129, DW_AT_type(*$C$DW$T$10)
    2752                            .dwattr $C$DW$T$129, DW_AT_language(DW_LANG_C)
    2753                            .dwattr $C$DW$T$129, DW_AT_decl_file("C:/VLIB_Tools/CCSV5_4_0/ccsv5/tools/compiler/C6000/inclu
    2754                            .dwattr $C$DW$T$129, DW_AT_decl_line(0x58)
    2755                            .dwattr $C$DW$T$129, DW_AT_decl_column(0x1a)
    2756                    $C$DW$T$11      .dwtag  DW_TAG_base_type
    2757                            .dwattr $C$DW$T$11, DW_AT_encoding(DW_ATE_unsigned)
    2758                            .dwattr $C$DW$T$11, DW_AT_name("unsigned int")
    2759                            .dwattr $C$DW$T$11, DW_AT_byte_size(0x04)
    2760                    $C$DW$T$131     .dwtag  DW_TAG_typedef, DW_AT_name("VLIB_VAL")
    2761                            .dwattr $C$DW$T$131, DW_AT_type(*$C$DW$T$11)
    2762                            .dwattr $C$DW$T$131, DW_AT_language(DW_LANG_C)
    2763                            .dwattr $C$DW$T$131, DW_AT_decl_file(".\..\packages\ti\vlib\src\VLIB_histogram_1D_U16\..\commo
    2764                            .dwattr $C$DW$T$131, DW_AT_decl_line(0x5d)
    2765                            .dwattr $C$DW$T$131, DW_AT_decl_column(0x17)
