TMS320C6x Assembler PC v7.4.2 Thu Mar 19 12:42:50 2015

Tools Copyright (c) 1996-2012 Texas Instruments Incorporated
package/lib/Regression/regress_d_c/./../packages/ti/vlib/src/VLIB_kalmanFilter_2x4_Predict_S16_F32/VLIB_kalmanFilter_2x4_Predict_S16_F32_d.se66 PAGE    1

       1                    ;******************************************************************************
       2                    ;* TMS320C6x C/C++ Codegen                                          PC v7.4.2 *
       3                    ;* Date/Time created: Thu Mar 19 12:42:49 2015                                *
       4                    ;******************************************************************************
       5                            .compiler_opts --abi=eabi --c64p_l1d_workaround=off --endian=little --hll_source=on --long_pre
       6                    
       7                    ;******************************************************************************
       8                    ;* GLOBAL FILE PARAMETERS                                                     *
       9                    ;*                                                                            *
      10                    ;*   Architecture      : TMS320C66xx                                          *
      11                    ;*   Optimization      : Enabled at level 3                                   *
      12                    ;*   Optimizing for    : Speed                                                *
      13                    ;*                       Based on options: -o3, no -ms                        *
      14                    ;*   Endian            : Little                                               *
      15                    ;*   Interrupt Thrshld : 10000                                                *
      16                    ;*   Data Access Model : Far                                                  *
      17                    ;*   Pipelining        : Enabled                                              *
      18                    ;*   Speculate Loads   : Enabled with threshold = 0                           *
      19                    ;*   Memory Aliases    : Presume are aliases (pessimistic)                    *
      20                    ;*   Debug Info        : DWARF Debug w/Optimization                           *
      21                    ;*                                                                            *
      22                    ;******************************************************************************
      23                    
      24                            .asg    A15, FP
      25                            .asg    B14, DP
      26                            .asg    B15, SP
      27                            .global $bss
      28                    
      29                    
      30                    $C$DW$CU        .dwtag  DW_TAG_compile_unit
      31                            .dwattr $C$DW$CU, DW_AT_name("./../packages/ti/vlib/src/VLIB_kalmanFilter_2x4_Predict_S16_F32/
      32                            .dwattr $C$DW$CU, DW_AT_producer("TI TMS320C6x C/C++ Codegen PC v7.4.2 Copyright (c) 1996-2012
      33                            .dwattr $C$DW$CU, DW_AT_TI_version(0x01)
      34                            .dwattr $C$DW$CU, DW_AT_comp_dir("c:\nightlybuilds\vlib\ti\vlib\vlib\examples")
      35                    
      36                    $C$DW$1 .dwtag  DW_TAG_subprogram, DW_AT_name("fabs")
      37                            .dwattr $C$DW$1, DW_AT_TI_symbol_name("fabs")
      38                            .dwattr $C$DW$1, DW_AT_type(*$C$DW$T$17)
      39                            .dwattr $C$DW$1, DW_AT_declaration
      40                            .dwattr $C$DW$1, DW_AT_external
      41                            .dwattr $C$DW$1, DW_AT_decl_file("C:/VLIB_Tools/CCSV5_4_0/ccsv5/tools/compiler/C6000/include/m
      42                            .dwattr $C$DW$1, DW_AT_decl_line(0x5f)
      43                            .dwattr $C$DW$1, DW_AT_decl_column(0x11)
      44                    $C$DW$2 .dwtag  DW_TAG_formal_parameter
      45                            .dwattr $C$DW$2, DW_AT_type(*$C$DW$T$17)
      46                            .dwendtag $C$DW$1
      47                    
      48                    
      49                    $C$DW$3 .dwtag  DW_TAG_subprogram, DW_AT_name("_itoll")
      50                            .dwattr $C$DW$3, DW_AT_TI_symbol_name("_itoll")
      51                            .dwattr $C$DW$3, DW_AT_type(*$C$DW$T$14)
      52                            .dwattr $C$DW$3, DW_AT_declaration
      53                            .dwattr $C$DW$3, DW_AT_external
      54                            .dwattr $C$DW$3, DW_AT_decl_file("C:/VLIB_Tools/CCSV5_4_0/ccsv5/tools/compiler/C6000/include/c
      55                            .dwattr $C$DW$3, DW_AT_decl_line(0xdf)
TMS320C6x Assembler PC v7.4.2 Thu Mar 19 12:42:50 2015

Tools Copyright (c) 1996-2012 Texas Instruments Incorporated
package/lib/Regression/regress_d_c/./../packages/ti/vlib/src/VLIB_kalmanFilter_2x4_Predict_S16_F32/VLIB_kalmanFilter_2x4_Predict_S16_F32_d.se66 PAGE    2

      56                            .dwattr $C$DW$3, DW_AT_decl_column(0x0b)
      57                    $C$DW$4 .dwtag  DW_TAG_formal_parameter
      58                            .dwattr $C$DW$4, DW_AT_type(*$C$DW$T$11)
      59                    $C$DW$5 .dwtag  DW_TAG_formal_parameter
      60                            .dwattr $C$DW$5, DW_AT_type(*$C$DW$T$11)
      61                            .dwendtag $C$DW$3
      62                    
      63                    
      64                    $C$DW$6 .dwtag  DW_TAG_subprogram, DW_AT_name("printf")
      65                            .dwattr $C$DW$6, DW_AT_TI_symbol_name("printf")
      66                            .dwattr $C$DW$6, DW_AT_type(*$C$DW$T$10)
      67                            .dwattr $C$DW$6, DW_AT_declaration
      68                            .dwattr $C$DW$6, DW_AT_external
      69                            .dwattr $C$DW$6, DW_AT_decl_file("C:/VLIB_Tools/CCSV5_4_0/ccsv5/tools/compiler/C6000/include/s
      70                            .dwattr $C$DW$6, DW_AT_decl_line(0xb8)
      71                            .dwattr $C$DW$6, DW_AT_decl_column(0x19)
      72                    $C$DW$7 .dwtag  DW_TAG_formal_parameter
      73                            .dwattr $C$DW$7, DW_AT_type(*$C$DW$T$131)
      74                    $C$DW$8 .dwtag  DW_TAG_unspecified_parameters
      75                            .dwendtag $C$DW$6
      76                    
      77                    
      78                    $C$DW$9 .dwtag  DW_TAG_subprogram, DW_AT_name("sprintf")
      79                            .dwattr $C$DW$9, DW_AT_TI_symbol_name("sprintf")
      80                            .dwattr $C$DW$9, DW_AT_type(*$C$DW$T$10)
      81                            .dwattr $C$DW$9, DW_AT_declaration
      82                            .dwattr $C$DW$9, DW_AT_external
      83                            .dwattr $C$DW$9, DW_AT_decl_file("C:/VLIB_Tools/CCSV5_4_0/ccsv5/tools/compiler/C6000/include/s
      84                            .dwattr $C$DW$9, DW_AT_decl_line(0xbc)
      85                            .dwattr $C$DW$9, DW_AT_decl_column(0x19)
      86                    $C$DW$10        .dwtag  DW_TAG_formal_parameter
      87                            .dwattr $C$DW$10, DW_AT_type(*$C$DW$T$81)
      88                    $C$DW$11        .dwtag  DW_TAG_formal_parameter
      89                            .dwattr $C$DW$11, DW_AT_type(*$C$DW$T$131)
      90                    $C$DW$12        .dwtag  DW_TAG_unspecified_parameters
      91                            .dwendtag $C$DW$9
      92                    
      93                    
      94                    $C$DW$13        .dwtag  DW_TAG_subprogram, DW_AT_name("memset")
      95                            .dwattr $C$DW$13, DW_AT_TI_symbol_name("memset")
      96                            .dwattr $C$DW$13, DW_AT_type(*$C$DW$T$3)
      97                            .dwattr $C$DW$13, DW_AT_declaration
      98                            .dwattr $C$DW$13, DW_AT_external
      99                            .dwattr $C$DW$13, DW_AT_decl_file("C:/VLIB_Tools/CCSV5_4_0/ccsv5/tools/compiler/C6000/include/
     100                            .dwattr $C$DW$13, DW_AT_decl_line(0x5b)
     101                            .dwattr $C$DW$13, DW_AT_decl_column(0x16)
     102                    $C$DW$14        .dwtag  DW_TAG_formal_parameter
     103                            .dwattr $C$DW$14, DW_AT_type(*$C$DW$T$3)
     104                    $C$DW$15        .dwtag  DW_TAG_formal_parameter
     105                            .dwattr $C$DW$15, DW_AT_type(*$C$DW$T$10)
     106                    $C$DW$16        .dwtag  DW_TAG_formal_parameter
     107                            .dwattr $C$DW$16, DW_AT_type(*$C$DW$T$74)
     108                            .dwendtag $C$DW$13
     109                    
     110                    
TMS320C6x Assembler PC v7.4.2 Thu Mar 19 12:42:50 2015

Tools Copyright (c) 1996-2012 Texas Instruments Incorporated
package/lib/Regression/regress_d_c/./../packages/ti/vlib/src/VLIB_kalmanFilter_2x4_Predict_S16_F32/VLIB_kalmanFilter_2x4_Predict_S16_F32_d.se66 PAGE    3

     111                    $C$DW$17        .dwtag  DW_TAG_subprogram, DW_AT_name("free")
     112                            .dwattr $C$DW$17, DW_AT_TI_symbol_name("free")
     113                            .dwattr $C$DW$17, DW_AT_declaration
     114                            .dwattr $C$DW$17, DW_AT_external
     115                            .dwattr $C$DW$17, DW_AT_decl_file("C:/VLIB_Tools/CCSV5_4_0/ccsv5/tools/compiler/C6000/include/
     116                            .dwattr $C$DW$17, DW_AT_decl_line(0x86)
     117                            .dwattr $C$DW$17, DW_AT_decl_column(0x19)
     118                    $C$DW$18        .dwtag  DW_TAG_formal_parameter
     119                            .dwattr $C$DW$18, DW_AT_type(*$C$DW$T$3)
     120                            .dwendtag $C$DW$17
     121                    
     122                    
     123                    $C$DW$19        .dwtag  DW_TAG_subprogram, DW_AT_name("memalign")
     124                            .dwattr $C$DW$19, DW_AT_TI_symbol_name("memalign")
     125                            .dwattr $C$DW$19, DW_AT_type(*$C$DW$T$3)
     126                            .dwattr $C$DW$19, DW_AT_declaration
     127                            .dwattr $C$DW$19, DW_AT_external
     128                            .dwattr $C$DW$19, DW_AT_decl_file("C:/VLIB_Tools/CCSV5_4_0/ccsv5/tools/compiler/C6000/include/
     129                            .dwattr $C$DW$19, DW_AT_decl_line(0x87)
     130                            .dwattr $C$DW$19, DW_AT_decl_column(0x19)
     131                    $C$DW$20        .dwtag  DW_TAG_formal_parameter
     132                            .dwattr $C$DW$20, DW_AT_type(*$C$DW$T$74)
     133                    $C$DW$21        .dwtag  DW_TAG_formal_parameter
     134                            .dwattr $C$DW$21, DW_AT_type(*$C$DW$T$74)
     135                            .dwendtag $C$DW$19
     136                    
     137                    
     138                    $C$DW$22        .dwtag  DW_TAG_subprogram, DW_AT_name("VLIB_cache_inval")
     139                            .dwattr $C$DW$22, DW_AT_TI_symbol_name("VLIB_cache_inval")
     140                            .dwattr $C$DW$22, DW_AT_type(*$C$DW$T$10)
     141                            .dwattr $C$DW$22, DW_AT_declaration
     142                            .dwattr $C$DW$22, DW_AT_external
     143                            .dwattr $C$DW$22, DW_AT_decl_file(".\..\packages\ti\vlib\src\VLIB_kalmanFilter_2x4_Predict_S16
     144                            .dwattr $C$DW$22, DW_AT_decl_line(0x58)
     145                            .dwattr $C$DW$22, DW_AT_decl_column(0x05)
     146                    
     147                    $C$DW$23        .dwtag  DW_TAG_subprogram, DW_AT_name("VLIB_profile_init")
     148                            .dwattr $C$DW$23, DW_AT_TI_symbol_name("VLIB_profile_init")
     149                            .dwattr $C$DW$23, DW_AT_declaration
     150                            .dwattr $C$DW$23, DW_AT_external
     151                            .dwattr $C$DW$23, DW_AT_decl_file(".\..\packages\ti\vlib\src\VLIB_kalmanFilter_2x4_Predict_S16
     152                            .dwattr $C$DW$23, DW_AT_decl_line(0x7b)
     153                            .dwattr $C$DW$23, DW_AT_decl_column(0x06)
     154                    $C$DW$24        .dwtag  DW_TAG_formal_parameter
     155                            .dwattr $C$DW$24, DW_AT_type(*$C$DW$T$10)
     156                    $C$DW$25        .dwtag  DW_TAG_formal_parameter
     157                            .dwattr $C$DW$25, DW_AT_type(*$C$DW$T$81)
     158                            .dwendtag $C$DW$23
     159                    
     160                    
     161                    $C$DW$26        .dwtag  DW_TAG_subprogram, DW_AT_name("VLIB_formula_add_test")
     162                            .dwattr $C$DW$26, DW_AT_TI_symbol_name("VLIB_formula_add_test")
     163                            .dwattr $C$DW$26, DW_AT_declaration
     164                            .dwattr $C$DW$26, DW_AT_external
     165                            .dwattr $C$DW$26, DW_AT_decl_file(".\..\packages\ti\vlib\src\VLIB_kalmanFilter_2x4_Predict_S16
TMS320C6x Assembler PC v7.4.2 Thu Mar 19 12:42:50 2015

Tools Copyright (c) 1996-2012 Texas Instruments Incorporated
package/lib/Regression/regress_d_c/./../packages/ti/vlib/src/VLIB_kalmanFilter_2x4_Predict_S16_F32/VLIB_kalmanFilter_2x4_Predict_S16_F32_d.se66 PAGE    4

     166                            .dwattr $C$DW$26, DW_AT_decl_line(0x7d)
     167                            .dwattr $C$DW$26, DW_AT_decl_column(0x06)
     168                    $C$DW$27        .dwtag  DW_TAG_formal_parameter
     169                            .dwattr $C$DW$27, DW_AT_type(*$C$DW$T$10)
     170                    $C$DW$28        .dwtag  DW_TAG_formal_parameter
     171                            .dwattr $C$DW$28, DW_AT_type(*$C$DW$T$10)
     172                    $C$DW$29        .dwtag  DW_TAG_formal_parameter
     173                            .dwattr $C$DW$29, DW_AT_type(*$C$DW$T$10)
     174                    $C$DW$30        .dwtag  DW_TAG_formal_parameter
     175                            .dwattr $C$DW$30, DW_AT_type(*$C$DW$T$10)
     176                    $C$DW$31        .dwtag  DW_TAG_formal_parameter
     177                            .dwattr $C$DW$31, DW_AT_type(*$C$DW$T$81)
     178                    $C$DW$32        .dwtag  DW_TAG_formal_parameter
     179                            .dwattr $C$DW$32, DW_AT_type(*$C$DW$T$10)
     180                            .dwendtag $C$DW$26
     181                    
     182                    
     183                    $C$DW$33        .dwtag  DW_TAG_subprogram, DW_AT_name("VLIB_skip_test")
     184                            .dwattr $C$DW$33, DW_AT_TI_symbol_name("VLIB_skip_test")
     185                            .dwattr $C$DW$33, DW_AT_declaration
     186                            .dwattr $C$DW$33, DW_AT_external
     187                            .dwattr $C$DW$33, DW_AT_decl_file(".\..\packages\ti\vlib\src\VLIB_kalmanFilter_2x4_Predict_S16
     188                            .dwattr $C$DW$33, DW_AT_decl_line(0x7e)
     189                            .dwattr $C$DW$33, DW_AT_decl_column(0x06)
     190                    $C$DW$34        .dwtag  DW_TAG_formal_parameter
     191                            .dwattr $C$DW$34, DW_AT_type(*$C$DW$T$81)
     192                            .dwendtag $C$DW$33
     193                    
     194                    
     195                    $C$DW$35        .dwtag  DW_TAG_subprogram, DW_AT_name("VLIB_profile_cycle_report")
     196                            .dwattr $C$DW$35, DW_AT_TI_symbol_name("VLIB_profile_cycle_report")
     197                            .dwattr $C$DW$35, DW_AT_declaration
     198                            .dwattr $C$DW$35, DW_AT_external
     199                            .dwattr $C$DW$35, DW_AT_decl_file(".\..\packages\ti\vlib\src\VLIB_kalmanFilter_2x4_Predict_S16
     200                            .dwattr $C$DW$35, DW_AT_decl_line(0x7f)
     201                            .dwattr $C$DW$35, DW_AT_decl_column(0x06)
     202                    $C$DW$36        .dwtag  DW_TAG_formal_parameter
     203                            .dwattr $C$DW$36, DW_AT_type(*$C$DW$T$10)
     204                    $C$DW$37        .dwtag  DW_TAG_formal_parameter
     205                            .dwattr $C$DW$37, DW_AT_type(*$C$DW$T$81)
     206                    $C$DW$38        .dwtag  DW_TAG_formal_parameter
     207                            .dwattr $C$DW$38, DW_AT_type(*$C$DW$T$81)
     208                            .dwendtag $C$DW$35
     209                    
     210                    
     211                    $C$DW$39        .dwtag  DW_TAG_subprogram, DW_AT_name("initStack")
     212                            .dwattr $C$DW$39, DW_AT_TI_symbol_name("initStack")
     213                            .dwattr $C$DW$39, DW_AT_declaration
     214                            .dwattr $C$DW$39, DW_AT_external
     215                            .dwattr $C$DW$39, DW_AT_decl_file(".\..\packages\ti\vlib\src\VLIB_kalmanFilter_2x4_Predict_S16
     216                            .dwattr $C$DW$39, DW_AT_decl_line(0x80)
     217                            .dwattr $C$DW$39, DW_AT_decl_column(0x06)
     218                    $C$DW$40        .dwtag  DW_TAG_formal_parameter
     219                            .dwattr $C$DW$40, DW_AT_type(*$C$DW$T$90)
     220                            .dwendtag $C$DW$39
TMS320C6x Assembler PC v7.4.2 Thu Mar 19 12:42:50 2015

Tools Copyright (c) 1996-2012 Texas Instruments Incorporated
package/lib/Regression/regress_d_c/./../packages/ti/vlib/src/VLIB_kalmanFilter_2x4_Predict_S16_F32/VLIB_kalmanFilter_2x4_Predict_S16_F32_d.se66 PAGE    5

     221                    
     222                    
     223                    $C$DW$41        .dwtag  DW_TAG_subprogram, DW_AT_name("setStackDepth")
     224                            .dwattr $C$DW$41, DW_AT_TI_symbol_name("setStackDepth")
     225                            .dwattr $C$DW$41, DW_AT_declaration
     226                            .dwattr $C$DW$41, DW_AT_external
     227                            .dwattr $C$DW$41, DW_AT_decl_file(".\..\packages\ti\vlib\src\VLIB_kalmanFilter_2x4_Predict_S16
     228                            .dwattr $C$DW$41, DW_AT_decl_line(0x81)
     229                            .dwattr $C$DW$41, DW_AT_decl_column(0x06)
     230                    
     231                    $C$DW$42        .dwtag  DW_TAG_subprogram, DW_AT_name("getSP")
     232                            .dwattr $C$DW$42, DW_AT_TI_symbol_name("getSP")
     233                            .dwattr $C$DW$42, DW_AT_type(*$C$DW$T$90)
     234                            .dwattr $C$DW$42, DW_AT_declaration
     235                            .dwattr $C$DW$42, DW_AT_external
     236                            .dwattr $C$DW$42, DW_AT_decl_file(".\..\packages\ti\vlib\src\VLIB_kalmanFilter_2x4_Predict_S16
     237                            .dwattr $C$DW$42, DW_AT_decl_line(0x82)
     238                            .dwattr $C$DW$42, DW_AT_decl_column(0x0a)
     239                    
     240                    $C$DW$43        .dwtag  DW_TAG_subprogram, DW_AT_name("VLIB_stack_memory")
     241                            .dwattr $C$DW$43, DW_AT_TI_symbol_name("VLIB_stack_memory")
     242                            .dwattr $C$DW$43, DW_AT_declaration
     243                            .dwattr $C$DW$43, DW_AT_external
     244                            .dwattr $C$DW$43, DW_AT_decl_file(".\..\packages\ti\vlib\src\VLIB_kalmanFilter_2x4_Predict_S16
     245                            .dwattr $C$DW$43, DW_AT_decl_line(0x83)
     246                            .dwattr $C$DW$43, DW_AT_decl_column(0x06)
     247                    
     248                    $C$DW$44        .dwtag  DW_TAG_subprogram, DW_AT_name("VLIB_fillBuffer")
     249                            .dwattr $C$DW$44, DW_AT_TI_symbol_name("VLIB_fillBuffer")
     250                            .dwattr $C$DW$44, DW_AT_declaration
     251                            .dwattr $C$DW$44, DW_AT_external
     252                            .dwattr $C$DW$44, DW_AT_decl_file(".\..\packages\ti\vlib\src\VLIB_kalmanFilter_2x4_Predict_S16
     253                            .dwattr $C$DW$44, DW_AT_decl_line(0x77)
     254                            .dwattr $C$DW$44, DW_AT_decl_column(0x06)
     255                    $C$DW$45        .dwtag  DW_TAG_formal_parameter
     256                            .dwattr $C$DW$45, DW_AT_type(*$C$DW$T$19)
     257                    $C$DW$46        .dwtag  DW_TAG_formal_parameter
     258                            .dwattr $C$DW$46, DW_AT_type(*$C$DW$T$19)
     259                    $C$DW$47        .dwtag  DW_TAG_formal_parameter
     260                            .dwattr $C$DW$47, DW_AT_type(*$C$DW$T$3)
     261                    $C$DW$48        .dwtag  DW_TAG_formal_parameter
     262                            .dwattr $C$DW$48, DW_AT_type(*$C$DW$T$3)
     263                    $C$DW$49        .dwtag  DW_TAG_formal_parameter
     264                            .dwattr $C$DW$49, DW_AT_type(*$C$DW$T$22)
     265                    $C$DW$50        .dwtag  DW_TAG_formal_parameter
     266                            .dwattr $C$DW$50, DW_AT_type(*$C$DW$T$22)
     267                    $C$DW$51        .dwtag  DW_TAG_formal_parameter
     268                            .dwattr $C$DW$51, DW_AT_type(*$C$DW$T$22)
     269                    $C$DW$52        .dwtag  DW_TAG_formal_parameter
     270                            .dwattr $C$DW$52, DW_AT_type(*$C$DW$T$19)
     271                    $C$DW$53        .dwtag  DW_TAG_formal_parameter
     272                            .dwattr $C$DW$53, DW_AT_type(*$C$DW$T$81)
     273                            .dwendtag $C$DW$44
     274                    
     275                    
TMS320C6x Assembler PC v7.4.2 Thu Mar 19 12:42:50 2015

Tools Copyright (c) 1996-2012 Texas Instruments Incorporated
package/lib/Regression/regress_d_c/./../packages/ti/vlib/src/VLIB_kalmanFilter_2x4_Predict_S16_F32/VLIB_kalmanFilter_2x4_Predict_S16_F32_d.se66 PAGE    6

     276                    $C$DW$54        .dwtag  DW_TAG_subprogram, DW_AT_name("VLIB_memalign")
     277                            .dwattr $C$DW$54, DW_AT_TI_symbol_name("VLIB_memalign")
     278                            .dwattr $C$DW$54, DW_AT_type(*$C$DW$T$3)
     279                            .dwattr $C$DW$54, DW_AT_declaration
     280                            .dwattr $C$DW$54, DW_AT_external
     281                            .dwattr $C$DW$54, DW_AT_decl_file(".\..\packages\ti\vlib\src\VLIB_kalmanFilter_2x4_Predict_S16
     282                            .dwattr $C$DW$54, DW_AT_decl_line(0xae)
     283                            .dwattr $C$DW$54, DW_AT_decl_column(0x07)
     284                    $C$DW$55        .dwtag  DW_TAG_formal_parameter
     285                            .dwattr $C$DW$55, DW_AT_type(*$C$DW$T$74)
     286                    $C$DW$56        .dwtag  DW_TAG_formal_parameter
     287                            .dwattr $C$DW$56, DW_AT_type(*$C$DW$T$74)
     288                            .dwendtag $C$DW$54
     289                    
     290                    
     291                    $C$DW$57        .dwtag  DW_TAG_subprogram, DW_AT_name("VLIB_align_free")
     292                            .dwattr $C$DW$57, DW_AT_TI_symbol_name("VLIB_align_free")
     293                            .dwattr $C$DW$57, DW_AT_declaration
     294                            .dwattr $C$DW$57, DW_AT_external
     295                            .dwattr $C$DW$57, DW_AT_decl_file(".\..\packages\ti\vlib\src\VLIB_kalmanFilter_2x4_Predict_S16
     296                            .dwattr $C$DW$57, DW_AT_decl_line(0xb3)
     297                            .dwattr $C$DW$57, DW_AT_decl_column(0x07)
     298                    $C$DW$58        .dwtag  DW_TAG_formal_parameter
     299                            .dwattr $C$DW$58, DW_AT_type(*$C$DW$T$3)
     300                            .dwendtag $C$DW$57
     301                    
     302                    
     303                    $C$DW$59        .dwtag  DW_TAG_subprogram, DW_AT_name("VLIB_kalmanFilter_2x4_Correct_S16_F32_cn")
     304                            .dwattr $C$DW$59, DW_AT_TI_symbol_name("VLIB_kalmanFilter_2x4_Correct_S16_F32_cn")
     305                            .dwattr $C$DW$59, DW_AT_declaration
     306                            .dwattr $C$DW$59, DW_AT_external
     307                            .dwattr $C$DW$59, DW_AT_decl_file(".\..\packages\ti\vlib\src\VLIB_kalmanFilter_2x4_Predict_S16
     308                            .dwattr $C$DW$59, DW_AT_decl_line(0x2c)
     309                            .dwattr $C$DW$59, DW_AT_decl_column(0x06)
     310                    $C$DW$60        .dwtag  DW_TAG_formal_parameter
     311                            .dwattr $C$DW$60, DW_AT_type(*$C$DW$T$99)
     312                    $C$DW$61        .dwtag  DW_TAG_formal_parameter
     313                            .dwattr $C$DW$61, DW_AT_type(*$C$DW$T$102)
     314                    $C$DW$62        .dwtag  DW_TAG_formal_parameter
     315                            .dwattr $C$DW$62, DW_AT_type(*$C$DW$T$103)
     316                            .dwendtag $C$DW$59
     317                    
     318                    
     319                    $C$DW$63        .dwtag  DW_TAG_subprogram, DW_AT_name("VLIB_kalmanFilter_2x4_Predict_S16_F32")
     320                            .dwattr $C$DW$63, DW_AT_TI_symbol_name("VLIB_kalmanFilter_2x4_Predict_S16_F32")
     321                            .dwattr $C$DW$63, DW_AT_declaration
     322                            .dwattr $C$DW$63, DW_AT_external
     323                            .dwattr $C$DW$63, DW_AT_decl_file(".\..\packages\ti\vlib\src\VLIB_kalmanFilter_2x4_Predict_S16
     324                            .dwattr $C$DW$63, DW_AT_decl_line(0x7d)
     325                            .dwattr $C$DW$63, DW_AT_decl_column(0x06)
     326                    $C$DW$64        .dwtag  DW_TAG_formal_parameter
     327                            .dwattr $C$DW$64, DW_AT_type(*$C$DW$T$99)
     328                            .dwendtag $C$DW$63
     329                    
     330                    
TMS320C6x Assembler PC v7.4.2 Thu Mar 19 12:42:50 2015

Tools Copyright (c) 1996-2012 Texas Instruments Incorporated
package/lib/Regression/regress_d_c/./../packages/ti/vlib/src/VLIB_kalmanFilter_2x4_Predict_S16_F32/VLIB_kalmanFilter_2x4_Predict_S16_F32_d.se66 PAGE    7

     331                    $C$DW$65        .dwtag  DW_TAG_subprogram, DW_AT_name("VLIB_kalmanFilter_2x4_Predict_S16_F32_cn")
     332                            .dwattr $C$DW$65, DW_AT_TI_symbol_name("VLIB_kalmanFilter_2x4_Predict_S16_F32_cn")
     333                            .dwattr $C$DW$65, DW_AT_declaration
     334                            .dwattr $C$DW$65, DW_AT_external
     335                            .dwattr $C$DW$65, DW_AT_decl_file(".\..\packages\ti\vlib\src\VLIB_kalmanFilter_2x4_Predict_S16
     336                            .dwattr $C$DW$65, DW_AT_decl_line(0x2c)
     337                            .dwattr $C$DW$65, DW_AT_decl_column(0x06)
     338                    $C$DW$66        .dwtag  DW_TAG_formal_parameter
     339                            .dwattr $C$DW$66, DW_AT_type(*$C$DW$T$99)
     340                            .dwendtag $C$DW$65
     341                    
     342                    
     343                    $C$DW$67        .dwtag  DW_TAG_subprogram, DW_AT_name("kalmanFilter_2x4_Predict_S16_F32_getTestParams"
     344                            .dwattr $C$DW$67, DW_AT_TI_symbol_name("kalmanFilter_2x4_Predict_S16_F32_getTestParams")
     345                            .dwattr $C$DW$67, DW_AT_declaration
     346                            .dwattr $C$DW$67, DW_AT_external
     347                            .dwattr $C$DW$67, DW_AT_decl_file(".\..\packages\ti\vlib\src\VLIB_kalmanFilter_2x4_Predict_S16
     348                            .dwattr $C$DW$67, DW_AT_decl_line(0x2a)
     349                            .dwattr $C$DW$67, DW_AT_decl_column(0x06)
     350                    $C$DW$68        .dwtag  DW_TAG_formal_parameter
     351                            .dwattr $C$DW$68, DW_AT_type(*$C$DW$T$66)
     352                    $C$DW$69        .dwtag  DW_TAG_formal_parameter
     353                            .dwattr $C$DW$69, DW_AT_type(*$C$DW$T$108)
     354                            .dwendtag $C$DW$67
     355                    
     356                    $C$DW$70        .dwtag  DW_TAG_variable, DW_AT_name("test_cases")
     357                            .dwattr $C$DW$70, DW_AT_TI_symbol_name("test_cases")
     358                            .dwattr $C$DW$70, DW_AT_type(*$C$DW$T$29)
     359                            .dwattr $C$DW$70, DW_AT_declaration
     360                            .dwattr $C$DW$70, DW_AT_external
     361                            .dwattr $C$DW$70, DW_AT_decl_file(".\..\packages\ti\vlib\src\VLIB_kalmanFilter_2x4_Predict_S16
     362                            .dwattr $C$DW$70, DW_AT_decl_line(0x60)
     363                            .dwattr $C$DW$70, DW_AT_decl_column(0x13)
     364                    $C$DW$71        .dwtag  DW_TAG_variable, DW_AT_name("act_kernel")
     365                            .dwattr $C$DW$71, DW_AT_TI_symbol_name("act_kernel")
     366                            .dwattr $C$DW$71, DW_AT_type(*$C$DW$T$10)
     367                            .dwattr $C$DW$71, DW_AT_declaration
     368                            .dwattr $C$DW$71, DW_AT_external
     369                            .dwattr $C$DW$71, DW_AT_decl_file(".\..\packages\ti\vlib\src\VLIB_kalmanFilter_2x4_Predict_S16
     370                            .dwattr $C$DW$71, DW_AT_decl_line(0x62)
     371                            .dwattr $C$DW$71, DW_AT_decl_column(0x13)
     372                    $C$DW$72        .dwtag  DW_TAG_variable, DW_AT_name("desc")
     373                            .dwattr $C$DW$72, DW_AT_TI_symbol_name("desc")
     374                            .dwattr $C$DW$72, DW_AT_type(*$C$DW$T$182)
     375                            .dwattr $C$DW$72, DW_AT_declaration
     376                            .dwattr $C$DW$72, DW_AT_external
     377                            .dwattr $C$DW$72, DW_AT_decl_file(".\..\packages\ti\vlib\src\VLIB_kalmanFilter_2x4_Predict_S16
     378                            .dwattr $C$DW$72, DW_AT_decl_line(0x63)
     379                            .dwattr $C$DW$72, DW_AT_decl_column(0x13)
     380                    $C$DW$73        .dwtag  DW_TAG_variable, DW_AT_name("testPatternString")
     381                            .dwattr $C$DW$73, DW_AT_TI_symbol_name("testPatternString")
     382                            .dwattr $C$DW$73, DW_AT_type(*$C$DW$T$182)
     383                            .dwattr $C$DW$73, DW_AT_declaration
     384                            .dwattr $C$DW$73, DW_AT_external
     385                            .dwattr $C$DW$73, DW_AT_decl_file(".\..\packages\ti\vlib\src\VLIB_kalmanFilter_2x4_Predict_S16
TMS320C6x Assembler PC v7.4.2 Thu Mar 19 12:42:50 2015

Tools Copyright (c) 1996-2012 Texas Instruments Incorporated
package/lib/Regression/regress_d_c/./../packages/ti/vlib/src/VLIB_kalmanFilter_2x4_Predict_S16_F32/VLIB_kalmanFilter_2x4_Predict_S16_F32_d.se66 PAGE    8

     386                            .dwattr $C$DW$73, DW_AT_decl_line(0x64)
     387                            .dwattr $C$DW$73, DW_AT_decl_column(0x13)
     388                    $C$DW$74        .dwtag  DW_TAG_variable, DW_AT_name("est_test")
     389                            .dwattr $C$DW$74, DW_AT_TI_symbol_name("est_test")
     390                            .dwattr $C$DW$74, DW_AT_type(*$C$DW$T$10)
     391                            .dwattr $C$DW$74, DW_AT_declaration
     392                            .dwattr $C$DW$74, DW_AT_external
     393                            .dwattr $C$DW$74, DW_AT_decl_file(".\..\packages\ti\vlib\src\VLIB_kalmanFilter_2x4_Predict_S16
     394                            .dwattr $C$DW$74, DW_AT_decl_line(0x75)
     395                            .dwattr $C$DW$74, DW_AT_decl_column(0x14)
     396                    $C$DW$75        .dwtag  DW_TAG_variable, DW_AT_name("beg_count")
     397                            .dwattr $C$DW$75, DW_AT_TI_symbol_name("beg_count")
     398                            .dwattr $C$DW$75, DW_AT_type(*$C$DW$T$171)
     399                            .dwattr $C$DW$75, DW_AT_declaration
     400                            .dwattr $C$DW$75, DW_AT_external
     401                            .dwattr $C$DW$75, DW_AT_decl_file(".\..\packages\ti\vlib\src\VLIB_kalmanFilter_2x4_Predict_S16
     402                            .dwattr $C$DW$75, DW_AT_decl_line(0x76)
     403                            .dwattr $C$DW$75, DW_AT_decl_column(0x14)
     404                    $C$DW$76        .dwtag  DW_TAG_variable, DW_AT_name("end_count")
     405                            .dwattr $C$DW$76, DW_AT_TI_symbol_name("end_count")
     406                            .dwattr $C$DW$76, DW_AT_type(*$C$DW$T$171)
     407                            .dwattr $C$DW$76, DW_AT_declaration
     408                            .dwattr $C$DW$76, DW_AT_external
     409                            .dwattr $C$DW$76, DW_AT_decl_file(".\..\packages\ti\vlib\src\VLIB_kalmanFilter_2x4_Predict_S16
     410                            .dwattr $C$DW$76, DW_AT_decl_line(0x77)
     411                            .dwattr $C$DW$76, DW_AT_decl_column(0x14)
     412                    $C$DW$77        .dwtag  DW_TAG_variable, DW_AT_name("overhead")
     413                            .dwattr $C$DW$77, DW_AT_TI_symbol_name("overhead")
     414                            .dwattr $C$DW$77, DW_AT_type(*$C$DW$T$171)
     415                            .dwattr $C$DW$77, DW_AT_declaration
     416                            .dwattr $C$DW$77, DW_AT_external
     417                            .dwattr $C$DW$77, DW_AT_decl_file(".\..\packages\ti\vlib\src\VLIB_kalmanFilter_2x4_Predict_S16
     418                            .dwattr $C$DW$77, DW_AT_decl_line(0x78)
     419                            .dwattr $C$DW$77, DW_AT_decl_column(0x14)
     420                    $C$DW$78        .dwtag  DW_TAG_variable, DW_AT_name("cycles")
     421                            .dwattr $C$DW$78, DW_AT_TI_symbol_name("cycles")
     422                            .dwattr $C$DW$78, DW_AT_type(*$C$DW$T$172)
     423                            .dwattr $C$DW$78, DW_AT_declaration
     424                            .dwattr $C$DW$78, DW_AT_external
     425                            .dwattr $C$DW$78, DW_AT_decl_file(".\..\packages\ti\vlib\src\VLIB_kalmanFilter_2x4_Predict_S16
     426                            .dwattr $C$DW$78, DW_AT_decl_line(0x79)
     427                            .dwattr $C$DW$78, DW_AT_decl_column(0x14)
     428                    ;       C:\VLIB_Tools\CCSV5_4_0\ccsv5\tools\compiler\C6000\bin\opt6x.exe C:\\Users\\gtbldadm\\AppData\
     429 00000000                   .sect   ".text"
     430                            .clink
     431                            .global VLIB_kalmanFilter_2x4_Predict_S16_F32_d
     432                    
     433                    $C$DW$79        .dwtag  DW_TAG_subprogram, DW_AT_name("VLIB_kalmanFilter_2x4_Predict_S16_F32_d")
     434                            .dwattr $C$DW$79, DW_AT_low_pc(VLIB_kalmanFilter_2x4_Predict_S16_F32_d)
     435                            .dwattr $C$DW$79, DW_AT_high_pc(0x00)
     436                            .dwattr $C$DW$79, DW_AT_TI_symbol_name("VLIB_kalmanFilter_2x4_Predict_S16_F32_d")
     437                            .dwattr $C$DW$79, DW_AT_external
     438                            .dwattr $C$DW$79, DW_AT_TI_begin_file("./../packages/ti/vlib/src/VLIB_kalmanFilter_2x4_Predict
     439                            .dwattr $C$DW$79, DW_AT_TI_begin_line(0x28)
     440                            .dwattr $C$DW$79, DW_AT_TI_begin_column(0x06)
TMS320C6x Assembler PC v7.4.2 Thu Mar 19 12:42:50 2015

Tools Copyright (c) 1996-2012 Texas Instruments Incorporated
package/lib/Regression/regress_d_c/./../packages/ti/vlib/src/VLIB_kalmanFilter_2x4_Predict_S16_F32/VLIB_kalmanFilter_2x4_Predict_S16_F32_d.se66 PAGE    9

     441                            .dwattr $C$DW$79, DW_AT_decl_file("./../packages/ti/vlib/src/VLIB_kalmanFilter_2x4_Predict_S16
     442                            .dwattr $C$DW$79, DW_AT_decl_line(0x28)
     443                            .dwattr $C$DW$79, DW_AT_decl_column(0x06)
     444                            .dwattr $C$DW$79, DW_AT_TI_max_frame_size(0x78)
     445                            .dwpsn  file "./../packages/ti/vlib/src/VLIB_kalmanFilter_2x4_Predict_S16_F32/VLIB_kalmanFilte
     446                    
     447                            .dwfde $C$DW$CIE, VLIB_kalmanFilter_2x4_Predict_S16_F32_d
     448                    $C$DW$80        .dwtag  DW_TAG_formal_parameter, DW_AT_name("LevelOfFeedback")
     449                            .dwattr $C$DW$80, DW_AT_TI_symbol_name("LevelOfFeedback")
     450                            .dwattr $C$DW$80, DW_AT_type(*$C$DW$T$19)
     451                            .dwattr $C$DW$80, DW_AT_location[DW_OP_reg4]
     452                    ;----------------------------------------------------------------------
     453                    ;  40 | void VLIB_kalmanFilter_2x4_Predict_S16_F32_d (uint8_t LevelOfFeedback) 
     454                    ;----------------------------------------------------------------------
     455                    
     456                    ;******************************************************************************
     457                    ;* FUNCTION NAME: VLIB_kalmanFilter_2x4_Predict_S16_F32_d                     *
     458                    ;*                                                                            *
     459                    ;*   Regs Modified     : A0,A1,A2,A3,A4,A5,A6,A7,A8,A9,A10,A11,A12,A13,A14,   *
     460                    ;*                           A15,B0,B1,B2,B3,B4,B5,B6,B7,B8,B9,B10,B11,B12,   *
     461                    ;*                           B13,SP,A16,A17,A18,A19,A20,A21,A22,A23,A24,A25,  *
     462                    ;*                           A26,A27,A28,A29,A30,A31,B16,B17,B18,B19,B20,B21, *
     463                    ;*                           B22,B23,B24,B25,B26,B27,B28,B29,B30,B31          *
     464                    ;*   Regs Used         : A0,A1,A2,A3,A4,A5,A6,A7,A8,A9,A10,A11,A12,A13,A14,   *
     465                    ;*                           A15,B0,B1,B2,B3,B4,B5,B6,B7,B8,B9,B10,B11,B12,   *
     466                    ;*                           B13,DP,SP,A16,A17,A18,A19,A20,A21,A22,A23,A24,   *
     467                    ;*                           A25,A26,A27,A28,A29,A30,A31,B16,B17,B18,B19,B20, *
     468                    ;*                           B21,B22,B23,B24,B25,B26,B27,B28,B29,B30,B31      *
     469                    ;*   Local Frame Size  : 16 Args + 48 Auto + 56 Save = 120 byte               *
     470                    ;******************************************************************************
     471                    
     472                    ;******************************************************************************
     473                    ;*                                                                            *
     474                    ;* Using -g (debug) with optimization (-o3) may disable key optimizations!    *
     475                    ;*                                                                            *
     476                    ;******************************************************************************
     477 00000000           VLIB_kalmanFilter_2x4_Predict_S16_F32_d:
     478                    ;** --------------------------------------------------------------------------*
     479                    ;          EXCLUSIVE CPU CYCLES: 15
     480                    ;** 47  -----------------------    kalmanFilter_2x4_Predict_S16_F32_getTestParams(&prm, &test_cases);
     481                    ;** 50  -----------------------    VLIB_profile_init(2, "VLIB_kalmanFilter_2x4_Predict_S16_F32");
     482                    ;** 53  -----------------------    if ( test_cases <= 0 ) goto g18;
     483                            .dwcfi  cfa_offset, 0
     484                    ;----------------------------------------------------------------------
     485                    ;  42 | int32_t    tpi;  /* test parameter index */                            
     486                    ;  45 | kalmanFilter_2x4_Predict_S16_F32_testParams_t   *prm;                  
     487                    ;----------------------------------------------------------------------
     488 00000000     25f7             STW     .D2T1   A11,*SP--(8)      ; |41| 
     489                            .dwcfi  cfa_offset, 8
     490                            .dwcfi  save_reg_to_mem, 11, 0
     491 00000002     2577             STW     .D2T1   A10,*SP--(8)      ; |41| 
     492                            .dwcfi  cfa_offset, 16
     493                            .dwcfi  save_reg_to_mem, 10, -8
     494 00000004     9677             STDW    .D2T2   B13:B12,*SP--     ; |41| 
     495                            .dwcfi  cfa_offset, 24
TMS320C6x Assembler PC v7.4.2 Thu Mar 19 12:42:50 2015

Tools Copyright (c) 1996-2012 Texas Instruments Incorporated
package/lib/Regression/regress_d_c/./../packages/ti/vlib/src/VLIB_kalmanFilter_2x4_Predict_S16_F32/VLIB_kalmanFilter_2x4_Predict_S16_F32_d.se66 PAGE   10

     496                            .dwcfi  save_reg_to_mem, 29, -12
     497                            .dwcfi  save_reg_to_mem, 28, -16
     498 00000006     9577             STDW    .D2T2   B11:B10,*SP--     ; |41| 
     499                            .dwcfi  cfa_offset, 32
     500                            .dwcfi  save_reg_to_mem, 27, -20
     501                            .dwcfi  save_reg_to_mem, 26, -24
     502 00000008     8777             STDW    .D2T1   A15:A14,*SP--     ; |41| 
     503                            .dwcfi  cfa_offset, 40
     504                            .dwcfi  save_reg_to_mem, 15, -28
     505                            .dwcfi  save_reg_to_mem, 14, -32
     506 0000000a     8677             STDW    .D2T1   A13:A12,*SP--     ; |41| 
     507                            .dwcfi  cfa_offset, 48
     508                            .dwcfi  save_reg_to_mem, 13, -36
     509                            .dwcfi  save_reg_to_mem, 12, -40
     510 0000000c 01be54f6             STW     .D2T2   B3,*SP--(72)      ; |41| 
     511                            .dwcfi  cfa_offset, 120
     512                            .dwcfi  save_reg_to_mem, 19, 0
     513                    $C$DW$81        .dwtag  DW_TAG_variable, DW_AT_name("$O$C1")
     514                            .dwattr $C$DW$81, DW_AT_TI_symbol_name("$O$C1")
     515                            .dwattr $C$DW$81, DW_AT_type(*$C$DW$T$8)
     516                            .dwattr $C$DW$81, DW_AT_location[DW_OP_regx 0x27]
     517                    $C$DW$82        .dwtag  DW_TAG_variable, DW_AT_name("$O$C2")
     518                            .dwattr $C$DW$82, DW_AT_TI_symbol_name("$O$C2")
     519                            .dwattr $C$DW$82, DW_AT_type(*$C$DW$T$8)
     520                            .dwattr $C$DW$82, DW_AT_location[DW_OP_regx 0x38]
     521                    $C$DW$83        .dwtag  DW_TAG_variable, DW_AT_name("$O$C3")
     522                            .dwattr $C$DW$83, DW_AT_TI_symbol_name("$O$C3")
     523                            .dwattr $C$DW$83, DW_AT_type(*$C$DW$T$8)
     524                            .dwattr $C$DW$83, DW_AT_location[DW_OP_reg3]
     525                    $C$DW$84        .dwtag  DW_TAG_variable, DW_AT_name("$O$C4")
     526                            .dwattr $C$DW$84, DW_AT_TI_symbol_name("$O$C4")
     527                            .dwattr $C$DW$84, DW_AT_type(*$C$DW$T$8)
     528                            .dwattr $C$DW$84, DW_AT_location[DW_OP_regx 0x39]
     529                    $C$DW$85        .dwtag  DW_TAG_variable, DW_AT_name("$O$C5")
     530                            .dwattr $C$DW$85, DW_AT_TI_symbol_name("$O$C5")
     531                            .dwattr $C$DW$85, DW_AT_type(*$C$DW$T$176)
     532                            .dwattr $C$DW$85, DW_AT_location[DW_OP_reg0]
     533                    $C$DW$86        .dwtag  DW_TAG_variable, DW_AT_name("$O$C6")
     534                            .dwattr $C$DW$86, DW_AT_TI_symbol_name("$O$C6")
     535                            .dwattr $C$DW$86, DW_AT_type(*$C$DW$T$10)
     536                            .dwattr $C$DW$86, DW_AT_location[DW_OP_reg8]
     537                    $C$DW$87        .dwtag  DW_TAG_variable, DW_AT_name("$O$C7")
     538                            .dwattr $C$DW$87, DW_AT_TI_symbol_name("$O$C7")
     539                            .dwattr $C$DW$87, DW_AT_type(*$C$DW$T$10)
     540                            .dwattr $C$DW$87, DW_AT_location[DW_OP_reg3]
     541                    $C$DW$88        .dwtag  DW_TAG_variable, DW_AT_name("$O$C8")
     542                            .dwattr $C$DW$88, DW_AT_TI_symbol_name("$O$C8")
     543                            .dwattr $C$DW$88, DW_AT_type(*$C$DW$T$176)
     544                            .dwattr $C$DW$88, DW_AT_location[DW_OP_reg6]
     545                    $C$DW$89        .dwtag  DW_TAG_variable, DW_AT_name("$O$C9")
     546                            .dwattr $C$DW$89, DW_AT_TI_symbol_name("$O$C9")
     547                            .dwattr $C$DW$89, DW_AT_type(*$C$DW$T$176)
     548                            .dwattr $C$DW$89, DW_AT_location[DW_OP_regx 0x42]
     549                    $C$DW$90        .dwtag  DW_TAG_variable, DW_AT_name("$O$C10")
     550                            .dwattr $C$DW$90, DW_AT_TI_symbol_name("$O$C10")
TMS320C6x Assembler PC v7.4.2 Thu Mar 19 12:42:50 2015

Tools Copyright (c) 1996-2012 Texas Instruments Incorporated
package/lib/Regression/regress_d_c/./../packages/ti/vlib/src/VLIB_kalmanFilter_2x4_Predict_S16_F32/VLIB_kalmanFilter_2x4_Predict_S16_F32_d.se66 PAGE   11

     551                            .dwattr $C$DW$90, DW_AT_type(*$C$DW$T$176)
     552                            .dwattr $C$DW$90, DW_AT_location[DW_OP_reg24]
     553                    $C$DW$91        .dwtag  DW_TAG_variable, DW_AT_name("$O$C11")
     554                            .dwattr $C$DW$91, DW_AT_TI_symbol_name("$O$C11")
     555                            .dwattr $C$DW$91, DW_AT_type(*$C$DW$T$176)
     556                            .dwattr $C$DW$91, DW_AT_location[DW_OP_reg5]
     557                    $C$DW$92        .dwtag  DW_TAG_variable, DW_AT_name("$O$C12")
     558                            .dwattr $C$DW$92, DW_AT_TI_symbol_name("$O$C12")
     559                            .dwattr $C$DW$92, DW_AT_type(*$C$DW$T$9)
     560                            .dwattr $C$DW$92, DW_AT_location[DW_OP_reg3]
     561                    $C$DW$93        .dwtag  DW_TAG_variable, DW_AT_name("$O$U15")
     562                            .dwattr $C$DW$93, DW_AT_TI_symbol_name("$O$U15")
     563                            .dwattr $C$DW$93, DW_AT_type(*$C$DW$T$62)
     564                            .dwattr $C$DW$93, DW_AT_location[DW_OP_reg11]
     565                    $C$DW$94        .dwtag  DW_TAG_variable, DW_AT_name("$O$K23")
     566                            .dwattr $C$DW$94, DW_AT_TI_symbol_name("$O$K23")
     567                            .dwattr $C$DW$94, DW_AT_type(*$C$DW$T$11)
     568                            .dwattr $C$DW$94, DW_AT_location[DW_OP_reg20]
     569                    $C$DW$95        .dwtag  DW_TAG_variable, DW_AT_name("$O$K41")
     570                            .dwattr $C$DW$95, DW_AT_TI_symbol_name("$O$K41")
     571                            .dwattr $C$DW$95, DW_AT_type(*$C$DW$T$112)
     572                            .dwattr $C$DW$95, DW_AT_location[DW_OP_reg12]
     573                    $C$DW$96        .dwtag  DW_TAG_variable, DW_AT_name("$O$K50")
     574                            .dwattr $C$DW$96, DW_AT_TI_symbol_name("$O$K50")
     575                            .dwattr $C$DW$96, DW_AT_type(*$C$DW$T$16)
     576                            .dwattr $C$DW$96, DW_AT_location[DW_OP_reg9]
     577                    $C$DW$97        .dwtag  DW_TAG_variable, DW_AT_name("$O$K57")
     578                            .dwattr $C$DW$97, DW_AT_TI_symbol_name("$O$K57")
     579                            .dwattr $C$DW$97, DW_AT_type(*$C$DW$T$16)
     580                            .dwattr $C$DW$97, DW_AT_location[DW_OP_reg4]
     581                    $C$DW$98        .dwtag  DW_TAG_variable, DW_AT_name("$O$K101")
     582                            .dwattr $C$DW$98, DW_AT_TI_symbol_name("$O$K101")
     583                            .dwattr $C$DW$98, DW_AT_type(*$C$DW$T$16)
     584                            .dwattr $C$DW$98, DW_AT_location[DW_OP_regx 0x41]
     585                    $C$DW$99        .dwtag  DW_TAG_variable, DW_AT_name("$O$K122")
     586                            .dwattr $C$DW$99, DW_AT_TI_symbol_name("$O$K122")
     587                            .dwattr $C$DW$99, DW_AT_type(*$C$DW$T$16)
     588                            .dwattr $C$DW$99, DW_AT_location[DW_OP_regx 0x33]
     589                    $C$DW$100       .dwtag  DW_TAG_variable, DW_AT_name("$O$K129")
     590                            .dwattr $C$DW$100, DW_AT_TI_symbol_name("$O$K129")
     591                            .dwattr $C$DW$100, DW_AT_type(*$C$DW$T$16)
     592                            .dwattr $C$DW$100, DW_AT_location[DW_OP_reg20]
     593                    $C$DW$101       .dwtag  DW_TAG_variable, DW_AT_name("$O$K166")
     594                            .dwattr $C$DW$101, DW_AT_TI_symbol_name("$O$K166")
     595                            .dwattr $C$DW$101, DW_AT_type(*$C$DW$T$10)
     596                            .dwattr $C$DW$101, DW_AT_location[DW_OP_reg8]
     597                    $C$DW$102       .dwtag  DW_TAG_variable, DW_AT_name("$O$K177")
     598                            .dwattr $C$DW$102, DW_AT_TI_symbol_name("$O$K177")
     599                            .dwattr $C$DW$102, DW_AT_type(*$C$DW$T$10)
     600                            .dwattr $C$DW$102, DW_AT_location[DW_OP_reg20]
     601                    $C$DW$103       .dwtag  DW_TAG_variable, DW_AT_name("$O$K200")
     602                            .dwattr $C$DW$103, DW_AT_TI_symbol_name("$O$K200")
     603                            .dwattr $C$DW$103, DW_AT_type(*$C$DW$T$170)
     604                            .dwattr $C$DW$103, DW_AT_location[DW_OP_reg3]
     605                    $C$DW$104       .dwtag  DW_TAG_variable, DW_AT_name("$O$K128")
TMS320C6x Assembler PC v7.4.2 Thu Mar 19 12:42:50 2015

Tools Copyright (c) 1996-2012 Texas Instruments Incorporated
package/lib/Regression/regress_d_c/./../packages/ti/vlib/src/VLIB_kalmanFilter_2x4_Predict_S16_F32/VLIB_kalmanFilter_2x4_Predict_S16_F32_d.se66 PAGE   12

     606                            .dwattr $C$DW$104, DW_AT_TI_symbol_name("$O$K128")
     607                            .dwattr $C$DW$104, DW_AT_type(*$C$DW$T$16)
     608                            .dwattr $C$DW$104, DW_AT_location[DW_OP_reg4]
     609                    $C$DW$105       .dwtag  DW_TAG_variable, DW_AT_name("$O$U208")
     610                            .dwattr $C$DW$105, DW_AT_TI_symbol_name("$O$U208")
     611                            .dwattr $C$DW$105, DW_AT_type(*$C$DW$T$176)
     612                            .dwattr $C$DW$105, DW_AT_location[DW_OP_reg12]
     613                    $C$DW$106       .dwtag  DW_TAG_variable, DW_AT_name("$O$U168")
     614                            .dwattr $C$DW$106, DW_AT_TI_symbol_name("$O$U168")
     615                            .dwattr $C$DW$106, DW_AT_type(*$C$DW$T$125)
     616                            .dwattr $C$DW$106, DW_AT_location[DW_OP_breg31 24]
     617                    $C$DW$107       .dwtag  DW_TAG_variable, DW_AT_name("$O$U170")
     618                            .dwattr $C$DW$107, DW_AT_TI_symbol_name("$O$U170")
     619                            .dwattr $C$DW$107, DW_AT_type(*$C$DW$T$125)
     620                            .dwattr $C$DW$107, DW_AT_location[DW_OP_breg31 28]
     621                    $C$DW$108       .dwtag  DW_TAG_variable, DW_AT_name("$O$U173")
     622                            .dwattr $C$DW$108, DW_AT_TI_symbol_name("$O$U173")
     623                            .dwattr $C$DW$108, DW_AT_type(*$C$DW$T$125)
     624                            .dwattr $C$DW$108, DW_AT_location[DW_OP_breg31 32]
     625                    $C$DW$109       .dwtag  DW_TAG_variable, DW_AT_name("$O$U175")
     626                            .dwattr $C$DW$109, DW_AT_TI_symbol_name("$O$U175")
     627                            .dwattr $C$DW$109, DW_AT_type(*$C$DW$T$125)
     628                            .dwattr $C$DW$109, DW_AT_location[DW_OP_reg15]
     629                    $C$DW$110       .dwtag  DW_TAG_variable, DW_AT_name("$O$U14")
     630                            .dwattr $C$DW$110, DW_AT_TI_symbol_name("$O$U14")
     631                            .dwattr $C$DW$110, DW_AT_type(*$C$DW$T$10)
     632                            .dwattr $C$DW$110, DW_AT_location[DW_OP_reg28]
     633                    $C$DW$111       .dwtag  DW_TAG_variable, DW_AT_name("$O$U238")
     634                            .dwattr $C$DW$111, DW_AT_TI_symbol_name("$O$U238")
     635                            .dwattr $C$DW$111, DW_AT_type(*$C$DW$T$176)
     636                            .dwattr $C$DW$111, DW_AT_location[DW_OP_reg16]
     637                    $C$DW$112       .dwtag  DW_TAG_variable, DW_AT_name("$O$U179")
     638                            .dwattr $C$DW$112, DW_AT_TI_symbol_name("$O$U179")
     639                            .dwattr $C$DW$112, DW_AT_type(*$C$DW$T$125)
     640                            .dwattr $C$DW$112, DW_AT_location[DW_OP_breg31 36]
     641                    $C$DW$113       .dwtag  DW_TAG_variable, DW_AT_name("$O$U181")
     642                            .dwattr $C$DW$113, DW_AT_TI_symbol_name("$O$U181")
     643                            .dwattr $C$DW$113, DW_AT_type(*$C$DW$T$125)
     644                            .dwattr $C$DW$113, DW_AT_location[DW_OP_reg14]
     645                    $C$DW$114       .dwtag  DW_TAG_variable, DW_AT_name("$O$U184")
     646                            .dwattr $C$DW$114, DW_AT_TI_symbol_name("$O$U184")
     647                            .dwattr $C$DW$114, DW_AT_type(*$C$DW$T$125)
     648                            .dwattr $C$DW$114, DW_AT_location[DW_OP_reg13]
     649                    $C$DW$115       .dwtag  DW_TAG_variable, DW_AT_name("$O$U186")
     650                            .dwattr $C$DW$115, DW_AT_TI_symbol_name("$O$U186")
     651                            .dwattr $C$DW$115, DW_AT_type(*$C$DW$T$125)
     652                            .dwattr $C$DW$115, DW_AT_location[DW_OP_reg29]
     653                    $C$DW$116       .dwtag  DW_TAG_variable, DW_AT_name("$O$U236")
     654                            .dwattr $C$DW$116, DW_AT_TI_symbol_name("$O$U236")
     655                            .dwattr $C$DW$116, DW_AT_type(*$C$DW$T$62)
     656                            .dwattr $C$DW$116, DW_AT_location[DW_OP_reg24]
     657                    $C$DW$117       .dwtag  DW_TAG_variable, DW_AT_name("$O$K279")
     658                            .dwattr $C$DW$117, DW_AT_TI_symbol_name("$O$K279")
     659                            .dwattr $C$DW$117, DW_AT_type(*$C$DW$T$112)
     660                            .dwattr $C$DW$117, DW_AT_location[DW_OP_reg8]
TMS320C6x Assembler PC v7.4.2 Thu Mar 19 12:42:50 2015

Tools Copyright (c) 1996-2012 Texas Instruments Incorporated
package/lib/Regression/regress_d_c/./../packages/ti/vlib/src/VLIB_kalmanFilter_2x4_Predict_S16_F32/VLIB_kalmanFilter_2x4_Predict_S16_F32_d.se66 PAGE   13

     661                    $C$DW$118       .dwtag  DW_TAG_variable, DW_AT_name("i")
     662                            .dwattr $C$DW$118, DW_AT_TI_symbol_name("i")
     663                            .dwattr $C$DW$118, DW_AT_type(*$C$DW$T$29)
     664                            .dwattr $C$DW$118, DW_AT_location[DW_OP_reg26]
     665                    $C$DW$119       .dwtag  DW_TAG_variable, DW_AT_name("KF_cn")
     666                            .dwattr $C$DW$119, DW_AT_TI_symbol_name("KF_cn")
     667                            .dwattr $C$DW$119, DW_AT_type(*$C$DW$T$99)
     668                            .dwattr $C$DW$119, DW_AT_location[DW_OP_breg31 40]
     669                    $C$DW$120       .dwtag  DW_TAG_variable, DW_AT_name("KF")
     670                            .dwattr $C$DW$120, DW_AT_TI_symbol_name("KF")
     671                            .dwattr $C$DW$120, DW_AT_type(*$C$DW$T$99)
     672                            .dwattr $C$DW$120, DW_AT_location[DW_OP_breg31 44]
     673                    $C$DW$121       .dwtag  DW_TAG_variable, DW_AT_name("Residual_cn")
     674                            .dwattr $C$DW$121, DW_AT_TI_symbol_name("Residual_cn")
     675                            .dwattr $C$DW$121, DW_AT_type(*$C$DW$T$21)
     676                            .dwattr $C$DW$121, DW_AT_location[DW_OP_breg31 48]
     677                    $C$DW$122       .dwtag  DW_TAG_variable, DW_AT_name("Residual")
     678                            .dwattr $C$DW$122, DW_AT_TI_symbol_name("Residual")
     679                            .dwattr $C$DW$122, DW_AT_type(*$C$DW$T$21)
     680                            .dwattr $C$DW$122, DW_AT_location[DW_OP_breg31 52]
     681                    $C$DW$123       .dwtag  DW_TAG_variable, DW_AT_name("Z_buffer")
     682                            .dwattr $C$DW$123, DW_AT_TI_symbol_name("Z_buffer")
     683                            .dwattr $C$DW$123, DW_AT_type(*$C$DW$T$21)
     684                            .dwattr $C$DW$123, DW_AT_location[DW_OP_breg31 56]
     685                    $C$DW$124       .dwtag  DW_TAG_variable, DW_AT_name("Z")
     686                            .dwattr $C$DW$124, DW_AT_TI_symbol_name("Z")
     687                            .dwattr $C$DW$124, DW_AT_type(*$C$DW$T$126)
     688                            .dwattr $C$DW$124, DW_AT_location[DW_OP_breg31 60]
     689                    $C$DW$125       .dwtag  DW_TAG_variable, DW_AT_name("status_nat_vs_ref")
     690                            .dwattr $C$DW$125, DW_AT_TI_symbol_name("status_nat_vs_ref")
     691                            .dwattr $C$DW$125, DW_AT_type(*$C$DW$T$29)
     692                            .dwattr $C$DW$125, DW_AT_location[DW_OP_reg10]
     693                    $C$DW$126       .dwtag  DW_TAG_variable, DW_AT_name("status_nat_vs_int")
     694                            .dwattr $C$DW$126, DW_AT_TI_symbol_name("status_nat_vs_int")
     695                            .dwattr $C$DW$126, DW_AT_type(*$C$DW$T$29)
     696                            .dwattr $C$DW$126, DW_AT_location[DW_OP_reg27]
     697                    $C$DW$127       .dwtag  DW_TAG_variable, DW_AT_name("prm")
     698                            .dwattr $C$DW$127, DW_AT_TI_symbol_name("prm")
     699                            .dwattr $C$DW$127, DW_AT_type(*$C$DW$T$65)
     700                            .dwattr $C$DW$127, DW_AT_location[DW_OP_breg31 20]
     701                    $C$DW$128       .dwtag  DW_TAG_variable, DW_AT_name("tpi")
     702                            .dwattr $C$DW$128, DW_AT_TI_symbol_name("tpi")
     703                            .dwattr $C$DW$128, DW_AT_type(*$C$DW$T$29)
     704                            .dwattr $C$DW$128, DW_AT_location[DW_OP_breg31 64]
     705                    $C$DW$129       .dwtag  DW_TAG_variable, DW_AT_name("$O$v1")
     706                            .dwattr $C$DW$129, DW_AT_TI_symbol_name("$O$v1")
     707                            .dwattr $C$DW$129, DW_AT_type(*$C$DW$T$65)
     708                            .dwattr $C$DW$129, DW_AT_location[DW_OP_regx 0x37]
     709                    $C$DW$130       .dwtag  DW_TAG_variable, DW_AT_name("$O$v2")
     710                            .dwattr $C$DW$130, DW_AT_TI_symbol_name("$O$v2")
     711                            .dwattr $C$DW$130, DW_AT_type(*$C$DW$T$171)
     712                            .dwattr $C$DW$130, DW_AT_location[DW_OP_reg22]
     713                    $C$DW$131       .dwtag  DW_TAG_variable, DW_AT_name("$O$v2")
     714                            .dwattr $C$DW$131, DW_AT_TI_symbol_name("$O$v2")
     715                            .dwattr $C$DW$131, DW_AT_type(*$C$DW$T$171)
TMS320C6x Assembler PC v7.4.2 Thu Mar 19 12:42:50 2015

Tools Copyright (c) 1996-2012 Texas Instruments Incorporated
package/lib/Regression/regress_d_c/./../packages/ti/vlib/src/VLIB_kalmanFilter_2x4_Predict_S16_F32/VLIB_kalmanFilter_2x4_Predict_S16_F32_d.se66 PAGE   14

     716                            .dwattr $C$DW$131, DW_AT_location[DW_OP_reg20]
     717 00000010 0200002a!            MVKL    .S2     test_cases,B4
     718 00000014 0200006a!            MVKH    .S2     test_cases,B4
     719                    $C$DW$132       .dwtag  DW_TAG_TI_branch
     720                            .dwattr $C$DW$132, DW_AT_low_pc(0x00)
     721                            .dwattr $C$DW$132, DW_AT_name("kalmanFilter_2x4_Predict_S16_F32_getTestParams")
     722                            .dwattr $C$DW$132, DW_AT_TI_call
     723                    
     724 00000018 10000013!            CALLP   .S2     kalmanFilter_2x4_Predict_S16_F32_getTestParams,B3
     725 00000020 120005fc  ||         ADDAW   .D1X    SP,5,A4           ; |47| 
     726                    
     727                            .dwpsn  file "./../packages/ti/vlib/src/VLIB_kalmanFilter_2x4_Predict_S16_F32/VLIB_kalmanFilte
     728                    ;----------------------------------------------------------------------
     729                    ;  47 | kalmanFilter_2x4_Predict_S16_F32_getTestParams(&prm, &test_cases);     
     730                    ;----------------------------------------------------------------------
     731 00000024           $C$RL0:    ; CALL OCCURS {kalmanFilter_2x4_Predict_S16_F32_getTestParams} {0}  ; |47| 
     732                    ;** --------------------------------------------------------------------------*
     733                    ;          EXCLUSIVE CPU CYCLES: 8
     734 00000024 0200002a!            MVKL    .S2     $C$SL1+0,B4
     735 00000028 0200006a!            MVKH    .S2     $C$SL1+0,B4
     736                    $C$DW$133       .dwtag  DW_TAG_TI_branch
     737                            .dwattr $C$DW$133, DW_AT_low_pc(0x00)
     738                            .dwattr $C$DW$133, DW_AT_name("VLIB_profile_init")
     739                            .dwattr $C$DW$133, DW_AT_TI_call
     740                    
     741 0000002c 10000013!            CALLP   .S2     VLIB_profile_init,B3
     742 00000030 0208a358  ||         MVK     .L1     0x2,A4            ; |50| 
     743                    
     744                            .dwpsn  file "./../packages/ti/vlib/src/VLIB_kalmanFilter_2x4_Predict_S16_F32/VLIB_kalmanFilte
     745                    ;----------------------------------------------------------------------
     746                    ;  50 | VLIB_profile_init(2, "VLIB_kalmanFilter_2x4_Predict_S16_F32");         
     747                    ;----------------------------------------------------------------------
     748 00000034           $C$RL1:    ; CALL OCCURS {VLIB_profile_init} {0}  ; |50| 
     749                    ;** --------------------------------------------------------------------------*
     750                    ;          EXCLUSIVE CPU CYCLES: 14
     751 00000034 01800028!            MVKL    .S1     test_cases,A3
     752 00000038 01800068!            MVKH    .S1     test_cases,A3
     753                            .dwpsn  file "./../packages/ti/vlib/src/VLIB_kalmanFilter_2x4_Predict_S16_F32/VLIB_kalmanFilte
     754                    ;----------------------------------------------------------------------
     755                    ;  53 | for( tpi=0; tpi < test_cases; tpi++ ) {                                
     756                    ;----------------------------------------------------------------------
     757 0000003c 018c0264             LDW     .D1T1   *A3,A3            ; |53| 
     758 00000040 03bca2e4             LDW     .D2T1   *+SP(20),A7
     759                            .dwpsn  file "./../packages/ti/vlib/src/VLIB_kalmanFilter_2x4_Predict_S16_F32/VLIB_kalmanFilte
     760                    ;----------------------------------------------------------------------
     761                    ;  56 | int32_t    status_nat_vs_int = vlib_KERNEL_PASS; /* Test status : Natur
     762                    ;     | al c vs. Optimized */                                                  
     763                    ;  57 | int32_t    status_nat_vs_ref = vlib_KERNEL_PASS; /* Test status : Natur
     764                    ;     | al c vs. Static Reference */                                           
     765                    ;----------------------------------------------------------------------
     766 00000044 0600a35a             ZERO    .L2     B12               ; |53| 
     767 00000048     2c6e             NOP             2
     768                            .dwpsn  file "./../packages/ti/vlib/src/VLIB_kalmanFilter_2x4_Predict_S16_F32/VLIB_kalmanFilte
     769 0000004a     11a6             CMPGT   .L1     A3,0,A0           ; |53| 
     770 0000004c d3d26120     [!A0]   BNOP    .S1     $C$L6,3           ; |53| 
TMS320C6x Assembler PC v7.4.2 Thu Mar 19 12:42:50 2015

Tools Copyright (c) 1996-2012 Texas Instruments Incorporated
package/lib/Regression/regress_d_c/./../packages/ti/vlib/src/VLIB_kalmanFilter_2x4_Predict_S16_F32/VLIB_kalmanFilter_2x4_Predict_S16_F32_d.se66 PAGE   15

     771                            .dwpsn  file "./../packages/ti/vlib/src/VLIB_kalmanFilter_2x4_Predict_S16_F32/VLIB_kalmanFilte
     772 00000050     05a6             ZERO    .L1     A3                ; |53| 
     773                    
     774 00000052     8e35             STW     .D2T1   A3,*+SP(64)
     775 00000054 059e09c0  ||         SUB     .D1     A7,16,A11
     776                    
     777                            .dwpsn  file "./../packages/ti/vlib/src/VLIB_kalmanFilter_2x4_Predict_S16_F32/VLIB_kalmanFilte
     778                               ; BRANCHCC OCCURS {$C$L6}         ; |53| 
     779                    ;** --------------------------------------------------------------------------*
     780                    ;**     -----------------------    K$23 = 552u;
     781                    ;**     -----------------------    K$41 = &testPatternString[0];
     782                    ;**     -----------------------    K$50 = 1000.0F;
     783                    ;**     -----------------------    K$57 = 1.0F;
     784                    ;**     -----------------------    K$101 = 2500.0F;
     785                    ;**     -----------------------    K$122 = 0.333F;
     786                    ;**     -----------------------    K$129 = K$128 = 0.5F;
     787                    ;**     -----------------------    K$166 = 190;
     788                    ;**     -----------------------    K$177 = 0;
     789                    ;**     -----------------------    K$279 = &desc[0];
     790                    ;**     -----------------------    U$15 = prm-16;
     791                    ;**     -----------------------    U$14 = 0;
     792                    ;** 53  -----------------------    tpi = 0;
     793                    ;**     -----------------------    #pragma LOOP_FLAGS(5120u)
     794                    ;** --------------------------------------------------------------------------*
     795                    ;**   BEGIN LOOP $C$L1
     796                    ;** --------------------------------------------------------------------------*
     797 00000058           $C$L1:    
     798                            .dwpsn  file "./../packages/ti/vlib/src/VLIB_kalmanFilter_2x4_Predict_S16_F32/VLIB_kalmanFilte
     799 00000058           $C$DW$L$VLIB_kalmanFilter_2x4_Predict_S16_F32_d$5$B:
     800                    ;          EXCLUSIVE CPU CYCLES: 6
     801                    ;**     -----------------------g3:
     802                    ;** 60  -----------------------    Z = VLIB_memalign(8u, 4u);
     803                    ;** 61  -----------------------    Z_buffer = memalign(8u, (unsigned)((int)(*(U$15 += 16)).numMeasurem
     804                    ;** 62  -----------------------    Residual = VLIB_memalign(8u, 8u);
     805                    ;** 63  -----------------------    Residual_cn = memalign(8u, 8u);
     806                    ;** 64  -----------------------    KF = (struct lib_kalmanFilter_2x4_S16_F32 *)VLIB_memalign(8u, K$23)
     807                    ;** 65  -----------------------    KF_cn = (struct lib_kalmanFilter_2x4_S16_F32 *)memalign(8u, K$23);
     808                    ;** 68  -----------------------    if ( !((Z != NULL)&(Z_buffer != NULL)&(Residual != NULL)&(Residual_
     809                            .dwpsn  file "./../packages/ti/vlib/src/VLIB_kalmanFilter_2x4_Predict_S16_F32/VLIB_kalmanFilte
     810                    ;----------------------------------------------------------------------
     811                    ;  60 | int16_t                         *Z           = (int16_t *) VLIB_memalig
     812                    ;     | n(8, 2 * sizeof(int16_t));                                             
     813                    ;----------------------------------------------------------------------
     814                    $C$DW$134       .dwtag  DW_TAG_TI_branch
     815                            .dwattr $C$DW$134, DW_AT_low_pc(0x00)
     816                            .dwattr $C$DW$134, DW_AT_name("VLIB_memalign")
     817                            .dwattr $C$DW$134, DW_AT_TI_call
     818 00000058 00000010!            CALL    .S1     VLIB_memalign     ; |60| 
     819 00000060 01826162             ADDKPC  .S2     $C$RL2,B3,3       ; |60| 
     820                    
     821 00000064     0e26             MVK     .L1     0x8,A4            ; |60| 
     822 00000066     8627  ||         MVK     .L2     0x4,B4            ; |60| 
     823                    
     824 00000068           $C$RL2:    ; CALL OCCURS {VLIB_memalign} {0}  ; |60| 
     825 00000068           $C$DW$L$VLIB_kalmanFilter_2x4_Predict_S16_F32_d$5$E:
TMS320C6x Assembler PC v7.4.2 Thu Mar 19 12:42:50 2015

Tools Copyright (c) 1996-2012 Texas Instruments Incorporated
package/lib/Regression/regress_d_c/./../packages/ti/vlib/src/VLIB_kalmanFilter_2x4_Predict_S16_F32/VLIB_kalmanFilter_2x4_Predict_S16_F32_d.se66 PAGE   16

     826                    ;** --------------------------------------------------------------------------*
     827 00000068           $C$DW$L$VLIB_kalmanFilter_2x4_Predict_S16_F32_d$6$B:
     828                    ;          EXCLUSIVE CPU CYCLES: 44
     829                            .dwpsn  file "./../packages/ti/vlib/src/VLIB_kalmanFilter_2x4_Predict_S16_F32/VLIB_kalmanFilte
     830                    ;----------------------------------------------------------------------
     831                    ;  61 | VLIB_F32                        *Z_buffer    = (VLIB_F32 *) memalign(8,
     832                    ;     |  prm[tpi].numMeasurements * 2 * sizeof(VLIB_F32));                     
     833                    ;----------------------------------------------------------------------
     834 00000068 05800850             ADDK    .S1     16,A11            ; |61| 
     835 0000006c 01acc204             LDHU    .D1T1   *+A11(12),A3      ; |61| 
     836                            .dwpsn  file "./../packages/ti/vlib/src/VLIB_kalmanFilter_2x4_Predict_S16_F32/VLIB_kalmanFilte
     837 00000070     edc5             STW     .D2T1   A4,*+SP(60)       ; |60| 
     838                            .dwpsn  file "./../packages/ti/vlib/src/VLIB_kalmanFilter_2x4_Predict_S16_F32/VLIB_kalmanFilte
     839 00000072     0e26             MVK     .L1     0x8,A4            ; |61| 
     840 00000074     2c6e             NOP             2
     841 00000076     6582             SHL     .S1     A3,3,A3           ; |61| 
     842 00000078     0c6e             NOP             1
     843                    $C$DW$135       .dwtag  DW_TAG_TI_branch
     844                            .dwattr $C$DW$135, DW_AT_low_pc(0x00)
     845                            .dwattr $C$DW$135, DW_AT_name("memalign")
     846                            .dwattr $C$DW$135, DW_AT_TI_call
     847                    
     848 00000080 10000012!            CALLP   .S2     memalign,B3
     849 0000007a     91c7  ||         MV      .L2X    A3,B4             ; |61| 
     850                    
     851 00000084           $C$RL3:    ; CALL OCCURS {memalign} {0}      ; |61| 
     852                    
     853 00000084     cdc5             STW     .D2T1   A4,*+SP(56)       ; |61| 
     854 00000086     0e26  ||         MVK     .L1     0x8,A4            ; |62| 
     855                    
     856 00000088     0c6e             NOP             1
     857                    $C$DW$136       .dwtag  DW_TAG_TI_branch
     858                            .dwattr $C$DW$136, DW_AT_low_pc(0x00)
     859                            .dwattr $C$DW$136, DW_AT_name("VLIB_memalign")
     860                            .dwattr $C$DW$136, DW_AT_TI_call
     861                    
     862 0000008c 10000012!            CALLP   .S2     VLIB_memalign,B3
     863 0000008a     9247  ||         MV      .L2X    A4,B4             ; |62| 
     864                    
     865                            .dwpsn  file "./../packages/ti/vlib/src/VLIB_kalmanFilter_2x4_Predict_S16_F32/VLIB_kalmanFilte
     866                    ;----------------------------------------------------------------------
     867                    ;  62 | VLIB_F32                        *Residual    = (VLIB_F32 *) VLIB_memali
     868                    ;     | gn(8, 2 * sizeof(VLIB_F32));                                           
     869                    ;----------------------------------------------------------------------
     870 00000090           $C$RL4:    ; CALL OCCURS {VLIB_memalign} {0}  ; |62| 
     871                    
     872 00000090     adc5             STW     .D2T1   A4,*+SP(52)       ; |62| 
     873 00000092     0e26  ||         MVK     .L1     0x8,A4            ; |63| 
     874                    
     875 00000094     0c6e             NOP             1
     876                    $C$DW$137       .dwtag  DW_TAG_TI_branch
     877                            .dwattr $C$DW$137, DW_AT_low_pc(0x00)
     878                            .dwattr $C$DW$137, DW_AT_name("memalign")
     879                            .dwattr $C$DW$137, DW_AT_TI_call
     880                    
TMS320C6x Assembler PC v7.4.2 Thu Mar 19 12:42:50 2015

Tools Copyright (c) 1996-2012 Texas Instruments Incorporated
package/lib/Regression/regress_d_c/./../packages/ti/vlib/src/VLIB_kalmanFilter_2x4_Predict_S16_F32/VLIB_kalmanFilter_2x4_Predict_S16_F32_d.se66 PAGE   17

     881 00000098 10000012!            CALLP   .S2     memalign,B3
     882 00000096     9247  ||         MV      .L2X    A4,B4             ; |63| 
     883                    
     884                            .dwpsn  file "./../packages/ti/vlib/src/VLIB_kalmanFilter_2x4_Predict_S16_F32/VLIB_kalmanFilte
     885                    ;----------------------------------------------------------------------
     886                    ;  63 | VLIB_F32                        *Residual_cn = (VLIB_F32 *) memalign(8,
     887                    ;     |  2 * sizeof(VLIB_F32));                                                
     888                    ;----------------------------------------------------------------------
     889 000000a0           $C$RL5:    ; CALL OCCURS {memalign} {0}      ; |63| 
     890 000000a0 0201142a             MVK     .S2     0x228,B4
     891                    $C$DW$138       .dwtag  DW_TAG_TI_branch
     892                            .dwattr $C$DW$138, DW_AT_low_pc(0x00)
     893                            .dwattr $C$DW$138, DW_AT_name("VLIB_memalign")
     894                            .dwattr $C$DW$138, DW_AT_TI_call
     895                    
     896 000000a4 10000013!            CALLP   .S2     VLIB_memalign,B3
     897 000000a8     8dc5  ||         STW     .D2T1   A4,*+SP(48)       ; |63| 
     898 000000aa     0e26  ||         MVK     .L1     0x8,A4            ; |64| 
     899                    
     900                            .dwpsn  file "./../packages/ti/vlib/src/VLIB_kalmanFilter_2x4_Predict_S16_F32/VLIB_kalmanFilte
     901                    ;----------------------------------------------------------------------
     902                    ;  64 | VLIB_kalmanFilter_2x4_S16_F32   *KF          = (VLIB_kalmanFilter_2x4_S
     903                    ;     | 16_F32 *) VLIB_memalign(8, sizeof(VLIB_kalmanFilter_2x4_S16_F32));     
     904                    ;----------------------------------------------------------------------
     905 000000ac           $C$RL6:    ; CALL OCCURS {VLIB_memalign} {0}  ; |64| 
     906 000000ac 0201142a             MVK     .S2     0x228,B4
     907                    $C$DW$139       .dwtag  DW_TAG_TI_branch
     908                            .dwattr $C$DW$139, DW_AT_low_pc(0x00)
     909                            .dwattr $C$DW$139, DW_AT_name("memalign")
     910                            .dwattr $C$DW$139, DW_AT_TI_call
     911                    
     912 000000b0 10000013!            CALLP   .S2     memalign,B3
     913 000000b4     ed45  ||         STW     .D2T1   A4,*+SP(44)       ; |64| 
     914 000000b6     0e26  ||         MVK     .L1     0x8,A4            ; |65| 
     915                    
     916                            .dwpsn  file "./../packages/ti/vlib/src/VLIB_kalmanFilter_2x4_Predict_S16_F32/VLIB_kalmanFilte
     917                    ;----------------------------------------------------------------------
     918                    ;  65 | VLIB_kalmanFilter_2x4_S16_F32   *KF_cn       = (VLIB_kalmanFilter_2x4_S
     919                    ;     | 16_F32 *) memalign(8, sizeof(VLIB_kalmanFilter_2x4_S16_F32));          
     920                    ;----------------------------------------------------------------------
     921 000000c0           $C$RL7:    ; CALL OCCURS {memalign} {0}      ; |65| 
     922 000000c0           $C$DW$L$VLIB_kalmanFilter_2x4_Predict_S16_F32_d$6$E:
     923                    ;** --------------------------------------------------------------------------*
     924 000000c0           $C$DW$L$VLIB_kalmanFilter_2x4_Predict_S16_F32_d$7$B:
     925                    ;          EXCLUSIVE CPU CYCLES: 21
     926                    
     927 000000c0     ed8d             LDW     .D2T1   *+SP(60),A0       ; |68| 
     928 000000c2     0627  ||         ZERO    .L2     B4                ; |68| 
     929 000000c4     0293  ||         ZERO    .S2     B5                ; |68| 
     930 000000c6     05a6  ||         ZERO    .L1     A3                ; |68| 
     931                    
     932                            .dwpsn  file "./../packages/ti/vlib/src/VLIB_kalmanFilter_2x4_Predict_S16_F32/VLIB_kalmanFilte
     933                    ;----------------------------------------------------------------------
     934                    ;  68 | if( Z && Z_buffer && Residual && Residual_cn && KF && KF_cn ) {        
     935                    ;----------------------------------------------------------------------
TMS320C6x Assembler PC v7.4.2 Thu Mar 19 12:42:50 2015

Tools Copyright (c) 1996-2012 Texas Instruments Incorporated
package/lib/Regression/regress_d_c/./../packages/ti/vlib/src/VLIB_kalmanFilter_2x4_Predict_S16_F32/VLIB_kalmanFilter_2x4_Predict_S16_F32_d.se66 PAGE   18

     936 000000c8     dd8d             LDW     .D2T2   *+SP(56),B0       ; |68| 
     937 000000ca     8dad             LDW     .D2T1   *+SP(48),A2       ; |68| 
     938 000000cc     ad9d             LDW     .D2T1   *+SP(52),A1       ; |68| 
     939                            .dwpsn  file "./../packages/ti/vlib/src/VLIB_kalmanFilter_2x4_Predict_S16_F32/VLIB_kalmanFilte
     940 000000ce     cd45             STW     .D2T1   A4,*+SP(40)       ; |65| 
     941                    
     942 000000d0     2ae7     [ A0]   MVK     .L2     0x1,B5            ; |68| 
     943 000000d2     ed0d  ||         LDW     .D2T1   *+SP(44),A0       ; |68| 
     944                    
     945                            .dwpsn  file "./../packages/ti/vlib/src/VLIB_kalmanFilter_2x4_Predict_S16_F32/VLIB_kalmanFilte
     946                    ;----------------------------------------------------------------------
     947                    ;  70 | int32_t    fail, i, index;                                             
     948                    ;----------------------------------------------------------------------
     949 000000d4     aa67     [ B0]   MVK     .L2     0x1,B4            ; |68| 
     950                    
     951 000000d8 02948f7a             AND     .L2     B4,B5,B5          ; |68| 
     952 000000d6     0213  ||         ZERO    .S2     B4                ; |68| 
     953                    
     954 000000e0 a204a35b     [ A2]   MVK     .L2     0x1,B4            ; |68| 
     955 000000e8     cd2d  ||         LDW     .D2T1   *+SP(40),A2       ; |68| 
     956 000000e4 8184a359  || [ A1]   MVK     .L1     0x1,A3            ; |68| 
     957                    
     958 000000ea     0626             ZERO    .L1     A4                ; |68| 
     959                    
     960 000000f0 0180a358             ZERO    .L1     A3                ; |68| 
     961 000000ec 028cbf7b  ||         AND     .L2X    A3,B5,B5          ; |68| 
     962                    
     963 000000f4 02148f7a             AND     .L2     B4,B5,B4          ; |68| 
     964 000000f8 c204a358     [ A0]   MVK     .L1     0x1,A4            ; |68| 
     965                    
     966 00000100 a184a359     [ A2]   MVK     .L1     0x1,A3            ; |68| 
     967 00000104 021097e0  ||         AND     .S1X    A4,B4,A4          ; |68| 
     968                    
     969 00000108 00106f78             AND     .L1     A3,A4,A0          ; |68| 
     970                    
     971 0000010c d000cd13     [!A0]   B       .S2     $C$L4             ; |68| 
     972 00000110 c1acc205  || [ A0]   LDHU    .D1T1   *+A11(12),A3      ; |73| 
     973 00000114 c404a35b  || [ A0]   MVK     .L2     0x1,B8            ; |73| 
     974 00000118 d2000028! || [!A0]   MVKL    .S1     desc,A4
     975                    
     976 0000011c d200002b!    [!A0]   MVKL    .S2     $C$SL3+0,B4
     977 00000120 c22c0215  || [ A0]   LDBU    .D1T1   *A11,A4           ; |73| 
     978 00000124 c6000028! || [ A0]   MVKL    .S1     testPatternString,A12
     979                    
     980                            .dwpsn  file "./../packages/ti/vlib/src/VLIB_kalmanFilter_2x4_Predict_S16_F32/VLIB_kalmanFilte
     981                    ;----------------------------------------------------------------------
     982                    ;  73 | VLIB_fillBuffer(prm[tpi].testPattern,                                  
     983                    ;  74 |                 (VLIB_F32)1,                                           
     984                    ;  75 |                 Z_buffer, prm[tpi].staticIn,                           
     985                    ;  76 |                 prm[tpi].numMeasurements * 2, 1, prm[tpi].numMeasuremen
     986                    ;     | ts * 2 * sizeof(VLIB_F32),                                             
     987                    ;  77 |                 sizeof(VLIB_F32), testPatternString);                  
     988                    ;  79 | memset(KF, 0, sizeof(VLIB_kalmanFilter_2x4_S16_F32));                  
     989                    ;  80 | memset(KF_cn, 0, sizeof(VLIB_kalmanFilter_2x4_S16_F32));               
     990                    ;  83 | for( i=0; i < sD_2x4; i++ ) {                                          
TMS320C6x Assembler PC v7.4.2 Thu Mar 19 12:42:50 2015

Tools Copyright (c) 1996-2012 Texas Instruments Incorporated
package/lib/Regression/regress_d_c/./../packages/ti/vlib/src/VLIB_kalmanFilter_2x4_Predict_S16_F32/VLIB_kalmanFilter_2x4_Predict_S16_F32_d.se66 PAGE   19

     991                    ;  84 |     index = i * sD_2x4 + i;                                            
     992                    ;  85 |     KF->errorCov[index]   = KF_cn->errorCov[index]   = 1000;           
     993                    ;  86 |     KF->transition[index] = KF_cn->transition[index] = 1;              
     994                    ;  87 |     if( i < mD_2x4 ) {                                                 
     995                    ;  88 |         KF->measurement[index] = KF_cn->measurement[index] = 1;        
     996                    ;  92 | KF->measurementNoiseCov[0] = KF_cn->measurementNoiseCov[0] = 2500;     
     997                    ;  93 | KF->measurementNoiseCov[3] = KF_cn->measurementNoiseCov[3] = 2500;     
     998                    ;  95 | KF->transition[2] = KF_cn->transition[2] = 1;                          
     999                    ;  96 | KF->transition[7] = KF_cn->transition[7] = 1;                          
    1000                    ;  98 | KF->processNoiseCov[0]  = KF_cn->processNoiseCov[0]  = 0.333;          
    1001                    ;  99 | KF->processNoiseCov[1]  = KF_cn->processNoiseCov[1]  = 0.50;           
    1002                    ; 100 | KF->processNoiseCov[4]  = KF_cn->processNoiseCov[4]  = 0.50;           
    1003                    ; 101 | KF->processNoiseCov[5]  = KF_cn->processNoiseCov[5]  = 1.0;            
    1004                    ; 102 | KF->processNoiseCov[10] = KF_cn->processNoiseCov[10] = 0.333;          
    1005                    ; 103 | KF->processNoiseCov[11] = KF_cn->processNoiseCov[11] = 0.50;           
    1006                    ; 104 | KF->processNoiseCov[14] = KF_cn->processNoiseCov[14] = 0.50;           
    1007                    ; 105 | KF->processNoiseCov[15] = KF_cn->processNoiseCov[15] = 1.0;            
    1008                    ; 108 | KF->state[0] = KF_cn->state[0] = 190;                                  
    1009                    ; 109 | KF->state[1] = KF_cn->state[1] = 190;                                  
    1010                    ; 110 | KF->state[2] = KF_cn->state[2] = 0;                                    
    1011                    ; 111 | KF->state[3] = KF_cn->state[3] = 0;                                    
    1012                    ; 113 | for( i=0; i < prm[tpi].numMeasurements; i++ ) {                        
    1013                    ; 115 |     int    j;                                                          
    1014                    ; 118 |     VLIB_profile_start(vlib_KERNEL_OPT);                               
    1015                    ; 119 |     VLIB_kalmanFilter_2x4_Predict_S16_F32(KF);                         
    1016                    ; 120 |     VLIB_profile_stop();                                               
    1017                    ; 123 |     VLIB_profile_start(vlib_KERNEL_CN);                                
    1018                    ; 124 |     VLIB_kalmanFilter_2x4_Predict_S16_F32_cn(KF_cn);                   
    1019                    ; 125 |     VLIB_profile_stop();                                               
    1020                    ; 128 |     Z[0] = Z_buffer[i * 2 + 0] + 0.5; // Round to nearest int          
    1021                    ; 129 |     Z[1] = Z_buffer[i * 2 + 1] + 0.5; // Round to nearest int          
    1022                    ; 131 |     VLIB_kalmanFilter_2x4_Correct_S16_F32_cn(KF, Z, Residual); // The n
    1023                    ;     | atC version is used so that the code size doesn't get counted          
    1024                    ; 132 |     VLIB_kalmanFilter_2x4_Correct_S16_F32_cn(KF_cn, Z, Residual_cn);   
    1025                    ; 134 |     for( j=0; j < 4; j++ ) {                                           
    1026                    ; 137 |         if( KF->state[j] != KF_cn->state[j] ) {                        
    1027                    ; 138 |             status_nat_vs_int = vlib_KERNEL_FAIL;                      
    1028                    ; 142 |         if( prm[tpi].staticOut != NULL ) {                             
    1029                    ; 143 |             // Since in/out is integer, and comparing to F32, there wil
    1030                    ;     | l be rounding error.  Error is contained within 3.                     
    1031                    ; 144 |             if( fabs(KF_cn->state[j] - prm[tpi].staticOut[(i * 4) + j])
    1032                    ;     |  > 3 ) {                                                               
    1033                    ; 145 |                 status_nat_vs_ref = vlib_KERNEL_FAIL;                  
    1034                    ; 152 | fail = ((status_nat_vs_int == vlib_KERNEL_FAIL) || (status_nat_vs_ref =
    1035                    ;     | = vlib_KERNEL_FAIL)) ? 1 : 0;                                          
    1036                    ; 154 | est_test=1;                                                            
    1037                    ; 157 | sprintf(desc, "%s generated input | Opt results compared to NatC result
    1038                    ;     | s | num_measurements=%d",                                              
    1039                    ; 158 |         testPatternString, prm[tpi].numMeasurements);                  
    1040                    ; 159 | VLIB_formula_add_test(prm[tpi].numMeasurements, NULL, NULL, fail, desc,
    1041                    ;     |  NULL);                                                                
    1042                    ; 161 | } else {                                                               
    1043                    ;----------------------------------------------------------------------
    1044 00000128 c32c2266     [ A0]   LDW     .D1T2   *+A11(4),B6       ; |73| 
    1045                    $C$DW$140       .dwtag  DW_TAG_TI_branch
TMS320C6x Assembler PC v7.4.2 Thu Mar 19 12:42:50 2015

Tools Copyright (c) 1996-2012 Texas Instruments Incorporated
package/lib/Regression/regress_d_c/./../packages/ti/vlib/src/VLIB_kalmanFilter_2x4_Predict_S16_F32/VLIB_kalmanFilter_2x4_Predict_S16_F32_d.se66 PAGE   20

    1046                            .dwattr $C$DW$140, DW_AT_low_pc(0x00)
    1047                            .dwattr $C$DW$140, DW_AT_name("VLIB_fillBuffer")
    1048                            .dwattr $C$DW$140, DW_AT_TI_call
    1049                    
    1050 0000012c c0000011!    [ A0]   CALL    .S1     VLIB_fillBuffer   ; |73| 
    1051 00000130 d1acc204  || [!A0]   LDHU    .D1T1   *+A11(12),A3      ; |163| 
    1052                    
    1053                            .dwpsn  file "./../packages/ti/vlib/src/VLIB_kalmanFilter_2x4_Predict_S16_F32/VLIB_kalmanFilte
    1054                    ;----------------------------------------------------------------------
    1055                    ; 163 | sprintf(desc, "num_measurements=%d",                                   
    1056                    ; 164 |         prm[tpi].numMeasurements);                                     
    1057                    ; 165 | VLIB_skip_test(desc);                                                  
    1058                    ;----------------------------------------------------------------------
    1059                    $C$DW$141       .dwtag  DW_TAG_TI_branch
    1060                            .dwattr $C$DW$141, DW_AT_low_pc(0x00)
    1061                            .dwattr $C$DW$141, DW_AT_name("sprintf")
    1062                            .dwattr $C$DW$141, DW_AT_TI_call
    1063 00000134 d0000010!    [!A0]   CALL    .S1     sprintf           ; |163| 
    1064 00000138 d200006a!    [!A0]   MVKH    .S2     $C$SL3+0,B4
    1065                            .dwpsn  file "./../packages/ti/vlib/src/VLIB_kalmanFilter_2x4_Predict_S16_F32/VLIB_kalmanFilte
    1066                               ; BRANCHCC OCCURS {$C$L4}         ; |68| 
    1067 0000013c           $C$DW$L$VLIB_kalmanFilter_2x4_Predict_S16_F32_d$7$E:
    1068                    ;** --------------------------------------------------------------------------*
    1069 0000013c           $C$DW$L$VLIB_kalmanFilter_2x4_Predict_S16_F32_d$8$B:
    1070                    ;          EXCLUSIVE CPU CYCLES: 3
    1071                    ;** 73  -----------------------    C$12 = (*U$15).numMeasurements;
    1072                    ;** 73  -----------------------    VLIB_fillBuffer((*U$15).testPattern, 1u, (void *)Z_buffer, (*U$15).
    1073                    ;** 79  -----------------------    memset((void *)KF, 0, K$23);
    1074                    ;** 80  -----------------------    memset((void *)KF_cn, 0, K$23);
    1075                    ;** 85  -----------------------    *((float *)KF_cn+64) = K$50;
    1076                    ;** 85  -----------------------    *((float *)KF+64) = K$50;
    1077                    ;** 86  -----------------------    *(float *)KF_cn = K$57;
    1078                    ;** 86  -----------------------    *(float *)KF = K$57;
    1079                    ;** 88  -----------------------    C$9 = (float *)KF_cn+216;
    1080                    ;** 88  -----------------------    *C$9 = K$57;
    1081                    ;** 88  -----------------------    C$8 = (float *)KF+216;
    1082                    ;** 88  -----------------------    *C$8 = K$57;
    1083                    ;** 85  -----------------------    *((float *)KF_cn+84) = K$50;
    1084                    ;** 85  -----------------------    *((float *)KF+84) = K$50;
    1085                    ;** 86  -----------------------    *((float *)KF_cn+20) = K$57;
    1086                    ;** 86  -----------------------    *((float *)KF+20) = K$57;
    1087                    ;** 88  -----------------------    C$9[5] = K$57;
    1088                    ;** 88  -----------------------    C$8[5] = K$57;
    1089                    ;** 85  -----------------------    *((float *)KF_cn+104) = K$50;
    1090                    ;** 85  -----------------------    *((float *)KF+104) = K$50;
    1091                    ;** 86  -----------------------    *((float *)KF_cn+40) = K$57;
    1092                    ;** 86  -----------------------    *((float *)KF+40) = K$57;
    1093                    ;** 85  -----------------------    C$11 = (float *)KF_cn+124;
    1094                    ;** 85  -----------------------    *C$11 = K$50;
    1095                    ;** 85  -----------------------    C$10 = (float *)KF+124;
    1096                    ;** 85  -----------------------    *C$10 = K$50;
    1097                    ;** 86  -----------------------    *((float *)KF_cn+60) = K$57;
    1098                    ;** 86  -----------------------    *((float *)KF+60) = K$57;
    1099                    ;** 92  -----------------------    C$9[24] = K$101;
    1100                    ;** 92  -----------------------    C$8[24] = K$101;
TMS320C6x Assembler PC v7.4.2 Thu Mar 19 12:42:50 2015

Tools Copyright (c) 1996-2012 Texas Instruments Incorporated
package/lib/Regression/regress_d_c/./../packages/ti/vlib/src/VLIB_kalmanFilter_2x4_Predict_S16_F32/VLIB_kalmanFilter_2x4_Predict_S16_F32_d.se66 PAGE   21

    1101                    ;** 93  -----------------------    C$9[27] = K$101;
    1102                    ;** 93  -----------------------    C$8[27] = K$101;
    1103                    ;** 95  -----------------------    *((float *)KF_cn+8) = K$57;
    1104                    ;** 95  -----------------------    *((float *)KF+8) = K$57;
    1105                    ;** 96  -----------------------    *((float *)KF_cn+28) = K$57;
    1106                    ;** 96  -----------------------    *((float *)KF+28) = K$57;
    1107                    ;** 98  -----------------------    C$11[31] = K$122;
    1108                    ;** 98  -----------------------    C$10[31] = K$122;
    1109                    ;** 99  -----------------------    C$9[9] = K$129;
    1110                    ;** 99  -----------------------    C$8[9] = K$129;
    1111                    ;** 100 -----------------------    C$9[12] = K$129;
    1112                    ;** 100 -----------------------    C$8[12] = K$129;
    1113                    ;** 101 -----------------------    C$9[13] = K$57;
    1114                    ;** 101 -----------------------    C$8[13] = K$57;
    1115                    ;** 102 -----------------------    C$9[18] = K$122;
    1116                    ;** 102 -----------------------    C$8[18] = K$122;
    1117                    ;** 103 -----------------------    C$9[19] = K$129;
    1118                    ;** 103 -----------------------    C$8[19] = K$129;
    1119                    ;** 104 -----------------------    C$9[22] = K$129;
    1120                    ;** 104 -----------------------    C$8[22] = K$129;
    1121                    ;** 105 -----------------------    C$9[23] = K$57;
    1122                    ;** 105 -----------------------    C$8[23] = K$57;
    1123                    ;** 108 -----------------------    U$168 = (short *)KF_cn+192;
    1124                    ;** 108 -----------------------    *U$168 = K$166;
    1125                    ;** 108 -----------------------    U$170 = (short *)KF+192;
    1126                    ;** 108 -----------------------    *U$170 = K$166;
    1127                    ;** 109 -----------------------    U$173 = (short *)KF_cn+194;
    1128                    ;** 109 -----------------------    *U$173 = K$166;
    1129                    ;** 109 -----------------------    U$175 = (short *)KF+194;
    1130                    ;** 109 -----------------------    *U$175 = K$166;
    1131                    ;** 110 -----------------------    U$179 = (short *)KF_cn+196;
    1132                    ;** 110 -----------------------    *U$179 = K$177;
    1133                    ;** 110 -----------------------    U$181 = (short *)KF+196;
    1134                    ;** 110 -----------------------    *U$181 = K$177;
    1135                    ;** 111 -----------------------    U$184 = (short *)KF_cn+198;
    1136                    ;** 111 -----------------------    *U$184 = K$177;
    1137                    ;** 111 -----------------------    U$186 = (short *)KF+198;
    1138                    ;** 111 -----------------------    *U$186 = K$177;
    1139                    ;** 113 -----------------------    v$1 = prm;
    1140                    ;** 56  -----------------------    status_nat_vs_int = 1;
    1141                    ;** 57  -----------------------    status_nat_vs_ref = 1;
    1142                    ;** 113 -----------------------    if ( !(*U$15).numMeasurements ) goto g15;
    1143                            .dwpsn  file "./../packages/ti/vlib/src/VLIB_kalmanFilter_2x4_Predict_S16_F32/VLIB_kalmanFilte
    1144 0000013c 050e7008             EXTU    .S1     A3,19,16,A10      ; |73| 
    1145 00000140 040e3008             EXTU    .S1     A3,17,16,A8       ; |73| 
    1146                    
    1147 00000144 06000069!            MVKH    .S1     testPatternString,A12
    1148 00000148 0510a35b  ||         MVK     .L2     0x4,B10           ; |73| 
    1149 0000014c 03001fd9  ||         MV      .L1X    B0,A6             ; |73| 
    1150 00000150 022008f3  ||         MV      .D2     B8,B4             ; |73| 
    1151 00000154 01880163  ||         ADDKPC  .S2     $C$RL8,B3,0       ; |73| 
    1152                    
    1153                    $C$RL8:    ; CALL OCCURS {VLIB_fillBuffer} {0}  ; |73| 
    1154                    $C$DW$L$VLIB_kalmanFilter_2x4_Predict_S16_F32_d$8$E:
    1155                    ;** --------------------------------------------------------------------------*
TMS320C6x Assembler PC v7.4.2 Thu Mar 19 12:42:50 2015

Tools Copyright (c) 1996-2012 Texas Instruments Incorporated
package/lib/Regression/regress_d_c/./../packages/ti/vlib/src/VLIB_kalmanFilter_2x4_Predict_S16_F32/VLIB_kalmanFilter_2x4_Predict_S16_F32_d.se66 PAGE   22

    1156                    $C$DW$L$VLIB_kalmanFilter_2x4_Predict_S16_F32_d$9$B:
    1157                    ;          EXCLUSIVE CPU CYCLES: 12
    1158                    $C$DW$142       .dwtag  DW_TAG_TI_branch
    1159                            .dwattr $C$DW$142, DW_AT_low_pc(0x00)
    1160                            .dwattr $C$DW$142, DW_AT_name("memset")
    1161                            .dwattr $C$DW$142, DW_AT_TI_call
    1162                    
    1163 00000160 10000013!            CALLP   .S2     memset,B3
    1164 00000164 023d62e5  ||         LDW     .D2T1   *+SP(44),A4       ; |79| 
    1165 00000168 0200a35b  ||         ZERO    .L2     B4                ; |79| 
    1166 0000016c 03011428  ||         MVK     .S1     0x228,A6
    1167                    
    1168                            .dwpsn  file "./../packages/ti/vlib/src/VLIB_kalmanFilter_2x4_Predict_S16_F32/VLIB_kalmanFilte
    1169                    $C$RL9:    ; CALL OCCURS {memset} {0}        ; |79| 
    1170                    $C$DW$143       .dwtag  DW_TAG_TI_branch
    1171                            .dwattr $C$DW$143, DW_AT_low_pc(0x00)
    1172                            .dwattr $C$DW$143, DW_AT_name("memset")
    1173                            .dwattr $C$DW$143, DW_AT_TI_call
    1174                    
    1175 00000170 10000013!            CALLP   .S2     memset,B3
    1176 00000174 023d42e5  ||         LDW     .D2T1   *+SP(40),A4       ; |80| 
    1177 00000178 0200a35b  ||         ZERO    .L2     B4                ; |80| 
    1178 0000017c 03011428  ||         MVK     .S1     0x228,A6
    1179                    
    1180                            .dwpsn  file "./../packages/ti/vlib/src/VLIB_kalmanFilter_2x4_Predict_S16_F32/VLIB_kalmanFilte
    1181 00000180           $C$RL10:   ; CALL OCCURS {memset} {0}        ; |80| 
    1182 00000180           $C$DW$L$VLIB_kalmanFilter_2x4_Predict_S16_F32_d$9$E:
    1183                    ;** --------------------------------------------------------------------------*
    1184 00000180           $C$DW$L$VLIB_kalmanFilter_2x4_Predict_S16_F32_d$10$B:
    1185                    ;          EXCLUSIVE CPU CYCLES: 60
    1186                    
    1187 00000180     fd5d             LDW     .D2T2   *+SP(44),B5       ; |80| 
    1188 00000188 0e805f29  ||         MVK     .S1     0xbe,A29
    1189 00000184 0c80a359  ||         ZERO    .L1     A25
    1190 00000182     4753  ||         MVK     .S2     194,B6            ; |109| 
    1191 00000190     1876  ||         ZERO    .D1     A0
    1192 0000018c 0d80a35b  ||         ZERO    .L2     B27
    1193                    
    1194 00000194 0c3d62e5             LDW     .D2T1   *+SP(44),A24
    1195 00000192     8e86  ||         MV      .L1     A29,A4            ; |99| 
    1196 00000198 04005f29  ||         MVK     .S1     0xbe,A8
    1197 000001a0 04800041  ||         ZERO    .D1     A9
    1198 000001a4 0c80a35b  ||         ZERO    .L2     B25
    1199 000001a8 0e20002a  ||         MVKL    .S2     0x451c4000,B28
    1200                    
    1201 000001ac 03bd42e7             LDW     .D2T2   *+SP(40),B7
    1202 000001b0 0f3f7d29  ||         MVKL    .S1     0x3eaa7efa,A30
    1203 000001b4 0d200fd9  ||         MV      .L1     A8,A26            ; |109| 
    1204 000001b8 05002041  ||         MVK     .D1     0x1,A10           ; |57| 
    1205 000001bc 0e228e6b  ||         MVKH    .S2     0x451c4000,B28
    1206 000001c0 0d00a35a  ||         ZERO    .L2     B26
    1207                    
    1208 000001c4 0dbd62e5             LDW     .D2T1   *+SP(44),A27
    1209 000001c8 0f1f5569  ||         MVKH    .S1     0x3eaa7efa,A30
    1210 000001cc 002cc206  ||         LDHU    .D1T2   *+A11(12),B0      ; |113| 
TMS320C6x Assembler PC v7.4.2 Thu Mar 19 12:42:50 2015

Tools Copyright (c) 1996-2012 Texas Instruments Incorporated
package/lib/Regression/regress_d_c/./../packages/ti/vlib/src/VLIB_kalmanFilter_2x4_Predict_S16_F32/VLIB_kalmanFilter_2x4_Predict_S16_F32_d.se66 PAGE   23

    1211                    
    1212 000001d8     ed2d             LDW     .D2T1   *+SP(44),A2
    1213 000001d4 04a23d69  ||         MVKH    .S1     0x447a0000,A9
    1214 000001d0 05a81fdb  ||         MV      .L2X    A10,B11           ; |57| 
    1215                    
    1216 000001e0 0f971ec2             ADDAD   .D2     B5,24,B31         ; |108| 
    1217 000001da     fec6  ||         MV      .L1X    B5,A31            ; |85| 
    1218                    
    1219 000001e4 0fbce2f7             STW     .D2T2   B31,*+SP(28)      ; |98| 
    1220 000001e8 037f7ec0  ||         ADDAD   .D1     A31,27,A6         ; |88| 
    1221                    
    1222 000001ec 0f3ce2e7             LDW     .D2T2   *+SP(28),B30
    1223 000001f0     9fc6  ||         MV      .L1X    B7,A28
    1224                    
    1225 000001f4 0fbd62e5             LDW     .D2T1   *+SP(44),A31
    1226 000001f2     73c6  ||         MV      .L1X    B7,A3
    1227 000001f8 0e1b6276  ||         STW     .D1T2   B28,*+A6(108)     ; |93| 
    1228                    
    1229 00000200 028ffd41             ADDAW   .D1     A3,31,A5          ; |85| 
    1230 00000204 019b9079  ||         ADD     .L1X    B6,A28,A3         ; |109| 
    1231 00000208 0417fd42  ||         ADDAW   .D2     B5,31,B8          ; |85| 
    1232                    
    1233 0000020c 079b7079             ADD     .L1X    B6,A27,A15        ; |109| 
    1234 00000214     ed1d  ||         LDW     .D2T1   *+SP(44),A17
    1235 00000210 0e1b0277  ||         STW     .D1T2   B28,*+A6(96)      ; |92| 
    1236                    
    1237 00000216     ed3d             LDW     .D2T1   *+SP(44),A19
    1238 00000218     f386  ||         MV      .L1X    B7,A23            ; |96| 
    1239                    
    1240 00000228 027802d4             STH     .D2T1   A4,*B30           ; |108| 
    1241 00000220 0266fd89  ||         SET     .S1     A25,0x17,0x1d,A4
    1242 00000224 0f00a35b  ||         ZERO    .L2     B30
    1243 0000021a     5386  ||         MV      .L1X    B7,A18            ; |86| 
    1244                    
    1245 0000022c 0260e275             STW     .D1T1   A4,*+A24(28)      ; |96| 
    1246 00000230 021f1ec3  ||         ADDAD   .D2     B7,24,B4          ; |108| 
    1247 00000234     ca46  ||         MV      .L1     A4,A22            ; |96| 
    1248 00000236     1bce  ||         MV      .S1X    B7,A16            ; |86| 
    1249                    
    1250 00000238 0c3d42e5             LDW     .D2T1   *+SP(40),A24
    1251 00000240     9bc6  ||         MV      .L1X    B7,A20            ; |95| 
    1252                    
    1253 00000244 0cbd62e4             LDW     .D2T1   *+SP(44),A25
    1254 00000242     33c6  ||         MV      .L1X    B7,A1             ; |85| 
    1255                    
    1256 00000248 0abd62e5             LDW     .D2T1   *+SP(44),A21
    1257 0000024c 039b9078  ||         ADD     .L1X    B6,A28,A7         ; |109| 
    1258                    
    1259 00000250     dcc5             STW     .D2T2   B4,*+SP(24)       ; |108| 
    1260 00000258 027b1d8a  ||         SET     .S2     B30,0x18,0x1d,B4
    1261 00000254 0f17e275  ||         STW     .D1T1   A30,*+A5(124)     ; |98| 
    1262 00000252     7fc6  ||         MV      .L1X    B7,A27            ; |85| 
    1263                    
    1264 00000260 0f23e2f5             STW     .D2T1   A30,*+B8(124)     ; |98| 
    1265 00000264     dfc6  ||         MV      .L1X    B7,A30            ; |86| 
TMS320C6x Assembler PC v7.4.2 Thu Mar 19 12:42:50 2015

Tools Copyright (c) 1996-2012 Texas Instruments Incorporated
package/lib/Regression/regress_d_c/./../packages/ti/vlib/src/VLIB_kalmanFilter_2x4_Predict_S16_F32/VLIB_kalmanFilter_2x4_Predict_S16_F32_d.se66 PAGE   24

    1266 00000266     3944  ||         STW     .D1T2   B4,*+A6(36)       ; |99| 
    1267                    
    1268 00000268 0182fd89             SET     .S1     A0,0x17,0x1d,A3
    1269 0000026c     8d35  ||         STW     .D2T1   A3,*+SP(32)       ; |108| 
    1270 0000026e     9944  ||         STW     .D1T2   B4,*+A6(48)       ; |100| 
    1271                    
    1272 00000270 0e9f7ec3             ADDAD   .D2     B7,27,B29         ; |88| 
    1273 00000274 0d3c0255  ||         STH     .D1T1   A26,*A15          ; |109| 
    1274 00000278 0d00a358  ||         ZERO    .L1     A26
    1275                    
    1276 00000280 027522f7             STW     .D2T2   B4,*+B29(36)      ; |99| 
    1277 00000284 025ce275  ||         STW     .D1T1   A4,*+A23(28)      ; |96| 
    1278 00000288 0200a359  ||         ZERO    .L1     A4
    1279 0000028c 0b800028  ||         ZERO    .S1     A23
    1280                    
    1281 00000290 027582f7             STW     .D2T2   B4,*+B29(48)      ; |100| 
    1282 00000294 026f1d8b  ||         SET     .S2     B27,0x18,0x1d,B4
    1283 00000298 0ba23d69  ||         MVKH    .S1     0x447a0000,A23
    1284 0000029c 01fca274  ||         STW     .D1T1   A3,*+A31(20)      ; |86| 
    1285                    
    1286 000002a0 01eafd89             SET     .S1     A26,0x17,0x1d,A3
    1287 000002a4 02bcc2e7  ||         LDW     .D2T2   *+SP(24),B5
    1288 000002a8 01f8a274  ||         STW     .D1T1   A3,*+A30(20)      ; |86| 
    1289                    
    1290 000002ac 01e00275             STW     .D1T1   A3,*A24           ; |86| 
    1291 000002b0 0e7762f6  ||         STW     .D2T2   B28,*+B29(108)    ; |93| 
    1292                    
    1293 000002b4 0192fd89             SET     .S1     A4,0x17,0x1d,A3
    1294 000002b8 01e40275  ||         STW     .D1T1   A3,*A25           ; |86| 
    1295 000002bc 0e7702f6  ||         STW     .D2T2   B28,*+B29(96)     ; |92| 
    1296                    
    1297 000002c0 0b49e275             STW     .D1T1   A22,*+A18(60)     ; |86| 
    1298 000002c4 0900a359  ||         ZERO    .L1     A18
    1299 000002c8 093ca2e6  ||         LDW     .D2T2   *+SP(20),B18      ; |113| 
    1300                    
    1301                            .dwpsn  file "./../packages/ti/vlib/src/VLIB_kalmanFilter_2x4_Predict_S16_F32/VLIB_kalmanFilte
    1302 000002cc 048b4274             STW     .D1T1   A9,*+A2(104)      ; |85| 
    1303 000002d0     cd2d             LDW     .D2T1   *+SP(40),A2
    1304                            .dwpsn  file "./../packages/ti/vlib/src/VLIB_kalmanFilter_2x4_Predict_S16_F32/VLIB_kalmanFilte
    1305 000002d2     a934             STW     .D1T1   A3,*+A6(52)       ; |101| 
    1306                    
    1307 000002d4 01cafd89             SET     .S1     A18,0x17,0x1d,A3
    1308 000002d8 01f5a2f4  ||         STW     .D2T1   A3,*+B29(52)      ; |101| 
    1309                    
    1310                            .dwpsn  file "./../packages/ti/vlib/src/VLIB_kalmanFilter_2x4_Predict_S16_F32/VLIB_kalmanFilte
    1311 000002e0     a134             STW     .D1T1   A3,*+A6(20)       ; |88| 
    1312 000002e2     0134             STW     .D1T1   A3,*A6            ; |88| 
    1313                    
    1314 000002e8 01806228             MVK     .S1     196,A3            ; |110| 
    1315 000002e4 01f4a2f5  ||         STW     .D2T1   A3,*+B29(20)      ; |88| 
    1316                    
    1317 000002ec 0b454275             STW     .D1T1   A22,*+A17(40)     ; |86| 
    1318 000002f0 0880a358  ||         ZERO    .L1     A17
    1319                    
    1320 000002f4 09bf7d29             MVKL    .S1     0x3eaa7efa,A19
TMS320C6x Assembler PC v7.4.2 Thu Mar 19 12:42:50 2015

Tools Copyright (c) 1996-2012 Texas Instruments Incorporated
package/lib/Regression/regress_d_c/./../packages/ti/vlib/src/VLIB_kalmanFilter_2x4_Predict_S16_F32/VLIB_kalmanFilter_2x4_Predict_S16_F32_d.se66 PAGE   25

    1321 000002f8 0b4de274  ||         STW     .D1T1   A22,*+A19(60)     ; |86| 
    1322                    
    1323 00000300 099f5569             MVKH    .S1     0x3eaa7efa,A19
    1324 00000304 0b544274  ||         STW     .D1T1   A22,*+A21(8)      ; |95| 
    1325                    
    1326 00000308 0246fd89             SET     .S1     A17,0x17,0x1d,A4
    1327 0000030c 0b414275  ||         STW     .D1T1   A22,*+A16(40)     ; |86| 
    1328 00000310 0800a358  ||         ZERO    .L1     A16
    1329                    
    1330 00000314 08223d69             MVKH    .S1     0x447a0000,A16
    1331 00000318 0b504274  ||         STW     .D1T1   A22,*+A20(8)      ; |95| 
    1332                    
    1333 0000031c 0b3d62e4             LDW     .D2T1   *+SP(44),A22
    1334                    
    1335 00000320 04874275             STW     .D1T1   A9,*+A1(104)      ; |85| 
    1336 00000324 0480a358  ||         ZERO    .L1     A9
    1337                    
    1338 00000328 00bd42e4             LDW     .D2T1   *+SP(40),A1
    1339                    
    1340 0000032c 09f642f5             STW     .D2T1   A19,*+B29(72)     ; |102| 
    1341 00000330 021ac276  ||         STW     .D1T2   B4,*+A6(88)       ; |104| 
    1342                    
    1343 00000334 021a6277             STW     .D1T2   B4,*+A6(76)       ; |103| 
    1344 00000338 0abd62e4  ||         LDW     .D2T1   *+SP(44),A21
    1345                    
    1346 0000033c 027662f7             STW     .D2T2   B4,*+B29(76)      ; |103| 
    1347 00000340 099a4275  ||         STW     .D1T1   A19,*+A6(72)      ; |102| 
    1348 00000344 07586078  ||         ADD     .L1     A3,A22,A14        ; |110| 
    1349                    
    1350 00000348 0276c2f7             STW     .D2T2   B4,*+B29(88)      ; |104| 
    1351 0000034c 020c1fdb  ||         MV      .L2X    A3,B4             ; |104| 
    1352 00000350     0084  ||         STW     .D1T1   A16,*A5           ; |85| 
    1353                    
    1354 00000352     cd4d             LDW     .D2T1   *+SP(40),A20
    1355 00000354 0e3d62e4             LDW     .D2T1   *+SP(44),A28
    1356                    
    1357 00000358 0200632b             MVK     .S2     198,B4            ; |111| 
    1358 00000360 0288907b  ||         ADD     .L2X    B4,A2,B5          ; |110| 
    1359 00000364 0e9402d5  ||         STH     .D2T1   A29,*B5           ; |108| 
    1360 00000368 0e80a358  ||         ZERO    .L1     A29
    1361                    
    1362 0000036c 0226fd89             SET     .S1     A9,0x17,0x1d,A4
    1363 00000370 06d8907b  ||         ADD     .L2X    B4,A22,B13        ; |111| 
    1364 00000374 027402f4  ||         STW     .D2T1   A4,*B29           ; |88| 
    1365                    
    1366 00000378 0ea23d69             MVKH    .S1     0x447a0000,A29
    1367 0000037c 02640fdb  ||         MV      .L2     B25,B4
    1368 00000380     7246  ||         MV      .L1X    B4,A3             ; |85| 
    1369 00000382     0256  ||         MV      .D1     A4,A0             ; |111| 
    1370 00000384 082002f4  ||         STW     .D2T1   A16,*B8           ; |85| 
    1371                    
    1372 00000388 06846079             ADD     .L1     A3,A1,A13         ; |111| 
    1373 0000038c 0076e2f5  ||         STW     .D2T1   A0,*+B29(92)      ; |105| 
    1374 00000390 21800029! || [ B0]   MVKL    .S1     act_kernel,A3
    1375 00000394 25100fda  || [ B0]   MV      .L2     B4,B10
TMS320C6x Assembler PC v7.4.2 Thu Mar 19 12:42:50 2015

Tools Copyright (c) 1996-2012 Texas Instruments Incorporated
package/lib/Regression/regress_d_c/./../packages/ti/vlib/src/VLIB_kalmanFilter_2x4_Predict_S16_F32/VLIB_kalmanFilter_2x4_Predict_S16_F32_d.se66 PAGE   26

    1376                    
    1377 000003a4 02bd22f6             STW     .D2T2   B5,*+SP(36)       ; |110| 
    1378 000003a0 0bd60275  ||         STW     .D1T1   A23,*+A21(64)     ; |85| 
    1379 00000398 21800069! || [ B0]   MVKH    .S1     act_kernel,A3
    1380                    
    1381                            .dwpsn  file "./../packages/ti/vlib/src/VLIB_kalmanFilter_2x4_Predict_S16_F32/VLIB_kalmanFilte
    1382 000003a8 0bd20274             STW     .D1T1   A23,*+A20(64)     ; |85| 
    1383                    
    1384 000003ac 0ef2a275             STW     .D1T1   A29,*+A28(84)     ; |85| 
    1385 000003b0 30006a90  || [!B0]   B       .S1     $C$L3             ; |113| 
    1386                    
    1387 000003b4 0eeea274             STW     .D1T1   A29,*+A27(84)     ; |85| 
    1388                    
    1389 000003b8 041c0255             STH     .D1T1   A8,*A7            ; |109| 
    1390 000003bc 023402d6  ||         STH     .D2T2   B4,*B13           ; |111| 
    1391                    
    1392 000003c0 02340257             STH     .D1T2   B4,*A13           ; |111| 
    1393 000003c4 2200a35a  || [ B0]   ZERO    .L2     B4                ; |137| 
    1394                    
    1395 000003c8 0c9402d7             STH     .D2T2   B25,*B5           ; |110| 
    1396 000003cc 021ae274  ||         STW     .D1T1   A4,*+A6(92)       ; |105| 
    1397                    
    1398 000003d0 0d380257             STH     .D1T2   B26,*A14          ; |110| 
    1399 000003d4 223dc2e4  || [ B0]   LDW     .D2T1   *+SP(56),A4
    1400                    
    1401                            .dwpsn  file "./../packages/ti/vlib/src/VLIB_kalmanFilter_2x4_Predict_S16_F32/VLIB_kalmanFilte
    1402                               ; BRANCHCC OCCURS {$C$L3}         ; |113| 
    1403 000003d8           $C$DW$L$VLIB_kalmanFilter_2x4_Predict_S16_F32_d$10$E:
    1404                    ;** --------------------------------------------------------------------------*
    1405 000003d8           $C$DW$L$VLIB_kalmanFilter_2x4_Predict_S16_F32_d$11$B:
    1406                    ;          EXCLUSIVE CPU CYCLES: 5
    1407                    ;**     -----------------------    U$208 = &Z_buffer[-2];
    1408                    ;**     -----------------------    K$200 = &cycles[0];
    1409                    ;** 113 -----------------------    i = 0;
    1410                    ;**     -----------------------    #pragma LOOP_FLAGS(5120u)
    1411                            .dwpsn  file ".\..\packages\ti\vlib\src\VLIB_kalmanFilter_2x4_Predict_S16_F32\..\common\VLIB_p
    1412 000003d8 020c0276             STW     .D1T2   B4,*A3            ; |137| 
    1413 000003dc 00004000             NOP             3
    1414 000003e0 06130058             SUB     .L1     A4,8,A12
    1415 000003e4           $C$DW$L$VLIB_kalmanFilter_2x4_Predict_S16_F32_d$11$E:
    1416                    ;*----------------------------------------------------------------------------*
    1417                    ;*   SOFTWARE PIPELINE INFORMATION
    1418                    ;*      Disqualified loop: Loop contains a call
    1419                    ;*      Disqualified loop: Loop contains non-pipelinable instructions
    1420                    ;*      Disqualified loop: Loop contains a call
    1421                    ;*      Disqualified loop: Loop contains non-pipelinable instructions
    1422                    ;*      Disqualified loop: Loop contains a call
    1423                    ;*      Disqualified loop: Loop contains non-pipelinable instructions
    1424                    ;*      Disqualified loop: Loop contains non-pipelinable instructions
    1425                    ;*      Disqualified loop: Loop contains non-pipelinable instructions
    1426                    ;*      Disqualified loop: Loop contains a call
    1427                    ;*      Disqualified loop: Loop contains non-pipelinable instructions
    1428                    ;*      Disqualified loop: Loop contains non-pipelinable instructions
    1429                    ;*      Disqualified loop: Loop contains non-pipelinable instructions
    1430                    ;*      Disqualified loop: Loop contains a call
TMS320C6x Assembler PC v7.4.2 Thu Mar 19 12:42:50 2015

Tools Copyright (c) 1996-2012 Texas Instruments Incorporated
package/lib/Regression/regress_d_c/./../packages/ti/vlib/src/VLIB_kalmanFilter_2x4_Predict_S16_F32/VLIB_kalmanFilter_2x4_Predict_S16_F32_d.se66 PAGE   27

    1431                    ;*      Disqualified loop: Loop contains non-pipelinable instructions
    1432                    ;*      Disqualified loop: Loop contains a call
    1433                    ;*      Disqualified loop: Loop contains non-pipelinable instructions
    1434                    ;*      Disqualified loop: Loop contains a call
    1435                    ;*      Disqualified loop: Loop contains non-pipelinable instructions
    1436                    ;*      Disqualified loop: Loop contains a call
    1437                    ;*      Disqualified loop: Loop contains non-pipelinable instructions
    1438                    ;*      Disqualified loop: Loop contains non-pipelinable instructions
    1439                    ;*      Disqualified loop: Loop contains non-pipelinable instructions
    1440                    ;*      Disqualified loop: Loop contains a call
    1441                    ;*      Disqualified loop: Loop contains non-pipelinable instructions
    1442                    ;*      Disqualified loop: Loop contains non-pipelinable instructions
    1443                    ;*      Disqualified loop: Loop contains non-pipelinable instructions
    1444                    ;*      Disqualified loop: Loop contains a call
    1445                    ;*      Disqualified loop: Loop contains non-pipelinable instructions
    1446                    ;*      Disqualified loop: Loop contains a call
    1447                    ;*      Disqualified loop: Loop contains non-pipelinable instructions
    1448                    ;*      Disqualified loop: Loop contains control code
    1449                    ;*      Disqualified loop: Bad loop structure
    1450                    ;*----------------------------------------------------------------------------*
    1451 000003e4           $C$L2:    
    1452                            .dwpsn  file "./../packages/ti/vlib/src/VLIB_kalmanFilter_2x4_Predict_S16_F32/VLIB_kalmanFilte
    1453 000003e4           $C$DW$L$VLIB_kalmanFilter_2x4_Predict_S16_F32_d$12$B:
    1454                    ;          EXCLUSIVE CPU CYCLES: 6
    1455                    ;**     -----------------------g6:
    1456                    ;** 137 -----------------------    act_kernel = 0;  // [16]
    1457                    ;** 140 -----------------------    VLIB_cache_inval();  // [16]
    1458                    ;** 143 -----------------------    initStack(getSP());  // [16]
    1459                    ;** 146 -----------------------    beg_count = _itoll(TSCH, TSCL);  // [16]
    1460                    ;** 119 -----------------------    VLIB_kalmanFilter_2x4_Predict_S16_F32(KF);
    1461                    ;** 153 -----------------------    v$2 = _itoll(TSCH, TSCL);  // [17]
    1462                    ;** 153 -----------------------    end_count = v$2;  // [17]
    1463                    ;** 156 -----------------------    C$7 = act_kernel;  // [17]
    1464                    ;** 156 -----------------------    *((C$7<<3)+K$200) = *((C$7<<3)+K$200)+(v$2-(beg_count+overhead));  
    1465                    ;** 159 -----------------------    setStackDepth();  // [17]
    1466                    ;** 137 -----------------------    act_kernel = 1;  // [16]
    1467                    ;** 140 -----------------------    VLIB_cache_inval();  // [16]
    1468                    ;** 143 -----------------------    initStack(getSP());  // [16]
    1469                    ;** 146 -----------------------    beg_count = _itoll(TSCH, TSCL);  // [16]
    1470                    ;** 124 -----------------------    VLIB_kalmanFilter_2x4_Predict_S16_F32_cn(KF_cn);
    1471                    ;** 153 -----------------------    v$2 = _itoll(TSCH, TSCL);  // [17]
    1472                    ;** 153 -----------------------    end_count = v$2;  // [17]
    1473                    ;** 156 -----------------------    C$6 = act_kernel;  // [17]
    1474                    ;** 156 -----------------------    *((C$6<<3)+K$200) = *((C$6<<3)+K$200)+(v$2-(beg_count+overhead));  
    1475                    ;** 159 -----------------------    setStackDepth();  // [17]
    1476                    ;** 128 -----------------------    *Z = (short)(*(U$208 += 2)+K$128);
    1477                    ;** 129 -----------------------    Z[1] = (short)(U$208[1]+K$128);
    1478                    ;** 131 -----------------------    VLIB_kalmanFilter_2x4_Correct_S16_F32_cn(KF, Z, Residual);
    1479                            .dwpsn  file ".\..\packages\ti\vlib\src\VLIB_kalmanFilter_2x4_Predict_S16_F32\..\common\VLIB_p
    1480                    $C$DW$144       .dwtag  DW_TAG_TI_branch
    1481                            .dwattr $C$DW$144, DW_AT_low_pc(0x00)
    1482                            .dwattr $C$DW$144, DW_AT_name("VLIB_cache_inval")
    1483                            .dwattr $C$DW$144, DW_AT_TI_call
    1484 000003e4 00000010!            CALL    .S1     VLIB_cache_inval  ; |140| 
    1485 000003e8 01838162             ADDKPC  .S2     $C$RL11,B3,4      ; |140| 
TMS320C6x Assembler PC v7.4.2 Thu Mar 19 12:42:50 2015

Tools Copyright (c) 1996-2012 Texas Instruments Incorporated
package/lib/Regression/regress_d_c/./../packages/ti/vlib/src/VLIB_kalmanFilter_2x4_Predict_S16_F32/VLIB_kalmanFilter_2x4_Predict_S16_F32_d.se66 PAGE   28

    1486                    $C$RL11:   ; CALL OCCURS {VLIB_cache_inval} {0}  ; |140| 
    1487                    $C$DW$L$VLIB_kalmanFilter_2x4_Predict_S16_F32_d$12$E:
    1488                    ;** --------------------------------------------------------------------------*
    1489                    $C$DW$L$VLIB_kalmanFilter_2x4_Predict_S16_F32_d$13$B:
    1490                    ;          EXCLUSIVE CPU CYCLES: 133
    1491                    $C$DW$145       .dwtag  DW_TAG_TI_branch
    1492                            .dwattr $C$DW$145, DW_AT_low_pc(0x00)
    1493                            .dwattr $C$DW$145, DW_AT_name("getSP")
    1494                            .dwattr $C$DW$145, DW_AT_TI_call
    1495 000003ec 10000012!            CALLP   .S2     getSP,B3
    1496                            .dwpsn  file ".\..\packages\ti\vlib\src\VLIB_kalmanFilter_2x4_Predict_S16_F32\..\common\VLIB_p
    1497                    $C$RL12:   ; CALL OCCURS {getSP} {0}         ; |143| 
    1498                    $C$DW$146       .dwtag  DW_TAG_TI_branch
    1499                            .dwattr $C$DW$146, DW_AT_low_pc(0x00)
    1500                            .dwattr $C$DW$146, DW_AT_name("initStack")
    1501                            .dwattr $C$DW$146, DW_AT_TI_call
    1502 000003f0 10000012!            CALLP   .S2     initStack,B3
    1503 000003f4           $C$RL13:   ; CALL OCCURS {initStack} {0}     ; |143| 
    1504                            .dwpsn  file ".\..\packages\ti\vlib\src\VLIB_kalmanFilter_2x4_Predict_S16_F32\..\common\VLIB_p
    1505 000003f4 022803e2             MVC     .S2     TSCL,B4           ; |146| 
    1506 000003f8 02ac03e2             MVC     .S2     TSCH,B5           ; |146| 
    1507 000003fc 01800028!            MVKL    .S1     beg_count,A3
    1508 00000400 01800068!            MVKH    .S1     beg_count,A3
    1509                    $C$DW$147       .dwtag  DW_TAG_TI_branch
    1510                            .dwattr $C$DW$147, DW_AT_low_pc(0x00)
    1511                            .dwattr $C$DW$147, DW_AT_name("VLIB_kalmanFilter_2x4_Predict_S16_F32")
    1512                            .dwattr $C$DW$147, DW_AT_TI_call
    1513                    
    1514 00000404 10000013!            CALLP   .S2     VLIB_kalmanFilter_2x4_Predict_S16_F32,B3
    1515 00000408 023d62e5  ||         LDW     .D2T1   *+SP(44),A4       ; |119| 
    1516 0000040c 020c0346  ||         STDW    .D1T2   B5:B4,*A3         ; |146| 
    1517                    
    1518                            .dwpsn  file "./../packages/ti/vlib/src/VLIB_kalmanFilter_2x4_Predict_S16_F32/VLIB_kalmanFilte
    1519 00000410           $C$RL14:   ; CALL OCCURS {VLIB_kalmanFilter_2x4_Predict_S16_F32} {0}  ; |119| 
    1520                            .dwpsn  file ".\..\packages\ti\vlib\src\VLIB_kalmanFilter_2x4_Predict_S16_F32\..\common\VLIB_p
    1521 00000410 032803e2             MVC     .S2     TSCL,B6           ; |153| 
    1522 00000414 03ac03e2             MVC     .S2     TSCH,B7           ; |153| 
    1523 00000418 01800028!            MVKL    .S1     beg_count,A3
    1524 0000041c 03000028!            MVKL    .S1     act_kernel,A6
    1525 00000420 01800068!            MVKH    .S1     beg_count,A3
    1526                    
    1527 00000424 03000069!            MVKH    .S1     act_kernel,A6
    1528 00000428 0200002b! ||         MVKL    .S2     overhead,B4
    1529 0000042c 020c0364  ||         LDDW    .D1T1   *A3,A5:A4         ; |156| 
    1530                    
    1531 00000430 01980265             LDW     .D1T1   *A6,A3            ; |156| 
    1532 00000434 0200006a! ||         MVKH    .S2     overhead,B4
    1533                    
    1534                            .dwpsn  file ".\..\packages\ti\vlib\src\VLIB_kalmanFilter_2x4_Predict_S16_F32\..\common\VLIB_p
    1535 00000438 041003e6             LDDW    .D2T2   *B4,B9:B8         ; |156| 
    1536 0000043c 0f800028!            MVKL    .S1     cycles,A31
    1537 00000440 0f800068!            MVKH    .S1     cycles,A31
    1538 00000444 04000028!            MVKL    .S1     end_count,A8
    1539 00000448 037c6b64             LDDW    .D1T1   *+A31[A3],A7:A6   ; |156| 
    1540 0000044c 0211157a             ADDU    .L2X    B8,A4,B5:B4       ; |156| 
TMS320C6x Assembler PC v7.4.2 Thu Mar 19 12:42:50 2015

Tools Copyright (c) 1996-2012 Texas Instruments Incorporated
package/lib/Regression/regress_d_c/./../packages/ti/vlib/src/VLIB_kalmanFilter_2x4_Predict_S16_F32/VLIB_kalmanFilter_2x4_Predict_S16_F32_d.se66 PAGE   29

    1541 00000450 0424a07a             ADD     .L2     B5,B9,B8          ; |156| 
    1542                    
    1543 00000454 041511e3             ADD     .S2X    B8,A5,B8          ; |156| 
    1544 00000458 0210c5fa  ||         SUBU    .L2     B6,B4,B5:B4       ; |156| 
    1545                    
    1546 0000045c 0fa0e0fb             SUB     .L2     B7,B8,B31         ; |156| 
    1547 00000460 0297184a  ||         EXT     .S2     B5,24,24,B5       ; |156| 
    1548                    
    1549 00000464 0210d579             ADDU    .L1X    A6,B4,A5:A4       ; |156| 
    1550 00000468 0217e07b  ||         ADD     .L2     B31,B5,B4         ; |156| 
    1551 0000046c 04000068! ||         MVKH    .S1     end_count,A8
    1552                    
    1553 00000474     a3d0             ADD     .L1     A5,A7,A5          ; |156| 
    1554 00000470 03000029! ||         MVKL    .S1     cycles,A6
    1555                    
    1556 00000476     b250             ADD     .L1X    A5,B4,A5          ; |156| 
    1557 00000478 03000069! ||         MVKH    .S1     cycles,A6
    1558 00000480 03200346  ||         STDW    .D1T2   B7:B6,*A8         ; |153| 
    1559                    
    1560                    $C$DW$148       .dwtag  DW_TAG_TI_branch
    1561                            .dwattr $C$DW$148, DW_AT_low_pc(0x00)
    1562                            .dwattr $C$DW$148, DW_AT_name("setStackDepth")
    1563                            .dwattr $C$DW$148, DW_AT_TI_call
    1564                    
    1565 00000484 10000013!            CALLP   .S2     setStackDepth,B3
    1566 00000488 02186b44  ||         STDW    .D1T1   A5:A4,*+A6[A3]    ; |156| 
    1567                    
    1568                            .dwpsn  file ".\..\packages\ti\vlib\src\VLIB_kalmanFilter_2x4_Predict_S16_F32\..\common\VLIB_p
    1569 0000048c           $C$RL15:   ; CALL OCCURS {setStackDepth} {0}  ; |159| 
    1570 0000048c 02000028!            MVKL    .S1     act_kernel,A4
    1571                    
    1572 00000490 02000069!            MVKH    .S1     act_kernel,A4
    1573 00000494     25a6  ||         MVK     .L1     1,A3              ; |137| 
    1574                    
    1575                    $C$DW$149       .dwtag  DW_TAG_TI_branch
    1576                            .dwattr $C$DW$149, DW_AT_low_pc(0x00)
    1577                            .dwattr $C$DW$149, DW_AT_name("VLIB_cache_inval")
    1578                            .dwattr $C$DW$149, DW_AT_TI_call
    1579                    
    1580 00000498 10000012!            CALLP   .S2     VLIB_cache_inval,B3
    1581 00000496     0034  ||         STW     .D1T1   A3,*A4            ; |137| 
    1582                    
    1583                            .dwpsn  file ".\..\packages\ti\vlib\src\VLIB_kalmanFilter_2x4_Predict_S16_F32\..\common\VLIB_p
    1584                    $C$RL16:   ; CALL OCCURS {VLIB_cache_inval} {0}  ; |140| 
    1585                    $C$DW$150       .dwtag  DW_TAG_TI_branch
    1586                            .dwattr $C$DW$150, DW_AT_low_pc(0x00)
    1587                            .dwattr $C$DW$150, DW_AT_name("getSP")
    1588                            .dwattr $C$DW$150, DW_AT_TI_call
    1589 000004a0 10000012!            CALLP   .S2     getSP,B3
    1590                            .dwpsn  file ".\..\packages\ti\vlib\src\VLIB_kalmanFilter_2x4_Predict_S16_F32\..\common\VLIB_p
    1591                    $C$RL17:   ; CALL OCCURS {getSP} {0}         ; |143| 
    1592                    $C$DW$151       .dwtag  DW_TAG_TI_branch
    1593                            .dwattr $C$DW$151, DW_AT_low_pc(0x00)
    1594                            .dwattr $C$DW$151, DW_AT_name("initStack")
    1595                            .dwattr $C$DW$151, DW_AT_TI_call
TMS320C6x Assembler PC v7.4.2 Thu Mar 19 12:42:50 2015

Tools Copyright (c) 1996-2012 Texas Instruments Incorporated
package/lib/Regression/regress_d_c/./../packages/ti/vlib/src/VLIB_kalmanFilter_2x4_Predict_S16_F32/VLIB_kalmanFilter_2x4_Predict_S16_F32_d.se66 PAGE   30

    1596 000004a4 10000012!            CALLP   .S2     initStack,B3
    1597 000004a8           $C$RL18:   ; CALL OCCURS {initStack} {0}     ; |143| 
    1598                            .dwpsn  file ".\..\packages\ti\vlib\src\VLIB_kalmanFilter_2x4_Predict_S16_F32\..\common\VLIB_p
    1599 000004a8 022803e2             MVC     .S2     TSCL,B4           ; |146| 
    1600 000004ac 02ac03e2             MVC     .S2     TSCH,B5           ; |146| 
    1601 000004b0 01800028!            MVKL    .S1     beg_count,A3
    1602 000004b4 01800068!            MVKH    .S1     beg_count,A3
    1603                    $C$DW$152       .dwtag  DW_TAG_TI_branch
    1604                            .dwattr $C$DW$152, DW_AT_low_pc(0x00)
    1605                            .dwattr $C$DW$152, DW_AT_name("VLIB_kalmanFilter_2x4_Predict_S16_F32_cn")
    1606                            .dwattr $C$DW$152, DW_AT_TI_call
    1607                    
    1608 000004b8 10000013!            CALLP   .S2     VLIB_kalmanFilter_2x4_Predict_S16_F32_cn,B3
    1609 000004bc 023d42e5  ||         LDW     .D2T1   *+SP(40),A4       ; |124| 
    1610 000004c0 020c0346  ||         STDW    .D1T2   B5:B4,*A3         ; |146| 
    1611                    
    1612                            .dwpsn  file "./../packages/ti/vlib/src/VLIB_kalmanFilter_2x4_Predict_S16_F32/VLIB_kalmanFilte
    1613 000004c4           $C$RL19:   ; CALL OCCURS {VLIB_kalmanFilter_2x4_Predict_S16_F32_cn} {0}  ; |124| 
    1614                            .dwpsn  file ".\..\packages\ti\vlib\src\VLIB_kalmanFilter_2x4_Predict_S16_F32\..\common\VLIB_p
    1615 000004c4 022803e2             MVC     .S2     TSCL,B4           ; |153| 
    1616 000004c8 02ac03e2             MVC     .S2     TSCH,B5           ; |153| 
    1617 000004cc 0300002a!            MVKL    .S2     beg_count,B6
    1618                    
    1619 000004d0 01800029!            MVKL    .S1     act_kernel,A3
    1620 000004d4 0380002a! ||         MVKL    .S2     overhead,B7
    1621                    
    1622 000004d8 01800069!            MVKH    .S1     act_kernel,A3
    1623 000004dc 0300006a! ||         MVKH    .S2     beg_count,B6
    1624                    
    1625 000004e0 040c0265             LDW     .D1T1   *A3,A8            ; |156| 
    1626 000004e4 0380006b! ||         MVKH    .S2     overhead,B7
    1627 000004e8 041803e6  ||         LDDW    .D2T2   *B6,B9:B8         ; |156| 
    1628                    
    1629                            .dwpsn  file ".\..\packages\ti\vlib\src\VLIB_kalmanFilter_2x4_Predict_S16_F32\..\common\VLIB_p
    1630 000004ec 081c03e6             LDDW    .D2T2   *B7,B17:B16       ; |156| 
    1631 000004f0 0f800028!            MVKL    .S1     cycles,A31
    1632 000004f4 0f800068!            MVKH    .S1     cycles,A31
    1633 000004f8 00000000             NOP             1
    1634 000004fc 037d0b64             LDDW    .D1T1   *+A31[A8],A7:A6   ; |156| 
    1635 00000500 0322057a             ADDU    .L2     B16,B8,B7:B6      ; |156| 
    1636 00000504 0444e07a             ADD     .L2     B7,B17,B8         ; |156| 
    1637                    
    1638 00000508 042501e3             ADD     .S2     B8,B9,B8          ; |156| 
    1639 0000050c 031885fa  ||         SUBU    .L2     B4,B6,B7:B6       ; |156| 
    1640                    
    1641 00000510 0fa0a0fb             SUB     .L2     B5,B8,B31         ; |156| 
    1642 00000514 039f184a  ||         EXT     .S2     B7,24,24,B7       ; |156| 
    1643                    
    1644 00000518 0218d579             ADDU    .L1X    A6,B6,A5:A4       ; |156| 
    1645 0000051c 031fe07a  ||         ADD     .L2     B31,B7,B6         ; |156| 
    1646                    
    1647 00000520     a3b0             ADD     .L1     A5,A7,A3          ; |156| 
    1648                    
    1649 00000522     7350             ADD     .L1X    A3,B6,A5          ; |156| 
    1650 00000524 01800029! ||         MVKL    .S1     cycles,A3
TMS320C6x Assembler PC v7.4.2 Thu Mar 19 12:42:50 2015

Tools Copyright (c) 1996-2012 Texas Instruments Incorporated
package/lib/Regression/regress_d_c/./../packages/ti/vlib/src/VLIB_kalmanFilter_2x4_Predict_S16_F32/VLIB_kalmanFilter_2x4_Predict_S16_F32_d.se66 PAGE   31

    1651 00000528 0800002a! ||         MVKL    .S2     end_count,B16
    1652                    
    1653 0000052c 01800069!            MVKH    .S1     cycles,A3
    1654 00000530 0800006a! ||         MVKH    .S2     end_count,B16
    1655                    
    1656                    $C$DW$153       .dwtag  DW_TAG_TI_branch
    1657                            .dwattr $C$DW$153, DW_AT_low_pc(0x00)
    1658                            .dwattr $C$DW$153, DW_AT_name("setStackDepth")
    1659                            .dwattr $C$DW$153, DW_AT_TI_call
    1660                    
    1661 00000534 10000013!            CALLP   .S2     setStackDepth,B3
    1662 00000538 020d0b45  ||         STDW    .D1T1   A5:A4,*+A3[A8]    ; |156| 
    1663 00000540 024003c6  ||         STDW    .D2T2   B5:B4,*B16        ; |153| 
    1664                    
    1665                            .dwpsn  file ".\..\packages\ti\vlib\src\VLIB_kalmanFilter_2x4_Predict_S16_F32\..\common\VLIB_p
    1666 00000544           $C$RL20:   ; CALL OCCURS {setStackDepth} {0}  ; |159| 
    1667                            .dwpsn  file "./../packages/ti/vlib/src/VLIB_kalmanFilter_2x4_Predict_S16_F32/VLIB_kalmanFilte
    1668 00000544 02305264             LDW     .D1T1   *++A12(8),A4      ; |128| 
    1669 00000548 0180a358             ZERO    .L1     A3
    1670 0000054c 018f1d88             SET     .S1     A3,0x18,0x1d,A3
    1671 00000550 023de2e6             LDW     .D2T2   *+SP(60),B4
    1672 00000554 0f80a358             ZERO    .L1     A31
    1673 00000558 01906798             FADDSP  .L1     A3,A4,A3          ; |128| 
    1674 0000055c 027f1d88             SET     .S1     A31,0x18,0x1d,A4
    1675                            .dwpsn  file "./../packages/ti/vlib/src/VLIB_kalmanFilter_2x4_Predict_S16_F32/VLIB_kalmanFilte
    1676 00000560 033da2e4             LDW     .D2T1   *+SP(52),A6       ; |131| 
    1677                            .dwpsn  file "./../packages/ti/vlib/src/VLIB_kalmanFilter_2x4_Predict_S16_F32/VLIB_kalmanFilte
    1678 00000564 018c0178             SPTRUNC .L1     A3,A3             ; |128| 
    1679 00000568     4c6e             NOP             3
    1680 0000056a     0235             STH     .D2T1   A3,*B4            ; |128| 
    1681                            .dwpsn  file "./../packages/ti/vlib/src/VLIB_kalmanFilter_2x4_Predict_S16_F32/VLIB_kalmanFilte
    1682 0000056c 01b02264             LDW     .D1T1   *+A12(4),A3       ; |129| 
    1683 00000570 00006000             NOP             4
    1684 00000574 018c8798             FADDSP  .L1     A4,A3,A3          ; |129| 
    1685                            .dwpsn  file "./../packages/ti/vlib/src/VLIB_kalmanFilter_2x4_Predict_S16_F32/VLIB_kalmanFilte
    1686 00000578     ed4d             LDW     .D2T1   *+SP(44),A4       ; |131| 
    1687 0000057a     0c6e             NOP             1
    1688                            .dwpsn  file "./../packages/ti/vlib/src/VLIB_kalmanFilter_2x4_Predict_S16_F32/VLIB_kalmanFilte
    1689 00000580 018c0178             SPTRUNC .L1     A3,A3             ; |129| 
    1690 00000584     4c6e             NOP             3
    1691                    $C$DW$154       .dwtag  DW_TAG_TI_branch
    1692                            .dwattr $C$DW$154, DW_AT_low_pc(0x00)
    1693                            .dwattr $C$DW$154, DW_AT_name("VLIB_kalmanFilter_2x4_Correct_S16_F32_cn")
    1694                            .dwattr $C$DW$154, DW_AT_TI_call
    1695                    
    1696 00000588 10000012!            CALLP   .S2     VLIB_kalmanFilter_2x4_Correct_S16_F32_cn,B3
    1697 00000586     2235  ||         STH     .D2T1   A3,*+B4(2)        ; |129| 
    1698                    
    1699                            .dwpsn  file "./../packages/ti/vlib/src/VLIB_kalmanFilter_2x4_Predict_S16_F32/VLIB_kalmanFilte
    1700 0000058c           $C$RL21:   ; CALL OCCURS {VLIB_kalmanFilter_2x4_Correct_S16_F32_cn} {0}  ; |131| 
    1701 0000058c           $C$DW$L$VLIB_kalmanFilter_2x4_Predict_S16_F32_d$13$E:
    1702                    ;** --------------------------------------------------------------------------*
    1703 0000058c           $C$DW$L$VLIB_kalmanFilter_2x4_Predict_S16_F32_d$14$B:
    1704                    ;          EXCLUSIVE CPU CYCLES: 8
    1705                    ;** 132 -----------------------    VLIB_kalmanFilter_2x4_Correct_S16_F32_cn(KF_cn, Z, Residual_cn);
TMS320C6x Assembler PC v7.4.2 Thu Mar 19 12:42:50 2015

Tools Copyright (c) 1996-2012 Texas Instruments Incorporated
package/lib/Regression/regress_d_c/./../packages/ti/vlib/src/VLIB_kalmanFilter_2x4_Predict_S16_F32/VLIB_kalmanFilter_2x4_Predict_S16_F32_d.se66 PAGE   32

    1706                    ;** 134 -----------------------    v$1 = prm;
    1707                    ;** 138 -----------------------    C$4 = *U$168;
    1708                    ;** 138 -----------------------    (*U$170 != C$4) ? (status_nat_vs_int = 0) : status_nat_vs_int;
    1709                    ;** 142 -----------------------    C$5 = (*U$15).staticOut;
    1710                    ;** 142 -----------------------    if ( C$5 == NULL ) goto g8;
    1711                    ;** 145 -----------------------    (ABS((double)((float)C$4-*((i<<4)+C$5))) > 3.0) ? (status_nat_vs_re
    1712                    ;**     -----------------------g8:
    1713                    ;** 138 -----------------------    C$3 = *U$173;
    1714                    ;** 138 -----------------------    (*U$175 != C$3) ? (status_nat_vs_int = 0) : status_nat_vs_int;
    1715                    ;** 142 -----------------------    U$236 = U$14+v$1;
    1716                    ;** 142 -----------------------    U$238 = (*U$236).staticOut;
    1717                    ;** 142 -----------------------    if ( U$238 == NULL ) goto g10;
    1718                    ;** 145 -----------------------    (ABS((double)((float)C$3-*((i<<4)+U$238+4))) > 3.0) ? (status_nat_v
    1719                    ;**     -----------------------g10:
    1720                    ;** 138 -----------------------    C$2 = *U$179;
    1721                    ;** 138 -----------------------    (*U$181 != C$2) ? (status_nat_vs_int = 0) : status_nat_vs_int;
    1722                    ;** 142 -----------------------    if ( U$238 == NULL ) goto g12;
    1723                    ;** 145 -----------------------    (ABS((double)((float)C$2-*((i<<4)+U$238+8))) > 3.0) ? (status_nat_v
    1724                    ;**     -----------------------g12:
    1725                    ;** 138 -----------------------    C$1 = *U$184;
    1726                    ;** 138 -----------------------    (*U$186 != C$1) ? (status_nat_vs_int = 0) : status_nat_vs_int;
    1727                    ;** 142 -----------------------    if ( U$238 == NULL ) goto g14;
    1728                    ;** 145 -----------------------    (ABS((double)((float)C$1-*((i<<4)+U$238+12))) > 3.0) ? (status_nat_
    1729                    ;**     -----------------------g14:
    1730                    ;** 113 -----------------------    if ( (*U$236).numMeasurements > (++i) ) goto g6;
    1731                            .dwpsn  file "./../packages/ti/vlib/src/VLIB_kalmanFilter_2x4_Predict_S16_F32/VLIB_kalmanFilte
    1732 0000058c     8ded             LDW     .D2T1   *+SP(48),A6       ; |132| 
    1733 0000058e     cd4d             LDW     .D2T1   *+SP(40),A4       ; |132| 
    1734                    $C$DW$155       .dwtag  DW_TAG_TI_branch
    1735                            .dwattr $C$DW$155, DW_AT_low_pc(0x00)
    1736                            .dwattr $C$DW$155, DW_AT_name("VLIB_kalmanFilter_2x4_Correct_S16_F32_cn")
    1737                            .dwattr $C$DW$155, DW_AT_TI_call
    1738                    
    1739 00000590 10000013!            CALLP   .S2     VLIB_kalmanFilter_2x4_Correct_S16_F32_cn,B3
    1740 00000594     fdcd  ||         LDW     .D2T2   *+SP(60),B4       ; |132| 
    1741                    
    1742 000005a0           $C$RL22:   ; CALL OCCURS {VLIB_kalmanFilter_2x4_Correct_S16_F32_cn} {0}  ; |132| 
    1743 000005a0           $C$DW$L$VLIB_kalmanFilter_2x4_Predict_S16_F32_d$14$E:
    1744                    ;** --------------------------------------------------------------------------*
    1745 000005a0           $C$DW$L$VLIB_kalmanFilter_2x4_Predict_S16_F32_d$15$B:
    1746                    ;          EXCLUSIVE CPU CYCLES: 38
    1747                    
    1748 000005a0     bcad             LDW     .D2T2   *+SP(20),B18      ; |134| 
    1749 000005a8 002c4265  ||         LDW     .D1T1   *+A11(8),A0       ; |142| 
    1750 000005a4 02a88ca3  ||         SHL     .S2     B10,4,B5          ; |145| 
    1751 000005a2     0426  ||         ZERO    .L1     A16               ; |145| 
    1752 000005ac 04000028  ||         ZERO    .S1     A8                ; |145| 
    1753                    
    1754 000005b0 023cc2e7             LDW     .D2T2   *+SP(24),B4       ; |138| 
    1755 000005b4 03288ca3  ||         SHL     .S2     B10,4,B6          ; |145| 
    1756 000005b8 09340244  ||         LDH     .D1T1   *A13,A18          ; |138| 
    1757                    
    1758                            .dwpsn  file "./../packages/ti/vlib/src/VLIB_kalmanFilter_2x4_Predict_S16_F32/VLIB_kalmanFilte
    1759 000005c0 01bd02e4             LDW     .D2T1   *+SP(32),A3       ; |142| 
    1760                    
TMS320C6x Assembler PC v7.4.2 Thu Mar 19 12:42:50 2015

Tools Copyright (c) 1996-2012 Texas Instruments Incorporated
package/lib/Regression/regress_d_c/./../packages/ti/vlib/src/VLIB_kalmanFilter_2x4_Predict_S16_F32/VLIB_kalmanFilter_2x4_Predict_S16_F32_d.se66 PAGE   33

    1761 000005c4 0fbd22e7             LDW     .D2T2   *+SP(36),B31      ; |145| 
    1762 000005c8 09bc0244  ||         LDH     .D1T1   *A15,A19          ; |138| 
    1763                    
    1764 000005d0     fc8d             LDW     .D2T2   *+SP(28),B16      ; |145| 
    1765 000005cc 0fb80245  ||         LDH     .D1T1   *A14,A31          ; |138| 
    1766                    
    1767 000005d8 0432407b             ADD     .L2     B18,B12,B8        ; |142| 
    1768 000005d4 02141079  ||         ADD     .L1X    A0,B5,A4          ; |145| 
    1769 000005d2     08ef  || [ A0]   ZERO    .S2     B17
    1770 000005e0 0f3402c6  ||         LDH     .D2T2   *B13,B30          ; |138| 
    1771                    
    1772 000005e4 002042e7             LDW     .D2T2   *+B8(8),B0        ; |142| 
    1773 000005e8 c3100265  || [ A0]   LDW     .D1T1   *A4,A6            ; |145| 
    1774 000005ec 02289ca1  ||         SHL     .S1X    B10,4,A4          ; |145| 
    1775 000005f0 c8a0046b  || [ A0]   MVKH    .S2     0x40080000,B17
    1776 000005f4 d100a35a  || [!A0]   ZERO    .L2     B2                ; |145| 
    1777                    
    1778 000005f8 0a1002c7             LDH     .D2T2   *B4,B20           ; |138| 
    1779 000005fc 018c0244  ||         LDH     .D1T1   *A3,A3            ; |138| 
    1780                    
    1781                            .dwpsn  file "./../packages/ti/vlib/src/VLIB_kalmanFilter_2x4_Predict_S16_F32/VLIB_kalmanFilte
    1782 00000600 09fc02c6             LDH     .D2T2   *B31,B19          ; |138| 
    1783                    
    1784 00000604 0ac002c7             LDH     .D2T2   *B16,B21          ; |138| 
    1785 00000608 0800a35a  ||         ZERO    .L2     B16               ; |145| 
    1786                    
    1787 0000060c 0ea0c287             LDHU    .D2T2   *+B8(12),B29      ; |113| 
    1788 00000610 04400fda  ||         MV      .L2     B16,B8            ; |113| 
    1789                    
    1790 00000614     0341             ADD     .L2     B0,B6,B4          ; |145| 
    1791 00000628 22009078  || [ B0]   ADD     .L1X    B0,A4,A4          ; |145| 
    1792 00000618 28800029  || [ B0]   ZERO    .S1     A17
    1793 00000620 2480002b  || [ B0]   ZERO    .S2     B9
    1794 00000624 24800041  || [ B0]   ZERO    .D1     A9
    1795 00000616     c8f7  || [!B0]   ZERO    .D2     B1                ; |145| 
    1796                    
    1797 0000062c c350095b     [ A0]   INTSP   .L2     B20,B6            ; |145| 
    1798 00000630 229022e7  || [ B0]   LDW     .D2T2   *+B4(4),B5        ; |145| 
    1799 00000634 028caf21  ||         INTSP   .S1     A3,A5             ; |145| 
    1800 00000638 02288ca3  ||         SHL     .S2     B10,4,B4          ; |145| 
    1801 0000063c 22104265  || [ B0]   LDW     .D1T1   *+A4(8),A4        ; |145| 
    1802 00000640 008e6a78  ||         CMPEQ   .L1     A19,A3,A1         ; |138| 
    1803                    
    1804 00000644 24a0046b     [ B0]   MVKH    .S2     0x40080000,B9
    1805 00000648 24a00469  || [ B0]   MVKH    .S1     0x40080000,A9
    1806 0000064c 0528205b  ||         ADD     .L2     1,B10,B10         ; |113| 
    1807 00000650 3100a358  || [!B0]   ZERO    .L1     A2                ; |145| 
    1808                    
    1809                            .dwpsn  file "./../packages/ti/vlib/src/VLIB_kalmanFilter_2x4_Predict_S16_F32/VLIB_kalmanFilte
    1810 00000654 2210007a     [ B0]   ADD     .L2     B0,B4,B4          ; |145| 
    1811 00000658 221062e6     [ B0]   LDW     .D2T2   *+B4(12),B4       ; |145| 
    1812 0000065c c318d7ba     [ A0]   FSUBSP  .L2X    B6,A6,B6          ; |145| 
    1813                    
    1814 00000660 2394bed9     [ B0]   FSUBSP  .S1X    A5,B5,A7          ; |145| 
    1815 00000664 02cc095b  ||         INTSP   .L2     B19,B5            ; |145| 
TMS320C6x Assembler PC v7.4.2 Thu Mar 19 12:42:50 2015

Tools Copyright (c) 1996-2012 Texas Instruments Incorporated
package/lib/Regression/regress_d_c/./../packages/ti/vlib/src/VLIB_kalmanFilter_2x4_Predict_S16_F32/VLIB_kalmanFilter_2x4_Predict_S16_F32_d.se66 PAGE   34

    1816 00000668 02c80958  ||         INTSP   .L1     A18,A5            ; |145| 
    1817                    
    1818 0000066c 28a00468     [ B0]   MVKH    .S1     0x40080000,A17
    1819 00000670 c31800a2     [ A0]   SPDP    .S2     B6,B7:B6          ; |145| 
    1820 00000674 231c00a0     [ B0]   SPDP    .S1     A7,A7:A6          ; |145| 
    1821                    
    1822 00000678 c31ccb23     [ A0]   ABSDP   .S2     B7:B6,B7:B6       ; |145| 
    1823 0000067c 2210b7bb  || [ B0]   FSUBSP  .L2X    B5,A4,B4          ; |145| 
    1824 00000680 2210b7b8  || [ B0]   FSUBSP  .L1X    A5,B4,A4          ; |145| 
    1825                    
    1826 00000684 231ccb20     [ B0]   ABSDP   .S1     A7:A6,A7:A6       ; |145| 
    1827 00000688 c140ca62     [ A0]   CMPGTDP .S2     B7:B6,B17:B16,B2  ; |145| 
    1828                    
    1829 0000068c 0852aa7b             CMPEQ   .L2     B21,B20,B16       ; |138| 
    1830 00000690 221000a0  || [ B0]   SPDP    .S1     A4,A5:A4          ; |145| 
    1831                    
    1832 00000694 221000a3     [ B0]   SPDP    .S2     B4,B5:B4          ; |145| 
    1833 00000698 6500a358  || [ B2]   ZERO    .L1     A10               ; |145| 
    1834                    
    1835 0000069c 00401fd9             MV      .L1X    B16,A0            ; |145| 
    1836 000006a0 22148b20  || [ B0]   ABSDP   .S1     A5:A4,A5:A4       ; |145| 
    1837                    
    1838 000006a4 d5a00fdb     [!A0]   MV      .L2     B8,B11            ; |145| 
    1839 000006a8 22148b23  || [ B0]   ABSDP   .S2     B5:B4,B5:B4       ; |145| 
    1840 000006ac 004ffa78  ||         CMPEQ   .L1X    A31,B19,A0        ; |138| 
    1841                    
    1842 000006b0 95a00fdb     [!A1]   MV      .L2     B8,B11            ; |138| 
    1843 000006b4 20a08a61  || [ B0]   CMPGTDP .S1     A5:A4,A9:A8,A1    ; |145| 
    1844 000006b8 3080a358  || [!B0]   ZERO    .L1     A1                ; |145| 
    1845                    
    1846 000006bc d5a00fdb     [!A0]   MV      .L2     B8,B11            ; |138| 
    1847 000006c0 20a08a62  || [ B0]   CMPGTDP .S2     B5:B4,B9:B8,B1    ; |145| 
    1848                    
    1849 000006c4 2140ca61     [ B0]   CMPGTDP .S1     A7:A6,A17:A16,A2  ; |145| 
    1850 000006c8 004bda7a  ||         CMPEQ   .L2X    B30,A18,B0        ; |138| 
    1851                    
    1852 000006cc 35a006a3     [!B0]   MV      .S2     B8,B11            ; |113| 
    1853 000006d0 002ba8fa  ||         CMPGT   .L2     B29,B10,B0        ; |113| 
    1854                    
    1855 000006d4 2f492123     [ B0]   BNOP    .S2     $C$L2,1           ; |113| 
    1856 000006d8 21800029! || [ B0]   MVKL    .S1     act_kernel,A3
    1857 000006dc a500a359  || [ A2]   ZERO    .L1     A10               ; |145| 
    1858 000006e0 2200a35a  || [ B0]   ZERO    .L2     B4                ; |137| 
    1859                    
    1860                            .dwpsn  file "./../packages/ti/vlib/src/VLIB_kalmanFilter_2x4_Predict_S16_F32/VLIB_kalmanFilte
    1861 000006e4 45200fd8     [ B1]   MV      .L1     A8,A10            ; |138| 
    1862 000006e8 21800068!    [ B0]   MVKH    .S1     act_kernel,A3
    1863                            .dwpsn  file "./../packages/ti/vlib/src/VLIB_kalmanFilter_2x4_Predict_S16_F32/VLIB_kalmanFilte
    1864 000006ec 85200fd8     [ A1]   MV      .L1     A8,A10            ; |113| 
    1865                            .dwpsn  file ".\..\packages\ti\vlib\src\VLIB_kalmanFilter_2x4_Predict_S16_F32\..\common\VLIB_p
    1866 000006f0 220c0276     [ B0]   STW     .D1T2   B4,*A3            ; |137| 
    1867                            .dwpsn  file "./../packages/ti/vlib/src/VLIB_kalmanFilter_2x4_Predict_S16_F32/VLIB_kalmanFilte
    1868                               ; BRANCHCC OCCURS {$C$L2}         ; |113| 
    1869 000006f4           $C$DW$L$VLIB_kalmanFilter_2x4_Predict_S16_F32_d$15$E:
    1870                    ;** --------------------------------------------------------------------------*
TMS320C6x Assembler PC v7.4.2 Thu Mar 19 12:42:50 2015

Tools Copyright (c) 1996-2012 Texas Instruments Incorporated
package/lib/Regression/regress_d_c/./../packages/ti/vlib/src/VLIB_kalmanFilter_2x4_Predict_S16_F32/VLIB_kalmanFilter_2x4_Predict_S16_F32_d.se66 PAGE   35

    1871 000006f4           $C$L3:    
    1872 000006f4           $C$DW$L$VLIB_kalmanFilter_2x4_Predict_S16_F32_d$16$B:
    1873                    ;          EXCLUSIVE CPU CYCLES: 13
    1874                    ;**     -----------------------g15:
    1875                    ;** 154 -----------------------    est_test = 1;
    1876                    ;** 157 -----------------------    sprintf(K$279, (const char *)"%s generated input | Opt results comp
    1877                    ;** 159 -----------------------    VLIB_formula_add_test((int)(*U$15).numMeasurements, 0, 0, (status_n
    1878                    ;** 161 -----------------------    goto g17;
    1879                            .dwpsn  file "./../packages/ti/vlib/src/VLIB_kalmanFilter_2x4_Predict_S16_F32/VLIB_kalmanFilte
    1880 000006f4 0232407a             ADD     .L2     B18,B12,B4        ; |157| 
    1881 000006f8 0290c286             LDHU    .D2T2   *+B4(12),B5       ; |157| 
    1882 000006fc 0300002a!            MVKL    .S2     $C$SL2+0,B6
    1883 00000700 02000028!            MVKL    .S1     est_test,A4
    1884 00000704 0300006a!            MVKH    .S2     $C$SL2+0,B6
    1885                    
    1886 00000708 0200002b!            MVKL    .S2     testPatternString,B4
    1887 0000070c 02000069! ||         MVKH    .S1     est_test,A4
    1888 00000710     25a6  ||         MVK     .L1     1,A3              ; |154| 
    1889 00000712     bc65  ||         STW     .D2T2   B6,*+SP(4)        ; |157| 
    1890                    
    1891 00000714 0200006b!            MVKH    .S2     testPatternString,B4
    1892 00000718     0034  ||         STW     .D1T1   A3,*A4            ; |154| 
    1893 00000720 02000028! ||         MVKL    .S1     desc,A4
    1894 0000071a     fc55  ||         STW     .D2T2   B5,*+SP(12)       ; |157| 
    1895                    
    1896                    $C$DW$156       .dwtag  DW_TAG_TI_branch
    1897                            .dwattr $C$DW$156, DW_AT_low_pc(0x00)
    1898                            .dwattr $C$DW$156, DW_AT_name("sprintf")
    1899                            .dwattr $C$DW$156, DW_AT_TI_call
    1900                    
    1901 00000724 10000013!            CALLP   .S2     sprintf,B3
    1902 00000728 023c42f7  ||         STW     .D2T2   B4,*+SP(8)        ; |157| 
    1903 0000072c 02000068! ||         MVKH    .S1     desc,A4
    1904                    
    1905 00000730           $C$RL23:   ; CALL OCCURS {sprintf} {0}       ; |157| 
    1906 00000730           $C$DW$L$VLIB_kalmanFilter_2x4_Predict_S16_F32_d$16$E:
    1907                    ;** --------------------------------------------------------------------------*
    1908 00000730           $C$DW$L$VLIB_kalmanFilter_2x4_Predict_S16_F32_d$17$B:
    1909                    ;          EXCLUSIVE CPU CYCLES: 8
    1910                            .dwpsn  file "./../packages/ti/vlib/src/VLIB_kalmanFilter_2x4_Predict_S16_F32/VLIB_kalmanFilte
    1911 00000730 01a80a58             CMPEQ   .L1     A10,0,A3          ; |159| 
    1912                    
    1913 00000734 022c0a5b             CMPEQ   .L2     B11,0,B4          ; |159| 
    1914 00000738 04000029! ||         MVKL    .S1     desc,A8
    1915 0000073c 0400002a  ||         ZERO    .S2     B8                ; |159| 
    1916                    
    1917                    $C$DW$157       .dwtag  DW_TAG_TI_branch
    1918                            .dwattr $C$DW$157, DW_AT_low_pc(0x00)
    1919                            .dwattr $C$DW$157, DW_AT_name("VLIB_formula_add_test")
    1920                            .dwattr $C$DW$157, DW_AT_TI_call
    1921                    
    1922 00000740 10000013!            CALLP   .S2     VLIB_formula_add_test,B3
    1923 00000744 022cc205  ||         LDHU    .D1T1   *+A11(12),A4      ; |159| 
    1924 00000748 030c9ffb  ||         OR      .L2X    A3,B4,B6          ; |159| 
    1925 0000074c     1a77  ||         ZERO    .D2     B4                ; |159| 
TMS320C6x Assembler PC v7.4.2 Thu Mar 19 12:42:50 2015

Tools Copyright (c) 1996-2012 Texas Instruments Incorporated
package/lib/Regression/regress_d_c/./../packages/ti/vlib/src/VLIB_kalmanFilter_2x4_Predict_S16_F32/VLIB_kalmanFilter_2x4_Predict_S16_F32_d.se66 PAGE   36

    1926 00000750 04000068! ||         MVKH    .S1     desc,A8
    1927 0000074e     0726  ||         ZERO    .L1     A6                ; |159| 
    1928                    
    1929 00000754           $C$RL24:   ; CALL OCCURS {VLIB_formula_add_test} {0}  ; |159| 
    1930 00000754           $C$DW$L$VLIB_kalmanFilter_2x4_Predict_S16_F32_d$17$E:
    1931                    ;** --------------------------------------------------------------------------*
    1932 00000754           $C$DW$L$VLIB_kalmanFilter_2x4_Predict_S16_F32_d$18$B:
    1933                    ;          EXCLUSIVE CPU CYCLES: 6
    1934                            .dwpsn  file "./../packages/ti/vlib/src/VLIB_kalmanFilter_2x4_Predict_S16_F32/VLIB_kalmanFilte
    1935 00000754 00000a10             B       .S1     $C$L5             ; |161| 
    1936                            .dwpsn  file "./../packages/ti/vlib/src/VLIB_kalmanFilter_2x4_Predict_S16_F32/VLIB_kalmanFilte
    1937                    ;----------------------------------------------------------------------
    1938                    ; 169 | align_free(KF_cn);                                                     
    1939                    ;----------------------------------------------------------------------
    1940                    $C$DW$158       .dwtag  DW_TAG_TI_branch
    1941                            .dwattr $C$DW$158, DW_AT_low_pc(0x00)
    1942                            .dwattr $C$DW$158, DW_AT_name("free")
    1943                            .dwattr $C$DW$158, DW_AT_TI_call
    1944 00000758 00000010!            CALL    .S1     free              ; |169| 
    1945 00000760 023d42e4             LDW     .D2T1   *+SP(40),A4       ; |169| 
    1946 00000764 00004000             NOP             3
    1947                            .dwpsn  file "./../packages/ti/vlib/src/VLIB_kalmanFilter_2x4_Predict_S16_F32/VLIB_kalmanFilte
    1948                               ; BRANCH OCCURS {$C$L5}           ; |161| 
    1949 00000768           $C$DW$L$VLIB_kalmanFilter_2x4_Predict_S16_F32_d$18$E:
    1950                    ;** --------------------------------------------------------------------------*
    1951 00000768           $C$L4:    
    1952                            .dwpsn  file "./../packages/ti/vlib/src/VLIB_kalmanFilter_2x4_Predict_S16_F32/VLIB_kalmanFilte
    1953 00000768           $C$DW$L$VLIB_kalmanFilter_2x4_Predict_S16_F32_d$19$B:
    1954                    ;          EXCLUSIVE CPU CYCLES: 4
    1955                    ;**     -----------------------g16:
    1956                    ;** 163 -----------------------    sprintf(K$279, (const char *)"num_measurements=%d", (int)(*U$15).nu
    1957                    ;** 165 -----------------------    VLIB_skip_test(K$279);
    1958                            .dwpsn  file "./../packages/ti/vlib/src/VLIB_kalmanFilter_2x4_Predict_S16_F32/VLIB_kalmanFilte
    1959 00000768 023c22f6             STW     .D2T2   B4,*+SP(4)        ; |163| 
    1960 0000076c 02000068!            MVKH    .S1     desc,A4
    1961 00000770 01860162             ADDKPC  .S2     $C$RL25,B3,0      ; |163| 
    1962 00000774 01bc42f4             STW     .D2T1   A3,*+SP(8)        ; |163| 
    1963 00000778           $C$RL25:   ; CALL OCCURS {sprintf} {0}       ; |163| 
    1964 00000778           $C$DW$L$VLIB_kalmanFilter_2x4_Predict_S16_F32_d$19$E:
    1965                    ;** --------------------------------------------------------------------------*
    1966 00000778           $C$DW$L$VLIB_kalmanFilter_2x4_Predict_S16_F32_d$20$B:
    1967                    ;          EXCLUSIVE CPU CYCLES: 12
    1968 00000778 02000029!            MVKL    .S1     desc,A4
    1969                    $C$DW$159       .dwtag  DW_TAG_TI_branch
    1970                            .dwattr $C$DW$159, DW_AT_low_pc(0x00)
    1971                            .dwattr $C$DW$159, DW_AT_name("VLIB_skip_test")
    1972                            .dwattr $C$DW$159, DW_AT_TI_call
    1973                    
    1974 00000780 10000013!            CALLP   .S2     VLIB_skip_test,B3
    1975 00000784 02000068! ||         MVKH    .S1     desc,A4
    1976                    
    1977                            .dwpsn  file "./../packages/ti/vlib/src/VLIB_kalmanFilter_2x4_Predict_S16_F32/VLIB_kalmanFilte
    1978 00000788           $C$RL26:   ; CALL OCCURS {VLIB_skip_test} {0}  ; |165| 
    1979                            .dwpsn  file "./../packages/ti/vlib/src/VLIB_kalmanFilter_2x4_Predict_S16_F32/VLIB_kalmanFilte
    1980                    $C$DW$160       .dwtag  DW_TAG_TI_branch
TMS320C6x Assembler PC v7.4.2 Thu Mar 19 12:42:50 2015

Tools Copyright (c) 1996-2012 Texas Instruments Incorporated
package/lib/Regression/regress_d_c/./../packages/ti/vlib/src/VLIB_kalmanFilter_2x4_Predict_S16_F32/VLIB_kalmanFilter_2x4_Predict_S16_F32_d.se66 PAGE   37

    1981                            .dwattr $C$DW$160, DW_AT_low_pc(0x00)
    1982                            .dwattr $C$DW$160, DW_AT_name("free")
    1983                            .dwattr $C$DW$160, DW_AT_TI_call
    1984 00000788 00000010!            CALL    .S1     free              ; |169| 
    1985 0000078c     cd4d             LDW     .D2T1   *+SP(40),A4       ; |169| 
    1986 0000078e     4c6e             NOP             3
    1987 00000790           $C$DW$L$VLIB_kalmanFilter_2x4_Predict_S16_F32_d$20$E:
    1988                    ;** --------------------------------------------------------------------------*
    1989 00000790           $C$L5:    
    1990                            .dwpsn  file "./../packages/ti/vlib/src/VLIB_kalmanFilter_2x4_Predict_S16_F32/VLIB_kalmanFilte
    1991 00000790           $C$DW$L$VLIB_kalmanFilter_2x4_Predict_S16_F32_d$21$B:
    1992                    ;          EXCLUSIVE CPU CYCLES: 1
    1993                    ;**     -----------------------g17:
    1994                    ;** 169 -----------------------    free((void *)KF_cn);
    1995                    ;** 170 -----------------------    VLIB_align_free((void *)KF);
    1996                    ;** 171 -----------------------    free((void *)Residual_cn);
    1997                    ;** 172 -----------------------    VLIB_align_free((void *)Residual);
    1998                    ;** 173 -----------------------    free((void *)Z_buffer);
    1999                    ;** 174 -----------------------    VLIB_align_free((void *)Z);
    2000                    ;** 53  -----------------------    U$14 += 16;
    2001                    ;** 53  -----------------------    if ( test_cases > (++tpi) ) goto g3;
    2002                            .dwpsn  file "./../packages/ti/vlib/src/VLIB_kalmanFilter_2x4_Predict_S16_F32/VLIB_kalmanFilte
    2003 00000790 01850162             ADDKPC  .S2     $C$RL27,B3,0      ; |169| 
    2004                    $C$RL27:   ; CALL OCCURS {free} {0}          ; |169| 
    2005                    $C$DW$L$VLIB_kalmanFilter_2x4_Predict_S16_F32_d$21$E:
    2006                    ;** --------------------------------------------------------------------------*
    2007                    $C$DW$L$VLIB_kalmanFilter_2x4_Predict_S16_F32_d$22$B:
    2008                    ;          EXCLUSIVE CPU CYCLES: 30
    2009                    $C$DW$161       .dwtag  DW_TAG_TI_branch
    2010                            .dwattr $C$DW$161, DW_AT_low_pc(0x00)
    2011                            .dwattr $C$DW$161, DW_AT_name("VLIB_align_free")
    2012                            .dwattr $C$DW$161, DW_AT_TI_call
    2013                    
    2014 00000794 10000013!            CALLP   .S2     VLIB_align_free,B3
    2015 00000798 023d62e4  ||         LDW     .D2T1   *+SP(44),A4       ; |170| 
    2016                    
    2017                            .dwpsn  file "./../packages/ti/vlib/src/VLIB_kalmanFilter_2x4_Predict_S16_F32/VLIB_kalmanFilte
    2018                    ;----------------------------------------------------------------------
    2019                    ; 170 | VLIB_align_free(KF);                                                   
    2020                    ;----------------------------------------------------------------------
    2021                    $C$RL28:   ; CALL OCCURS {VLIB_align_free} {0}  ; |170| 
    2022                    $C$DW$162       .dwtag  DW_TAG_TI_branch
    2023                            .dwattr $C$DW$162, DW_AT_low_pc(0x00)
    2024                            .dwattr $C$DW$162, DW_AT_name("free")
    2025                            .dwattr $C$DW$162, DW_AT_TI_call
    2026                    
    2027 000007a0 10000013!            CALLP   .S2     free,B3
    2028 000007a4 023d82e4  ||         LDW     .D2T1   *+SP(48),A4       ; |171| 
    2029                    
    2030                            .dwpsn  file "./../packages/ti/vlib/src/VLIB_kalmanFilter_2x4_Predict_S16_F32/VLIB_kalmanFilte
    2031                    ;----------------------------------------------------------------------
    2032                    ; 171 | align_free(Residual_cn);                                               
    2033                    ;----------------------------------------------------------------------
    2034                    $C$RL29:   ; CALL OCCURS {free} {0}          ; |171| 
    2035                    $C$DW$163       .dwtag  DW_TAG_TI_branch
TMS320C6x Assembler PC v7.4.2 Thu Mar 19 12:42:50 2015

Tools Copyright (c) 1996-2012 Texas Instruments Incorporated
package/lib/Regression/regress_d_c/./../packages/ti/vlib/src/VLIB_kalmanFilter_2x4_Predict_S16_F32/VLIB_kalmanFilter_2x4_Predict_S16_F32_d.se66 PAGE   38

    2036                            .dwattr $C$DW$163, DW_AT_low_pc(0x00)
    2037                            .dwattr $C$DW$163, DW_AT_name("VLIB_align_free")
    2038                            .dwattr $C$DW$163, DW_AT_TI_call
    2039                    
    2040 000007a8 10000013!            CALLP   .S2     VLIB_align_free,B3
    2041 000007ac 023da2e4  ||         LDW     .D2T1   *+SP(52),A4       ; |172| 
    2042                    
    2043                            .dwpsn  file "./../packages/ti/vlib/src/VLIB_kalmanFilter_2x4_Predict_S16_F32/VLIB_kalmanFilte
    2044                    ;----------------------------------------------------------------------
    2045                    ; 172 | VLIB_align_free(Residual);                                             
    2046                    ;----------------------------------------------------------------------
    2047                    $C$RL30:   ; CALL OCCURS {VLIB_align_free} {0}  ; |172| 
    2048                    $C$DW$164       .dwtag  DW_TAG_TI_branch
    2049                            .dwattr $C$DW$164, DW_AT_low_pc(0x00)
    2050                            .dwattr $C$DW$164, DW_AT_name("free")
    2051                            .dwattr $C$DW$164, DW_AT_TI_call
    2052                    
    2053 000007b0 10000013!            CALLP   .S2     free,B3
    2054 000007b4 023dc2e4  ||         LDW     .D2T1   *+SP(56),A4       ; |173| 
    2055                    
    2056                            .dwpsn  file "./../packages/ti/vlib/src/VLIB_kalmanFilter_2x4_Predict_S16_F32/VLIB_kalmanFilte
    2057                    ;----------------------------------------------------------------------
    2058                    ; 173 | align_free(Z_buffer);                                                  
    2059                    ;----------------------------------------------------------------------
    2060                    $C$RL31:   ; CALL OCCURS {free} {0}          ; |173| 
    2061                    $C$DW$165       .dwtag  DW_TAG_TI_branch
    2062                            .dwattr $C$DW$165, DW_AT_low_pc(0x00)
    2063                            .dwattr $C$DW$165, DW_AT_name("VLIB_align_free")
    2064                            .dwattr $C$DW$165, DW_AT_TI_call
    2065                    
    2066 000007b8 10000013!            CALLP   .S2     VLIB_align_free,B3
    2067 000007bc 023de2e4  ||         LDW     .D2T1   *+SP(60),A4       ; |174| 
    2068                    
    2069                            .dwpsn  file "./../packages/ti/vlib/src/VLIB_kalmanFilter_2x4_Predict_S16_F32/VLIB_kalmanFilte
    2070                    ;----------------------------------------------------------------------
    2071                    ; 174 | VLIB_align_free(Z);                                                    
    2072                    ;----------------------------------------------------------------------
    2073 000007c0           $C$RL32:   ; CALL OCCURS {VLIB_align_free} {0}  ; |174| 
    2074 000007c0           $C$DW$L$VLIB_kalmanFilter_2x4_Predict_S16_F32_d$22$E:
    2075                    ;** --------------------------------------------------------------------------*
    2076 000007c0           $C$DW$L$VLIB_kalmanFilter_2x4_Predict_S16_F32_d$23$B:
    2077                    ;          EXCLUSIVE CPU CYCLES: 14
    2078                    
    2079 000007c0 01800029!            MVKL    .S1     test_cases,A3
    2080 000007c4 023e02e4  ||         LDW     .D2T1   *+SP(64),A4
    2081                    
    2082 000007c8 01800068!            MVKH    .S1     test_cases,A3
    2083                            .dwpsn  file "./../packages/ti/vlib/src/VLIB_kalmanFilter_2x4_Predict_S16_F32/VLIB_kalmanFilte
    2084 000007cc 018c0264             LDW     .D1T1   *A3,A3            ; |53| 
    2085 000007d0 06000852             ADDK    .S2     16,B12            ; |53| 
    2086 000007d4     0c6e             NOP             1
    2087 000007d6     2640             ADD     .L1     1,A4,A4           ; |53| 
    2088 000007d8     8e45             STW     .D2T1   A4,*+SP(64)       ; |53| 
    2089 000007da     6e28             CMPGT   .L1     A3,A4,A0          ; |53| 
    2090 000007e0 ce1ea120     [ A0]   BNOP    .S1     $C$L1,5           ; |53| 
TMS320C6x Assembler PC v7.4.2 Thu Mar 19 12:42:50 2015

Tools Copyright (c) 1996-2012 Texas Instruments Incorporated
package/lib/Regression/regress_d_c/./../packages/ti/vlib/src/VLIB_kalmanFilter_2x4_Predict_S16_F32/VLIB_kalmanFilter_2x4_Predict_S16_F32_d.se66 PAGE   39

    2091                               ; BRANCHCC OCCURS {$C$L1}         ; |53| 
    2092 000007e4           $C$DW$L$VLIB_kalmanFilter_2x4_Predict_S16_F32_d$23$E:
    2093                    ;** --------------------------------------------------------------------------*
    2094 000007e4           $C$L6:    
    2095                    ;          EXCLUSIVE CPU CYCLES: 8
    2096                    ;**     -----------------------g18:
    2097                    ;** 178 -----------------------    VLIB_profile_cycle_report(2, "N = number of measurements", "number 
    2098                    ;** 158 -----------------------    printf((const char *)"---------------------------------------------
    2099                    ;** 165 -----------------------    VLIB_stack_memory();  // [19]
    2100                    ;**     -----------------------    return;
    2101 000007e4 0200002a!            MVKL    .S2     $C$SL5+0,B4
    2102                    
    2103 000007e8 03000029!            MVKL    .S1     $C$SL4+0,A6
    2104 000007ec 0200006a! ||         MVKH    .S2     $C$SL5+0,B4
    2105                    
    2106                    $C$DW$166       .dwtag  DW_TAG_TI_branch
    2107                            .dwattr $C$DW$166, DW_AT_low_pc(0x00)
    2108                            .dwattr $C$DW$166, DW_AT_name("VLIB_profile_cycle_report")
    2109                            .dwattr $C$DW$166, DW_AT_TI_call
    2110                    
    2111 000007f0 10000013!            CALLP   .S2     VLIB_profile_cycle_report,B3
    2112 000007f4 03000069! ||         MVKH    .S1     $C$SL4+0,A6
    2113 000007f8 0208a358  ||         MVK     .L1     0x2,A4            ; |178| 
    2114                    
    2115                            .dwpsn  file "./../packages/ti/vlib/src/VLIB_kalmanFilter_2x4_Predict_S16_F32/VLIB_kalmanFilte
    2116                    ;----------------------------------------------------------------------
    2117                    ; 178 | VLIB_profile_cycle_report(vlib_PROFILE_FORMULA_RANGE,                  
    2118                    ; 179 |                           "N = number of measurements",                
    2119                    ; 180 |                           "number of measurements");                   
    2120                    ; 183 | VLIB_kernel_memory();                                                  
    2121                    ;----------------------------------------------------------------------
    2122 000007fc           $C$RL33:   ; CALL OCCURS {VLIB_profile_cycle_report} {0}  ; |178| 
    2123                    ;** --------------------------------------------------------------------------*
    2124                    ;          EXCLUSIVE CPU CYCLES: 14
    2125 000007fc 0200002a!            MVKL    .S2     $C$SL6+0,B4
    2126 00000800 0200006a!            MVKH    .S2     $C$SL6+0,B4
    2127                    $C$DW$167       .dwtag  DW_TAG_TI_branch
    2128                            .dwattr $C$DW$167, DW_AT_low_pc(0x00)
    2129                            .dwattr $C$DW$167, DW_AT_name("printf")
    2130                            .dwattr $C$DW$167, DW_AT_TI_call
    2131                    
    2132 00000804 10000013!            CALLP   .S2     printf,B3
    2133 00000808 023c22f6  ||         STW     .D2T2   B4,*+SP(4)        ; |158| 
    2134                    
    2135                            .dwpsn  file ".\..\packages\ti\vlib\src\VLIB_kalmanFilter_2x4_Predict_S16_F32\../common/VLIB_m
    2136                    $C$RL34:   ; CALL OCCURS {printf} {0}        ; |158| 
    2137                    $C$DW$168       .dwtag  DW_TAG_TI_branch
    2138                            .dwattr $C$DW$168, DW_AT_low_pc(0x00)
    2139                            .dwattr $C$DW$168, DW_AT_name("VLIB_stack_memory")
    2140                            .dwattr $C$DW$168, DW_AT_TI_call
    2141 0000080c 10000012!            CALLP   .S2     VLIB_stack_memory,B3
    2142                            .dwpsn  file ".\..\packages\ti\vlib\src\VLIB_kalmanFilter_2x4_Predict_S16_F32\../common/VLIB_m
    2143 00000810           $C$RL35:   ; CALL OCCURS {VLIB_stack_memory} {0}  ; |165| 
    2144                    ;** --------------------------------------------------------------------------*
    2145                    ;          EXCLUSIVE CPU CYCLES: 13
TMS320C6x Assembler PC v7.4.2 Thu Mar 19 12:42:50 2015

Tools Copyright (c) 1996-2012 Texas Instruments Incorporated
package/lib/Regression/regress_d_c/./../packages/ti/vlib/src/VLIB_kalmanFilter_2x4_Predict_S16_F32/VLIB_kalmanFilter_2x4_Predict_S16_F32_d.se66 PAGE   40

    2146                            .dwpsn  file "./../packages/ti/vlib/src/VLIB_kalmanFilter_2x4_Predict_S16_F32/VLIB_kalmanFilte
    2147 00000810 01be52e6             LDW     .D2T2   *++SP(72),B3      ; |184| 
    2148                            .dwcfi  cfa_offset, 48
    2149                            .dwcfi  restore_reg, 19
    2150 00000814     c677             LDDW    .D2T1   *++SP,A13:A12
    2151                            .dwcfi  cfa_offset, 40
    2152                            .dwcfi  restore_reg, 13
    2153                            .dwcfi  restore_reg, 12
    2154 00000816     c777             LDDW    .D2T1   *++SP,A15:A14
    2155                            .dwcfi  cfa_offset, 32
    2156                            .dwcfi  restore_reg, 15
    2157                            .dwcfi  restore_reg, 14
    2158 00000818     d577             LDDW    .D2T2   *++SP,B11:B10
    2159                            .dwcfi  cfa_offset, 24
    2160                            .dwcfi  restore_reg, 27
    2161                            .dwcfi  restore_reg, 26
    2162 0000081a     d677             LDDW    .D2T2   *++SP,B13:B12
    2163                            .dwcfi  cfa_offset, 16
    2164                            .dwcfi  restore_reg, 29
    2165                            .dwcfi  restore_reg, 28
    2166 00000820 053c52e4             LDW     .D2T1   *++SP(8),A10
    2167                            .dwcfi  cfa_offset, 8
    2168                            .dwcfi  restore_reg, 10
    2169 00000824 05bc52e4             LDW     .D2T1   *++SP(8),A11      ; |184| 
    2170                            .dwcfi  cfa_offset, 0
    2171                            .dwcfi  restore_reg, 11
    2172                            .dwcfi  cfa_offset, 0
    2173                    $C$DW$169       .dwtag  DW_TAG_TI_branch
    2174                            .dwattr $C$DW$169, DW_AT_low_pc(0x00)
    2175                            .dwattr $C$DW$169, DW_AT_TI_return
    2176 00000828 008ca362             RETNOP  .S2     B3,5
    2177                               ; BRANCH OCCURS {B3}  
    2178                    
    2179                    $C$DW$170       .dwtag  DW_TAG_TI_loop
    2180                            .dwattr $C$DW$170, DW_AT_name("c:\nightlybuilds\vlib\ti\vlib\vlib\examples\package/lib/Regress
    2181                            .dwattr $C$DW$170, DW_AT_TI_begin_file("./../packages/ti/vlib/src/VLIB_kalmanFilter_2x4_Predic
    2182                            .dwattr $C$DW$170, DW_AT_TI_begin_line(0x35)
    2183                            .dwattr $C$DW$170, DW_AT_TI_end_line(0xaf)
    2184                    $C$DW$171       .dwtag  DW_TAG_TI_loop_range
    2185                            .dwattr $C$DW$171, DW_AT_low_pc($C$DW$L$VLIB_kalmanFilter_2x4_Predict_S16_F32_d$5$B)
    2186                            .dwattr $C$DW$171, DW_AT_high_pc($C$DW$L$VLIB_kalmanFilter_2x4_Predict_S16_F32_d$5$E)
    2187                    $C$DW$172       .dwtag  DW_TAG_TI_loop_range
    2188                            .dwattr $C$DW$172, DW_AT_low_pc($C$DW$L$VLIB_kalmanFilter_2x4_Predict_S16_F32_d$19$B)
    2189                            .dwattr $C$DW$172, DW_AT_high_pc($C$DW$L$VLIB_kalmanFilter_2x4_Predict_S16_F32_d$19$E)
    2190                    $C$DW$173       .dwtag  DW_TAG_TI_loop_range
    2191                            .dwattr $C$DW$173, DW_AT_low_pc($C$DW$L$VLIB_kalmanFilter_2x4_Predict_S16_F32_d$11$B)
    2192                            .dwattr $C$DW$173, DW_AT_high_pc($C$DW$L$VLIB_kalmanFilter_2x4_Predict_S16_F32_d$11$E)
    2193                    $C$DW$174       .dwtag  DW_TAG_TI_loop_range
    2194                            .dwattr $C$DW$174, DW_AT_low_pc($C$DW$L$VLIB_kalmanFilter_2x4_Predict_S16_F32_d$6$B)
    2195                            .dwattr $C$DW$174, DW_AT_high_pc($C$DW$L$VLIB_kalmanFilter_2x4_Predict_S16_F32_d$6$E)
    2196                    $C$DW$175       .dwtag  DW_TAG_TI_loop_range
    2197                            .dwattr $C$DW$175, DW_AT_low_pc($C$DW$L$VLIB_kalmanFilter_2x4_Predict_S16_F32_d$7$B)
    2198                            .dwattr $C$DW$175, DW_AT_high_pc($C$DW$L$VLIB_kalmanFilter_2x4_Predict_S16_F32_d$7$E)
    2199                    $C$DW$176       .dwtag  DW_TAG_TI_loop_range
    2200                            .dwattr $C$DW$176, DW_AT_low_pc($C$DW$L$VLIB_kalmanFilter_2x4_Predict_S16_F32_d$8$B)
TMS320C6x Assembler PC v7.4.2 Thu Mar 19 12:42:50 2015

Tools Copyright (c) 1996-2012 Texas Instruments Incorporated
package/lib/Regression/regress_d_c/./../packages/ti/vlib/src/VLIB_kalmanFilter_2x4_Predict_S16_F32/VLIB_kalmanFilter_2x4_Predict_S16_F32_d.se66 PAGE   41

    2201                            .dwattr $C$DW$176, DW_AT_high_pc($C$DW$L$VLIB_kalmanFilter_2x4_Predict_S16_F32_d$8$E)
    2202                    $C$DW$177       .dwtag  DW_TAG_TI_loop_range
    2203                            .dwattr $C$DW$177, DW_AT_low_pc($C$DW$L$VLIB_kalmanFilter_2x4_Predict_S16_F32_d$9$B)
    2204                            .dwattr $C$DW$177, DW_AT_high_pc($C$DW$L$VLIB_kalmanFilter_2x4_Predict_S16_F32_d$9$E)
    2205                    $C$DW$178       .dwtag  DW_TAG_TI_loop_range
    2206                            .dwattr $C$DW$178, DW_AT_low_pc($C$DW$L$VLIB_kalmanFilter_2x4_Predict_S16_F32_d$10$B)
    2207                            .dwattr $C$DW$178, DW_AT_high_pc($C$DW$L$VLIB_kalmanFilter_2x4_Predict_S16_F32_d$10$E)
    2208                    $C$DW$179       .dwtag  DW_TAG_TI_loop_range
    2209                            .dwattr $C$DW$179, DW_AT_low_pc($C$DW$L$VLIB_kalmanFilter_2x4_Predict_S16_F32_d$16$B)
    2210                            .dwattr $C$DW$179, DW_AT_high_pc($C$DW$L$VLIB_kalmanFilter_2x4_Predict_S16_F32_d$16$E)
    2211                    $C$DW$180       .dwtag  DW_TAG_TI_loop_range
    2212                            .dwattr $C$DW$180, DW_AT_low_pc($C$DW$L$VLIB_kalmanFilter_2x4_Predict_S16_F32_d$17$B)
    2213                            .dwattr $C$DW$180, DW_AT_high_pc($C$DW$L$VLIB_kalmanFilter_2x4_Predict_S16_F32_d$17$E)
    2214                    $C$DW$181       .dwtag  DW_TAG_TI_loop_range
    2215                            .dwattr $C$DW$181, DW_AT_low_pc($C$DW$L$VLIB_kalmanFilter_2x4_Predict_S16_F32_d$18$B)
    2216                            .dwattr $C$DW$181, DW_AT_high_pc($C$DW$L$VLIB_kalmanFilter_2x4_Predict_S16_F32_d$18$E)
    2217                    $C$DW$182       .dwtag  DW_TAG_TI_loop_range
    2218                            .dwattr $C$DW$182, DW_AT_low_pc($C$DW$L$VLIB_kalmanFilter_2x4_Predict_S16_F32_d$20$B)
    2219                            .dwattr $C$DW$182, DW_AT_high_pc($C$DW$L$VLIB_kalmanFilter_2x4_Predict_S16_F32_d$20$E)
    2220                    $C$DW$183       .dwtag  DW_TAG_TI_loop_range
    2221                            .dwattr $C$DW$183, DW_AT_low_pc($C$DW$L$VLIB_kalmanFilter_2x4_Predict_S16_F32_d$21$B)
    2222                            .dwattr $C$DW$183, DW_AT_high_pc($C$DW$L$VLIB_kalmanFilter_2x4_Predict_S16_F32_d$21$E)
    2223                    $C$DW$184       .dwtag  DW_TAG_TI_loop_range
    2224                            .dwattr $C$DW$184, DW_AT_low_pc($C$DW$L$VLIB_kalmanFilter_2x4_Predict_S16_F32_d$22$B)
    2225                            .dwattr $C$DW$184, DW_AT_high_pc($C$DW$L$VLIB_kalmanFilter_2x4_Predict_S16_F32_d$22$E)
    2226                    $C$DW$185       .dwtag  DW_TAG_TI_loop_range
    2227                            .dwattr $C$DW$185, DW_AT_low_pc($C$DW$L$VLIB_kalmanFilter_2x4_Predict_S16_F32_d$23$B)
    2228                            .dwattr $C$DW$185, DW_AT_high_pc($C$DW$L$VLIB_kalmanFilter_2x4_Predict_S16_F32_d$23$E)
    2229                    
    2230                    $C$DW$186       .dwtag  DW_TAG_TI_loop
    2231                            .dwattr $C$DW$186, DW_AT_name("c:\nightlybuilds\vlib\ti\vlib\vlib\examples\package/lib/Regress
    2232                            .dwattr $C$DW$186, DW_AT_TI_begin_file("./../packages/ti/vlib/src/VLIB_kalmanFilter_2x4_Predic
    2233                            .dwattr $C$DW$186, DW_AT_TI_begin_line(0x71)
    2234                            .dwattr $C$DW$186, DW_AT_TI_end_line(0x95)
    2235                    $C$DW$187       .dwtag  DW_TAG_TI_loop_range
    2236                            .dwattr $C$DW$187, DW_AT_low_pc($C$DW$L$VLIB_kalmanFilter_2x4_Predict_S16_F32_d$12$B)
    2237                            .dwattr $C$DW$187, DW_AT_high_pc($C$DW$L$VLIB_kalmanFilter_2x4_Predict_S16_F32_d$12$E)
    2238                    $C$DW$188       .dwtag  DW_TAG_TI_loop_range
    2239                            .dwattr $C$DW$188, DW_AT_low_pc($C$DW$L$VLIB_kalmanFilter_2x4_Predict_S16_F32_d$13$B)
    2240                            .dwattr $C$DW$188, DW_AT_high_pc($C$DW$L$VLIB_kalmanFilter_2x4_Predict_S16_F32_d$13$E)
    2241                    $C$DW$189       .dwtag  DW_TAG_TI_loop_range
    2242                            .dwattr $C$DW$189, DW_AT_low_pc($C$DW$L$VLIB_kalmanFilter_2x4_Predict_S16_F32_d$14$B)
    2243                            .dwattr $C$DW$189, DW_AT_high_pc($C$DW$L$VLIB_kalmanFilter_2x4_Predict_S16_F32_d$14$E)
    2244                    $C$DW$190       .dwtag  DW_TAG_TI_loop_range
    2245                            .dwattr $C$DW$190, DW_AT_low_pc($C$DW$L$VLIB_kalmanFilter_2x4_Predict_S16_F32_d$15$B)
    2246                            .dwattr $C$DW$190, DW_AT_high_pc($C$DW$L$VLIB_kalmanFilter_2x4_Predict_S16_F32_d$15$E)
    2247                            .dwendtag $C$DW$186
    2248                    
    2249                            .dwendtag $C$DW$170
    2250                    
    2251                            .dwattr $C$DW$79, DW_AT_TI_end_file("./../packages/ti/vlib/src/VLIB_kalmanFilter_2x4_Predict_S
    2252                            .dwattr $C$DW$79, DW_AT_TI_end_line(0xb8)
    2253                            .dwattr $C$DW$79, DW_AT_TI_end_column(0x01)
    2254                            .dwendentry
    2255                            .dwendtag $C$DW$79
TMS320C6x Assembler PC v7.4.2 Thu Mar 19 12:42:50 2015

Tools Copyright (c) 1996-2012 Texas Instruments Incorporated
package/lib/Regression/regress_d_c/./../packages/ti/vlib/src/VLIB_kalmanFilter_2x4_Predict_S16_F32/VLIB_kalmanFilter_2x4_Predict_S16_F32_d.se66 PAGE   42

    2256                    
    2257                    ;; Inlined function references:
    2258                    ;; [ 16] VLIB_profile_start
    2259                    ;; [ 17] VLIB_profile_stop
    2260                    ;; [ 19] VLIB_kernel_memory
    2261                    ;******************************************************************************
    2262                    ;* STRINGS                                                                    *
    2263                    ;******************************************************************************
    2264 00000000                   .sect   ".const:.string"
    2265 00000000 00000056  $C$SL1: .string "VLIB_kalmanFilter_2x4_Predict_S16_F32",0
         00000001 0000004C 
         00000002 00000049 
         00000003 00000042 
         00000004 0000005F 
         00000005 0000006B 
         00000006 00000061 
         00000007 0000006C 
         00000008 0000006D 
         00000009 00000061 
         0000000a 0000006E 
         0000000b 00000046 
         0000000c 00000069 
         0000000d 0000006C 
         0000000e 00000074 
         0000000f 00000065 
         00000010 00000072 
         00000011 0000005F 
         00000012 00000032 
         00000013 00000078 
         00000014 00000034 
         00000015 0000005F 
         00000016 00000050 
         00000017 00000072 
         00000018 00000065 
         00000019 00000064 
         0000001a 00000069 
         0000001b 00000063 
         0000001c 00000074 
         0000001d 0000005F 
         0000001e 00000053 
         0000001f 00000031 
         00000020 00000036 
         00000021 0000005F 
         00000022 00000046 
         00000023 00000033 
         00000024 00000032 
         00000025 00000000 
    2266 00000026 00000025  $C$SL2: .string "%s generated input | Opt results compared to NatC results |"
         00000027 00000073 
         00000028 00000020 
         00000029 00000067 
         0000002a 00000065 
         0000002b 0000006E 
         0000002c 00000065 
         0000002d 00000072 
TMS320C6x Assembler PC v7.4.2 Thu Mar 19 12:42:50 2015

Tools Copyright (c) 1996-2012 Texas Instruments Incorporated
package/lib/Regression/regress_d_c/./../packages/ti/vlib/src/VLIB_kalmanFilter_2x4_Predict_S16_F32/VLIB_kalmanFilter_2x4_Predict_S16_F32_d.se66 PAGE   43

         0000002e 00000061 
         0000002f 00000074 
         00000030 00000065 
         00000031 00000064 
         00000032 00000020 
         00000033 00000069 
         00000034 0000006E 
         00000035 00000070 
         00000036 00000075 
         00000037 00000074 
         00000038 00000020 
         00000039 0000007C 
         0000003a 00000020 
         0000003b 0000004F 
         0000003c 00000070 
         0000003d 00000074 
         0000003e 00000020 
         0000003f 00000072 
         00000040 00000065 
         00000041 00000073 
         00000042 00000075 
         00000043 0000006C 
         00000044 00000074 
         00000045 00000073 
         00000046 00000020 
         00000047 00000063 
         00000048 0000006F 
         00000049 0000006D 
         0000004a 00000070 
         0000004b 00000061 
         0000004c 00000072 
         0000004d 00000065 
         0000004e 00000064 
         0000004f 00000020 
         00000050 00000074 
         00000051 0000006F 
         00000052 00000020 
         00000053 0000004E 
         00000054 00000061 
         00000055 00000074 
         00000056 00000043 
         00000057 00000020 
         00000058 00000072 
         00000059 00000065 
         0000005a 00000073 
         0000005b 00000075 
         0000005c 0000006C 
         0000005d 00000074 
         0000005e 00000073 
         0000005f 00000020 
         00000060 0000007C 
    2267 00000061 00000020          .string " num_measurements=%d",0
         00000062 0000006E 
         00000063 00000075 
         00000064 0000006D 
TMS320C6x Assembler PC v7.4.2 Thu Mar 19 12:42:50 2015

Tools Copyright (c) 1996-2012 Texas Instruments Incorporated
package/lib/Regression/regress_d_c/./../packages/ti/vlib/src/VLIB_kalmanFilter_2x4_Predict_S16_F32/VLIB_kalmanFilter_2x4_Predict_S16_F32_d.se66 PAGE   44

         00000065 0000005F 
         00000066 0000006D 
         00000067 00000065 
         00000068 00000061 
         00000069 00000073 
         0000006a 00000075 
         0000006b 00000072 
         0000006c 00000065 
         0000006d 0000006D 
         0000006e 00000065 
         0000006f 0000006E 
         00000070 00000074 
         00000071 00000073 
         00000072 0000003D 
         00000073 00000025 
         00000074 00000064 
         00000075 00000000 
    2268 00000076 0000006E  $C$SL3: .string "num_measurements=%d",0
         00000077 00000075 
         00000078 0000006D 
         00000079 0000005F 
         0000007a 0000006D 
         0000007b 00000065 
         0000007c 00000061 
         0000007d 00000073 
         0000007e 00000075 
         0000007f 00000072 
         00000080 00000065 
         00000081 0000006D 
         00000082 00000065 
         00000083 0000006E 
         00000084 00000074 
         00000085 00000073 
         00000086 0000003D 
         00000087 00000025 
         00000088 00000064 
         00000089 00000000 
    2269 0000008a 0000006E  $C$SL4: .string "number of measurements",0
         0000008b 00000075 
         0000008c 0000006D 
         0000008d 00000062 
         0000008e 00000065 
         0000008f 00000072 
         00000090 00000020 
         00000091 0000006F 
         00000092 00000066 
         00000093 00000020 
         00000094 0000006D 
         00000095 00000065 
         00000096 00000061 
         00000097 00000073 
         00000098 00000075 
         00000099 00000072 
         0000009a 00000065 
         0000009b 0000006D 
TMS320C6x Assembler PC v7.4.2 Thu Mar 19 12:42:50 2015

Tools Copyright (c) 1996-2012 Texas Instruments Incorporated
package/lib/Regression/regress_d_c/./../packages/ti/vlib/src/VLIB_kalmanFilter_2x4_Predict_S16_F32/VLIB_kalmanFilter_2x4_Predict_S16_F32_d.se66 PAGE   45

         0000009c 00000065 
         0000009d 0000006E 
         0000009e 00000074 
         0000009f 00000073 
         000000a0 00000000 
    2270 000000a1 0000004E  $C$SL5: .string "N = number of measurements",0
         000000a2 00000020 
         000000a3 0000003D 
         000000a4 00000020 
         000000a5 0000006E 
         000000a6 00000075 
         000000a7 0000006D 
         000000a8 00000062 
         000000a9 00000065 
         000000aa 00000072 
         000000ab 00000020 
         000000ac 0000006F 
         000000ad 00000066 
         000000ae 00000020 
         000000af 0000006D 
         000000b0 00000065 
         000000b1 00000061 
         000000b2 00000073 
         000000b3 00000075 
         000000b4 00000072 
         000000b5 00000065 
         000000b6 0000006D 
         000000b7 00000065 
         000000b8 0000006E 
         000000b9 00000074 
         000000ba 00000073 
         000000bb 00000000 
    2271 000000bc 0000002D  $C$SL6: .string "-----------------------------------------------------------"
         000000bd 0000002D 
         000000be 0000002D 
         000000bf 0000002D 
         000000c0 0000002D 
         000000c1 0000002D 
         000000c2 0000002D 
         000000c3 0000002D 
         000000c4 0000002D 
         000000c5 0000002D 
         000000c6 0000002D 
         000000c7 0000002D 
         000000c8 0000002D 
         000000c9 0000002D 
         000000ca 0000002D 
         000000cb 0000002D 
         000000cc 0000002D 
         000000cd 0000002D 
         000000ce 0000002D 
         000000cf 0000002D 
         000000d0 0000002D 
         000000d1 0000002D 
         000000d2 0000002D 
TMS320C6x Assembler PC v7.4.2 Thu Mar 19 12:42:50 2015

Tools Copyright (c) 1996-2012 Texas Instruments Incorporated
package/lib/Regression/regress_d_c/./../packages/ti/vlib/src/VLIB_kalmanFilter_2x4_Predict_S16_F32/VLIB_kalmanFilter_2x4_Predict_S16_F32_d.se66 PAGE   46

         000000d3 0000002D 
         000000d4 0000002D 
         000000d5 0000002D 
         000000d6 0000002D 
         000000d7 0000002D 
         000000d8 0000002D 
         000000d9 0000002D 
         000000da 0000002D 
         000000db 0000002D 
         000000dc 0000002D 
         000000dd 0000002D 
         000000de 0000002D 
         000000df 0000002D 
         000000e0 0000002D 
         000000e1 0000002D 
         000000e2 0000002D 
         000000e3 0000002D 
         000000e4 0000002D 
         000000e5 0000002D 
         000000e6 0000002D 
         000000e7 0000002D 
         000000e8 0000002D 
         000000e9 0000002D 
         000000ea 0000002D 
         000000eb 0000002D 
         000000ec 0000002D 
         000000ed 0000002D 
         000000ee 0000002D 
         000000ef 0000002D 
         000000f0 0000002D 
         000000f1 0000002D 
         000000f2 0000002D 
         000000f3 0000002D 
         000000f4 0000002D 
         000000f5 0000002D 
         000000f6 0000002D 
    2272 000000f7 0000002D          .string "-----------------------------------------------------------"
         000000f8 0000002D 
         000000f9 0000002D 
         000000fa 0000002D 
         000000fb 0000002D 
         000000fc 0000002D 
         000000fd 0000002D 
         000000fe 0000002D 
         000000ff 0000002D 
         00000100 0000002D 
         00000101 0000002D 
         00000102 0000002D 
         00000103 0000002D 
         00000104 0000002D 
         00000105 0000002D 
         00000106 0000002D 
         00000107 0000002D 
         00000108 0000002D 
         00000109 0000002D 
TMS320C6x Assembler PC v7.4.2 Thu Mar 19 12:42:50 2015

Tools Copyright (c) 1996-2012 Texas Instruments Incorporated
package/lib/Regression/regress_d_c/./../packages/ti/vlib/src/VLIB_kalmanFilter_2x4_Predict_S16_F32/VLIB_kalmanFilter_2x4_Predict_S16_F32_d.se66 PAGE   47

         0000010a 0000002D 
         0000010b 0000002D 
         0000010c 0000002D 
         0000010d 0000002D 
         0000010e 0000002D 
         0000010f 0000002D 
         00000110 0000002D 
         00000111 0000002D 
         00000112 0000002D 
         00000113 0000002D 
         00000114 0000002D 
         00000115 0000002D 
         00000116 0000002D 
         00000117 0000002D 
         00000118 0000002D 
         00000119 0000002D 
         0000011a 0000002D 
         0000011b 0000002D 
         0000011c 0000002D 
         0000011d 0000002D 
         0000011e 0000002D 
         0000011f 0000002D 
         00000120 0000002D 
         00000121 0000002D 
         00000122 0000002D 
         00000123 0000002D 
         00000124 0000002D 
         00000125 0000002D 
         00000126 0000002D 
         00000127 0000002D 
         00000128 0000002D 
         00000129 0000002D 
         0000012a 0000002D 
         0000012b 0000002D 
         0000012c 0000002D 
         0000012d 0000002D 
         0000012e 0000002D 
         0000012f 0000002D 
         00000130 0000002D 
         00000131 0000002D 
    2273 00000132 0000002D          .string "-----------------------",10,0
         00000133 0000002D 
         00000134 0000002D 
         00000135 0000002D 
         00000136 0000002D 
         00000137 0000002D 
         00000138 0000002D 
         00000139 0000002D 
         0000013a 0000002D 
         0000013b 0000002D 
         0000013c 0000002D 
         0000013d 0000002D 
         0000013e 0000002D 
         0000013f 0000002D 
         00000140 0000002D 
TMS320C6x Assembler PC v7.4.2 Thu Mar 19 12:42:50 2015

Tools Copyright (c) 1996-2012 Texas Instruments Incorporated
package/lib/Regression/regress_d_c/./../packages/ti/vlib/src/VLIB_kalmanFilter_2x4_Predict_S16_F32/VLIB_kalmanFilter_2x4_Predict_S16_F32_d.se66 PAGE   48

         00000141 0000002D 
         00000142 0000002D 
         00000143 0000002D 
         00000144 0000002D 
         00000145 0000002D 
         00000146 0000002D 
         00000147 0000002D 
         00000148 0000002D 
         00000149 0000000A 
         0000014a 00000000 
    2274                    ;*****************************************************************************
    2275                    ;* UNDEFINED EXTERNAL REFERENCES                                             *
    2276                    ;*****************************************************************************
    2277                            .global printf
    2278                            .global sprintf
    2279                            .global memset
    2280                            .global free
    2281                            .global memalign
    2282                            .global VLIB_cache_inval
    2283                            .global VLIB_profile_init
    2284                            .global VLIB_formula_add_test
    2285                            .global VLIB_skip_test
    2286                            .global VLIB_profile_cycle_report
    2287                            .global initStack
    2288                            .global setStackDepth
    2289                            .global getSP
    2290                            .global VLIB_stack_memory
    2291                            .global VLIB_fillBuffer
    2292                            .global VLIB_memalign
    2293                            .global VLIB_align_free
    2294                            .global VLIB_kalmanFilter_2x4_Correct_S16_F32_cn
    2295                            .global VLIB_kalmanFilter_2x4_Predict_S16_F32
    2296                            .global VLIB_kalmanFilter_2x4_Predict_S16_F32_cn
    2297                            .global kalmanFilter_2x4_Predict_S16_F32_getTestParams
    2298                            .global test_cases
    2299                            .global act_kernel
    2300                            .global desc
    2301                            .global testPatternString
    2302                            .global est_test
    2303                            .global beg_count
    2304                            .global end_count
    2305                            .global overhead
    2306                            .global cycles
    2307                    
    2308                    ;******************************************************************************
    2309                    ;* BUILD ATTRIBUTES                                                           *
    2310                    ;******************************************************************************
    2311                            .battr "TI", Tag_File, 1, Tag_Long_Precision_Bits(2)
    2312                            .battr "TI", Tag_File, 1, Tag_Bitfield_layout(2)
    2313                            .battr "TI", Tag_File, 1, Tag_ABI_enum_size(2)
    2314                            .battr "c6xabi", Tag_File, 1, Tag_ABI_wchar_t(1)
    2315                            .battr "c6xabi", Tag_File, 1, Tag_ABI_array_object_alignment(0)
    2316                            .battr "c6xabi", Tag_File, 1, Tag_ABI_array_object_align_expected(0)
    2317                            .battr "c6xabi", Tag_File, 1, Tag_ABI_PIC(0)
    2318                            .battr "c6xabi", Tag_File, 1, Tag_ABI_PID(0)
TMS320C6x Assembler PC v7.4.2 Thu Mar 19 12:42:50 2015

Tools Copyright (c) 1996-2012 Texas Instruments Incorporated
package/lib/Regression/regress_d_c/./../packages/ti/vlib/src/VLIB_kalmanFilter_2x4_Predict_S16_F32/VLIB_kalmanFilter_2x4_Predict_S16_F32_d.se66 PAGE   49

    2319                            .battr "c6xabi", Tag_File, 1, Tag_ABI_DSBT(0)
    2320                            .battr "c6xabi", Tag_File, 1, Tag_ABI_stack_align_needed(0)
    2321                            .battr "c6xabi", Tag_File, 1, Tag_ABI_stack_align_preserved(0)
    2322                            .battr "TI", Tag_File, 1, Tag_Tramps_Use_SOC(1)
    2323                    
    2324                    ;******************************************************************************
    2325                    ;* TYPE INFORMATION                                                           *
    2326                    ;******************************************************************************
    2327                    
    2328                    $C$DW$T$58      .dwtag  DW_TAG_enumeration_type
    2329                            .dwattr $C$DW$T$58, DW_AT_byte_size(0x04)
    2330                    $C$DW$191       .dwtag  DW_TAG_enumerator, DW_AT_name("VLIB_NO_ERROR"), DW_AT_const_value(0x00)
    2331                            .dwattr $C$DW$191, DW_AT_decl_file(".\..\packages\ti\vlib\src\VLIB_kalmanFilter_2x4_Predict_S1
    2332                            .dwattr $C$DW$191, DW_AT_decl_line(0x7a)
    2333                            .dwattr $C$DW$191, DW_AT_decl_column(0x05)
    2334                    $C$DW$192       .dwtag  DW_TAG_enumerator, DW_AT_name("VLIB_ERR_INPUT_INVALID"), DW_AT_const_value(0x0
    2335                            .dwattr $C$DW$192, DW_AT_decl_file(".\..\packages\ti\vlib\src\VLIB_kalmanFilter_2x4_Predict_S1
    2336                            .dwattr $C$DW$192, DW_AT_decl_line(0x7b)
    2337                            .dwattr $C$DW$192, DW_AT_decl_column(0x05)
    2338                    $C$DW$193       .dwtag  DW_TAG_enumerator, DW_AT_name("VLIB_ERR_INPUT_NEGATIVE"), DW_AT_const_value(0x
    2339                            .dwattr $C$DW$193, DW_AT_decl_file(".\..\packages\ti\vlib\src\VLIB_kalmanFilter_2x4_Predict_S1
    2340                            .dwattr $C$DW$193, DW_AT_decl_line(0x7c)
    2341                            .dwattr $C$DW$193, DW_AT_decl_column(0x05)
    2342                    $C$DW$194       .dwtag  DW_TAG_enumerator, DW_AT_name("VLIB_ERR_INPUT_EXCEEDED_RANGE"), DW_AT_const_va
    2343                            .dwattr $C$DW$194, DW_AT_decl_file(".\..\packages\ti\vlib\src\VLIB_kalmanFilter_2x4_Predict_S1
    2344                            .dwattr $C$DW$194, DW_AT_decl_line(0x7d)
    2345                            .dwattr $C$DW$194, DW_AT_decl_column(0x05)
    2346                    $C$DW$195       .dwtag  DW_TAG_enumerator, DW_AT_name("VLIB_ERR_MEMORY_EXCEEDED_BOUNDARY"), DW_AT_cons
    2347                            .dwattr $C$DW$195, DW_AT_decl_file(".\..\packages\ti\vlib\src\VLIB_kalmanFilter_2x4_Predict_S1
    2348                            .dwattr $C$DW$195, DW_AT_decl_line(0x7e)
    2349                            .dwattr $C$DW$195, DW_AT_decl_column(0x05)
    2350                    $C$DW$196       .dwtag  DW_TAG_enumerator, DW_AT_name("VLIB_ERR_MEMORY_ALLOCATION_FAILURE"), DW_AT_con
    2351                            .dwattr $C$DW$196, DW_AT_decl_file(".\..\packages\ti\vlib\src\VLIB_kalmanFilter_2x4_Predict_S1
    2352                            .dwattr $C$DW$196, DW_AT_decl_line(0x7f)
    2353                            .dwattr $C$DW$196, DW_AT_decl_column(0x05)
    2354                    $C$DW$197       .dwtag  DW_TAG_enumerator, DW_AT_name("VLIB_ERR_MEMORY_POINTER_NULL"), DW_AT_const_val
    2355                            .dwattr $C$DW$197, DW_AT_decl_file(".\..\packages\ti\vlib\src\VLIB_kalmanFilter_2x4_Predict_S1
    2356                            .dwattr $C$DW$197, DW_AT_decl_line(0x80)
    2357                            .dwattr $C$DW$197, DW_AT_decl_column(0x05)
    2358                    $C$DW$198       .dwtag  DW_TAG_enumerator, DW_AT_name("VLIB_ERR_DMA_FAILURE"), DW_AT_const_value(0x07)
    2359                            .dwattr $C$DW$198, DW_AT_decl_file(".\..\packages\ti\vlib\src\VLIB_kalmanFilter_2x4_Predict_S1
    2360                            .dwattr $C$DW$198, DW_AT_decl_line(0x81)
    2361                            .dwattr $C$DW$198, DW_AT_decl_column(0x05)
    2362                    $C$DW$199       .dwtag  DW_TAG_enumerator, DW_AT_name("VLIB_ERR_FILE_OPEN_FAILURE"), DW_AT_const_value
    2363                            .dwattr $C$DW$199, DW_AT_decl_file(".\..\packages\ti\vlib\src\VLIB_kalmanFilter_2x4_Predict_S1
    2364                            .dwattr $C$DW$199, DW_AT_decl_line(0x82)
    2365                            .dwattr $C$DW$199, DW_AT_decl_column(0x05)
    2366                    $C$DW$200       .dwtag  DW_TAG_enumerator, DW_AT_name("VLIB_ERR_FILE_READ_FAILURE"), DW_AT_const_value
    2367                            .dwattr $C$DW$200, DW_AT_decl_file(".\..\packages\ti\vlib\src\VLIB_kalmanFilter_2x4_Predict_S1
    2368                            .dwattr $C$DW$200, DW_AT_decl_line(0x83)
    2369                            .dwattr $C$DW$200, DW_AT_decl_column(0x05)
    2370                    $C$DW$201       .dwtag  DW_TAG_enumerator, DW_AT_name("VLIB_ERR_FILE_WRITE_FAILURE"), DW_AT_const_valu
    2371                            .dwattr $C$DW$201, DW_AT_decl_file(".\..\packages\ti\vlib\src\VLIB_kalmanFilter_2x4_Predict_S1
    2372                            .dwattr $C$DW$201, DW_AT_decl_line(0x84)
    2373                            .dwattr $C$DW$201, DW_AT_decl_column(0x05)
TMS320C6x Assembler PC v7.4.2 Thu Mar 19 12:42:50 2015

Tools Copyright (c) 1996-2012 Texas Instruments Incorporated
package/lib/Regression/regress_d_c/./../packages/ti/vlib/src/VLIB_kalmanFilter_2x4_Predict_S16_F32/VLIB_kalmanFilter_2x4_Predict_S16_F32_d.se66 PAGE   50

    2374                    $C$DW$202       .dwtag  DW_TAG_enumerator, DW_AT_name("VLIB_ERR_FILE_CLOSE_FAILURE"), DW_AT_const_valu
    2375                            .dwattr $C$DW$202, DW_AT_decl_file(".\..\packages\ti\vlib\src\VLIB_kalmanFilter_2x4_Predict_S1
    2376                            .dwattr $C$DW$202, DW_AT_decl_line(0x85)
    2377                            .dwattr $C$DW$202, DW_AT_decl_column(0x05)
    2378                    $C$DW$203       .dwtag  DW_TAG_enumerator, DW_AT_name("VLIB_ERR_FILE_FORMAT_FAILURE"), DW_AT_const_val
    2379                            .dwattr $C$DW$203, DW_AT_decl_file(".\..\packages\ti\vlib\src\VLIB_kalmanFilter_2x4_Predict_S1
    2380                            .dwattr $C$DW$203, DW_AT_decl_line(0x86)
    2381                            .dwattr $C$DW$203, DW_AT_decl_column(0x05)
    2382                    $C$DW$204       .dwtag  DW_TAG_enumerator, DW_AT_name("VLIB_WARNING_LOW_MEMORY"), DW_AT_const_value(0x
    2383                            .dwattr $C$DW$204, DW_AT_decl_file(".\..\packages\ti\vlib\src\VLIB_kalmanFilter_2x4_Predict_S1
    2384                            .dwattr $C$DW$204, DW_AT_decl_line(0x87)
    2385                            .dwattr $C$DW$204, DW_AT_decl_column(0x05)
    2386                    $C$DW$205       .dwtag  DW_TAG_enumerator, DW_AT_name("VLIB_ERR_NOT_IMPLEMENTED"), DW_AT_const_value(0
    2387                            .dwattr $C$DW$205, DW_AT_decl_file(".\..\packages\ti\vlib\src\VLIB_kalmanFilter_2x4_Predict_S1
    2388                            .dwattr $C$DW$205, DW_AT_decl_line(0x88)
    2389                            .dwattr $C$DW$205, DW_AT_decl_column(0x05)
    2390                    $C$DW$206       .dwtag  DW_TAG_enumerator, DW_AT_name("VLIB_ERROR_MAX"), DW_AT_const_value(0x0f)
    2391                            .dwattr $C$DW$206, DW_AT_decl_file(".\..\packages\ti\vlib\src\VLIB_kalmanFilter_2x4_Predict_S1
    2392                            .dwattr $C$DW$206, DW_AT_decl_line(0x89)
    2393                            .dwattr $C$DW$206, DW_AT_decl_column(0x05)
    2394                            .dwendtag $C$DW$T$58
    2395                    
    2396                            .dwattr $C$DW$T$58, DW_AT_decl_file(".\..\packages\ti\vlib\src\VLIB_kalmanFilter_2x4_Predict_S
    2397                            .dwattr $C$DW$T$58, DW_AT_decl_line(0x79)
    2398                            .dwattr $C$DW$T$58, DW_AT_decl_column(0x0e)
    2399                    $C$DW$T$59      .dwtag  DW_TAG_typedef, DW_AT_name("VLIB_STATUS")
    2400                            .dwattr $C$DW$T$59, DW_AT_type(*$C$DW$T$58)
    2401                            .dwattr $C$DW$T$59, DW_AT_language(DW_LANG_C)
    2402                            .dwattr $C$DW$T$59, DW_AT_decl_file(".\..\packages\ti\vlib\src\VLIB_kalmanFilter_2x4_Predict_S
    2403                            .dwattr $C$DW$T$59, DW_AT_decl_line(0x8a)
    2404                            .dwattr $C$DW$T$59, DW_AT_decl_column(0x03)
    2405                    
    2406                    $C$DW$T$60      .dwtag  DW_TAG_enumeration_type
    2407                            .dwattr $C$DW$T$60, DW_AT_byte_size(0x04)
    2408                    $C$DW$207       .dwtag  DW_TAG_enumerator, DW_AT_name("vlib_KERNEL_OPT"), DW_AT_const_value(0x00)
    2409                            .dwattr $C$DW$207, DW_AT_decl_file(".\..\packages\ti\vlib\src\VLIB_kalmanFilter_2x4_Predict_S1
    2410                            .dwattr $C$DW$207, DW_AT_decl_line(0x6a)
    2411                            .dwattr $C$DW$207, DW_AT_decl_column(0x05)
    2412                    $C$DW$208       .dwtag  DW_TAG_enumerator, DW_AT_name("vlib_KERNEL_CN"), DW_AT_const_value(0x01)
    2413                            .dwattr $C$DW$208, DW_AT_decl_file(".\..\packages\ti\vlib\src\VLIB_kalmanFilter_2x4_Predict_S1
    2414                            .dwattr $C$DW$208, DW_AT_decl_line(0x6b)
    2415                            .dwattr $C$DW$208, DW_AT_decl_column(0x05)
    2416                    $C$DW$209       .dwtag  DW_TAG_enumerator, DW_AT_name("vlib_KERNEL_CNT"), DW_AT_const_value(0x02)
    2417                            .dwattr $C$DW$209, DW_AT_decl_file(".\..\packages\ti\vlib\src\VLIB_kalmanFilter_2x4_Predict_S1
    2418                            .dwattr $C$DW$209, DW_AT_decl_line(0x6c)
    2419                            .dwattr $C$DW$209, DW_AT_decl_column(0x05)
    2420                            .dwendtag $C$DW$T$60
    2421                    
    2422                            .dwattr $C$DW$T$60, DW_AT_decl_file(".\..\packages\ti\vlib\src\VLIB_kalmanFilter_2x4_Predict_S
    2423                            .dwattr $C$DW$T$60, DW_AT_decl_line(0x69)
    2424                            .dwattr $C$DW$T$60, DW_AT_decl_column(0x06)
    2425                    
    2426                    $C$DW$T$61      .dwtag  DW_TAG_enumeration_type
    2427                            .dwattr $C$DW$T$61, DW_AT_byte_size(0x04)
    2428                    $C$DW$210       .dwtag  DW_TAG_enumerator, DW_AT_name("vlib_KERNEL_FAIL"), DW_AT_const_value(0x00)
TMS320C6x Assembler PC v7.4.2 Thu Mar 19 12:42:50 2015

Tools Copyright (c) 1996-2012 Texas Instruments Incorporated
package/lib/Regression/regress_d_c/./../packages/ti/vlib/src/VLIB_kalmanFilter_2x4_Predict_S16_F32/VLIB_kalmanFilter_2x4_Predict_S16_F32_d.se66 PAGE   51

    2429                            .dwattr $C$DW$210, DW_AT_decl_file(".\..\packages\ti\vlib\src\VLIB_kalmanFilter_2x4_Predict_S1
    2430                            .dwattr $C$DW$210, DW_AT_decl_line(0x72)
    2431                            .dwattr $C$DW$210, DW_AT_decl_column(0x05)
    2432                    $C$DW$211       .dwtag  DW_TAG_enumerator, DW_AT_name("vlib_KERNEL_PASS"), DW_AT_const_value(0x01)
    2433                            .dwattr $C$DW$211, DW_AT_decl_file(".\..\packages\ti\vlib\src\VLIB_kalmanFilter_2x4_Predict_S1
    2434                            .dwattr $C$DW$211, DW_AT_decl_line(0x73)
    2435                            .dwattr $C$DW$211, DW_AT_decl_column(0x05)
    2436                            .dwendtag $C$DW$T$61
    2437                    
    2438                            .dwattr $C$DW$T$61, DW_AT_decl_file(".\..\packages\ti\vlib\src\VLIB_kalmanFilter_2x4_Predict_S
    2439                            .dwattr $C$DW$T$61, DW_AT_decl_line(0x71)
    2440                            .dwattr $C$DW$T$61, DW_AT_decl_column(0x06)
    2441                    
    2442                    $C$DW$T$23      .dwtag  DW_TAG_structure_type
    2443                            .dwattr $C$DW$T$23, DW_AT_byte_size(0x10)
    2444                    $C$DW$212       .dwtag  DW_TAG_member
    2445                            .dwattr $C$DW$212, DW_AT_type(*$C$DW$T$19)
    2446                            .dwattr $C$DW$212, DW_AT_name("testPattern")
    2447                            .dwattr $C$DW$212, DW_AT_TI_symbol_name("testPattern")
    2448                            .dwattr $C$DW$212, DW_AT_data_member_location[DW_OP_plus_uconst 0x0]
    2449                            .dwattr $C$DW$212, DW_AT_accessibility(DW_ACCESS_public)
    2450                            .dwattr $C$DW$212, DW_AT_decl_file(".\..\packages\ti\vlib\src\VLIB_kalmanFilter_2x4_Predict_S1
    2451                            .dwattr $C$DW$212, DW_AT_decl_line(0x24)
    2452                            .dwattr $C$DW$212, DW_AT_decl_column(0x0f)
    2453                    $C$DW$213       .dwtag  DW_TAG_member
    2454                            .dwattr $C$DW$213, DW_AT_type(*$C$DW$T$21)
    2455                            .dwattr $C$DW$213, DW_AT_name("staticIn")
    2456                            .dwattr $C$DW$213, DW_AT_TI_symbol_name("staticIn")
    2457                            .dwattr $C$DW$213, DW_AT_data_member_location[DW_OP_plus_uconst 0x4]
    2458                            .dwattr $C$DW$213, DW_AT_accessibility(DW_ACCESS_public)
    2459                            .dwattr $C$DW$213, DW_AT_decl_file(".\..\packages\ti\vlib\src\VLIB_kalmanFilter_2x4_Predict_S1
    2460                            .dwattr $C$DW$213, DW_AT_decl_line(0x25)
    2461                            .dwattr $C$DW$213, DW_AT_decl_column(0x0f)
    2462                    $C$DW$214       .dwtag  DW_TAG_member
    2463                            .dwattr $C$DW$214, DW_AT_type(*$C$DW$T$21)
    2464                            .dwattr $C$DW$214, DW_AT_name("staticOut")
    2465                            .dwattr $C$DW$214, DW_AT_TI_symbol_name("staticOut")
    2466                            .dwattr $C$DW$214, DW_AT_data_member_location[DW_OP_plus_uconst 0x8]
    2467                            .dwattr $C$DW$214, DW_AT_accessibility(DW_ACCESS_public)
    2468                            .dwattr $C$DW$214, DW_AT_decl_file(".\..\packages\ti\vlib\src\VLIB_kalmanFilter_2x4_Predict_S1
    2469                            .dwattr $C$DW$214, DW_AT_decl_line(0x26)
    2470                            .dwattr $C$DW$214, DW_AT_decl_column(0x0f)
    2471                    $C$DW$215       .dwtag  DW_TAG_member
    2472                            .dwattr $C$DW$215, DW_AT_type(*$C$DW$T$22)
    2473                            .dwattr $C$DW$215, DW_AT_name("numMeasurements")
    2474                            .dwattr $C$DW$215, DW_AT_TI_symbol_name("numMeasurements")
    2475                            .dwattr $C$DW$215, DW_AT_data_member_location[DW_OP_plus_uconst 0xc]
    2476                            .dwattr $C$DW$215, DW_AT_accessibility(DW_ACCESS_public)
    2477                            .dwattr $C$DW$215, DW_AT_decl_file(".\..\packages\ti\vlib\src\VLIB_kalmanFilter_2x4_Predict_S1
    2478                            .dwattr $C$DW$215, DW_AT_decl_line(0x27)
    2479                            .dwattr $C$DW$215, DW_AT_decl_column(0x0f)
    2480                            .dwendtag $C$DW$T$23
    2481                    
    2482                            .dwattr $C$DW$T$23, DW_AT_decl_file(".\..\packages\ti\vlib\src\VLIB_kalmanFilter_2x4_Predict_S
    2483                            .dwattr $C$DW$T$23, DW_AT_decl_line(0x23)
TMS320C6x Assembler PC v7.4.2 Thu Mar 19 12:42:50 2015

Tools Copyright (c) 1996-2012 Texas Instruments Incorporated
package/lib/Regression/regress_d_c/./../packages/ti/vlib/src/VLIB_kalmanFilter_2x4_Predict_S16_F32/VLIB_kalmanFilter_2x4_Predict_S16_F32_d.se66 PAGE   52

    2484                            .dwattr $C$DW$T$23, DW_AT_decl_column(0x10)
    2485                    $C$DW$T$62      .dwtag  DW_TAG_pointer_type
    2486                            .dwattr $C$DW$T$62, DW_AT_type(*$C$DW$T$23)
    2487                            .dwattr $C$DW$T$62, DW_AT_address_class(0x20)
    2488                    $C$DW$T$64      .dwtag  DW_TAG_typedef, DW_AT_name("kalmanFilter_2x4_Predict_S16_F32_testParams_t")
    2489                            .dwattr $C$DW$T$64, DW_AT_type(*$C$DW$T$23)
    2490                            .dwattr $C$DW$T$64, DW_AT_language(DW_LANG_C)
    2491                            .dwattr $C$DW$T$64, DW_AT_decl_file(".\..\packages\ti\vlib\src\VLIB_kalmanFilter_2x4_Predict_S
    2492                            .dwattr $C$DW$T$64, DW_AT_decl_line(0x28)
    2493                            .dwattr $C$DW$T$64, DW_AT_decl_column(0x03)
    2494                    $C$DW$T$65      .dwtag  DW_TAG_pointer_type
    2495                            .dwattr $C$DW$T$65, DW_AT_type(*$C$DW$T$64)
    2496                            .dwattr $C$DW$T$65, DW_AT_address_class(0x20)
    2497                    $C$DW$T$66      .dwtag  DW_TAG_pointer_type
    2498                            .dwattr $C$DW$T$66, DW_AT_type(*$C$DW$T$65)
    2499                            .dwattr $C$DW$T$66, DW_AT_address_class(0x20)
    2500                    
    2501                    $C$DW$T$25      .dwtag  DW_TAG_structure_type
    2502                            .dwattr $C$DW$T$25, DW_AT_byte_size(0x18)
    2503                    $C$DW$216       .dwtag  DW_TAG_member
    2504                            .dwattr $C$DW$216, DW_AT_type(*$C$DW$T$10)
    2505                            .dwattr $C$DW$216, DW_AT_name("fd")
    2506                            .dwattr $C$DW$216, DW_AT_TI_symbol_name("fd")
    2507                            .dwattr $C$DW$216, DW_AT_data_member_location[DW_OP_plus_uconst 0x0]
    2508                            .dwattr $C$DW$216, DW_AT_accessibility(DW_ACCESS_public)
    2509                            .dwattr $C$DW$216, DW_AT_decl_file("C:/VLIB_Tools/CCSV5_4_0/ccsv5/tools/compiler/C6000/include
    2510                            .dwattr $C$DW$216, DW_AT_decl_line(0x49)
    2511                            .dwattr $C$DW$216, DW_AT_decl_column(0x0b)
    2512                    $C$DW$217       .dwtag  DW_TAG_member
    2513                            .dwattr $C$DW$217, DW_AT_type(*$C$DW$T$24)
    2514                            .dwattr $C$DW$217, DW_AT_name("buf")
    2515                            .dwattr $C$DW$217, DW_AT_TI_symbol_name("buf")
    2516                            .dwattr $C$DW$217, DW_AT_data_member_location[DW_OP_plus_uconst 0x4]
    2517                            .dwattr $C$DW$217, DW_AT_accessibility(DW_ACCESS_public)
    2518                            .dwattr $C$DW$217, DW_AT_decl_file("C:/VLIB_Tools/CCSV5_4_0/ccsv5/tools/compiler/C6000/include
    2519                            .dwattr $C$DW$217, DW_AT_decl_line(0x4a)
    2520                            .dwattr $C$DW$217, DW_AT_decl_column(0x16)
    2521                    $C$DW$218       .dwtag  DW_TAG_member
    2522                            .dwattr $C$DW$218, DW_AT_type(*$C$DW$T$24)
    2523                            .dwattr $C$DW$218, DW_AT_name("pos")
    2524                            .dwattr $C$DW$218, DW_AT_TI_symbol_name("pos")
    2525                            .dwattr $C$DW$218, DW_AT_data_member_location[DW_OP_plus_uconst 0x8]
    2526                            .dwattr $C$DW$218, DW_AT_accessibility(DW_ACCESS_public)
    2527                            .dwattr $C$DW$218, DW_AT_decl_file("C:/VLIB_Tools/CCSV5_4_0/ccsv5/tools/compiler/C6000/include
    2528                            .dwattr $C$DW$218, DW_AT_decl_line(0x4b)
    2529                            .dwattr $C$DW$218, DW_AT_decl_column(0x16)
    2530                    $C$DW$219       .dwtag  DW_TAG_member
    2531                            .dwattr $C$DW$219, DW_AT_type(*$C$DW$T$24)
    2532                            .dwattr $C$DW$219, DW_AT_name("bufend")
    2533                            .dwattr $C$DW$219, DW_AT_TI_symbol_name("bufend")
    2534                            .dwattr $C$DW$219, DW_AT_data_member_location[DW_OP_plus_uconst 0xc]
    2535                            .dwattr $C$DW$219, DW_AT_accessibility(DW_ACCESS_public)
    2536                            .dwattr $C$DW$219, DW_AT_decl_file("C:/VLIB_Tools/CCSV5_4_0/ccsv5/tools/compiler/C6000/include
    2537                            .dwattr $C$DW$219, DW_AT_decl_line(0x4c)
    2538                            .dwattr $C$DW$219, DW_AT_decl_column(0x16)
TMS320C6x Assembler PC v7.4.2 Thu Mar 19 12:42:50 2015

Tools Copyright (c) 1996-2012 Texas Instruments Incorporated
package/lib/Regression/regress_d_c/./../packages/ti/vlib/src/VLIB_kalmanFilter_2x4_Predict_S16_F32/VLIB_kalmanFilter_2x4_Predict_S16_F32_d.se66 PAGE   53

    2539                    $C$DW$220       .dwtag  DW_TAG_member
    2540                            .dwattr $C$DW$220, DW_AT_type(*$C$DW$T$24)
    2541                            .dwattr $C$DW$220, DW_AT_name("buff_stop")
    2542                            .dwattr $C$DW$220, DW_AT_TI_symbol_name("buff_stop")
    2543                            .dwattr $C$DW$220, DW_AT_data_member_location[DW_OP_plus_uconst 0x10]
    2544                            .dwattr $C$DW$220, DW_AT_accessibility(DW_ACCESS_public)
    2545                            .dwattr $C$DW$220, DW_AT_decl_file("C:/VLIB_Tools/CCSV5_4_0/ccsv5/tools/compiler/C6000/include
    2546                            .dwattr $C$DW$220, DW_AT_decl_line(0x4d)
    2547                            .dwattr $C$DW$220, DW_AT_decl_column(0x16)
    2548                    $C$DW$221       .dwtag  DW_TAG_member
    2549                            .dwattr $C$DW$221, DW_AT_type(*$C$DW$T$11)
    2550                            .dwattr $C$DW$221, DW_AT_name("flags")
    2551                            .dwattr $C$DW$221, DW_AT_TI_symbol_name("flags")
    2552                            .dwattr $C$DW$221, DW_AT_data_member_location[DW_OP_plus_uconst 0x14]
    2553                            .dwattr $C$DW$221, DW_AT_accessibility(DW_ACCESS_public)
    2554                            .dwattr $C$DW$221, DW_AT_decl_file("C:/VLIB_Tools/CCSV5_4_0/ccsv5/tools/compiler/C6000/include
    2555                            .dwattr $C$DW$221, DW_AT_decl_line(0x4e)
    2556                            .dwattr $C$DW$221, DW_AT_decl_column(0x16)
    2557                            .dwendtag $C$DW$T$25
    2558                    
    2559                            .dwattr $C$DW$T$25, DW_AT_decl_file("C:/VLIB_Tools/CCSV5_4_0/ccsv5/tools/compiler/C6000/includ
    2560                            .dwattr $C$DW$T$25, DW_AT_decl_line(0x48)
    2561                            .dwattr $C$DW$T$25, DW_AT_decl_column(0x10)
    2562                    $C$DW$T$67      .dwtag  DW_TAG_typedef, DW_AT_name("FILE")
    2563                            .dwattr $C$DW$T$67, DW_AT_type(*$C$DW$T$25)
    2564                            .dwattr $C$DW$T$67, DW_AT_language(DW_LANG_C)
    2565                            .dwattr $C$DW$T$67, DW_AT_decl_file("C:/VLIB_Tools/CCSV5_4_0/ccsv5/tools/compiler/C6000/includ
    2566                            .dwattr $C$DW$T$67, DW_AT_decl_line(0x4f)
    2567                            .dwattr $C$DW$T$67, DW_AT_decl_column(0x03)
    2568                    
    2569                    $C$DW$T$26      .dwtag  DW_TAG_structure_type
    2570                            .dwattr $C$DW$T$26, DW_AT_byte_size(0x08)
    2571                    $C$DW$222       .dwtag  DW_TAG_member
    2572                            .dwattr $C$DW$222, DW_AT_type(*$C$DW$T$10)
    2573                            .dwattr $C$DW$222, DW_AT_name("quot")
    2574                            .dwattr $C$DW$222, DW_AT_TI_symbol_name("quot")
    2575                            .dwattr $C$DW$222, DW_AT_data_member_location[DW_OP_plus_uconst 0x0]
    2576                            .dwattr $C$DW$222, DW_AT_accessibility(DW_ACCESS_public)
    2577                            .dwattr $C$DW$222, DW_AT_decl_file("C:/VLIB_Tools/CCSV5_4_0/ccsv5/tools/compiler/C6000/include
    2578                            .dwattr $C$DW$222, DW_AT_decl_line(0x3e)
    2579                            .dwattr $C$DW$222, DW_AT_decl_column(0x16)
    2580                    $C$DW$223       .dwtag  DW_TAG_member
    2581                            .dwattr $C$DW$223, DW_AT_type(*$C$DW$T$10)
    2582                            .dwattr $C$DW$223, DW_AT_name("rem")
    2583                            .dwattr $C$DW$223, DW_AT_TI_symbol_name("rem")
    2584                            .dwattr $C$DW$223, DW_AT_data_member_location[DW_OP_plus_uconst 0x4]
    2585                            .dwattr $C$DW$223, DW_AT_accessibility(DW_ACCESS_public)
    2586                            .dwattr $C$DW$223, DW_AT_decl_file("C:/VLIB_Tools/CCSV5_4_0/ccsv5/tools/compiler/C6000/include
    2587                            .dwattr $C$DW$223, DW_AT_decl_line(0x3e)
    2588                            .dwattr $C$DW$223, DW_AT_decl_column(0x1c)
    2589                            .dwendtag $C$DW$T$26
    2590                    
    2591                            .dwattr $C$DW$T$26, DW_AT_decl_file("C:/VLIB_Tools/CCSV5_4_0/ccsv5/tools/compiler/C6000/includ
    2592                            .dwattr $C$DW$T$26, DW_AT_decl_line(0x3e)
    2593                            .dwattr $C$DW$T$26, DW_AT_decl_column(0x10)
TMS320C6x Assembler PC v7.4.2 Thu Mar 19 12:42:50 2015

Tools Copyright (c) 1996-2012 Texas Instruments Incorporated
package/lib/Regression/regress_d_c/./../packages/ti/vlib/src/VLIB_kalmanFilter_2x4_Predict_S16_F32/VLIB_kalmanFilter_2x4_Predict_S16_F32_d.se66 PAGE   54

    2594                    $C$DW$T$68      .dwtag  DW_TAG_typedef, DW_AT_name("div_t")
    2595                            .dwattr $C$DW$T$68, DW_AT_type(*$C$DW$T$26)
    2596                            .dwattr $C$DW$T$68, DW_AT_language(DW_LANG_C)
    2597                            .dwattr $C$DW$T$68, DW_AT_decl_file("C:/VLIB_Tools/CCSV5_4_0/ccsv5/tools/compiler/C6000/includ
    2598                            .dwattr $C$DW$T$68, DW_AT_decl_line(0x3e)
    2599                            .dwattr $C$DW$T$68, DW_AT_decl_column(0x23)
    2600                    
    2601                    $C$DW$T$27      .dwtag  DW_TAG_structure_type
    2602                            .dwattr $C$DW$T$27, DW_AT_byte_size(0x08)
    2603                    $C$DW$224       .dwtag  DW_TAG_member
    2604                            .dwattr $C$DW$224, DW_AT_type(*$C$DW$T$10)
    2605                            .dwattr $C$DW$224, DW_AT_name("quot")
    2606                            .dwattr $C$DW$224, DW_AT_TI_symbol_name("quot")
    2607                            .dwattr $C$DW$224, DW_AT_data_member_location[DW_OP_plus_uconst 0x0]
    2608                            .dwattr $C$DW$224, DW_AT_accessibility(DW_ACCESS_public)
    2609                            .dwattr $C$DW$224, DW_AT_decl_file("C:/VLIB_Tools/CCSV5_4_0/ccsv5/tools/compiler/C6000/include
    2610                            .dwattr $C$DW$224, DW_AT_decl_line(0x40)
    2611                            .dwattr $C$DW$224, DW_AT_decl_column(0x17)
    2612                    $C$DW$225       .dwtag  DW_TAG_member
    2613                            .dwattr $C$DW$225, DW_AT_type(*$C$DW$T$10)
    2614                            .dwattr $C$DW$225, DW_AT_name("rem")
    2615                            .dwattr $C$DW$225, DW_AT_TI_symbol_name("rem")
    2616                            .dwattr $C$DW$225, DW_AT_data_member_location[DW_OP_plus_uconst 0x4]
    2617                            .dwattr $C$DW$225, DW_AT_accessibility(DW_ACCESS_public)
    2618                            .dwattr $C$DW$225, DW_AT_decl_file("C:/VLIB_Tools/CCSV5_4_0/ccsv5/tools/compiler/C6000/include
    2619                            .dwattr $C$DW$225, DW_AT_decl_line(0x40)
    2620                            .dwattr $C$DW$225, DW_AT_decl_column(0x1d)
    2621                            .dwendtag $C$DW$T$27
    2622                    
    2623                            .dwattr $C$DW$T$27, DW_AT_decl_file("C:/VLIB_Tools/CCSV5_4_0/ccsv5/tools/compiler/C6000/includ
    2624                            .dwattr $C$DW$T$27, DW_AT_decl_line(0x40)
    2625                            .dwattr $C$DW$T$27, DW_AT_decl_column(0x10)
    2626                    $C$DW$T$69      .dwtag  DW_TAG_typedef, DW_AT_name("ldiv_t")
    2627                            .dwattr $C$DW$T$69, DW_AT_type(*$C$DW$T$27)
    2628                            .dwattr $C$DW$T$69, DW_AT_language(DW_LANG_C)
    2629                            .dwattr $C$DW$T$69, DW_AT_decl_file("C:/VLIB_Tools/CCSV5_4_0/ccsv5/tools/compiler/C6000/includ
    2630                            .dwattr $C$DW$T$69, DW_AT_decl_line(0x40)
    2631                            .dwattr $C$DW$T$69, DW_AT_decl_column(0x24)
    2632                    
    2633                    $C$DW$T$28      .dwtag  DW_TAG_structure_type
    2634                            .dwattr $C$DW$T$28, DW_AT_byte_size(0x10)
    2635                    $C$DW$226       .dwtag  DW_TAG_member
    2636                            .dwattr $C$DW$226, DW_AT_type(*$C$DW$T$14)
    2637                            .dwattr $C$DW$226, DW_AT_name("quot")
    2638                            .dwattr $C$DW$226, DW_AT_TI_symbol_name("quot")
    2639                            .dwattr $C$DW$226, DW_AT_data_member_location[DW_OP_plus_uconst 0x0]
    2640                            .dwattr $C$DW$226, DW_AT_accessibility(DW_ACCESS_public)
    2641                            .dwattr $C$DW$226, DW_AT_decl_file("C:/VLIB_Tools/CCSV5_4_0/ccsv5/tools/compiler/C6000/include
    2642                            .dwattr $C$DW$226, DW_AT_decl_line(0x43)
    2643                            .dwattr $C$DW$226, DW_AT_decl_column(0x1c)
    2644                    $C$DW$227       .dwtag  DW_TAG_member
    2645                            .dwattr $C$DW$227, DW_AT_type(*$C$DW$T$14)
    2646                            .dwattr $C$DW$227, DW_AT_name("rem")
    2647                            .dwattr $C$DW$227, DW_AT_TI_symbol_name("rem")
    2648                            .dwattr $C$DW$227, DW_AT_data_member_location[DW_OP_plus_uconst 0x8]
TMS320C6x Assembler PC v7.4.2 Thu Mar 19 12:42:50 2015

Tools Copyright (c) 1996-2012 Texas Instruments Incorporated
package/lib/Regression/regress_d_c/./../packages/ti/vlib/src/VLIB_kalmanFilter_2x4_Predict_S16_F32/VLIB_kalmanFilter_2x4_Predict_S16_F32_d.se66 PAGE   55

    2649                            .dwattr $C$DW$227, DW_AT_accessibility(DW_ACCESS_public)
    2650                            .dwattr $C$DW$227, DW_AT_decl_file("C:/VLIB_Tools/CCSV5_4_0/ccsv5/tools/compiler/C6000/include
    2651                            .dwattr $C$DW$227, DW_AT_decl_line(0x43)
    2652                            .dwattr $C$DW$227, DW_AT_decl_column(0x22)
    2653                            .dwendtag $C$DW$T$28
    2654                    
    2655                            .dwattr $C$DW$T$28, DW_AT_decl_file("C:/VLIB_Tools/CCSV5_4_0/ccsv5/tools/compiler/C6000/includ
    2656                            .dwattr $C$DW$T$28, DW_AT_decl_line(0x43)
    2657                            .dwattr $C$DW$T$28, DW_AT_decl_column(0x10)
    2658                    $C$DW$T$70      .dwtag  DW_TAG_typedef, DW_AT_name("lldiv_t")
    2659                            .dwattr $C$DW$T$70, DW_AT_type(*$C$DW$T$28)
    2660                            .dwattr $C$DW$T$70, DW_AT_language(DW_LANG_C)
    2661                            .dwattr $C$DW$T$70, DW_AT_decl_file("C:/VLIB_Tools/CCSV5_4_0/ccsv5/tools/compiler/C6000/includ
    2662                            .dwattr $C$DW$T$70, DW_AT_decl_line(0x43)
    2663                            .dwattr $C$DW$T$70, DW_AT_decl_column(0x29)
    2664                    
    2665                    $C$DW$T$30      .dwtag  DW_TAG_structure_type
    2666                            .dwattr $C$DW$T$30, DW_AT_byte_size(0x24)
    2667                    $C$DW$228       .dwtag  DW_TAG_member
    2668                            .dwattr $C$DW$228, DW_AT_type(*$C$DW$T$29)
    2669                            .dwattr $C$DW$228, DW_AT_name("area")
    2670                            .dwattr $C$DW$228, DW_AT_TI_symbol_name("area")
    2671                            .dwattr $C$DW$228, DW_AT_data_member_location[DW_OP_plus_uconst 0x0]
    2672                            .dwattr $C$DW$228, DW_AT_accessibility(DW_ACCESS_public)
    2673                            .dwattr $C$DW$228, DW_AT_decl_file(".\..\packages\ti\vlib\src\VLIB_kalmanFilter_2x4_Predict_S1
    2674                            .dwattr $C$DW$228, DW_AT_decl_line(0x69)
    2675                            .dwattr $C$DW$228, DW_AT_decl_column(0x0d)
    2676                    $C$DW$229       .dwtag  DW_TAG_member
    2677                            .dwattr $C$DW$229, DW_AT_type(*$C$DW$T$29)
    2678                            .dwattr $C$DW$229, DW_AT_name("xsum")
    2679                            .dwattr $C$DW$229, DW_AT_TI_symbol_name("xsum")
    2680                            .dwattr $C$DW$229, DW_AT_data_member_location[DW_OP_plus_uconst 0x4]
    2681                            .dwattr $C$DW$229, DW_AT_accessibility(DW_ACCESS_public)
    2682                            .dwattr $C$DW$229, DW_AT_decl_file(".\..\packages\ti\vlib\src\VLIB_kalmanFilter_2x4_Predict_S1
    2683                            .dwattr $C$DW$229, DW_AT_decl_line(0x6a)
    2684                            .dwattr $C$DW$229, DW_AT_decl_column(0x0d)
    2685                    $C$DW$230       .dwtag  DW_TAG_member
    2686                            .dwattr $C$DW$230, DW_AT_type(*$C$DW$T$29)
    2687                            .dwattr $C$DW$230, DW_AT_name("ysum")
    2688                            .dwattr $C$DW$230, DW_AT_TI_symbol_name("ysum")
    2689                            .dwattr $C$DW$230, DW_AT_data_member_location[DW_OP_plus_uconst 0x8]
    2690                            .dwattr $C$DW$230, DW_AT_accessibility(DW_ACCESS_public)
    2691                            .dwattr $C$DW$230, DW_AT_decl_file(".\..\packages\ti\vlib\src\VLIB_kalmanFilter_2x4_Predict_S1
    2692                            .dwattr $C$DW$230, DW_AT_decl_line(0x6b)
    2693                            .dwattr $C$DW$230, DW_AT_decl_column(0x0d)
    2694                    $C$DW$231       .dwtag  DW_TAG_member
    2695                            .dwattr $C$DW$231, DW_AT_type(*$C$DW$T$29)
    2696                            .dwattr $C$DW$231, DW_AT_name("xmin")
    2697                            .dwattr $C$DW$231, DW_AT_TI_symbol_name("xmin")
    2698                            .dwattr $C$DW$231, DW_AT_data_member_location[DW_OP_plus_uconst 0xc]
    2699                            .dwattr $C$DW$231, DW_AT_accessibility(DW_ACCESS_public)
    2700                            .dwattr $C$DW$231, DW_AT_decl_file(".\..\packages\ti\vlib\src\VLIB_kalmanFilter_2x4_Predict_S1
    2701                            .dwattr $C$DW$231, DW_AT_decl_line(0x6d)
    2702                            .dwattr $C$DW$231, DW_AT_decl_column(0x0d)
    2703                    $C$DW$232       .dwtag  DW_TAG_member
TMS320C6x Assembler PC v7.4.2 Thu Mar 19 12:42:50 2015

Tools Copyright (c) 1996-2012 Texas Instruments Incorporated
package/lib/Regression/regress_d_c/./../packages/ti/vlib/src/VLIB_kalmanFilter_2x4_Predict_S16_F32/VLIB_kalmanFilter_2x4_Predict_S16_F32_d.se66 PAGE   56

    2704                            .dwattr $C$DW$232, DW_AT_type(*$C$DW$T$29)
    2705                            .dwattr $C$DW$232, DW_AT_name("ymin")
    2706                            .dwattr $C$DW$232, DW_AT_TI_symbol_name("ymin")
    2707                            .dwattr $C$DW$232, DW_AT_data_member_location[DW_OP_plus_uconst 0x10]
    2708                            .dwattr $C$DW$232, DW_AT_accessibility(DW_ACCESS_public)
    2709                            .dwattr $C$DW$232, DW_AT_decl_file(".\..\packages\ti\vlib\src\VLIB_kalmanFilter_2x4_Predict_S1
    2710                            .dwattr $C$DW$232, DW_AT_decl_line(0x6e)
    2711                            .dwattr $C$DW$232, DW_AT_decl_column(0x0d)
    2712                    $C$DW$233       .dwtag  DW_TAG_member
    2713                            .dwattr $C$DW$233, DW_AT_type(*$C$DW$T$29)
    2714                            .dwattr $C$DW$233, DW_AT_name("xmax")
    2715                            .dwattr $C$DW$233, DW_AT_TI_symbol_name("xmax")
    2716                            .dwattr $C$DW$233, DW_AT_data_member_location[DW_OP_plus_uconst 0x14]
    2717                            .dwattr $C$DW$233, DW_AT_accessibility(DW_ACCESS_public)
    2718                            .dwattr $C$DW$233, DW_AT_decl_file(".\..\packages\ti\vlib\src\VLIB_kalmanFilter_2x4_Predict_S1
    2719                            .dwattr $C$DW$233, DW_AT_decl_line(0x6f)
    2720                            .dwattr $C$DW$233, DW_AT_decl_column(0x0d)
    2721                    $C$DW$234       .dwtag  DW_TAG_member
    2722                            .dwattr $C$DW$234, DW_AT_type(*$C$DW$T$29)
    2723                            .dwattr $C$DW$234, DW_AT_name("ymax")
    2724                            .dwattr $C$DW$234, DW_AT_TI_symbol_name("ymax")
    2725                            .dwattr $C$DW$234, DW_AT_data_member_location[DW_OP_plus_uconst 0x18]
    2726                            .dwattr $C$DW$234, DW_AT_accessibility(DW_ACCESS_public)
    2727                            .dwattr $C$DW$234, DW_AT_decl_file(".\..\packages\ti\vlib\src\VLIB_kalmanFilter_2x4_Predict_S1
    2728                            .dwattr $C$DW$234, DW_AT_decl_line(0x70)
    2729                            .dwattr $C$DW$234, DW_AT_decl_column(0x0d)
    2730                    $C$DW$235       .dwtag  DW_TAG_member
    2731                            .dwattr $C$DW$235, DW_AT_type(*$C$DW$T$29)
    2732                            .dwattr $C$DW$235, DW_AT_name("seedx")
    2733                            .dwattr $C$DW$235, DW_AT_TI_symbol_name("seedx")
    2734                            .dwattr $C$DW$235, DW_AT_data_member_location[DW_OP_plus_uconst 0x1c]
    2735                            .dwattr $C$DW$235, DW_AT_accessibility(DW_ACCESS_public)
    2736                            .dwattr $C$DW$235, DW_AT_decl_file(".\..\packages\ti\vlib\src\VLIB_kalmanFilter_2x4_Predict_S1
    2737                            .dwattr $C$DW$235, DW_AT_decl_line(0x72)
    2738                            .dwattr $C$DW$235, DW_AT_decl_column(0x0d)
    2739                    $C$DW$236       .dwtag  DW_TAG_member
    2740                            .dwattr $C$DW$236, DW_AT_type(*$C$DW$T$29)
    2741                            .dwattr $C$DW$236, DW_AT_name("seedy")
    2742                            .dwattr $C$DW$236, DW_AT_TI_symbol_name("seedy")
    2743                            .dwattr $C$DW$236, DW_AT_data_member_location[DW_OP_plus_uconst 0x20]
    2744                            .dwattr $C$DW$236, DW_AT_accessibility(DW_ACCESS_public)
    2745                            .dwattr $C$DW$236, DW_AT_decl_file(".\..\packages\ti\vlib\src\VLIB_kalmanFilter_2x4_Predict_S1
    2746                            .dwattr $C$DW$236, DW_AT_decl_line(0x73)
    2747                            .dwattr $C$DW$236, DW_AT_decl_column(0x0d)
    2748                            .dwendtag $C$DW$T$30
    2749                    
    2750                            .dwattr $C$DW$T$30, DW_AT_decl_file(".\..\packages\ti\vlib\src\VLIB_kalmanFilter_2x4_Predict_S
