TMS320C6x Assembler PC v7.4.2 Thu Mar 19 12:41:52 2015

Tools Copyright (c) 1996-2012 Texas Instruments Incorporated
package/lib/Regression/regress_d_c/./../packages/ti/vlib/src/VLIB_histogram_nD_U16/VLIB_histogram_nD_U16_d.se66 PAGE    1

       1                    ;******************************************************************************
       2                    ;* TMS320C6x C/C++ Codegen                                          PC v7.4.2 *
       3                    ;* Date/Time created: Thu Mar 19 12:41:51 2015                                *
       4                    ;******************************************************************************
       5                            .compiler_opts --abi=eabi --c64p_l1d_workaround=off --endian=little --hll_source=on --long_pre
       6                    
       7                    ;******************************************************************************
       8                    ;* GLOBAL FILE PARAMETERS                                                     *
       9                    ;*                                                                            *
      10                    ;*   Architecture      : TMS320C66xx                                          *
      11                    ;*   Optimization      : Enabled at level 3                                   *
      12                    ;*   Optimizing for    : Speed                                                *
      13                    ;*                       Based on options: -o3, no -ms                        *
      14                    ;*   Endian            : Little                                               *
      15                    ;*   Interrupt Thrshld : 10000                                                *
      16                    ;*   Data Access Model : Far                                                  *
      17                    ;*   Pipelining        : Enabled                                              *
      18                    ;*   Speculate Loads   : Enabled with threshold = 0                           *
      19                    ;*   Memory Aliases    : Presume are aliases (pessimistic)                    *
      20                    ;*   Debug Info        : DWARF Debug w/Optimization                           *
      21                    ;*                                                                            *
      22                    ;******************************************************************************
      23                    
      24                            .asg    A15, FP
      25                            .asg    B14, DP
      26                            .asg    B15, SP
      27                            .global $bss
      28                    
      29                    
      30                    $C$DW$CU        .dwtag  DW_TAG_compile_unit
      31                            .dwattr $C$DW$CU, DW_AT_name("./../packages/ti/vlib/src/VLIB_histogram_nD_U16/VLIB_histogram_n
      32                            .dwattr $C$DW$CU, DW_AT_producer("TI TMS320C6x C/C++ Codegen PC v7.4.2 Copyright (c) 1996-2012
      33                            .dwattr $C$DW$CU, DW_AT_TI_version(0x01)
      34                            .dwattr $C$DW$CU, DW_AT_comp_dir("c:\nightlybuilds\vlib\ti\vlib\vlib\examples")
      35                    
      36                    $C$DW$1 .dwtag  DW_TAG_subprogram, DW_AT_name("_itoll")
      37                            .dwattr $C$DW$1, DW_AT_TI_symbol_name("_itoll")
      38                            .dwattr $C$DW$1, DW_AT_type(*$C$DW$T$14)
      39                            .dwattr $C$DW$1, DW_AT_declaration
      40                            .dwattr $C$DW$1, DW_AT_external
      41                            .dwattr $C$DW$1, DW_AT_decl_file("C:/VLIB_Tools/CCSV5_4_0/ccsv5/tools/compiler/C6000/include/c
      42                            .dwattr $C$DW$1, DW_AT_decl_line(0xdf)
      43                            .dwattr $C$DW$1, DW_AT_decl_column(0x0b)
      44                    $C$DW$2 .dwtag  DW_TAG_formal_parameter
      45                            .dwattr $C$DW$2, DW_AT_type(*$C$DW$T$11)
      46                    $C$DW$3 .dwtag  DW_TAG_formal_parameter
      47                            .dwattr $C$DW$3, DW_AT_type(*$C$DW$T$11)
      48                            .dwendtag $C$DW$1
      49                    
      50                    
      51                    $C$DW$4 .dwtag  DW_TAG_subprogram, DW_AT_name("printf")
      52                            .dwattr $C$DW$4, DW_AT_TI_symbol_name("printf")
      53                            .dwattr $C$DW$4, DW_AT_type(*$C$DW$T$10)
      54                            .dwattr $C$DW$4, DW_AT_declaration
      55                            .dwattr $C$DW$4, DW_AT_external
TMS320C6x Assembler PC v7.4.2 Thu Mar 19 12:41:52 2015

Tools Copyright (c) 1996-2012 Texas Instruments Incorporated
package/lib/Regression/regress_d_c/./../packages/ti/vlib/src/VLIB_histogram_nD_U16/VLIB_histogram_nD_U16_d.se66 PAGE    2

      56                            .dwattr $C$DW$4, DW_AT_decl_file("C:/VLIB_Tools/CCSV5_4_0/ccsv5/tools/compiler/C6000/include/s
      57                            .dwattr $C$DW$4, DW_AT_decl_line(0xb8)
      58                            .dwattr $C$DW$4, DW_AT_decl_column(0x19)
      59                    $C$DW$5 .dwtag  DW_TAG_formal_parameter
      60                            .dwattr $C$DW$5, DW_AT_type(*$C$DW$T$105)
      61                    $C$DW$6 .dwtag  DW_TAG_unspecified_parameters
      62                            .dwendtag $C$DW$4
      63                    
      64                    
      65                    $C$DW$7 .dwtag  DW_TAG_subprogram, DW_AT_name("sprintf")
      66                            .dwattr $C$DW$7, DW_AT_TI_symbol_name("sprintf")
      67                            .dwattr $C$DW$7, DW_AT_type(*$C$DW$T$10)
      68                            .dwattr $C$DW$7, DW_AT_declaration
      69                            .dwattr $C$DW$7, DW_AT_external
      70                            .dwattr $C$DW$7, DW_AT_decl_file("C:/VLIB_Tools/CCSV5_4_0/ccsv5/tools/compiler/C6000/include/s
      71                            .dwattr $C$DW$7, DW_AT_decl_line(0xbc)
      72                            .dwattr $C$DW$7, DW_AT_decl_column(0x19)
      73                    $C$DW$8 .dwtag  DW_TAG_formal_parameter
      74                            .dwattr $C$DW$8, DW_AT_type(*$C$DW$T$59)
      75                    $C$DW$9 .dwtag  DW_TAG_formal_parameter
      76                            .dwattr $C$DW$9, DW_AT_type(*$C$DW$T$105)
      77                    $C$DW$10        .dwtag  DW_TAG_unspecified_parameters
      78                            .dwendtag $C$DW$7
      79                    
      80                    
      81                    $C$DW$11        .dwtag  DW_TAG_subprogram, DW_AT_name("memset")
      82                            .dwattr $C$DW$11, DW_AT_TI_symbol_name("memset")
      83                            .dwattr $C$DW$11, DW_AT_type(*$C$DW$T$3)
      84                            .dwattr $C$DW$11, DW_AT_declaration
      85                            .dwattr $C$DW$11, DW_AT_external
      86                            .dwattr $C$DW$11, DW_AT_decl_file("C:/VLIB_Tools/CCSV5_4_0/ccsv5/tools/compiler/C6000/include/
      87                            .dwattr $C$DW$11, DW_AT_decl_line(0x5b)
      88                            .dwattr $C$DW$11, DW_AT_decl_column(0x16)
      89                    $C$DW$12        .dwtag  DW_TAG_formal_parameter
      90                            .dwattr $C$DW$12, DW_AT_type(*$C$DW$T$3)
      91                    $C$DW$13        .dwtag  DW_TAG_formal_parameter
      92                            .dwattr $C$DW$13, DW_AT_type(*$C$DW$T$10)
      93                    $C$DW$14        .dwtag  DW_TAG_formal_parameter
      94                            .dwattr $C$DW$14, DW_AT_type(*$C$DW$T$52)
      95                            .dwendtag $C$DW$11
      96                    
      97                    
      98                    $C$DW$15        .dwtag  DW_TAG_subprogram, DW_AT_name("malloc")
      99                            .dwattr $C$DW$15, DW_AT_TI_symbol_name("malloc")
     100                            .dwattr $C$DW$15, DW_AT_type(*$C$DW$T$3)
     101                            .dwattr $C$DW$15, DW_AT_declaration
     102                            .dwattr $C$DW$15, DW_AT_external
     103                            .dwattr $C$DW$15, DW_AT_decl_file("C:/VLIB_Tools/CCSV5_4_0/ccsv5/tools/compiler/C6000/include/
     104                            .dwattr $C$DW$15, DW_AT_decl_line(0x82)
     105                            .dwattr $C$DW$15, DW_AT_decl_column(0x19)
     106                    $C$DW$16        .dwtag  DW_TAG_formal_parameter
     107                            .dwattr $C$DW$16, DW_AT_type(*$C$DW$T$52)
     108                            .dwendtag $C$DW$15
     109                    
     110                    
TMS320C6x Assembler PC v7.4.2 Thu Mar 19 12:41:52 2015

Tools Copyright (c) 1996-2012 Texas Instruments Incorporated
package/lib/Regression/regress_d_c/./../packages/ti/vlib/src/VLIB_histogram_nD_U16/VLIB_histogram_nD_U16_d.se66 PAGE    3

     111                    $C$DW$17        .dwtag  DW_TAG_subprogram, DW_AT_name("free")
     112                            .dwattr $C$DW$17, DW_AT_TI_symbol_name("free")
     113                            .dwattr $C$DW$17, DW_AT_declaration
     114                            .dwattr $C$DW$17, DW_AT_external
     115                            .dwattr $C$DW$17, DW_AT_decl_file("C:/VLIB_Tools/CCSV5_4_0/ccsv5/tools/compiler/C6000/include/
     116                            .dwattr $C$DW$17, DW_AT_decl_line(0x86)
     117                            .dwattr $C$DW$17, DW_AT_decl_column(0x19)
     118                    $C$DW$18        .dwtag  DW_TAG_formal_parameter
     119                            .dwattr $C$DW$18, DW_AT_type(*$C$DW$T$3)
     120                            .dwendtag $C$DW$17
     121                    
     122                    
     123                    $C$DW$19        .dwtag  DW_TAG_subprogram, DW_AT_name("VLIB_cache_inval")
     124                            .dwattr $C$DW$19, DW_AT_TI_symbol_name("VLIB_cache_inval")
     125                            .dwattr $C$DW$19, DW_AT_type(*$C$DW$T$10)
     126                            .dwattr $C$DW$19, DW_AT_declaration
     127                            .dwattr $C$DW$19, DW_AT_external
     128                            .dwattr $C$DW$19, DW_AT_decl_file(".\..\packages\ti\vlib\src\VLIB_histogram_nD_U16\..\common\c
     129                            .dwattr $C$DW$19, DW_AT_decl_line(0x58)
     130                            .dwattr $C$DW$19, DW_AT_decl_column(0x05)
     131                    
     132                    $C$DW$20        .dwtag  DW_TAG_subprogram, DW_AT_name("VLIB_profile_init")
     133                            .dwattr $C$DW$20, DW_AT_TI_symbol_name("VLIB_profile_init")
     134                            .dwattr $C$DW$20, DW_AT_declaration
     135                            .dwattr $C$DW$20, DW_AT_external
     136                            .dwattr $C$DW$20, DW_AT_decl_file(".\..\packages\ti\vlib\src\VLIB_histogram_nD_U16\..\common\V
     137                            .dwattr $C$DW$20, DW_AT_decl_line(0x7b)
     138                            .dwattr $C$DW$20, DW_AT_decl_column(0x06)
     139                    $C$DW$21        .dwtag  DW_TAG_formal_parameter
     140                            .dwattr $C$DW$21, DW_AT_type(*$C$DW$T$10)
     141                    $C$DW$22        .dwtag  DW_TAG_formal_parameter
     142                            .dwattr $C$DW$22, DW_AT_type(*$C$DW$T$59)
     143                            .dwendtag $C$DW$20
     144                    
     145                    
     146                    $C$DW$23        .dwtag  DW_TAG_subprogram, DW_AT_name("VLIB_formula_add_test")
     147                            .dwattr $C$DW$23, DW_AT_TI_symbol_name("VLIB_formula_add_test")
     148                            .dwattr $C$DW$23, DW_AT_declaration
     149                            .dwattr $C$DW$23, DW_AT_external
     150                            .dwattr $C$DW$23, DW_AT_decl_file(".\..\packages\ti\vlib\src\VLIB_histogram_nD_U16\..\common\V
     151                            .dwattr $C$DW$23, DW_AT_decl_line(0x7d)
     152                            .dwattr $C$DW$23, DW_AT_decl_column(0x06)
     153                    $C$DW$24        .dwtag  DW_TAG_formal_parameter
     154                            .dwattr $C$DW$24, DW_AT_type(*$C$DW$T$10)
     155                    $C$DW$25        .dwtag  DW_TAG_formal_parameter
     156                            .dwattr $C$DW$25, DW_AT_type(*$C$DW$T$10)
     157                    $C$DW$26        .dwtag  DW_TAG_formal_parameter
     158                            .dwattr $C$DW$26, DW_AT_type(*$C$DW$T$10)
     159                    $C$DW$27        .dwtag  DW_TAG_formal_parameter
     160                            .dwattr $C$DW$27, DW_AT_type(*$C$DW$T$10)
     161                    $C$DW$28        .dwtag  DW_TAG_formal_parameter
     162                            .dwattr $C$DW$28, DW_AT_type(*$C$DW$T$59)
     163                    $C$DW$29        .dwtag  DW_TAG_formal_parameter
     164                            .dwattr $C$DW$29, DW_AT_type(*$C$DW$T$10)
     165                            .dwendtag $C$DW$23
TMS320C6x Assembler PC v7.4.2 Thu Mar 19 12:41:52 2015

Tools Copyright (c) 1996-2012 Texas Instruments Incorporated
package/lib/Regression/regress_d_c/./../packages/ti/vlib/src/VLIB_histogram_nD_U16/VLIB_histogram_nD_U16_d.se66 PAGE    4

     166                    
     167                    
     168                    $C$DW$30        .dwtag  DW_TAG_subprogram, DW_AT_name("VLIB_skip_test")
     169                            .dwattr $C$DW$30, DW_AT_TI_symbol_name("VLIB_skip_test")
     170                            .dwattr $C$DW$30, DW_AT_declaration
     171                            .dwattr $C$DW$30, DW_AT_external
     172                            .dwattr $C$DW$30, DW_AT_decl_file(".\..\packages\ti\vlib\src\VLIB_histogram_nD_U16\..\common\V
     173                            .dwattr $C$DW$30, DW_AT_decl_line(0x7e)
     174                            .dwattr $C$DW$30, DW_AT_decl_column(0x06)
     175                    $C$DW$31        .dwtag  DW_TAG_formal_parameter
     176                            .dwattr $C$DW$31, DW_AT_type(*$C$DW$T$59)
     177                            .dwendtag $C$DW$30
     178                    
     179                    
     180                    $C$DW$32        .dwtag  DW_TAG_subprogram, DW_AT_name("VLIB_profile_cycle_report")
     181                            .dwattr $C$DW$32, DW_AT_TI_symbol_name("VLIB_profile_cycle_report")
     182                            .dwattr $C$DW$32, DW_AT_declaration
     183                            .dwattr $C$DW$32, DW_AT_external
     184                            .dwattr $C$DW$32, DW_AT_decl_file(".\..\packages\ti\vlib\src\VLIB_histogram_nD_U16\..\common\V
     185                            .dwattr $C$DW$32, DW_AT_decl_line(0x7f)
     186                            .dwattr $C$DW$32, DW_AT_decl_column(0x06)
     187                    $C$DW$33        .dwtag  DW_TAG_formal_parameter
     188                            .dwattr $C$DW$33, DW_AT_type(*$C$DW$T$10)
     189                    $C$DW$34        .dwtag  DW_TAG_formal_parameter
     190                            .dwattr $C$DW$34, DW_AT_type(*$C$DW$T$59)
     191                    $C$DW$35        .dwtag  DW_TAG_formal_parameter
     192                            .dwattr $C$DW$35, DW_AT_type(*$C$DW$T$59)
     193                            .dwendtag $C$DW$32
     194                    
     195                    
     196                    $C$DW$36        .dwtag  DW_TAG_subprogram, DW_AT_name("initStack")
     197                            .dwattr $C$DW$36, DW_AT_TI_symbol_name("initStack")
     198                            .dwattr $C$DW$36, DW_AT_declaration
     199                            .dwattr $C$DW$36, DW_AT_external
     200                            .dwattr $C$DW$36, DW_AT_decl_file(".\..\packages\ti\vlib\src\VLIB_histogram_nD_U16\..\common\V
     201                            .dwattr $C$DW$36, DW_AT_decl_line(0x80)
     202                            .dwattr $C$DW$36, DW_AT_decl_column(0x06)
     203                    $C$DW$37        .dwtag  DW_TAG_formal_parameter
     204                            .dwattr $C$DW$37, DW_AT_type(*$C$DW$T$68)
     205                            .dwendtag $C$DW$36
     206                    
     207                    
     208                    $C$DW$38        .dwtag  DW_TAG_subprogram, DW_AT_name("setStackDepth")
     209                            .dwattr $C$DW$38, DW_AT_TI_symbol_name("setStackDepth")
     210                            .dwattr $C$DW$38, DW_AT_declaration
     211                            .dwattr $C$DW$38, DW_AT_external
     212                            .dwattr $C$DW$38, DW_AT_decl_file(".\..\packages\ti\vlib\src\VLIB_histogram_nD_U16\..\common\V
     213                            .dwattr $C$DW$38, DW_AT_decl_line(0x81)
     214                            .dwattr $C$DW$38, DW_AT_decl_column(0x06)
     215                    
     216                    $C$DW$39        .dwtag  DW_TAG_subprogram, DW_AT_name("getSP")
     217                            .dwattr $C$DW$39, DW_AT_TI_symbol_name("getSP")
     218                            .dwattr $C$DW$39, DW_AT_type(*$C$DW$T$68)
     219                            .dwattr $C$DW$39, DW_AT_declaration
     220                            .dwattr $C$DW$39, DW_AT_external
TMS320C6x Assembler PC v7.4.2 Thu Mar 19 12:41:52 2015

Tools Copyright (c) 1996-2012 Texas Instruments Incorporated
package/lib/Regression/regress_d_c/./../packages/ti/vlib/src/VLIB_histogram_nD_U16/VLIB_histogram_nD_U16_d.se66 PAGE    5

     221                            .dwattr $C$DW$39, DW_AT_decl_file(".\..\packages\ti\vlib\src\VLIB_histogram_nD_U16\..\common\V
     222                            .dwattr $C$DW$39, DW_AT_decl_line(0x82)
     223                            .dwattr $C$DW$39, DW_AT_decl_column(0x0a)
     224                    
     225                    $C$DW$40        .dwtag  DW_TAG_subprogram, DW_AT_name("VLIB_stack_memory")
     226                            .dwattr $C$DW$40, DW_AT_TI_symbol_name("VLIB_stack_memory")
     227                            .dwattr $C$DW$40, DW_AT_declaration
     228                            .dwattr $C$DW$40, DW_AT_external
     229                            .dwattr $C$DW$40, DW_AT_decl_file(".\..\packages\ti\vlib\src\VLIB_histogram_nD_U16\..\common\V
     230                            .dwattr $C$DW$40, DW_AT_decl_line(0x83)
     231                            .dwattr $C$DW$40, DW_AT_decl_column(0x06)
     232                    
     233                    $C$DW$41        .dwtag  DW_TAG_subprogram, DW_AT_name("VLIB_compare_mem")
     234                            .dwattr $C$DW$41, DW_AT_TI_symbol_name("VLIB_compare_mem")
     235                            .dwattr $C$DW$41, DW_AT_type(*$C$DW$T$22)
     236                            .dwattr $C$DW$41, DW_AT_declaration
     237                            .dwattr $C$DW$41, DW_AT_external
     238                            .dwattr $C$DW$41, DW_AT_decl_file(".\..\packages\ti\vlib\src\VLIB_histogram_nD_U16\../common/V
     239                            .dwattr $C$DW$41, DW_AT_decl_line(0x6f)
     240                            .dwattr $C$DW$41, DW_AT_decl_column(0x11)
     241                    $C$DW$42        .dwtag  DW_TAG_formal_parameter
     242                            .dwattr $C$DW$42, DW_AT_type(*$C$DW$T$51)
     243                    $C$DW$43        .dwtag  DW_TAG_formal_parameter
     244                            .dwattr $C$DW$43, DW_AT_type(*$C$DW$T$51)
     245                    $C$DW$44        .dwtag  DW_TAG_formal_parameter
     246                            .dwattr $C$DW$44, DW_AT_type(*$C$DW$T$22)
     247                            .dwendtag $C$DW$41
     248                    
     249                    
     250                    $C$DW$45        .dwtag  DW_TAG_subprogram, DW_AT_name("VLIB_fillBuffer")
     251                            .dwattr $C$DW$45, DW_AT_TI_symbol_name("VLIB_fillBuffer")
     252                            .dwattr $C$DW$45, DW_AT_declaration
     253                            .dwattr $C$DW$45, DW_AT_external
     254                            .dwattr $C$DW$45, DW_AT_decl_file(".\..\packages\ti\vlib\src\VLIB_histogram_nD_U16\../common/V
     255                            .dwattr $C$DW$45, DW_AT_decl_line(0x77)
     256                            .dwattr $C$DW$45, DW_AT_decl_column(0x06)
     257                    $C$DW$46        .dwtag  DW_TAG_formal_parameter
     258                            .dwattr $C$DW$46, DW_AT_type(*$C$DW$T$19)
     259                    $C$DW$47        .dwtag  DW_TAG_formal_parameter
     260                            .dwattr $C$DW$47, DW_AT_type(*$C$DW$T$19)
     261                    $C$DW$48        .dwtag  DW_TAG_formal_parameter
     262                            .dwattr $C$DW$48, DW_AT_type(*$C$DW$T$3)
     263                    $C$DW$49        .dwtag  DW_TAG_formal_parameter
     264                            .dwattr $C$DW$49, DW_AT_type(*$C$DW$T$3)
     265                    $C$DW$50        .dwtag  DW_TAG_formal_parameter
     266                            .dwattr $C$DW$50, DW_AT_type(*$C$DW$T$20)
     267                    $C$DW$51        .dwtag  DW_TAG_formal_parameter
     268                            .dwattr $C$DW$51, DW_AT_type(*$C$DW$T$20)
     269                    $C$DW$52        .dwtag  DW_TAG_formal_parameter
     270                            .dwattr $C$DW$52, DW_AT_type(*$C$DW$T$20)
     271                    $C$DW$53        .dwtag  DW_TAG_formal_parameter
     272                            .dwattr $C$DW$53, DW_AT_type(*$C$DW$T$19)
     273                    $C$DW$54        .dwtag  DW_TAG_formal_parameter
     274                            .dwattr $C$DW$54, DW_AT_type(*$C$DW$T$59)
     275                            .dwendtag $C$DW$45
TMS320C6x Assembler PC v7.4.2 Thu Mar 19 12:41:52 2015

Tools Copyright (c) 1996-2012 Texas Instruments Incorporated
package/lib/Regression/regress_d_c/./../packages/ti/vlib/src/VLIB_histogram_nD_U16/VLIB_histogram_nD_U16_d.se66 PAGE    6

     276                    
     277                    
     278                    $C$DW$55        .dwtag  DW_TAG_subprogram, DW_AT_name("VLIB_malloc")
     279                            .dwattr $C$DW$55, DW_AT_TI_symbol_name("VLIB_malloc")
     280                            .dwattr $C$DW$55, DW_AT_type(*$C$DW$T$3)
     281                            .dwattr $C$DW$55, DW_AT_declaration
     282                            .dwattr $C$DW$55, DW_AT_external
     283                            .dwattr $C$DW$55, DW_AT_decl_file(".\..\packages\ti\vlib\src\VLIB_histogram_nD_U16\../common/V
     284                            .dwattr $C$DW$55, DW_AT_decl_line(0xaf)
     285                            .dwattr $C$DW$55, DW_AT_decl_column(0x07)
     286                    $C$DW$56        .dwtag  DW_TAG_formal_parameter
     287                            .dwattr $C$DW$56, DW_AT_type(*$C$DW$T$52)
     288                            .dwendtag $C$DW$55
     289                    
     290                    
     291                    $C$DW$57        .dwtag  DW_TAG_subprogram, DW_AT_name("VLIB_free")
     292                            .dwattr $C$DW$57, DW_AT_TI_symbol_name("VLIB_free")
     293                            .dwattr $C$DW$57, DW_AT_declaration
     294                            .dwattr $C$DW$57, DW_AT_external
     295                            .dwattr $C$DW$57, DW_AT_decl_file(".\..\packages\ti\vlib\src\VLIB_histogram_nD_U16\../common/V
     296                            .dwattr $C$DW$57, DW_AT_decl_line(0xb4)
     297                            .dwattr $C$DW$57, DW_AT_decl_column(0x07)
     298                    $C$DW$58        .dwtag  DW_TAG_formal_parameter
     299                            .dwattr $C$DW$58, DW_AT_type(*$C$DW$T$3)
     300                            .dwendtag $C$DW$57
     301                    
     302                    
     303                    $C$DW$59        .dwtag  DW_TAG_subprogram, DW_AT_name("VLIB_histogram_nD_U16")
     304                            .dwattr $C$DW$59, DW_AT_TI_symbol_name("VLIB_histogram_nD_U16")
     305                            .dwattr $C$DW$59, DW_AT_type(*$C$DW$T$22)
     306                            .dwattr $C$DW$59, DW_AT_declaration
     307                            .dwattr $C$DW$59, DW_AT_external
     308                            .dwattr $C$DW$59, DW_AT_decl_file(".\..\packages\ti\vlib\src\VLIB_histogram_nD_U16\c66/VLIB_hi
     309                            .dwattr $C$DW$59, DW_AT_decl_line(0x99)
     310                            .dwattr $C$DW$59, DW_AT_decl_column(0x09)
     311                    $C$DW$60        .dwtag  DW_TAG_formal_parameter
     312                            .dwattr $C$DW$60, DW_AT_type(*$C$DW$T$102)
     313                    $C$DW$61        .dwtag  DW_TAG_formal_parameter
     314                            .dwattr $C$DW$61, DW_AT_type(*$C$DW$T$114)
     315                    $C$DW$62        .dwtag  DW_TAG_formal_parameter
     316                            .dwattr $C$DW$62, DW_AT_type(*$C$DW$T$114)
     317                    $C$DW$63        .dwtag  DW_TAG_formal_parameter
     318                            .dwattr $C$DW$63, DW_AT_type(*$C$DW$T$20)
     319                    $C$DW$64        .dwtag  DW_TAG_formal_parameter
     320                            .dwattr $C$DW$64, DW_AT_type(*$C$DW$T$102)
     321                    $C$DW$65        .dwtag  DW_TAG_formal_parameter
     322                            .dwattr $C$DW$65, DW_AT_type(*$C$DW$T$102)
     323                    $C$DW$66        .dwtag  DW_TAG_formal_parameter
     324                            .dwattr $C$DW$66, DW_AT_type(*$C$DW$T$99)
     325                    $C$DW$67        .dwtag  DW_TAG_formal_parameter
     326                            .dwattr $C$DW$67, DW_AT_type(*$C$DW$T$21)
     327                    $C$DW$68        .dwtag  DW_TAG_formal_parameter
     328                            .dwattr $C$DW$68, DW_AT_type(*$C$DW$T$21)
     329                            .dwendtag $C$DW$59
     330                    
TMS320C6x Assembler PC v7.4.2 Thu Mar 19 12:41:52 2015

Tools Copyright (c) 1996-2012 Texas Instruments Incorporated
package/lib/Regression/regress_d_c/./../packages/ti/vlib/src/VLIB_histogram_nD_U16/VLIB_histogram_nD_U16_d.se66 PAGE    7

     331                    
     332                    $C$DW$69        .dwtag  DW_TAG_subprogram, DW_AT_name("VLIB_histogram_nD_U16_cn")
     333                            .dwattr $C$DW$69, DW_AT_TI_symbol_name("VLIB_histogram_nD_U16_cn")
     334                            .dwattr $C$DW$69, DW_AT_type(*$C$DW$T$22)
     335                            .dwattr $C$DW$69, DW_AT_declaration
     336                            .dwattr $C$DW$69, DW_AT_external
     337                            .dwattr $C$DW$69, DW_AT_decl_file(".\..\packages\ti\vlib\src\VLIB_histogram_nD_U16\VLIB_histog
     338                            .dwattr $C$DW$69, DW_AT_decl_line(0x20)
     339                            .dwattr $C$DW$69, DW_AT_decl_column(0x09)
     340                    $C$DW$70        .dwtag  DW_TAG_formal_parameter
     341                            .dwattr $C$DW$70, DW_AT_type(*$C$DW$T$99)
     342                    $C$DW$71        .dwtag  DW_TAG_formal_parameter
     343                            .dwattr $C$DW$71, DW_AT_type(*$C$DW$T$114)
     344                    $C$DW$72        .dwtag  DW_TAG_formal_parameter
     345                            .dwattr $C$DW$72, DW_AT_type(*$C$DW$T$114)
     346                    $C$DW$73        .dwtag  DW_TAG_formal_parameter
     347                            .dwattr $C$DW$73, DW_AT_type(*$C$DW$T$20)
     348                    $C$DW$74        .dwtag  DW_TAG_formal_parameter
     349                            .dwattr $C$DW$74, DW_AT_type(*$C$DW$T$99)
     350                    $C$DW$75        .dwtag  DW_TAG_formal_parameter
     351                            .dwattr $C$DW$75, DW_AT_type(*$C$DW$T$99)
     352                    $C$DW$76        .dwtag  DW_TAG_formal_parameter
     353                            .dwattr $C$DW$76, DW_AT_type(*$C$DW$T$99)
     354                    $C$DW$77        .dwtag  DW_TAG_formal_parameter
     355                            .dwattr $C$DW$77, DW_AT_type(*$C$DW$T$21)
     356                    $C$DW$78        .dwtag  DW_TAG_formal_parameter
     357                            .dwattr $C$DW$78, DW_AT_type(*$C$DW$T$21)
     358                            .dwendtag $C$DW$69
     359                    
     360                    
     361                    $C$DW$79        .dwtag  DW_TAG_subprogram, DW_AT_name("histogram_nD_U16_getTestParams")
     362                            .dwattr $C$DW$79, DW_AT_TI_symbol_name("histogram_nD_U16_getTestParams")
     363                            .dwattr $C$DW$79, DW_AT_declaration
     364                            .dwattr $C$DW$79, DW_AT_external
     365                            .dwattr $C$DW$79, DW_AT_decl_file(".\..\packages\ti\vlib\src\VLIB_histogram_nD_U16\VLIB_histog
     366                            .dwattr $C$DW$79, DW_AT_decl_line(0x2f)
     367                            .dwattr $C$DW$79, DW_AT_decl_column(0x06)
     368                    $C$DW$80        .dwtag  DW_TAG_formal_parameter
     369                            .dwattr $C$DW$80, DW_AT_type(*$C$DW$T$44)
     370                    $C$DW$81        .dwtag  DW_TAG_formal_parameter
     371                            .dwattr $C$DW$81, DW_AT_type(*$C$DW$T$76)
     372                            .dwendtag $C$DW$79
     373                    
     374                    $C$DW$82        .dwtag  DW_TAG_variable, DW_AT_name("test_cases")
     375                            .dwattr $C$DW$82, DW_AT_TI_symbol_name("test_cases")
     376                            .dwattr $C$DW$82, DW_AT_type(*$C$DW$T$22)
     377                            .dwattr $C$DW$82, DW_AT_declaration
     378                            .dwattr $C$DW$82, DW_AT_external
     379                            .dwattr $C$DW$82, DW_AT_decl_file(".\..\packages\ti\vlib\src\VLIB_histogram_nD_U16\../common/V
     380                            .dwattr $C$DW$82, DW_AT_decl_line(0x60)
     381                            .dwattr $C$DW$82, DW_AT_decl_column(0x13)
     382                    $C$DW$83        .dwtag  DW_TAG_variable, DW_AT_name("act_kernel")
     383                            .dwattr $C$DW$83, DW_AT_TI_symbol_name("act_kernel")
     384                            .dwattr $C$DW$83, DW_AT_type(*$C$DW$T$10)
     385                            .dwattr $C$DW$83, DW_AT_declaration
TMS320C6x Assembler PC v7.4.2 Thu Mar 19 12:41:52 2015

Tools Copyright (c) 1996-2012 Texas Instruments Incorporated
package/lib/Regression/regress_d_c/./../packages/ti/vlib/src/VLIB_histogram_nD_U16/VLIB_histogram_nD_U16_d.se66 PAGE    8

     386                            .dwattr $C$DW$83, DW_AT_external
     387                            .dwattr $C$DW$83, DW_AT_decl_file(".\..\packages\ti\vlib\src\VLIB_histogram_nD_U16\../common/V
     388                            .dwattr $C$DW$83, DW_AT_decl_line(0x62)
     389                            .dwattr $C$DW$83, DW_AT_decl_column(0x13)
     390                    $C$DW$84        .dwtag  DW_TAG_variable, DW_AT_name("desc")
     391                            .dwattr $C$DW$84, DW_AT_TI_symbol_name("desc")
     392                            .dwattr $C$DW$84, DW_AT_type(*$C$DW$T$165)
     393                            .dwattr $C$DW$84, DW_AT_declaration
     394                            .dwattr $C$DW$84, DW_AT_external
     395                            .dwattr $C$DW$84, DW_AT_decl_file(".\..\packages\ti\vlib\src\VLIB_histogram_nD_U16\../common/V
     396                            .dwattr $C$DW$84, DW_AT_decl_line(0x63)
     397                            .dwattr $C$DW$84, DW_AT_decl_column(0x13)
     398                    $C$DW$85        .dwtag  DW_TAG_variable, DW_AT_name("testPatternString")
     399                            .dwattr $C$DW$85, DW_AT_TI_symbol_name("testPatternString")
     400                            .dwattr $C$DW$85, DW_AT_type(*$C$DW$T$165)
     401                            .dwattr $C$DW$85, DW_AT_declaration
     402                            .dwattr $C$DW$85, DW_AT_external
     403                            .dwattr $C$DW$85, DW_AT_decl_file(".\..\packages\ti\vlib\src\VLIB_histogram_nD_U16\../common/V
     404                            .dwattr $C$DW$85, DW_AT_decl_line(0x64)
     405                            .dwattr $C$DW$85, DW_AT_decl_column(0x13)
     406                    $C$DW$86        .dwtag  DW_TAG_variable, DW_AT_name("est_test")
     407                            .dwattr $C$DW$86, DW_AT_TI_symbol_name("est_test")
     408                            .dwattr $C$DW$86, DW_AT_type(*$C$DW$T$10)
     409                            .dwattr $C$DW$86, DW_AT_declaration
     410                            .dwattr $C$DW$86, DW_AT_external
     411                            .dwattr $C$DW$86, DW_AT_decl_file(".\..\packages\ti\vlib\src\VLIB_histogram_nD_U16\..\common\V
     412                            .dwattr $C$DW$86, DW_AT_decl_line(0x75)
     413                            .dwattr $C$DW$86, DW_AT_decl_column(0x14)
     414                    $C$DW$87        .dwtag  DW_TAG_variable, DW_AT_name("beg_count")
     415                            .dwattr $C$DW$87, DW_AT_TI_symbol_name("beg_count")
     416                            .dwattr $C$DW$87, DW_AT_type(*$C$DW$T$155)
     417                            .dwattr $C$DW$87, DW_AT_declaration
     418                            .dwattr $C$DW$87, DW_AT_external
     419                            .dwattr $C$DW$87, DW_AT_decl_file(".\..\packages\ti\vlib\src\VLIB_histogram_nD_U16\..\common\V
     420                            .dwattr $C$DW$87, DW_AT_decl_line(0x76)
     421                            .dwattr $C$DW$87, DW_AT_decl_column(0x14)
     422                    $C$DW$88        .dwtag  DW_TAG_variable, DW_AT_name("end_count")
     423                            .dwattr $C$DW$88, DW_AT_TI_symbol_name("end_count")
     424                            .dwattr $C$DW$88, DW_AT_type(*$C$DW$T$155)
     425                            .dwattr $C$DW$88, DW_AT_declaration
     426                            .dwattr $C$DW$88, DW_AT_external
     427                            .dwattr $C$DW$88, DW_AT_decl_file(".\..\packages\ti\vlib\src\VLIB_histogram_nD_U16\..\common\V
     428                            .dwattr $C$DW$88, DW_AT_decl_line(0x77)
     429                            .dwattr $C$DW$88, DW_AT_decl_column(0x14)
     430                    $C$DW$89        .dwtag  DW_TAG_variable, DW_AT_name("overhead")
     431                            .dwattr $C$DW$89, DW_AT_TI_symbol_name("overhead")
     432                            .dwattr $C$DW$89, DW_AT_type(*$C$DW$T$155)
     433                            .dwattr $C$DW$89, DW_AT_declaration
     434                            .dwattr $C$DW$89, DW_AT_external
     435                            .dwattr $C$DW$89, DW_AT_decl_file(".\..\packages\ti\vlib\src\VLIB_histogram_nD_U16\..\common\V
     436                            .dwattr $C$DW$89, DW_AT_decl_line(0x78)
     437                            .dwattr $C$DW$89, DW_AT_decl_column(0x14)
     438                    $C$DW$90        .dwtag  DW_TAG_variable, DW_AT_name("cycles")
     439                            .dwattr $C$DW$90, DW_AT_TI_symbol_name("cycles")
     440                            .dwattr $C$DW$90, DW_AT_type(*$C$DW$T$156)
TMS320C6x Assembler PC v7.4.2 Thu Mar 19 12:41:52 2015

Tools Copyright (c) 1996-2012 Texas Instruments Incorporated
package/lib/Regression/regress_d_c/./../packages/ti/vlib/src/VLIB_histogram_nD_U16/VLIB_histogram_nD_U16_d.se66 PAGE    9

     441                            .dwattr $C$DW$90, DW_AT_declaration
     442                            .dwattr $C$DW$90, DW_AT_external
     443                            .dwattr $C$DW$90, DW_AT_decl_file(".\..\packages\ti\vlib\src\VLIB_histogram_nD_U16\..\common\V
     444                            .dwattr $C$DW$90, DW_AT_decl_line(0x79)
     445                            .dwattr $C$DW$90, DW_AT_decl_column(0x14)
     446                    ;       C:\VLIB_Tools\CCSV5_4_0\ccsv5\tools\compiler\C6000\bin\opt6x.exe C:\\Users\\gtbldadm\\AppData\
     447 00000000                   .sect   ".text"
     448                            .clink
     449                            .global VLIB_histogram_nD_U16_d
     450                    
     451                    $C$DW$91        .dwtag  DW_TAG_subprogram, DW_AT_name("VLIB_histogram_nD_U16_d")
     452                            .dwattr $C$DW$91, DW_AT_low_pc(VLIB_histogram_nD_U16_d)
     453                            .dwattr $C$DW$91, DW_AT_high_pc(0x00)
     454                            .dwattr $C$DW$91, DW_AT_TI_symbol_name("VLIB_histogram_nD_U16_d")
     455                            .dwattr $C$DW$91, DW_AT_external
     456                            .dwattr $C$DW$91, DW_AT_TI_begin_file("./../packages/ti/vlib/src/VLIB_histogram_nD_U16/VLIB_hi
     457                            .dwattr $C$DW$91, DW_AT_TI_begin_line(0x26)
     458                            .dwattr $C$DW$91, DW_AT_TI_begin_column(0x06)
     459                            .dwattr $C$DW$91, DW_AT_decl_file("./../packages/ti/vlib/src/VLIB_histogram_nD_U16/VLIB_histog
     460                            .dwattr $C$DW$91, DW_AT_decl_line(0x26)
     461                            .dwattr $C$DW$91, DW_AT_decl_column(0x06)
     462                            .dwattr $C$DW$91, DW_AT_TI_max_frame_size(0x78)
     463                            .dwpsn  file "./../packages/ti/vlib/src/VLIB_histogram_nD_U16/VLIB_histogram_nD_U16_d.c",line 
     464                    
     465                            .dwfde $C$DW$CIE, VLIB_histogram_nD_U16_d
     466                    $C$DW$92        .dwtag  DW_TAG_formal_parameter, DW_AT_name("LevelOfFeedback")
     467                            .dwattr $C$DW$92, DW_AT_TI_symbol_name("LevelOfFeedback")
     468                            .dwattr $C$DW$92, DW_AT_type(*$C$DW$T$19)
     469                            .dwattr $C$DW$92, DW_AT_location[DW_OP_reg4]
     470                    ;----------------------------------------------------------------------
     471                    ;  38 | void VLIB_histogram_nD_U16_d (uint8_t LevelOfFeedback)                 
     472                    ;----------------------------------------------------------------------
     473                    
     474                    ;******************************************************************************
     475                    ;* FUNCTION NAME: VLIB_histogram_nD_U16_d                                     *
     476                    ;*                                                                            *
     477                    ;*   Regs Modified     : A0,A1,A2,A3,A4,A5,A6,A7,A8,A9,A10,A11,A12,A13,A14,   *
     478                    ;*                           A15,B0,B1,B2,B3,B4,B5,B6,B7,B8,B9,B10,B11,B12,   *
     479                    ;*                           B13,SP,A16,A17,A18,A19,A20,A21,A22,A23,A24,A25,  *
     480                    ;*                           A26,A27,A28,A29,A30,A31,B16,B17,B18,B19,B20,B21, *
     481                    ;*                           B22,B23,B24,B25,B26,B27,B28,B29,B30,B31          *
     482                    ;*   Regs Used         : A0,A1,A2,A3,A4,A5,A6,A7,A8,A9,A10,A11,A12,A13,A14,   *
     483                    ;*                           A15,B0,B1,B2,B3,B4,B5,B6,B7,B8,B9,B10,B11,B12,   *
     484                    ;*                           B13,DP,SP,A16,A17,A18,A19,A20,A21,A22,A23,A24,   *
     485                    ;*                           A25,A26,A27,A28,A29,A30,A31,B16,B17,B18,B19,B20, *
     486                    ;*                           B21,B22,B23,B24,B25,B26,B27,B28,B29,B30,B31      *
     487                    ;*   Local Frame Size  : 24 Args + 36 Auto + 56 Save = 116 byte               *
     488                    ;******************************************************************************
     489                    
     490                    ;******************************************************************************
     491                    ;*                                                                            *
     492                    ;* Using -g (debug) with optimization (-o3) may disable key optimizations!    *
     493                    ;*                                                                            *
     494                    ;******************************************************************************
     495 00000000           VLIB_histogram_nD_U16_d:
TMS320C6x Assembler PC v7.4.2 Thu Mar 19 12:41:52 2015

Tools Copyright (c) 1996-2012 Texas Instruments Incorporated
package/lib/Regression/regress_d_c/./../packages/ti/vlib/src/VLIB_histogram_nD_U16/VLIB_histogram_nD_U16_d.se66 PAGE   10

     496                    ;** --------------------------------------------------------------------------*
     497                    ;          EXCLUSIVE CPU CYCLES: 15
     498                    ;** 45  -----------------------    histogram_nD_U16_getTestParams(&prm, &test_cases);
     499                    ;** 48  -----------------------    VLIB_profile_init(4, "VLIB_histogram_nD_U16");
     500                    ;** 51  -----------------------    if ( test_cases <= 0 ) goto g24;
     501                            .dwcfi  cfa_offset, 0
     502                    ;----------------------------------------------------------------------
     503                    ;  40 | int32_t    tpi;  /* test parameter index */                            
     504                    ;  43 | histogram_nD_U16_testParams_t   *prm;                                  
     505                    ;----------------------------------------------------------------------
     506 00000000     25f7             STW     .D2T1   A11,*SP--(8)      ; |39| 
     507                            .dwcfi  cfa_offset, 8
     508                            .dwcfi  save_reg_to_mem, 11, 0
     509 00000002     2577             STW     .D2T1   A10,*SP--(8)      ; |39| 
     510                            .dwcfi  cfa_offset, 16
     511                            .dwcfi  save_reg_to_mem, 10, -8
     512 00000004     9677             STDW    .D2T2   B13:B12,*SP--     ; |39| 
     513                            .dwcfi  cfa_offset, 24
     514                            .dwcfi  save_reg_to_mem, 29, -12
     515                            .dwcfi  save_reg_to_mem, 28, -16
     516 00000006     9577             STDW    .D2T2   B11:B10,*SP--     ; |39| 
     517                            .dwcfi  cfa_offset, 32
     518                            .dwcfi  save_reg_to_mem, 27, -20
     519                            .dwcfi  save_reg_to_mem, 26, -24
     520 00000008     8777             STDW    .D2T1   A15:A14,*SP--     ; |39| 
     521                            .dwcfi  cfa_offset, 40
     522                            .dwcfi  save_reg_to_mem, 15, -28
     523                            .dwcfi  save_reg_to_mem, 14, -32
     524 0000000a     8677             STDW    .D2T1   A13:A12,*SP--     ; |39| 
     525                            .dwcfi  cfa_offset, 48
     526                            .dwcfi  save_reg_to_mem, 13, -36
     527                            .dwcfi  save_reg_to_mem, 12, -40
     528 0000000c 01be54f6             STW     .D2T2   B3,*SP--(72)      ; |39| 
     529                            .dwcfi  cfa_offset, 120
     530                            .dwcfi  save_reg_to_mem, 19, 0
     531                    $C$DW$93        .dwtag  DW_TAG_variable, DW_AT_name("$O$C3")
     532                            .dwattr $C$DW$93, DW_AT_TI_symbol_name("$O$C3")
     533                            .dwattr $C$DW$93, DW_AT_type(*$C$DW$T$40)
     534                            .dwattr $C$DW$93, DW_AT_location[DW_OP_reg20]
     535                    $C$DW$94        .dwtag  DW_TAG_variable, DW_AT_name("$O$C4")
     536                            .dwattr $C$DW$94, DW_AT_TI_symbol_name("$O$C4")
     537                            .dwattr $C$DW$94, DW_AT_type(*$C$DW$T$40)
     538                            .dwattr $C$DW$94, DW_AT_location[DW_OP_reg20]
     539                    $C$DW$95        .dwtag  DW_TAG_variable, DW_AT_name("$O$C5")
     540                            .dwattr $C$DW$95, DW_AT_TI_symbol_name("$O$C5")
     541                            .dwattr $C$DW$95, DW_AT_type(*$C$DW$T$97)
     542                            .dwattr $C$DW$95, DW_AT_location[DW_OP_reg16]
     543                    $C$DW$96        .dwtag  DW_TAG_variable, DW_AT_name("$O$C6")
     544                            .dwattr $C$DW$96, DW_AT_TI_symbol_name("$O$C6")
     545                            .dwattr $C$DW$96, DW_AT_type(*$C$DW$T$10)
     546                            .dwattr $C$DW$96, DW_AT_location[DW_OP_reg11]
     547                    $C$DW$97        .dwtag  DW_TAG_variable, DW_AT_name("$O$C7")
     548                            .dwattr $C$DW$97, DW_AT_TI_symbol_name("$O$C7")
     549                            .dwattr $C$DW$97, DW_AT_type(*$C$DW$T$154)
     550                            .dwattr $C$DW$97, DW_AT_location[DW_OP_reg8]
TMS320C6x Assembler PC v7.4.2 Thu Mar 19 12:41:52 2015

Tools Copyright (c) 1996-2012 Texas Instruments Incorporated
package/lib/Regression/regress_d_c/./../packages/ti/vlib/src/VLIB_histogram_nD_U16/VLIB_histogram_nD_U16_d.se66 PAGE   11

     551                    $C$DW$98        .dwtag  DW_TAG_variable, DW_AT_name("$O$C8")
     552                            .dwattr $C$DW$98, DW_AT_TI_symbol_name("$O$C8")
     553                            .dwattr $C$DW$98, DW_AT_type(*$C$DW$T$154)
     554                            .dwattr $C$DW$98, DW_AT_location[DW_OP_reg3]
     555                    $C$DW$99        .dwtag  DW_TAG_variable, DW_AT_name("$O$C9")
     556                            .dwattr $C$DW$99, DW_AT_TI_symbol_name("$O$C9")
     557                            .dwattr $C$DW$99, DW_AT_type(*$C$DW$T$10)
     558                            .dwattr $C$DW$99, DW_AT_location[DW_OP_reg8]
     559                    $C$DW$100       .dwtag  DW_TAG_variable, DW_AT_name("$O$C10")
     560                            .dwattr $C$DW$100, DW_AT_TI_symbol_name("$O$C10")
     561                            .dwattr $C$DW$100, DW_AT_type(*$C$DW$T$10)
     562                            .dwattr $C$DW$100, DW_AT_location[DW_OP_reg7]
     563                    $C$DW$101       .dwtag  DW_TAG_variable, DW_AT_name("$O$C11")
     564                            .dwattr $C$DW$101, DW_AT_TI_symbol_name("$O$C11")
     565                            .dwattr $C$DW$101, DW_AT_type(*$C$DW$T$40)
     566                            .dwattr $C$DW$101, DW_AT_location[DW_OP_reg20]
     567                    $C$DW$102       .dwtag  DW_TAG_variable, DW_AT_name("$O$C12")
     568                            .dwattr $C$DW$102, DW_AT_TI_symbol_name("$O$C12")
     569                            .dwattr $C$DW$102, DW_AT_type(*$C$DW$T$40)
     570                            .dwattr $C$DW$102, DW_AT_location[DW_OP_reg21]
     571                    $C$DW$103       .dwtag  DW_TAG_variable, DW_AT_name("$O$C13")
     572                            .dwattr $C$DW$103, DW_AT_TI_symbol_name("$O$C13")
     573                            .dwattr $C$DW$103, DW_AT_type(*$C$DW$T$10)
     574                            .dwattr $C$DW$103, DW_AT_location[DW_OP_reg20]
     575                    $C$DW$104       .dwtag  DW_TAG_variable, DW_AT_name("$O$C14")
     576                            .dwattr $C$DW$104, DW_AT_TI_symbol_name("$O$C14")
     577                            .dwattr $C$DW$104, DW_AT_type(*$C$DW$T$10)
     578                            .dwattr $C$DW$104, DW_AT_location[DW_OP_reg20]
     579                    $C$DW$105       .dwtag  DW_TAG_variable, DW_AT_name("$O$C15")
     580                            .dwattr $C$DW$105, DW_AT_TI_symbol_name("$O$C15")
     581                            .dwattr $C$DW$105, DW_AT_type(*$C$DW$T$10)
     582                            .dwattr $C$DW$105, DW_AT_location[DW_OP_reg20]
     583                    $C$DW$106       .dwtag  DW_TAG_variable, DW_AT_name("$O$U12")
     584                            .dwattr $C$DW$106, DW_AT_TI_symbol_name("$O$U12")
     585                            .dwattr $C$DW$106, DW_AT_type(*$C$DW$T$40)
     586                            .dwattr $C$DW$106, DW_AT_location[DW_OP_reg28]
     587                    $C$DW$107       .dwtag  DW_TAG_variable, DW_AT_name("$O$K40")
     588                            .dwattr $C$DW$107, DW_AT_TI_symbol_name("$O$K40")
     589                            .dwattr $C$DW$107, DW_AT_type(*$C$DW$T$80)
     590                            .dwattr $C$DW$107, DW_AT_location[DW_OP_reg12]
     591                    $C$DW$108       .dwtag  DW_TAG_variable, DW_AT_name("$O$K55")
     592                            .dwattr $C$DW$108, DW_AT_TI_symbol_name("$O$K55")
     593                            .dwattr $C$DW$108, DW_AT_type(*$C$DW$T$10)
     594                            .dwattr $C$DW$108, DW_AT_location[DW_OP_reg7]
     595                    $C$DW$109       .dwtag  DW_TAG_variable, DW_AT_name("$O$U61")
     596                            .dwattr $C$DW$109, DW_AT_TI_symbol_name("$O$U61")
     597                            .dwattr $C$DW$109, DW_AT_type(*$C$DW$T$97)
     598                            .dwattr $C$DW$109, DW_AT_location[DW_OP_reg3]
     599                    $C$DW$110       .dwtag  DW_TAG_variable, DW_AT_name("$O$U11")
     600                            .dwattr $C$DW$110, DW_AT_TI_symbol_name("$O$U11")
     601                            .dwattr $C$DW$110, DW_AT_type(*$C$DW$T$10)
     602                            .dwattr $C$DW$110, DW_AT_location[DW_OP_reg29]
     603                    $C$DW$111       .dwtag  DW_TAG_variable, DW_AT_name("$O$U81")
     604                            .dwattr $C$DW$111, DW_AT_TI_symbol_name("$O$U81")
     605                            .dwattr $C$DW$111, DW_AT_type(*$C$DW$T$10)
TMS320C6x Assembler PC v7.4.2 Thu Mar 19 12:41:52 2015

Tools Copyright (c) 1996-2012 Texas Instruments Incorporated
package/lib/Regression/regress_d_c/./../packages/ti/vlib/src/VLIB_histogram_nD_U16/VLIB_histogram_nD_U16_d.se66 PAGE   12

     606                            .dwattr $C$DW$111, DW_AT_location[DW_OP_reg21]
     607                    $C$DW$112       .dwtag  DW_TAG_variable, DW_AT_name("$O$U68")
     608                            .dwattr $C$DW$112, DW_AT_TI_symbol_name("$O$U68")
     609                            .dwattr $C$DW$112, DW_AT_type(*$C$DW$T$10)
     610                            .dwattr $C$DW$112, DW_AT_location[DW_OP_reg20]
     611                    $C$DW$113       .dwtag  DW_TAG_variable, DW_AT_name("$O$U88")
     612                            .dwattr $C$DW$113, DW_AT_TI_symbol_name("$O$U88")
     613                            .dwattr $C$DW$113, DW_AT_type(*$C$DW$T$97)
     614                            .dwattr $C$DW$113, DW_AT_location[DW_OP_reg5]
     615                    $C$DW$114       .dwtag  DW_TAG_variable, DW_AT_name("$O$K130")
     616                            .dwattr $C$DW$114, DW_AT_TI_symbol_name("$O$K130")
     617                            .dwattr $C$DW$114, DW_AT_type(*$C$DW$T$80)
     618                            .dwattr $C$DW$114, DW_AT_location[DW_OP_reg8]
     619                    $C$DW$115       .dwtag  DW_TAG_variable, DW_AT_name("$O$L1")
     620                            .dwattr $C$DW$115, DW_AT_TI_symbol_name("$O$L1")
     621                            .dwattr $C$DW$115, DW_AT_type(*$C$DW$T$10)
     622                            .dwattr $C$DW$115, DW_AT_location[DW_OP_reg5]
     623                    $C$DW$116       .dwtag  DW_TAG_variable, DW_AT_name("$O$L2")
     624                            .dwattr $C$DW$116, DW_AT_TI_symbol_name("$O$L2")
     625                            .dwattr $C$DW$116, DW_AT_type(*$C$DW$T$10)
     626                            .dwattr $C$DW$116, DW_AT_location[DW_OP_reg20]
     627                    $C$DW$117       .dwtag  DW_TAG_variable, DW_AT_name("tpi")
     628                            .dwattr $C$DW$117, DW_AT_TI_symbol_name("tpi")
     629                            .dwattr $C$DW$117, DW_AT_type(*$C$DW$T$22)
     630                            .dwattr $C$DW$117, DW_AT_location[DW_OP_reg13]
     631                    $C$DW$118       .dwtag  DW_TAG_variable, DW_AT_name("prm")
     632                            .dwattr $C$DW$118, DW_AT_TI_symbol_name("prm")
     633                            .dwattr $C$DW$118, DW_AT_type(*$C$DW$T$43)
     634                            .dwattr $C$DW$118, DW_AT_location[DW_OP_breg31 28]
     635                    $C$DW$119       .dwtag  DW_TAG_variable, DW_AT_name("status_nat_vs_int")
     636                            .dwattr $C$DW$119, DW_AT_TI_symbol_name("status_nat_vs_int")
     637                            .dwattr $C$DW$119, DW_AT_type(*$C$DW$T$22)
     638                            .dwattr $C$DW$119, DW_AT_location[DW_OP_reg10]
     639                    $C$DW$120       .dwtag  DW_TAG_variable, DW_AT_name("status_nat_vs_ref")
     640                            .dwattr $C$DW$120, DW_AT_TI_symbol_name("status_nat_vs_ref")
     641                            .dwattr $C$DW$120, DW_AT_type(*$C$DW$T$22)
     642                            .dwattr $C$DW$120, DW_AT_location[DW_OP_breg31 32]
     643                    $C$DW$121       .dwtag  DW_TAG_variable, DW_AT_name("inSize")
     644                            .dwattr $C$DW$121, DW_AT_TI_symbol_name("inSize")
     645                            .dwattr $C$DW$121, DW_AT_type(*$C$DW$T$22)
     646                            .dwattr $C$DW$121, DW_AT_location[DW_OP_reg15]
     647                    $C$DW$122       .dwtag  DW_TAG_variable, DW_AT_name("X")
     648                            .dwattr $C$DW$122, DW_AT_TI_symbol_name("X")
     649                            .dwattr $C$DW$122, DW_AT_type(*$C$DW$T$21)
     650                            .dwattr $C$DW$122, DW_AT_location[DW_OP_breg31 36]
     651                    $C$DW$123       .dwtag  DW_TAG_variable, DW_AT_name("numBins")
     652                            .dwattr $C$DW$123, DW_AT_TI_symbol_name("numBins")
     653                            .dwattr $C$DW$123, DW_AT_type(*$C$DW$T$21)
     654                            .dwattr $C$DW$123, DW_AT_location[DW_OP_breg31 40]
     655                    $C$DW$124       .dwtag  DW_TAG_variable, DW_AT_name("normVals")
     656                            .dwattr $C$DW$124, DW_AT_TI_symbol_name("normVals")
     657                            .dwattr $C$DW$124, DW_AT_type(*$C$DW$T$21)
     658                            .dwattr $C$DW$124, DW_AT_location[DW_OP_breg31 44]
     659                    $C$DW$125       .dwtag  DW_TAG_variable, DW_AT_name("scrap")
     660                            .dwattr $C$DW$125, DW_AT_TI_symbol_name("scrap")
TMS320C6x Assembler PC v7.4.2 Thu Mar 19 12:41:52 2015

Tools Copyright (c) 1996-2012 Texas Instruments Incorporated
package/lib/Regression/regress_d_c/./../packages/ti/vlib/src/VLIB_histogram_nD_U16/VLIB_histogram_nD_U16_d.se66 PAGE   13

     661                            .dwattr $C$DW$125, DW_AT_type(*$C$DW$T$21)
     662                            .dwattr $C$DW$125, DW_AT_location[DW_OP_breg31 48]
     663                    $C$DW$126       .dwtag  DW_TAG_variable, DW_AT_name("H")
     664                            .dwattr $C$DW$126, DW_AT_TI_symbol_name("H")
     665                            .dwattr $C$DW$126, DW_AT_type(*$C$DW$T$21)
     666                            .dwattr $C$DW$126, DW_AT_location[DW_OP_breg31 52]
     667                    $C$DW$127       .dwtag  DW_TAG_variable, DW_AT_name("H_cn")
     668                            .dwattr $C$DW$127, DW_AT_TI_symbol_name("H_cn")
     669                            .dwattr $C$DW$127, DW_AT_type(*$C$DW$T$21)
     670                            .dwattr $C$DW$127, DW_AT_location[DW_OP_breg31 56]
     671                    $C$DW$128       .dwtag  DW_TAG_variable, DW_AT_name("H1")
     672                            .dwattr $C$DW$128, DW_AT_TI_symbol_name("H1")
     673                            .dwattr $C$DW$128, DW_AT_type(*$C$DW$T$21)
     674                            .dwattr $C$DW$128, DW_AT_location[DW_OP_breg31 60]
     675                    $C$DW$129       .dwtag  DW_TAG_variable, DW_AT_name("i")
     676                            .dwattr $C$DW$129, DW_AT_TI_symbol_name("i")
     677                            .dwattr $C$DW$129, DW_AT_type(*$C$DW$T$22)
     678                            .dwattr $C$DW$129, DW_AT_location[DW_OP_reg3]
     679                    $C$DW$130       .dwtag  DW_TAG_variable, DW_AT_name("outSize")
     680                            .dwattr $C$DW$130, DW_AT_TI_symbol_name("outSize")
     681                            .dwattr $C$DW$130, DW_AT_type(*$C$DW$T$22)
     682                            .dwattr $C$DW$130, DW_AT_location[DW_OP_reg14]
     683                    $C$DW$131       .dwtag  DW_TAG_variable, DW_AT_name("$O$U56")
     684                            .dwattr $C$DW$131, DW_AT_TI_symbol_name("$O$U56")
     685                            .dwattr $C$DW$131, DW_AT_type(*$C$DW$T$40)
     686                            .dwattr $C$DW$131, DW_AT_location[DW_OP_reg23]
     687                    $C$DW$132       .dwtag  DW_TAG_variable, DW_AT_name("$O$U56")
     688                            .dwattr $C$DW$132, DW_AT_TI_symbol_name("$O$U56")
     689                            .dwattr $C$DW$132, DW_AT_type(*$C$DW$T$40)
     690                            .dwattr $C$DW$132, DW_AT_location[DW_OP_reg23]
     691                    $C$DW$133       .dwtag  DW_TAG_variable, DW_AT_name("$O$v1")
     692                            .dwattr $C$DW$133, DW_AT_TI_symbol_name("$O$v1")
     693                            .dwattr $C$DW$133, DW_AT_type(*$C$DW$T$43)
     694                            .dwattr $C$DW$133, DW_AT_location[DW_OP_reg22]
     695                    $C$DW$134       .dwtag  DW_TAG_variable, DW_AT_name("$O$v1")
     696                            .dwattr $C$DW$134, DW_AT_TI_symbol_name("$O$v1")
     697                            .dwattr $C$DW$134, DW_AT_type(*$C$DW$T$43)
     698                            .dwattr $C$DW$134, DW_AT_location[DW_OP_reg22]
     699                    $C$DW$135       .dwtag  DW_TAG_variable, DW_AT_name("$O$v1")
     700                            .dwattr $C$DW$135, DW_AT_TI_symbol_name("$O$v1")
     701                            .dwattr $C$DW$135, DW_AT_type(*$C$DW$T$43)
     702                            .dwattr $C$DW$135, DW_AT_location[DW_OP_reg27]
     703                    $C$DW$136       .dwtag  DW_TAG_variable, DW_AT_name("$O$v1")
     704                            .dwattr $C$DW$136, DW_AT_TI_symbol_name("$O$v1")
     705                            .dwattr $C$DW$136, DW_AT_type(*$C$DW$T$43)
     706                            .dwattr $C$DW$136, DW_AT_location[DW_OP_reg27]
     707                    $C$DW$137       .dwtag  DW_TAG_variable, DW_AT_name("$O$v2")
     708                            .dwattr $C$DW$137, DW_AT_TI_symbol_name("$O$v2")
     709                            .dwattr $C$DW$137, DW_AT_type(*$C$DW$T$155)
     710                            .dwattr $C$DW$137, DW_AT_location[DW_OP_reg22]
     711                    $C$DW$138       .dwtag  DW_TAG_variable, DW_AT_name("$O$v2")
     712                            .dwattr $C$DW$138, DW_AT_TI_symbol_name("$O$v2")
     713                            .dwattr $C$DW$138, DW_AT_type(*$C$DW$T$155)
     714                            .dwattr $C$DW$138, DW_AT_location[DW_OP_reg20]
     715 00000010 0200002a!            MVKL    .S2     test_cases,B4
TMS320C6x Assembler PC v7.4.2 Thu Mar 19 12:41:52 2015

Tools Copyright (c) 1996-2012 Texas Instruments Incorporated
package/lib/Regression/regress_d_c/./../packages/ti/vlib/src/VLIB_histogram_nD_U16/VLIB_histogram_nD_U16_d.se66 PAGE   14

     716 00000014 0200006a!            MVKH    .S2     test_cases,B4
     717                    $C$DW$139       .dwtag  DW_TAG_TI_branch
     718                            .dwattr $C$DW$139, DW_AT_low_pc(0x00)
     719                            .dwattr $C$DW$139, DW_AT_name("histogram_nD_U16_getTestParams")
     720                            .dwattr $C$DW$139, DW_AT_TI_call
     721                    
     722 00000018 10000013!            CALLP   .S2     histogram_nD_U16_getTestParams,B3
     723 00000020 120007fc  ||         ADDAW   .D1X    SP,7,A4           ; |45| 
     724                    
     725                            .dwpsn  file "./../packages/ti/vlib/src/VLIB_histogram_nD_U16/VLIB_histogram_nD_U16_d.c",line 
     726                    ;----------------------------------------------------------------------
     727                    ;  45 | histogram_nD_U16_getTestParams(&prm, &test_cases);                     
     728                    ;----------------------------------------------------------------------
     729 00000024           $C$RL0:    ; CALL OCCURS {histogram_nD_U16_getTestParams} {0}  ; |45| 
     730                    ;** --------------------------------------------------------------------------*
     731                    ;          EXCLUSIVE CPU CYCLES: 8
     732 00000024 0200002a!            MVKL    .S2     $C$SL1+0,B4
     733 00000028 0200006a!            MVKH    .S2     $C$SL1+0,B4
     734                    $C$DW$140       .dwtag  DW_TAG_TI_branch
     735                            .dwattr $C$DW$140, DW_AT_low_pc(0x00)
     736                            .dwattr $C$DW$140, DW_AT_name("VLIB_profile_init")
     737                            .dwattr $C$DW$140, DW_AT_TI_call
     738                    
     739 0000002c 10000013!            CALLP   .S2     VLIB_profile_init,B3
     740 00000030 0210a358  ||         MVK     .L1     0x4,A4            ; |48| 
     741                    
     742                            .dwpsn  file "./../packages/ti/vlib/src/VLIB_histogram_nD_U16/VLIB_histogram_nD_U16_d.c",line 
     743                    ;----------------------------------------------------------------------
     744                    ;  48 | VLIB_profile_init(4, "VLIB_histogram_nD_U16");                         
     745                    ;----------------------------------------------------------------------
     746 00000034           $C$RL1:    ; CALL OCCURS {VLIB_profile_init} {0}  ; |48| 
     747                    ;** --------------------------------------------------------------------------*
     748                    ;          EXCLUSIVE CPU CYCLES: 14
     749                    ;**     -----------------------    K$40 = &testPatternString[0];
     750                    ;**     -----------------------    K$130 = &desc[0];
     751                    ;**     -----------------------    U$12 = prm;
     752                    ;**     -----------------------    U$11 = 0;
     753                    ;** 51  -----------------------    tpi = 0;
     754                    ;**     -----------------------    #pragma LOOP_FLAGS(5120u)
     755 00000034 01800028!            MVKL    .S1     test_cases,A3
     756 00000038 01800068!            MVKH    .S1     test_cases,A3
     757                            .dwpsn  file "./../packages/ti/vlib/src/VLIB_histogram_nD_U16/VLIB_histogram_nD_U16_d.c",line 
     758                    ;----------------------------------------------------------------------
     759                    ;  51 | for( tpi=0; tpi < test_cases; tpi++ ) {                                
     760                    ;----------------------------------------------------------------------
     761 0000003c 018c0264             LDW     .D1T1   *A3,A3            ; |51| 
     762 00000040 063ce2e6             LDW     .D2T2   *+SP(28),B12
     763                            .dwpsn  file "./../packages/ti/vlib/src/VLIB_histogram_nD_U16/VLIB_histogram_nD_U16_d.c",line 
     764                    ;----------------------------------------------------------------------
     765                    ;  54 | int32_t    status_nat_vs_int = vlib_KERNEL_PASS; /* Test status : Natur
     766                    ;     | al c vs. Optimized */                                                  
     767                    ;  55 | int32_t    status_nat_vs_ref = vlib_KERNEL_PASS; /* Test status : Natur
     768                    ;     | al c vs. Static Reference */                                           
     769                    ;----------------------------------------------------------------------
     770 00000044 0680a35a             ZERO    .L2     B13               ; |51| 
TMS320C6x Assembler PC v7.4.2 Thu Mar 19 12:41:52 2015

Tools Copyright (c) 1996-2012 Texas Instruments Incorporated
package/lib/Regression/regress_d_c/./../packages/ti/vlib/src/VLIB_histogram_nD_U16/VLIB_histogram_nD_U16_d.se66 PAGE   15

     771 00000048 0680a358             ZERO    .L1     A13               ; |51| 
     772 0000004c     0c6e             NOP             1
     773                            .dwpsn  file "./../packages/ti/vlib/src/VLIB_histogram_nD_U16/VLIB_histogram_nD_U16_d.c",line 
     774 0000004e     11a6             CMPGT   .L1     A3,0,A0           ; |51| 
     775                    
     776 00000050 d3902121     [!A0]   BNOP    .S1     $C$L19,1          ; |51| 
     777 00000054 c1b0c2e4  || [ A0]   LDW     .D2T1   *+B12(24),A3      ; |58| 
     778                    
     779                            .dwpsn  file "./../packages/ti/vlib/src/VLIB_histogram_nD_U16/VLIB_histogram_nD_U16_d.c",line 
     780                    ;----------------------------------------------------------------------
     781                    ;  58 | int32_t    inSize = prm[tpi].numX * prm[tpi].dimX;                     
     782                    ;----------------------------------------------------------------------
     783 00000058 c230a2e6     [ A0]   LDW     .D2T2   *+B12(20),B4      ; |58| 
     784 00000060 00004000             NOP             3
     785                            .dwpsn  file "./../packages/ti/vlib/src/VLIB_histogram_nD_U16/VLIB_histogram_nD_U16_d.c",line 
     786                               ; BRANCHCC OCCURS {$C$L19}        ; |51| 
     787                    ;** --------------------------------------------------------------------------*
     788                    ;**   BEGIN LOOP $C$L1
     789                    ;** --------------------------------------------------------------------------*
     790 00000064           $C$L1:    
     791                            .dwpsn  file "./../packages/ti/vlib/src/VLIB_histogram_nD_U16/VLIB_histogram_nD_U16_d.c",line 
     792 00000064           $C$DW$L$VLIB_histogram_nD_U16_d$4$B:
     793                    ;          EXCLUSIVE CPU CYCLES: 6
     794                    ;**     -----------------------g3:
     795                    ;** 58  -----------------------    inSize = (*U$12).numX*(*U$12).dimX;
     796                    ;** 61  -----------------------    X = VLIB_malloc((unsigned)(inSize*2));
     797                    ;** 62  -----------------------    numBins = VLIB_malloc((unsigned)((*U$12).dimX*2));
     798                    ;** 63  -----------------------    normVals = VLIB_malloc((unsigned)((*U$12).dimX*2));
     799                    ;** 64  -----------------------    scrap = VLIB_malloc((unsigned)((*U$12).numX*2));
     800                    ;** 70  -----------------------    if ( !((X != NULL)&(numBins != NULL)&(normVals != NULL)&(scrap != N
     801                            .dwpsn  file "./../packages/ti/vlib/src/VLIB_histogram_nD_U16/VLIB_histogram_nD_U16_d.c",line 
     802                    ;----------------------------------------------------------------------
     803                    ;  61 | uint16_t   *X              =  (uint16_t *) VLIB_malloc(inSize * sizeof(
     804                    ;     | uint16_t));                                                            
     805                    ;----------------------------------------------------------------------
     806                    $C$DW$141       .dwtag  DW_TAG_TI_branch
     807                            .dwattr $C$DW$141, DW_AT_low_pc(0x00)
     808                            .dwattr $C$DW$141, DW_AT_name("VLIB_malloc")
     809                            .dwattr $C$DW$141, DW_AT_TI_call
     810 00000064 00000010!            CALL    .S1     VLIB_malloc       ; |61| 
     811                            .dwpsn  file "./../packages/ti/vlib/src/VLIB_histogram_nD_U16/VLIB_histogram_nD_U16_d.c",line 
     812 00000068 07907800             MPY32   .M1X    A3,B4,A15         ; |58| 
     813                            .dwpsn  file "./../packages/ti/vlib/src/VLIB_histogram_nD_U16/VLIB_histogram_nD_U16_d.c",line 
     814 0000006c 01854162             ADDKPC  .S2     $C$RL2,B3,2       ; |61| 
     815 00000070 023de078             ADD     .L1     A15,A15,A4        ; |61| 
     816 00000074           $C$RL2:    ; CALL OCCURS {VLIB_malloc} {0}   ; |61| 
     817 00000074           $C$DW$L$VLIB_histogram_nD_U16_d$4$E:
     818                    ;** --------------------------------------------------------------------------*
     819 00000074           $C$DW$L$VLIB_histogram_nD_U16_d$5$B:
     820                    ;          EXCLUSIVE CPU CYCLES: 33
     821                            .dwpsn  file "./../packages/ti/vlib/src/VLIB_histogram_nD_U16/VLIB_histogram_nD_U16_d.c",line 
     822                    ;----------------------------------------------------------------------
     823                    ;  62 | uint16_t   *numBins        =  (uint16_t *) VLIB_malloc(prm[tpi].dimX *
     824                    ;     | sizeof(uint16_t));                                                     
     825                    ;----------------------------------------------------------------------
TMS320C6x Assembler PC v7.4.2 Thu Mar 19 12:41:52 2015

Tools Copyright (c) 1996-2012 Texas Instruments Incorporated
package/lib/Regression/regress_d_c/./../packages/ti/vlib/src/VLIB_histogram_nD_U16/VLIB_histogram_nD_U16_d.se66 PAGE   16

     826 00000074 01b0c2e4             LDW     .D2T1   *+B12(24),A3      ; |62| 
     827                            .dwpsn  file "./../packages/ti/vlib/src/VLIB_histogram_nD_U16/VLIB_histogram_nD_U16_d.c",line 
     828 00000078     ad45             STW     .D2T1   A4,*+SP(36)       ; |61| 
     829 0000007a     4c6e             NOP             3
     830                    $C$DW$142       .dwtag  DW_TAG_TI_branch
     831                            .dwattr $C$DW$142, DW_AT_low_pc(0x04)
     832                            .dwattr $C$DW$142, DW_AT_name("VLIB_malloc")
     833                            .dwattr $C$DW$142, DW_AT_TI_call
     834                    
     835 00000084 020c6078             ADD     .L1     A3,A3,A4          ; |62| 
     836 00000080 10000013! ||         CALLP   .S2     VLIB_malloc,B3
     837                    
     838                            .dwpsn  file "./../packages/ti/vlib/src/VLIB_histogram_nD_U16/VLIB_histogram_nD_U16_d.c",line 
     839 00000088           $C$RL3:    ; CALL OCCURS {VLIB_malloc} {0}   ; |62| 
     840                            .dwpsn  file "./../packages/ti/vlib/src/VLIB_histogram_nD_U16/VLIB_histogram_nD_U16_d.c",line 
     841                    ;----------------------------------------------------------------------
     842                    ;  63 | uint16_t   *normVals       =  (uint16_t *) VLIB_malloc(prm[tpi].dimX *
     843                    ;     | sizeof(uint16_t));                                                     
     844                    ;----------------------------------------------------------------------
     845 00000088 01b0c2e4             LDW     .D2T1   *+B12(24),A3      ; |63| 
     846                            .dwpsn  file "./../packages/ti/vlib/src/VLIB_histogram_nD_U16/VLIB_histogram_nD_U16_d.c",line 
     847 0000008c     cd45             STW     .D2T1   A4,*+SP(40)       ; |62| 
     848 0000008e     4c6e             NOP             3
     849                    $C$DW$143       .dwtag  DW_TAG_TI_branch
     850                            .dwattr $C$DW$143, DW_AT_low_pc(0x04)
     851                            .dwattr $C$DW$143, DW_AT_name("VLIB_malloc")
     852                            .dwattr $C$DW$143, DW_AT_TI_call
     853                    
     854 00000094 020c6078             ADD     .L1     A3,A3,A4          ; |63| 
     855 00000090 10000013! ||         CALLP   .S2     VLIB_malloc,B3
     856                    
     857                            .dwpsn  file "./../packages/ti/vlib/src/VLIB_histogram_nD_U16/VLIB_histogram_nD_U16_d.c",line 
     858 00000098           $C$RL4:    ; CALL OCCURS {VLIB_malloc} {0}   ; |63| 
     859                            .dwpsn  file "./../packages/ti/vlib/src/VLIB_histogram_nD_U16/VLIB_histogram_nD_U16_d.c",line 
     860                    ;----------------------------------------------------------------------
     861                    ;  64 | uint16_t   *scrap          =  (uint16_t *) VLIB_malloc(prm[tpi].numX *
     862                    ;     | sizeof(uint16_t));                                                     
     863                    ;----------------------------------------------------------------------
     864 00000098 01b0a2e4             LDW     .D2T1   *+B12(20),A3      ; |64| 
     865                            .dwpsn  file "./../packages/ti/vlib/src/VLIB_histogram_nD_U16/VLIB_histogram_nD_U16_d.c",line 
     866 000000a0     ed45             STW     .D2T1   A4,*+SP(44)       ; |63| 
     867 000000a2     4c6e             NOP             3
     868                    $C$DW$144       .dwtag  DW_TAG_TI_branch
     869                            .dwattr $C$DW$144, DW_AT_low_pc(0x04)
     870                            .dwattr $C$DW$144, DW_AT_name("VLIB_malloc")
     871                            .dwattr $C$DW$144, DW_AT_TI_call
     872                    
     873 000000a8     61c0             ADD     .L1     A3,A3,A4          ; |64| 
     874 000000a4 10000013! ||         CALLP   .S2     VLIB_malloc,B3
     875                    
     876                            .dwpsn  file "./../packages/ti/vlib/src/VLIB_histogram_nD_U16/VLIB_histogram_nD_U16_d.c",line 
     877                    ;----------------------------------------------------------------------
     878                    ;  65 | uint16_t   *H;                                                         
     879                    ;  66 | uint16_t   *H_cn;                                                      
     880                    ;  67 | uint16_t   *H1;                                                        
TMS320C6x Assembler PC v7.4.2 Thu Mar 19 12:41:52 2015

Tools Copyright (c) 1996-2012 Texas Instruments Incorporated
package/lib/Regression/regress_d_c/./../packages/ti/vlib/src/VLIB_histogram_nD_U16/VLIB_histogram_nD_U16_d.se66 PAGE   17

     881                    ;----------------------------------------------------------------------
     882 000000aa           $C$RL5:    ; CALL OCCURS {VLIB_malloc} {0}   ; |64| 
     883 000000aa           $C$DW$L$VLIB_histogram_nD_U16_d$5$E:
     884                    ;** --------------------------------------------------------------------------*
     885 000000aa           $C$DW$L$VLIB_histogram_nD_U16_d$6$B:
     886                    ;          EXCLUSIVE CPU CYCLES: 17
     887                    
     888 000000aa     cd0d             LDW     .D2T1   *+SP(40),A0       ; |70| 
     889 000000ac     05a6  ||         ZERO    .L1     A3                ; |70| 
     890 000000ae     0627  ||         ZERO    .L2     B4                ; |70| 
     891                    
     892                            .dwpsn  file "./../packages/ti/vlib/src/VLIB_histogram_nD_U16/VLIB_histogram_nD_U16_d.c",line 
     893                    ;----------------------------------------------------------------------
     894                    ;  70 | if( X && numBins && normVals && scrap ) {                              
     895                    ;  72 |     int32_t    fail, i, outSize;                                       
     896                    ;  75 |     VLIB_fillBuffer(STATIC,                                            
     897                    ;  76 |                     (uint16_t)1,                                       
     898                    ;  77 |                     numBins, prm[tpi].numBins,                         
     899                    ;  78 |                     prm[tpi].dimX, 1, prm[tpi].dimX * sizeof(numBins[0]
     900                    ;     | ),                                                                     
     901                    ;  79 |                     sizeof(numBins[0]), testPatternString);            
     902                    ;  81 |     if( prm[tpi].normVals ) {                                          
     903                    ;  82 |         VLIB_fillBuffer(STATIC,                                        
     904                    ;  83 |                         (uint16_t)1,                                   
     905                    ;  84 |                         normVals, prm[tpi].normVals,                   
     906                    ;  85 |                         prm[tpi].dimX, 1, prm[tpi].dimX * sizeof(normVa
     907                    ;     | ls[0]),                                                                
     908                    ;  86 |                         sizeof(normVals[0]), testPatternString);       
     909                    ;  87 |     } else {                                                           
     910                    ;  88 |         for( i=0; i < prm[tpi].dimX; i++ ) {                           
     911                    ;  90 |             normVals[i] = 65536 / prm[tpi].maxSize;                    
     912                    ;  94 |     VLIB_fillBuffer(prm[tpi].testPattern,                              
     913                    ;  95 |                     (uint16_t)1,                                       
     914                    ;  96 |                     X, prm[tpi].staticIn,                              
     915                    ;  97 |                     inSize, 1, inSize * sizeof(X[0]),                  
     916                    ;  98 |                     sizeof(X[0]), testPatternString);                  
     917                    ; 101 |     for( i=0; i < prm[tpi].numX * prm[tpi].dimX; i++ ) {               
     918                    ; 102 |         if( X[i] > prm[tpi].maxSize - 1 ) {                            
     919                    ; 103 |             X[i] = prm[tpi].maxSize - 1;                               
     920                    ; 107 |     outSize = 1;                                                       
     921                    ; 109 |     for( i=0; i < prm[tpi].dimX; i++ ) {                               
     922                    ; 110 |         outSize *= numBins[i];                                         
     923                    ; 113 |     H    =  (uint16_t *) VLIB_malloc(outSize * sizeof(uint16_t));      
     924                    ; 114 |     H_cn =  (uint16_t *) malloc(outSize * sizeof(uint16_t));           
     925                    ; 115 |     H1   =  (uint16_t *) VLIB_malloc(outSize * sizeof(uint16_t));      
     926                    ; 117 |     if( H && H_cn && H1 ) {                                            
     927                    ; 120 |         memset(H, 0, outSize * sizeof(uint16_t));                      
     928                    ; 121 |         memset(H1, 0, outSize * sizeof(uint16_t));                     
     929                    ; 122 |         memset(scrap, 0, prm[tpi].numX * sizeof(uint16_t));            
     930                    ; 125 |         VLIB_profile_start(vlib_KERNEL_OPT);                           
     931                    ; 126 |         VLIB_histogram_nD_U16(X, prm[tpi].numX, prm[tpi].dimX, prm[tpi]
     932                    ;     | .binWeight, numBins, normVals, scrap, H1, H);                          
     933                    ; 127 |         VLIB_profile_stop();                                           
     934                    ; 130 |         memset(H_cn, 0, outSize * sizeof(uint16_t));                   
     935                    ; 131 |         memset(H1, 0, outSize * sizeof(uint16_t));                     
TMS320C6x Assembler PC v7.4.2 Thu Mar 19 12:41:52 2015

Tools Copyright (c) 1996-2012 Texas Instruments Incorporated
package/lib/Regression/regress_d_c/./../packages/ti/vlib/src/VLIB_histogram_nD_U16/VLIB_histogram_nD_U16_d.se66 PAGE   18

     936                    ; 132 |         memset(scrap, 0, prm[tpi].numX * sizeof(uint16_t));            
     937                    ; 135 |         VLIB_profile_start(vlib_KERNEL_CN);                            
     938                    ; 136 |         VLIB_histogram_nD_U16_cn(X, prm[tpi].numX, prm[tpi].dimX, prm[t
     939                    ;     | pi].binWeight, numBins, normVals, scrap, H1, H_cn);                    
     940                    ; 137 |         VLIB_profile_stop();                                           
     941                    ; 141 |         status_nat_vs_int = VLIB_compare_mem((void *) H, (void *)H_cn,
     942                    ;     | outSize * sizeof(uint16_t));                                           
     943                    ; 144 |         if( prm[tpi].staticOut != NULL ) {                             
     944                    ; 145 |             status_nat_vs_ref = VLIB_compare_mem((void *) prm[tpi].stat
     945                    ;     | icOut, (void *)H_cn, outSize * sizeof(uint16_t));                      
     946                    ; 149 |         fail = ((status_nat_vs_int == vlib_KERNEL_FAIL) || (status_nat_
     947                    ;     | vs_ref == vlib_KERNEL_FAIL)) ? 1 : 0;                                  
     948                    ; 151 |         est_test=1;                                                    
     949                    ; 154 |         sprintf(desc, "%s generated input | Opt results compared to Nat
     950                    ;     | C results | numX=%d, dimX=%d, maxSize=%d, outsize=%d",                 
     951                    ; 155 |                 testPatternString, prm[tpi].numX, prm[tpi].dimX, prm[tp
     952                    ;     | i].maxSize, outSize);                                                  
     953                    ; 156 |         VLIB_formula_add_test(inSize, prm[tpi].numX, outSize, fail, des
     954                    ;     | c, NULL);                                                              
     955                    ; 157 |     } else {                                                           
     956                    ; 159 |         sprintf(desc, "numX=%d, dimX=%d, maxSize=%d, outsize=%d",      
     957                    ; 160 |                 prm[tpi].numX, prm[tpi].dimX, prm[tpi].maxSize, outSize
     958                    ;     | );                                                                     
     959                    ; 161 |         VLIB_skip_test(desc);                                          
     960                    ; 163 | } else {                                                               
     961                    ;----------------------------------------------------------------------
     962 000000b0     ad2d             LDW     .D2T1   *+SP(36),A2       ; |70| 
     963 000000b2     fd0d             LDW     .D2T2   *+SP(44),B0       ; |70| 
     964                    
     965 000000b4     8dc5             STW     .D2T1   A4,*+SP(48)       ; |64| 
     966 000000b6     0626  ||         ZERO    .L1     A4                ; |70| 
     967                    
     968 000000b8     8d9d             LDW     .D2T1   *+SP(48),A1       ; |70| 
     969 000000ba     2a66     [ A0]   MVK     .L1     0x1,A4            ; |70| 
     970 000000c0 a204a35a     [ A2]   MVK     .L2     0x1,B4            ; |70| 
     971                    
     972 000000c8     a9e6     [ B0]   MVK     .L1     0x1,A3            ; |70| 
     973 000000c4 02909f7b  ||         AND     .L2X    A4,B4,B5          ; |70| 
     974                    
     975 000000ca     0627             ZERO    .L2     B4                ; |70| 
     976                    
     977 000000cc 8204a35b     [ A1]   MVK     .L2     0x1,B4            ; |70| 
     978 000000d0 028cb7e2  ||         AND     .S2X    A3,B5,B5          ; |70| 
     979                    
     980 000000d4 00148f7a             AND     .L2     B4,B5,B0          ; |70| 
     981                    
     982 000000d8 3000c091     [!B0]   B       .S1     $C$L16            ; |70| 
     983 000000e0 2230c2e6  || [ B0]   LDW     .D2T2   *+B12(24),B4      ; |75| 
     984                    
     985                            .dwpsn  file "./../packages/ti/vlib/src/VLIB_histogram_nD_U16/VLIB_histogram_nD_U16_d.c",line 
     986                    ;----------------------------------------------------------------------
     987                    ; 165 | sprintf(desc, "numX=%d, dimX=%d, maxSize=%d",                          
     988                    ; 166 |         prm[tpi].numX, prm[tpi].dimX, prm[tpi].maxSize);               
     989                    ; 167 | VLIB_skip_test(desc);                                                  
     990                    ;----------------------------------------------------------------------
TMS320C6x Assembler PC v7.4.2 Thu Mar 19 12:41:52 2015

Tools Copyright (c) 1996-2012 Texas Instruments Incorporated
package/lib/Regression/regress_d_c/./../packages/ti/vlib/src/VLIB_histogram_nD_U16/VLIB_histogram_nD_U16_d.se66 PAGE   19

     991 000000e4 32b0c2e6     [!B0]   LDW     .D2T2   *+B12(24),B5      ; |165| 
     992 000000e8 3330a2e6     [!B0]   LDW     .D2T2   *+B12(20),B6      ; |165| 
     993                    $C$DW$145       .dwtag  DW_TAG_TI_branch
     994                            .dwattr $C$DW$145, DW_AT_low_pc(0x00)
     995                            .dwattr $C$DW$145, DW_AT_name("VLIB_fillBuffer")
     996                            .dwattr $C$DW$145, DW_AT_TI_call
     997                    
     998 000000ec 20000011!    [ B0]   CALL    .S1     VLIB_fillBuffer   ; |75| 
     999 000000f0 233042e6  || [ B0]   LDW     .D2T2   *+B12(8),B6       ; |75| 
    1000                    
    1001                            .dwpsn  file "./../packages/ti/vlib/src/VLIB_histogram_nD_U16/VLIB_histogram_nD_U16_d.c",line 
    1002 000000f4 233d42e4     [ B0]   LDW     .D2T1   *+SP(40),A6       ; |75| 
    1003                    $C$DW$146       .dwtag  DW_TAG_TI_branch
    1004                            .dwattr $C$DW$146, DW_AT_low_pc(0x00)
    1005                            .dwattr $C$DW$146, DW_AT_name("sprintf")
    1006                            .dwattr $C$DW$146, DW_AT_TI_call
    1007                    
    1008 000000f8 30000011!    [!B0]   CALL    .S1     sprintf           ; |165| 
    1009 000000fc 0392100b  ||         EXTU    .S2     B4,16,16,B7       ; |75| 
    1010 00000100 323102e6  || [!B0]   LDW     .D2T2   *+B12(32),B4      ; |165| 
    1011                    
    1012                            .dwpsn  file "./../packages/ti/vlib/src/VLIB_histogram_nD_U16/VLIB_histogram_nD_U16_d.c",line 
    1013                               ; BRANCHCC OCCURS {$C$L16}        ; |70| 
    1014 00000104           $C$DW$L$VLIB_histogram_nD_U16_d$6$E:
    1015                    ;** --------------------------------------------------------------------------*
    1016 00000104           $C$DW$L$VLIB_histogram_nD_U16_d$7$B:
    1017                    ;          EXCLUSIVE CPU CYCLES: 3
    1018                    ;** 75  -----------------------    C$15 = (*U$12).dimX;
    1019                    ;** 75  -----------------------    VLIB_fillBuffer(4u, 1u, (void *)numBins, (*U$12).numBins, (unsigned
    1020                    ;** 81  -----------------------    v$1 = prm;
    1021                    ;** 55  -----------------------    status_nat_vs_ref = 1;
    1022                    ;** 81  -----------------------    if ( (*U$12).normVals ) goto g8;
    1023                    
    1024 00000104 0292300b             EXTU    .S2     B4,17,16,B5       ; |75| 
    1025 00000108 06000028! ||         MVKL    .S1     testPatternString,A12
    1026                    
    1027 0000010c     2627             MVK     .L2     0x1,B4            ; |75| 
    1028 0000010e     17c6  ||         MV      .L1X    B7,A8             ; |75| 
    1029 00000110 06000068! ||         MVKH    .S1     testPatternString,A12
    1030                    
    1031 00000114     56c6             MV      .L1X    B5,A10            ; |75| 
    1032 00000116     0647  ||         MV      .L2     B4,B8             ; |75| 
    1033 00000118 018a0163  ||         ADDKPC  .S2     $C$RL6,B3,0       ; |75| 
    1034 00000120 05004043  ||         MVK     .D2     0x2,B10           ; |75| 
    1035 00000124 02000228  ||         MVK     .S1     0x4,A4            ; |75| 
    1036                    
    1037                            .dwpsn  file "./../packages/ti/vlib/src/VLIB_histogram_nD_U16/VLIB_histogram_nD_U16_d.c",line 
    1038 00000128           $C$RL6:    ; CALL OCCURS {VLIB_fillBuffer} {0}  ; |75| 
    1039 00000128           $C$DW$L$VLIB_histogram_nD_U16_d$7$E:
    1040                    ;** --------------------------------------------------------------------------*
    1041 00000128           $C$DW$L$VLIB_histogram_nD_U16_d$8$B:
    1042                    ;          EXCLUSIVE CPU CYCLES: 11
    1043                            .dwpsn  file "./../packages/ti/vlib/src/VLIB_histogram_nD_U16/VLIB_histogram_nD_U16_d.c",line 
    1044 00000128 003062e6             LDW     .D2T2   *+B12(12),B0      ; |81| 
    1045                            .dwpsn  file "./../packages/ti/vlib/src/VLIB_histogram_nD_U16/VLIB_histogram_nD_U16_d.c",line 
TMS320C6x Assembler PC v7.4.2 Thu Mar 19 12:41:52 2015

Tools Copyright (c) 1996-2012 Texas Instruments Incorporated
package/lib/Regression/regress_d_c/./../packages/ti/vlib/src/VLIB_histogram_nD_U16/VLIB_histogram_nD_U16_d.se66 PAGE   20

    1046 0000012c     25a6             MVK     .L1     0x1,A3            ; |55| 
    1047                            .dwpsn  file "./../packages/ti/vlib/src/VLIB_histogram_nD_U16/VLIB_histogram_nD_U16_d.c",line 
    1048 0000012e     8d35             STW     .D2T1   A3,*+SP(32)       ; |81| 
    1049 00000130     fced             LDW     .D2T2   *+SP(28),B6       ; |81| 
    1050 00000132     0c6e             NOP             1
    1051                    
    1052 00000134 20516121     [ B0]   BNOP    .S1     $C$L3,3           ; |81| 
    1053 00000138 3230c2e7  || [!B0]   LDW     .D2T2   *+B12(24),B4      ; |88| 
    1054 00000140 01000fda  ||         MV      .L2     B0,B2             ; branch predicate copy
    1055                    
    1056                            .dwpsn  file "./../packages/ti/vlib/src/VLIB_histogram_nD_U16/VLIB_histogram_nD_U16_d.c",line 
    1057 00000144 62b4c07a     [ B2]   ADD     .L2     B6,B13,B5         ; |82| 
    1058                    
    1059 00000148 00100adb             CMPGT   .L2     B4,0,B0           ; |88| 
    1060 0000014c 6214c2e7  || [ B2]   LDW     .D2T2   *+B5(24),B4       ; |82| 
    1061                    
    1062                            .dwpsn  file "./../packages/ti/vlib/src/VLIB_histogram_nD_U16/VLIB_histogram_nD_U16_d.c",line 
    1063                               ; BRANCHCC OCCURS {$C$L3}         ; |81| 
    1064 00000160           $C$DW$L$VLIB_histogram_nD_U16_d$8$E:
    1065                    ;** --------------------------------------------------------------------------*
    1066 00000160           $C$DW$L$VLIB_histogram_nD_U16_d$9$B:
    1067                    ;          EXCLUSIVE CPU CYCLES: 6
    1068                    ;** 88  -----------------------    if ( (C$14 = (*U$12).dimX) <= 0 ) goto g9;
    1069                    
    1070 00000160 30238121     [!B0]   BNOP    .S1     $C$L4,4           ; |88| 
    1071 00000164 2380a359  || [ B0]   ZERO    .L1     A7
    1072 00000168 229018f1  || [ B0]   MV      .D1X    B4,A5             ; |90| 
    1073 0000016c 21bd62e5  || [ B0]   LDW     .D2T1   *+SP(44),A3       ; |90| 
    1074 00000170 23b4c07a  || [ B0]   ADD     .L2     B6,B13,B7
    1075                    
    1076 00000174 239e1088     [ B0]   SET     .S1     A7,0x10,0x10,A7
    1077                            .dwpsn  file "./../packages/ti/vlib/src/VLIB_histogram_nD_U16/VLIB_histogram_nD_U16_d.c",line 
    1078                               ; BRANCHCC OCCURS {$C$L4}         ; |88| 
    1079 00000178           $C$DW$L$VLIB_histogram_nD_U16_d$9$E:
    1080                    ;** --------------------------------------------------------------------------*
    1081 00000178           $C$DW$L$VLIB_histogram_nD_U16_d$10$B:
    1082                    ;**     -----------------------    K$55 = 65536;
    1083                    ;**     -----------------------    U$56 = U$11+v$1;
    1084                    ;**     -----------------------    U$61 = normVals;
    1085                    ;** 90  -----------------------    L$1 = C$14;
    1086                    ;**     -----------------------    #pragma MUST_ITERATE(1, 18446744073709551615, 1)
    1087                    ;**     -----------------------    #pragma LOOP_FLAGS(4096u)
    1088 00000178           $C$DW$L$VLIB_histogram_nD_U16_d$10$E:
    1089                    ;*----------------------------------------------------------------------------*
    1090                    ;*   SOFTWARE PIPELINE INFORMATION
    1091                    ;*      Disqualified loop: Loop contains a call
    1092                    ;*      Disqualified loop: Loop contains non-pipelinable instructions
    1093                    ;*----------------------------------------------------------------------------*
    1094 00000178           $C$L2:    
    1095                            .dwpsn  file "./../packages/ti/vlib/src/VLIB_histogram_nD_U16/VLIB_histogram_nD_U16_d.c",line 
    1096                    $C$DW$L$VLIB_histogram_nD_U16_d$11$B:
    1097                    ;          EXCLUSIVE CPU CYCLES: 6
    1098                    ;**     -----------------------g7:
    1099                    ;** 90  -----------------------    *U$61++ = K$55/(*U$56).maxSize;
    1100                    ;** 88  -----------------------    if ( L$1 = L$1-1 ) goto g7;
TMS320C6x Assembler PC v7.4.2 Thu Mar 19 12:41:52 2015

Tools Copyright (c) 1996-2012 Texas Instruments Incorporated
package/lib/Regression/regress_d_c/./../packages/ti/vlib/src/VLIB_histogram_nD_U16/VLIB_histogram_nD_U16_d.se66 PAGE   21

    1101                    $C$DW$147       .dwtag  DW_TAG_TI_branch
    1102                            .dwattr $C$DW$147, DW_AT_low_pc(0x00)
    1103                            .dwattr $C$DW$147, DW_AT_name("__c6xabi_divi")
    1104                            .dwattr $C$DW$147, DW_AT_TI_call
    1105 00000178 00000010!            CALL    .S1     __c6xabi_divi     ; |90| 
    1106 0000017c 021d02e6             LDW     .D2T2   *+B7(32),B4       ; |90| 
    1107 00000180 01824162             ADDKPC  .S2     $C$RL7,B3,2       ; |90| 
    1108 00000184 021c0fd8             MV      .L1     A7,A4             ; |90| 
    1109 00000188           $C$RL7:    ; CALL OCCURS {__c6xabi_divi} {0}  ; |90| 
    1110 00000188           $C$DW$L$VLIB_histogram_nD_U16_d$11$E:
    1111                    ;** --------------------------------------------------------------------------*
    1112 00000188           $C$DW$L$VLIB_histogram_nD_U16_d$12$B:
    1113                    ;          EXCLUSIVE CPU CYCLES: 7
    1114                    
    1115 00000188     ee80             SUB     .L1     A5,1,A0           ; |88| 
    1116 0000018c 020c3654  ||         STH     .D1T1   A4,*A3++          ; |90| 
    1117 0000018a     7aee  ||         SUB     .S1     A5,1,A5           ; |88| 
    1118                    
    1119                            .dwpsn  file "./../packages/ti/vlib/src/VLIB_histogram_nD_U16/VLIB_histogram_nD_U16_d.c",line 
    1120 00000190 cffca121     [ A0]   BNOP    .S1     $C$L2,5           ; |88| 
    1121                               ; BRANCHCC OCCURS {$C$L2}         ; |88| 
    1122 000001a0           $C$DW$L$VLIB_histogram_nD_U16_d$12$E:
    1123                    ;** --------------------------------------------------------------------------*
    1124 000001a0           $C$DW$L$VLIB_histogram_nD_U16_d$13$B:
    1125                    ;          EXCLUSIVE CPU CYCLES: 6
    1126                    ;** 88  -----------------------    goto g9;
    1127                    
    1128 000001a0 00000d91             B       .S1     $C$L5             ; |88| 
    1129 000001a4 0234c07b  ||         ADD     .L2     B6,B13,B4         ; |94| 
    1130 000001a8     ad6d  ||         LDW     .D2T1   *+SP(36),A6       ; |94| 
    1131                    
    1132                    $C$DW$148       .dwtag  DW_TAG_TI_branch
    1133                            .dwattr $C$DW$148, DW_AT_low_pc(0x00)
    1134                            .dwattr $C$DW$148, DW_AT_name("VLIB_fillBuffer")
    1135                            .dwattr $C$DW$148, DW_AT_TI_call
    1136                    
    1137 000001ac 00000010!            CALL    .S1     VLIB_fillBuffer   ; |94| 
    1138 000001aa     125d  ||         LDBU    .D2T2   *B4,B5            ; |94| 
    1139                    
    1140                            .dwpsn  file "./../packages/ti/vlib/src/VLIB_histogram_nD_U16/VLIB_histogram_nD_U16_d.c",line 
    1141 000001b0 031022e6             LDW     .D2T2   *+B4(4),B6        ; |94| 
    1142 000001b4 043e1008             EXTU    .S1     A15,16,16,A8      ; |94| 
    1143 000001b8 0404a35a             MVK     .L2     0x1,B8            ; |94| 
    1144 000001c0     0c6e             NOP             1
    1145                            .dwpsn  file "./../packages/ti/vlib/src/VLIB_histogram_nD_U16/VLIB_histogram_nD_U16_d.c",line 
    1146                               ; BRANCH OCCURS {$C$L5}           ; |88| 
    1147 000001c2           $C$DW$L$VLIB_histogram_nD_U16_d$13$E:
    1148                    ;** --------------------------------------------------------------------------*
    1149 000001c2           $C$L3:    
    1150                            .dwpsn  file "./../packages/ti/vlib/src/VLIB_histogram_nD_U16/VLIB_histogram_nD_U16_d.c",line 
    1151 000001c2           $C$DW$L$VLIB_histogram_nD_U16_d$14$B:
    1152                    ;          EXCLUSIVE CPU CYCLES: 8
    1153                    ;**     -----------------------g8:
    1154                    ;** 82  -----------------------    C$12 = U$11+v$1;
    1155                    ;** 82  -----------------------    C$13 = (*C$12).dimX;
TMS320C6x Assembler PC v7.4.2 Thu Mar 19 12:41:52 2015

Tools Copyright (c) 1996-2012 Texas Instruments Incorporated
package/lib/Regression/regress_d_c/./../packages/ti/vlib/src/VLIB_histogram_nD_U16/VLIB_histogram_nD_U16_d.se66 PAGE   22

    1156                    ;** 82  -----------------------    VLIB_fillBuffer(4u, 1u, (void *)normVals, (*C$12).normVals, (unsign
    1157                    ;** 87  -----------------------    v$1 = prm;
    1158                            .dwpsn  file "./../packages/ti/vlib/src/VLIB_histogram_nD_U16/VLIB_histogram_nD_U16_d.c",line 
    1159 000001c2     70ed             LDW     .D2T2   *+B5(12),B6       ; |82| 
    1160 000001c4 033d62e4             LDW     .D2T1   *+SP(44),A6       ; |82| 
    1161                    $C$DW$149       .dwtag  DW_TAG_TI_branch
    1162                            .dwattr $C$DW$149, DW_AT_low_pc(0x00)
    1163                            .dwattr $C$DW$149, DW_AT_name("VLIB_fillBuffer")
    1164                            .dwattr $C$DW$149, DW_AT_TI_call
    1165 000001c8 00000010!            CALL    .S1     VLIB_fillBuffer   ; |82| 
    1166 000001cc 040c1fda             MV      .L2X    A3,B8             ; |82| 
    1167 000001d0 0392300a             EXTU    .S2     B4,17,16,B7       ; |82| 
    1168 000001d4     b263             EXTU    .S2     B4,16,16,B5       ; |82| 
    1169 000001d6     57c6             MV      .L1X    B7,A10            ; |82| 
    1170                    
    1171 000001d8     16c6             MV      .L1X    B5,A8             ; |82| 
    1172 000001da     91c7  ||         MV      .L2X    A3,B4             ; |82| 
    1173 000001e0 01820163  ||         ADDKPC  .S2     $C$RL8,B3,0       ; |82| 
    1174 000001e4 02000228  ||         MVK     .S1     0x4,A4            ; |82| 
    1175                    
    1176 000001e8           $C$RL8:    ; CALL OCCURS {VLIB_fillBuffer} {0}  ; |82| 
    1177 000001e8           $C$DW$L$VLIB_histogram_nD_U16_d$14$E:
    1178                    ;** --------------------------------------------------------------------------*
    1179 000001e8           $C$DW$L$VLIB_histogram_nD_U16_d$15$B:
    1180                    ;          EXCLUSIVE CPU CYCLES: 1
    1181                            .dwpsn  file "./../packages/ti/vlib/src/VLIB_histogram_nD_U16/VLIB_histogram_nD_U16_d.c",line 
    1182 000001e8 033ce2e6             LDW     .D2T2   *+SP(28),B6       ; |87| 
    1183 000001ec           $C$DW$L$VLIB_histogram_nD_U16_d$15$E:
    1184                    ;** --------------------------------------------------------------------------*
    1185 000001ec           $C$L4:    
    1186 000001ec           $C$DW$L$VLIB_histogram_nD_U16_d$16$B:
    1187                    ;          EXCLUSIVE CPU CYCLES: 10
    1188                            .dwpsn  file "./../packages/ti/vlib/src/VLIB_histogram_nD_U16/VLIB_histogram_nD_U16_d.c",line 
    1189 000001ec 033d22e4             LDW     .D2T1   *+SP(36),A6       ; |94| 
    1190 000001f0 043e1008             EXTU    .S1     A15,16,16,A8      ; |94| 
    1191 000001f4 0404a35a             MVK     .L2     0x1,B8            ; |94| 
    1192 000001f8 00000000             NOP             1
    1193 000001fc 0234c07a             ADD     .L2     B6,B13,B4         ; |94| 
    1194                    $C$DW$150       .dwtag  DW_TAG_TI_branch
    1195                            .dwattr $C$DW$150, DW_AT_low_pc(0x04)
    1196                            .dwattr $C$DW$150, DW_AT_name("VLIB_fillBuffer")
    1197                            .dwattr $C$DW$150, DW_AT_TI_call
    1198                    
    1199 00000204     125d             LDBU    .D2T2   *B4,B5            ; |94| 
    1200 00000200 00000011! ||         CALL    .S1     VLIB_fillBuffer   ; |94| 
    1201                    
    1202 00000206     306d             LDW     .D2T2   *+B4(4),B6        ; |94| 
    1203 00000208 00004000             NOP             3
    1204 0000020c           $C$DW$L$VLIB_histogram_nD_U16_d$16$E:
    1205                    ;** --------------------------------------------------------------------------*
    1206 0000020c           $C$L5:    
    1207                            .dwpsn  file "./../packages/ti/vlib/src/VLIB_histogram_nD_U16/VLIB_histogram_nD_U16_d.c",line 
    1208 0000020c           $C$DW$L$VLIB_histogram_nD_U16_d$17$B:
    1209                    ;          EXCLUSIVE CPU CYCLES: 1
    1210                    ;**     -----------------------g9:
TMS320C6x Assembler PC v7.4.2 Thu Mar 19 12:41:52 2015

Tools Copyright (c) 1996-2012 Texas Instruments Incorporated
package/lib/Regression/regress_d_c/./../packages/ti/vlib/src/VLIB_histogram_nD_U16/VLIB_histogram_nD_U16_d.se66 PAGE   23

    1211                    ;** 94  -----------------------    C$11 = U$11+v$1;
    1212                    ;** 94  -----------------------    VLIB_fillBuffer((*C$11).testPattern, 1u, (void *)X, (*C$11).staticI
    1213                    ;** 101 -----------------------    v$1 = prm;
    1214                    ;**     -----------------------    U$56 = U$11+v$1;
    1215                    ;**     -----------------------    U$68 = (v$1[tpi]).dimX;
    1216                    ;**     -----------------------    U$11 = _lo(_mpyli(36, tpi));
    1217                    ;**     -----------------------    if ( (U$81 = (*(U$11+v$1)).numX*U$68) <= 0 ) goto g14;
    1218                    
    1219 0000020c 053e3009             EXTU    .S1     A15,17,16,A10     ; |94| 
    1220 00000210 01860163  ||         ADDKPC  .S2     $C$RL9,B3,0       ; |94| 
    1221 00000214     8407  ||         MV      .L2     B8,B4             ; |94| 
    1222 00000216     92c6  ||         MV      .L1X    B5,A4             ; |94| 
    1223                    
    1224                            .dwpsn  file "./../packages/ti/vlib/src/VLIB_histogram_nD_U16/VLIB_histogram_nD_U16_d.c",line 
    1225 00000218           $C$RL9:    ; CALL OCCURS {VLIB_fillBuffer} {0}  ; |94| 
    1226 00000218           $C$DW$L$VLIB_histogram_nD_U16_d$17$E:
    1227                    ;** --------------------------------------------------------------------------*
    1228 00000218           $C$DW$L$VLIB_histogram_nD_U16_d$18$B:
    1229                    ;          EXCLUSIVE CPU CYCLES: 23
    1230                    
    1231 00000218     81b2             MVK     .S1     36,A3
    1232 0000021a     fced  ||         LDW     .D2T2   *+SP(28),B6       ; |101| 
    1233                    
    1234 00000220 02346570             MPYLI   .M1     A3,A13,A5:A4
    1235 00000224 0fb4aca0             SHL     .S1     A13,5,A31
    1236 00000228 01fdbc40             ADDAW   .D1     A31,A13,A3
    1237 0000022c 0bbd22e4             LDW     .D2T1   *+SP(36),A23
    1238 00000230     7330             ADD     .L1X    B6,A3,A3
    1239                    
    1240 00000232     d251             ADD     .L2X    B6,A4,B5
    1241 00000234 020cc266  ||         LDW     .D1T2   *+A3(24),B4
    1242                    
    1243 00000238 0294a2e6             LDW     .D2T2   *+B5(20),B5
    1244 00000240 03b4c07a             ADD     .L2     B6,B13,B7
    1245 00000244     b647             MV      .L2X    A4,B13
    1246 00000246     2c6e             NOP             2
    1247 00000248 02948802             MPY32   .M2     B4,B5,B5
    1248 0000024c     4c6e             NOP             3
    1249 0000024e     12a7             CMPGT   .L2     B5,0,B0
    1250                    
    1251 00000250 28801229     [ B0]   MVK     .S1     36,A17
    1252 00000254 2c340fd9  || [ B0]   MV      .L1     A13,A24
    1253 00000260 2104a35a  || [ B0]   MVK     .L2     0x1,B2
    1254 00000258 30001c13  || [!B0]   B       .S2     $C$L9
    1255                    
    1256 00000264 221c1fd8     [ B0]   MV      .L1X    B7,A4
    1257                            .dwpsn  file "./../packages/ti/vlib/src/VLIB_histogram_nD_U16/VLIB_histogram_nD_U16_d.c",line 
    1258 00000268 29910264     [ B0]   LDW     .D1T1   *+A4(32),A19      ; |102| (P) <0,0>  ^ 
    1259                            .dwpsn  file "./../packages/ti/vlib/src/VLIB_histogram_nD_U16/VLIB_histogram_nD_U16_d.c",line 
    1260 0000026c 2b00a358     [ B0]   ZERO    .L1     A22               ; |101| 
    1261                            .dwpsn  file "./../packages/ti/vlib/src/VLIB_histogram_nD_U16/VLIB_histogram_nD_U16_d.c",line 
    1262 00000270 295eca04     [ B0]   LDHU    .D1T1   *+A23[A22],A18    ; |102| (P) <0,1> 
    1263 00000274 22622571     [ B0]   MPYLI   .M1     A17,A24,A5:A4     ; (P) <0,4> 
    1264                               ; BRANCHCC OCCURS {$C$L9}  
    1265 00000280           $C$DW$L$VLIB_histogram_nD_U16_d$18$E:
TMS320C6x Assembler PC v7.4.2 Thu Mar 19 12:41:52 2015

Tools Copyright (c) 1996-2012 Texas Instruments Incorporated
package/lib/Regression/regress_d_c/./../packages/ti/vlib/src/VLIB_histogram_nD_U16/VLIB_histogram_nD_U16_d.se66 PAGE   24

    1266                    ;** --------------------------------------------------------------------------*
    1267 00000280           $C$DW$L$VLIB_histogram_nD_U16_d$19$B:
    1268                    ;          EXCLUSIVE CPU CYCLES: 5
    1269                    ;** 101 -----------------------    i = 0;
    1270                    ;**     -----------------------    #pragma LOOP_FLAGS(4352u)
    1271                    ;**     -----------------------g11:
    1272                    ;** 102 -----------------------    C$10 = (*U$56).maxSize-1;
    1273                    ;** 102 -----------------------    if ( X[i] <= C$10 ) goto g13;
    1274                    ;** 103 -----------------------    X[i] = C$10;
    1275                    ;**     -----------------------    U$68 = (v$1[tpi]).dimX;
    1276                    ;**     -----------------------    U$11 = _lo(_mpyli(36, tpi));
    1277                    ;**     -----------------------    U$56 = U$11+v$1;
    1278                    ;**     -----------------------    U$81 = (*U$56).numX*U$68;
    1279                    ;**     -----------------------g13:
    1280                    ;** 101 -----------------------    if ( (++i) < U$81 ) goto g11;
    1281                    
    1282 00000280     0147             MV      .L2     B2,B0
    1283 00000282     bbc6  ||         MV      .L1X    B7,A21
    1284 00000284     214f  ||         MV      .S2     B2,B1
    1285 00000286     0192  ||         ZERO    .S1     A3                ; |101| 
    1286                    
    1287 0000028c     9b46             MV      .L1X    B6,A20
    1288 00000288 03cfe1a1  ||         SUB     .S1     A19,1,A7          ; |102| (P) <0,5>  ^ 
    1289                    
    1290 0000028e     3e46             MV      .L1X    B4,A25
    1291 00000290 0d141fd8             MV      .L1X    B5,A26
    1292 00000294 0db41fd8             MV      .L1X    B13,A27
    1293 00000298           $C$DW$L$VLIB_histogram_nD_U16_d$19$E:
    1294                    ;*----------------------------------------------------------------------------*
    1295                    ;*   SOFTWARE PIPELINE INFORMATION
    1296                    ;*
    1297                    ;*      Loop found in file               : ./../packages/ti/vlib/src/VLIB_histogram_nD_U16/VLIB_histog
    1298                    ;*      Loop source line                 : 101
    1299                    ;*      Loop opening brace source line   : 101
    1300                    ;*      Loop closing brace source line   : 105
    1301                    ;*      Known Minimum Trip Count         : 1                    
    1302                    ;*      Known Max Trip Count Factor      : 1
    1303                    ;*      Loop Carried Dependency Bound(^) : 21
    1304                    ;*      Unpartitioned Resource Bound     : 5
    1305                    ;*      Partitioned Resource Bound(*)    : 7
    1306                    ;*      Resource Partition:
    1307                    ;*                                A-side   B-side
    1308                    ;*      .L units                     2        0     
    1309                    ;*      .S units                     1        1     
    1310                    ;*      .D units                     6        0     
    1311                    ;*      .M units                     2        0     
    1312                    ;*      .X cross paths               0        0     
    1313                    ;*      .T address paths             5        0     
    1314                    ;*      Long read paths              0        0     
    1315                    ;*      Long write paths             0        0     
    1316                    ;*      Logical  ops (.LS)           0        0     (.L or .S unit)
    1317                    ;*      Addition ops (.LSD)         11        4     (.L or .S or .D unit)
    1318                    ;*      Bound(.L .S .LS)             2        1     
    1319                    ;*      Bound(.L .S .D .LS .LSD)     7*       2     
    1320                    ;*
TMS320C6x Assembler PC v7.4.2 Thu Mar 19 12:41:52 2015

Tools Copyright (c) 1996-2012 Texas Instruments Incorporated
package/lib/Regression/regress_d_c/./../packages/ti/vlib/src/VLIB_histogram_nD_U16/VLIB_histogram_nD_U16_d.se66 PAGE   25

    1321                    ;*      Searching for software pipeline schedule at ...
    1322                    ;*         ii = 21 Schedule found with 2 iterations in parallel
    1323                    ;*
    1324                    ;*      Register Usage Table:
    1325                    ;*          +-----------------------------------------------------------------+
    1326                    ;*          |AAAAAAAAAAAAAAAAAAAAAAAAAAAAAAAA|BBBBBBBBBBBBBBBBBBBBBBBBBBBBBBBB|
    1327                    ;*          |00000000001111111111222222222233|00000000001111111111222222222233|
    1328                    ;*          |01234567890123456789012345678901|01234567890123456789012345678901|
    1329                    ;*          |--------------------------------+--------------------------------|
    1330                    ;*       0: |   *** ***      ************    |***                             |
    1331                    ;*       1: |*  *** ***      ************    |***                             |
    1332                    ;*       2: |*  *******      ************    |***                             |
    1333                    ;*       3: |*  **  ***      ************    |***                             |
    1334                    ;*       4: |*  **  ***      ************    |* *                             |
    1335                    ;*       5: |*  *   ***      ************    |* *                             |
    1336                    ;*       6: |*       **      ************    |* *                             |
    1337                    ;*       7: |*       **      ************    |* *                             |
    1338                    ;*       8: |*       **      ************    |* *                             |
    1339                    ;*       9: |*       **      ************    |* *                             |
    1340                    ;*      10: |        **      ************    |  *                             |
    1341                    ;*      11: |        **      ************    |  *                             |
    1342                    ;*      12: |        **      ************    |  *                             |
    1343                    ;*      13: |        **      ************    |  *                             |
    1344                    ;*      14: |*  *    **      ************    |  *                             |
    1345                    ;*      15: |    *   **      ************    |  *                             |
    1346                    ;*      16: |        **      ************    |  *                             |
    1347                    ;*      17: |        **      ************    |  *                             |
    1348                    ;*      18: |        **      ************    |  *                             |
    1349                    ;*      19: |        **      ************    |  * *                           |
    1350                    ;*      20: |    **  **      ************    | **                             |
    1351                    ;*          +-----------------------------------------------------------------+
    1352                    ;*
    1353                    ;*      Done
    1354                    ;*
    1355                    ;*      Loop is interruptible
    1356                    ;*      Collapsed epilog stages       : 1
    1357                    ;*      Prolog not removed
    1358                    ;*      Collapsed prolog stages       : 0
    1359                    ;*
    1360                    ;*      Minimum required memory pad   : 0 bytes
    1361                    ;*
    1362                    ;*      For further improvement on this loop, try option -mh28
    1363                    ;*
    1364                    ;*      Minimum safe trip count       : 1
    1365                    ;*      Min. prof. trip count  (est.) : 3
    1366                    ;*
    1367                    ;*      Mem bank conflicts/iter(est.) : { min 0.000, est 0.000, max 0.000 }
    1368                    ;*      Mem bank perf. penalty (est.) : 0.0%
    1369                    ;*
    1370                    ;*
    1371                    ;*      Total cycles (est.)         : 6 + trip_cnt * 21        
    1372                    ;*----------------------------------------------------------------------------*
    1373                    ;*       SETUP CODE
    1374                    ;*
    1375                    ;*                  MVK             0x1,B2
TMS320C6x Assembler PC v7.4.2 Thu Mar 19 12:41:52 2015

Tools Copyright (c) 1996-2012 Texas Instruments Incorporated
package/lib/Regression/regress_d_c/./../packages/ti/vlib/src/VLIB_histogram_nD_U16/VLIB_histogram_nD_U16_d.se66 PAGE   26

    1376                    ;*                  MV              A22,A3
    1377                    ;*                  MV              A21,A4
    1378                    ;*                  MV              B2,B1
    1379                    ;*                  MV              B1,B0
    1380                    ;*
    1381                    ;*        SINGLE SCHEDULED ITERATION
    1382                    ;*
    1383                    ;*        $C$C128:
    1384                    ;*   0      [ B2]   LDW     .D1T1   *+A4(32),A19      ; |102|  ^ 
    1385                    ;*   1      [ B2]   LDHU    .D1T1   *+A23[A22],A18    ; |102| 
    1386                    ;*   2              NOP             2
    1387                    ;*   4              MPYLI   .M1     A17,A24,A5:A4
    1388                    ;*   5              SUB     .S1     A19,1,A7          ; |102|  ^ 
    1389                    ;*   6              CMPGT   .L1     A18,A7,A0         ; |102|  ^ 
    1390                    ;*   7      [!B1]   ZERO    .L1     A0                ;  ^ 
    1391                    ;*     ||           SHL     .S1     A24,5,A6
    1392                    ;*   8      [ A0]   ADDAW   .D1     A6,A24,A4         ;  ^ 
    1393                    ;*     ||   [ A0]   MV      .L1     A4,A27
    1394                    ;*     ||   [ A0]   ADD     .S1     A20,A4,A21
    1395                    ;*   9      [ A0]   ADD     .S1     A20,A4,A4         ;  ^ 
    1396                    ;*     ||   [ A0]   LDW     .D1T1   *+A21(20),A16
    1397                    ;*     ||   [ B1]   MV      .L1     A27,A9            ; |101| 
    1398                    ;*  10      [ A0]   LDW     .D1T1   *+A4(24),A25      ;  ^ 
    1399                    ;*  11      [ A0]   STH     .D1T1   A7,*+A23[A3]      ; |103| 
    1400                    ;*  12              NOP             3
    1401                    ;*  15      [ A0]   MPY32   .M1     A25,A16,A26       ;  ^ 
    1402                    ;*     ||   [ B0]   MV      .L1     A25,A8            ; |101| 
    1403                    ;*  16              NOP             2
    1404                    ;*  18              ADD     .L1     1,A22,A22         ; |101| 
    1405                    ;*  19              MV      .S1     A21,A3            ; Split a long life(pre-sched)
    1406                    ;*     ||           CMPLT   .L1     A22,A26,A0        ; |101|  ^ 
    1407                    ;*  20              MV      .L1     A3,A4             ; Split a long life(pre-sched)
    1408                    ;*     ||   [!A0]   ZERO    .L2     B2                ; |101|  ^ 
    1409                    ;*  21      [ B2]   B       .S2     $C$C128           ; |101| 
    1410                    ;*  22              NOP             2
    1411                    ;*  24              MV      .L2     B2,B4             ; |101| Split a long life(pre-sched)
    1412                    ;*  25              MV      .L2     B4,B1             ; |101| Split a long life(pre-sched)
    1413                    ;*  26              MV      .L1     A22,A3            ; |101| Split a long life(pre-sched)
    1414                    ;*     ||           MV      .L2     B1,B0             ; |101| Split a long life(pre-sched)
    1415                    ;*  27              ; BRANCHCC OCCURS {$C$C128}       ; |101| 
    1416                    ;*
    1417                    ;*       RESTORE CODE
    1418                    ;*
    1419                    ;*                  MV              A8,A25
    1420                    ;*                  MV              A9,A27
    1421                    ;*----------------------------------------------------------------------------*
    1422 00000298           $C$L6:    ; PIPED LOOP PROLOG
    1423                    ;** --------------------------------------------------------------------------*
    1424 00000298           $C$L7:    ; PIPED LOOP KERNEL
    1425                            .dwpsn  file "./../packages/ti/vlib/src/VLIB_histogram_nD_U16/VLIB_histogram_nD_U16_d.c",line 
    1426 00000298           $C$DW$L$VLIB_histogram_nD_U16_d$21$B:
    1427                    ;          EXCLUSIVE CPU CYCLES: 21
    1428                            .dwpsn  file "./../packages/ti/vlib/src/VLIB_histogram_nD_U16/VLIB_histogram_nD_U16_d.c",line 
    1429 00000298 001e48f8             CMPGT   .L1     A18,A7,A0         ; |102| <0,6>  ^ 
    1430                    
TMS320C6x Assembler PC v7.4.2 Thu Mar 19 12:41:52 2015

Tools Copyright (c) 1996-2012 Texas Instruments Incorporated
package/lib/Regression/regress_d_c/./../packages/ti/vlib/src/VLIB_histogram_nD_U16/VLIB_histogram_nD_U16_d.se66 PAGE   27

    1431 000002a0 0360aca1             SHL     .S1     A24,5,A6          ; <0,7> 
    1432 000002a4 5000a358  || [!B1]   ZERO    .L1     A0                ; <0,7>  ^ 
    1433                    
    1434 000002a8 cd900fd9     [ A0]   MV      .L1     A4,A27            ; <0,8> 
    1435 000002ac c21b1c41  || [ A0]   ADDAW   .D1     A6,A24,A4         ; <0,8>  ^ 
    1436 000002b0 ca9281e0  || [ A0]   ADD     .S1     A20,A4,A21        ; <0,8> 
    1437                    
    1438 000002b4 44ec0fd9     [ B1]   MV      .L1     A27,A9            ; |101| <0,9> 
    1439 000002b8 c21281e1  || [ A0]   ADD     .S1     A20,A4,A4         ; <0,9>  ^ 
    1440 000002bc c854a264  || [ A0]   LDW     .D1T1   *+A21(20),A16     ; <0,9> 
    1441                    
    1442 000002c0 cc90c264     [ A0]   LDW     .D1T1   *+A4(24),A25      ; <0,10>  ^ 
    1443                            .dwpsn  file "./../packages/ti/vlib/src/VLIB_histogram_nD_U16/VLIB_histogram_nD_U16_d.c",line 
    1444 000002c4 c3dc6a54     [ A0]   STH     .D1T1   A7,*+A23[A3]      ; |103| <0,11> 
    1445 000002c8 00004000             NOP             3
    1446                    
    1447 000002cc 24640fd9     [ B0]   MV      .L1     A25,A8            ; |101| <0,15> 
    1448 000002d0 cd432800  || [ A0]   MPY32   .M1     A25,A16,A26       ; <0,15>  ^ 
    1449                    
    1450 000002d4     2c6e             NOP             2
    1451                            .dwpsn  file "./../packages/ti/vlib/src/VLIB_histogram_nD_U16/VLIB_histogram_nD_U16_d.c",line 
    1452 000002d6     2760             ADD     .L1     1,A22,A22         ; |101| <0,18> 
    1453                    
    1454 000002e0     6a8e             MV      .S1     A21,A3            ; <0,19> Split a long life(pre-sched)
    1455 000002d8 006acaf9  ||         CMPLT   .L1     A22,A26,A0        ; |101| <0,19>  ^ 
    1456                    
    1457 000002e2     81c6             MV      .L1     A3,A4             ; <0,20> Split a long life(pre-sched)
    1458 000002e4 d100a35a  || [!A0]   ZERO    .L2     B2                ; |101| <0,20>  ^ 
    1459                    
    1460 000002e8 6ffff713     [ B2]   B       .S2     $C$L7             ; |101| <0,21> 
    1461 000002ec 69910264  || [ B2]   LDW     .D1T1   *+A4(32),A19      ; |102| <1,0>  ^ 
    1462                    
    1463                            .dwpsn  file "./../packages/ti/vlib/src/VLIB_histogram_nD_U16/VLIB_histogram_nD_U16_d.c",line 
    1464 000002f0 695eca04     [ B2]   LDHU    .D1T1   *+A23[A22],A18    ; |102| <1,1> 
    1465 000002f4     0c6e             NOP             1
    1466                            .dwpsn  file "./../packages/ti/vlib/src/VLIB_histogram_nD_U16/VLIB_histogram_nD_U16_d.c",line 
    1467 000002f6     8147             MV      .L2     B2,B4             ; |101| <0,24> Split a long life(pre-sched)
    1468                    
    1469 00000300     2247             MV      .L2     B4,B1             ; |101| <0,25> Split a long life(pre-sched)
    1470 000002f8 02622571  ||         MPYLI   .M1     A17,A24,A5:A4     ; <1,4> 
    1471                    
    1472 00000302     6b06             MV      .L1     A22,A3            ; |101| <0,26> Split a long life(pre-sched)
    1473 00000308 00040fda  ||         MV      .L2     B1,B0             ; |101| <0,26> Split a long life(pre-sched)
    1474 00000304 03cfe1a1  ||         SUB     .S1     A19,1,A7          ; |102| <1,5>  ^ 
    1475                    
    1476 0000030c           $C$DW$L$VLIB_histogram_nD_U16_d$21$E:
    1477                    ;** --------------------------------------------------------------------------*
    1478 0000030c           $C$L8:    ; PIPED LOOP EPILOG
    1479                    ;** --------------------------------------------------------------------------*
    1480 0000030c           $C$DW$L$VLIB_histogram_nD_U16_d$23$B:
    1481                    ;          EXCLUSIVE CPU CYCLES: 2
    1482 0000030c 06a41fda             MV      .L2X    A9,B13
    1483                    
    1484 00000318 02201fda             MV      .L2X    A8,B4
    1485 00000314 0bbd22f5  ||         STW     .D2T1   A23,*+SP(36)
TMS320C6x Assembler PC v7.4.2 Thu Mar 19 12:41:52 2015

Tools Copyright (c) 1996-2012 Texas Instruments Incorporated
package/lib/Regression/regress_d_c/./../packages/ti/vlib/src/VLIB_histogram_nD_U16/VLIB_histogram_nD_U16_d.se66 PAGE   28

    1486 00000310 06e00fd9  ||         MV      .L1     A24,A13
    1487                    
    1488 00000320           $C$DW$L$VLIB_histogram_nD_U16_d$23$E:
    1489                    ;** --------------------------------------------------------------------------*
    1490 00000320           $C$L9:    
    1491 00000320           $C$DW$L$VLIB_histogram_nD_U16_d$24$B:
    1492                    ;          EXCLUSIVE CPU CYCLES: 7
    1493                    ;**     -----------------------g14:
    1494                    ;** 107 -----------------------    outSize = 1;
    1495                    ;** 109 -----------------------    if ( U$68 <= 0 ) goto g17;
    1496                    
    1497 00000320 00100adb             CMPGT   .L2     B4,0,B0           ; |109| 
    1498 00000324 0704a358  ||         MVK     .L1     0x1,A14           ; |107| 
    1499                    
    1500 00000328 3020a121     [!B0]   BNOP    .S1     $C$L13,5          ; |109| 
    1501 0000032c 22bd42e5  || [ B0]   LDW     .D2T1   *+SP(40),A5       ; |110| 
    1502 00000330 2213e05a  || [ B0]   SUB     .L2     B4,1,B4
    1503                    
    1504                            .dwpsn  file "./../packages/ti/vlib/src/VLIB_histogram_nD_U16/VLIB_histogram_nD_U16_d.c",line 
    1505                               ; BRANCHCC OCCURS {$C$L13}        ; |109| 
    1506 00000334           $C$DW$L$VLIB_histogram_nD_U16_d$24$E:
    1507                    ;** --------------------------------------------------------------------------*
    1508                            .dwpsn  file "./../packages/ti/vlib/src/VLIB_histogram_nD_U16/VLIB_histogram_nD_U16_d.c",line 
    1509 00000334           $C$DW$L$VLIB_histogram_nD_U16_d$25$B:
    1510                    ;**     -----------------------    U$88 = numBins;
    1511                    ;** 110 -----------------------    L$2 = U$68;
    1512                    ;**     -----------------------    #pragma MUST_ITERATE(1, 18446744073709551615, 1)
    1513                    ;**     -----------------------    #pragma LOOP_FLAGS(4096u)
    1514                    ;**     -----------------------g16:
    1515                    ;** 110 -----------------------    outSize *= *U$88++;
    1516                    ;** 109 -----------------------    if ( L$2 = L$2-1 ) goto g16;
    1517 00000334           $C$DW$L$VLIB_histogram_nD_U16_d$25$E:
    1518                    ;*----------------------------------------------------------------------------*
    1519                    ;*   SOFTWARE PIPELINE INFORMATION
    1520                    ;*
    1521                    ;*      Loop found in file               : ./../packages/ti/vlib/src/VLIB_histogram_nD_U16/VLIB_histog
    1522                    ;*      Loop source line                 : 109
    1523                    ;*      Loop opening brace source line   : 109
    1524                    ;*      Loop closing brace source line   : 111
    1525                    ;*      Known Minimum Trip Count         : 1                    
    1526                    ;*      Known Max Trip Count Factor      : 1
    1527                    ;*      Loop Carried Dependency Bound(^) : 4
    1528                    ;*      Unpartitioned Resource Bound     : 1
    1529                    ;*      Partitioned Resource Bound(*)    : 1
    1530                    ;*      Resource Partition:
    1531                    ;*                                A-side   B-side
    1532                    ;*      .L units                     0        0     
    1533                    ;*      .S units                     0        0     
    1534                    ;*      .D units                     1*       0     
    1535                    ;*      .M units                     1*       0     
    1536                    ;*      .X cross paths               0        0     
    1537                    ;*      .T address paths             1*       0     
    1538                    ;*      Long read paths              0        0     
    1539                    ;*      Long write paths             0        0     
    1540                    ;*      Logical  ops (.LS)           0        0     (.L or .S unit)
TMS320C6x Assembler PC v7.4.2 Thu Mar 19 12:41:52 2015

Tools Copyright (c) 1996-2012 Texas Instruments Incorporated
package/lib/Regression/regress_d_c/./../packages/ti/vlib/src/VLIB_histogram_nD_U16/VLIB_histogram_nD_U16_d.se66 PAGE   29

    1541                    ;*      Addition ops (.LSD)          0        0     (.L or .S or .D unit)
    1542                    ;*      Bound(.L .S .LS)             0        0     
    1543                    ;*      Bound(.L .S .D .LS .LSD)     1*       0     
    1544                    ;*
    1545                    ;*      Searching for software pipeline schedule at ...
    1546                    ;*         ii = 4  Schedule found with 2 iterations in parallel
    1547                    ;*
    1548                    ;*      Register Usage Table:
    1549                    ;*          +-----------------------------------------------------------------+
    1550                    ;*          |AAAAAAAAAAAAAAAAAAAAAAAAAAAAAAAA|BBBBBBBBBBBBBBBBBBBBBBBBBBBBBBBB|
    1551                    ;*          |00000000001111111111222222222233|00000000001111111111222222222233|
    1552                    ;*          |01234567890123456789012345678901|01234567890123456789012345678901|
    1553                    ;*          |--------------------------------+--------------------------------|
    1554                    ;*       0: |    **                          |                                |
    1555                    ;*       1: |   ***                          |                                |
    1556                    ;*       2: |    **                          |                                |
    1557                    ;*       3: |    **                          |                                |
    1558                    ;*          +-----------------------------------------------------------------+
    1559                    ;*
    1560                    ;*      Done
    1561                    ;*
    1562                    ;*      Loop will be splooped
    1563                    ;*      Collapsed epilog stages       : 0
    1564                    ;*      Collapsed prolog stages       : 0
    1565                    ;*      Minimum required memory pad   : 0 bytes
    1566                    ;*
    1567                    ;*      Minimum safe trip count       : 1
    1568                    ;*      Min. prof. trip count  (est.) : 3
    1569                    ;*
    1570                    ;*      Mem bank conflicts/iter(est.) : { min 0.000, est 0.000, max 0.000 }
    1571                    ;*      Mem bank perf. penalty (est.) : 0.0%
    1572                    ;*
    1573                    ;*
    1574                    ;*      Total cycles (est.)         : 4 + trip_cnt * 4        
    1575                    ;*----------------------------------------------------------------------------*
    1576                    ;*        SINGLE SCHEDULED ITERATION
    1577                    ;*
    1578                    ;*        $C$C58:
    1579                    ;*   0              LDHU    .D1T1   *A5++,A3          ; |110| 
    1580                    ;*   1              NOP             4
    1581                    ;*   5              MPY32   .M1     A3,A4,A4          ; |110|  ^ 
    1582                    ;*     ||           SPBR            $C$C58
    1583                    ;*   6              NOP             2
    1584                    ;*   8              ; BRANCHCC OCCURS {$C$C58}        ; |109| 
    1585                    ;*----------------------------------------------------------------------------*
    1586 00000334           $C$L10:    ; PIPED LOOP PROLOG
    1587                    ;          EXCLUSIVE CPU CYCLES: 5
    1588                    
    1589 00000334     0de7             SPLOOPD 4       ;8                ; (P) 
    1590 00000336     da6f  ||         MVC     .S2     B4,ILC
    1591                    
    1592                    ;** --------------------------------------------------------------------------*
    1593 00000338           $C$L11:    ; PIPED LOOP KERNEL
    1594 00000338           $C$DW$L$VLIB_histogram_nD_U16_d$27$B:
    1595                    ;          EXCLUSIVE CPU CYCLES: 4
TMS320C6x Assembler PC v7.4.2 Thu Mar 19 12:41:52 2015

Tools Copyright (c) 1996-2012 Texas Instruments Incorporated
package/lib/Regression/regress_d_c/./../packages/ti/vlib/src/VLIB_histogram_nD_U16/VLIB_histogram_nD_U16_d.se66 PAGE   30

    1596 00000338     0ebc             LDHU    .D1T1   *A5++,A3          ; |110| (P) <0,0> 
    1597 0000033a     2c6e             NOP             2
    1598                    
    1599 00000340     2c67             SPMASK          L1
    1600 00000342     8706  ||         MV      .L1     A14,A4
    1601                    
    1602 00000344     0c6e             NOP             1
    1603                    
    1604 00000346     1c66             SPKERNEL 0,0
    1605 00000348 02106800  ||         MPY32   .M1     A3,A4,A4          ; |110| <0,5>  ^ 
    1606                    
    1607 0000034c           $C$DW$L$VLIB_histogram_nD_U16_d$27$E:
    1608                    ;** --------------------------------------------------------------------------*
    1609 0000034c           $C$L12:    ; PIPED LOOP EPILOG
    1610                    ;          EXCLUSIVE CPU CYCLES: 2
    1611 0000034c     2c6e             NOP             2
    1612                    ;** --------------------------------------------------------------------------*
    1613 0000034e           $C$DW$L$VLIB_histogram_nD_U16_d$29$B:
    1614                    ;          EXCLUSIVE CPU CYCLES: 4
    1615 0000034e     4c6e             NOP             3
    1616 00000350     c646             MV      .L1     A4,A14
    1617 00000360           $C$DW$L$VLIB_histogram_nD_U16_d$29$E:
    1618                    ;** --------------------------------------------------------------------------*
    1619 00000360           $C$L13:    
    1620                            .dwpsn  file "./../packages/ti/vlib/src/VLIB_histogram_nD_U16/VLIB_histogram_nD_U16_d.c",line 
    1621                    $C$DW$L$VLIB_histogram_nD_U16_d$30$B:
    1622                    ;          EXCLUSIVE CPU CYCLES: 6
    1623                    ;**     -----------------------g17:
    1624                    ;** 113 -----------------------    C$6 = outSize*2;
    1625                    ;** 113 -----------------------    H = VLIB_malloc((unsigned)C$6);
    1626                    ;** 114 -----------------------    H_cn = malloc((unsigned)C$6);
    1627                    ;** 115 -----------------------    H1 = VLIB_malloc((unsigned)C$6);
    1628                    ;** 117 -----------------------    v$1 = prm;
    1629                    ;** 117 -----------------------    if ( !((H != NULL)&(H_cn != NULL)&(H1 != NULL)) ) goto g21;
    1630                    $C$DW$151       .dwtag  DW_TAG_TI_branch
    1631                            .dwattr $C$DW$151, DW_AT_low_pc(0x00)
    1632                            .dwattr $C$DW$151, DW_AT_name("VLIB_malloc")
    1633                            .dwattr $C$DW$151, DW_AT_TI_call
    1634                    
    1635 00000360 10000013!            CALLP   .S2     VLIB_malloc,B3
    1636 00000364 0239c079  ||         ADD     .L1     A14,A14,A4        ; |113| 
    1637 00000368 05b9c1e0  ||         ADD     .S1     A14,A14,A11       ; |113| 
    1638                    
    1639                            .dwpsn  file "./../packages/ti/vlib/src/VLIB_histogram_nD_U16/VLIB_histogram_nD_U16_d.c",line 
    1640                    $C$RL10:   ; CALL OCCURS {VLIB_malloc} {0}   ; |113| 
    1641                    $C$DW$L$VLIB_histogram_nD_U16_d$30$E:
    1642                    ;** --------------------------------------------------------------------------*
    1643                    $C$DW$L$VLIB_histogram_nD_U16_d$31$B:
    1644                    ;          EXCLUSIVE CPU CYCLES: 12
    1645                    $C$DW$152       .dwtag  DW_TAG_TI_branch
    1646                            .dwattr $C$DW$152, DW_AT_low_pc(0x00)
    1647                            .dwattr $C$DW$152, DW_AT_name("malloc")
    1648                            .dwattr $C$DW$152, DW_AT_TI_call
    1649                    
    1650 0000036c 10000013!            CALLP   .S2     malloc,B3
TMS320C6x Assembler PC v7.4.2 Thu Mar 19 12:41:52 2015

Tools Copyright (c) 1996-2012 Texas Instruments Incorporated
package/lib/Regression/regress_d_c/./../packages/ti/vlib/src/VLIB_histogram_nD_U16/VLIB_histogram_nD_U16_d.se66 PAGE   31

    1651 00000370     adc5  ||         STW     .D2T1   A4,*+SP(52)       ; |113| 
    1652 00000372     8586  ||         MV      .L1     A11,A4            ; |114| 
    1653                    
    1654                            .dwpsn  file "./../packages/ti/vlib/src/VLIB_histogram_nD_U16/VLIB_histogram_nD_U16_d.c",line 
    1655                    $C$RL11:   ; CALL OCCURS {malloc} {0}        ; |114| 
    1656                    $C$DW$153       .dwtag  DW_TAG_TI_branch
    1657                            .dwattr $C$DW$153, DW_AT_low_pc(0x00)
    1658                            .dwattr $C$DW$153, DW_AT_name("VLIB_malloc")
    1659                            .dwattr $C$DW$153, DW_AT_TI_call
    1660                    
    1661 00000374 10000013!            CALLP   .S2     VLIB_malloc,B3
    1662 00000378     cdc5  ||         STW     .D2T1   A4,*+SP(56)       ; |114| 
    1663 0000037a     8586  ||         MV      .L1     A11,A4            ; |115| 
    1664                    
    1665                            .dwpsn  file "./../packages/ti/vlib/src/VLIB_histogram_nD_U16/VLIB_histogram_nD_U16_d.c",line 
    1666 00000380           $C$RL12:   ; CALL OCCURS {VLIB_malloc} {0}   ; |115| 
    1667 00000380           $C$DW$L$VLIB_histogram_nD_U16_d$31$E:
    1668                    ;** --------------------------------------------------------------------------*
    1669 00000380           $C$DW$L$VLIB_histogram_nD_U16_d$32$B:
    1670                    ;          EXCLUSIVE CPU CYCLES: 15
    1671                    
    1672 00000380     dd8d             LDW     .D2T2   *+SP(56),B0       ; |117| 
    1673 00000382     06a7  ||         ZERO    .L2     B5                ; |117| 
    1674 00000384     0213  ||         ZERO    .S2     B4                ; |117| 
    1675 00000386     05a6  ||         ZERO    .L1     A3                ; |117| 
    1676 00000388     224e  ||         MV      .S1     A4,A1             ; |117| 
    1677                    
    1678                            .dwpsn  file "./../packages/ti/vlib/src/VLIB_histogram_nD_U16/VLIB_histogram_nD_U16_d.c",line 
    1679 0000038a     ad8d             LDW     .D2T1   *+SP(52),A0       ; |117| 
    1680 0000038c 8184a358     [ A1]   MVK     .L1     0x1,A3            ; |117| 
    1681 00000390 05bce2e6             LDW     .D2T2   *+SP(28),B11      ; |117| 
    1682                            .dwpsn  file "./../packages/ti/vlib/src/VLIB_histogram_nD_U16/VLIB_histogram_nD_U16_d.c",line 
    1683 00000394     edc5             STW     .D2T1   A4,*+SP(60)       ; |115| 
    1684                            .dwpsn  file "./../packages/ti/vlib/src/VLIB_histogram_nD_U16/VLIB_histogram_nD_U16_d.c",line 
    1685 00000396     aa67     [ B0]   MVK     .L2     0x1,B4            ; |117| 
    1686 00000398 c284a35a     [ A0]   MVK     .L2     0x1,B5            ; |117| 
    1687 000003a0 02148f7a             AND     .L2     B4,B5,B4          ; |117| 
    1688 000003a4 000c9f7a             AND     .L2X    A3,B4,B0          ; |117| 
    1689                    
    1690 000003a8 30005e11     [!B0]   B       .S1     $C$L15            ; |117| 
    1691 000003ac 3235607b  || [!B0]   ADD     .L2     B11,B13,B4        ; |159| 
    1692 000003b0 3380002a! || [!B0]   MVKL    .S2     $C$SL3+0,B7
    1693                    
    1694                    $C$DW$154       .dwtag  DW_TAG_TI_branch
    1695                            .dwattr $C$DW$154, DW_AT_low_pc(0x00)
    1696                            .dwattr $C$DW$154, DW_AT_name("memset")
    1697                            .dwattr $C$DW$154, DW_AT_TI_call
    1698                    
    1699 000003b4 20000011!    [ B0]   CALL    .S1     memset            ; |120| 
    1700 000003b8 3290c2e7  || [!B0]   LDW     .D2T2   *+B4(24),B5       ; |159| 
    1701 000003bc 3380006a! || [!B0]   MVKH    .S2     $C$SL3+0,B7
    1702                    
    1703 000003c0 32000028!    [!B0]   MVKL    .S1     desc,A4
    1704                            .dwpsn  file "./../packages/ti/vlib/src/VLIB_histogram_nD_U16/VLIB_histogram_nD_U16_d.c",line 
    1705 000003c4 331102e6     [!B0]   LDW     .D2T2   *+B4(32),B6       ; |159| 
TMS320C6x Assembler PC v7.4.2 Thu Mar 19 12:41:52 2015

Tools Copyright (c) 1996-2012 Texas Instruments Incorporated
package/lib/Regression/regress_d_c/./../packages/ti/vlib/src/VLIB_histogram_nD_U16/VLIB_histogram_nD_U16_d.se66 PAGE   32

    1706 000003c8 3210a2e6     [!B0]   LDW     .D2T2   *+B4(20),B4       ; |159| 
    1707                    $C$DW$155       .dwtag  DW_TAG_TI_branch
    1708                            .dwattr $C$DW$155, DW_AT_low_pc(0x00)
    1709                            .dwattr $C$DW$155, DW_AT_name("sprintf")
    1710                            .dwattr $C$DW$155, DW_AT_TI_call
    1711 000003cc 30000010!    [!B0]   CALL    .S1     sprintf           ; |159| 
    1712                            .dwpsn  file "./../packages/ti/vlib/src/VLIB_histogram_nD_U16/VLIB_histogram_nD_U16_d.c",line 
    1713                               ; BRANCHCC OCCURS {$C$L15}        ; |117| 
    1714 000003d0           $C$DW$L$VLIB_histogram_nD_U16_d$32$E:
    1715                    ;** --------------------------------------------------------------------------*
    1716 000003d0           $C$DW$L$VLIB_histogram_nD_U16_d$33$B:
    1717                    ;          EXCLUSIVE CPU CYCLES: 1
    1718                    ;** 120 -----------------------    memset((void *)H, 0, (unsigned)C$6);
    1719                    ;** 121 -----------------------    memset((void *)H1, 0, (unsigned)C$6);
    1720                    ;** 122 -----------------------    memset((void *)scrap, 0, (unsigned)((*U$12).numX*2));
    1721                    ;** 137 -----------------------    act_kernel = 0;  // [15]
    1722                    ;** 140 -----------------------    VLIB_cache_inval();  // [15]
    1723                    ;** 143 -----------------------    initStack(getSP());  // [15]
    1724                    ;** 146 -----------------------    beg_count = _itoll(TSCH, TSCL);  // [15]
    1725                    ;** 126 -----------------------    VLIB_histogram_nD_U16(X, (*U$12).numX, (*U$12).dimX, (*U$12).binWei
    1726                    ;** 153 -----------------------    v$2 = _itoll(TSCH, TSCL);  // [16]
    1727                    ;** 153 -----------------------    end_count = v$2;  // [16]
    1728                    ;** 156 -----------------------    C$9 = act_kernel;  // [16]
    1729                    ;** 156 -----------------------    C$8 = &cycles[0];  // [16]
    1730                    ;** 156 -----------------------    *((C$9<<3)+C$8) = *((C$9<<3)+C$8)+(v$2-(beg_count+overhead));  // [
    1731                    ;** 159 -----------------------    setStackDepth();  // [16]
    1732                    ;** 130 -----------------------    memset((void *)H_cn, 0, (unsigned)C$6);
    1733                    ;** 131 -----------------------    memset((void *)H1, 0, (unsigned)C$6);
    1734                    ;** 132 -----------------------    memset((void *)scrap, 0, (unsigned)((*U$12).numX*2));
    1735                    
    1736 000003d0     c586             MV      .L1     A11,A6            ; |120| 
    1737 000003d2     0627  ||         ZERO    .L2     B4                ; |120| 
    1738 000003d8 020006a0  ||         MV      .S1     A0,A4             ; |120| 
    1739 000003d4 01880163  ||         ADDKPC  .S2     $C$RL13,B3,0      ; |120| 
    1740                    
    1741                            .dwpsn  file "./../packages/ti/vlib/src/VLIB_histogram_nD_U16/VLIB_histogram_nD_U16_d.c",line 
    1742                    $C$RL13:   ; CALL OCCURS {memset} {0}        ; |120| 
    1743                    $C$DW$L$VLIB_histogram_nD_U16_d$33$E:
    1744                    ;** --------------------------------------------------------------------------*
    1745                    $C$DW$L$VLIB_histogram_nD_U16_d$34$B:
    1746                    ;          EXCLUSIVE CPU CYCLES: 104
    1747                    $C$DW$156       .dwtag  DW_TAG_TI_branch
    1748                            .dwattr $C$DW$156, DW_AT_low_pc(0x00)
    1749                            .dwattr $C$DW$156, DW_AT_name("memset")
    1750                            .dwattr $C$DW$156, DW_AT_TI_call
    1751                    
    1752 000003e0 10000013!            CALLP   .S2     memset,B3
    1753 000003e4     edcd  ||         LDW     .D2T1   *+SP(60),A4       ; |121| 
    1754 000003e6     0627  ||         ZERO    .L2     B4                ; |121| 
    1755 000003e8 032c0fd8  ||         MV      .L1     A11,A6            ; |121| 
    1756                    
    1757                            .dwpsn  file "./../packages/ti/vlib/src/VLIB_histogram_nD_U16/VLIB_histogram_nD_U16_d.c",line 
    1758 000003ec           $C$RL14:   ; CALL OCCURS {memset} {0}        ; |121| 
    1759                            .dwpsn  file "./../packages/ti/vlib/src/VLIB_histogram_nD_U16/VLIB_histogram_nD_U16_d.c",line 
    1760 000003ec 01b0a2e4             LDW     .D2T1   *+B12(20),A3      ; |122| 
TMS320C6x Assembler PC v7.4.2 Thu Mar 19 12:41:52 2015

Tools Copyright (c) 1996-2012 Texas Instruments Incorporated
package/lib/Regression/regress_d_c/./../packages/ti/vlib/src/VLIB_histogram_nD_U16/VLIB_histogram_nD_U16_d.se66 PAGE   33

    1761 000003f0     8dcd             LDW     .D2T1   *+SP(48),A4       ; |122| 
    1762 000003f2     0627             ZERO    .L2     B4                ; |122| 
    1763 000003f4     2c6e             NOP             2
    1764                    $C$DW$157       .dwtag  DW_TAG_TI_branch
    1765                            .dwattr $C$DW$157, DW_AT_low_pc(0x00)
    1766                            .dwattr $C$DW$157, DW_AT_name("memset")
    1767                            .dwattr $C$DW$157, DW_AT_TI_call
    1768                    
    1769 000003f8 10000012!            CALLP   .S2     memset,B3
    1770 000003f6     61e0  ||         ADD     .L1     A3,A3,A6          ; |122| 
    1771                    
    1772 00000400           $C$RL15:   ; CALL OCCURS {memset} {0}        ; |122| 
    1773 00000400 01800028!            MVKL    .S1     act_kernel,A3
    1774                    
    1775 00000404 01800069!            MVKH    .S1     act_kernel,A3
    1776 00000408 0200a358  ||         ZERO    .L1     A4                ; |137| 
    1777                    
    1778                    $C$DW$158       .dwtag  DW_TAG_TI_branch
    1779                            .dwattr $C$DW$158, DW_AT_low_pc(0x00)
    1780                            .dwattr $C$DW$158, DW_AT_name("VLIB_cache_inval")
    1781                            .dwattr $C$DW$158, DW_AT_TI_call
    1782                    
    1783 0000040c 10000013!            CALLP   .S2     VLIB_cache_inval,B3
    1784 00000410 020c0274  ||         STW     .D1T1   A4,*A3            ; |137| 
    1785                    
    1786                            .dwpsn  file ".\..\packages\ti\vlib\src\VLIB_histogram_nD_U16\..\common\VLIB_profile.h",line 1
    1787                    $C$RL16:   ; CALL OCCURS {VLIB_cache_inval} {0}  ; |140| 
    1788                    $C$DW$159       .dwtag  DW_TAG_TI_branch
    1789                            .dwattr $C$DW$159, DW_AT_low_pc(0x00)
    1790                            .dwattr $C$DW$159, DW_AT_name("getSP")
    1791                            .dwattr $C$DW$159, DW_AT_TI_call
    1792 00000414 10000012!            CALLP   .S2     getSP,B3
    1793                            .dwpsn  file ".\..\packages\ti\vlib\src\VLIB_histogram_nD_U16\..\common\VLIB_profile.h",line 1
    1794                    $C$RL17:   ; CALL OCCURS {getSP} {0}         ; |143| 
    1795                    $C$DW$160       .dwtag  DW_TAG_TI_branch
    1796                            .dwattr $C$DW$160, DW_AT_low_pc(0x00)
    1797                            .dwattr $C$DW$160, DW_AT_name("initStack")
    1798                            .dwattr $C$DW$160, DW_AT_TI_call
    1799 00000418 10000012!            CALLP   .S2     initStack,B3
    1800 0000041c           $C$RL18:   ; CALL OCCURS {initStack} {0}     ; |143| 
    1801                            .dwpsn  file ".\..\packages\ti\vlib\src\VLIB_histogram_nD_U16\..\common\VLIB_profile.h",line 1
    1802 0000041c 042803e2             MVC     .S2     TSCL,B8           ; |146| 
    1803 00000420 04ac03e2             MVC     .S2     TSCH,B9           ; |146| 
    1804                            .dwpsn  file "./../packages/ti/vlib/src/VLIB_histogram_nD_U16/VLIB_histogram_nD_U16_d.c",line 
    1805 00000424 023d22e4             LDW     .D2T1   *+SP(36),A4       ; |126| 
    1806 00000428 0330c2e4             LDW     .D2T1   *+B12(24),A6      ; |126| 
    1807 0000042c 0230a2e6             LDW     .D2T2   *+B12(20),B4      ; |126| 
    1808 00000430 0331c286             LDHU    .D2T2   *+B12(28),B6      ; |126| 
    1809 00000434 063da2e4             LDW     .D2T1   *+SP(52),A12      ; |126| 
    1810 00000438 053de2e6             LDW     .D2T2   *+SP(60),B10      ; |126| 
    1811                    
    1812 0000043c 0280002b!            MVKL    .S2     beg_count,B5
    1813 00000440 053d82e4  ||         LDW     .D2T1   *+SP(48),A10      ; |126| 
    1814                    
    1815 00000444 0280006b!            MVKH    .S2     beg_count,B5
TMS320C6x Assembler PC v7.4.2 Thu Mar 19 12:41:52 2015

Tools Copyright (c) 1996-2012 Texas Instruments Incorporated
package/lib/Regression/regress_d_c/./../packages/ti/vlib/src/VLIB_histogram_nD_U16/VLIB_histogram_nD_U16_d.se66 PAGE   34

    1816 00000448 043d42e4  ||         LDW     .D2T1   *+SP(40),A8       ; |126| 
    1817                    
    1818                            .dwpsn  file ".\..\packages\ti\vlib\src\VLIB_histogram_nD_U16\..\common\VLIB_profile.h",line 1
    1819 0000044c 041403c6             STDW    .D2T2   B9:B8,*B5         ; |146| 
    1820                    $C$DW$161       .dwtag  DW_TAG_TI_branch
    1821                            .dwattr $C$DW$161, DW_AT_low_pc(0x00)
    1822                            .dwattr $C$DW$161, DW_AT_name("VLIB_histogram_nD_U16")
    1823                            .dwattr $C$DW$161, DW_AT_TI_call
    1824                    
    1825 00000450 10000013!            CALLP   .S2     VLIB_histogram_nD_U16,B3
    1826 00000454 043d62e6  ||         LDW     .D2T2   *+SP(44),B8       ; |126| 
    1827                    
    1828                            .dwpsn  file "./../packages/ti/vlib/src/VLIB_histogram_nD_U16/VLIB_histogram_nD_U16_d.c",line 
    1829 00000458           $C$RL19:   ; CALL OCCURS {VLIB_histogram_nD_U16} {0}  ; |126| 
    1830                            .dwpsn  file ".\..\packages\ti\vlib\src\VLIB_histogram_nD_U16\..\common\VLIB_profile.h",line 1
    1831 00000458 032803e2             MVC     .S2     TSCL,B6           ; |153| 
    1832 0000045c 03ac03e2             MVC     .S2     TSCH,B7           ; |153| 
    1833 00000460 0200002a!            MVKL    .S2     overhead,B4
    1834                    
    1835 00000464 05000029!            MVKL    .S1     act_kernel,A10
    1836 00000468 0500002a! ||         MVKL    .S2     beg_count,B10
    1837                    
    1838 0000046c 05000069!            MVKH    .S1     act_kernel,A10
    1839 00000470 0500006a! ||         MVKH    .S2     beg_count,B10
    1840                    
    1841 00000474 04280265             LDW     .D1T1   *A10,A8           ; |156| 
    1842 00000478 0200006b! ||         MVKH    .S2     overhead,B4
    1843 0000047c 042803e6  ||         LDDW    .D2T2   *B10,B9:B8        ; |156| 
    1844                    
    1845                            .dwpsn  file ".\..\packages\ti\vlib\src\VLIB_histogram_nD_U16\..\common\VLIB_profile.h",line 1
    1846 00000480 081003e6             LDDW    .D2T2   *B4,B17:B16       ; |156| 
    1847 00000484 01800028!            MVKL    .S1     cycles,A3
    1848 00000488 01800068!            MVKH    .S1     cycles,A3
    1849 0000048c 00000000             NOP             1
    1850 00000490 030d0b64             LDDW    .D1T1   *+A3[A8],A7:A6    ; |156| 
    1851 00000494 0222057a             ADDU    .L2     B16,B8,B5:B4      ; |156| 
    1852 00000498 0444a07a             ADD     .L2     B5,B17,B8         ; |156| 
    1853                    
    1854 0000049c 042501e3             ADD     .S2     B8,B9,B8          ; |156| 
    1855 000004a0 0210c5fa  ||         SUBU    .L2     B6,B4,B5:B4       ; |156| 
    1856                    
    1857 000004a4 0fa0e0fb             SUB     .L2     B7,B8,B31         ; |156| 
    1858 000004a8 0297184a  ||         EXT     .S2     B5,24,24,B5       ; |156| 
    1859                    
    1860 000004ac 0210d579             ADDU    .L1X    A6,B4,A5:A4       ; |156| 
    1861 000004b0 0217e07a  ||         ADD     .L2     B31,B5,B4         ; |156| 
    1862                    
    1863 000004b4     a3b0             ADD     .L1     A5,A7,A3          ; |156| 
    1864                    
    1865 000004b6     7250             ADD     .L1X    A3,B4,A5          ; |156| 
    1866 000004b8 0200002b! ||         MVKL    .S2     end_count,B4
    1867 000004c0 01800028! ||         MVKL    .S1     cycles,A3
    1868                    
    1869 000004c4 0200006b!            MVKH    .S2     end_count,B4
    1870 000004c8 01800068! ||         MVKH    .S1     cycles,A3
TMS320C6x Assembler PC v7.4.2 Thu Mar 19 12:41:52 2015

Tools Copyright (c) 1996-2012 Texas Instruments Incorporated
package/lib/Regression/regress_d_c/./../packages/ti/vlib/src/VLIB_histogram_nD_U16/VLIB_histogram_nD_U16_d.se66 PAGE   35

    1871                    
    1872                    $C$DW$162       .dwtag  DW_TAG_TI_branch
    1873                            .dwattr $C$DW$162, DW_AT_low_pc(0x00)
    1874                            .dwattr $C$DW$162, DW_AT_name("setStackDepth")
    1875                            .dwattr $C$DW$162, DW_AT_TI_call
    1876                    
    1877 000004cc 10000013!            CALLP   .S2     setStackDepth,B3
    1878 000004d0 031003c7  ||         STDW    .D2T2   B7:B6,*B4         ; |153| 
    1879 000004d4 020d0b45  ||         STDW    .D1T1   A5:A4,*+A3[A8]    ; |156| 
    1880                    
    1881                            .dwpsn  file ".\..\packages\ti\vlib\src\VLIB_histogram_nD_U16\..\common\VLIB_profile.h",line 1
    1882                    $C$RL20:   ; CALL OCCURS {setStackDepth} {0}  ; |159| 
    1883                    $C$DW$163       .dwtag  DW_TAG_TI_branch
    1884                            .dwattr $C$DW$163, DW_AT_low_pc(0x00)
    1885                            .dwattr $C$DW$163, DW_AT_name("memset")
    1886                            .dwattr $C$DW$163, DW_AT_TI_call
    1887                    
    1888 000004e0 10000013!            CALLP   .S2     memset,B3
    1889 000004e4     cdcd  ||         LDW     .D2T1   *+SP(56),A4       ; |130| 
    1890 000004e6     0627  ||         ZERO    .L2     B4                ; |130| 
    1891 000004e8 032c0fd8  ||         MV      .L1     A11,A6            ; |130| 
    1892                    
    1893                            .dwpsn  file "./../packages/ti/vlib/src/VLIB_histogram_nD_U16/VLIB_histogram_nD_U16_d.c",line 
    1894                    $C$RL21:   ; CALL OCCURS {memset} {0}        ; |130| 
    1895                    $C$DW$164       .dwtag  DW_TAG_TI_branch
    1896                            .dwattr $C$DW$164, DW_AT_low_pc(0x00)
    1897                            .dwattr $C$DW$164, DW_AT_name("memset")
    1898                            .dwattr $C$DW$164, DW_AT_TI_call
    1899                    
    1900 000004ec 10000013!            CALLP   .S2     memset,B3
    1901 000004f0     edcd  ||         LDW     .D2T1   *+SP(60),A4       ; |131| 
    1902 000004f2     0627  ||         ZERO    .L2     B4                ; |131| 
    1903 000004f4 032c0fd8  ||         MV      .L1     A11,A6            ; |131| 
    1904                    
    1905                            .dwpsn  file "./../packages/ti/vlib/src/VLIB_histogram_nD_U16/VLIB_histogram_nD_U16_d.c",line 
    1906 000004f8           $C$RL22:   ; CALL OCCURS {memset} {0}        ; |131| 
    1907                            .dwpsn  file "./../packages/ti/vlib/src/VLIB_histogram_nD_U16/VLIB_histogram_nD_U16_d.c",line 
    1908 000004f8 0230a2e6             LDW     .D2T2   *+B12(20),B4      ; |132| 
    1909 00000500     8dcd             LDW     .D2T1   *+SP(48),A4       ; |132| 
    1910 00000502     4c6e             NOP             3
    1911 00000504     8251             ADD     .L2     B4,B4,B5          ; |132| 
    1912 00000506     0627             ZERO    .L2     B4                ; |132| 
    1913                    $C$DW$165       .dwtag  DW_TAG_TI_branch
    1914                            .dwattr $C$DW$165, DW_AT_low_pc(0x00)
    1915                            .dwattr $C$DW$165, DW_AT_name("memset")
    1916                            .dwattr $C$DW$165, DW_AT_TI_call
    1917                    
    1918 00000508 10000013!            CALLP   .S2     memset,B3
    1919 0000050c     d2c6  ||         MV      .L1X    B5,A6             ; |132| 
    1920                    
    1921 0000050e           $C$RL23:   ; CALL OCCURS {memset} {0}        ; |132| 
    1922 0000050e           $C$DW$L$VLIB_histogram_nD_U16_d$34$E:
    1923                    ;** --------------------------------------------------------------------------*
    1924 0000050e           $C$DW$L$VLIB_histogram_nD_U16_d$35$B:
    1925                    ;          EXCLUSIVE CPU CYCLES: 7
TMS320C6x Assembler PC v7.4.2 Thu Mar 19 12:41:52 2015

Tools Copyright (c) 1996-2012 Texas Instruments Incorporated
package/lib/Regression/regress_d_c/./../packages/ti/vlib/src/VLIB_histogram_nD_U16/VLIB_histogram_nD_U16_d.se66 PAGE   36

    1926                    ;** 137 -----------------------    act_kernel = 1;  // [15]
    1927                    ;** 140 -----------------------    VLIB_cache_inval();  // [15]
    1928                    ;** 143 -----------------------    initStack(getSP());  // [15]
    1929                    ;** 146 -----------------------    beg_count = _itoll(TSCH, TSCL);  // [15]
    1930                    ;** 136 -----------------------    VLIB_histogram_nD_U16_cn(X, (*U$12).numX, (*U$12).dimX, (*U$12).bin
    1931                    ;** 153 -----------------------    v$2 = _itoll(TSCH, TSCL);  // [16]
    1932                    ;** 153 -----------------------    end_count = v$2;  // [16]
    1933                    ;** 156 -----------------------    C$7 = (act_kernel<<3)+C$8;  // [16]
    1934                    ;** 156 -----------------------    *C$7 = *C$7+(v$2-(beg_count+overhead));  // [16]
    1935                    ;** 159 -----------------------    setStackDepth();  // [16]
    1936                    ;** 141 -----------------------    status_nat_vs_int = VLIB_compare_mem((void *)H, (void *)H_cn, C$6);
    1937                    ;** 144 -----------------------    v$1 = v$1;
    1938                    ;** 144 -----------------------    C$5 = (*U$12).staticOut;
    1939                    ;** 144 -----------------------    if ( C$5 == NULL ) goto g20;
    1940                    
    1941 0000050e     2626             MVK     .L1     1,A4              ; |137| 
    1942 00000510 01a806a0  ||         MV      .S1     A10,A3            ; |137| 
    1943                    
    1944                    $C$DW$166       .dwtag  DW_TAG_TI_branch
    1945                            .dwattr $C$DW$166, DW_AT_low_pc(0x00)
    1946                            .dwattr $C$DW$166, DW_AT_name("VLIB_cache_inval")
    1947                            .dwattr $C$DW$166, DW_AT_TI_call
    1948                    
    1949 00000514 10000013!            CALLP   .S2     VLIB_cache_inval,B3
    1950 00000518 020c0274  ||         STW     .D1T1   A4,*A3            ; |137| 
    1951                    
    1952                            .dwpsn  file ".\..\packages\ti\vlib\src\VLIB_histogram_nD_U16\..\common\VLIB_profile.h",line 1
    1953                    $C$RL24:   ; CALL OCCURS {VLIB_cache_inval} {0}  ; |140| 
    1954                    $C$DW$L$VLIB_histogram_nD_U16_d$35$E:
    1955                    ;** --------------------------------------------------------------------------*
    1956                    $C$DW$L$VLIB_histogram_nD_U16_d$36$B:
    1957                    ;          EXCLUSIVE CPU CYCLES: 63
    1958                    $C$DW$167       .dwtag  DW_TAG_TI_branch
    1959                            .dwattr $C$DW$167, DW_AT_low_pc(0x00)
    1960                            .dwattr $C$DW$167, DW_AT_name("getSP")
    1961                            .dwattr $C$DW$167, DW_AT_TI_call
    1962 00000520 10000012!            CALLP   .S2     getSP,B3
    1963                            .dwpsn  file ".\..\packages\ti\vlib\src\VLIB_histogram_nD_U16\..\common\VLIB_profile.h",line 1
    1964                    $C$RL25:   ; CALL OCCURS {getSP} {0}         ; |143| 
    1965                    $C$DW$168       .dwtag  DW_TAG_TI_branch
    1966                            .dwattr $C$DW$168, DW_AT_low_pc(0x00)
    1967                            .dwattr $C$DW$168, DW_AT_name("initStack")
    1968                            .dwattr $C$DW$168, DW_AT_TI_call
    1969 00000524 10000012!            CALLP   .S2     initStack,B3
    1970 00000528           $C$RL26:   ; CALL OCCURS {initStack} {0}     ; |143| 
    1971                            .dwpsn  file ".\..\packages\ti\vlib\src\VLIB_histogram_nD_U16\..\common\VLIB_profile.h",line 1
    1972 00000528 042803e2             MVC     .S2     TSCL,B8           ; |146| 
    1973 0000052c 04ac03e2             MVC     .S2     TSCH,B9           ; |146| 
    1974                            .dwpsn  file "./../packages/ti/vlib/src/VLIB_histogram_nD_U16/VLIB_histogram_nD_U16_d.c",line 
    1975 00000530 023d22e4             LDW     .D2T1   *+SP(36),A4       ; |136| 
    1976 00000534 0331c286             LDHU    .D2T2   *+B12(28),B6      ; |136| 
    1977 00000538 0330c2e4             LDW     .D2T1   *+B12(24),A6      ; |136| 
    1978 0000053c 0230a2e6             LDW     .D2T2   *+B12(20),B4      ; |136| 
    1979 00000540 063dc2e4             LDW     .D2T1   *+SP(56),A12      ; |136| 
    1980 00000544 043d42e4             LDW     .D2T1   *+SP(40),A8       ; |136| 
TMS320C6x Assembler PC v7.4.2 Thu Mar 19 12:41:52 2015

Tools Copyright (c) 1996-2012 Texas Instruments Incorporated
package/lib/Regression/regress_d_c/./../packages/ti/vlib/src/VLIB_histogram_nD_U16/VLIB_histogram_nD_U16_d.se66 PAGE   37

    1981                    
    1982 00000548 02a80fdb             MV      .L2     B10,B5            ; |136| 
    1983 0000054c 053d82e4  ||         LDW     .D2T1   *+SP(48),A10      ; |136| 
    1984                    
    1985                            .dwpsn  file ".\..\packages\ti\vlib\src\VLIB_histogram_nD_U16\..\common\VLIB_profile.h",line 1
    1986 00000550 041403c6             STDW    .D2T2   B9:B8,*B5         ; |146| 
    1987                            .dwpsn  file "./../packages/ti/vlib/src/VLIB_histogram_nD_U16/VLIB_histogram_nD_U16_d.c",line 
    1988 00000554 053de2e6             LDW     .D2T2   *+SP(60),B10      ; |136| 
    1989                    $C$DW$169       .dwtag  DW_TAG_TI_branch
    1990                            .dwattr $C$DW$169, DW_AT_low_pc(0x00)
    1991                            .dwattr $C$DW$169, DW_AT_name("VLIB_histogram_nD_U16_cn")
    1992                            .dwattr $C$DW$169, DW_AT_TI_call
    1993                    
    1994 00000558 10000013!            CALLP   .S2     VLIB_histogram_nD_U16_cn,B3
    1995 0000055c 043d62e6  ||         LDW     .D2T2   *+SP(44),B8       ; |136| 
    1996                    
    1997 00000560           $C$RL27:   ; CALL OCCURS {VLIB_histogram_nD_U16_cn} {0}  ; |136| 
    1998                            .dwpsn  file ".\..\packages\ti\vlib\src\VLIB_histogram_nD_U16\..\common\VLIB_profile.h",line 1
    1999 00000560 022803e2             MVC     .S2     TSCL,B4           ; |153| 
    2000 00000564 02ac03e2             MVC     .S2     TSCH,B5           ; |153| 
    2001 00000568 02000028!            MVKL    .S1     beg_count,A4
    2002 0000056c 0f800028!            MVKL    .S1     act_kernel,A31
    2003 00000570 01800028!            MVKL    .S1     overhead,A3
    2004 00000574 02000068!            MVKH    .S1     beg_count,A4
    2005 00000578 0f800068!            MVKH    .S1     act_kernel,A31
    2006 0000057c 01800068!            MVKH    .S1     overhead,A3
    2007                    
    2008 00000584     1647             MV      .L2X    A4,B8
    2009 00000580 027c0265  ||         LDW     .D1T1   *A31,A4           ; |156| 
    2010                    
    2011 00000586     d1c7             MV      .L2X    A3,B6             ; |156| 
    2012 00000588 042003e6  ||         LDDW    .D2T2   *B8,B9:B8         ; |156| 
    2013                    
    2014                            .dwpsn  file ".\..\packages\ti\vlib\src\VLIB_histogram_nD_U16\..\common\VLIB_profile.h",line 1
    2015 0000058c 031803e6             LDDW    .D2T2   *B6,B7:B6         ; |156| 
    2016 00000590 0f000028!            MVKL    .S1     cycles,A30
    2017 00000594 0f000068!            MVKH    .S1     cycles,A30
    2018 00000598 04789e40             ADDAD   .D1     A30,A4,A8         ; |156| 
    2019 000005a0 03200364             LDDW    .D1T1   *A8,A7:A6         ; |156| 
    2020 000005a4 0820c57a             ADDU    .L2     B6,B8,B17:B16     ; |156| 
    2021                    
    2022 000005a8 081e21e3             ADD     .S2     B17,B7,B16        ; |156| 
    2023 000005ac 034085fa  ||         SUBU    .L2     B4,B16,B7:B6      ; |156| 
    2024                    
    2025 000005b0 04a6007b             ADD     .L2     B16,B9,B9         ; |156| 
    2026 000005b4 01800028! ||         MVKL    .S1     end_count,A3
    2027                    
    2028 000005b8 0fa4a0fb             SUB     .L2     B5,B9,B31         ; |156| 
    2029 000005bc 039f184b  ||         EXT     .S2     B7,24,24,B7       ; |156| 
    2030 000005c0 01800068! ||         MVKH    .S1     end_count,A3
    2031                    
    2032 000005c4 0218d579             ADDU    .L1X    A6,B6,A5:A4       ; |156| 
    2033 000005c8 031fe07a  ||         ADD     .L2     B31,B7,B6         ; |156| 
    2034                    
    2035 000005cc     15c7             MV      .L2X    A3,B8
TMS320C6x Assembler PC v7.4.2 Thu Mar 19 12:41:52 2015

Tools Copyright (c) 1996-2012 Texas Instruments Incorporated
package/lib/Regression/regress_d_c/./../packages/ti/vlib/src/VLIB_histogram_nD_U16/VLIB_histogram_nD_U16_d.se66 PAGE   38

    2036 000005ce     a3b0  ||         ADD     .L1     A5,A7,A3          ; |156| 
    2037                    
    2038 000005d0 02987078             ADD     .L1X    A3,B6,A5          ; |156| 
    2039                    $C$DW$170       .dwtag  DW_TAG_TI_branch
    2040                            .dwattr $C$DW$170, DW_AT_low_pc(0x00)
    2041                            .dwattr $C$DW$170, DW_AT_name("setStackDepth")
    2042                            .dwattr $C$DW$170, DW_AT_TI_call
    2043                    
    2044 000005d4 10000013!            CALLP   .S2     setStackDepth,B3
    2045 000005d8 02200345  ||         STDW    .D1T1   A5:A4,*A8         ; |156| 
    2046 000005e0 022003c6  ||         STDW    .D2T2   B5:B4,*B8         ; |153| 
    2047                    
    2048                            .dwpsn  file ".\..\packages\ti\vlib\src\VLIB_histogram_nD_U16\..\common\VLIB_profile.h",line 1
    2049                    $C$RL28:   ; CALL OCCURS {setStackDepth} {0}  ; |159| 
    2050                    $C$DW$171       .dwtag  DW_TAG_TI_branch
    2051                            .dwattr $C$DW$171, DW_AT_low_pc(0x00)
    2052                            .dwattr $C$DW$171, DW_AT_name("VLIB_compare_mem")
    2053                            .dwattr $C$DW$171, DW_AT_TI_call
    2054                    
    2055 000005e4 10000013!            CALLP   .S2     VLIB_compare_mem,B3
    2056 000005e8     adcd  ||         LDW     .D2T1   *+SP(52),A4       ; |141| 
    2057 000005ea     9607  ||         MV      .L2X    A12,B4            ; |141| 
    2058 000005ec 032c0fd8  ||         MV      .L1     A11,A6            ; |141| 
    2059                    
    2060                            .dwpsn  file "./../packages/ti/vlib/src/VLIB_histogram_nD_U16/VLIB_histogram_nD_U16_d.c",line 
    2061 000005f0           $C$RL29:   ; CALL OCCURS {VLIB_compare_mem} {0}  ; |141| 
    2062 000005f0           $C$DW$L$VLIB_histogram_nD_U16_d$36$E:
    2063                    ;** --------------------------------------------------------------------------*
    2064 000005f0           $C$DW$L$VLIB_histogram_nD_U16_d$37$B:
    2065                    ;          EXCLUSIVE CPU CYCLES: 11
    2066                            .dwpsn  file "./../packages/ti/vlib/src/VLIB_histogram_nD_U16/VLIB_histogram_nD_U16_d.c",line 
    2067 000005f0 003082e6             LDW     .D2T2   *+B12(16),B0      ; |144| 
    2068                            .dwpsn  file "./../packages/ti/vlib/src/VLIB_histogram_nD_U16/VLIB_histogram_nD_U16_d.c",line 
    2069 000005f4     4646             MV      .L1     A4,A10            ; |141| 
    2070 000005f6     4c6e             NOP             3
    2071                            .dwpsn  file "./../packages/ti/vlib/src/VLIB_histogram_nD_U16/VLIB_histogram_nD_U16_d.c",line 
    2072 000005f8 30000690     [!B0]   B       .S1     $C$L14            ; |144| 
    2073                            .dwpsn  file "./../packages/ti/vlib/src/VLIB_histogram_nD_U16/VLIB_histogram_nD_U16_d.c",line 
    2074                    $C$DW$172       .dwtag  DW_TAG_TI_branch
    2075                            .dwattr $C$DW$172, DW_AT_low_pc(0x00)
    2076                            .dwattr $C$DW$172, DW_AT_name("VLIB_compare_mem")
    2077                            .dwattr $C$DW$172, DW_AT_TI_call
    2078 00000600 20000010!    [ B0]   CALL    .S1     VLIB_compare_mem  ; |145| 
    2079 00000604     6c6e             NOP             4
    2080                            .dwpsn  file "./../packages/ti/vlib/src/VLIB_histogram_nD_U16/VLIB_histogram_nD_U16_d.c",line 
    2081                               ; BRANCHCC OCCURS {$C$L14}        ; |144| 
    2082 00000606           $C$DW$L$VLIB_histogram_nD_U16_d$37$E:
    2083                    ;** --------------------------------------------------------------------------*
    2084 00000606           $C$DW$L$VLIB_histogram_nD_U16_d$38$B:
    2085                    ;          EXCLUSIVE CPU CYCLES: 1
    2086                    ;** 145 -----------------------    status_nat_vs_ref = VLIB_compare_mem((void *)C$5, (void *)H_cn, C$6
    2087                    
    2088 00000606     c586             MV      .L1     A11,A6            ; |145| 
    2089 00000608     9607  ||         MV      .L2X    A12,B4            ; |145| 
    2090 0000060a     904e  ||         MV      .S1X    B0,A4             ; |145| 
TMS320C6x Assembler PC v7.4.2 Thu Mar 19 12:41:52 2015

Tools Copyright (c) 1996-2012 Texas Instruments Incorporated
package/lib/Regression/regress_d_c/./../packages/ti/vlib/src/VLIB_histogram_nD_U16/VLIB_histogram_nD_U16_d.se66 PAGE   39

    2091 0000060c 01840162  ||         ADDKPC  .S2     $C$RL30,B3,0      ; |145| 
    2092                    
    2093                            .dwpsn  file "./../packages/ti/vlib/src/VLIB_histogram_nD_U16/VLIB_histogram_nD_U16_d.c",line 
    2094 00000610           $C$RL30:   ; CALL OCCURS {VLIB_compare_mem} {0}  ; |145| 
    2095 00000610           $C$DW$L$VLIB_histogram_nD_U16_d$38$E:
    2096                    ;** --------------------------------------------------------------------------*
    2097 00000610           $C$DW$L$VLIB_histogram_nD_U16_d$39$B:
    2098                    ;          EXCLUSIVE CPU CYCLES: 1
    2099 00000610 023d02f4             STW     .D2T1   A4,*+SP(32)       ; |145| 
    2100 00000614           $C$DW$L$VLIB_histogram_nD_U16_d$39$E:
    2101                    ;** --------------------------------------------------------------------------*
    2102 00000614           $C$L14:    
    2103                            .dwpsn  file "./../packages/ti/vlib/src/VLIB_histogram_nD_U16/VLIB_histogram_nD_U16_d.c",line 
    2104 00000614           $C$DW$L$VLIB_histogram_nD_U16_d$40$B:
    2105                    ;          EXCLUSIVE CPU CYCLES: 15
    2106                    ;**     -----------------------g20:
    2107                    ;** 151 -----------------------    est_test = 1;
    2108                    ;** 154 -----------------------    C$4 = U$11+v$1;
    2109                    ;** 154 -----------------------    sprintf(K$130, (const char *)"%s generated input | Opt results comp
    2110                    ;** 156 -----------------------    VLIB_formula_add_test(inSize, (*U$12).numX, outSize, (status_nat_vs
    2111                    ;** 157 -----------------------    goto g23;
    2112                            .dwpsn  file "./../packages/ti/vlib/src/VLIB_histogram_nD_U16/VLIB_histogram_nD_U16_d.c",line 
    2113 00000614 0235607a             ADD     .L2     B11,B13,B4        ; |154| 
    2114                    
    2115 00000620     d06d             LDW     .D2T2   *+B4(24),B6       ; |154| 
    2116 00000618 01800029! ||         MVKL    .S1     testPatternString,A3
    2117                    
    2118 00000622     185d             LDW     .D2T2   *+B4(32),B5       ; |154| 
    2119 00000624 01800068! ||         MVKH    .S1     testPatternString,A3
    2120                    
    2121 00000628     cc35             STW     .D2T1   A3,*+SP(8)        ; |154| 
    2122                    
    2123 0000062a     b04d             LDW     .D2T2   *+B4(20),B4       ; |154| 
    2124 0000062c 0380002a! ||         MVKL    .S2     $C$SL2+0,B7
    2125                    
    2126 00000630 0380006b!            MVKH    .S2     $C$SL2+0,B7
    2127 00000634 073cc2f4  ||         STW     .D2T1   A14,*+SP(24)      ; |154| 
    2128                    
    2129 00000638 02000029!            MVKL    .S1     est_test,A4
    2130 00000640     bc75  ||         STW     .D2T2   B7,*+SP(4)        ; |154| 
    2131                    
    2132 00000642     25a6             MVK     .L1     1,A3              ; |151| 
    2133 00000644 02000069! ||         MVKH    .S1     est_test,A4
    2134 00000648     9ce5  ||         STW     .D2T2   B6,*+SP(16)       ; |154| 
    2135                    
    2136 0000064a     0034             STW     .D1T1   A3,*A4            ; |151| 
    2137 0000064c 02000029! ||         MVKL    .S1     desc,A4
    2138 00000650     bcd5  ||         STW     .D2T2   B5,*+SP(20)       ; |154| 
    2139                    
    2140                    $C$DW$173       .dwtag  DW_TAG_TI_branch
    2141                            .dwattr $C$DW$173, DW_AT_low_pc(0x00)
    2142                            .dwattr $C$DW$173, DW_AT_name("sprintf")
    2143                            .dwattr $C$DW$173, DW_AT_TI_call
    2144                    
    2145 00000654 10000013!            CALLP   .S2     sprintf,B3
TMS320C6x Assembler PC v7.4.2 Thu Mar 19 12:41:52 2015

Tools Copyright (c) 1996-2012 Texas Instruments Incorporated
package/lib/Regression/regress_d_c/./../packages/ti/vlib/src/VLIB_histogram_nD_U16/VLIB_histogram_nD_U16_d.se66 PAGE   40

    2146 00000652     fc45  ||         STW     .D2T2   B4,*+SP(12)       ; |154| 
    2147 00000658 02000068! ||         MVKH    .S1     desc,A4
    2148                    
    2149 00000660           $C$RL31:   ; CALL OCCURS {sprintf} {0}       ; |154| 
    2150 00000660           $C$DW$L$VLIB_histogram_nD_U16_d$40$E:
    2151                    ;** --------------------------------------------------------------------------*
    2152 00000660           $C$DW$L$VLIB_histogram_nD_U16_d$41$B:
    2153                    ;          EXCLUSIVE CPU CYCLES: 12
    2154                            .dwpsn  file "./../packages/ti/vlib/src/VLIB_histogram_nD_U16/VLIB_histogram_nD_U16_d.c",line 
    2155 00000660 01bd02e4             LDW     .D2T1   *+SP(32),A3       ; |156| 
    2156 00000664 02280a58             CMPEQ   .L1     A10,0,A4          ; |156| 
    2157 00000668 04000028!            MVKL    .S1     desc,A8
    2158 0000066c 0400a35a             ZERO    .L2     B8                ; |156| 
    2159 00000670 04000068!            MVKH    .S1     desc,A8
    2160 00000674 020c1a5a             CMPEQ   .L2X    A3,0,B4           ; |156| 
    2161                    $C$DW$174       .dwtag  DW_TAG_TI_branch
    2162                            .dwattr $C$DW$174, DW_AT_low_pc(0x04)
    2163                            .dwattr $C$DW$174, DW_AT_name("VLIB_formula_add_test")
    2164                            .dwattr $C$DW$174, DW_AT_TI_call
    2165                    
    2166 00000678     c706             MV      .L1     A14,A6            ; |156| 
    2167 00000688 10000012! ||         CALLP   .S2     VLIB_formula_add_test,B3
    2168 00000680 03109ffb  ||         OR      .L2X    B4,A4,B6          ; |156| 
    2169 00000684 0230a2e7  ||         LDW     .D2T2   *+B12(20),B4      ; |156| 
    2170 0000067a     878e  ||         MV      .S1     A15,A4            ; |156| 
    2171                    
    2172 0000068c           $C$RL32:   ; CALL OCCURS {VLIB_formula_add_test} {0}  ; |156| 
    2173 0000068c           $C$DW$L$VLIB_histogram_nD_U16_d$41$E:
    2174                    ;** --------------------------------------------------------------------------*
    2175 0000068c           $C$DW$L$VLIB_histogram_nD_U16_d$42$B:
    2176                    ;          EXCLUSIVE CPU CYCLES: 6
    2177                            .dwpsn  file "./../packages/ti/vlib/src/VLIB_histogram_nD_U16/VLIB_histogram_nD_U16_d.c",line 
    2178 0000068c 0038a120             BNOP    .S1     $C$L17,5          ; |157| 
    2179                               ; BRANCH OCCURS {$C$L17}          ; |157| 
    2180 00000690           $C$DW$L$VLIB_histogram_nD_U16_d$42$E:
    2181                    ;** --------------------------------------------------------------------------*
    2182 00000690           $C$L15:    
    2183                            .dwpsn  file "./../packages/ti/vlib/src/VLIB_histogram_nD_U16/VLIB_histogram_nD_U16_d.c",line 
    2184 00000690           $C$DW$L$VLIB_histogram_nD_U16_d$43$B:
    2185                    ;          EXCLUSIVE CPU CYCLES: 5
    2186                    ;**     -----------------------g21:
    2187                    ;** 159 -----------------------    C$3 = U$11+v$1;
    2188                    ;** 159 -----------------------    sprintf(K$130, (const char *)"numX=%d, dimX=%d, maxSize=%d, outsize
    2189                    ;** 161 -----------------------    VLIB_skip_test(K$130);
    2190                    ;** 161 -----------------------    goto g23;
    2191                            .dwpsn  file "./../packages/ti/vlib/src/VLIB_histogram_nD_U16/VLIB_histogram_nD_U16_d.c",line 
    2192 00000690     fc55             STW     .D2T2   B5,*+SP(12)       ; |159| 
    2193 00000692     bc75             STW     .D2T2   B7,*+SP(4)        ; |159| 
    2194 00000694 073ca2f4             STW     .D2T1   A14,*+SP(20)      ; |159| 
    2195 00000698     9ce5             STW     .D2T2   B6,*+SP(16)       ; |159| 
    2196                    
    2197 0000069a     dc45             STW     .D2T2   B4,*+SP(8)        ; |159| 
    2198 000006a0 01820163  ||         ADDKPC  .S2     $C$RL33,B3,0      ; |159| 
    2199 000006a4 02000068! ||         MVKH    .S1     desc,A4
    2200                    
TMS320C6x Assembler PC v7.4.2 Thu Mar 19 12:41:52 2015

Tools Copyright (c) 1996-2012 Texas Instruments Incorporated
package/lib/Regression/regress_d_c/./../packages/ti/vlib/src/VLIB_histogram_nD_U16/VLIB_histogram_nD_U16_d.se66 PAGE   41

    2201 000006a8           $C$RL33:   ; CALL OCCURS {sprintf} {0}       ; |159| 
    2202 000006a8           $C$DW$L$VLIB_histogram_nD_U16_d$43$E:
    2203                    ;** --------------------------------------------------------------------------*
    2204 000006a8           $C$DW$L$VLIB_histogram_nD_U16_d$44$B:
    2205                    ;          EXCLUSIVE CPU CYCLES: 7
    2206 000006a8 02000028!            MVKL    .S1     desc,A4
    2207                    $C$DW$175       .dwtag  DW_TAG_TI_branch
    2208                            .dwattr $C$DW$175, DW_AT_low_pc(0x00)
    2209                            .dwattr $C$DW$175, DW_AT_name("VLIB_skip_test")
    2210                            .dwattr $C$DW$175, DW_AT_TI_call
    2211                    
    2212 000006ac 10000013!            CALLP   .S2     VLIB_skip_test,B3
    2213 000006b0 02000068! ||         MVKH    .S1     desc,A4
    2214                    
    2215                            .dwpsn  file "./../packages/ti/vlib/src/VLIB_histogram_nD_U16/VLIB_histogram_nD_U16_d.c",line 
    2216 000006b4           $C$RL34:   ; CALL OCCURS {VLIB_skip_test} {0}  ; |161| 
    2217 000006b4           $C$DW$L$VLIB_histogram_nD_U16_d$44$E:
    2218                    ;** --------------------------------------------------------------------------*
    2219 000006b4           $C$DW$L$VLIB_histogram_nD_U16_d$45$B:
    2220                    ;          EXCLUSIVE CPU CYCLES: 6
    2221 000006b4 00000b10             B       .S1     $C$L18            ; |161| 
    2222                            .dwpsn  file "./../packages/ti/vlib/src/VLIB_histogram_nD_U16/VLIB_histogram_nD_U16_d.c",line 
    2223                    ;----------------------------------------------------------------------
    2224                    ; 171 | VLIB_free(H1);                                                         
    2225                    ;----------------------------------------------------------------------
    2226                    $C$DW$176       .dwtag  DW_TAG_TI_branch
    2227                            .dwattr $C$DW$176, DW_AT_low_pc(0x00)
    2228                            .dwattr $C$DW$176, DW_AT_name("VLIB_free")
    2229                            .dwattr $C$DW$176, DW_AT_TI_call
    2230 000006b8 00000010!            CALL    .S1     VLIB_free         ; |171| 
    2231 000006bc 023de2e4             LDW     .D2T1   *+SP(60),A4       ; |171| 
    2232 000006c0 00004000             NOP             3
    2233                            .dwpsn  file "./../packages/ti/vlib/src/VLIB_histogram_nD_U16/VLIB_histogram_nD_U16_d.c",line 
    2234                               ; BRANCH OCCURS {$C$L18}          ; |161| 
    2235 000006c4           $C$DW$L$VLIB_histogram_nD_U16_d$45$E:
    2236                    ;** --------------------------------------------------------------------------*
    2237 000006c4           $C$L16:    
    2238                            .dwpsn  file "./../packages/ti/vlib/src/VLIB_histogram_nD_U16/VLIB_histogram_nD_U16_d.c",line 
    2239 000006c4           $C$DW$L$VLIB_histogram_nD_U16_d$46$B:
    2240                    ;          EXCLUSIVE CPU CYCLES: 5
    2241                    ;**     -----------------------g22:
    2242                    ;** 165 -----------------------    sprintf(K$130, (const char *)"numX=%d, dimX=%d, maxSize=%d", (*U$12
    2243                    ;** 167 -----------------------    VLIB_skip_test(K$130);
    2244                    
    2245 000006c4 0380002b!            MVKL    .S2     $C$SL4+0,B7
    2246 000006c8 02000028! ||         MVKL    .S1     desc,A4
    2247                    
    2248 000006cc 0380006b!            MVKH    .S2     $C$SL4+0,B7
    2249 000006d0 02000069! ||         MVKH    .S1     desc,A4
    2250 000006d4     fc55  ||         STW     .D2T2   B5,*+SP(12)       ; |165| 
    2251                    
    2252                            .dwpsn  file "./../packages/ti/vlib/src/VLIB_histogram_nD_U16/VLIB_histogram_nD_U16_d.c",line 
    2253 000006d6     bc75             STW     .D2T2   B7,*+SP(4)        ; |165| 
    2254 000006d8     dc65             STW     .D2T2   B6,*+SP(8)        ; |165| 
    2255                    
TMS320C6x Assembler PC v7.4.2 Thu Mar 19 12:41:52 2015

Tools Copyright (c) 1996-2012 Texas Instruments Incorporated
package/lib/Regression/regress_d_c/./../packages/ti/vlib/src/VLIB_histogram_nD_U16/VLIB_histogram_nD_U16_d.se66 PAGE   42

    2256 000006da     9cc5             STW     .D2T2   B4,*+SP(16)       ; |165| 
    2257 000006e0 01810162  ||         ADDKPC  .S2     $C$RL35,B3,0      ; |165| 
    2258                    
    2259 000006e4           $C$RL35:   ; CALL OCCURS {sprintf} {0}       ; |165| 
    2260 000006e4           $C$DW$L$VLIB_histogram_nD_U16_d$46$E:
    2261                    ;** --------------------------------------------------------------------------*
    2262 000006e4           $C$DW$L$VLIB_histogram_nD_U16_d$47$B:
    2263                    ;          EXCLUSIVE CPU CYCLES: 7
    2264 000006e4 02000028!            MVKL    .S1     desc,A4
    2265                    $C$DW$177       .dwtag  DW_TAG_TI_branch
    2266                            .dwattr $C$DW$177, DW_AT_low_pc(0x00)
    2267                            .dwattr $C$DW$177, DW_AT_name("VLIB_skip_test")
    2268                            .dwattr $C$DW$177, DW_AT_TI_call
    2269                    
    2270 000006e8 10000013!            CALLP   .S2     VLIB_skip_test,B3
    2271 000006ec 02000068! ||         MVKH    .S1     desc,A4
    2272                    
    2273                            .dwpsn  file "./../packages/ti/vlib/src/VLIB_histogram_nD_U16/VLIB_histogram_nD_U16_d.c",line 
    2274 000006f0           $C$RL36:   ; CALL OCCURS {VLIB_skip_test} {0}  ; |167| 
    2275 000006f0           $C$DW$L$VLIB_histogram_nD_U16_d$47$E:
    2276                    ;** --------------------------------------------------------------------------*
    2277 000006f0           $C$L17:    
    2278 000006f0           $C$DW$L$VLIB_histogram_nD_U16_d$48$B:
    2279                    ;          EXCLUSIVE CPU CYCLES: 5
    2280                            .dwpsn  file "./../packages/ti/vlib/src/VLIB_histogram_nD_U16/VLIB_histogram_nD_U16_d.c",line 
    2281                    $C$DW$178       .dwtag  DW_TAG_TI_branch
    2282                            .dwattr $C$DW$178, DW_AT_low_pc(0x00)
    2283                            .dwattr $C$DW$178, DW_AT_name("VLIB_free")
    2284                            .dwattr $C$DW$178, DW_AT_TI_call
    2285 000006f0 00000010!            CALL    .S1     VLIB_free         ; |171| 
    2286 000006f4     edcd             LDW     .D2T1   *+SP(60),A4       ; |171| 
    2287 000006f6     4c6e             NOP             3
    2288 000006f8           $C$DW$L$VLIB_histogram_nD_U16_d$48$E:
    2289                    ;** --------------------------------------------------------------------------*
    2290 000006f8           $C$L18:    
    2291                            .dwpsn  file "./../packages/ti/vlib/src/VLIB_histogram_nD_U16/VLIB_histogram_nD_U16_d.c",line 
    2292 000006f8           $C$DW$L$VLIB_histogram_nD_U16_d$49$B:
    2293                    ;          EXCLUSIVE CPU CYCLES: 1
    2294                    ;**     -----------------------g23:
    2295                    ;** 171 -----------------------    VLIB_free((void *)H1);
    2296                    ;** 172 -----------------------    free((void *)H_cn);
    2297                    ;** 173 -----------------------    VLIB_free((void *)H);
    2298                    ;** 174 -----------------------    VLIB_free((void *)scrap);
    2299                    ;** 175 -----------------------    VLIB_free((void *)normVals);
    2300                    ;** 176 -----------------------    VLIB_free((void *)numBins);
    2301                    ;** 177 -----------------------    VLIB_free((void *)X);
    2302                    ;** 51  -----------------------    U$11 += 36;
    2303                    ;** 51  -----------------------    U$12 += 36;
    2304                    ;** 51  -----------------------    if ( test_cases > (++tpi) ) goto g3;
    2305                            .dwpsn  file "./../packages/ti/vlib/src/VLIB_histogram_nD_U16/VLIB_histogram_nD_U16_d.c",line 
    2306 000006f8 01880162             ADDKPC  .S2     $C$RL37,B3,0      ; |171| 
    2307                    $C$RL37:   ; CALL OCCURS {VLIB_free} {0}     ; |171| 
    2308                    $C$DW$L$VLIB_histogram_nD_U16_d$49$E:
    2309                    ;** --------------------------------------------------------------------------*
    2310                    $C$DW$L$VLIB_histogram_nD_U16_d$50$B:
TMS320C6x Assembler PC v7.4.2 Thu Mar 19 12:41:52 2015

Tools Copyright (c) 1996-2012 Texas Instruments Incorporated
package/lib/Regression/regress_d_c/./../packages/ti/vlib/src/VLIB_histogram_nD_U16/VLIB_histogram_nD_U16_d.se66 PAGE   43

    2311                    ;          EXCLUSIVE CPU CYCLES: 36
    2312                    $C$DW$179       .dwtag  DW_TAG_TI_branch
    2313                            .dwattr $C$DW$179, DW_AT_low_pc(0x00)
    2314                            .dwattr $C$DW$179, DW_AT_name("free")
    2315                            .dwattr $C$DW$179, DW_AT_TI_call
    2316                    
    2317 00000700 10000013!            CALLP   .S2     free,B3
    2318 00000704 023dc2e4  ||         LDW     .D2T1   *+SP(56),A4       ; |172| 
    2319                    
    2320                            .dwpsn  file "./../packages/ti/vlib/src/VLIB_histogram_nD_U16/VLIB_histogram_nD_U16_d.c",line 
    2321                    ;----------------------------------------------------------------------
    2322                    ; 172 | free(H_cn);                                                            
    2323                    ;----------------------------------------------------------------------
    2324                    $C$RL38:   ; CALL OCCURS {free} {0}          ; |172| 
    2325                    $C$DW$180       .dwtag  DW_TAG_TI_branch
    2326                            .dwattr $C$DW$180, DW_AT_low_pc(0x00)
    2327                            .dwattr $C$DW$180, DW_AT_name("VLIB_free")
    2328                            .dwattr $C$DW$180, DW_AT_TI_call
    2329                    
    2330 00000708 10000013!            CALLP   .S2     VLIB_free,B3
    2331 0000070c 023da2e4  ||         LDW     .D2T1   *+SP(52),A4       ; |173| 
    2332                    
    2333                            .dwpsn  file "./../packages/ti/vlib/src/VLIB_histogram_nD_U16/VLIB_histogram_nD_U16_d.c",line 
    2334                    ;----------------------------------------------------------------------
    2335                    ; 173 | VLIB_free(H);                                                          
    2336                    ;----------------------------------------------------------------------
    2337                    $C$RL39:   ; CALL OCCURS {VLIB_free} {0}     ; |173| 
    2338                    $C$DW$181       .dwtag  DW_TAG_TI_branch
    2339                            .dwattr $C$DW$181, DW_AT_low_pc(0x00)
    2340                            .dwattr $C$DW$181, DW_AT_name("VLIB_free")
    2341                            .dwattr $C$DW$181, DW_AT_TI_call
    2342                    
    2343 00000710 10000013!            CALLP   .S2     VLIB_free,B3
    2344 00000714 023d82e4  ||         LDW     .D2T1   *+SP(48),A4       ; |174| 
    2345                    
    2346                            .dwpsn  file "./../packages/ti/vlib/src/VLIB_histogram_nD_U16/VLIB_histogram_nD_U16_d.c",line 
    2347                    ;----------------------------------------------------------------------
    2348                    ; 174 | VLIB_free(scrap);                                                      
    2349                    ;----------------------------------------------------------------------
    2350                    $C$RL40:   ; CALL OCCURS {VLIB_free} {0}     ; |174| 
    2351                    $C$DW$182       .dwtag  DW_TAG_TI_branch
    2352                            .dwattr $C$DW$182, DW_AT_low_pc(0x00)
    2353                            .dwattr $C$DW$182, DW_AT_name("VLIB_free")
    2354                            .dwattr $C$DW$182, DW_AT_TI_call
    2355                    
    2356 00000718 10000013!            CALLP   .S2     VLIB_free,B3
    2357 0000071c 023d62e4  ||         LDW     .D2T1   *+SP(44),A4       ; |175| 
    2358                    
    2359                            .dwpsn  file "./../packages/ti/vlib/src/VLIB_histogram_nD_U16/VLIB_histogram_nD_U16_d.c",line 
    2360                    ;----------------------------------------------------------------------
    2361                    ; 175 | VLIB_free(normVals);                                                   
    2362                    ;----------------------------------------------------------------------
    2363                    $C$RL41:   ; CALL OCCURS {VLIB_free} {0}     ; |175| 
    2364                    $C$DW$183       .dwtag  DW_TAG_TI_branch
    2365                            .dwattr $C$DW$183, DW_AT_low_pc(0x00)
TMS320C6x Assembler PC v7.4.2 Thu Mar 19 12:41:52 2015

Tools Copyright (c) 1996-2012 Texas Instruments Incorporated
package/lib/Regression/regress_d_c/./../packages/ti/vlib/src/VLIB_histogram_nD_U16/VLIB_histogram_nD_U16_d.se66 PAGE   44

    2366                            .dwattr $C$DW$183, DW_AT_name("VLIB_free")
    2367                            .dwattr $C$DW$183, DW_AT_TI_call
    2368                    
    2369 00000720 10000013!            CALLP   .S2     VLIB_free,B3
    2370 00000724 023d42e4  ||         LDW     .D2T1   *+SP(40),A4       ; |176| 
    2371                    
    2372                            .dwpsn  file "./../packages/ti/vlib/src/VLIB_histogram_nD_U16/VLIB_histogram_nD_U16_d.c",line 
    2373                    ;----------------------------------------------------------------------
    2374                    ; 176 | VLIB_free(numBins);                                                    
    2375                    ;----------------------------------------------------------------------
    2376                    $C$RL42:   ; CALL OCCURS {VLIB_free} {0}     ; |176| 
    2377                    $C$DW$184       .dwtag  DW_TAG_TI_branch
    2378                            .dwattr $C$DW$184, DW_AT_low_pc(0x00)
    2379                            .dwattr $C$DW$184, DW_AT_name("VLIB_free")
    2380                            .dwattr $C$DW$184, DW_AT_TI_call
    2381                    
    2382 00000728 10000013!            CALLP   .S2     VLIB_free,B3
    2383 0000072c 023d22e4  ||         LDW     .D2T1   *+SP(36),A4       ; |177| 
    2384                    
    2385                            .dwpsn  file "./../packages/ti/vlib/src/VLIB_histogram_nD_U16/VLIB_histogram_nD_U16_d.c",line 
    2386                    ;----------------------------------------------------------------------
    2387                    ; 177 | VLIB_free(X);                                                          
    2388                    ;----------------------------------------------------------------------
    2389 00000730           $C$RL43:   ; CALL OCCURS {VLIB_free} {0}     ; |177| 
    2390 00000730           $C$DW$L$VLIB_histogram_nD_U16_d$50$E:
    2391                    ;** --------------------------------------------------------------------------*
    2392 00000730           $C$DW$L$VLIB_histogram_nD_U16_d$51$B:
    2393                    ;          EXCLUSIVE CPU CYCLES: 14
    2394 00000730 01800028!            MVKL    .S1     test_cases,A3
    2395 00000734 01800068!            MVKH    .S1     test_cases,A3
    2396                            .dwpsn  file "./../packages/ti/vlib/src/VLIB_histogram_nD_U16/VLIB_histogram_nD_U16_d.c",line 
    2397 00000738 018c0264             LDW     .D1T1   *A3,A3            ; |51| 
    2398 0000073c 06001252             ADDK    .S2     36,B12            ; |51| 
    2399 00000740 06b42058             ADD     .L1     1,A13,A13         ; |51| 
    2400 00000744 06801252             ADDK    .S2     36,B13            ; |51| 
    2401 00000748 00000000             NOP             1
    2402 0000074c 003468f8             CMPGT   .L1     A3,A13,A0         ; |51| 
    2403                    
    2404 00000750 ce492121     [ A0]   BNOP    .S1     $C$L1,1           ; |51| 
    2405 00000754 c1b0c2e4  || [ A0]   LDW     .D2T1   *+B12(24),A3      ; |58| 
    2406                    
    2407                            .dwpsn  file "./../packages/ti/vlib/src/VLIB_histogram_nD_U16/VLIB_histogram_nD_U16_d.c",line 
    2408 00000758 c230a2e6     [ A0]   LDW     .D2T2   *+B12(20),B4      ; |58| 
    2409 0000075c 00004000             NOP             3
    2410                            .dwpsn  file "./../packages/ti/vlib/src/VLIB_histogram_nD_U16/VLIB_histogram_nD_U16_d.c",line 
    2411                               ; BRANCHCC OCCURS {$C$L1}         ; |51| 
    2412 00000760           $C$DW$L$VLIB_histogram_nD_U16_d$51$E:
    2413                    ;** --------------------------------------------------------------------------*
    2414 00000760           $C$L19:    
    2415                    ;          EXCLUSIVE CPU CYCLES: 8
    2416                    ;**     -----------------------g24:
    2417                    ;** 181 -----------------------    VLIB_profile_cycle_report(2, "N = numX*dimX; M = numX; L = outsize 
    2418                    ;** 158 -----------------------    printf((const char *)"---------------------------------------------
    2419                    ;** 165 -----------------------    VLIB_stack_memory();  // [19]
    2420                    ;**     -----------------------    return;
TMS320C6x Assembler PC v7.4.2 Thu Mar 19 12:41:52 2015

Tools Copyright (c) 1996-2012 Texas Instruments Incorporated
package/lib/Regression/regress_d_c/./../packages/ti/vlib/src/VLIB_histogram_nD_U16/VLIB_histogram_nD_U16_d.se66 PAGE   45

    2421 00000760 0200002a!            MVKL    .S2     $C$SL6+0,B4
    2422                    
    2423 00000764 03000029!            MVKL    .S1     $C$SL5+0,A6
    2424 00000768 0200006a! ||         MVKH    .S2     $C$SL6+0,B4
    2425                    
    2426                    $C$DW$185       .dwtag  DW_TAG_TI_branch
    2427                            .dwattr $C$DW$185, DW_AT_low_pc(0x00)
    2428                            .dwattr $C$DW$185, DW_AT_name("VLIB_profile_cycle_report")
    2429                            .dwattr $C$DW$185, DW_AT_TI_call
    2430                    
    2431 0000076c 10000013!            CALLP   .S2     VLIB_profile_cycle_report,B3
    2432 00000770 03000069! ||         MVKH    .S1     $C$SL5+0,A6
    2433 00000774 0208a358  ||         MVK     .L1     0x2,A4            ; |181| 
    2434                    
    2435                            .dwpsn  file "./../packages/ti/vlib/src/VLIB_histogram_nD_U16/VLIB_histogram_nD_U16_d.c",line 
    2436                    ;----------------------------------------------------------------------
    2437                    ; 181 | VLIB_profile_cycle_report(vlib_PROFILE_FORMULA_RANGE,                  
    2438                    ; 182 |                           "N = numX*dimX; M = numX; L = outsize (produc
    2439                    ;     | t of num of bins in each dim)",                                        
    2440                    ; 183 |                           "numX*dimX");                                
    2441                    ; 186 | VLIB_kernel_memory();                                                  
    2442                    ;----------------------------------------------------------------------
    2443 00000778           $C$RL44:   ; CALL OCCURS {VLIB_profile_cycle_report} {0}  ; |181| 
    2444                    ;** --------------------------------------------------------------------------*
    2445                    ;          EXCLUSIVE CPU CYCLES: 14
    2446 00000778 0200002a!            MVKL    .S2     $C$SL7+0,B4
    2447 0000077c 0200006a!            MVKH    .S2     $C$SL7+0,B4
    2448                    $C$DW$186       .dwtag  DW_TAG_TI_branch
    2449                            .dwattr $C$DW$186, DW_AT_low_pc(0x00)
    2450                            .dwattr $C$DW$186, DW_AT_name("printf")
    2451                            .dwattr $C$DW$186, DW_AT_TI_call
    2452                    
    2453 00000780 10000013!            CALLP   .S2     printf,B3
    2454 00000784 023c22f6  ||         STW     .D2T2   B4,*+SP(4)        ; |158| 
    2455                    
    2456                            .dwpsn  file ".\..\packages\ti\vlib\src\VLIB_histogram_nD_U16\../common/VLIB_memory.h",line 15
    2457                    $C$RL45:   ; CALL OCCURS {printf} {0}        ; |158| 
    2458                    $C$DW$187       .dwtag  DW_TAG_TI_branch
    2459                            .dwattr $C$DW$187, DW_AT_low_pc(0x00)
    2460                            .dwattr $C$DW$187, DW_AT_name("VLIB_stack_memory")
    2461                            .dwattr $C$DW$187, DW_AT_TI_call
    2462 00000788 10000012!            CALLP   .S2     VLIB_stack_memory,B3
    2463                            .dwpsn  file ".\..\packages\ti\vlib\src\VLIB_histogram_nD_U16\../common/VLIB_memory.h",line 16
    2464 0000078c           $C$RL46:   ; CALL OCCURS {VLIB_stack_memory} {0}  ; |165| 
    2465                    ;** --------------------------------------------------------------------------*
    2466                    ;          EXCLUSIVE CPU CYCLES: 13
    2467                            .dwpsn  file "./../packages/ti/vlib/src/VLIB_histogram_nD_U16/VLIB_histogram_nD_U16_d.c",line 
    2468 0000078c 01be52e6             LDW     .D2T2   *++SP(72),B3      ; |187| 
    2469                            .dwcfi  cfa_offset, 48
    2470                            .dwcfi  restore_reg, 19
    2471 00000790     c677             LDDW    .D2T1   *++SP,A13:A12
    2472                            .dwcfi  cfa_offset, 40
    2473                            .dwcfi  restore_reg, 13
    2474                            .dwcfi  restore_reg, 12
    2475 00000792     c777             LDDW    .D2T1   *++SP,A15:A14
TMS320C6x Assembler PC v7.4.2 Thu Mar 19 12:41:52 2015

Tools Copyright (c) 1996-2012 Texas Instruments Incorporated
package/lib/Regression/regress_d_c/./../packages/ti/vlib/src/VLIB_histogram_nD_U16/VLIB_histogram_nD_U16_d.se66 PAGE   46

    2476                            .dwcfi  cfa_offset, 32
    2477                            .dwcfi  restore_reg, 15
    2478                            .dwcfi  restore_reg, 14
    2479 00000794     d577             LDDW    .D2T2   *++SP,B11:B10
    2480                            .dwcfi  cfa_offset, 24
    2481                            .dwcfi  restore_reg, 27
    2482                            .dwcfi  restore_reg, 26
    2483 00000796     d677             LDDW    .D2T2   *++SP,B13:B12
    2484                            .dwcfi  cfa_offset, 16
    2485                            .dwcfi  restore_reg, 29
    2486                            .dwcfi  restore_reg, 28
    2487 00000798     6577             LDW     .D2T1   *++SP(8),A10
    2488                            .dwcfi  cfa_offset, 8
    2489                            .dwcfi  restore_reg, 10
    2490 0000079a     65f7             LDW     .D2T1   *++SP(8),A11      ; |187| 
    2491                            .dwcfi  cfa_offset, 0
    2492                            .dwcfi  restore_reg, 11
    2493                            .dwcfi  cfa_offset, 0
    2494                    $C$DW$188       .dwtag  DW_TAG_TI_branch
    2495                            .dwattr $C$DW$188, DW_AT_low_pc(0x00)
    2496                            .dwattr $C$DW$188, DW_AT_TI_return
    2497 000007a0 008ca362             RETNOP  .S2     B3,5
    2498                               ; BRANCH OCCURS {B3}  
    2499                    
    2500                    $C$DW$189       .dwtag  DW_TAG_TI_loop
    2501                            .dwattr $C$DW$189, DW_AT_name("c:\nightlybuilds\vlib\ti\vlib\vlib\examples\package/lib/Regress
    2502                            .dwattr $C$DW$189, DW_AT_TI_begin_file("./../packages/ti/vlib/src/VLIB_histogram_nD_U16/VLIB_h
    2503                            .dwattr $C$DW$189, DW_AT_TI_begin_line(0x33)
    2504                            .dwattr $C$DW$189, DW_AT_TI_end_line(0xb2)
    2505                    $C$DW$190       .dwtag  DW_TAG_TI_loop_range
    2506                            .dwattr $C$DW$190, DW_AT_low_pc($C$DW$L$VLIB_histogram_nD_U16_d$4$B)
    2507                            .dwattr $C$DW$190, DW_AT_high_pc($C$DW$L$VLIB_histogram_nD_U16_d$4$E)
    2508                    $C$DW$191       .dwtag  DW_TAG_TI_loop_range
    2509                            .dwattr $C$DW$191, DW_AT_low_pc($C$DW$L$VLIB_histogram_nD_U16_d$46$B)
    2510                            .dwattr $C$DW$191, DW_AT_high_pc($C$DW$L$VLIB_histogram_nD_U16_d$46$E)
    2511                    $C$DW$192       .dwtag  DW_TAG_TI_loop_range
    2512                            .dwattr $C$DW$192, DW_AT_low_pc($C$DW$L$VLIB_histogram_nD_U16_d$38$B)
    2513                            .dwattr $C$DW$192, DW_AT_high_pc($C$DW$L$VLIB_histogram_nD_U16_d$38$E)
    2514                    $C$DW$193       .dwtag  DW_TAG_TI_loop_range
    2515                            .dwattr $C$DW$193, DW_AT_low_pc($C$DW$L$VLIB_histogram_nD_U16_d$33$B)
    2516                            .dwattr $C$DW$193, DW_AT_high_pc($C$DW$L$VLIB_histogram_nD_U16_d$33$E)
    2517                    $C$DW$194       .dwtag  DW_TAG_TI_loop_range
    2518                            .dwattr $C$DW$194, DW_AT_low_pc($C$DW$L$VLIB_histogram_nD_U16_d$34$B)
    2519                            .dwattr $C$DW$194, DW_AT_high_pc($C$DW$L$VLIB_histogram_nD_U16_d$34$E)
    2520                    $C$DW$195       .dwtag  DW_TAG_TI_loop_range
    2521                            .dwattr $C$DW$195, DW_AT_low_pc($C$DW$L$VLIB_histogram_nD_U16_d$35$B)
    2522                            .dwattr $C$DW$195, DW_AT_high_pc($C$DW$L$VLIB_histogram_nD_U16_d$35$E)
    2523                    $C$DW$196       .dwtag  DW_TAG_TI_loop_range
    2524                            .dwattr $C$DW$196, DW_AT_low_pc($C$DW$L$VLIB_histogram_nD_U16_d$36$B)
    2525                            .dwattr $C$DW$196, DW_AT_high_pc($C$DW$L$VLIB_histogram_nD_U16_d$36$E)
    2526                    $C$DW$197       .dwtag  DW_TAG_TI_loop_range
    2527                            .dwattr $C$DW$197, DW_AT_low_pc($C$DW$L$VLIB_histogram_nD_U16_d$37$B)
    2528                            .dwattr $C$DW$197, DW_AT_high_pc($C$DW$L$VLIB_histogram_nD_U16_d$37$E)
    2529                    $C$DW$198       .dwtag  DW_TAG_TI_loop_range
    2530                            .dwattr $C$DW$198, DW_AT_low_pc($C$DW$L$VLIB_histogram_nD_U16_d$39$B)
TMS320C6x Assembler PC v7.4.2 Thu Mar 19 12:41:52 2015

Tools Copyright (c) 1996-2012 Texas Instruments Incorporated
package/lib/Regression/regress_d_c/./../packages/ti/vlib/src/VLIB_histogram_nD_U16/VLIB_histogram_nD_U16_d.se66 PAGE   47

    2531                            .dwattr $C$DW$198, DW_AT_high_pc($C$DW$L$VLIB_histogram_nD_U16_d$39$E)
    2532                    $C$DW$199       .dwtag  DW_TAG_TI_loop_range
    2533                            .dwattr $C$DW$199, DW_AT_low_pc($C$DW$L$VLIB_histogram_nD_U16_d$40$B)
    2534                            .dwattr $C$DW$199, DW_AT_high_pc($C$DW$L$VLIB_histogram_nD_U16_d$40$E)
    2535                    $C$DW$200       .dwtag  DW_TAG_TI_loop_range
    2536                            .dwattr $C$DW$200, DW_AT_low_pc($C$DW$L$VLIB_histogram_nD_U16_d$41$B)
    2537                            .dwattr $C$DW$200, DW_AT_high_pc($C$DW$L$VLIB_histogram_nD_U16_d$41$E)
    2538                    $C$DW$201       .dwtag  DW_TAG_TI_loop_range
    2539                            .dwattr $C$DW$201, DW_AT_low_pc($C$DW$L$VLIB_histogram_nD_U16_d$42$B)
    2540                            .dwattr $C$DW$201, DW_AT_high_pc($C$DW$L$VLIB_histogram_nD_U16_d$42$E)
    2541                    $C$DW$202       .dwtag  DW_TAG_TI_loop_range
    2542                            .dwattr $C$DW$202, DW_AT_low_pc($C$DW$L$VLIB_histogram_nD_U16_d$47$B)
    2543                            .dwattr $C$DW$202, DW_AT_high_pc($C$DW$L$VLIB_histogram_nD_U16_d$47$E)
    2544                    $C$DW$203       .dwtag  DW_TAG_TI_loop_range
    2545                            .dwattr $C$DW$203, DW_AT_low_pc($C$DW$L$VLIB_histogram_nD_U16_d$25$B)
    2546                            .dwattr $C$DW$203, DW_AT_high_pc($C$DW$L$VLIB_histogram_nD_U16_d$25$E)
    2547                    $C$DW$204       .dwtag  DW_TAG_TI_loop_range
    2548                            .dwattr $C$DW$204, DW_AT_low_pc($C$DW$L$VLIB_histogram_nD_U16_d$19$B)
    2549                            .dwattr $C$DW$204, DW_AT_high_pc($C$DW$L$VLIB_histogram_nD_U16_d$19$E)
    2550                    $C$DW$205       .dwtag  DW_TAG_TI_loop_range
    2551                            .dwattr $C$DW$205, DW_AT_low_pc($C$DW$L$VLIB_histogram_nD_U16_d$14$B)
    2552                            .dwattr $C$DW$205, DW_AT_high_pc($C$DW$L$VLIB_histogram_nD_U16_d$14$E)
    2553                    $C$DW$206       .dwtag  DW_TAG_TI_loop_range
    2554                            .dwattr $C$DW$206, DW_AT_low_pc($C$DW$L$VLIB_histogram_nD_U16_d$15$B)
    2555                            .dwattr $C$DW$206, DW_AT_high_pc($C$DW$L$VLIB_histogram_nD_U16_d$15$E)
    2556                    $C$DW$207       .dwtag  DW_TAG_TI_loop_range
    2557                            .dwattr $C$DW$207, DW_AT_low_pc($C$DW$L$VLIB_histogram_nD_U16_d$5$B)
    2558                            .dwattr $C$DW$207, DW_AT_high_pc($C$DW$L$VLIB_histogram_nD_U16_d$5$E)
    2559                    $C$DW$208       .dwtag  DW_TAG_TI_loop_range
    2560                            .dwattr $C$DW$208, DW_AT_low_pc($C$DW$L$VLIB_histogram_nD_U16_d$6$B)
    2561                            .dwattr $C$DW$208, DW_AT_high_pc($C$DW$L$VLIB_histogram_nD_U16_d$6$E)
    2562                    $C$DW$209       .dwtag  DW_TAG_TI_loop_range
    2563                            .dwattr $C$DW$209, DW_AT_low_pc($C$DW$L$VLIB_histogram_nD_U16_d$7$B)
    2564                            .dwattr $C$DW$209, DW_AT_high_pc($C$DW$L$VLIB_histogram_nD_U16_d$7$E)
    2565                    $C$DW$210       .dwtag  DW_TAG_TI_loop_range
    2566                            .dwattr $C$DW$210, DW_AT_low_pc($C$DW$L$VLIB_histogram_nD_U16_d$8$B)
    2567                            .dwattr $C$DW$210, DW_AT_high_pc($C$DW$L$VLIB_histogram_nD_U16_d$8$E)
    2568                    $C$DW$211       .dwtag  DW_TAG_TI_loop_range
    2569                            .dwattr $C$DW$211, DW_AT_low_pc($C$DW$L$VLIB_histogram_nD_U16_d$9$B)
    2570                            .dwattr $C$DW$211, DW_AT_high_pc($C$DW$L$VLIB_histogram_nD_U16_d$9$E)
    2571                    $C$DW$212       .dwtag  DW_TAG_TI_loop_range
    2572                            .dwattr $C$DW$212, DW_AT_low_pc($C$DW$L$VLIB_histogram_nD_U16_d$10$B)
    2573                            .dwattr $C$DW$212, DW_AT_high_pc($C$DW$L$VLIB_histogram_nD_U16_d$10$E)
    2574                    $C$DW$213       .dwtag  DW_TAG_TI_loop_range
    2575                            .dwattr $C$DW$213, DW_AT_low_pc($C$DW$L$VLIB_histogram_nD_U16_d$13$B)
    2576                            .dwattr $C$DW$213, DW_AT_high_pc($C$DW$L$VLIB_histogram_nD_U16_d$13$E)
    2577                    $C$DW$214       .dwtag  DW_TAG_TI_loop_range
    2578                            .dwattr $C$DW$214, DW_AT_low_pc($C$DW$L$VLIB_histogram_nD_U16_d$16$B)
    2579                            .dwattr $C$DW$214, DW_AT_high_pc($C$DW$L$VLIB_histogram_nD_U16_d$16$E)
    2580                    $C$DW$215       .dwtag  DW_TAG_TI_loop_range
    2581                            .dwattr $C$DW$215, DW_AT_low_pc($C$DW$L$VLIB_histogram_nD_U16_d$17$B)
    2582                            .dwattr $C$DW$215, DW_AT_high_pc($C$DW$L$VLIB_histogram_nD_U16_d$17$E)
    2583                    $C$DW$216       .dwtag  DW_TAG_TI_loop_range
    2584                            .dwattr $C$DW$216, DW_AT_low_pc($C$DW$L$VLIB_histogram_nD_U16_d$18$B)
    2585                            .dwattr $C$DW$216, DW_AT_high_pc($C$DW$L$VLIB_histogram_nD_U16_d$18$E)
TMS320C6x Assembler PC v7.4.2 Thu Mar 19 12:41:52 2015

Tools Copyright (c) 1996-2012 Texas Instruments Incorporated
package/lib/Regression/regress_d_c/./../packages/ti/vlib/src/VLIB_histogram_nD_U16/VLIB_histogram_nD_U16_d.se66 PAGE   48

    2586                    $C$DW$217       .dwtag  DW_TAG_TI_loop_range
    2587                            .dwattr $C$DW$217, DW_AT_low_pc($C$DW$L$VLIB_histogram_nD_U16_d$23$B)
    2588                            .dwattr $C$DW$217, DW_AT_high_pc($C$DW$L$VLIB_histogram_nD_U16_d$23$E)
    2589                    $C$DW$218       .dwtag  DW_TAG_TI_loop_range
    2590                            .dwattr $C$DW$218, DW_AT_low_pc($C$DW$L$VLIB_histogram_nD_U16_d$24$B)
    2591                            .dwattr $C$DW$218, DW_AT_high_pc($C$DW$L$VLIB_histogram_nD_U16_d$24$E)
    2592                    $C$DW$219       .dwtag  DW_TAG_TI_loop_range
    2593                            .dwattr $C$DW$219, DW_AT_low_pc($C$DW$L$VLIB_histogram_nD_U16_d$29$B)
    2594                            .dwattr $C$DW$219, DW_AT_high_pc($C$DW$L$VLIB_histogram_nD_U16_d$29$E)
    2595                    $C$DW$220       .dwtag  DW_TAG_TI_loop_range
    2596                            .dwattr $C$DW$220, DW_AT_low_pc($C$DW$L$VLIB_histogram_nD_U16_d$30$B)
    2597                            .dwattr $C$DW$220, DW_AT_high_pc($C$DW$L$VLIB_histogram_nD_U16_d$30$E)
    2598                    $C$DW$221       .dwtag  DW_TAG_TI_loop_range
    2599                            .dwattr $C$DW$221, DW_AT_low_pc($C$DW$L$VLIB_histogram_nD_U16_d$31$B)
    2600                            .dwattr $C$DW$221, DW_AT_high_pc($C$DW$L$VLIB_histogram_nD_U16_d$31$E)
    2601                    $C$DW$222       .dwtag  DW_TAG_TI_loop_range
    2602                            .dwattr $C$DW$222, DW_AT_low_pc($C$DW$L$VLIB_histogram_nD_U16_d$32$B)
    2603                            .dwattr $C$DW$222, DW_AT_high_pc($C$DW$L$VLIB_histogram_nD_U16_d$32$E)
    2604                    $C$DW$223       .dwtag  DW_TAG_TI_loop_range
    2605                            .dwattr $C$DW$223, DW_AT_low_pc($C$DW$L$VLIB_histogram_nD_U16_d$43$B)
    2606                            .dwattr $C$DW$223, DW_AT_high_pc($C$DW$L$VLIB_histogram_nD_U16_d$43$E)
    2607                    $C$DW$224       .dwtag  DW_TAG_TI_loop_range
    2608                            .dwattr $C$DW$224, DW_AT_low_pc($C$DW$L$VLIB_histogram_nD_U16_d$44$B)
    2609                            .dwattr $C$DW$224, DW_AT_high_pc($C$DW$L$VLIB_histogram_nD_U16_d$44$E)
    2610                    $C$DW$225       .dwtag  DW_TAG_TI_loop_range
    2611                            .dwattr $C$DW$225, DW_AT_low_pc($C$DW$L$VLIB_histogram_nD_U16_d$45$B)
    2612                            .dwattr $C$DW$225, DW_AT_high_pc($C$DW$L$VLIB_histogram_nD_U16_d$45$E)
    2613                    $C$DW$226       .dwtag  DW_TAG_TI_loop_range
    2614                            .dwattr $C$DW$226, DW_AT_low_pc($C$DW$L$VLIB_histogram_nD_U16_d$48$B)
    2615                            .dwattr $C$DW$226, DW_AT_high_pc($C$DW$L$VLIB_histogram_nD_U16_d$48$E)
    2616                    $C$DW$227       .dwtag  DW_TAG_TI_loop_range
    2617                            .dwattr $C$DW$227, DW_AT_low_pc($C$DW$L$VLIB_histogram_nD_U16_d$49$B)
    2618                            .dwattr $C$DW$227, DW_AT_high_pc($C$DW$L$VLIB_histogram_nD_U16_d$49$E)
    2619                    $C$DW$228       .dwtag  DW_TAG_TI_loop_range
    2620                            .dwattr $C$DW$228, DW_AT_low_pc($C$DW$L$VLIB_histogram_nD_U16_d$50$B)
    2621                            .dwattr $C$DW$228, DW_AT_high_pc($C$DW$L$VLIB_histogram_nD_U16_d$50$E)
    2622                    $C$DW$229       .dwtag  DW_TAG_TI_loop_range
    2623                            .dwattr $C$DW$229, DW_AT_low_pc($C$DW$L$VLIB_histogram_nD_U16_d$51$B)
    2624                            .dwattr $C$DW$229, DW_AT_high_pc($C$DW$L$VLIB_histogram_nD_U16_d$51$E)
    2625                    
    2626                    $C$DW$230       .dwtag  DW_TAG_TI_loop
    2627                            .dwattr $C$DW$230, DW_AT_name("c:\nightlybuilds\vlib\ti\vlib\vlib\examples\package/lib/Regress
    2628                            .dwattr $C$DW$230, DW_AT_TI_begin_file("./../packages/ti/vlib/src/VLIB_histogram_nD_U16/VLIB_h
    2629                            .dwattr $C$DW$230, DW_AT_TI_begin_line(0x6d)
    2630                            .dwattr $C$DW$230, DW_AT_TI_end_line(0x6f)
    2631                    $C$DW$231       .dwtag  DW_TAG_TI_loop_range
    2632                            .dwattr $C$DW$231, DW_AT_low_pc($C$DW$L$VLIB_histogram_nD_U16_d$27$B)
    2633                            .dwattr $C$DW$231, DW_AT_high_pc($C$DW$L$VLIB_histogram_nD_U16_d$27$E)
    2634                            .dwendtag $C$DW$230
    2635                    
    2636                    
    2637                    $C$DW$232       .dwtag  DW_TAG_TI_loop
    2638                            .dwattr $C$DW$232, DW_AT_name("c:\nightlybuilds\vlib\ti\vlib\vlib\examples\package/lib/Regress
    2639                            .dwattr $C$DW$232, DW_AT_TI_begin_file("./../packages/ti/vlib/src/VLIB_histogram_nD_U16/VLIB_h
    2640                            .dwattr $C$DW$232, DW_AT_TI_begin_line(0x65)
TMS320C6x Assembler PC v7.4.2 Thu Mar 19 12:41:52 2015

Tools Copyright (c) 1996-2012 Texas Instruments Incorporated
package/lib/Regression/regress_d_c/./../packages/ti/vlib/src/VLIB_histogram_nD_U16/VLIB_histogram_nD_U16_d.se66 PAGE   49

    2641                            .dwattr $C$DW$232, DW_AT_TI_end_line(0x69)
    2642                    $C$DW$233       .dwtag  DW_TAG_TI_loop_range
    2643                            .dwattr $C$DW$233, DW_AT_low_pc($C$DW$L$VLIB_histogram_nD_U16_d$21$B)
    2644                            .dwattr $C$DW$233, DW_AT_high_pc($C$DW$L$VLIB_histogram_nD_U16_d$21$E)
    2645                            .dwendtag $C$DW$232
    2646                    
    2647                    
    2648                    $C$DW$234       .dwtag  DW_TAG_TI_loop
    2649                            .dwattr $C$DW$234, DW_AT_name("c:\nightlybuilds\vlib\ti\vlib\vlib\examples\package/lib/Regress
    2650                            .dwattr $C$DW$234, DW_AT_TI_begin_file("./../packages/ti/vlib/src/VLIB_histogram_nD_U16/VLIB_h
    2651                            .dwattr $C$DW$234, DW_AT_TI_begin_line(0x58)
    2652                            .dwattr $C$DW$234, DW_AT_TI_end_line(0x5b)
    2653                    $C$DW$235       .dwtag  DW_TAG_TI_loop_range
    2654                            .dwattr $C$DW$235, DW_AT_low_pc($C$DW$L$VLIB_histogram_nD_U16_d$11$B)
    2655                            .dwattr $C$DW$235, DW_AT_high_pc($C$DW$L$VLIB_histogram_nD_U16_d$11$E)
    2656                    $C$DW$236       .dwtag  DW_TAG_TI_loop_range
    2657                            .dwattr $C$DW$236, DW_AT_low_pc($C$DW$L$VLIB_histogram_nD_U16_d$12$B)
    2658                            .dwattr $C$DW$236, DW_AT_high_pc($C$DW$L$VLIB_histogram_nD_U16_d$12$E)
    2659                            .dwendtag $C$DW$234
    2660                    
    2661                            .dwendtag $C$DW$189
    2662                    
    2663                            .dwattr $C$DW$91, DW_AT_TI_end_file("./../packages/ti/vlib/src/VLIB_histogram_nD_U16/VLIB_hist
    2664                            .dwattr $C$DW$91, DW_AT_TI_end_line(0xbb)
    2665                            .dwattr $C$DW$91, DW_AT_TI_end_column(0x01)
    2666                            .dwendentry
    2667                            .dwendtag $C$DW$91
    2668                    
    2669                    ;; Inlined function references:
    2670                    ;; [ 15] VLIB_profile_start
    2671                    ;; [ 16] VLIB_profile_stop
    2672                    ;; [ 19] VLIB_kernel_memory
    2673                    ;******************************************************************************
    2674                    ;* STRINGS                                                                    *
    2675                    ;******************************************************************************
    2676 00000000                   .sect   ".const:.string"
    2677 00000000 00000056  $C$SL1: .string "VLIB_histogram_nD_U16",0
         00000001 0000004C 
         00000002 00000049 
         00000003 00000042 
         00000004 0000005F 
         00000005 00000068 
         00000006 00000069 
         00000007 00000073 
         00000008 00000074 
         00000009 0000006F 
         0000000a 00000067 
         0000000b 00000072 
         0000000c 00000061 
         0000000d 0000006D 
         0000000e 0000005F 
         0000000f 0000006E 
         00000010 00000044 
         00000011 0000005F 
         00000012 00000055 
TMS320C6x Assembler PC v7.4.2 Thu Mar 19 12:41:52 2015

Tools Copyright (c) 1996-2012 Texas Instruments Incorporated
package/lib/Regression/regress_d_c/./../packages/ti/vlib/src/VLIB_histogram_nD_U16/VLIB_histogram_nD_U16_d.se66 PAGE   50

         00000013 00000031 
         00000014 00000036 
         00000015 00000000 
    2678 00000016 00000025  $C$SL2: .string "%s generated input | Opt results compared to NatC results |"
         00000017 00000073 
         00000018 00000020 
         00000019 00000067 
         0000001a 00000065 
         0000001b 0000006E 
         0000001c 00000065 
         0000001d 00000072 
         0000001e 00000061 
         0000001f 00000074 
         00000020 00000065 
         00000021 00000064 
         00000022 00000020 
         00000023 00000069 
         00000024 0000006E 
         00000025 00000070 
         00000026 00000075 
         00000027 00000074 
         00000028 00000020 
         00000029 0000007C 
         0000002a 00000020 
         0000002b 0000004F 
         0000002c 00000070 
         0000002d 00000074 
         0000002e 00000020 
         0000002f 00000072 
         00000030 00000065 
         00000031 00000073 
         00000032 00000075 
         00000033 0000006C 
         00000034 00000074 
         00000035 00000073 
         00000036 00000020 
         00000037 00000063 
         00000038 0000006F 
         00000039 0000006D 
         0000003a 00000070 
         0000003b 00000061 
         0000003c 00000072 
         0000003d 00000065 
         0000003e 00000064 
         0000003f 00000020 
         00000040 00000074 
         00000041 0000006F 
         00000042 00000020 
         00000043 0000004E 
         00000044 00000061 
         00000045 00000074 
         00000046 00000043 
         00000047 00000020 
         00000048 00000072 
         00000049 00000065 
TMS320C6x Assembler PC v7.4.2 Thu Mar 19 12:41:52 2015

Tools Copyright (c) 1996-2012 Texas Instruments Incorporated
package/lib/Regression/regress_d_c/./../packages/ti/vlib/src/VLIB_histogram_nD_U16/VLIB_histogram_nD_U16_d.se66 PAGE   51

         0000004a 00000073 
         0000004b 00000075 
         0000004c 0000006C 
         0000004d 00000074 
         0000004e 00000073 
         0000004f 00000020 
         00000050 0000007C 
    2679 00000051 00000020          .string " numX=%d, dimX=%d, maxSize=%d, outsize=%d",0
         00000052 0000006E 
         00000053 00000075 
         00000054 0000006D 
         00000055 00000058 
         00000056 0000003D 
         00000057 00000025 
         00000058 00000064 
         00000059 0000002C 
         0000005a 00000020 
         0000005b 00000064 
         0000005c 00000069 
         0000005d 0000006D 
         0000005e 00000058 
         0000005f 0000003D 
         00000060 00000025 
         00000061 00000064 
         00000062 0000002C 
         00000063 00000020 
         00000064 0000006D 
         00000065 00000061 
         00000066 00000078 
         00000067 00000053 
         00000068 00000069 
         00000069 0000007A 
         0000006a 00000065 
         0000006b 0000003D 
         0000006c 00000025 
         0000006d 00000064 
         0000006e 0000002C 
         0000006f 00000020 
         00000070 0000006F 
         00000071 00000075 
         00000072 00000074 
         00000073 00000073 
         00000074 00000069 
         00000075 0000007A 
         00000076 00000065 
         00000077 0000003D 
         00000078 00000025 
         00000079 00000064 
         0000007a 00000000 
    2680 0000007b 0000006E  $C$SL3: .string "numX=%d, dimX=%d, maxSize=%d, outsize=%d",0
         0000007c 00000075 
         0000007d 0000006D 
         0000007e 00000058 
         0000007f 0000003D 
         00000080 00000025 
TMS320C6x Assembler PC v7.4.2 Thu Mar 19 12:41:52 2015

Tools Copyright (c) 1996-2012 Texas Instruments Incorporated
package/lib/Regression/regress_d_c/./../packages/ti/vlib/src/VLIB_histogram_nD_U16/VLIB_histogram_nD_U16_d.se66 PAGE   52

         00000081 00000064 
         00000082 0000002C 
         00000083 00000020 
         00000084 00000064 
         00000085 00000069 
         00000086 0000006D 
         00000087 00000058 
         00000088 0000003D 
         00000089 00000025 
         0000008a 00000064 
         0000008b 0000002C 
         0000008c 00000020 
         0000008d 0000006D 
         0000008e 00000061 
         0000008f 00000078 
         00000090 00000053 
         00000091 00000069 
         00000092 0000007A 
         00000093 00000065 
         00000094 0000003D 
         00000095 00000025 
         00000096 00000064 
         00000097 0000002C 
         00000098 00000020 
         00000099 0000006F 
         0000009a 00000075 
         0000009b 00000074 
         0000009c 00000073 
         0000009d 00000069 
         0000009e 0000007A 
         0000009f 00000065 
         000000a0 0000003D 
         000000a1 00000025 
         000000a2 00000064 
         000000a3 00000000 
    2681 000000a4 0000006E  $C$SL4: .string "numX=%d, dimX=%d, maxSize=%d",0
         000000a5 00000075 
         000000a6 0000006D 
         000000a7 00000058 
         000000a8 0000003D 
         000000a9 00000025 
         000000aa 00000064 
         000000ab 0000002C 
         000000ac 00000020 
         000000ad 00000064 
         000000ae 00000069 
         000000af 0000006D 
         000000b0 00000058 
         000000b1 0000003D 
         000000b2 00000025 
         000000b3 00000064 
         000000b4 0000002C 
         000000b5 00000020 
         000000b6 0000006D 
         000000b7 00000061 
TMS320C6x Assembler PC v7.4.2 Thu Mar 19 12:41:52 2015

Tools Copyright (c) 1996-2012 Texas Instruments Incorporated
package/lib/Regression/regress_d_c/./../packages/ti/vlib/src/VLIB_histogram_nD_U16/VLIB_histogram_nD_U16_d.se66 PAGE   53

         000000b8 00000078 
         000000b9 00000053 
         000000ba 00000069 
         000000bb 0000007A 
         000000bc 00000065 
         000000bd 0000003D 
         000000be 00000025 
         000000bf 00000064 
         000000c0 00000000 
    2682 000000c1 0000006E  $C$SL5: .string "numX*dimX",0
         000000c2 00000075 
         000000c3 0000006D 
         000000c4 00000058 
         000000c5 0000002A 
         000000c6 00000064 
         000000c7 00000069 
         000000c8 0000006D 
         000000c9 00000058 
         000000ca 00000000 
    2683 000000cb 0000004E  $C$SL6: .string "N = numX*dimX; M = numX; L = outsize (product of num of bin"
         000000cc 00000020 
         000000cd 0000003D 
         000000ce 00000020 
         000000cf 0000006E 
         000000d0 00000075 
         000000d1 0000006D 
         000000d2 00000058 
         000000d3 0000002A 
         000000d4 00000064 
         000000d5 00000069 
         000000d6 0000006D 
         000000d7 00000058 
         000000d8 0000003B 
         000000d9 00000020 
         000000da 0000004D 
         000000db 00000020 
         000000dc 0000003D 
         000000dd 00000020 
         000000de 0000006E 
         000000df 00000075 
         000000e0 0000006D 
         000000e1 00000058 
         000000e2 0000003B 
         000000e3 00000020 
         000000e4 0000004C 
         000000e5 00000020 
         000000e6 0000003D 
         000000e7 00000020 
         000000e8 0000006F 
         000000e9 00000075 
         000000ea 00000074 
         000000eb 00000073 
         000000ec 00000069 
         000000ed 0000007A 
         000000ee 00000065 
TMS320C6x Assembler PC v7.4.2 Thu Mar 19 12:41:52 2015

Tools Copyright (c) 1996-2012 Texas Instruments Incorporated
package/lib/Regression/regress_d_c/./../packages/ti/vlib/src/VLIB_histogram_nD_U16/VLIB_histogram_nD_U16_d.se66 PAGE   54

         000000ef 00000020 
         000000f0 00000028 
         000000f1 00000070 
         000000f2 00000072 
         000000f3 0000006F 
         000000f4 00000064 
         000000f5 00000075 
         000000f6 00000063 
         000000f7 00000074 
         000000f8 00000020 
         000000f9 0000006F 
         000000fa 00000066 
         000000fb 00000020 
         000000fc 0000006E 
         000000fd 00000075 
         000000fe 0000006D 
         000000ff 00000020 
         00000100 0000006F 
         00000101 00000066 
         00000102 00000020 
         00000103 00000062 
         00000104 00000069 
         00000105 0000006E 
    2684 00000106 00000073          .string "s in each dim)",0
         00000107 00000020 
         00000108 00000069 
         00000109 0000006E 
         0000010a 00000020 
         0000010b 00000065 
         0000010c 00000061 
         0000010d 00000063 
         0000010e 00000068 
         0000010f 00000020 
         00000110 00000064 
         00000111 00000069 
         00000112 0000006D 
         00000113 00000029 
         00000114 00000000 
    2685 00000115 0000002D  $C$SL7: .string "-----------------------------------------------------------"
         00000116 0000002D 
         00000117 0000002D 
         00000118 0000002D 
         00000119 0000002D 
         0000011a 0000002D 
         0000011b 0000002D 
         0000011c 0000002D 
         0000011d 0000002D 
         0000011e 0000002D 
         0000011f 0000002D 
         00000120 0000002D 
         00000121 0000002D 
         00000122 0000002D 
         00000123 0000002D 
         00000124 0000002D 
         00000125 0000002D 
TMS320C6x Assembler PC v7.4.2 Thu Mar 19 12:41:52 2015

Tools Copyright (c) 1996-2012 Texas Instruments Incorporated
package/lib/Regression/regress_d_c/./../packages/ti/vlib/src/VLIB_histogram_nD_U16/VLIB_histogram_nD_U16_d.se66 PAGE   55

         00000126 0000002D 
         00000127 0000002D 
         00000128 0000002D 
         00000129 0000002D 
         0000012a 0000002D 
         0000012b 0000002D 
         0000012c 0000002D 
         0000012d 0000002D 
         0000012e 0000002D 
         0000012f 0000002D 
         00000130 0000002D 
         00000131 0000002D 
         00000132 0000002D 
         00000133 0000002D 
         00000134 0000002D 
         00000135 0000002D 
         00000136 0000002D 
         00000137 0000002D 
         00000138 0000002D 
         00000139 0000002D 
         0000013a 0000002D 
         0000013b 0000002D 
         0000013c 0000002D 
         0000013d 0000002D 
         0000013e 0000002D 
         0000013f 0000002D 
         00000140 0000002D 
         00000141 0000002D 
         00000142 0000002D 
         00000143 0000002D 
         00000144 0000002D 
         00000145 0000002D 
         00000146 0000002D 
         00000147 0000002D 
         00000148 0000002D 
         00000149 0000002D 
         0000014a 0000002D 
         0000014b 0000002D 
         0000014c 0000002D 
         0000014d 0000002D 
         0000014e 0000002D 
         0000014f 0000002D 
    2686 00000150 0000002D          .string "-----------------------------------------------------------"
         00000151 0000002D 
         00000152 0000002D 
         00000153 0000002D 
         00000154 0000002D 
         00000155 0000002D 
         00000156 0000002D 
         00000157 0000002D 
         00000158 0000002D 
         00000159 0000002D 
         0000015a 0000002D 
         0000015b 0000002D 
         0000015c 0000002D 
TMS320C6x Assembler PC v7.4.2 Thu Mar 19 12:41:52 2015

Tools Copyright (c) 1996-2012 Texas Instruments Incorporated
package/lib/Regression/regress_d_c/./../packages/ti/vlib/src/VLIB_histogram_nD_U16/VLIB_histogram_nD_U16_d.se66 PAGE   56

         0000015d 0000002D 
         0000015e 0000002D 
         0000015f 0000002D 
         00000160 0000002D 
         00000161 0000002D 
         00000162 0000002D 
         00000163 0000002D 
         00000164 0000002D 
         00000165 0000002D 
         00000166 0000002D 
         00000167 0000002D 
         00000168 0000002D 
         00000169 0000002D 
         0000016a 0000002D 
         0000016b 0000002D 
         0000016c 0000002D 
         0000016d 0000002D 
         0000016e 0000002D 
         0000016f 0000002D 
         00000170 0000002D 
         00000171 0000002D 
         00000172 0000002D 
         00000173 0000002D 
         00000174 0000002D 
         00000175 0000002D 
         00000176 0000002D 
         00000177 0000002D 
         00000178 0000002D 
         00000179 0000002D 
         0000017a 0000002D 
         0000017b 0000002D 
         0000017c 0000002D 
         0000017d 0000002D 
         0000017e 0000002D 
         0000017f 0000002D 
         00000180 0000002D 
         00000181 0000002D 
         00000182 0000002D 
         00000183 0000002D 
         00000184 0000002D 
         00000185 0000002D 
         00000186 0000002D 
         00000187 0000002D 
         00000188 0000002D 
         00000189 0000002D 
         0000018a 0000002D 
    2687 0000018b 0000002D          .string "-----------------------",10,0
         0000018c 0000002D 
         0000018d 0000002D 
         0000018e 0000002D 
         0000018f 0000002D 
         00000190 0000002D 
         00000191 0000002D 
         00000192 0000002D 
         00000193 0000002D 
TMS320C6x Assembler PC v7.4.2 Thu Mar 19 12:41:52 2015

Tools Copyright (c) 1996-2012 Texas Instruments Incorporated
package/lib/Regression/regress_d_c/./../packages/ti/vlib/src/VLIB_histogram_nD_U16/VLIB_histogram_nD_U16_d.se66 PAGE   57

         00000194 0000002D 
         00000195 0000002D 
         00000196 0000002D 
         00000197 0000002D 
         00000198 0000002D 
         00000199 0000002D 
         0000019a 0000002D 
         0000019b 0000002D 
         0000019c 0000002D 
         0000019d 0000002D 
         0000019e 0000002D 
         0000019f 0000002D 
         000001a0 0000002D 
         000001a1 0000002D 
         000001a2 0000000A 
         000001a3 00000000 
    2688                    ;*****************************************************************************
    2689                    ;* UNDEFINED EXTERNAL REFERENCES                                             *
    2690                    ;*****************************************************************************
    2691                            .global printf
    2692                            .global sprintf
    2693                            .global memset
    2694                            .global malloc
    2695                            .global free
    2696                            .global VLIB_cache_inval
    2697                            .global VLIB_profile_init
    2698                            .global VLIB_formula_add_test
    2699                            .global VLIB_skip_test
    2700                            .global VLIB_profile_cycle_report
    2701                            .global initStack
    2702                            .global setStackDepth
    2703                            .global getSP
    2704                            .global VLIB_stack_memory
    2705                            .global VLIB_compare_mem
    2706                            .global VLIB_fillBuffer
    2707                            .global VLIB_malloc
    2708                            .global VLIB_free
    2709                            .global VLIB_histogram_nD_U16
    2710                            .global VLIB_histogram_nD_U16_cn
    2711                            .global histogram_nD_U16_getTestParams
    2712                            .global test_cases
    2713                            .global act_kernel
    2714                            .global desc
    2715                            .global testPatternString
    2716                            .global est_test
    2717                            .global beg_count
    2718                            .global end_count
    2719                            .global overhead
    2720                            .global cycles
    2721                            .global __c6xabi_divi
    2722                    
    2723                    ;******************************************************************************
    2724                    ;* BUILD ATTRIBUTES                                                           *
    2725                    ;******************************************************************************
    2726                            .battr "TI", Tag_File, 1, Tag_Long_Precision_Bits(2)
TMS320C6x Assembler PC v7.4.2 Thu Mar 19 12:41:52 2015

Tools Copyright (c) 1996-2012 Texas Instruments Incorporated
package/lib/Regression/regress_d_c/./../packages/ti/vlib/src/VLIB_histogram_nD_U16/VLIB_histogram_nD_U16_d.se66 PAGE   58

    2727                            .battr "TI", Tag_File, 1, Tag_Bitfield_layout(2)
    2728                            .battr "TI", Tag_File, 1, Tag_ABI_enum_size(2)
    2729                            .battr "c6xabi", Tag_File, 1, Tag_ABI_wchar_t(1)
    2730                            .battr "c6xabi", Tag_File, 1, Tag_ABI_array_object_alignment(0)
    2731                            .battr "c6xabi", Tag_File, 1, Tag_ABI_array_object_align_expected(0)
    2732                            .battr "c6xabi", Tag_File, 1, Tag_ABI_PIC(0)
    2733                            .battr "c6xabi", Tag_File, 1, Tag_ABI_PID(0)
    2734                            .battr "c6xabi", Tag_File, 1, Tag_ABI_DSBT(0)
    2735                            .battr "c6xabi", Tag_File, 1, Tag_ABI_stack_align_needed(0)
    2736                            .battr "c6xabi", Tag_File, 1, Tag_ABI_stack_align_preserved(0)
    2737                            .battr "TI", Tag_File, 1, Tag_Tramps_Use_SOC(1)
    2738                    
    2739                    ;******************************************************************************
    2740                    ;* TYPE INFORMATION                                                           *
    2741                    ;******************************************************************************
    2742                    
    2743                    $C$DW$T$36      .dwtag  DW_TAG_enumeration_type
    2744                            .dwattr $C$DW$T$36, DW_AT_byte_size(0x04)
    2745                    $C$DW$237       .dwtag  DW_TAG_enumerator, DW_AT_name("VLIB_NO_ERROR"), DW_AT_const_value(0x00)
    2746                            .dwattr $C$DW$237, DW_AT_decl_file(".\..\packages\ti\vlib\src\VLIB_histogram_nD_U16\..\common\
    2747                            .dwattr $C$DW$237, DW_AT_decl_line(0x7a)
    2748                            .dwattr $C$DW$237, DW_AT_decl_column(0x05)
    2749                    $C$DW$238       .dwtag  DW_TAG_enumerator, DW_AT_name("VLIB_ERR_INPUT_INVALID"), DW_AT_const_value(0x0
    2750                            .dwattr $C$DW$238, DW_AT_decl_file(".\..\packages\ti\vlib\src\VLIB_histogram_nD_U16\..\common\
    2751                            .dwattr $C$DW$238, DW_AT_decl_line(0x7b)
    2752                            .dwattr $C$DW$238, DW_AT_decl_column(0x05)
    2753                    $C$DW$239       .dwtag  DW_TAG_enumerator, DW_AT_name("VLIB_ERR_INPUT_NEGATIVE"), DW_AT_const_value(0x
    2754                            .dwattr $C$DW$239, DW_AT_decl_file(".\..\packages\ti\vlib\src\VLIB_histogram_nD_U16\..\common\
    2755                            .dwattr $C$DW$239, DW_AT_decl_line(0x7c)
    2756                            .dwattr $C$DW$239, DW_AT_decl_column(0x05)
    2757                    $C$DW$240       .dwtag  DW_TAG_enumerator, DW_AT_name("VLIB_ERR_INPUT_EXCEEDED_RANGE"), DW_AT_const_va
    2758                            .dwattr $C$DW$240, DW_AT_decl_file(".\..\packages\ti\vlib\src\VLIB_histogram_nD_U16\..\common\
    2759                            .dwattr $C$DW$240, DW_AT_decl_line(0x7d)
    2760                            .dwattr $C$DW$240, DW_AT_decl_column(0x05)
    2761                    $C$DW$241       .dwtag  DW_TAG_enumerator, DW_AT_name("VLIB_ERR_MEMORY_EXCEEDED_BOUNDARY"), DW_AT_cons
    2762                            .dwattr $C$DW$241, DW_AT_decl_file(".\..\packages\ti\vlib\src\VLIB_histogram_nD_U16\..\common\
    2763                            .dwattr $C$DW$241, DW_AT_decl_line(0x7e)
    2764                            .dwattr $C$DW$241, DW_AT_decl_column(0x05)
    2765                    $C$DW$242       .dwtag  DW_TAG_enumerator, DW_AT_name("VLIB_ERR_MEMORY_ALLOCATION_FAILURE"), DW_AT_con
    2766                            .dwattr $C$DW$242, DW_AT_decl_file(".\..\packages\ti\vlib\src\VLIB_histogram_nD_U16\..\common\
    2767                            .dwattr $C$DW$242, DW_AT_decl_line(0x7f)
    2768                            .dwattr $C$DW$242, DW_AT_decl_column(0x05)
    2769                    $C$DW$243       .dwtag  DW_TAG_enumerator, DW_AT_name("VLIB_ERR_MEMORY_POINTER_NULL"), DW_AT_const_val
    2770                            .dwattr $C$DW$243, DW_AT_decl_file(".\..\packages\ti\vlib\src\VLIB_histogram_nD_U16\..\common\
    2771                            .dwattr $C$DW$243, DW_AT_decl_line(0x80)
