TMS320C6x Assembler PC v7.4.2 Thu Mar 19 12:42:01 2015

Tools Copyright (c) 1996-2012 Texas Instruments Incorporated
package/lib/Regression/regress_d_c/./../packages/ti/vlib/src/VLIB_houghLineFromList/VLIB_houghLineFromList_d.se66 PAGE    1

       1                    ;******************************************************************************
       2                    ;* TMS320C6x C/C++ Codegen                                          PC v7.4.2 *
       3                    ;* Date/Time created: Thu Mar 19 12:42:00 2015                                *
       4                    ;******************************************************************************
       5                            .compiler_opts --abi=eabi --c64p_l1d_workaround=off --endian=little --hll_source=on --long_pre
       6                    
       7                    ;******************************************************************************
       8                    ;* GLOBAL FILE PARAMETERS                                                     *
       9                    ;*                                                                            *
      10                    ;*   Architecture      : TMS320C66xx                                          *
      11                    ;*   Optimization      : Enabled at level 3                                   *
      12                    ;*   Optimizing for    : Speed                                                *
      13                    ;*                       Based on options: -o3, no -ms                        *
      14                    ;*   Endian            : Little                                               *
      15                    ;*   Interrupt Thrshld : 10000                                                *
      16                    ;*   Data Access Model : Far                                                  *
      17                    ;*   Pipelining        : Enabled                                              *
      18                    ;*   Speculate Loads   : Enabled with threshold = 0                           *
      19                    ;*   Memory Aliases    : Presume are aliases (pessimistic)                    *
      20                    ;*   Debug Info        : DWARF Debug w/Optimization                           *
      21                    ;*                                                                            *
      22                    ;******************************************************************************
      23                    
      24                            .asg    A15, FP
      25                            .asg    B14, DP
      26                            .asg    B15, SP
      27                            .global $bss
      28                    
      29                    
      30                    $C$DW$CU        .dwtag  DW_TAG_compile_unit
      31                            .dwattr $C$DW$CU, DW_AT_name("./../packages/ti/vlib/src/VLIB_houghLineFromList/VLIB_houghLineF
      32                            .dwattr $C$DW$CU, DW_AT_producer("TI TMS320C6x C/C++ Codegen PC v7.4.2 Copyright (c) 1996-2012
      33                            .dwattr $C$DW$CU, DW_AT_TI_version(0x01)
      34                            .dwattr $C$DW$CU, DW_AT_comp_dir("c:\nightlybuilds\vlib\ti\vlib\vlib\examples")
      35                    
      36                    $C$DW$1 .dwtag  DW_TAG_subprogram, DW_AT_name("_itoll")
      37                            .dwattr $C$DW$1, DW_AT_TI_symbol_name("_itoll")
      38                            .dwattr $C$DW$1, DW_AT_type(*$C$DW$T$14)
      39                            .dwattr $C$DW$1, DW_AT_declaration
      40                            .dwattr $C$DW$1, DW_AT_external
      41                            .dwattr $C$DW$1, DW_AT_decl_file("C:/VLIB_Tools/CCSV5_4_0/ccsv5/tools/compiler/C6000/include/c
      42                            .dwattr $C$DW$1, DW_AT_decl_line(0xdf)
      43                            .dwattr $C$DW$1, DW_AT_decl_column(0x0b)
      44                    $C$DW$2 .dwtag  DW_TAG_formal_parameter
      45                            .dwattr $C$DW$2, DW_AT_type(*$C$DW$T$11)
      46                    $C$DW$3 .dwtag  DW_TAG_formal_parameter
      47                            .dwattr $C$DW$3, DW_AT_type(*$C$DW$T$11)
      48                            .dwendtag $C$DW$1
      49                    
      50                    
      51                    $C$DW$4 .dwtag  DW_TAG_subprogram, DW_AT_name("printf")
      52                            .dwattr $C$DW$4, DW_AT_TI_symbol_name("printf")
      53                            .dwattr $C$DW$4, DW_AT_type(*$C$DW$T$10)
      54                            .dwattr $C$DW$4, DW_AT_declaration
      55                            .dwattr $C$DW$4, DW_AT_external
TMS320C6x Assembler PC v7.4.2 Thu Mar 19 12:42:01 2015

Tools Copyright (c) 1996-2012 Texas Instruments Incorporated
package/lib/Regression/regress_d_c/./../packages/ti/vlib/src/VLIB_houghLineFromList/VLIB_houghLineFromList_d.se66 PAGE    2

      56                            .dwattr $C$DW$4, DW_AT_decl_file("C:/VLIB_Tools/CCSV5_4_0/ccsv5/tools/compiler/C6000/include/s
      57                            .dwattr $C$DW$4, DW_AT_decl_line(0xb8)
      58                            .dwattr $C$DW$4, DW_AT_decl_column(0x19)
      59                    $C$DW$5 .dwtag  DW_TAG_formal_parameter
      60                            .dwattr $C$DW$5, DW_AT_type(*$C$DW$T$116)
      61                    $C$DW$6 .dwtag  DW_TAG_unspecified_parameters
      62                            .dwendtag $C$DW$4
      63                    
      64                    
      65                    $C$DW$7 .dwtag  DW_TAG_subprogram, DW_AT_name("sprintf")
      66                            .dwattr $C$DW$7, DW_AT_TI_symbol_name("sprintf")
      67                            .dwattr $C$DW$7, DW_AT_type(*$C$DW$T$10)
      68                            .dwattr $C$DW$7, DW_AT_declaration
      69                            .dwattr $C$DW$7, DW_AT_external
      70                            .dwattr $C$DW$7, DW_AT_decl_file("C:/VLIB_Tools/CCSV5_4_0/ccsv5/tools/compiler/C6000/include/s
      71                            .dwattr $C$DW$7, DW_AT_decl_line(0xbc)
      72                            .dwattr $C$DW$7, DW_AT_decl_column(0x19)
      73                    $C$DW$8 .dwtag  DW_TAG_formal_parameter
      74                            .dwattr $C$DW$8, DW_AT_type(*$C$DW$T$63)
      75                    $C$DW$9 .dwtag  DW_TAG_formal_parameter
      76                            .dwattr $C$DW$9, DW_AT_type(*$C$DW$T$116)
      77                    $C$DW$10        .dwtag  DW_TAG_unspecified_parameters
      78                            .dwendtag $C$DW$7
      79                    
      80                    
      81                    $C$DW$11        .dwtag  DW_TAG_subprogram, DW_AT_name("memset")
      82                            .dwattr $C$DW$11, DW_AT_TI_symbol_name("memset")
      83                            .dwattr $C$DW$11, DW_AT_type(*$C$DW$T$3)
      84                            .dwattr $C$DW$11, DW_AT_declaration
      85                            .dwattr $C$DW$11, DW_AT_external
      86                            .dwattr $C$DW$11, DW_AT_decl_file("C:/VLIB_Tools/CCSV5_4_0/ccsv5/tools/compiler/C6000/include/
      87                            .dwattr $C$DW$11, DW_AT_decl_line(0x5b)
      88                            .dwattr $C$DW$11, DW_AT_decl_column(0x16)
      89                    $C$DW$12        .dwtag  DW_TAG_formal_parameter
      90                            .dwattr $C$DW$12, DW_AT_type(*$C$DW$T$3)
      91                    $C$DW$13        .dwtag  DW_TAG_formal_parameter
      92                            .dwattr $C$DW$13, DW_AT_type(*$C$DW$T$10)
      93                    $C$DW$14        .dwtag  DW_TAG_formal_parameter
      94                            .dwattr $C$DW$14, DW_AT_type(*$C$DW$T$54)
      95                            .dwendtag $C$DW$11
      96                    
      97                    
      98                    $C$DW$15        .dwtag  DW_TAG_subprogram, DW_AT_name("malloc")
      99                            .dwattr $C$DW$15, DW_AT_TI_symbol_name("malloc")
     100                            .dwattr $C$DW$15, DW_AT_type(*$C$DW$T$3)
     101                            .dwattr $C$DW$15, DW_AT_declaration
     102                            .dwattr $C$DW$15, DW_AT_external
     103                            .dwattr $C$DW$15, DW_AT_decl_file("C:/VLIB_Tools/CCSV5_4_0/ccsv5/tools/compiler/C6000/include/
     104                            .dwattr $C$DW$15, DW_AT_decl_line(0x82)
     105                            .dwattr $C$DW$15, DW_AT_decl_column(0x19)
     106                    $C$DW$16        .dwtag  DW_TAG_formal_parameter
     107                            .dwattr $C$DW$16, DW_AT_type(*$C$DW$T$54)
     108                            .dwendtag $C$DW$15
     109                    
     110                    
TMS320C6x Assembler PC v7.4.2 Thu Mar 19 12:42:01 2015

Tools Copyright (c) 1996-2012 Texas Instruments Incorporated
package/lib/Regression/regress_d_c/./../packages/ti/vlib/src/VLIB_houghLineFromList/VLIB_houghLineFromList_d.se66 PAGE    3

     111                    $C$DW$17        .dwtag  DW_TAG_subprogram, DW_AT_name("free")
     112                            .dwattr $C$DW$17, DW_AT_TI_symbol_name("free")
     113                            .dwattr $C$DW$17, DW_AT_declaration
     114                            .dwattr $C$DW$17, DW_AT_external
     115                            .dwattr $C$DW$17, DW_AT_decl_file("C:/VLIB_Tools/CCSV5_4_0/ccsv5/tools/compiler/C6000/include/
     116                            .dwattr $C$DW$17, DW_AT_decl_line(0x86)
     117                            .dwattr $C$DW$17, DW_AT_decl_column(0x19)
     118                    $C$DW$18        .dwtag  DW_TAG_formal_parameter
     119                            .dwattr $C$DW$18, DW_AT_type(*$C$DW$T$3)
     120                            .dwendtag $C$DW$17
     121                    
     122                    
     123                    $C$DW$19        .dwtag  DW_TAG_subprogram, DW_AT_name("memalign")
     124                            .dwattr $C$DW$19, DW_AT_TI_symbol_name("memalign")
     125                            .dwattr $C$DW$19, DW_AT_type(*$C$DW$T$3)
     126                            .dwattr $C$DW$19, DW_AT_declaration
     127                            .dwattr $C$DW$19, DW_AT_external
     128                            .dwattr $C$DW$19, DW_AT_decl_file("C:/VLIB_Tools/CCSV5_4_0/ccsv5/tools/compiler/C6000/include/
     129                            .dwattr $C$DW$19, DW_AT_decl_line(0x87)
     130                            .dwattr $C$DW$19, DW_AT_decl_column(0x19)
     131                    $C$DW$20        .dwtag  DW_TAG_formal_parameter
     132                            .dwattr $C$DW$20, DW_AT_type(*$C$DW$T$54)
     133                    $C$DW$21        .dwtag  DW_TAG_formal_parameter
     134                            .dwattr $C$DW$21, DW_AT_type(*$C$DW$T$54)
     135                            .dwendtag $C$DW$19
     136                    
     137                    
     138                    $C$DW$22        .dwtag  DW_TAG_subprogram, DW_AT_name("sin")
     139                            .dwattr $C$DW$22, DW_AT_TI_symbol_name("sin")
     140                            .dwattr $C$DW$22, DW_AT_type(*$C$DW$T$17)
     141                            .dwattr $C$DW$22, DW_AT_declaration
     142                            .dwattr $C$DW$22, DW_AT_external
     143                            .dwattr $C$DW$22, DW_AT_decl_file("C:/VLIB_Tools/CCSV5_4_0/ccsv5/tools/compiler/C6000/include/
     144                            .dwattr $C$DW$22, DW_AT_decl_line(0x51)
     145                            .dwattr $C$DW$22, DW_AT_decl_column(0x11)
     146                    $C$DW$23        .dwtag  DW_TAG_formal_parameter
     147                            .dwattr $C$DW$23, DW_AT_type(*$C$DW$T$17)
     148                            .dwendtag $C$DW$22
     149                    
     150                    
     151                    $C$DW$24        .dwtag  DW_TAG_subprogram, DW_AT_name("cos")
     152                            .dwattr $C$DW$24, DW_AT_TI_symbol_name("cos")
     153                            .dwattr $C$DW$24, DW_AT_type(*$C$DW$T$17)
     154                            .dwattr $C$DW$24, DW_AT_declaration
     155                            .dwattr $C$DW$24, DW_AT_external
     156                            .dwattr $C$DW$24, DW_AT_decl_file("C:/VLIB_Tools/CCSV5_4_0/ccsv5/tools/compiler/C6000/include/
     157                            .dwattr $C$DW$24, DW_AT_decl_line(0x52)
     158                            .dwattr $C$DW$24, DW_AT_decl_column(0x11)
     159                    $C$DW$25        .dwtag  DW_TAG_formal_parameter
     160                            .dwattr $C$DW$25, DW_AT_type(*$C$DW$T$17)
     161                            .dwendtag $C$DW$24
     162                    
     163                    
     164                    $C$DW$26        .dwtag  DW_TAG_subprogram, DW_AT_name("modf")
     165                            .dwattr $C$DW$26, DW_AT_TI_symbol_name("modf")
TMS320C6x Assembler PC v7.4.2 Thu Mar 19 12:42:01 2015

Tools Copyright (c) 1996-2012 Texas Instruments Incorporated
package/lib/Regression/regress_d_c/./../packages/ti/vlib/src/VLIB_houghLineFromList/VLIB_houghLineFromList_d.se66 PAGE    4

     166                            .dwattr $C$DW$26, DW_AT_type(*$C$DW$T$17)
     167                            .dwattr $C$DW$26, DW_AT_declaration
     168                            .dwattr $C$DW$26, DW_AT_external
     169                            .dwattr $C$DW$26, DW_AT_decl_file("C:/VLIB_Tools/CCSV5_4_0/ccsv5/tools/compiler/C6000/include/
     170                            .dwattr $C$DW$26, DW_AT_decl_line(0x63)
     171                            .dwattr $C$DW$26, DW_AT_decl_column(0x11)
     172                    $C$DW$27        .dwtag  DW_TAG_formal_parameter
     173                            .dwattr $C$DW$27, DW_AT_type(*$C$DW$T$17)
     174                    $C$DW$28        .dwtag  DW_TAG_formal_parameter
     175                            .dwattr $C$DW$28, DW_AT_type(*$C$DW$T$177)
     176                            .dwendtag $C$DW$26
     177                    
     178                    
     179                    $C$DW$29        .dwtag  DW_TAG_subprogram, DW_AT_name("VLIB_cache_inval")
     180                            .dwattr $C$DW$29, DW_AT_TI_symbol_name("VLIB_cache_inval")
     181                            .dwattr $C$DW$29, DW_AT_type(*$C$DW$T$10)
     182                            .dwattr $C$DW$29, DW_AT_declaration
     183                            .dwattr $C$DW$29, DW_AT_external
     184                            .dwattr $C$DW$29, DW_AT_decl_file(".\..\packages\ti\vlib\src\VLIB_houghLineFromList\..\common\
     185                            .dwattr $C$DW$29, DW_AT_decl_line(0x58)
     186                            .dwattr $C$DW$29, DW_AT_decl_column(0x05)
     187                    
     188                    $C$DW$30        .dwtag  DW_TAG_subprogram, DW_AT_name("VLIB_profile_init")
     189                            .dwattr $C$DW$30, DW_AT_TI_symbol_name("VLIB_profile_init")
     190                            .dwattr $C$DW$30, DW_AT_declaration
     191                            .dwattr $C$DW$30, DW_AT_external
     192                            .dwattr $C$DW$30, DW_AT_decl_file(".\..\packages\ti\vlib\src\VLIB_houghLineFromList\..\common\
     193                            .dwattr $C$DW$30, DW_AT_decl_line(0x7b)
     194                            .dwattr $C$DW$30, DW_AT_decl_column(0x06)
     195                    $C$DW$31        .dwtag  DW_TAG_formal_parameter
     196                            .dwattr $C$DW$31, DW_AT_type(*$C$DW$T$10)
     197                    $C$DW$32        .dwtag  DW_TAG_formal_parameter
     198                            .dwattr $C$DW$32, DW_AT_type(*$C$DW$T$63)
     199                            .dwendtag $C$DW$30
     200                    
     201                    
     202                    $C$DW$33        .dwtag  DW_TAG_subprogram, DW_AT_name("VLIB_formula_add_test")
     203                            .dwattr $C$DW$33, DW_AT_TI_symbol_name("VLIB_formula_add_test")
     204                            .dwattr $C$DW$33, DW_AT_declaration
     205                            .dwattr $C$DW$33, DW_AT_external
     206                            .dwattr $C$DW$33, DW_AT_decl_file(".\..\packages\ti\vlib\src\VLIB_houghLineFromList\..\common\
     207                            .dwattr $C$DW$33, DW_AT_decl_line(0x7d)
     208                            .dwattr $C$DW$33, DW_AT_decl_column(0x06)
     209                    $C$DW$34        .dwtag  DW_TAG_formal_parameter
     210                            .dwattr $C$DW$34, DW_AT_type(*$C$DW$T$10)
     211                    $C$DW$35        .dwtag  DW_TAG_formal_parameter
     212                            .dwattr $C$DW$35, DW_AT_type(*$C$DW$T$10)
     213                    $C$DW$36        .dwtag  DW_TAG_formal_parameter
     214                            .dwattr $C$DW$36, DW_AT_type(*$C$DW$T$10)
     215                    $C$DW$37        .dwtag  DW_TAG_formal_parameter
     216                            .dwattr $C$DW$37, DW_AT_type(*$C$DW$T$10)
     217                    $C$DW$38        .dwtag  DW_TAG_formal_parameter
     218                            .dwattr $C$DW$38, DW_AT_type(*$C$DW$T$63)
     219                    $C$DW$39        .dwtag  DW_TAG_formal_parameter
     220                            .dwattr $C$DW$39, DW_AT_type(*$C$DW$T$10)
TMS320C6x Assembler PC v7.4.2 Thu Mar 19 12:42:01 2015

Tools Copyright (c) 1996-2012 Texas Instruments Incorporated
package/lib/Regression/regress_d_c/./../packages/ti/vlib/src/VLIB_houghLineFromList/VLIB_houghLineFromList_d.se66 PAGE    5

     221                            .dwendtag $C$DW$33
     222                    
     223                    
     224                    $C$DW$40        .dwtag  DW_TAG_subprogram, DW_AT_name("VLIB_skip_test")
     225                            .dwattr $C$DW$40, DW_AT_TI_symbol_name("VLIB_skip_test")
     226                            .dwattr $C$DW$40, DW_AT_declaration
     227                            .dwattr $C$DW$40, DW_AT_external
     228                            .dwattr $C$DW$40, DW_AT_decl_file(".\..\packages\ti\vlib\src\VLIB_houghLineFromList\..\common\
     229                            .dwattr $C$DW$40, DW_AT_decl_line(0x7e)
     230                            .dwattr $C$DW$40, DW_AT_decl_column(0x06)
     231                    $C$DW$41        .dwtag  DW_TAG_formal_parameter
     232                            .dwattr $C$DW$41, DW_AT_type(*$C$DW$T$63)
     233                            .dwendtag $C$DW$40
     234                    
     235                    
     236                    $C$DW$42        .dwtag  DW_TAG_subprogram, DW_AT_name("VLIB_profile_cycle_report")
     237                            .dwattr $C$DW$42, DW_AT_TI_symbol_name("VLIB_profile_cycle_report")
     238                            .dwattr $C$DW$42, DW_AT_declaration
     239                            .dwattr $C$DW$42, DW_AT_external
     240                            .dwattr $C$DW$42, DW_AT_decl_file(".\..\packages\ti\vlib\src\VLIB_houghLineFromList\..\common\
     241                            .dwattr $C$DW$42, DW_AT_decl_line(0x7f)
     242                            .dwattr $C$DW$42, DW_AT_decl_column(0x06)
     243                    $C$DW$43        .dwtag  DW_TAG_formal_parameter
     244                            .dwattr $C$DW$43, DW_AT_type(*$C$DW$T$10)
     245                    $C$DW$44        .dwtag  DW_TAG_formal_parameter
     246                            .dwattr $C$DW$44, DW_AT_type(*$C$DW$T$63)
     247                    $C$DW$45        .dwtag  DW_TAG_formal_parameter
     248                            .dwattr $C$DW$45, DW_AT_type(*$C$DW$T$63)
     249                            .dwendtag $C$DW$42
     250                    
     251                    
     252                    $C$DW$46        .dwtag  DW_TAG_subprogram, DW_AT_name("initStack")
     253                            .dwattr $C$DW$46, DW_AT_TI_symbol_name("initStack")
     254                            .dwattr $C$DW$46, DW_AT_declaration
     255                            .dwattr $C$DW$46, DW_AT_external
     256                            .dwattr $C$DW$46, DW_AT_decl_file(".\..\packages\ti\vlib\src\VLIB_houghLineFromList\..\common\
     257                            .dwattr $C$DW$46, DW_AT_decl_line(0x80)
     258                            .dwattr $C$DW$46, DW_AT_decl_column(0x06)
     259                    $C$DW$47        .dwtag  DW_TAG_formal_parameter
     260                            .dwattr $C$DW$47, DW_AT_type(*$C$DW$T$72)
     261                            .dwendtag $C$DW$46
     262                    
     263                    
     264                    $C$DW$48        .dwtag  DW_TAG_subprogram, DW_AT_name("setStackDepth")
     265                            .dwattr $C$DW$48, DW_AT_TI_symbol_name("setStackDepth")
     266                            .dwattr $C$DW$48, DW_AT_declaration
     267                            .dwattr $C$DW$48, DW_AT_external
     268                            .dwattr $C$DW$48, DW_AT_decl_file(".\..\packages\ti\vlib\src\VLIB_houghLineFromList\..\common\
     269                            .dwattr $C$DW$48, DW_AT_decl_line(0x81)
     270                            .dwattr $C$DW$48, DW_AT_decl_column(0x06)
     271                    
     272                    $C$DW$49        .dwtag  DW_TAG_subprogram, DW_AT_name("getSP")
     273                            .dwattr $C$DW$49, DW_AT_TI_symbol_name("getSP")
     274                            .dwattr $C$DW$49, DW_AT_type(*$C$DW$T$72)
     275                            .dwattr $C$DW$49, DW_AT_declaration
TMS320C6x Assembler PC v7.4.2 Thu Mar 19 12:42:01 2015

Tools Copyright (c) 1996-2012 Texas Instruments Incorporated
package/lib/Regression/regress_d_c/./../packages/ti/vlib/src/VLIB_houghLineFromList/VLIB_houghLineFromList_d.se66 PAGE    6

     276                            .dwattr $C$DW$49, DW_AT_external
     277                            .dwattr $C$DW$49, DW_AT_decl_file(".\..\packages\ti\vlib\src\VLIB_houghLineFromList\..\common\
     278                            .dwattr $C$DW$49, DW_AT_decl_line(0x82)
     279                            .dwattr $C$DW$49, DW_AT_decl_column(0x0a)
     280                    
     281                    $C$DW$50        .dwtag  DW_TAG_subprogram, DW_AT_name("VLIB_stack_memory")
     282                            .dwattr $C$DW$50, DW_AT_TI_symbol_name("VLIB_stack_memory")
     283                            .dwattr $C$DW$50, DW_AT_declaration
     284                            .dwattr $C$DW$50, DW_AT_external
     285                            .dwattr $C$DW$50, DW_AT_decl_file(".\..\packages\ti\vlib\src\VLIB_houghLineFromList\..\common\
     286                            .dwattr $C$DW$50, DW_AT_decl_line(0x83)
     287                            .dwattr $C$DW$50, DW_AT_decl_column(0x06)
     288                    
     289                    $C$DW$51        .dwtag  DW_TAG_subprogram, DW_AT_name("VLIB_compare_mem")
     290                            .dwattr $C$DW$51, DW_AT_TI_symbol_name("VLIB_compare_mem")
     291                            .dwattr $C$DW$51, DW_AT_type(*$C$DW$T$30)
     292                            .dwattr $C$DW$51, DW_AT_declaration
     293                            .dwattr $C$DW$51, DW_AT_external
     294                            .dwattr $C$DW$51, DW_AT_decl_file(".\..\packages\ti\vlib\src\VLIB_houghLineFromList\../common/
     295                            .dwattr $C$DW$51, DW_AT_decl_line(0x6f)
     296                            .dwattr $C$DW$51, DW_AT_decl_column(0x11)
     297                    $C$DW$52        .dwtag  DW_TAG_formal_parameter
     298                            .dwattr $C$DW$52, DW_AT_type(*$C$DW$T$53)
     299                    $C$DW$53        .dwtag  DW_TAG_formal_parameter
     300                            .dwattr $C$DW$53, DW_AT_type(*$C$DW$T$53)
     301                    $C$DW$54        .dwtag  DW_TAG_formal_parameter
     302                            .dwattr $C$DW$54, DW_AT_type(*$C$DW$T$30)
     303                            .dwendtag $C$DW$51
     304                    
     305                    
     306                    $C$DW$55        .dwtag  DW_TAG_subprogram, DW_AT_name("VLIB_fillBuffer")
     307                            .dwattr $C$DW$55, DW_AT_TI_symbol_name("VLIB_fillBuffer")
     308                            .dwattr $C$DW$55, DW_AT_declaration
     309                            .dwattr $C$DW$55, DW_AT_external
     310                            .dwattr $C$DW$55, DW_AT_decl_file(".\..\packages\ti\vlib\src\VLIB_houghLineFromList\../common/
     311                            .dwattr $C$DW$55, DW_AT_decl_line(0x77)
     312                            .dwattr $C$DW$55, DW_AT_decl_column(0x06)
     313                    $C$DW$56        .dwtag  DW_TAG_formal_parameter
     314                            .dwattr $C$DW$56, DW_AT_type(*$C$DW$T$19)
     315                    $C$DW$57        .dwtag  DW_TAG_formal_parameter
     316                            .dwattr $C$DW$57, DW_AT_type(*$C$DW$T$19)
     317                    $C$DW$58        .dwtag  DW_TAG_formal_parameter
     318                            .dwattr $C$DW$58, DW_AT_type(*$C$DW$T$3)
     319                    $C$DW$59        .dwtag  DW_TAG_formal_parameter
     320                            .dwattr $C$DW$59, DW_AT_type(*$C$DW$T$3)
     321                    $C$DW$60        .dwtag  DW_TAG_formal_parameter
     322                            .dwattr $C$DW$60, DW_AT_type(*$C$DW$T$20)
     323                    $C$DW$61        .dwtag  DW_TAG_formal_parameter
     324                            .dwattr $C$DW$61, DW_AT_type(*$C$DW$T$20)
     325                    $C$DW$62        .dwtag  DW_TAG_formal_parameter
     326                            .dwattr $C$DW$62, DW_AT_type(*$C$DW$T$20)
     327                    $C$DW$63        .dwtag  DW_TAG_formal_parameter
     328                            .dwattr $C$DW$63, DW_AT_type(*$C$DW$T$19)
     329                    $C$DW$64        .dwtag  DW_TAG_formal_parameter
     330                            .dwattr $C$DW$64, DW_AT_type(*$C$DW$T$63)
TMS320C6x Assembler PC v7.4.2 Thu Mar 19 12:42:01 2015

Tools Copyright (c) 1996-2012 Texas Instruments Incorporated
package/lib/Regression/regress_d_c/./../packages/ti/vlib/src/VLIB_houghLineFromList/VLIB_houghLineFromList_d.se66 PAGE    7

     331                            .dwendtag $C$DW$55
     332                    
     333                    
     334                    $C$DW$65        .dwtag  DW_TAG_subprogram, DW_AT_name("VLIB_memalign")
     335                            .dwattr $C$DW$65, DW_AT_TI_symbol_name("VLIB_memalign")
     336                            .dwattr $C$DW$65, DW_AT_type(*$C$DW$T$3)
     337                            .dwattr $C$DW$65, DW_AT_declaration
     338                            .dwattr $C$DW$65, DW_AT_external
     339                            .dwattr $C$DW$65, DW_AT_decl_file(".\..\packages\ti\vlib\src\VLIB_houghLineFromList\../common/
     340                            .dwattr $C$DW$65, DW_AT_decl_line(0xae)
     341                            .dwattr $C$DW$65, DW_AT_decl_column(0x07)
     342                    $C$DW$66        .dwtag  DW_TAG_formal_parameter
     343                            .dwattr $C$DW$66, DW_AT_type(*$C$DW$T$54)
     344                    $C$DW$67        .dwtag  DW_TAG_formal_parameter
     345                            .dwattr $C$DW$67, DW_AT_type(*$C$DW$T$54)
     346                            .dwendtag $C$DW$65
     347                    
     348                    
     349                    $C$DW$68        .dwtag  DW_TAG_subprogram, DW_AT_name("VLIB_align_free")
     350                            .dwattr $C$DW$68, DW_AT_TI_symbol_name("VLIB_align_free")
     351                            .dwattr $C$DW$68, DW_AT_declaration
     352                            .dwattr $C$DW$68, DW_AT_external
     353                            .dwattr $C$DW$68, DW_AT_decl_file(".\..\packages\ti\vlib\src\VLIB_houghLineFromList\../common/
     354                            .dwattr $C$DW$68, DW_AT_decl_line(0xb3)
     355                            .dwattr $C$DW$68, DW_AT_decl_column(0x07)
     356                    $C$DW$69        .dwtag  DW_TAG_formal_parameter
     357                            .dwattr $C$DW$69, DW_AT_type(*$C$DW$T$3)
     358                            .dwendtag $C$DW$68
     359                    
     360                    
     361                    $C$DW$70        .dwtag  DW_TAG_subprogram, DW_AT_name("VLIB_houghLineFromList")
     362                            .dwattr $C$DW$70, DW_AT_TI_symbol_name("VLIB_houghLineFromList")
     363                            .dwattr $C$DW$70, DW_AT_type(*$C$DW$T$30)
     364                            .dwattr $C$DW$70, DW_AT_declaration
     365                            .dwattr $C$DW$70, DW_AT_external
     366                            .dwattr $C$DW$70, DW_AT_decl_file(".\..\packages\ti\vlib\src\VLIB_houghLineFromList\c66/VLIB_h
     367                            .dwattr $C$DW$70, DW_AT_decl_line(0x84)
     368                            .dwattr $C$DW$70, DW_AT_decl_column(0x09)
     369                    $C$DW$71        .dwtag  DW_TAG_formal_parameter
     370                            .dwattr $C$DW$71, DW_AT_type(*$C$DW$T$113)
     371                    $C$DW$72        .dwtag  DW_TAG_formal_parameter
     372                            .dwattr $C$DW$72, DW_AT_type(*$C$DW$T$110)
     373                    $C$DW$73        .dwtag  DW_TAG_formal_parameter
     374                            .dwattr $C$DW$73, DW_AT_type(*$C$DW$T$20)
     375                    $C$DW$74        .dwtag  DW_TAG_formal_parameter
     376                            .dwattr $C$DW$74, DW_AT_type(*$C$DW$T$20)
     377                    $C$DW$75        .dwtag  DW_TAG_formal_parameter
     378                            .dwattr $C$DW$75, DW_AT_type(*$C$DW$T$72)
     379                    $C$DW$76        .dwtag  DW_TAG_formal_parameter
     380                            .dwattr $C$DW$76, DW_AT_type(*$C$DW$T$20)
     381                    $C$DW$77        .dwtag  DW_TAG_formal_parameter
     382                            .dwattr $C$DW$77, DW_AT_type(*$C$DW$T$20)
     383                    $C$DW$78        .dwtag  DW_TAG_formal_parameter
     384                            .dwattr $C$DW$78, DW_AT_type(*$C$DW$T$106)
     385                    $C$DW$79        .dwtag  DW_TAG_formal_parameter
TMS320C6x Assembler PC v7.4.2 Thu Mar 19 12:42:01 2015

Tools Copyright (c) 1996-2012 Texas Instruments Incorporated
package/lib/Regression/regress_d_c/./../packages/ti/vlib/src/VLIB_houghLineFromList/VLIB_houghLineFromList_d.se66 PAGE    8

     386                            .dwattr $C$DW$79, DW_AT_type(*$C$DW$T$106)
     387                    $C$DW$80        .dwtag  DW_TAG_formal_parameter
     388                            .dwattr $C$DW$80, DW_AT_type(*$C$DW$T$110)
     389                    $C$DW$81        .dwtag  DW_TAG_formal_parameter
     390                            .dwattr $C$DW$81, DW_AT_type(*$C$DW$T$110)
     391                    $C$DW$82        .dwtag  DW_TAG_formal_parameter
     392                            .dwattr $C$DW$82, DW_AT_type(*$C$DW$T$110)
     393                    $C$DW$83        .dwtag  DW_TAG_formal_parameter
     394                            .dwattr $C$DW$83, DW_AT_type(*$C$DW$T$110)
     395                            .dwendtag $C$DW$70
     396                    
     397                    
     398                    $C$DW$84        .dwtag  DW_TAG_subprogram, DW_AT_name("VLIB_houghLineFromList_cn")
     399                            .dwattr $C$DW$84, DW_AT_TI_symbol_name("VLIB_houghLineFromList_cn")
     400                            .dwattr $C$DW$84, DW_AT_type(*$C$DW$T$30)
     401                            .dwattr $C$DW$84, DW_AT_declaration
     402                            .dwattr $C$DW$84, DW_AT_external
     403                            .dwattr $C$DW$84, DW_AT_decl_file(".\..\packages\ti\vlib\src\VLIB_houghLineFromList\VLIB_hough
     404                            .dwattr $C$DW$84, DW_AT_decl_line(0x20)
     405                            .dwattr $C$DW$84, DW_AT_decl_column(0x09)
     406                    $C$DW$85        .dwtag  DW_TAG_formal_parameter
     407                            .dwattr $C$DW$85, DW_AT_type(*$C$DW$T$110)
     408                    $C$DW$86        .dwtag  DW_TAG_formal_parameter
     409                            .dwattr $C$DW$86, DW_AT_type(*$C$DW$T$110)
     410                    $C$DW$87        .dwtag  DW_TAG_formal_parameter
     411                            .dwattr $C$DW$87, DW_AT_type(*$C$DW$T$20)
     412                    $C$DW$88        .dwtag  DW_TAG_formal_parameter
     413                            .dwattr $C$DW$88, DW_AT_type(*$C$DW$T$20)
     414                    $C$DW$89        .dwtag  DW_TAG_formal_parameter
     415                            .dwattr $C$DW$89, DW_AT_type(*$C$DW$T$72)
     416                    $C$DW$90        .dwtag  DW_TAG_formal_parameter
     417                            .dwattr $C$DW$90, DW_AT_type(*$C$DW$T$20)
     418                    $C$DW$91        .dwtag  DW_TAG_formal_parameter
     419                            .dwattr $C$DW$91, DW_AT_type(*$C$DW$T$20)
     420                    $C$DW$92        .dwtag  DW_TAG_formal_parameter
     421                            .dwattr $C$DW$92, DW_AT_type(*$C$DW$T$106)
     422                    $C$DW$93        .dwtag  DW_TAG_formal_parameter
     423                            .dwattr $C$DW$93, DW_AT_type(*$C$DW$T$106)
     424                    $C$DW$94        .dwtag  DW_TAG_formal_parameter
     425                            .dwattr $C$DW$94, DW_AT_type(*$C$DW$T$110)
     426                    $C$DW$95        .dwtag  DW_TAG_formal_parameter
     427                            .dwattr $C$DW$95, DW_AT_type(*$C$DW$T$110)
     428                    $C$DW$96        .dwtag  DW_TAG_formal_parameter
     429                            .dwattr $C$DW$96, DW_AT_type(*$C$DW$T$110)
     430                    $C$DW$97        .dwtag  DW_TAG_formal_parameter
     431                            .dwattr $C$DW$97, DW_AT_type(*$C$DW$T$110)
     432                            .dwendtag $C$DW$84
     433                    
     434                    
     435                    $C$DW$98        .dwtag  DW_TAG_subprogram, DW_AT_name("houghLineFromList_getTestParams")
     436                            .dwattr $C$DW$98, DW_AT_TI_symbol_name("houghLineFromList_getTestParams")
     437                            .dwattr $C$DW$98, DW_AT_declaration
     438                            .dwattr $C$DW$98, DW_AT_external
     439                            .dwattr $C$DW$98, DW_AT_decl_file(".\..\packages\ti\vlib\src\VLIB_houghLineFromList\VLIB_hough
     440                            .dwattr $C$DW$98, DW_AT_decl_line(0x30)
TMS320C6x Assembler PC v7.4.2 Thu Mar 19 12:42:01 2015

Tools Copyright (c) 1996-2012 Texas Instruments Incorporated
package/lib/Regression/regress_d_c/./../packages/ti/vlib/src/VLIB_houghLineFromList/VLIB_houghLineFromList_d.se66 PAGE    9

     441                            .dwattr $C$DW$98, DW_AT_decl_column(0x06)
     442                    $C$DW$99        .dwtag  DW_TAG_formal_parameter
     443                            .dwattr $C$DW$99, DW_AT_type(*$C$DW$T$46)
     444                    $C$DW$100       .dwtag  DW_TAG_formal_parameter
     445                            .dwattr $C$DW$100, DW_AT_type(*$C$DW$T$81)
     446                            .dwendtag $C$DW$98
     447                    
     448                    $C$DW$101       .dwtag  DW_TAG_variable, DW_AT_name("test_cases")
     449                            .dwattr $C$DW$101, DW_AT_TI_symbol_name("test_cases")
     450                            .dwattr $C$DW$101, DW_AT_type(*$C$DW$T$30)
     451                            .dwattr $C$DW$101, DW_AT_declaration
     452                            .dwattr $C$DW$101, DW_AT_external
     453                            .dwattr $C$DW$101, DW_AT_decl_file(".\..\packages\ti\vlib\src\VLIB_houghLineFromList\../common
     454                            .dwattr $C$DW$101, DW_AT_decl_line(0x60)
     455                            .dwattr $C$DW$101, DW_AT_decl_column(0x13)
     456                    $C$DW$102       .dwtag  DW_TAG_variable, DW_AT_name("act_kernel")
     457                            .dwattr $C$DW$102, DW_AT_TI_symbol_name("act_kernel")
     458                            .dwattr $C$DW$102, DW_AT_type(*$C$DW$T$10)
     459                            .dwattr $C$DW$102, DW_AT_declaration
     460                            .dwattr $C$DW$102, DW_AT_external
     461                            .dwattr $C$DW$102, DW_AT_decl_file(".\..\packages\ti\vlib\src\VLIB_houghLineFromList\../common
     462                            .dwattr $C$DW$102, DW_AT_decl_line(0x62)
     463                            .dwattr $C$DW$102, DW_AT_decl_column(0x13)
     464                    $C$DW$103       .dwtag  DW_TAG_variable, DW_AT_name("desc")
     465                            .dwattr $C$DW$103, DW_AT_TI_symbol_name("desc")
     466                            .dwattr $C$DW$103, DW_AT_type(*$C$DW$T$184)
     467                            .dwattr $C$DW$103, DW_AT_declaration
     468                            .dwattr $C$DW$103, DW_AT_external
     469                            .dwattr $C$DW$103, DW_AT_decl_file(".\..\packages\ti\vlib\src\VLIB_houghLineFromList\../common
     470                            .dwattr $C$DW$103, DW_AT_decl_line(0x63)
     471                            .dwattr $C$DW$103, DW_AT_decl_column(0x13)
     472                    $C$DW$104       .dwtag  DW_TAG_variable, DW_AT_name("testPatternString")
     473                            .dwattr $C$DW$104, DW_AT_TI_symbol_name("testPatternString")
     474                            .dwattr $C$DW$104, DW_AT_type(*$C$DW$T$184)
     475                            .dwattr $C$DW$104, DW_AT_declaration
     476                            .dwattr $C$DW$104, DW_AT_external
     477                            .dwattr $C$DW$104, DW_AT_decl_file(".\..\packages\ti\vlib\src\VLIB_houghLineFromList\../common
     478                            .dwattr $C$DW$104, DW_AT_decl_line(0x64)
     479                            .dwattr $C$DW$104, DW_AT_decl_column(0x13)
     480                    $C$DW$105       .dwtag  DW_TAG_variable, DW_AT_name("est_test")
     481                            .dwattr $C$DW$105, DW_AT_TI_symbol_name("est_test")
     482                            .dwattr $C$DW$105, DW_AT_type(*$C$DW$T$10)
     483                            .dwattr $C$DW$105, DW_AT_declaration
     484                            .dwattr $C$DW$105, DW_AT_external
     485                            .dwattr $C$DW$105, DW_AT_decl_file(".\..\packages\ti\vlib\src\VLIB_houghLineFromList\..\common
     486                            .dwattr $C$DW$105, DW_AT_decl_line(0x75)
     487                            .dwattr $C$DW$105, DW_AT_decl_column(0x14)
     488                    $C$DW$106       .dwtag  DW_TAG_variable, DW_AT_name("beg_count")
     489                            .dwattr $C$DW$106, DW_AT_TI_symbol_name("beg_count")
     490                            .dwattr $C$DW$106, DW_AT_type(*$C$DW$T$168)
     491                            .dwattr $C$DW$106, DW_AT_declaration
     492                            .dwattr $C$DW$106, DW_AT_external
     493                            .dwattr $C$DW$106, DW_AT_decl_file(".\..\packages\ti\vlib\src\VLIB_houghLineFromList\..\common
     494                            .dwattr $C$DW$106, DW_AT_decl_line(0x76)
     495                            .dwattr $C$DW$106, DW_AT_decl_column(0x14)
TMS320C6x Assembler PC v7.4.2 Thu Mar 19 12:42:01 2015

Tools Copyright (c) 1996-2012 Texas Instruments Incorporated
package/lib/Regression/regress_d_c/./../packages/ti/vlib/src/VLIB_houghLineFromList/VLIB_houghLineFromList_d.se66 PAGE   10

     496                    $C$DW$107       .dwtag  DW_TAG_variable, DW_AT_name("end_count")
     497                            .dwattr $C$DW$107, DW_AT_TI_symbol_name("end_count")
     498                            .dwattr $C$DW$107, DW_AT_type(*$C$DW$T$168)
     499                            .dwattr $C$DW$107, DW_AT_declaration
     500                            .dwattr $C$DW$107, DW_AT_external
     501                            .dwattr $C$DW$107, DW_AT_decl_file(".\..\packages\ti\vlib\src\VLIB_houghLineFromList\..\common
     502                            .dwattr $C$DW$107, DW_AT_decl_line(0x77)
     503                            .dwattr $C$DW$107, DW_AT_decl_column(0x14)
     504                    $C$DW$108       .dwtag  DW_TAG_variable, DW_AT_name("overhead")
     505                            .dwattr $C$DW$108, DW_AT_TI_symbol_name("overhead")
     506                            .dwattr $C$DW$108, DW_AT_type(*$C$DW$T$168)
     507                            .dwattr $C$DW$108, DW_AT_declaration
     508                            .dwattr $C$DW$108, DW_AT_external
     509                            .dwattr $C$DW$108, DW_AT_decl_file(".\..\packages\ti\vlib\src\VLIB_houghLineFromList\..\common
     510                            .dwattr $C$DW$108, DW_AT_decl_line(0x78)
     511                            .dwattr $C$DW$108, DW_AT_decl_column(0x14)
     512                    $C$DW$109       .dwtag  DW_TAG_variable, DW_AT_name("cycles")
     513                            .dwattr $C$DW$109, DW_AT_TI_symbol_name("cycles")
     514                            .dwattr $C$DW$109, DW_AT_type(*$C$DW$T$169)
     515                            .dwattr $C$DW$109, DW_AT_declaration
     516                            .dwattr $C$DW$109, DW_AT_external
     517                            .dwattr $C$DW$109, DW_AT_decl_file(".\..\packages\ti\vlib\src\VLIB_houghLineFromList\..\common
     518                            .dwattr $C$DW$109, DW_AT_decl_line(0x79)
     519                            .dwattr $C$DW$109, DW_AT_decl_column(0x14)
     520                    ;       C:\VLIB_Tools\CCSV5_4_0\ccsv5\tools\compiler\C6000\bin\opt6x.exe C:\\Users\\gtbldadm\\AppData\
     521 00000000                   .sect   ".text"
     522                            .clink
     523                            .global VLIB_InitializeTrigLUTs
     524                    
     525                    $C$DW$110       .dwtag  DW_TAG_subprogram, DW_AT_name("VLIB_InitializeTrigLUTs")
     526                            .dwattr $C$DW$110, DW_AT_low_pc(VLIB_InitializeTrigLUTs)
     527                            .dwattr $C$DW$110, DW_AT_high_pc(0x00)
     528                            .dwattr $C$DW$110, DW_AT_TI_symbol_name("VLIB_InitializeTrigLUTs")
     529                            .dwattr $C$DW$110, DW_AT_external
     530                            .dwattr $C$DW$110, DW_AT_type(*$C$DW$T$30)
     531                            .dwattr $C$DW$110, DW_AT_TI_begin_file("./../packages/ti/vlib/src/VLIB_houghLineFromList/VLIB_
     532                            .dwattr $C$DW$110, DW_AT_TI_begin_line(0x26)
     533                            .dwattr $C$DW$110, DW_AT_TI_begin_column(0x09)
     534                            .dwattr $C$DW$110, DW_AT_decl_file("./../packages/ti/vlib/src/VLIB_houghLineFromList/VLIB_houg
     535                            .dwattr $C$DW$110, DW_AT_decl_line(0x26)
     536                            .dwattr $C$DW$110, DW_AT_decl_column(0x09)
     537                            .dwattr $C$DW$110, DW_AT_TI_max_frame_size(0x80)
     538                            .dwpsn  file "./../packages/ti/vlib/src/VLIB_houghLineFromList/VLIB_houghLineFromList_d.c",lin
     539                    
     540                            .dwfde $C$DW$CIE, VLIB_InitializeTrigLUTs
     541                    $C$DW$111       .dwtag  DW_TAG_formal_parameter, DW_AT_name("pSin")
     542                            .dwattr $C$DW$111, DW_AT_TI_symbol_name("pSin")
     543                            .dwattr $C$DW$111, DW_AT_type(*$C$DW$T$103)
     544                            .dwattr $C$DW$111, DW_AT_location[DW_OP_reg4]
     545                    $C$DW$112       .dwtag  DW_TAG_formal_parameter, DW_AT_name("pCos")
     546                            .dwattr $C$DW$112, DW_AT_TI_symbol_name("pCos")
     547                            .dwattr $C$DW$112, DW_AT_type(*$C$DW$T$103)
     548                            .dwattr $C$DW$112, DW_AT_location[DW_OP_reg20]
     549                    $C$DW$113       .dwtag  DW_TAG_formal_parameter, DW_AT_name("ThetaMin")
     550                            .dwattr $C$DW$113, DW_AT_TI_symbol_name("ThetaMin")
TMS320C6x Assembler PC v7.4.2 Thu Mar 19 12:42:01 2015

Tools Copyright (c) 1996-2012 Texas Instruments Incorporated
package/lib/Regression/regress_d_c/./../packages/ti/vlib/src/VLIB_houghLineFromList/VLIB_houghLineFromList_d.se66 PAGE   11

     551                            .dwattr $C$DW$113, DW_AT_type(*$C$DW$T$129)
     552                            .dwattr $C$DW$113, DW_AT_location[DW_OP_reg6]
     553                    $C$DW$114       .dwtag  DW_TAG_formal_parameter, DW_AT_name("ThetaMax")
     554                            .dwattr $C$DW$114, DW_AT_TI_symbol_name("ThetaMax")
     555                            .dwattr $C$DW$114, DW_AT_type(*$C$DW$T$129)
     556                            .dwattr $C$DW$114, DW_AT_location[DW_OP_reg22]
     557                    $C$DW$115       .dwtag  DW_TAG_formal_parameter, DW_AT_name("NumThetaPoints")
     558                            .dwattr $C$DW$115, DW_AT_TI_symbol_name("NumThetaPoints")
     559                            .dwattr $C$DW$115, DW_AT_type(*$C$DW$T$129)
     560                            .dwattr $C$DW$115, DW_AT_location[DW_OP_reg8]
     561                    ;----------------------------------------------------------------------
     562                    ;  38 | int32_t VLIB_InitializeTrigLUTs(int16_t *restrict pSin,                
     563                    ;  39 | int16_t *restrict pCos,                                                
     564                    ;  40 | VLIB_F32 ThetaMin,                                                     
     565                    ;  41 | VLIB_F32 ThetaMax,                                                     
     566                    ;  42 | VLIB_F32 NumThetaPoints)                                               
     567                    ;----------------------------------------------------------------------
     568                    
     569                    ;******************************************************************************
     570                    ;* FUNCTION NAME: VLIB_InitializeTrigLUTs                                     *
     571                    ;*                                                                            *
     572                    ;*   Regs Modified     : A0,A1,A2,A3,A4,A5,A6,A7,A8,A9,A10,A11,A12,A13,A14,   *
     573                    ;*                           A15,B0,B1,B2,B3,B4,B5,B6,B7,B8,B9,B10,B11,B12,   *
     574                    ;*                           B13,SP,A16,A17,A18,A19,A20,A21,A22,A23,A24,A25,  *
     575                    ;*                           A26,A27,A28,A29,A30,A31,B16,B17,B18,B19,B20,B21, *
     576                    ;*                           B22,B23,B24,B25,B26,B27,B28,B29,B30,B31          *
     577                    ;*   Regs Used         : A0,A1,A2,A3,A4,A5,A6,A7,A8,A9,A10,A11,A12,A13,A14,   *
     578                    ;*                           A15,B0,B1,B2,B3,B4,B5,B6,B7,B8,B9,B10,B11,B12,   *
     579                    ;*                           B13,DP,SP,A16,A17,A18,A19,A20,A21,A22,A23,A24,   *
     580                    ;*                           A25,A26,A27,A28,A29,A30,A31,B16,B17,B18,B19,B20, *
     581                    ;*                           B21,B22,B23,B24,B25,B26,B27,B28,B29,B30,B31      *
     582                    ;*   Local Frame Size  : 0 Args + 68 Auto + 56 Save = 124 byte                *
     583                    ;******************************************************************************
     584                    
     585                    ;******************************************************************************
     586                    ;*                                                                            *
     587                    ;* Using -g (debug) with optimization (-o3) may disable key optimizations!    *
     588                    ;*                                                                            *
     589                    ;******************************************************************************
     590 00000000           VLIB_InitializeTrigLUTs:
     591                    ;** --------------------------------------------------------------------------*
     592                    ;          EXCLUSIVE CPU CYCLES: 15
     593                    ;** 43  -----------------------    pSin = pSin;
     594                    ;** 43  -----------------------    pCos = pCos;
     595                    ;** 47  -----------------------    if ( NumThetaPoints <= (C$3 = 0.0F) ) goto g10;
     596                            .dwcfi  cfa_offset, 0
     597                    ;----------------------------------------------------------------------
     598                    ;  44 | uint32_t    i;                                                         
     599                    ;  45 | VLIB_F32    Theta;                                                     
     600                    ;----------------------------------------------------------------------
     601 00000000     25f7             STW     .D2T1   A11,*SP--(8)      ; |43| 
     602                            .dwcfi  cfa_offset, 8
     603                            .dwcfi  save_reg_to_mem, 11, 0
     604 00000002     2577             STW     .D2T1   A10,*SP--(8)      ; |43| 
     605                            .dwcfi  cfa_offset, 16
TMS320C6x Assembler PC v7.4.2 Thu Mar 19 12:42:01 2015

Tools Copyright (c) 1996-2012 Texas Instruments Incorporated
package/lib/Regression/regress_d_c/./../packages/ti/vlib/src/VLIB_houghLineFromList/VLIB_houghLineFromList_d.se66 PAGE   12

     606                            .dwcfi  save_reg_to_mem, 10, -8
     607 00000004     9677             STDW    .D2T2   B13:B12,*SP--     ; |43| 
     608                            .dwcfi  cfa_offset, 24
     609                            .dwcfi  save_reg_to_mem, 29, -12
     610                            .dwcfi  save_reg_to_mem, 28, -16
     611 00000006     9577             STDW    .D2T2   B11:B10,*SP--     ; |43| 
     612                            .dwcfi  cfa_offset, 32
     613                            .dwcfi  save_reg_to_mem, 27, -20
     614                            .dwcfi  save_reg_to_mem, 26, -24
     615 00000008     8777             STDW    .D2T1   A15:A14,*SP--     ; |43| 
     616                            .dwcfi  cfa_offset, 40
     617                            .dwcfi  save_reg_to_mem, 15, -28
     618                            .dwcfi  save_reg_to_mem, 14, -32
     619 0000000a     8677             STDW    .D2T1   A13:A12,*SP--     ; |43| 
     620                            .dwcfi  cfa_offset, 48
     621                            .dwcfi  save_reg_to_mem, 13, -36
     622                            .dwcfi  save_reg_to_mem, 12, -40
     623 0000000c 01be94f6             STW     .D2T2   B3,*SP--(80)      ; |43| 
     624                            .dwcfi  cfa_offset, 128
     625                            .dwcfi  save_reg_to_mem, 19, 0
     626                    $C$DW$116       .dwtag  DW_TAG_variable, DW_AT_name("$O$C3")
     627                            .dwattr $C$DW$116, DW_AT_TI_symbol_name("$O$C3")
     628                            .dwattr $C$DW$116, DW_AT_type(*$C$DW$T$16)
     629                            .dwattr $C$DW$116, DW_AT_location[DW_OP_reg5]
     630                    $C$DW$117       .dwtag  DW_TAG_variable, DW_AT_name("x")
     631                            .dwattr $C$DW$117, DW_AT_TI_symbol_name("x")
     632                            .dwattr $C$DW$117, DW_AT_type(*$C$DW$T$17)
     633                            .dwattr $C$DW$117, DW_AT_location[DW_OP_reg4]
     634                    $C$DW$118       .dwtag  DW_TAG_variable, DW_AT_name("y")
     635                            .dwattr $C$DW$118, DW_AT_TI_symbol_name("y")
     636                            .dwattr $C$DW$118, DW_AT_type(*$C$DW$T$17)
     637                            .dwattr $C$DW$118, DW_AT_location[DW_OP_breg31 8]
     638                    $C$DW$119       .dwtag  DW_TAG_variable, DW_AT_name("x")
     639                            .dwattr $C$DW$119, DW_AT_TI_symbol_name("x")
     640                            .dwattr $C$DW$119, DW_AT_type(*$C$DW$T$17)
     641                            .dwattr $C$DW$119, DW_AT_location[DW_OP_reg4]
     642                    $C$DW$120       .dwtag  DW_TAG_variable, DW_AT_name("y")
     643                            .dwattr $C$DW$120, DW_AT_TI_symbol_name("y")
     644                            .dwattr $C$DW$120, DW_AT_type(*$C$DW$T$17)
     645                            .dwattr $C$DW$120, DW_AT_location[DW_OP_breg31 16]
     646                    $C$DW$121       .dwtag  DW_TAG_variable, DW_AT_name("Theta")
     647                            .dwattr $C$DW$121, DW_AT_TI_symbol_name("Theta")
     648                            .dwattr $C$DW$121, DW_AT_type(*$C$DW$T$129)
     649                            .dwattr $C$DW$121, DW_AT_location[DW_OP_reg12]
     650                    $C$DW$122       .dwtag  DW_TAG_variable, DW_AT_name("i")
     651                            .dwattr $C$DW$122, DW_AT_TI_symbol_name("i")
     652                            .dwattr $C$DW$122, DW_AT_type(*$C$DW$T$72)
     653                            .dwattr $C$DW$122, DW_AT_location[DW_OP_reg13]
     654                    $C$DW$123       .dwtag  DW_TAG_variable, DW_AT_name("$O$R2")
     655                            .dwattr $C$DW$123, DW_AT_TI_symbol_name("$O$R2")
     656                            .dwattr $C$DW$123, DW_AT_type(*$C$DW$T$17)
     657                            .dwattr $C$DW$123, DW_AT_location[DW_OP_reg20]
     658                    $C$DW$124       .dwtag  DW_TAG_variable, DW_AT_name("$O$R1")
     659                            .dwattr $C$DW$124, DW_AT_TI_symbol_name("$O$R1")
     660                            .dwattr $C$DW$124, DW_AT_type(*$C$DW$T$17)
TMS320C6x Assembler PC v7.4.2 Thu Mar 19 12:42:01 2015

Tools Copyright (c) 1996-2012 Texas Instruments Incorporated
package/lib/Regression/regress_d_c/./../packages/ti/vlib/src/VLIB_houghLineFromList/VLIB_houghLineFromList_d.se66 PAGE   13

     661                            .dwattr $C$DW$124, DW_AT_location[DW_OP_reg20]
     662                    $C$DW$125       .dwtag  DW_TAG_variable, DW_AT_name("ThetaMin")
     663                            .dwattr $C$DW$125, DW_AT_TI_symbol_name("ThetaMin")
     664                            .dwattr $C$DW$125, DW_AT_type(*$C$DW$T$173)
     665                            .dwattr $C$DW$125, DW_AT_location[DW_OP_reg15]
     666                    $C$DW$126       .dwtag  DW_TAG_variable, DW_AT_name("ThetaMax")
     667                            .dwattr $C$DW$126, DW_AT_TI_symbol_name("ThetaMax")
     668                            .dwattr $C$DW$126, DW_AT_type(*$C$DW$T$173)
     669                            .dwattr $C$DW$126, DW_AT_location[DW_OP_reg3]
     670                    $C$DW$127       .dwtag  DW_TAG_variable, DW_AT_name("NumThetaPoints")
     671                            .dwattr $C$DW$127, DW_AT_TI_symbol_name("NumThetaPoints")
     672                            .dwattr $C$DW$127, DW_AT_type(*$C$DW$T$173)
     673                            .dwattr $C$DW$127, DW_AT_location[DW_OP_reg14]
     674                    $C$DW$128       .dwtag  DW_TAG_variable, DW_AT_name("$O$U49")
     675                            .dwattr $C$DW$128, DW_AT_TI_symbol_name("$O$U49")
     676                            .dwattr $C$DW$128, DW_AT_type(*$C$DW$T$100)
     677                            .dwattr $C$DW$128, DW_AT_location[DW_OP_reg27]
     678                    $C$DW$129       .dwtag  DW_TAG_variable, DW_AT_name("$O$U37")
     679                            .dwattr $C$DW$129, DW_AT_TI_symbol_name("$O$U37")
     680                            .dwattr $C$DW$129, DW_AT_type(*$C$DW$T$100)
     681                            .dwattr $C$DW$129, DW_AT_location[DW_OP_reg26]
     682                    $C$DW$130       .dwtag  DW_TAG_variable, DW_AT_name("$O$U12")
     683                            .dwattr $C$DW$130, DW_AT_TI_symbol_name("$O$U12")
     684                            .dwattr $C$DW$130, DW_AT_type(*$C$DW$T$16)
     685                            .dwattr $C$DW$130, DW_AT_location[DW_OP_reg8]
     686                    $C$DW$131       .dwtag  DW_TAG_variable, DW_AT_name("$O$K13")
     687                            .dwattr $C$DW$131, DW_AT_TI_symbol_name("$O$K13")
     688                            .dwattr $C$DW$131, DW_AT_type(*$C$DW$T$16)
     689                            .dwattr $C$DW$131, DW_AT_location[DW_OP_breg31 24]
     690                    $C$DW$132       .dwtag  DW_TAG_variable, DW_AT_name("$O$K16")
     691                            .dwattr $C$DW$132, DW_AT_TI_symbol_name("$O$K16")
     692                            .dwattr $C$DW$132, DW_AT_type(*$C$DW$T$16)
     693                            .dwattr $C$DW$132, DW_AT_location[DW_OP_breg31 28]
     694                    
     695 00000010 07200fd9             MV      .L1     A8,A14            ; |43| 
     696 00000014     0292  ||         ZERO    .S1     A5                ; |47| 
     697 00000016     07a7  ||         ZERO    .L2     B7
     698 00000018     e756  ||         MV      .D1     A6,A15            ; |43| 
     699 0000001a     b40f  ||         MV      .S2X    A8,B5             ; |43| Define a twin register
     700 00000020     6657  ||         MV      .D2     B4,B11            ; |43| 
     701                    
     702 00000028 0015ce61             CMPGTSP .S1     A14,A5,A0         ; |47| 
     703 00000024 039efd8b  ||         SET     .S2     B7,0x17,0x1d,B7
     704 00000022     7346  ||         MV      .L1X    B6,A3             ; |43| 
     705 00000030 05101fda  ||         MV      .L2X    A4,B10            ; |43| 
     706 0000002c 06800041  ||         ZERO    .D1     A13               ; |47| 
     707                    
     708 00000034 d0a46121     [!A0]   BNOP    .S1     $C$L2,3           ; |47| 
     709 00000038 01bc67b9  ||         FSUBSP  .L1     A3,A15,A3
     710 00000040 021ca7bb  ||         FSUBSP  .L2     B5,B7,B4
     711 00000044 04000040  ||         ZERO    .D1     A8                ; |47| 
     712                    
     713 00000048     fcc5             STW     .D2T2   B4,*+SP(28)
     714 0000004a     ccb5             STW     .D2T1   A3,*+SP(24)
     715                            .dwpsn  file "./../packages/ti/vlib/src/VLIB_houghLineFromList/VLIB_houghLineFromList_d.c",lin
TMS320C6x Assembler PC v7.4.2 Thu Mar 19 12:42:01 2015

Tools Copyright (c) 1996-2012 Texas Instruments Incorporated
package/lib/Regression/regress_d_c/./../packages/ti/vlib/src/VLIB_houghLineFromList/VLIB_houghLineFromList_d.se66 PAGE   14

     716                    ;----------------------------------------------------------------------
     717                    ;  47 | for( i = 0; i < NumThetaPoints; i++ ) {                                
     718                    ;  48 |     Theta = ThetaMin + i * (ThetaMax - ThetaMin) / (NumThetaPoints - 1)
     719                    ;     | ;                                                                      
     720                    ;----------------------------------------------------------------------
     721                               ; BRANCHCC OCCURS {$C$L2}         ; |47| 
     722                    ;** --------------------------------------------------------------------------*
     723                    ;          EXCLUSIVE CPU CYCLES: 9
     724                    ;**     -----------------------    K$13 = ThetaMax-ThetaMin;
     725                    ;**     -----------------------    K$16 = NumThetaPoints-1.0F;
     726                    ;**     -----------------------    U$37 = pSin;
     727                    ;**     -----------------------    U$49 = pCos;
     728                    ;**     -----------------------    U$12 = C$3;
     729                    ;** 47  -----------------------    i = 0u;
     730                    ;**     -----------------------    #pragma LOOP_FLAGS(5120u)
     731                    
     732 0000004c     05a6             ZERO    .L1     A3
     733 0000004e     1a76  ||         ZERO    .D1     A4
     734 00000050 052628a9  ||         MVKL    .S1     0xde4c51,A10
     735 00000058     cdd5  ||         STW     .D2T1   A5,*+SP(56)       ; |50| 
     736 00000054 06201fdb  ||         MV      .L2X    A8,B12            ; |50| 
     737                    
     738 00000060 018ebd89             SET     .S1     A3,0x15,0x1d,A3
     739 0000005a     c686  ||         MV      .L1     A13,A6            ; |50| 
     740 00000064     e696  ||         MV      .D1     A13,A7            ; |50| 
     741 00000066     8dd5  ||         STW     .D2T1   A5,*+SP(48)       ; |50| 
     742                    
     743 00000068 02203869             MVKH    .S1     0x40700000,A4
     744 0000006c     ad35  ||         STW     .D2T1   A3,*+SP(36)       ; |50| 
     745                    
     746 00000070 05ef99a8             MVKL    .S1     0x3f91df33,A11
     747 0000006e     adb5  ||         STW     .D2T1   A3,*+SP(52)       ; |51| 
     748                    
     749 00000078     ed45             STW     .D2T1   A4,*+SP(44)       ; |50| 
     750 00000074 05006f69  ||         MVKH    .S1     0xde4c51,A10
     751                    
     752 0000007a     edc5             STW     .D2T1   A4,*+SP(60)       ; |51| 
     753 00000080 059fc8e8  ||         MVKH    .S1     0x3f91df33,A11
     754                    
     755                            .dwpsn  file "./../packages/ti/vlib/src/VLIB_houghLineFromList/VLIB_houghLineFromList_d.c",lin
     756                    ;----------------------------------------------------------------------
     757                    ;  50 | *(pSin + i) = (int16_t)(floor(256 * sin(Theta * 0.017453) + 0.5));     
     758                    ;----------------------------------------------------------------------
     759 00000084     8d65             STW     .D2T1   A6,*+SP(32)       ; |50| 
     760 00000086     8e65             STW     .D2T1   A6,*+SP(64)       ; |50| 
     761 00000088 03bd42f4             STW     .D2T1   A7,*+SP(40)       ; |50| 
     762                    ;*----------------------------------------------------------------------------*
     763                    ;*   SOFTWARE PIPELINE INFORMATION
     764                    ;*      Disqualified loop: Loop contains a call
     765                    ;*      Disqualified loop: Loop contains non-pipelinable instructions
     766                    ;*      Disqualified loop: Loop contains a call
     767                    ;*      Disqualified loop: Loop contains non-pipelinable instructions
     768                    ;*      Disqualified loop: Loop contains a call
     769                    ;*      Disqualified loop: Loop contains non-pipelinable instructions
     770                    ;*      Disqualified loop: Loop contains a call
TMS320C6x Assembler PC v7.4.2 Thu Mar 19 12:42:01 2015

Tools Copyright (c) 1996-2012 Texas Instruments Incorporated
package/lib/Regression/regress_d_c/./../packages/ti/vlib/src/VLIB_houghLineFromList/VLIB_houghLineFromList_d.se66 PAGE   15

     771                    ;*      Disqualified loop: Loop contains non-pipelinable instructions
     772                    ;*      Disqualified loop: Loop contains a call
     773                    ;*      Disqualified loop: Loop contains non-pipelinable instructions
     774                    ;*----------------------------------------------------------------------------*
     775 0000008c           $C$L1:    
     776                            .dwpsn  file "./../packages/ti/vlib/src/VLIB_houghLineFromList/VLIB_houghLineFromList_d.c",lin
     777 0000008c           $C$DW$L$VLIB_InitializeTrigLUTs$3$B:
     778                    ;          EXCLUSIVE CPU CYCLES: 9
     779                    ;**     -----------------------g3:
     780                    ;** 48  -----------------------    Theta = ThetaMin+U$12*K$13/K$16;
     781                    ;** 50  -----------------------    x = sin(_mpyspdp(Theta, 0.017453))*256.0+0.5;
     782                    ;** 215 -----------------------    if ( modf(x, &y) < 0.0 ) goto g5;  // [10]
     783                    ;** 215 -----------------------    R$2 = y;  // [10]
     784                    ;** 215 -----------------------    goto g6;  // [10]
     785                    ;**     -----------------------g5:
     786                    ;** 215 -----------------------    R$2 = y-1.0;  // [10]
     787                    ;**     -----------------------g6:
     788                    ;** 50  -----------------------    *U$37++ = (short)R$2;
     789                    ;** 51  -----------------------    x = cos(_mpyspdp(Theta, 0.017453))*256.0+0.5;
     790                    ;** 215 -----------------------    if ( modf(x, &y) < 0.0 ) goto g8;  // [10]
     791                    ;** 215 -----------------------    R$1 = y;  // [10]
     792                    ;** 215 -----------------------    goto g9;  // [10]
     793                    ;**     -----------------------g8:
     794                    ;** 215 -----------------------    R$1 = y-1.0;  // [10]
     795                    ;**     -----------------------g9:
     796                    ;** 51  -----------------------    *U$49++ = (short)R$1;
     797                    ;** 47  -----------------------    U$12 = (float)(++i);
     798                    ;** 47  -----------------------    if ( U$12 < NumThetaPoints ) goto g3;
     799 0000008c     ccbd             LDW     .D2T1   *+SP(24),A3
     800                            .dwpsn  file "./../packages/ti/vlib/src/VLIB_houghLineFromList/VLIB_houghLineFromList_d.c",lin
     801 0000008e     fccd             LDW     .D2T2   *+SP(28),B4       ; |48| 
     802 00000090 00000000             NOP             1
     803                    $C$DW$133       .dwtag  DW_TAG_TI_branch
     804                            .dwattr $C$DW$133, DW_AT_low_pc(0x00)
     805                            .dwattr $C$DW$133, DW_AT_name("__c6xabi_divf")
     806                            .dwattr $C$DW$133, DW_AT_TI_call
     807 00000094 00000010!            CALL    .S1     __c6xabi_divf     ; |48| 
     808 00000098 018a0162             ADDKPC  .S2     $C$RL0,B3,0       ; |48| 
     809 000000a0 02206e00             MPYSP   .M1     A3,A8,A4          ; |48| 
     810 000000a4 00004000             NOP             3
     811 000000a8           $C$RL0:    ; CALL OCCURS {__c6xabi_divf} {0}  ; |48| 
     812 000000a8           $C$DW$L$VLIB_InitializeTrigLUTs$3$E:
     813                    ;** --------------------------------------------------------------------------*
     814 000000a8           $C$DW$L$VLIB_InitializeTrigLUTs$4$B:
     815                    ;          EXCLUSIVE CPU CYCLES: 60
     816 000000a8 063c8798             FADDSP  .L1     A4,A15,A12        ; |48| 
     817 000000ac 00002000             NOP             2
     818                            .dwpsn  file "./../packages/ti/vlib/src/VLIB_houghLineFromList/VLIB_houghLineFromList_d.c",lin
     819                    ;----------------------------------------------------------------------
     820                    ;  51 | *(pCos + i) = (int16_t)(floor(256 * cos(Theta * 0.017453) + 0.5));     
     821                    ;  57 | return (0);                                                            
     822                    ;  61 | void VLIB_houghLineFromList_d (uint8_t LevelOfFeedback)                
     823                    ;  63 | int32_t    tpi;  /* test parameter index */                            
     824                    ;  66 | houghLineFromList_testParams_t   *prm;                                 
     825                    ;  68 | houghLineFromList_getTestParams(&prm, &test_cases);                    
TMS320C6x Assembler PC v7.4.2 Thu Mar 19 12:42:01 2015

Tools Copyright (c) 1996-2012 Texas Instruments Incorporated
package/lib/Regression/regress_d_c/./../packages/ti/vlib/src/VLIB_houghLineFromList/VLIB_houghLineFromList_d.se66 PAGE   16

     826                    ;  71 | VLIB_profile_init(2, "VLIB_houghLineFromList");                        
     827                    ;  74 | for( tpi=0; tpi < test_cases; tpi++ ) {                                
     828                    ;  77 | int32_t    status_nat_vs_int = vlib_KERNEL_PASS; /* Test status : Natur
     829                    ;     | al c vs. Optimized */                                                  
     830                    ;  78 | int32_t    status_nat_vs_ref = vlib_KERNEL_PASS; /* Test status : Natur
     831                    ;     | al c vs. Static Reference */                                           
     832                    ;  81 | uint32_t    out_size =   prm[tpi].thetaRange * prm[tpi].rhoMaxLength;  
     833                    ;  84 | uint16_t   *pEdgeMapList       =  (uint16_t *) memalign(8, prm[tpi].lis
     834                    ;     | tSize * 2 * sizeof(uint16_t));                                         
     835                    ;  85 | uint16_t   *pOutHoughSpace     =  (uint16_t *) malloc(out_size * sizeof
     836                    ;     | (uint16_t));                                                           
     837                    ;  86 | uint16_t   *pOutHoughSpace_cn  =  (uint16_t *) malloc(out_size * sizeof
     838                    ;     | (uint16_t));                                                           
     839                    ;  88 | uint16_t   *ping    = (uint16_t *) VLIB_memalign(8, (prm[tpi].rhoMaxLen
     840                    ;     | gth + 4) * sizeof(uint16_t));                                          
     841                    ;  89 | uint16_t   *pong    = (uint16_t *) VLIB_memalign(8, (prm[tpi].rhoMaxLen
     842                    ;     | gth + 4) * sizeof(uint16_t));                                          
     843                    ;  90 | uint16_t   *pang    = (uint16_t *) VLIB_memalign(8, (prm[tpi].rhoMaxLen
     844                    ;     | gth + 4) * sizeof(uint16_t));                                          
     845                    ;  91 | uint16_t   *peng    = (uint16_t *) VLIB_memalign(8, (prm[tpi].rhoMaxLen
     846                    ;     | gth + 4) * sizeof(uint16_t));                                          
     847                    ;  93 | int16_t   *SinLUT  =  (int16_t *) malloc(prm[tpi].thetaRange * sizeof(i
     848                    ;     | nt16_t));                                                              
     849                    ;  94 | int16_t   *CosLUT  =  (int16_t *) malloc(prm[tpi].thetaRange * sizeof(i
     850                    ;     | nt16_t));                                                              
     851                    ;  97 | if( pEdgeMapList && pOutHoughSpace && pOutHoughSpace_cn && ping && pong
     852                    ;     |  && pang && peng && SinLUT && CosLUT ) {                               
     853                    ;  99 |     int32_t    fail = 0;                                               
     854                    ; 102 |     VLIB_fillBuffer(prm[tpi].testPattern,                              
     855                    ; 103 |                     (uint8_t)255,                                      
     856                    ; 104 |                     pEdgeMapList, prm[tpi].staticIn,                   
     857                    ; 105 |                     prm[tpi].listSize * 2, 1, prm[tpi].listSize * 2,   
     858                    ; 106 |                     sizeof(uint16_t), testPatternString);              
     859                    ; 109 |     VLIB_clear_memory(pOutHoughSpace, prm[tpi].thetaRange * prm[tpi].rh
     860                    ;     | oMaxLength * sizeof(uint16_t));                                        
     861                    ; 110 |     VLIB_clear_memory(pOutHoughSpace_cn, prm[tpi].thetaRange * prm[tpi]
     862                    ;     | .rhoMaxLength * sizeof(uint16_t));                                     
     863                    ; 113 |     VLIB_InitializeTrigLUTs(SinLUT, CosLUT, -80, 79.6, prm[tpi].thetaRa
     864                    ;     | nge);                                                                  
     865                    ; 115 |     if( vlib_KERNEL_FAIL == VLIB_compare_mem((void *) prm[tpi].ref_pSIN
     866                    ;     | , (void *)SinLUT, prm[tpi].thetaRange * sizeof(uint16_t))) {           
     867                    ; 116 |         printf("|  %d | FAIL - Error: Sin table initialization failed!\
     868                    ;     | n", tpi);                                                              
     869                    ; 117 |         fail = 1;                                                      
     870                    ; 119 |     if( vlib_KERNEL_FAIL == VLIB_compare_mem((void *) prm[tpi].ref_pCOS
     871                    ;     | , (void *)CosLUT, prm[tpi].thetaRange * sizeof(uint16_t))) {           
     872                    ; 120 |         printf("|  %d | FAIL - Error: Cos table initialization failed!\
     873                    ;     | n", tpi);                                                              
     874                    ; 121 |         fail = 1;                                                      
     875                    ; 124 |     if( fail == 0 ) {                                                  
     876                    ; 126 |         VLIB_profile_start(vlib_KERNEL_OPT);                           
     877                    ; 127 |         VLIB_houghLineFromList(                                        
     878                    ; 128 |             pEdgeMapList,                                              
     879                    ; 129 |             pOutHoughSpace,                                            
     880                    ; 130 |             prm[tpi].outBlkWidth,                                      
TMS320C6x Assembler PC v7.4.2 Thu Mar 19 12:42:01 2015

Tools Copyright (c) 1996-2012 Texas Instruments Incorporated
package/lib/Regression/regress_d_c/./../packages/ti/vlib/src/VLIB_houghLineFromList/VLIB_houghLineFromList_d.se66 PAGE   17

     881                    ; 131 |             prm[tpi].outBlkHeight,                                     
     882                    ; 132 |             prm[tpi].listSize,                                         
     883                    ; 133 |             prm[tpi].thetaRange,                                       
     884                    ; 134 |             prm[tpi].rhoMaxLength,                                     
     885                    ; 135 |             SinLUT,                                                    
     886                    ; 136 |             CosLUT,                                                    
     887                    ; 137 |             ping,                                                      
     888                    ; 138 |             pong,                                                      
     889                    ; 139 |             pang,                                                      
     890                    ; 140 |             peng);                                                     
     891                    ; 141 |         VLIB_profile_stop();                                           
     892                    ; 144 |         VLIB_profile_start(vlib_KERNEL_CN);                            
     893                    ; 145 |         VLIB_houghLineFromList_cn(                                     
     894                    ; 146 |             pEdgeMapList,                                              
     895                    ; 147 |             pOutHoughSpace_cn,                                         
     896                    ; 148 |             prm[tpi].outBlkWidth,                                      
     897                    ; 149 |             prm[tpi].outBlkHeight,                                     
     898                    ; 150 |             prm[tpi].listSize,                                         
     899                    ; 151 |             prm[tpi].thetaRange,                                       
     900                    ; 152 |             prm[tpi].rhoMaxLength,                                     
     901                    ; 153 |             SinLUT,                                                    
     902                    ; 154 |             CosLUT,                                                    
     903                    ; 155 |             ping,                                                      
     904                    ; 156 |             pong,                                                      
     905                    ; 157 |             pang,                                                      
     906                    ; 158 |             peng);                                                     
     907                    ; 159 |         VLIB_profile_stop();                                           
     908                    ; 163 |         status_nat_vs_int = VLIB_compare_mem((void *) pOutHoughSpace, (
     909                    ;     | void *)pOutHoughSpace_cn, out_size * sizeof(uint16_t));                
     910                    ; 166 |         if( prm[tpi].staticOut != NULL ) {                             
     911                    ; 167 |             status_nat_vs_ref = VLIB_compare_mem((void *) prm[tpi].stat
     912                    ;     | icOut, (void *)pOutHoughSpace_cn, out_size * sizeof(uint16_t));        
     913                    ; 171 |         fail = ((status_nat_vs_int == vlib_KERNEL_FAIL) || (status_nat_
     914                    ;     | vs_ref == vlib_KERNEL_FAIL)) ? 1 : 0;                                  
     915                    ; 173 |         est_test=1;                                                    
     916                    ; 176 |         sprintf(desc, "%s generated input | Opt results compared to Nat
     917                    ;     | C results | listSize=%d, thetaRange=%d, rhoMaxLength=%d",              
     918                    ; 177 |                 testPatternString, prm[tpi].listSize, prm[tpi].thetaRan
     919                    ;     | ge, prm[tpi].rhoMaxLength);                                            
     920                    ; 178 |         VLIB_formula_add_test(prm[tpi].listSize * prm[tpi].thetaRange,
     921                    ;     | NULL, NULL, fail, desc, NULL);                                         
     922                    ; 180 | } else {                                                               
     923                    ; 182 |     sprintf(desc, "listSize=%d, thetaRange=%d, rhoMaxLength=%d",       
     924                    ; 183 |             prm[tpi].listSize, prm[tpi].thetaRange, prm[tpi].rhoMaxLeng
     925                    ;     | th);                                                                   
     926                    ; 184 |     VLIB_skip_test(desc);                                              
     927                    ; 188 | free(CosLUT);                                                          
     928                    ; 189 | free(SinLUT);                                                          
     929                    ; 190 | VLIB_align_free(peng);                                                 
     930                    ; 191 | VLIB_align_free(pang);                                                 
     931                    ; 192 | VLIB_align_free(pong);                                                 
     932                    ; 193 | VLIB_align_free(ping);                                                 
     933                    ; 194 | free(pOutHoughSpace_cn);                                               
     934                    ; 195 | free(pOutHoughSpace);                                                  
     935                    ; 196 | align_free(pEdgeMapList);                                              
TMS320C6x Assembler PC v7.4.2 Thu Mar 19 12:42:01 2015

Tools Copyright (c) 1996-2012 Texas Instruments Incorporated
package/lib/Regression/regress_d_c/./../packages/ti/vlib/src/VLIB_houghLineFromList/VLIB_houghLineFromList_d.se66 PAGE   18

     936                    ; 200 | VLIB_profile_cycle_report(vlib_PROFILE_FORMULA_RANGE,                  
     937                    ; 201 |                       "N = listSize * thetaRange",                     
     938                    ; 202 |                       NULL);                                           
     939                    ; 205 | VLIB_kernel_memory();                                                  
     940                    ; 209 | #ifndef __ONESHOTTEST                                                  
     941                    ; 211 | main() {                                                               
     942                    ; 212 | if( VLIB_cache_init()) {                                               
     943                    ; 213 | VLIB_memError("VLIB_houghLineFromList");                               
     944                    ; 214 | } else {                                                               
     945                    ;----------------------------------------------------------------------
     946 000000b0 022985b0             MPYSPDP .M1     A12,A11:A10,A5:A4 ; |50| 
     947                    $C$DW$134       .dwtag  DW_TAG_TI_branch
     948                            .dwattr $C$DW$134, DW_AT_low_pc(0x00)
     949                            .dwattr $C$DW$134, DW_AT_name("sin")
     950                            .dwattr $C$DW$134, DW_AT_TI_call
     951 000000b4 10000012!            CALLP   .S2     sin,B3
     952 000000b8           $C$RL1:    ; CALL OCCURS {sin} {0}           ; |50| 
     953 000000b8 033ca3e4             LDDW    .D2T1   *+SP(40),A7:A6    ; |50| 
     954                            .dwpsn  file "C:/VLIB_Tools/CCSV5_4_0/ccsv5/tools/compiler/C6000/include/math.h",line 215,colu
     955                    ;----------------------------------------------------------------------
     956                    ; 215 | VLIB_houghLineFromList_d(0);                                           
     957                    ;----------------------------------------------------------------------
     958 000000bc 023d005a             ADD     .L2     8,SP,B4           ; |215| 
     959 000000c0 00004000             NOP             3
     960                    
     961 000000c4 0310c3f1             FMPYDP  .M1     A7:A6,A5:A4,A7:A6 ; |50| 
     962 000000c8 023c83e4  ||         LDDW    .D2T1   *+SP(32),A5:A4
     963                    
     964 000000cc 00006000             NOP             4
     965                    $C$DW$135       .dwtag  DW_TAG_TI_branch
     966                            .dwattr $C$DW$135, DW_AT_low_pc(0x00)
     967                            .dwattr $C$DW$135, DW_AT_name("modf")
     968                            .dwattr $C$DW$135, DW_AT_TI_call
     969                    
     970 000000d0 10000013!            CALLP   .S2     modf,B3
     971 000000d4 02188b18  ||         FADDDP  .L1     A5:A4,A7:A6,A5:A4 ; |50| 
     972                    
     973 000000d8           $C$RL2:    ; CALL OCCURS {modf} {0}          ; |215| 
     974                    
     975 000000d8 023c23e7             LDDW    .D2T2   *+SP(8),B5:B4     ; |215| 
     976 000000dc 030004f8  ||         ZERO    .L1     A7:A6             ; |215| 
     977                    
     978 000000e0 00188aa0             CMPLTDP .S1     A5:A4,A7:A6,A0    ; |215| 
     979                            .dwpsn  file "./../packages/ti/vlib/src/VLIB_houghLineFromList/VLIB_houghLineFromList_d.c",lin
     980 000000e4 022985b0             MPYSPDP .M1     A12,A11:A10,A5:A4 ; |51| 
     981 000000e8 c680a35a     [ A0]   ZERO    .L2     B13
     982 000000ec c6b69d8a     [ A0]   SET     .S2     B13,0x14,0x1d,B13
     983                            .dwpsn  file "C:/VLIB_Tools/CCSV5_4_0/ccsv5/tools/compiler/C6000/include/math.h",line 215,colu
     984 000000f0 c2308b3a     [ A0]   FSUBDP  .L2     B5:B4,B13:B12,B5:B4 ; |215| 
     985 000000f4 00002000             NOP             2
     986                            .dwpsn  file "./../packages/ti/vlib/src/VLIB_houghLineFromList/VLIB_houghLineFromList_d.c",lin
     987 000000f8 0214803a             DPTRUNC .L2     B5:B4,B4          ; |50| 
     988 000000fc 00004000             NOP             3
     989                    $C$DW$136       .dwtag  DW_TAG_TI_branch
     990                            .dwattr $C$DW$136, DW_AT_low_pc(0x00)
TMS320C6x Assembler PC v7.4.2 Thu Mar 19 12:42:01 2015

Tools Copyright (c) 1996-2012 Texas Instruments Incorporated
package/lib/Regression/regress_d_c/./../packages/ti/vlib/src/VLIB_houghLineFromList/VLIB_houghLineFromList_d.se66 PAGE   19

     991                            .dwattr $C$DW$136, DW_AT_name("cos")
     992                            .dwattr $C$DW$136, DW_AT_TI_call
     993                    
     994 00000100 10000013!            CALLP   .S2     cos,B3
     995 00000104 022836d6  ||         STH     .D2T2   B4,*B10++         ; |50| 
     996                    
     997                            .dwpsn  file "./../packages/ti/vlib/src/VLIB_houghLineFromList/VLIB_houghLineFromList_d.c",lin
     998 00000108           $C$RL3:    ; CALL OCCURS {cos} {0}           ; |51| 
     999 00000108 033ce3e4             LDDW    .D2T1   *+SP(56),A7:A6    ; |51| 
    1000 0000010c 023c5ec2             ADDAD   .D2     SP,2,B4
    1001 00000110 00004000             NOP             3
    1002                    
    1003 00000114 0310c3f1             FMPYDP  .M1     A7:A6,A5:A4,A7:A6 ; |51| 
    1004 00000118 023cc3e4  ||         LDDW    .D2T1   *+SP(48),A5:A4
    1005                    
    1006 0000011c 00006000             NOP             4
    1007                    $C$DW$137       .dwtag  DW_TAG_TI_branch
    1008                            .dwattr $C$DW$137, DW_AT_low_pc(0x00)
    1009                            .dwattr $C$DW$137, DW_AT_name("modf")
    1010                            .dwattr $C$DW$137, DW_AT_TI_call
    1011                    
    1012 00000120 10000013!            CALLP   .S2     modf,B3
    1013 00000124 02188b18  ||         FADDDP  .L1     A5:A4,A7:A6,A5:A4 ; |51| 
    1014                    
    1015                            .dwpsn  file "C:/VLIB_Tools/CCSV5_4_0/ccsv5/tools/compiler/C6000/include/math.h",line 215,colu
    1016 00000128           $C$RL4:    ; CALL OCCURS {modf} {0}          ; |215| 
    1017 00000128           $C$DW$L$VLIB_InitializeTrigLUTs$4$E:
    1018                    ;** --------------------------------------------------------------------------*
    1019 00000128           $C$DW$L$VLIB_InitializeTrigLUTs$5$B:
    1020                    ;          EXCLUSIVE CPU CYCLES: 19
    1021 00000128 030004f8             ZERO    .L1     A7:A6             ; |215| 
    1022 0000012c 00188aa0             CMPLTDP .S1     A5:A4,A7:A6,A0    ; |215| 
    1023 00000130 023c43e6             LDDW    .D2T2   *+SP(16),B5:B4    ; |215| 
    1024 00000134 c180a358     [ A0]   ZERO    .L1     A3
    1025 00000138 c18e9d88     [ A0]   SET     .S1     A3,0x14,0x1d,A3
    1026 0000013c c1be22f4     [ A0]   STW     .D2T1   A3,*+SP(68)       ; |215| 
    1027 00000140 c23d03e4     [ A0]   LDDW    .D2T1   *+SP(64),A5:A4
    1028                            .dwpsn  file "./../packages/ti/vlib/src/VLIB_houghLineFromList/VLIB_houghLineFromList_d.c",lin
    1029 00000144 06b42058             ADD     .L1     1,A13,A13         ; |47| 
    1030 00000148 04340938             INTSPU  .L1     A13,A8            ; |47| 
    1031 0000014c 00002000             NOP             2
    1032                            .dwpsn  file "C:/VLIB_Tools/CCSV5_4_0/ccsv5/tools/compiler/C6000/include/math.h",line 215,colu
    1033 00000150 c2109b3a     [ A0]   FSUBDP  .L2X    B5:B4,A5:A4,B5:B4 ; |215| 
    1034                            .dwpsn  file "./../packages/ti/vlib/src/VLIB_houghLineFromList/VLIB_houghLineFromList_d.c",lin
    1035 00000154 01390ea0             CMPLTSP .S1     A8,A14,A2         ; |47| 
    1036 00000158 afffe990     [ A2]   B       .S1     $C$L1             ; |47| 
    1037                            .dwpsn  file "./../packages/ti/vlib/src/VLIB_houghLineFromList/VLIB_houghLineFromList_d.c",lin
    1038 0000015c 0214803a             DPTRUNC .L2     B5:B4,B4          ; |51| 
    1039 00000160 00004000             NOP             3
    1040 00000164 022c36d6             STH     .D2T2   B4,*B11++         ; |51| 
    1041                            .dwpsn  file "./../packages/ti/vlib/src/VLIB_houghLineFromList/VLIB_houghLineFromList_d.c",lin
    1042                               ; BRANCHCC OCCURS {$C$L1}         ; |47| 
    1043 00000168           $C$DW$L$VLIB_InitializeTrigLUTs$5$E:
    1044                    ;** --------------------------------------------------------------------------*
    1045 00000168           $C$L2:    
TMS320C6x Assembler PC v7.4.2 Thu Mar 19 12:42:01 2015

Tools Copyright (c) 1996-2012 Texas Instruments Incorporated
package/lib/Regression/regress_d_c/./../packages/ti/vlib/src/VLIB_houghLineFromList/VLIB_houghLineFromList_d.se66 PAGE   20

    1046                    ;          EXCLUSIVE CPU CYCLES: 13
    1047                    ;**     -----------------------g10:
    1048                    ;** 57  -----------------------    return 0;
    1049                    
    1050 00000168 01be92e7             LDW     .D2T2   *++SP(80),B3      ; |58| 
    1051 0000016c     0626  ||         ZERO    .L1     A4                ; |57| 
    1052                    
    1053                            .dwcfi  cfa_offset, 48
    1054                            .dwcfi  restore_reg, 19
    1055 0000016e     c677             LDDW    .D2T1   *++SP,A13:A12
    1056                            .dwcfi  cfa_offset, 40
    1057                            .dwcfi  restore_reg, 13
    1058                            .dwcfi  restore_reg, 12
    1059 00000170     c777             LDDW    .D2T1   *++SP,A15:A14
    1060                            .dwcfi  cfa_offset, 32
    1061                            .dwcfi  restore_reg, 15
    1062                            .dwcfi  restore_reg, 14
    1063 00000172     d577             LDDW    .D2T2   *++SP,B11:B10
    1064                            .dwcfi  cfa_offset, 24
    1065                            .dwcfi  restore_reg, 27
    1066                            .dwcfi  restore_reg, 26
    1067 00000174     d677             LDDW    .D2T2   *++SP,B13:B12
    1068                            .dwcfi  cfa_offset, 16
    1069                            .dwcfi  restore_reg, 29
    1070                            .dwcfi  restore_reg, 28
    1071 00000176     6577             LDW     .D2T1   *++SP(8),A10
    1072                            .dwcfi  cfa_offset, 8
    1073                            .dwcfi  restore_reg, 10
    1074                            .dwpsn  file "./../packages/ti/vlib/src/VLIB_houghLineFromList/VLIB_houghLineFromList_d.c",lin
    1075 00000178     65f7             LDW     .D2T1   *++SP(8),A11      ; |58| 
    1076                            .dwcfi  cfa_offset, 0
    1077                            .dwcfi  restore_reg, 11
    1078                            .dwcfi  cfa_offset, 0
    1079                    $C$DW$138       .dwtag  DW_TAG_TI_branch
    1080                            .dwattr $C$DW$138, DW_AT_low_pc(0x00)
    1081                            .dwattr $C$DW$138, DW_AT_TI_return
    1082 0000017a     a1ef             RETNOP  .S2     B3,5
    1083                               ; BRANCH OCCURS {B3}  
    1084                    
    1085                    $C$DW$139       .dwtag  DW_TAG_TI_loop
    1086                            .dwattr $C$DW$139, DW_AT_name("c:\nightlybuilds\vlib\ti\vlib\vlib\examples\package/lib/Regress
    1087                            .dwattr $C$DW$139, DW_AT_TI_begin_file("./../packages/ti/vlib/src/VLIB_houghLineFromList/VLIB_
    1088                            .dwattr $C$DW$139, DW_AT_TI_begin_line(0x2f)
    1089                            .dwattr $C$DW$139, DW_AT_TI_end_line(0x37)
    1090                    $C$DW$140       .dwtag  DW_TAG_TI_loop_range
    1091                            .dwattr $C$DW$140, DW_AT_low_pc($C$DW$L$VLIB_InitializeTrigLUTs$3$B)
    1092                            .dwattr $C$DW$140, DW_AT_high_pc($C$DW$L$VLIB_InitializeTrigLUTs$3$E)
    1093                    $C$DW$141       .dwtag  DW_TAG_TI_loop_range
    1094                            .dwattr $C$DW$141, DW_AT_low_pc($C$DW$L$VLIB_InitializeTrigLUTs$4$B)
    1095                            .dwattr $C$DW$141, DW_AT_high_pc($C$DW$L$VLIB_InitializeTrigLUTs$4$E)
    1096                    $C$DW$142       .dwtag  DW_TAG_TI_loop_range
    1097                            .dwattr $C$DW$142, DW_AT_low_pc($C$DW$L$VLIB_InitializeTrigLUTs$5$B)
    1098                            .dwattr $C$DW$142, DW_AT_high_pc($C$DW$L$VLIB_InitializeTrigLUTs$5$E)
    1099                            .dwendtag $C$DW$139
    1100                    
TMS320C6x Assembler PC v7.4.2 Thu Mar 19 12:42:01 2015

Tools Copyright (c) 1996-2012 Texas Instruments Incorporated
package/lib/Regression/regress_d_c/./../packages/ti/vlib/src/VLIB_houghLineFromList/VLIB_houghLineFromList_d.se66 PAGE   21

    1101                            .dwattr $C$DW$110, DW_AT_TI_end_file("./../packages/ti/vlib/src/VLIB_houghLineFromList/VLIB_ho
    1102                            .dwattr $C$DW$110, DW_AT_TI_end_line(0x3a)
    1103                            .dwattr $C$DW$110, DW_AT_TI_end_column(0x01)
    1104                            .dwendentry
    1105                            .dwendtag $C$DW$110
    1106                    
    1107 00000180                   .sect   ".text"
    1108                            .clink
    1109                            .global VLIB_houghLineFromList_d
    1110                    
    1111                    $C$DW$143       .dwtag  DW_TAG_subprogram, DW_AT_name("VLIB_houghLineFromList_d")
    1112                            .dwattr $C$DW$143, DW_AT_low_pc(VLIB_houghLineFromList_d)
    1113                            .dwattr $C$DW$143, DW_AT_high_pc(0x00)
    1114                            .dwattr $C$DW$143, DW_AT_TI_symbol_name("VLIB_houghLineFromList_d")
    1115                            .dwattr $C$DW$143, DW_AT_external
    1116                            .dwattr $C$DW$143, DW_AT_TI_begin_file("./../packages/ti/vlib/src/VLIB_houghLineFromList/VLIB_
    1117                            .dwattr $C$DW$143, DW_AT_TI_begin_line(0x3d)
    1118                            .dwattr $C$DW$143, DW_AT_TI_begin_column(0x06)
    1119                            .dwattr $C$DW$143, DW_AT_decl_file("./../packages/ti/vlib/src/VLIB_houghLineFromList/VLIB_houg
    1120                            .dwattr $C$DW$143, DW_AT_decl_line(0x3d)
    1121                            .dwattr $C$DW$143, DW_AT_decl_column(0x06)
    1122                            .dwattr $C$DW$143, DW_AT_TI_max_frame_size(0xc8)
    1123                            .dwpsn  file "./../packages/ti/vlib/src/VLIB_houghLineFromList/VLIB_houghLineFromList_d.c",lin
    1124                    
    1125                            .dwfde $C$DW$CIE, VLIB_houghLineFromList_d
    1126                    $C$DW$144       .dwtag  DW_TAG_formal_parameter, DW_AT_name("LevelOfFeedback")
    1127                            .dwattr $C$DW$144, DW_AT_TI_symbol_name("LevelOfFeedback")
    1128                            .dwattr $C$DW$144, DW_AT_type(*$C$DW$T$19)
    1129                            .dwattr $C$DW$144, DW_AT_location[DW_OP_reg4]
    1130                    ;----------------------------------------------------------------------
    1131                    ;  61 | void VLIB_houghLineFromList_d (uint8_t LevelOfFeedback)                
    1132                    ;----------------------------------------------------------------------
    1133                    
    1134                    ;******************************************************************************
    1135                    ;* FUNCTION NAME: VLIB_houghLineFromList_d                                    *
    1136                    ;*                                                                            *
    1137                    ;*   Regs Modified     : A0,A1,A2,A3,A4,A5,A6,A7,A8,A9,A10,A11,A12,A13,A14,   *
    1138                    ;*                           A15,B0,B1,B2,B3,B4,B5,B6,B7,B8,B9,B10,B11,B12,   *
    1139                    ;*                           B13,SP,A16,A17,A18,A19,A20,A21,A22,A23,A24,A25,  *
    1140                    ;*                           A26,A27,A28,A29,A30,A31,B16,B17,B18,B19,B20,B21, *
    1141                    ;*                           B22,B23,B24,B25,B26,B27,B28,B29,B30,B31          *
    1142                    ;*   Regs Used         : A0,A1,A2,A3,A4,A5,A6,A7,A8,A9,A10,A11,A12,A13,A14,   *
    1143                    ;*                           A15,B0,B1,B2,B3,B4,B5,B6,B7,B8,B9,B10,B11,B12,   *
    1144                    ;*                           B13,DP,SP,A16,A17,A18,A19,A20,A21,A22,A23,A24,   *
    1145                    ;*                           A25,A26,A27,A28,A29,A30,A31,B16,B17,B18,B19,B20, *
    1146                    ;*                           B21,B22,B23,B24,B25,B26,B27,B28,B29,B30,B31      *
    1147                    ;*   Local Frame Size  : 24 Args + 116 Auto + 56 Save = 196 byte              *
    1148                    ;******************************************************************************
    1149                    
    1150                    ;******************************************************************************
    1151                    ;*                                                                            *
    1152                    ;* Using -g (debug) with optimization (-o3) may disable key optimizations!    *
    1153                    ;*                                                                            *
    1154                    ;******************************************************************************
    1155 00000180           VLIB_houghLineFromList_d:
TMS320C6x Assembler PC v7.4.2 Thu Mar 19 12:42:01 2015

Tools Copyright (c) 1996-2012 Texas Instruments Incorporated
package/lib/Regression/regress_d_c/./../packages/ti/vlib/src/VLIB_houghLineFromList/VLIB_houghLineFromList_d.se66 PAGE   22

    1156                    ;** --------------------------------------------------------------------------*
    1157                    ;          EXCLUSIVE CPU CYCLES: 16
    1158                    ;** 68  -----------------------    houghLineFromList_getTestParams(&prm, &test_cases);
    1159                    ;** 71  -----------------------    VLIB_profile_init(2, "VLIB_houghLineFromList");
    1160                    ;** 74  -----------------------    if ( test_cases <= 0 ) goto g26;
    1161                            .dwcfi  cfa_offset, 0
    1162                    ;----------------------------------------------------------------------
    1163                    ;  63 | int32_t    tpi;  /* test parameter index */                            
    1164                    ;  66 | houghLineFromList_testParams_t   *prm;                                 
    1165                    ;----------------------------------------------------------------------
    1166 00000180     25f7             STW     .D2T1   A11,*SP--(8)      ; |62| 
    1167                            .dwcfi  cfa_offset, 8
    1168                            .dwcfi  save_reg_to_mem, 11, 0
    1169 00000182     2577             STW     .D2T1   A10,*SP--(8)      ; |62| 
    1170                            .dwcfi  cfa_offset, 16
    1171                            .dwcfi  save_reg_to_mem, 10, -8
    1172 00000184     9677             STDW    .D2T2   B13:B12,*SP--     ; |62| 
    1173                            .dwcfi  cfa_offset, 24
    1174                            .dwcfi  save_reg_to_mem, 29, -12
    1175                            .dwcfi  save_reg_to_mem, 28, -16
    1176 00000186     9577             STDW    .D2T2   B11:B10,*SP--     ; |62| 
    1177                            .dwcfi  cfa_offset, 32
    1178                            .dwcfi  save_reg_to_mem, 27, -20
    1179                            .dwcfi  save_reg_to_mem, 26, -24
    1180 00000188     8777             STDW    .D2T1   A15:A14,*SP--     ; |62| 
    1181                            .dwcfi  cfa_offset, 40
    1182                            .dwcfi  save_reg_to_mem, 15, -28
    1183                            .dwcfi  save_reg_to_mem, 14, -32
    1184 0000018a     8677             STDW    .D2T1   A13:A12,*SP--     ; |62| 
    1185                            .dwcfi  cfa_offset, 48
    1186                            .dwcfi  save_reg_to_mem, 13, -36
    1187                            .dwcfi  save_reg_to_mem, 12, -40
    1188 0000018c 01bc54f6             STW     .D2T2   B3,*SP--(8)       ; |62| 
    1189                            .dwcfi  cfa_offset, 56
    1190                            .dwcfi  save_reg_to_mem, 19, -48
    1191 00000190 07ffb852             ADDK    .S2     -144,SP           ; |62| 
    1192                            .dwcfi  cfa_offset, 200
    1193                    $C$DW$145       .dwtag  DW_TAG_variable, DW_AT_name("$O$C3")
    1194                            .dwattr $C$DW$145, DW_AT_TI_symbol_name("$O$C3")
    1195                            .dwattr $C$DW$145, DW_AT_type(*$C$DW$T$42)
    1196                            .dwattr $C$DW$145, DW_AT_location[DW_OP_reg3]
    1197                    $C$DW$146       .dwtag  DW_TAG_variable, DW_AT_name("$O$C4")
    1198                            .dwattr $C$DW$146, DW_AT_TI_symbol_name("$O$C4")
    1199                            .dwattr $C$DW$146, DW_AT_type(*$C$DW$T$167)
    1200                            .dwattr $C$DW$146, DW_AT_location[DW_OP_reg8]
    1201                    $C$DW$147       .dwtag  DW_TAG_variable, DW_AT_name("$O$C5")
    1202                            .dwattr $C$DW$147, DW_AT_TI_symbol_name("$O$C5")
    1203                            .dwattr $C$DW$147, DW_AT_type(*$C$DW$T$167)
    1204                            .dwattr $C$DW$147, DW_AT_location[DW_OP_reg13]
    1205                    $C$DW$148       .dwtag  DW_TAG_variable, DW_AT_name("$O$C6")
    1206                            .dwattr $C$DW$148, DW_AT_TI_symbol_name("$O$C6")
    1207                            .dwattr $C$DW$148, DW_AT_type(*$C$DW$T$10)
    1208                            .dwattr $C$DW$148, DW_AT_location[DW_OP_reg3]
    1209                    $C$DW$149       .dwtag  DW_TAG_variable, DW_AT_name("$O$C7")
    1210                            .dwattr $C$DW$149, DW_AT_TI_symbol_name("$O$C7")
TMS320C6x Assembler PC v7.4.2 Thu Mar 19 12:42:01 2015

Tools Copyright (c) 1996-2012 Texas Instruments Incorporated
package/lib/Regression/regress_d_c/./../packages/ti/vlib/src/VLIB_houghLineFromList/VLIB_houghLineFromList_d.se66 PAGE   23

    1211                            .dwattr $C$DW$149, DW_AT_type(*$C$DW$T$42)
    1212                            .dwattr $C$DW$149, DW_AT_location[DW_OP_reg20]
    1213                    $C$DW$150       .dwtag  DW_TAG_variable, DW_AT_name("$O$C8")
    1214                            .dwattr $C$DW$150, DW_AT_TI_symbol_name("$O$C8")
    1215                            .dwattr $C$DW$150, DW_AT_type(*$C$DW$T$9)
    1216                            .dwattr $C$DW$150, DW_AT_location[DW_OP_reg21]
    1217                    $C$DW$151       .dwtag  DW_TAG_variable, DW_AT_name("$O$C9")
    1218                            .dwattr $C$DW$151, DW_AT_TI_symbol_name("$O$C9")
    1219                            .dwattr $C$DW$151, DW_AT_type(*$C$DW$T$11)
    1220                            .dwattr $C$DW$151, DW_AT_location[DW_OP_reg26]
    1221                    $C$DW$152       .dwtag  DW_TAG_variable, DW_AT_name("$O$U12")
    1222                            .dwattr $C$DW$152, DW_AT_TI_symbol_name("$O$U12")
    1223                            .dwattr $C$DW$152, DW_AT_type(*$C$DW$T$42)
    1224                            .dwattr $C$DW$152, DW_AT_location[DW_OP_reg27]
    1225                    $C$DW$153       .dwtag  DW_TAG_variable, DW_AT_name("$O$K59")
    1226                            .dwattr $C$DW$153, DW_AT_TI_symbol_name("$O$K59")
    1227                            .dwattr $C$DW$153, DW_AT_type(*$C$DW$T$85)
    1228                            .dwattr $C$DW$153, DW_AT_location[DW_OP_reg12]
    1229                    $C$DW$154       .dwtag  DW_TAG_variable, DW_AT_name("$O$K65")
    1230                            .dwattr $C$DW$154, DW_AT_TI_symbol_name("$O$K65")
    1231                            .dwattr $C$DW$154, DW_AT_type(*$C$DW$T$10)
    1232                            .dwattr $C$DW$154, DW_AT_location[DW_OP_reg3]
    1233                    $C$DW$155       .dwtag  DW_TAG_variable, DW_AT_name("$O$K74")
    1234                            .dwattr $C$DW$155, DW_AT_TI_symbol_name("$O$K74")
    1235                            .dwattr $C$DW$155, DW_AT_type(*$C$DW$T$16)
    1236                            .dwattr $C$DW$155, DW_AT_location[DW_OP_reg3]
    1237                    $C$DW$156       .dwtag  DW_TAG_variable, DW_AT_name("$O$K84")
    1238                            .dwattr $C$DW$156, DW_AT_TI_symbol_name("$O$K84")
    1239                            .dwattr $C$DW$156, DW_AT_type(*$C$DW$T$16)
    1240                            .dwattr $C$DW$156, DW_AT_location[DW_OP_reg3]
    1241                    $C$DW$157       .dwtag  DW_TAG_variable, DW_AT_name("$O$U82")
    1242                            .dwattr $C$DW$157, DW_AT_TI_symbol_name("$O$U82")
    1243                            .dwattr $C$DW$157, DW_AT_type(*$C$DW$T$16)
    1244                            .dwattr $C$DW$157, DW_AT_location[DW_OP_reg29]
    1245                    $C$DW$158       .dwtag  DW_TAG_variable, DW_AT_name("$O$K79")
    1246                            .dwattr $C$DW$158, DW_AT_TI_symbol_name("$O$K79")
    1247                            .dwattr $C$DW$158, DW_AT_type(*$C$DW$T$16)
    1248                            .dwattr $C$DW$158, DW_AT_location[DW_OP_reg4]
    1249                    $C$DW$159       .dwtag  DW_TAG_variable, DW_AT_name("$O$U78")
    1250                            .dwattr $C$DW$159, DW_AT_TI_symbol_name("$O$U78")
    1251                            .dwattr $C$DW$159, DW_AT_type(*$C$DW$T$16)
    1252                            .dwattr $C$DW$159, DW_AT_location[DW_OP_reg3]
    1253                    $C$DW$160       .dwtag  DW_TAG_variable, DW_AT_name("$O$U103")
    1254                            .dwattr $C$DW$160, DW_AT_TI_symbol_name("$O$U103")
    1255                            .dwattr $C$DW$160, DW_AT_type(*$C$DW$T$100)
    1256                            .dwattr $C$DW$160, DW_AT_location[DW_OP_reg28]
    1257                    $C$DW$161       .dwtag  DW_TAG_variable, DW_AT_name("$O$U115")
    1258                            .dwattr $C$DW$161, DW_AT_TI_symbol_name("$O$U115")
    1259                            .dwattr $C$DW$161, DW_AT_type(*$C$DW$T$100)
    1260                            .dwattr $C$DW$161, DW_AT_location[DW_OP_reg26]
    1261                    $C$DW$162       .dwtag  DW_TAG_variable, DW_AT_name("$O$U11")
    1262                            .dwattr $C$DW$162, DW_AT_TI_symbol_name("$O$U11")
    1263                            .dwattr $C$DW$162, DW_AT_type(*$C$DW$T$10)
    1264                            .dwattr $C$DW$162, DW_AT_location[DW_OP_breg31 48]
    1265                    $C$DW$163       .dwtag  DW_TAG_variable, DW_AT_name("$O$U24")
TMS320C6x Assembler PC v7.4.2 Thu Mar 19 12:42:01 2015

Tools Copyright (c) 1996-2012 Texas Instruments Incorporated
package/lib/Regression/regress_d_c/./../packages/ti/vlib/src/VLIB_houghLineFromList/VLIB_houghLineFromList_d.se66 PAGE   24

    1266                            .dwattr $C$DW$163, DW_AT_TI_symbol_name("$O$U24")
    1267                            .dwattr $C$DW$163, DW_AT_type(*$C$DW$T$11)
    1268                            .dwattr $C$DW$163, DW_AT_location[DW_OP_breg31 52]
    1269                    $C$DW$164       .dwtag  DW_TAG_variable, DW_AT_name("$O$U152")
    1270                            .dwattr $C$DW$164, DW_AT_TI_symbol_name("$O$U152")
    1271                            .dwattr $C$DW$164, DW_AT_type(*$C$DW$T$10)
    1272                            .dwattr $C$DW$164, DW_AT_location[DW_OP_reg11]
    1273                    $C$DW$165       .dwtag  DW_TAG_variable, DW_AT_name("$O$U154")
    1274                            .dwattr $C$DW$165, DW_AT_TI_symbol_name("$O$U154")
    1275                            .dwattr $C$DW$165, DW_AT_type(*$C$DW$T$108)
    1276                            .dwattr $C$DW$165, DW_AT_location[DW_OP_reg16]
    1277                    $C$DW$166       .dwtag  DW_TAG_variable, DW_AT_name("$O$K165")
    1278                            .dwattr $C$DW$166, DW_AT_TI_symbol_name("$O$K165")
    1279                            .dwattr $C$DW$166, DW_AT_type(*$C$DW$T$85)
    1280                            .dwattr $C$DW$166, DW_AT_location[DW_OP_reg8]
    1281                    $C$DW$167       .dwtag  DW_TAG_variable, DW_AT_name("$O$R1")
    1282                            .dwattr $C$DW$167, DW_AT_TI_symbol_name("$O$R1")
    1283                            .dwattr $C$DW$167, DW_AT_type(*$C$DW$T$17)
    1284                            .dwattr $C$DW$167, DW_AT_location[DW_OP_reg20]
    1285                    $C$DW$168       .dwtag  DW_TAG_variable, DW_AT_name("$O$R2")
    1286                            .dwattr $C$DW$168, DW_AT_TI_symbol_name("$O$R2")
    1287                            .dwattr $C$DW$168, DW_AT_type(*$C$DW$T$17)
    1288                            .dwattr $C$DW$168, DW_AT_location[DW_OP_reg20]
    1289                    $C$DW$169       .dwtag  DW_TAG_variable, DW_AT_name("tpi")
    1290                            .dwattr $C$DW$169, DW_AT_TI_symbol_name("tpi")
    1291                            .dwattr $C$DW$169, DW_AT_type(*$C$DW$T$30)
    1292                            .dwattr $C$DW$169, DW_AT_location[DW_OP_reg14]
    1293                    $C$DW$170       .dwtag  DW_TAG_variable, DW_AT_name("prm")
    1294                            .dwattr $C$DW$170, DW_AT_TI_symbol_name("prm")
    1295                            .dwattr $C$DW$170, DW_AT_type(*$C$DW$T$45)
    1296                            .dwattr $C$DW$170, DW_AT_location[DW_OP_breg31 28]
    1297                    $C$DW$171       .dwtag  DW_TAG_variable, DW_AT_name("status_nat_vs_int")
    1298                            .dwattr $C$DW$171, DW_AT_TI_symbol_name("status_nat_vs_int")
    1299                            .dwattr $C$DW$171, DW_AT_type(*$C$DW$T$30)
    1300                            .dwattr $C$DW$171, DW_AT_location[DW_OP_reg10]
    1301                    $C$DW$172       .dwtag  DW_TAG_variable, DW_AT_name("status_nat_vs_ref")
    1302                            .dwattr $C$DW$172, DW_AT_TI_symbol_name("status_nat_vs_ref")
    1303                            .dwattr $C$DW$172, DW_AT_type(*$C$DW$T$30)
    1304                            .dwattr $C$DW$172, DW_AT_location[DW_OP_breg31 56]
    1305                    $C$DW$173       .dwtag  DW_TAG_variable, DW_AT_name("out_size")
    1306                            .dwattr $C$DW$173, DW_AT_TI_symbol_name("out_size")
    1307                            .dwattr $C$DW$173, DW_AT_type(*$C$DW$T$72)
    1308                            .dwattr $C$DW$173, DW_AT_location[DW_OP_reg20]
    1309                    $C$DW$174       .dwtag  DW_TAG_variable, DW_AT_name("pEdgeMapList")
    1310                            .dwattr $C$DW$174, DW_AT_TI_symbol_name("pEdgeMapList")
    1311                            .dwattr $C$DW$174, DW_AT_type(*$C$DW$T$21)
    1312                            .dwattr $C$DW$174, DW_AT_location[DW_OP_breg31 60]
    1313                    $C$DW$175       .dwtag  DW_TAG_variable, DW_AT_name("pOutHoughSpace")
    1314                            .dwattr $C$DW$175, DW_AT_TI_symbol_name("pOutHoughSpace")
    1315                            .dwattr $C$DW$175, DW_AT_type(*$C$DW$T$21)
    1316                            .dwattr $C$DW$175, DW_AT_location[DW_OP_breg31 64]
    1317                    $C$DW$176       .dwtag  DW_TAG_variable, DW_AT_name("pOutHoughSpace_cn")
    1318                            .dwattr $C$DW$176, DW_AT_TI_symbol_name("pOutHoughSpace_cn")
    1319                            .dwattr $C$DW$176, DW_AT_type(*$C$DW$T$21)
    1320                            .dwattr $C$DW$176, DW_AT_location[DW_OP_breg31 68]
TMS320C6x Assembler PC v7.4.2 Thu Mar 19 12:42:01 2015

Tools Copyright (c) 1996-2012 Texas Instruments Incorporated
package/lib/Regression/regress_d_c/./../packages/ti/vlib/src/VLIB_houghLineFromList/VLIB_houghLineFromList_d.se66 PAGE   25

    1321                    $C$DW$177       .dwtag  DW_TAG_variable, DW_AT_name("ping")
    1322                            .dwattr $C$DW$177, DW_AT_TI_symbol_name("ping")
    1323                            .dwattr $C$DW$177, DW_AT_type(*$C$DW$T$21)
    1324                            .dwattr $C$DW$177, DW_AT_location[DW_OP_breg31 72]
    1325                    $C$DW$178       .dwtag  DW_TAG_variable, DW_AT_name("pong")
    1326                            .dwattr $C$DW$178, DW_AT_TI_symbol_name("pong")
    1327                            .dwattr $C$DW$178, DW_AT_type(*$C$DW$T$21)
    1328                            .dwattr $C$DW$178, DW_AT_location[DW_OP_breg31 76]
    1329                    $C$DW$179       .dwtag  DW_TAG_variable, DW_AT_name("pang")
    1330                            .dwattr $C$DW$179, DW_AT_TI_symbol_name("pang")
    1331                            .dwattr $C$DW$179, DW_AT_type(*$C$DW$T$21)
    1332                            .dwattr $C$DW$179, DW_AT_location[DW_OP_breg31 80]
    1333                    $C$DW$180       .dwtag  DW_TAG_variable, DW_AT_name("peng")
    1334                            .dwattr $C$DW$180, DW_AT_TI_symbol_name("peng")
    1335                            .dwattr $C$DW$180, DW_AT_type(*$C$DW$T$21)
    1336                            .dwattr $C$DW$180, DW_AT_location[DW_OP_breg31 84]
    1337                    $C$DW$181       .dwtag  DW_TAG_variable, DW_AT_name("SinLUT")
    1338                            .dwattr $C$DW$181, DW_AT_TI_symbol_name("SinLUT")
    1339                            .dwattr $C$DW$181, DW_AT_type(*$C$DW$T$23)
    1340                            .dwattr $C$DW$181, DW_AT_location[DW_OP_breg31 88]
    1341                    $C$DW$182       .dwtag  DW_TAG_variable, DW_AT_name("CosLUT")
    1342                            .dwattr $C$DW$182, DW_AT_TI_symbol_name("CosLUT")
    1343                            .dwattr $C$DW$182, DW_AT_type(*$C$DW$T$23)
    1344                            .dwattr $C$DW$182, DW_AT_location[DW_OP_breg31 92]
    1345                    $C$DW$183       .dwtag  DW_TAG_variable, DW_AT_name("fail")
    1346                            .dwattr $C$DW$183, DW_AT_TI_symbol_name("fail")
    1347                            .dwattr $C$DW$183, DW_AT_type(*$C$DW$T$30)
    1348                            .dwattr $C$DW$183, DW_AT_location[DW_OP_reg10]
    1349                    $C$DW$184       .dwtag  DW_TAG_variable, DW_AT_name("Theta")
    1350                            .dwattr $C$DW$184, DW_AT_TI_symbol_name("Theta")
    1351                            .dwattr $C$DW$184, DW_AT_type(*$C$DW$T$129)
    1352                            .dwattr $C$DW$184, DW_AT_location[DW_OP_reg12]
    1353                    $C$DW$185       .dwtag  DW_TAG_variable, DW_AT_name("i")
    1354                            .dwattr $C$DW$185, DW_AT_TI_symbol_name("i")
    1355                            .dwattr $C$DW$185, DW_AT_type(*$C$DW$T$72)
    1356                            .dwattr $C$DW$185, DW_AT_location[DW_OP_reg13]
    1357                    $C$DW$186       .dwtag  DW_TAG_variable, DW_AT_name("NumThetaPoints")
    1358                            .dwattr $C$DW$186, DW_AT_TI_symbol_name("NumThetaPoints")
    1359                            .dwattr $C$DW$186, DW_AT_type(*$C$DW$T$129)
    1360                            .dwattr $C$DW$186, DW_AT_location[DW_OP_reg15]
    1361                    $C$DW$187       .dwtag  DW_TAG_variable, DW_AT_name("y")
    1362                            .dwattr $C$DW$187, DW_AT_TI_symbol_name("y")
    1363                            .dwattr $C$DW$187, DW_AT_type(*$C$DW$T$17)
    1364                            .dwattr $C$DW$187, DW_AT_location[DW_OP_breg31 32]
    1365                    $C$DW$188       .dwtag  DW_TAG_variable, DW_AT_name("x")
    1366                            .dwattr $C$DW$188, DW_AT_TI_symbol_name("x")
    1367                            .dwattr $C$DW$188, DW_AT_type(*$C$DW$T$17)
    1368                            .dwattr $C$DW$188, DW_AT_location[DW_OP_reg4]
    1369                    $C$DW$189       .dwtag  DW_TAG_variable, DW_AT_name("y")
    1370                            .dwattr $C$DW$189, DW_AT_TI_symbol_name("y")
    1371                            .dwattr $C$DW$189, DW_AT_type(*$C$DW$T$17)
    1372                            .dwattr $C$DW$189, DW_AT_location[DW_OP_breg31 40]
    1373                    $C$DW$190       .dwtag  DW_TAG_variable, DW_AT_name("x")
    1374                            .dwattr $C$DW$190, DW_AT_TI_symbol_name("x")
    1375                            .dwattr $C$DW$190, DW_AT_type(*$C$DW$T$17)
TMS320C6x Assembler PC v7.4.2 Thu Mar 19 12:42:01 2015

Tools Copyright (c) 1996-2012 Texas Instruments Incorporated
package/lib/Regression/regress_d_c/./../packages/ti/vlib/src/VLIB_houghLineFromList/VLIB_houghLineFromList_d.se66 PAGE   26

    1376                            .dwattr $C$DW$190, DW_AT_location[DW_OP_reg4]
    1377                    $C$DW$191       .dwtag  DW_TAG_variable, DW_AT_name("$O$v1")
    1378                            .dwattr $C$DW$191, DW_AT_TI_symbol_name("$O$v1")
    1379                            .dwattr $C$DW$191, DW_AT_type(*$C$DW$T$45)
    1380                            .dwattr $C$DW$191, DW_AT_location[DW_OP_reg20]
    1381                    $C$DW$192       .dwtag  DW_TAG_variable, DW_AT_name("$O$v1")
    1382                            .dwattr $C$DW$192, DW_AT_TI_symbol_name("$O$v1")
    1383                            .dwattr $C$DW$192, DW_AT_type(*$C$DW$T$45)
    1384                            .dwattr $C$DW$192, DW_AT_location[DW_OP_reg3]
    1385                    $C$DW$193       .dwtag  DW_TAG_variable, DW_AT_name("$O$v2")
    1386                            .dwattr $C$DW$193, DW_AT_TI_symbol_name("$O$v2")
    1387                            .dwattr $C$DW$193, DW_AT_type(*$C$DW$T$168)
    1388                            .dwattr $C$DW$193, DW_AT_location[DW_OP_reg20]
    1389                    $C$DW$194       .dwtag  DW_TAG_variable, DW_AT_name("$O$v2")
    1390                            .dwattr $C$DW$194, DW_AT_TI_symbol_name("$O$v2")
    1391                            .dwattr $C$DW$194, DW_AT_type(*$C$DW$T$168)
    1392                            .dwattr $C$DW$194, DW_AT_location[DW_OP_reg22]
    1393 00000194 0200002a!            MVKL    .S2     test_cases,B4
    1394 00000198 0200006a!            MVKH    .S2     test_cases,B4
    1395                    $C$DW$195       .dwtag  DW_TAG_TI_branch
    1396                            .dwattr $C$DW$195, DW_AT_low_pc(0x00)
    1397                            .dwattr $C$DW$195, DW_AT_name("houghLineFromList_getTestParams")
    1398                            .dwattr $C$DW$195, DW_AT_TI_call
    1399                    
    1400 000001a0 10000013!            CALLP   .S2     houghLineFromList_getTestParams,B3
    1401 000001a4 120007fc  ||         ADDAW   .D1X    SP,7,A4           ; |68| 
    1402                    
    1403                            .dwpsn  file "./../packages/ti/vlib/src/VLIB_houghLineFromList/VLIB_houghLineFromList_d.c",lin
    1404                    ;----------------------------------------------------------------------
    1405                    ;  68 | houghLineFromList_getTestParams(&prm, &test_cases);                    
    1406                    ;----------------------------------------------------------------------
    1407 000001a8           $C$RL5:    ; CALL OCCURS {houghLineFromList_getTestParams} {0}  ; |68| 
    1408                    ;** --------------------------------------------------------------------------*
    1409                    ;          EXCLUSIVE CPU CYCLES: 8
    1410 000001a8 0200002a!            MVKL    .S2     $C$SL1+0,B4
    1411 000001ac 0200006a!            MVKH    .S2     $C$SL1+0,B4
    1412                    $C$DW$196       .dwtag  DW_TAG_TI_branch
    1413                            .dwattr $C$DW$196, DW_AT_low_pc(0x00)
    1414                            .dwattr $C$DW$196, DW_AT_name("VLIB_profile_init")
    1415                            .dwattr $C$DW$196, DW_AT_TI_call
    1416                    
    1417 000001b0 10000013!            CALLP   .S2     VLIB_profile_init,B3
    1418 000001b4 0208a358  ||         MVK     .L1     0x2,A4            ; |71| 
    1419                    
    1420                            .dwpsn  file "./../packages/ti/vlib/src/VLIB_houghLineFromList/VLIB_houghLineFromList_d.c",lin
    1421                    ;----------------------------------------------------------------------
    1422                    ;  71 | VLIB_profile_init(2, "VLIB_houghLineFromList");                        
    1423                    ;----------------------------------------------------------------------
    1424 000001b8           $C$RL6:    ; CALL OCCURS {VLIB_profile_init} {0}  ; |71| 
    1425                    ;** --------------------------------------------------------------------------*
    1426                    ;          EXCLUSIVE CPU CYCLES: 14
    1427 000001b8 01800028!            MVKL    .S1     test_cases,A3
    1428 000001bc 01800068!            MVKH    .S1     test_cases,A3
    1429                            .dwpsn  file "./../packages/ti/vlib/src/VLIB_houghLineFromList/VLIB_houghLineFromList_d.c",lin
    1430                    ;----------------------------------------------------------------------
TMS320C6x Assembler PC v7.4.2 Thu Mar 19 12:42:01 2015

Tools Copyright (c) 1996-2012 Texas Instruments Incorporated
package/lib/Regression/regress_d_c/./../packages/ti/vlib/src/VLIB_houghLineFromList/VLIB_houghLineFromList_d.se66 PAGE   27

    1431                    ;  74 | for( tpi=0; tpi < test_cases; tpi++ ) {                                
    1432                    ;----------------------------------------------------------------------
    1433 000001c0 018c0264             LDW     .D1T1   *A3,A3            ; |74| 
    1434 000001c4 05bce2e6             LDW     .D2T2   *+SP(28),B11
    1435                            .dwpsn  file "./../packages/ti/vlib/src/VLIB_houghLineFromList/VLIB_houghLineFromList_d.c",lin
    1436                    ;----------------------------------------------------------------------
    1437                    ;  77 | int32_t    status_nat_vs_int = vlib_KERNEL_PASS; /* Test status : Natur
    1438                    ;     | al c vs. Optimized */                                                  
    1439                    ;  78 | int32_t    status_nat_vs_ref = vlib_KERNEL_PASS; /* Test status : Natur
    1440                    ;     | al c vs. Static Reference */                                           
    1441                    ;----------------------------------------------------------------------
    1442 000001c8 0700a358             ZERO    .L1     A14               ; |74| 
    1443 000001cc     0627             ZERO    .L2     B4                ; |74| 
    1444 000001ce     9dc5             STW     .D2T2   B4,*+SP(48)
    1445                            .dwpsn  file "./../packages/ti/vlib/src/VLIB_houghLineFromList/VLIB_houghLineFromList_d.c",lin
    1446 000001d0 000c0ad8             CMPGT   .L1     A3,0,A0           ; |74| 
    1447                    
    1448 000001d4 d3b64121     [!A0]   BNOP    .S1     $C$L13,2          ; |74| 
    1449 000001d8 c22d0287  || [ A0]   LDHU    .D2T2   *+B11(16),B4      ; |84| 
    1450 000001e0 c220a358  || [ A0]   MVK     .L1     0x8,A4            ; |84| 
    1451                    
    1452                            .dwpsn  file "./../packages/ti/vlib/src/VLIB_houghLineFromList/VLIB_houghLineFromList_d.c",lin
    1453                    ;----------------------------------------------------------------------
    1454                    ;  81 | uint32_t    out_size =   prm[tpi].thetaRange * prm[tpi].rhoMaxLength;  
    1455                    ;----------------------------------------------------------------------
    1456 000001e4 c62d2286     [ A0]   LDHU    .D2T2   *+B11(18),B12     ; |81| 
    1457 000001e8 c52d4286     [ A0]   LDHU    .D2T2   *+B11(20),B10     ; |81| 
    1458                            .dwpsn  file "./../packages/ti/vlib/src/VLIB_houghLineFromList/VLIB_houghLineFromList_d.c",lin
    1459                    ;----------------------------------------------------------------------
    1460                    ;  84 | uint16_t   *pEdgeMapList       =  (uint16_t *) memalign(8, prm[tpi].lis
    1461                    ;     | tSize * 2 * sizeof(uint16_t));                                         
    1462                    ;----------------------------------------------------------------------
    1463 000001ec 01905ca0             SHL     .S1X    B4,2,A3           ; |84| 
    1464                            .dwpsn  file "./../packages/ti/vlib/src/VLIB_houghLineFromList/VLIB_houghLineFromList_d.c",lin
    1465                               ; BRANCHCC OCCURS {$C$L13}        ; |74| 
    1466                    ;** --------------------------------------------------------------------------*
    1467                    ;**     -----------------------    K$59 = &testPatternString[0];
    1468                    ;**     -----------------------    K$65 = 255;
    1469                    ;**     -----------------------    K$74 = 0.0F;
    1470                    ;**     -----------------------    K$165 = &desc[0];
    1471                    ;**     -----------------------    U$12 = prm;
    1472                    ;**     -----------------------    U$11 = 0;
    1473                    ;** 74  -----------------------    tpi = 0;
    1474                    ;**     -----------------------    #pragma LOOP_FLAGS(5120u)
    1475                    ;** --------------------------------------------------------------------------*
    1476                    ;**   BEGIN LOOP $C$L3
    1477                    ;** --------------------------------------------------------------------------*
    1478 000001f0           $C$L3:    
    1479                            .dwpsn  file "./../packages/ti/vlib/src/VLIB_houghLineFromList/VLIB_houghLineFromList_d.c",lin
    1480 000001f0           $C$DW$L$VLIB_houghLineFromList_d$5$B:
    1481                    ;          EXCLUSIVE CPU CYCLES: 6
    1482                    ;**     -----------------------g3:
    1483                    ;** 81  -----------------------    out_size = _mpyu((*U$12).thetaRange, (*U$12).rhoMaxLength);
    1484                    ;** 84  -----------------------    pEdgeMapList = memalign(8u, (unsigned)((*U$12).listSize*4));
    1485                    ;** 85  -----------------------    C$9 = out_size*2u;
TMS320C6x Assembler PC v7.4.2 Thu Mar 19 12:42:01 2015

Tools Copyright (c) 1996-2012 Texas Instruments Incorporated
package/lib/Regression/regress_d_c/./../packages/ti/vlib/src/VLIB_houghLineFromList/VLIB_houghLineFromList_d.se66 PAGE   28

    1486                    ;** 85  -----------------------    pOutHoughSpace = malloc(C$9);
    1487                    ;** 86  -----------------------    U$24 = C$9;
    1488                    ;** 86  -----------------------    pOutHoughSpace_cn = malloc(U$24);
    1489                    ;** 88  -----------------------    ping = VLIB_memalign(8u, ((unsigned)(*U$12).rhoMaxLength+4u)*2u);
    1490                    ;** 89  -----------------------    pong = VLIB_memalign(8u, ((unsigned)(*U$12).rhoMaxLength+4u)*2u);
    1491                    ;** 90  -----------------------    pang = VLIB_memalign(8u, ((unsigned)(*U$12).rhoMaxLength+4u)*2u);
    1492                    ;** 91  -----------------------    peng = VLIB_memalign(8u, ((unsigned)(*U$12).rhoMaxLength+4u)*2u);
    1493                    ;** 93  -----------------------    SinLUT = malloc((unsigned)(*U$12).thetaRange*2u);
    1494                    ;** 94  -----------------------    CosLUT = malloc((unsigned)(*U$12).thetaRange*2u);
    1495                    ;** 97  -----------------------    if ( !((pEdgeMapList != NULL)&(pOutHoughSpace != NULL)&(pOutHoughSp
    1496                            .dwpsn  file "./../packages/ti/vlib/src/VLIB_houghLineFromList/VLIB_houghLineFromList_d.c",lin
    1497                    $C$DW$197       .dwtag  DW_TAG_TI_branch
    1498                            .dwattr $C$DW$197, DW_AT_low_pc(0x00)
    1499                            .dwattr $C$DW$197, DW_AT_name("memalign")
    1500                            .dwattr $C$DW$197, DW_AT_TI_call
    1501 000001f0 00000010!            CALL    .S1     memalign          ; |84| 
    1502 000001f4 01876162             ADDKPC  .S2     $C$RL7,B3,3       ; |84| 
    1503 000001f8 020c1fda             MV      .L2X    A3,B4             ; |84| 
    1504 000001fc           $C$RL7:    ; CALL OCCURS {memalign} {0}      ; |84| 
    1505 000001fc           $C$DW$L$VLIB_houghLineFromList_d$5$E:
    1506                    ;** --------------------------------------------------------------------------*
    1507 000001fc           $C$DW$L$VLIB_houghLineFromList_d$6$B:
    1508                    ;          EXCLUSIVE CPU CYCLES: 86
    1509                            .dwpsn  file "./../packages/ti/vlib/src/VLIB_houghLineFromList/VLIB_houghLineFromList_d.c",lin
    1510 000001fc 02298f82             MPYU    .M2     B12,B10,B4        ; |81| 
    1511                            .dwpsn  file "./../packages/ti/vlib/src/VLIB_houghLineFromList/VLIB_houghLineFromList_d.c",lin
    1512 00000200 023de2f4             STW     .D2T1   A4,*+SP(60)       ; |84| 
    1513                            .dwpsn  file "./../packages/ti/vlib/src/VLIB_houghLineFromList/VLIB_houghLineFromList_d.c",lin
    1514                    ;----------------------------------------------------------------------
    1515                    ;  85 | uint16_t   *pOutHoughSpace     =  (uint16_t *) malloc(out_size * sizeof
    1516                    ;     | (uint16_t));                                                           
    1517                    ;----------------------------------------------------------------------
    1518 00000204 0510807a             ADD     .L2     B4,B4,B10         ; |85| 
    1519 00000208     0c6e             NOP             1
    1520                    $C$DW$198       .dwtag  DW_TAG_TI_branch
    1521                            .dwattr $C$DW$198, DW_AT_low_pc(0x04)
    1522                            .dwattr $C$DW$198, DW_AT_name("malloc")
    1523                            .dwattr $C$DW$198, DW_AT_TI_call
    1524                    
    1525 0000020a     9506             MV      .L1X    B10,A4            ; |85| 
    1526 0000020c 10000012! ||         CALLP   .S2     malloc,B3
    1527                    
    1528                    $C$RL8:    ; CALL OCCURS {malloc} {0}        ; |85| 
    1529                    $C$DW$199       .dwtag  DW_TAG_TI_branch
    1530                            .dwattr $C$DW$199, DW_AT_low_pc(0x00)
    1531                            .dwattr $C$DW$199, DW_AT_name("malloc")
    1532                            .dwattr $C$DW$199, DW_AT_TI_call
    1533                    
    1534 00000210 10000013!            CALLP   .S2     malloc,B3
    1535 00000214     8e45  ||         STW     .D2T1   A4,*+SP(64)       ; |85| 
    1536 00000216     9506  ||         MV      .L1X    B10,A4            ; |86| 
    1537                    
    1538                            .dwpsn  file "./../packages/ti/vlib/src/VLIB_houghLineFromList/VLIB_houghLineFromList_d.c",lin
    1539                    ;----------------------------------------------------------------------
    1540                    ;  86 | uint16_t   *pOutHoughSpace_cn  =  (uint16_t *) malloc(out_size * sizeof
TMS320C6x Assembler PC v7.4.2 Thu Mar 19 12:42:01 2015

Tools Copyright (c) 1996-2012 Texas Instruments Incorporated
package/lib/Regression/regress_d_c/./../packages/ti/vlib/src/VLIB_houghLineFromList/VLIB_houghLineFromList_d.se66 PAGE   29

    1541                    ;     | (uint16_t));                                                           
    1542                    ;----------------------------------------------------------------------
    1543 00000218           $C$RL9:    ; CALL OCCURS {malloc} {0}        ; |86| 
    1544                            .dwpsn  file "./../packages/ti/vlib/src/VLIB_houghLineFromList/VLIB_houghLineFromList_d.c",lin
    1545                    ;----------------------------------------------------------------------
    1546                    ;  88 | uint16_t   *ping    = (uint16_t *) VLIB_memalign(8, (prm[tpi].rhoMaxLen
    1547                    ;     | gth + 4) * sizeof(uint16_t));                                          
    1548                    ;----------------------------------------------------------------------
    1549 00000218 022d4286             LDHU    .D2T2   *+B11(20),B4      ; |88| 
    1550                            .dwpsn  file "./../packages/ti/vlib/src/VLIB_houghLineFromList/VLIB_houghLineFromList_d.c",lin
    1551 00000220     ae45             STW     .D2T1   A4,*+SP(68)       ; |86| 
    1552                            .dwpsn  file "./../packages/ti/vlib/src/VLIB_houghLineFromList/VLIB_houghLineFromList_d.c",lin
    1553 00000222     0e26             MVK     .L1     0x8,A4            ; |88| 
    1554 00000224     2c6e             NOP             2
    1555 00000226     8641             ADD     .L2     4,B4,B4           ; |88| 
    1556                    $C$DW$200       .dwtag  DW_TAG_TI_branch
    1557                            .dwattr $C$DW$200, DW_AT_low_pc(0x00)
    1558                            .dwattr $C$DW$200, DW_AT_name("VLIB_memalign")
    1559                            .dwattr $C$DW$200, DW_AT_TI_call
    1560                    
    1561 00000228 10000013!            CALLP   .S2     VLIB_memalign,B3
    1562 0000022c 0210807a  ||         ADD     .L2     B4,B4,B4          ; |88| 
    1563                    
    1564 00000230           $C$RL10:   ; CALL OCCURS {VLIB_memalign} {0}  ; |88| 
    1565                            .dwpsn  file "./../packages/ti/vlib/src/VLIB_houghLineFromList/VLIB_houghLineFromList_d.c",lin
    1566                    ;----------------------------------------------------------------------
    1567                    ;  89 | uint16_t   *pong    = (uint16_t *) VLIB_memalign(8, (prm[tpi].rhoMaxLen
    1568                    ;     | gth + 4) * sizeof(uint16_t));                                          
    1569                    ;----------------------------------------------------------------------
    1570 00000230 022d4286             LDHU    .D2T2   *+B11(20),B4      ; |89| 
    1571                            .dwpsn  file "./../packages/ti/vlib/src/VLIB_houghLineFromList/VLIB_houghLineFromList_d.c",lin
    1572 00000234     ce45             STW     .D2T1   A4,*+SP(72)       ; |88| 
    1573                            .dwpsn  file "./../packages/ti/vlib/src/VLIB_houghLineFromList/VLIB_houghLineFromList_d.c",lin
    1574 00000236     0e26             MVK     .L1     0x8,A4            ; |89| 
    1575 00000238     2c6e             NOP             2
    1576 0000023a     8641             ADD     .L2     4,B4,B4           ; |89| 
    1577                    $C$DW$201       .dwtag  DW_TAG_TI_branch
    1578                            .dwattr $C$DW$201, DW_AT_low_pc(0x00)
    1579                            .dwattr $C$DW$201, DW_AT_name("VLIB_memalign")
    1580                            .dwattr $C$DW$201, DW_AT_TI_call
    1581                    
    1582 00000240 10000013!            CALLP   .S2     VLIB_memalign,B3
    1583 00000244 0210807a  ||         ADD     .L2     B4,B4,B4          ; |89| 
    1584                    
    1585 00000248           $C$RL11:   ; CALL OCCURS {VLIB_memalign} {0}  ; |89| 
    1586                            .dwpsn  file "./../packages/ti/vlib/src/VLIB_houghLineFromList/VLIB_houghLineFromList_d.c",lin
    1587                    ;----------------------------------------------------------------------
    1588                    ;  90 | uint16_t   *pang    = (uint16_t *) VLIB_memalign(8, (prm[tpi].rhoMaxLen
    1589                    ;     | gth + 4) * sizeof(uint16_t));                                          
    1590                    ;----------------------------------------------------------------------
    1591 00000248 022d4286             LDHU    .D2T2   *+B11(20),B4      ; |90| 
    1592                            .dwpsn  file "./../packages/ti/vlib/src/VLIB_houghLineFromList/VLIB_houghLineFromList_d.c",lin
    1593 0000024c     ee45             STW     .D2T1   A4,*+SP(76)       ; |89| 
    1594                            .dwpsn  file "./../packages/ti/vlib/src/VLIB_houghLineFromList/VLIB_houghLineFromList_d.c",lin
    1595 0000024e     0e26             MVK     .L1     0x8,A4            ; |90| 
TMS320C6x Assembler PC v7.4.2 Thu Mar 19 12:42:01 2015

Tools Copyright (c) 1996-2012 Texas Instruments Incorporated
package/lib/Regression/regress_d_c/./../packages/ti/vlib/src/VLIB_houghLineFromList/VLIB_houghLineFromList_d.se66 PAGE   30

    1596 00000250     2c6e             NOP             2
    1597 00000252     8641             ADD     .L2     4,B4,B4           ; |90| 
    1598                    $C$DW$202       .dwtag  DW_TAG_TI_branch
    1599                            .dwattr $C$DW$202, DW_AT_low_pc(0x00)
    1600                            .dwattr $C$DW$202, DW_AT_name("VLIB_memalign")
    1601                            .dwattr $C$DW$202, DW_AT_TI_call
    1602                    
    1603 00000254 10000013!            CALLP   .S2     VLIB_memalign,B3
    1604 00000258 0210807a  ||         ADD     .L2     B4,B4,B4          ; |90| 
    1605                    
    1606 00000260           $C$RL12:   ; CALL OCCURS {VLIB_memalign} {0}  ; |90| 
    1607                            .dwpsn  file "./../packages/ti/vlib/src/VLIB_houghLineFromList/VLIB_houghLineFromList_d.c",lin
    1608                    ;----------------------------------------------------------------------
    1609                    ;  91 | uint16_t   *peng    = (uint16_t *) VLIB_memalign(8, (prm[tpi].rhoMaxLen
    1610                    ;     | gth + 4) * sizeof(uint16_t));                                          
    1611                    ;----------------------------------------------------------------------
    1612 00000260 022d4286             LDHU    .D2T2   *+B11(20),B4      ; |91| 
    1613                            .dwpsn  file "./../packages/ti/vlib/src/VLIB_houghLineFromList/VLIB_houghLineFromList_d.c",lin
    1614 00000264     8ec5             STW     .D2T1   A4,*+SP(80)       ; |90| 
    1615                            .dwpsn  file "./../packages/ti/vlib/src/VLIB_houghLineFromList/VLIB_houghLineFromList_d.c",lin
    1616 00000266     0e26             MVK     .L1     0x8,A4            ; |91| 
    1617 00000268     2c6e             NOP             2
    1618 0000026a     8641             ADD     .L2     4,B4,B4           ; |91| 
    1619                    $C$DW$203       .dwtag  DW_TAG_TI_branch
    1620                            .dwattr $C$DW$203, DW_AT_low_pc(0x00)
    1621                            .dwattr $C$DW$203, DW_AT_name("VLIB_memalign")
    1622                            .dwattr $C$DW$203, DW_AT_TI_call
    1623                    
    1624 0000026c 10000013!            CALLP   .S2     VLIB_memalign,B3
    1625 00000270 0210807a  ||         ADD     .L2     B4,B4,B4          ; |91| 
    1626                    
    1627 00000274           $C$RL13:   ; CALL OCCURS {VLIB_memalign} {0}  ; |91| 
    1628                            .dwpsn  file "./../packages/ti/vlib/src/VLIB_houghLineFromList/VLIB_houghLineFromList_d.c",lin
    1629                    ;----------------------------------------------------------------------
    1630                    ;  93 | int16_t   *SinLUT  =  (int16_t *) malloc(prm[tpi].thetaRange * sizeof(i
    1631                    ;     | nt16_t));                                                              
    1632                    ;----------------------------------------------------------------------
    1633 00000274 01ad2284             LDHU    .D2T1   *+B11(18),A3      ; |93| 
    1634                            .dwpsn  file "./../packages/ti/vlib/src/VLIB_houghLineFromList/VLIB_houghLineFromList_d.c",lin
    1635 00000278     aec5             STW     .D2T1   A4,*+SP(84)       ; |91| 
    1636 0000027a     4c6e             NOP             3
    1637                    $C$DW$204       .dwtag  DW_TAG_TI_branch
    1638                            .dwattr $C$DW$204, DW_AT_low_pc(0x04)
    1639                            .dwattr $C$DW$204, DW_AT_name("malloc")
    1640                            .dwattr $C$DW$204, DW_AT_TI_call
    1641                    
    1642 00000284 020c6078             ADD     .L1     A3,A3,A4          ; |93| 
    1643 00000280 10000013! ||         CALLP   .S2     malloc,B3
    1644                    
    1645                            .dwpsn  file "./../packages/ti/vlib/src/VLIB_houghLineFromList/VLIB_houghLineFromList_d.c",lin
    1646 00000288           $C$RL14:   ; CALL OCCURS {malloc} {0}        ; |93| 
    1647                            .dwpsn  file "./../packages/ti/vlib/src/VLIB_houghLineFromList/VLIB_houghLineFromList_d.c",lin
    1648                    ;----------------------------------------------------------------------
    1649                    ;  94 | int16_t   *CosLUT  =  (int16_t *) malloc(prm[tpi].thetaRange * sizeof(i
    1650                    ;     | nt16_t));                                                              
TMS320C6x Assembler PC v7.4.2 Thu Mar 19 12:42:01 2015

Tools Copyright (c) 1996-2012 Texas Instruments Incorporated
package/lib/Regression/regress_d_c/./../packages/ti/vlib/src/VLIB_houghLineFromList/VLIB_houghLineFromList_d.se66 PAGE   31

    1651                    ;----------------------------------------------------------------------
    1652 00000288 01ad2284             LDHU    .D2T1   *+B11(18),A3      ; |94| 
    1653                            .dwpsn  file "./../packages/ti/vlib/src/VLIB_houghLineFromList/VLIB_houghLineFromList_d.c",lin
    1654 0000028c     cec5             STW     .D2T1   A4,*+SP(88)       ; |93| 
    1655 0000028e     4c6e             NOP             3
    1656                    $C$DW$205       .dwtag  DW_TAG_TI_branch
    1657                            .dwattr $C$DW$205, DW_AT_low_pc(0x04)
    1658                            .dwattr $C$DW$205, DW_AT_name("malloc")
    1659                            .dwattr $C$DW$205, DW_AT_TI_call
    1660                    
    1661 00000294     61c0             ADD     .L1     A3,A3,A4          ; |94| 
    1662 00000290 10000013! ||         CALLP   .S2     malloc,B3
    1663                    
    1664                            .dwpsn  file "./../packages/ti/vlib/src/VLIB_houghLineFromList/VLIB_houghLineFromList_d.c",lin
    1665 000002a0           $C$RL15:   ; CALL OCCURS {malloc} {0}        ; |94| 
    1666 000002a0           $C$DW$L$VLIB_houghLineFromList_d$6$E:
    1667                    ;** --------------------------------------------------------------------------*
    1668 000002a0           $C$DW$L$VLIB_houghLineFromList_d$7$B:
    1669                    ;          EXCLUSIVE CPU CYCLES: 24
    1670                    
    1671 000002a0     ae2d             LDW     .D2T1   *+SP(68),A2       ; |97| 
    1672 000002a2     05a6  ||         ZERO    .L1     A3                ; |97| 
    1673 000002a4     0627  ||         ZERO    .L2     B4                ; |97| 
    1674 000002a6     0293  ||         ZERO    .S2     B5                ; |97| 
    1675                    
    1676                            .dwpsn  file "./../packages/ti/vlib/src/VLIB_houghLineFromList/VLIB_houghLineFromList_d.c",lin
    1677                    ;----------------------------------------------------------------------
    1678                    ;  97 | if( pEdgeMapList && pOutHoughSpace && pOutHoughSpace_cn && ping && pong
    1679                    ;     |  && pang && peng && SinLUT && CosLUT ) {                               
    1680                    ;  99 |     int32_t    fail = 0;                                               
    1681                    ;----------------------------------------------------------------------
    1682 000002a8     ed8d             LDW     .D2T1   *+SP(60),A0       ; |97| 
    1683 000002aa     9e0d             LDW     .D2T2   *+SP(64),B0       ; |97| 
    1684 000002ac     ce1d             LDW     .D2T1   *+SP(72),A1       ; |97| 
    1685 000002ae     9ead             LDW     .D2T2   *+SP(80),B2       ; |97| 
    1686                    
    1687 000002b0 a184a359     [ A2]   MVK     .L1     0x1,A3            ; |97| 
    1688 000002b4     ee2d  ||         LDW     .D2T1   *+SP(76),A2       ; |97| 
    1689                    
    1690 000002b6     2ae7     [ A0]   MVK     .L2     0x1,B5            ; |97| 
    1691 000002b8     eec5  ||         STW     .D2T1   A4,*+SP(92)       ; |94| 
    1692 000002ba     0626  ||         ZERO    .L1     A4                ; |97| 
    1693                    
    1694 000002c0     aa67     [ B0]   MVK     .L2     0x1,B4            ; |97| 
    1695 000002c2     de9d  ||         LDW     .D2T2   *+SP(88),B1       ; |97| 
    1696                    
    1697 000002c8 02148f7b             AND     .L2     B4,B5,B4          ; |97| 
    1698 000002cc 8204a358  || [ A1]   MVK     .L1     0x1,A4            ; |97| 
    1699 000002c4     ae9d  ||         LDW     .D2T1   *+SP(84),A1       ; |97| 
    1700 000002c6     0293  ||         ZERO    .S2     B5                ; |97| 
    1701                    
    1702 000002d0 6284a35b     [ B2]   MVK     .L2     0x1,B5            ; |97| 
    1703 000002d4 053da2f6  ||         STW     .D2T2   B10,*+SP(52)      ; |86| 
    1704                    
    1705 000002d8 02907f79             AND     .L1X    A3,B4,A5          ; |97| 
TMS320C6x Assembler PC v7.4.2 Thu Mar 19 12:42:01 2015

Tools Copyright (c) 1996-2012 Texas Instruments Incorporated
package/lib/Regression/regress_d_c/./../packages/ti/vlib/src/VLIB_houghLineFromList/VLIB_houghLineFromList_d.se66 PAGE   32

    1706 000002e0     0192  ||         ZERO    .S1     A3                ; |97| 
    1707 000002e2     0627  ||         ZERO    .L2     B4                ; |97| 
    1708                    
    1709 000002e4 a184a359     [ A2]   MVK     .L1     0x1,A3            ; |97| 
    1710 000002ec     eead  ||         LDW     .D2T1   *+SP(92),A2       ; |97| 
    1711 000002e8 021487e1  ||         AND     .S1     A4,A5,A4          ; |97| 
    1712                    
    1713 000002f0 02106f79             AND     .L1     A3,A4,A4          ; |97| 
    1714 000002ee     0192  ||         ZERO    .S1     A3                ; |97| 
    1715 000002f4 4204a35a  || [ B1]   MVK     .L2     0x1,B4            ; |97| 
    1716                    
    1717 000002f8 8184a359     [ A1]   MVK     .L1     0x1,A3            ; |97| 
    1718 00000300 021497e0  ||         AND     .S1X    B5,A4,A4          ; |97| 
    1719                    
    1720 00000304 02106f79             AND     .L1     A3,A4,A4          ; |97| 
    1721 00000308 01800028  ||         ZERO    .S1     A3                ; |97| 
    1722                    
    1723 0000030c 02109f78             AND     .L1X    B4,A4,A4          ; |97| 
    1724 00000310 a184a358     [ A2]   MVK     .L1     0x1,A3            ; |97| 
    1725 00000314 00106f78             AND     .L1     A3,A4,A0          ; |97| 
    1726                    
    1727 00000318 d000ac13     [!A0]   B       .S2     $C$L10            ; |97| 
    1728 0000031c c22d0287  || [ A0]   LDHU    .D2T2   *+B11(16),B4      ; |102| 
    1729 00000320 c1807fa8  || [ A0]   MVK     .S1     0xff,A3
    1730                    
    1731 00000324 c22c0295     [ A0]   LDBU    .D2T1   *B11,A4           ; |102| 
    1732 00000328 c18f1808  || [ A0]   EXTU    .S1     A3,24,24,A3       ; |102| 
    1733                    
    1734 0000032c c32c22e7     [ A0]   LDW     .D2T2   *+B11(4),B6       ; |102| 
    1735 00000330 c6000028! || [ A0]   MVKL    .S1     testPatternString,A12
    1736                    
    1737                            .dwpsn  file "./../packages/ti/vlib/src/VLIB_houghLineFromList/VLIB_houghLineFromList_d.c",lin
    1738                    ;----------------------------------------------------------------------
    1739                    ; 102 | VLIB_fillBuffer(prm[tpi].testPattern,                                  
    1740                    ;----------------------------------------------------------------------
    1741                    $C$DW$206       .dwtag  DW_TAG_TI_branch
    1742                            .dwattr $C$DW$206, DW_AT_low_pc(0x00)
    1743                            .dwattr $C$DW$206, DW_AT_name("VLIB_fillBuffer")
    1744                            .dwattr $C$DW$206, DW_AT_TI_call
    1745 00000334 c0000010!    [ A0]   CALL    .S1     VLIB_fillBuffer   ; |102| 
    1746 00000338 c33de2e4     [ A0]   LDW     .D2T1   *+SP(60),A6       ; |102| 
    1747                    
    1748 0000033c 0292300b             EXTU    .S2     B4,17,16,B5       ; |102| 
    1749 00000340 d22d2286  || [!A0]   LDHU    .D2T2   *+B11(18),B4      ; |182| 
    1750                    
    1751                            .dwpsn  file "./../packages/ti/vlib/src/VLIB_houghLineFromList/VLIB_houghLineFromList_d.c",lin
    1752                               ; BRANCHCC OCCURS {$C$L10}        ; |97| 
    1753 00000344           $C$DW$L$VLIB_houghLineFromList_d$7$E:
    1754                    ;** --------------------------------------------------------------------------*
    1755 00000344           $C$DW$L$VLIB_houghLineFromList_d$8$B:
    1756                    ;          EXCLUSIVE CPU CYCLES: 3
    1757                    ;** 102 -----------------------    C$8 = (unsigned short)((*U$12).listSize*2);
    1758                    ;** 102 -----------------------    VLIB_fillBuffer((*U$12).testPattern, (unsigned char)K$65, (void *)p
    1759                    ;** 128 -----------------------    memset((void *)pOutHoughSpace, 0, _mpyu((*U$12).thetaRange, (*U$12)
    1760                    ;** 128 -----------------------    memset((void *)pOutHoughSpace_cn, 0, _mpyu((*U$12).thetaRange, (*U$
TMS320C6x Assembler PC v7.4.2 Thu Mar 19 12:42:01 2015

Tools Copyright (c) 1996-2012 Texas Instruments Incorporated
package/lib/Regression/regress_d_c/./../packages/ti/vlib/src/VLIB_houghLineFromList/VLIB_houghLineFromList_d.se66 PAGE   33

    1761                    ;** 113 -----------------------    pSin = SinLUT;
    1762                    ;** 113 -----------------------    pCos = CosLUT;
    1763                    ;** 113 -----------------------    v$1 = prm;
    1764                    ;** 113 -----------------------    NumThetaPoints = (float)(*U$12).thetaRange;
    1765                    ;** 47  -----------------------    if ( NumThetaPoints <= K$74 ) goto g14;  // [31]
    1766                            .dwpsn  file "./../packages/ti/vlib/src/VLIB_houghLineFromList/VLIB_houghLineFromList_d.c",lin
    1767                    ;----------------------------------------------------------------------
    1768                    ; 103 | (uint8_t)255,                                                          
    1769                    ; 104 | pEdgeMapList, prm[tpi].staticIn,                                       
    1770                    ; 105 | prm[tpi].listSize * 2, 1, prm[tpi].listSize * 2,                       
    1771                    ; 106 | sizeof(uint16_t), testPatternString);                                  
    1772                    ; 109 | VLIB_clear_memory(pOutHoughSpace, prm[tpi].thetaRange * prm[tpi].rhoMax
    1773                    ;     | Length * sizeof(uint16_t));                                            
    1774                    ; 110 | VLIB_clear_memory(pOutHoughSpace_cn, prm[tpi].thetaRange * prm[tpi].rho
    1775                    ;     | MaxLength * sizeof(uint16_t));                                         
    1776                    ; 113 | VLIB_InitializeTrigLUTs(SinLUT, CosLUT, -80, 79.6, prm[tpi].thetaRange)
    1777                    ;     | ;                                                                      
    1778                    ; 115 | if( vlib_KERNEL_FAIL == VLIB_compare_mem((void *) prm[tpi].ref_pSIN, (v
    1779                    ;     | oid *)SinLUT, prm[tpi].thetaRange * sizeof(uint16_t))) {               
    1780                    ; 116 | printf("|  %d | FAIL - Error: Sin table initialization failed!\n", tpi)
    1781                    ;     | ;                                                                      
    1782                    ; 117 | fail = 1;                                                              
    1783                    ; 119 | if( vlib_KERNEL_FAIL == VLIB_compare_mem((void *) prm[tpi].ref_pCOS, (v
    1784                    ;     | oid *)CosLUT, prm[tpi].thetaRange * sizeof(uint16_t))) {               
    1785                    ; 120 | printf("|  %d | FAIL - Error: Cos table initialization failed!\n", tpi)
    1786                    ;     | ;                                                                      
    1787                    ; 121 | fail = 1;                                                              
    1788                    ; 124 | if( fail == 0 ) {                                                      
    1789                    ; 126 | VLIB_profile_start(vlib_KERNEL_OPT);                                   
    1790                    ; 127 | VLIB_houghLineFromList(                                                
    1791                    ;----------------------------------------------------------------------
    1792 00000344 0508a35a             MVK     .L2     0x2,B10           ; |102| 
    1793 00000348     16c6             MV      .L1X    B5,A8             ; |102| 
    1794                    
    1795 0000034a     56c6             MV      .L1X    B5,A10            ; |102| 
    1796 00000358 020c1fda  ||         MV      .L2X    A3,B4             ; |102| 
    1797 00000350 06000069! ||         MVKH    .S1     testPatternString,A12
    1798 00000354 04002043  ||         MVK     .D2     0x1,B8            ; |102| 
    1799 0000034c 01880163  ||         ADDKPC  .S2     $C$RL16,B3,0      ; |102| 
    1800                    
    1801 00000360           $C$RL16:   ; CALL OCCURS {VLIB_fillBuffer} {0}  ; |102| 
    1802 00000360           $C$DW$L$VLIB_houghLineFromList_d$8$E:
    1803                    ;** --------------------------------------------------------------------------*
    1804 00000360           $C$DW$L$VLIB_houghLineFromList_d$9$B:
    1805                    ;          EXCLUSIVE CPU CYCLES: 32
    1806                            .dwpsn  file ".\..\packages\ti\vlib\src\VLIB_houghLineFromList\../common/VLIB_memory.h",line 1
    1807                    ;----------------------------------------------------------------------
    1808                    ; 128 | pEdgeMapList,                                                          
    1809                    ; 129 | pOutHoughSpace,                                                        
    1810                    ; 130 | prm[tpi].outBlkWidth,                                                  
    1811                    ; 131 | prm[tpi].outBlkHeight,                                                 
    1812                    ; 132 | prm[tpi].listSize,                                                     
    1813                    ; 133 | prm[tpi].thetaRange,                                                   
    1814                    ; 134 | prm[tpi].rhoMaxLength,                                                 
    1815                    ; 135 | SinLUT,                                                                
TMS320C6x Assembler PC v7.4.2 Thu Mar 19 12:42:01 2015

Tools Copyright (c) 1996-2012 Texas Instruments Incorporated
package/lib/Regression/regress_d_c/./../packages/ti/vlib/src/VLIB_houghLineFromList/VLIB_houghLineFromList_d.se66 PAGE   34

    1816                    ; 136 | CosLUT,                                                                
    1817                    ; 137 | ping,                                                                  
    1818                    ; 138 | pong,                                                                  
    1819                    ; 139 | pang,                                                                  
    1820                    ; 140 | peng);                                                                 
    1821                    ; 141 | VLIB_profile_stop();                                                   
    1822                    ; 144 | VLIB_profile_start(vlib_KERNEL_CN);                                    
    1823                    ; 145 | VLIB_houghLineFromList_cn(                                             
    1824                    ; 146 | pEdgeMapList,                                                          
    1825                    ; 147 | pOutHoughSpace_cn,                                                     
    1826                    ; 148 | prm[tpi].outBlkWidth,                                                  
    1827                    ; 149 | prm[tpi].outBlkHeight,                                                 
    1828                    ; 150 | prm[tpi].listSize,                                                     
    1829                    ; 151 | prm[tpi].thetaRange,                                                   
    1830                    ; 152 | prm[tpi].rhoMaxLength,                                                 
    1831                    ; 153 | SinLUT,                                                                
    1832                    ; 154 | CosLUT,                                                                
    1833                    ; 155 | ping,                                                                  
    1834                    ; 156 | pong,                                                                  
    1835                    ; 157 | pang,                                                                  
    1836                    ; 158 | peng);                                                                 
    1837                    ; 159 | VLIB_profile_stop();                                                   
    1838                    ; 163 | status_nat_vs_int = VLIB_compare_mem((void *) pOutHoughSpace, (void *)p
    1839                    ;     | OutHoughSpace_cn, out_size * sizeof(uint16_t));                        
    1840                    ; 166 | if( prm[tpi].staticOut != NULL ) {                                     
    1841                    ; 167 | status_nat_vs_ref = VLIB_compare_mem((void *) prm[tpi].staticOut, (void
    1842                    ;     |  *)pOutHoughSpace_cn, out_size * sizeof(uint16_t));                    
    1843                    ; 171 | fail = ((status_nat_vs_int == vlib_KERNEL_FAIL) || (status_nat_vs_ref =
    1844                    ;     | = vlib_KERNEL_FAIL)) ? 1 : 0;                                          
    1845                    ; 173 | est_test=1;                                                            
    1846                    ; 176 | sprintf(desc, "%s generated input | Opt results compared to NatC result
    1847                    ;     | s | listSize=%d, thetaRange=%d, rhoMaxLength=%d",                      
    1848                    ; 177 |     testPatternString, prm[tpi].listSize, prm[tpi].thetaRange, prm[tpi]
    1849                    ;     | .rhoMaxLength);                                                        
    1850                    ; 178 | VLIB_formula_add_test(prm[tpi].listSize * prm[tpi].thetaRange, NULL, NU
    1851                    ;     | LL, fail, desc, NULL);                                                 
    1852                    ; 180 | } else {                                                               
    1853                    ; 182 | sprintf(desc, "listSize=%d, thetaRange=%d, rhoMaxLength=%d",           
    1854                    ; 183 | prm[tpi].listSize, prm[tpi].thetaRange, prm[tpi].rhoMaxLength);        
    1855                    ; 184 | VLIB_skip_test(desc);                                                  
    1856                    ; 188 | free(CosLUT);                                                          
    1857                    ; 189 | free(SinLUT);                                                          
    1858                    ; 190 | VLIB_align_free(peng);                                                 
    1859                    ; 191 | VLIB_align_free(pang);                                                 
    1860                    ; 192 | VLIB_align_free(pong);                                                 
    1861                    ; 193 | VLIB_align_free(ping);                                                 
    1862                    ; 194 | free(pOutHoughSpace_cn);                                               
    1863                    ; 195 | free(pOutHoughSpace);                                                  
    1864                    ; 196 | align_free(pEdgeMapList);                                              
    1865                    ; 200 | VLIB_profile_cycle_report(vlib_PROFILE_FORMULA_RANGE,                  
    1866                    ; 201 |           "N = listSize * thetaRange",                                 
    1867                    ; 202 |           NULL);                                                       
    1868                    ; 205 | VLIB_kernel_memory();                                                  
    1869                    ; 209 | #ifndef __ONESHOTTEST                                                  
    1870                    ; 211 | main() {                                                               
TMS320C6x Assembler PC v7.4.2 Thu Mar 19 12:42:01 2015

Tools Copyright (c) 1996-2012 Texas Instruments Incorporated
package/lib/Regression/regress_d_c/./../packages/ti/vlib/src/VLIB_houghLineFromList/VLIB_houghLineFromList_d.se66 PAGE   35

    1871                    ; 212 | if( VLIB_cache_init()) {                                               
    1872                    ; 213 | VLIB_memError("VLIB_houghLineFromList");                               
    1873                    ; 214 | } else {                                                               
    1874                    ;----------------------------------------------------------------------
    1875 00000360 022d4286             LDHU    .D2T2   *+B11(20),B4      ; |128| 
    1876 00000364 02ad2286             LDHU    .D2T2   *+B11(18),B5      ; |128| 
    1877 00000368     8e4d             LDW     .D2T1   *+SP(64),A4       ; |128| 
    1878 0000036a     4c6e             NOP             3
    1879 0000036c 0210af82             MPYU    .M2     B5,B4,B4          ; |128| 
    1880 00000370     0c6e             NOP             1
    1881 00000372     8251             ADD     .L2     B4,B4,B5          ; |128| 
    1882 00000374     0627             ZERO    .L2     B4                ; |128| 
    1883                    $C$DW$207       .dwtag  DW_TAG_TI_branch
    1884                            .dwattr $C$DW$207, DW_AT_low_pc(0x00)
    1885                            .dwattr $C$DW$207, DW_AT_name("memset")
    1886                            .dwattr $C$DW$207, DW_AT_TI_call
    1887                    
    1888 00000378 10000012!            CALLP   .S2     memset,B3
    1889 00000376     d2c6  ||         MV      .L1X    B5,A6             ; |128| 
    1890                    
    1891 00000380           $C$RL17:   ; CALL OCCURS {memset} {0}        ; |128| 
    1892 00000380 02ad2286             LDHU    .D2T2   *+B11(18),B5      ; |128| 
    1893 00000384 022d4286             LDHU    .D2T2   *+B11(20),B4      ; |128| 
    1894 00000388     ae4d             LDW     .D2T1   *+SP(68),A4       ; |128| 
    1895 0000038a     4c6e             NOP             3
    1896 0000038c 0210af82             MPYU    .M2     B5,B4,B4          ; |128| 
    1897 00000390     0c6e             NOP             1
    1898 00000392     8251             ADD     .L2     B4,B4,B5          ; |128| 
    1899 00000394     0627             ZERO    .L2     B4                ; |128| 
    1900                    $C$DW$208       .dwtag  DW_TAG_TI_branch
    1901                            .dwattr $C$DW$208, DW_AT_low_pc(0x00)
    1902                            .dwattr $C$DW$208, DW_AT_name("memset")
    1903                            .dwattr $C$DW$208, DW_AT_TI_call
    1904                    
    1905 00000398 10000012!            CALLP   .S2     memset,B3
    1906 00000396     d2c6  ||         MV      .L1X    B5,A6             ; |128| 
    1907                    
    1908 000003a0           $C$RL18:   ; CALL OCCURS {memset} {0}        ; |128| 
    1909 000003a0           $C$DW$L$VLIB_houghLineFromList_d$9$E:
    1910                    ;** --------------------------------------------------------------------------*
    1911 000003a0           $C$DW$L$VLIB_houghLineFromList_d$10$B:
    1912                    ;          EXCLUSIVE CPU CYCLES: 16
    1913                            .dwpsn  file "./../packages/ti/vlib/src/VLIB_houghLineFromList/VLIB_houghLineFromList_d.c",lin
    1914 000003a0 022d2286             LDHU    .D2T2   *+B11(18),B4      ; |113| 
    1915 000003a4 0f80a358             ZERO    .L1     A31
    1916 000003a8 0180a358             ZERO    .L1     A3
    1917 000003ac 063ec2e6             LDW     .D2T2   *+SP(88),B12      ; |113| 
    1918 000003b0 0fa03868             MVKH    .S1     0x40700000,A31
    1919 000003b4 07901938             INTSPU  .L1X    B4,A15            ; |113| 
    1920 000003b8 023ce2e6             LDW     .D2T2   *+SP(28),B4       ; |113| 
    1921 000003bc 053ee2e6             LDW     .D2T2   *+SP(92),B10
    1922 000003c0     0c6e             NOP             1
    1923                    
    1924 000003c4 000dee60             CMPGTSP .S1     A15,A3,A0         ; |47| 
    1925 000003c2     05a6  ||         ZERO    .L1     A3
TMS320C6x Assembler PC v7.4.2 Thu Mar 19 12:42:01 2015

Tools Copyright (c) 1996-2012 Texas Instruments Incorporated
package/lib/Regression/regress_d_c/./../packages/ti/vlib/src/VLIB_houghLineFromList/VLIB_houghLineFromList_d.se66 PAGE   36

    1926                    
    1927 000003c8 d0002d93     [!A0]   B       .S2     $C$L5             ; |47| 
    1928 000003cc 018ebd89  ||         SET     .S1     A3,0x15,0x1d,A3
    1929 000003d0     0a66  || [ A0]   ZERO    .L1     A4                ; |47| 
    1930 000003d4 cfbf62f5  || [ A0]   STW     .D2T1   A31,*+SP(108)     ; |50| 
    1931 000003d2     0af6  || [ A0]   ZERO    .D1     A5                ; |47| 
    1932 000003d8     0be7  || [ A0]   ZERO    .L2     B7
    1933                    
    1934 000003e8 c1bf22f5     [ A0]   STW     .D2T1   A3,*+SP(100)      ; |50| 
    1935 000003e0 ce940fd9  || [ A0]   MV      .L1     A5,A29
    1936 000003e4 c39efd8b  || [ A0]   SET     .S2     B7,0x17,0x1d,B7
    1937 000003da     0b76  || [ A0]   ZERO    .D1     A6                ; |47| 
    1938 000003ec c52628a9  || [ A0]   MVKL    .S1     0xde4c51,A10
    1939 000003f0 c23c1fda  || [ A0]   MV      .L2X    A15,B4
    1940                    
    1941 000003f4 c5ef99a9     [ A0]   MVKL    .S1     0x3f91df33,A11
    1942 000003f8 c23f42f4  || [ A0]   STW     .D2T1   A4,*+SP(104)
    1943                    
    1944 000003fc 023f22e4             LDW     .D2T1   *+SP(100),A4
    1945                            .dwpsn  file "./../packages/ti/vlib/src/VLIB_houghLineFromList/VLIB_houghLineFromList_d.c",lin
    1946 00000400 0f3f62e4             LDW     .D2T1   *+SP(108),A30     ; |51| 
    1947                            .dwpsn  file "./../packages/ti/vlib/src/VLIB_houghLineFromList/VLIB_houghLineFromList_d.c",lin
    1948 00000404 cf80a35a     [ A0]   ZERO    .L2     B31               ; |47| 
    1949                            .dwpsn  file "./../packages/ti/vlib/src/VLIB_houghLineFromList/VLIB_houghLineFromList_d.c",lin
    1950                               ; BRANCHCC OCCURS {$C$L5}         ; |47| 
    1951 00000408           $C$DW$L$VLIB_houghLineFromList_d$10$E:
    1952                    ;** --------------------------------------------------------------------------*
    1953 00000408           $C$DW$L$VLIB_houghLineFromList_d$11$B:
    1954                    ;          EXCLUSIVE CPU CYCLES: 7
    1955                    ;**     -----------------------    U$82 = NumThetaPoints-1.0F;
    1956                    ;**     -----------------------    U$103 = pSin;
    1957                    ;**     -----------------------    U$115 = pCos;
    1958                    ;**     -----------------------    K$84 = -80.0F;
    1959                    ;**     -----------------------    K$79 = 159.600006F;
    1960                    ;**     -----------------------    U$78 = 0.0F;
    1961                    ;** 47  -----------------------    i = 0u;  // [31]
    1962                    ;**     -----------------------    #pragma LOOP_FLAGS(5120u)
    1963                    
    1964 00000408 028020fd             STW     .D2T1   A5,*+SP(128)
    1965 0000040c 059fc8e9  ||         MVKH    .S1     0x3f91df33,A11
    1966 00000410 0680a359  ||         ZERO    .L1     A13               ; |47| 
    1967 00000418     19f6  ||         ZERO    .D1     A3                ; |47| 
    1968 00000414 069c87bb  ||         FSUBSP  .L2     B4,B7,B13
    1969                    
    1970 0000041a     8f55             STW     .D2T1   A5,*+SP(96)
    1971 00000420 05006f68  ||         MVKH    .S1     0xde4c51,A10
    1972                    
    1973                            .dwpsn  file "./../packages/ti/vlib/src/VLIB_houghLineFromList/VLIB_houghLineFromList_d.c",lin
    1974 00000424 023fe2f4             STW     .D2T1   A4,*+SP(124)      ; |51| 
    1975 00000428 0f0021fc             STW     .D2T1   A30,*+SP(132)     ; |51| 
    1976 0000042c 033fc2f4             STW     .D2T1   A6,*+SP(120)
    1977 00000430 0fbf82f6             STW     .D2T2   B31,*+SP(112)
    1978 00000434 0e8022fc             STW     .D2T1   A29,*+SP(136)
    1979 00000438           $C$DW$L$VLIB_houghLineFromList_d$11$E:
    1980                    ;*----------------------------------------------------------------------------*
TMS320C6x Assembler PC v7.4.2 Thu Mar 19 12:42:01 2015

Tools Copyright (c) 1996-2012 Texas Instruments Incorporated
package/lib/Regression/regress_d_c/./../packages/ti/vlib/src/VLIB_houghLineFromList/VLIB_houghLineFromList_d.se66 PAGE   37

    1981                    ;*   SOFTWARE PIPELINE INFORMATION
    1982                    ;*      Disqualified loop: Loop contains a call
    1983                    ;*      Disqualified loop: Loop contains non-pipelinable instructions
    1984                    ;*      Disqualified loop: Loop contains a call
    1985                    ;*      Disqualified loop: Loop contains non-pipelinable instructions
    1986                    ;*      Disqualified loop: Loop contains a call
    1987                    ;*      Disqualified loop: Loop contains non-pipelinable instructions
    1988                    ;*      Disqualified loop: Loop contains a call
    1989                    ;*      Disqualified loop: Loop contains non-pipelinable instructions
    1990                    ;*      Disqualified loop: Loop contains a call
    1991                    ;*      Disqualified loop: Loop contains non-pipelinable instructions
    1992                    ;*----------------------------------------------------------------------------*
    1993 00000438           $C$L4:    
    1994                            .dwpsn  file "./../packages/ti/vlib/src/VLIB_houghLineFromList/VLIB_houghLineFromList_d.c",lin
    1995                    $C$DW$L$VLIB_houghLineFromList_d$12$B:
    1996                    ;          EXCLUSIVE CPU CYCLES: 6
    1997                    ;**     -----------------------g6:
    1998                    ;** 48  -----------------------    Theta = U$78*K$79/U$82+K$84;  // [31]
    1999                    ;** 50  -----------------------    x = sin(_mpyspdp(Theta, 0.017453))*256.0+0.5;  // [31]
    2000                    ;** 215 -----------------------    if ( modf(x, &y) < 0.0 ) goto g8;  // [10]
    2001                    ;** 215 -----------------------    R$2 = y;  // [10]
    2002                    ;** 215 -----------------------    goto g9;  // [10]
    2003                    ;**     -----------------------g8:
    2004                    ;** 215 -----------------------    R$2 = y-1.0;  // [10]
    2005                    ;**     -----------------------g9:
    2006                    ;** 50  -----------------------    *U$103++ = (short)R$2;  // [31]
    2007                    ;** 51  -----------------------    x = cos(_mpyspdp(Theta, 0.017453))*256.0+0.5;  // [31]
    2008                    ;** 215 -----------------------    if ( modf(x, &y) < 0.0 ) goto g11;  // [10]
    2009                    ;** 215 -----------------------    R$1 = y;  // [10]
    2010                    ;** 215 -----------------------    goto g12;  // [10]
    2011                    ;**     -----------------------g11:
    2012                    ;** 215 -----------------------    R$1 = y-1.0;  // [10]
    2013                    ;**     -----------------------g12:
    2014                    ;** 51  -----------------------    *U$115++ = (short)R$1;  // [31]
    2015                    ;** 47  -----------------------    U$78 = (float)(++i);  // [31]
    2016                    ;** 47  -----------------------    if ( U$78 < NumThetaPoints ) goto g6;  // [31]
    2017                    ;**     -----------------------    v$1 = prm;
    2018                    $C$DW$209       .dwtag  DW_TAG_TI_branch
    2019                            .dwattr $C$DW$209, DW_AT_low_pc(0x04)
    2020                            .dwattr $C$DW$209, DW_AT_name("__c6xabi_divf")
    2021                            .dwattr $C$DW$209, DW_AT_TI_call
    2022                    
    2023 00000438 024ccd29             MVKL    .S1     0x431f999a,A4
    2024 0000043c 00000012! ||         CALL    .S2     __c6xabi_divf     ; |48| 
    2025                    
    2026 00000440 02218fe8             MVKH    .S1     0x431f999a,A4
    2027                            .dwpsn  file "./../packages/ti/vlib/src/VLIB_houghLineFromList/VLIB_houghLineFromList_d.c",lin
    2028 00000444 020c8e00             MPYSP   .M1     A4,A3,A4          ; |48| 
    2029 00000448 01842162             ADDKPC  .S2     $C$RL19,B3,1      ; |48| 
    2030 0000044c 02340fda             MV      .L2     B13,B4            ; |48| 
    2031 00000450           $C$RL19:   ; CALL OCCURS {__c6xabi_divf} {0}  ; |48| 
    2032 00000450           $C$DW$L$VLIB_houghLineFromList_d$12$E:
    2033                    ;** --------------------------------------------------------------------------*
    2034 00000450           $C$DW$L$VLIB_houghLineFromList_d$13$B:
    2035                    ;          EXCLUSIVE CPU CYCLES: 68
TMS320C6x Assembler PC v7.4.2 Thu Mar 19 12:42:01 2015

Tools Copyright (c) 1996-2012 Texas Instruments Incorporated
package/lib/Regression/regress_d_c/./../packages/ti/vlib/src/VLIB_houghLineFromList/VLIB_houghLineFromList_d.se66 PAGE   38

    2036 00000450 0180a358             ZERO    .L1     A3
    2037 00000454 01e15068             MVKH    .S1     0xc2a00000,A3
    2038 00000458 06106798             FADDSP  .L1     A3,A4,A12         ; |48| 
    2039 0000045c 00002000             NOP             2
    2040                            .dwpsn  file "./../packages/ti/vlib/src/VLIB_houghLineFromList/VLIB_houghLineFromList_d.c",lin
    2041 00000460 022985b0             MPYSPDP .M1     A12,A11:A10,A5:A4 ; |50| 
    2042                    $C$DW$210       .dwtag  DW_TAG_TI_branch
    2043                            .dwattr $C$DW$210, DW_AT_low_pc(0x00)
    2044                            .dwattr $C$DW$210, DW_AT_name("sin")
    2045                            .dwattr $C$DW$210, DW_AT_TI_call
    2046 00000464 10000012!            CALLP   .S2     sin,B3
    2047 00000468           $C$RL20:   ; CALL OCCURS {sin} {0}           ; |50| 
    2048 00000468 033da3e4             LDDW    .D2T1   *+SP(104),A7:A6   ; |50| 
    2049 0000046c 023cbec2             ADDAD   .D2     SP,5,B4
    2050 00000470 00004000             NOP             3
    2051                    
    2052 00000474 0310c3f1             FMPYDP  .M1     A7:A6,A5:A4,A7:A6 ; |50| 
    2053 00000478 023d83e4  ||         LDDW    .D2T1   *+SP(96),A5:A4
    2054                    
    2055 0000047c 00006000             NOP             4
    2056                    $C$DW$211       .dwtag  DW_TAG_TI_branch
    2057                            .dwattr $C$DW$211, DW_AT_low_pc(0x00)
    2058                            .dwattr $C$DW$211, DW_AT_name("modf")
    2059                            .dwattr $C$DW$211, DW_AT_TI_call
    2060                    
    2061 00000480 10000013!            CALLP   .S2     modf,B3
    2062 00000484 02188b18  ||         FADDDP  .L1     A5:A4,A7:A6,A5:A4 ; |50| 
    2063                    
    2064                            .dwpsn  file "C:/VLIB_Tools/CCSV5_4_0/ccsv5/tools/compiler/C6000/include/math.h",line 215,colu
    2065                    ;----------------------------------------------------------------------
    2066                    ; 215 | VLIB_houghLineFromList_d(0);                                           
    2067                    ;----------------------------------------------------------------------
    2068 00000488           $C$RL21:   ; CALL OCCURS {modf} {0}          ; |215| 
    2069 00000488 020004fa             ZERO    .L2     B5:B4             ; |215| 
    2070 0000048c 00109a62             CMPLTDP .S2X    A5:A4,B5:B4,B0    ; |215| 
    2071 00000490 033ca3e6             LDDW    .D2T2   *+SP(40),B7:B6    ; |215| 
    2072 00000494 2200a35a     [ B0]   ZERO    .L2     B4
    2073 00000498 22129d8a     [ B0]   SET     .S2     B4,0x14,0x1d,B4
    2074 0000049c 223fa2f6     [ B0]   STW     .D2T2   B4,*+SP(116)      ; |215| 
    2075 000004a0 223dc3e6     [ B0]   LDDW    .D2T2   *+SP(112),B5:B4
    2076 000004a4 323ca3e6     [!B0]   LDDW    .D2T2   *+SP(40),B5:B4    ; |215| 
    2077                            .dwpsn  file "./../packages/ti/vlib/src/VLIB_houghLineFromList/VLIB_houghLineFromList_d.c",lin
    2078 000004a8 022985b0             MPYSPDP .M1     A12,A11:A10,A5:A4 ; |51| 
    2079 000004ac 00002000             NOP             2
    2080                            .dwpsn  file "C:/VLIB_Tools/CCSV5_4_0/ccsv5/tools/compiler/C6000/include/math.h",line 215,colu
    2081 000004b0 2210cb3a     [ B0]   FSUBDP  .L2     B7:B6,B5:B4,B5:B4 ; |215| 
    2082 000004b4 00002000             NOP             2
    2083                            .dwpsn  file "./../packages/ti/vlib/src/VLIB_houghLineFromList/VLIB_houghLineFromList_d.c",lin
    2084 000004b8 0214803a             DPTRUNC .L2     B5:B4,B4          ; |50| 
    2085 000004bc 00004000             NOP             3
    2086                    $C$DW$212       .dwtag  DW_TAG_TI_branch
    2087                            .dwattr $C$DW$212, DW_AT_low_pc(0x00)
    2088                            .dwattr $C$DW$212, DW_AT_name("cos")
    2089                            .dwattr $C$DW$212, DW_AT_TI_call
    2090                    
TMS320C6x Assembler PC v7.4.2 Thu Mar 19 12:42:01 2015

Tools Copyright (c) 1996-2012 Texas Instruments Incorporated
package/lib/Regression/regress_d_c/./../packages/ti/vlib/src/VLIB_houghLineFromList/VLIB_houghLineFromList_d.se66 PAGE   39

    2091 000004c0 10000013!            CALLP   .S2     cos,B3
    2092 000004c4 023036d6  ||         STH     .D2T2   B4,*B12++         ; |50| 
    2093                    
    2094                            .dwpsn  file "./../packages/ti/vlib/src/VLIB_houghLineFromList/VLIB_houghLineFromList_d.c",lin
    2095 000004c8           $C$RL22:   ; CALL OCCURS {cos} {0}           ; |51| 
    2096 000004c8 033e03e4             LDDW    .D2T1   *+SP(128),A7:A6   ; |51| 
    2097 000004cc 023c9ec2             ADDAD   .D2     SP,4,B4
    2098 000004d0 00004000             NOP             3
    2099                    
    2100 000004d4 0310c3f1             FMPYDP  .M1     A7:A6,A5:A4,A7:A6 ; |51| 
    2101 000004d8 023de3e4  ||         LDDW    .D2T1   *+SP(120),A5:A4
    2102                    
    2103 000004dc 00006000             NOP             4
    2104                    $C$DW$213       .dwtag  DW_TAG_TI_branch
    2105                            .dwattr $C$DW$213, DW_AT_low_pc(0x00)
    2106                            .dwattr $C$DW$213, DW_AT_name("modf")
    2107                            .dwattr $C$DW$213, DW_AT_TI_call
    2108                    
    2109 000004e0 10000013!            CALLP   .S2     modf,B3
    2110 000004e4 02188b18  ||         FADDDP  .L1     A5:A4,A7:A6,A5:A4 ; |51| 
    2111                    
    2112                            .dwpsn  file "C:/VLIB_Tools/CCSV5_4_0/ccsv5/tools/compiler/C6000/include/math.h",line 215,colu
    2113 000004e8           $C$RL23:   ; CALL OCCURS {modf} {0}          ; |215| 
    2114 000004e8           $C$DW$L$VLIB_houghLineFromList_d$13$E:
    2115                    ;** --------------------------------------------------------------------------*
    2116 000004e8           $C$DW$L$VLIB_houghLineFromList_d$14$B:
    2117                    ;          EXCLUSIVE CPU CYCLES: 19
    2118 000004e8 030004f8             ZERO    .L1     A7:A6             ; |215| 
    2119 000004ec 00188aa0             CMPLTDP .S1     A5:A4,A7:A6,A0    ; |215| 
    2120 000004f0 023c83e6             LDDW    .D2T2   *+SP(32),B5:B4    ; |215| 
    2121 000004f4 c180a358     [ A0]   ZERO    .L1     A3
    2122 000004f8 c18e9d88     [ A0]   SET     .S1     A3,0x14,0x1d,A3
    2123 000004fc c18023fc     [ A0]   STW     .D2T1   A3,*+SP(140)      ; |215| 
    2124 00000500 c23e23e4     [ A0]   LDDW    .D2T1   *+SP(136),A5:A4
    2125                            .dwpsn  file "./../packages/ti/vlib/src/VLIB_houghLineFromList/VLIB_houghLineFromList_d.c",lin
    2126 00000504 06b42058             ADD     .L1     1,A13,A13         ; |47| 
    2127 00000508 01b40938             INTSPU  .L1     A13,A3            ; |47| 
    2128 0000050c 00002000             NOP             2
    2129                            .dwpsn  file "C:/VLIB_Tools/CCSV5_4_0/ccsv5/tools/compiler/C6000/include/math.h",line 215,colu
    2130 00000510 c2109b3a     [ A0]   FSUBDP  .L2X    B5:B4,A5:A4,B5:B4 ; |215| 
    2131                            .dwpsn  file "./../packages/ti/vlib/src/VLIB_houghLineFromList/VLIB_houghLineFromList_d.c",lin
    2132 00000514 013c6ea0             CMPLTSP .S1     A3,A15,A2         ; |47| 
    2133 00000518 afffe710     [ A2]   B       .S1     $C$L4             ; |47| 
    2134                            .dwpsn  file "./../packages/ti/vlib/src/VLIB_houghLineFromList/VLIB_houghLineFromList_d.c",lin
    2135 0000051c 0214803a             DPTRUNC .L2     B5:B4,B4          ; |51| 
    2136 00000520 00004000             NOP             3
    2137 00000524 022836d6             STH     .D2T2   B4,*B10++         ; |51| 
    2138                            .dwpsn  file "./../packages/ti/vlib/src/VLIB_houghLineFromList/VLIB_houghLineFromList_d.c",lin
    2139                               ; BRANCHCC OCCURS {$C$L4}         ; |47| 
    2140 00000528           $C$DW$L$VLIB_houghLineFromList_d$14$E:
    2141                    ;** --------------------------------------------------------------------------*
    2142 00000528           $C$DW$L$VLIB_houghLineFromList_d$15$B:
    2143                    ;          EXCLUSIVE CPU CYCLES: 1
    2144 00000528 023ce2e6             LDW     .D2T2   *+SP(28),B4
    2145 0000052c           $C$DW$L$VLIB_houghLineFromList_d$15$E:
TMS320C6x Assembler PC v7.4.2 Thu Mar 19 12:42:01 2015

Tools Copyright (c) 1996-2012 Texas Instruments Incorporated
package/lib/Regression/regress_d_c/./../packages/ti/vlib/src/VLIB_houghLineFromList/VLIB_houghLineFromList_d.se66 PAGE   40

    2146                    ;** --------------------------------------------------------------------------*
    2147 0000052c           $C$L5:    
    2148 0000052c           $C$DW$L$VLIB_houghLineFromList_d$16$B:
    2149                    ;          EXCLUSIVE CPU CYCLES: 19
    2150                    ;**     -----------------------g14:
    2151                    ;** 115 -----------------------    C$7 = U$11+v$1;
    2152                    ;** 115 -----------------------    if ( VLIB_compare_mem((*C$7).ref_pSIN, (void *)SinLUT, (*C$7).theta
    2153 0000052c     9ddd             LDW     .D2T2   *+SP(48),B5
    2154 0000052e     6c6e             NOP             4
    2155                            .dwpsn  file "./../packages/ti/vlib/src/VLIB_houghLineFromList/VLIB_houghLineFromList_d.c",lin
    2156 00000530     82c1             ADD     .L2     B4,B5,B4          ; |115| 
    2157 00000532     3a5d             LDHU    .D2T2   *+B4(18),B5       ; |115| 
    2158 00000534     c04d             LDW     .D2T1   *+B4(24),A4       ; |115| 
    2159 00000536     decd             LDW     .D2T2   *+SP(88),B4       ; |115| 
    2160 00000538     2c6e             NOP             2
    2161 0000053a     a2d1             ADD     .L2     B5,B5,B5          ; |115| 
    2162 00000540     0c6e             NOP             1
    2163                    $C$DW$214       .dwtag  DW_TAG_TI_branch
    2164                            .dwattr $C$DW$214, DW_AT_low_pc(0x04)
    2165                            .dwattr $C$DW$214, DW_AT_name("VLIB_compare_mem")
    2166                            .dwattr $C$DW$214, DW_AT_TI_call
    2167                    
    2168 00000542     d2c6             MV      .L1X    B5,A6             ; |115| 
    2169 00000544 10000012! ||         CALLP   .S2     VLIB_compare_mem,B3
    2170                    
    2171 00000548           $C$RL24:   ; CALL OCCURS {VLIB_compare_mem} {0}  ; |115| 
    2172 00000548           $C$DW$L$VLIB_houghLineFromList_d$16$E:
    2173                    ;** --------------------------------------------------------------------------*
    2174 00000548           $C$DW$L$VLIB_houghLineFromList_d$17$B:
    2175                    ;          EXCLUSIVE CPU CYCLES: 7
    2176 00000548     0246             MV      .L1     A4,A0             ; |115| 
    2177 0000054a     292a     [ A0]   BNOP    .S1     $C$L6,1           ; |115| 
    2178                            .dwpsn  file "./../packages/ti/vlib/src/VLIB_houghLineFromList/VLIB_houghLineFromList_d.c",lin
    2179                    $C$DW$215       .dwtag  DW_TAG_TI_branch
    2180                            .dwattr $C$DW$215, DW_AT_low_pc(0x00)
    2181                            .dwattr $C$DW$215, DW_AT_name("printf")
    2182                            .dwattr $C$DW$215, DW_AT_TI_call
    2183 0000054c d0000010!    [!A0]   CALL    .S1     printf            ; |116| 
    2184                            .dwpsn  file "./../packages/ti/vlib/src/VLIB_houghLineFromList/VLIB_houghLineFromList_d.c",lin
    2185 00000550 c500a358     [ A0]   ZERO    .L1     A10               ; |99| 
    2186 00000554 d200002a!    [!A0]   MVKL    .S2     $C$SL2+0,B4
    2187 00000558 d200006a!    [!A0]   MVKH    .S2     $C$SL2+0,B4
    2188                            .dwpsn  file "./../packages/ti/vlib/src/VLIB_houghLineFromList/VLIB_houghLineFromList_d.c",lin
    2189                               ; BRANCHCC OCCURS {$C$L6}         ; |115| 
    2190 00000560           $C$DW$L$VLIB_houghLineFromList_d$17$E:
    2191                    ;** --------------------------------------------------------------------------*
    2192 00000560           $C$DW$L$VLIB_houghLineFromList_d$18$B:
    2193                    ;          EXCLUSIVE CPU CYCLES: 2
    2194                    ;** 116 -----------------------    printf((const char *)"|  %d | FAIL - Error: Sin table initializatio
    2195                    ;** 117 -----------------------    fail = 1;
    2196                    ;** 117 -----------------------    goto g17;
    2197                            .dwpsn  file "./../packages/ti/vlib/src/VLIB_houghLineFromList/VLIB_houghLineFromList_d.c",lin
    2198 00000560 023c22f6             STW     .D2T2   B4,*+SP(4)        ; |116| 
    2199                    
    2200 00000564 073c42f5             STW     .D2T1   A14,*+SP(8)       ; |116| 
TMS320C6x Assembler PC v7.4.2 Thu Mar 19 12:42:01 2015

Tools Copyright (c) 1996-2012 Texas Instruments Incorporated
package/lib/Regression/regress_d_c/./../packages/ti/vlib/src/VLIB_houghLineFromList/VLIB_houghLineFromList_d.se66 PAGE   41

    2201 00000568 01830162  ||         ADDKPC  .S2     $C$RL25,B3,0      ; |116| 
    2202                    
    2203 0000056c           $C$RL25:   ; CALL OCCURS {printf} {0}        ; |116| 
    2204 0000056c           $C$DW$L$VLIB_houghLineFromList_d$18$E:
    2205                    ;** --------------------------------------------------------------------------*
    2206 0000056c           $C$DW$L$VLIB_houghLineFromList_d$19$B:
    2207                    ;          EXCLUSIVE CPU CYCLES: 6
    2208                    
    2209 0000056c 00106121             BNOP    .S1     $C$L7,3           ; |117| 
    2210 00000570 022d2286  ||         LDHU    .D2T2   *+B11(18),B4      ; |119| 
    2211                    
    2212                    $C$DW$216       .dwtag  DW_TAG_TI_branch
    2213                            .dwattr $C$DW$216, DW_AT_low_pc(0x00)
    2214                            .dwattr $C$DW$216, DW_AT_name("VLIB_compare_mem")
    2215                            .dwattr $C$DW$216, DW_AT_TI_call
    2216                    
    2217 00000574 00000011!            CALL    .S1     VLIB_compare_mem  ; |119| 
    2218 00000578 022ce2e4  ||         LDW     .D2T1   *+B11(28),A4      ; |119| 
    2219                    
    2220 0000057c 0290807b             ADD     .L2     B4,B4,B5          ; |119| 
    2221 00000584 023ee2e6  ||         LDW     .D2T2   *+SP(92),B4       ; |119| 
    2222 00000580 0504a359  ||         MVK     .L1     0x1,A10           ; |117| 
    2223                    
    2224                            .dwpsn  file "./../packages/ti/vlib/src/VLIB_houghLineFromList/VLIB_houghLineFromList_d.c",lin
    2225                               ; BRANCH OCCURS {$C$L7}           ; |117| 
    2226 00000588           $C$DW$L$VLIB_houghLineFromList_d$19$E:
    2227                    ;** --------------------------------------------------------------------------*
    2228 00000588           $C$L6:    
    2229                            .dwpsn  file "./../packages/ti/vlib/src/VLIB_houghLineFromList/VLIB_houghLineFromList_d.c",lin
    2230 00000588           $C$DW$L$VLIB_houghLineFromList_d$20$B:
    2231                    ;          EXCLUSIVE CPU CYCLES: 6
    2232                    ;**     -----------------------g16:
    2233                    ;** 99  -----------------------    fail = 0;
    2234                            .dwpsn  file "./../packages/ti/vlib/src/VLIB_houghLineFromList/VLIB_houghLineFromList_d.c",lin
    2235 00000588 022d2286             LDHU    .D2T2   *+B11(18),B4      ; |119| 
    2236 0000058c 022ce2e4             LDW     .D2T1   *+B11(28),A4      ; |119| 
    2237 00000590 00002000             NOP             2
    2238                    $C$DW$217       .dwtag  DW_TAG_TI_branch
    2239                            .dwattr $C$DW$217, DW_AT_low_pc(0x00)
    2240                            .dwattr $C$DW$217, DW_AT_name("VLIB_compare_mem")
    2241                            .dwattr $C$DW$217, DW_AT_TI_call
    2242 00000594 00000010!            CALL    .S1     VLIB_compare_mem  ; |119| 
    2243                    
    2244 00000598     8251             ADD     .L2     B4,B4,B5          ; |119| 
    2245 0000059a     fecd  ||         LDW     .D2T2   *+SP(92),B4       ; |119| 
    2246                    
    2247 000005a0           $C$DW$L$VLIB_houghLineFromList_d$20$E:
    2248                    ;** --------------------------------------------------------------------------*
    2249 000005a0           $C$L7:    
    2250                            .dwpsn  file "./../packages/ti/vlib/src/VLIB_houghLineFromList/VLIB_houghLineFromList_d.c",lin
    2251 000005a0           $C$DW$L$VLIB_houghLineFromList_d$21$B:
    2252                    ;          EXCLUSIVE CPU CYCLES: 4
    2253                    ;**     -----------------------g17:
    2254                    ;** 119 -----------------------    if ( VLIB_compare_mem((*U$12).ref_pCOS, (void *)CosLUT, (*U$12).the
    2255                            .dwpsn  file "./../packages/ti/vlib/src/VLIB_houghLineFromList/VLIB_houghLineFromList_d.c",lin
TMS320C6x Assembler PC v7.4.2 Thu Mar 19 12:42:01 2015

Tools Copyright (c) 1996-2012 Texas Instruments Incorporated
package/lib/Regression/regress_d_c/./../packages/ti/vlib/src/VLIB_houghLineFromList/VLIB_houghLineFromList_d.se66 PAGE   42

    2256 000005a0 01824162             ADDKPC  .S2     $C$RL26,B3,2      ; |119| 
    2257 000005a4 03141fd8             MV      .L1X    B5,A6             ; |119| 
    2258 000005a8           $C$RL26:   ; CALL OCCURS {VLIB_compare_mem} {0}  ; |119| 
    2259 000005a8           $C$DW$L$VLIB_houghLineFromList_d$21$E:
    2260                    ;** --------------------------------------------------------------------------*
    2261 000005a8           $C$DW$L$VLIB_houghLineFromList_d$22$B:
    2262                    ;          EXCLUSIVE CPU CYCLES: 7
    2263 000005a8     0246             MV      .L1     A4,A0             ; |119| 
    2264                    
    2265 000005ac c0000891     [ A0]   B       .S1     $C$L8             ; |119| 
    2266 000005aa     2046  ||         MV      .L1     A0,A1             ; guard predicate rewrite
    2267 000005b0 d200002a! || [!A0]   MVKL    .S2     $C$SL3+0,B4
    2268                    
    2269 000005b4 d200006a!    [!A0]   MVKH    .S2     $C$SL3+0,B4
    2270                    $C$DW$218       .dwtag  DW_TAG_TI_branch
    2271                            .dwattr $C$DW$218, DW_AT_low_pc(0x00)
    2272                            .dwattr $C$DW$218, DW_AT_name("printf")
    2273                            .dwattr $C$DW$218, DW_AT_TI_call
    2274                    
    2275 000005b8 d0000011!    [!A0]   CALL    .S1     printf            ; |120| 
    2276 000005c0 c0280fd8  || [ A0]   MV      .L1     A10,A0
    2277                    
    2278 000005c4 9000a358     [!A1]   ZERO    .L1     A0                ; nullify predicate
    2279                            .dwpsn  file "./../packages/ti/vlib/src/VLIB_houghLineFromList/VLIB_houghLineFromList_d.c",lin
    2280 000005c8 c0ba2120     [ A0]   BNOP    .S1     $C$L12,1          ; |124| 
    2281                            .dwpsn  file "./../packages/ti/vlib/src/VLIB_houghLineFromList/VLIB_houghLineFromList_d.c",lin
    2282                               ; BRANCHCC OCCURS {$C$L8}         ; |119| 
    2283 000005cc           $C$DW$L$VLIB_houghLineFromList_d$22$E:
    2284                    ;** --------------------------------------------------------------------------*
    2285 000005cc           $C$DW$L$VLIB_houghLineFromList_d$23$B:
    2286                    ;          EXCLUSIVE CPU CYCLES: 2
    2287                    ;** 120 -----------------------    printf((const char *)"|  %d | FAIL - Error: Cos table initializatio
    2288                    ;** 121 -----------------------    fail = 1;
    2289                            .dwpsn  file "./../packages/ti/vlib/src/VLIB_houghLineFromList/VLIB_houghLineFromList_d.c",lin
    2290 000005cc 023c22f6             STW     .D2T2   B4,*+SP(4)        ; |120| 
    2291                    
    2292 000005d0 073c42f5             STW     .D2T1   A14,*+SP(8)       ; |120| 
    2293 000005d4 01860162  ||         ADDKPC  .S2     $C$RL27,B3,0      ; |120| 
    2294                    
    2295 000005d8           $C$RL27:   ; CALL OCCURS {printf} {0}        ; |120| 
    2296 000005d8           $C$DW$L$VLIB_houghLineFromList_d$23$E:
    2297                    ;** --------------------------------------------------------------------------*
    2298 000005d8           $C$DW$L$VLIB_houghLineFromList_d$24$B:
    2299                    ;          EXCLUSIVE CPU CYCLES: 4
    2300                            .dwpsn  file "./../packages/ti/vlib/src/VLIB_houghLineFromList/VLIB_houghLineFromList_d.c",lin
    2301 000005d8 0504a358             MVK     .L1     0x1,A10           ; |121| 
    2302 000005dc 00280fd8             MV      .L1     A10,A0
    2303                            .dwpsn  file "./../packages/ti/vlib/src/VLIB_houghLineFromList/VLIB_houghLineFromList_d.c",lin
    2304 000005e0 c0b22120     [ A0]   BNOP    .S1     $C$L12,1          ; |124| 
    2305 000005e4           $C$DW$L$VLIB_houghLineFromList_d$24$E:
    2306                    ;** --------------------------------------------------------------------------*
    2307 000005e4           $C$L8:    
    2308                            .dwpsn  file "./../packages/ti/vlib/src/VLIB_houghLineFromList/VLIB_houghLineFromList_d.c",lin
    2309 000005e4           $C$DW$L$VLIB_houghLineFromList_d$25$B:
    2310                    ;          EXCLUSIVE CPU CYCLES: 4
TMS320C6x Assembler PC v7.4.2 Thu Mar 19 12:42:01 2015

Tools Copyright (c) 1996-2012 Texas Instruments Incorporated
package/lib/Regression/regress_d_c/./../packages/ti/vlib/src/VLIB_houghLineFromList/VLIB_houghLineFromList_d.se66 PAGE   43

    2311                    ;**     -----------------------g19:
    2312                    ;** 124 -----------------------    if ( fail ) goto g25;
    2313                            .dwpsn  file ".\..\packages\ti\vlib\src\VLIB_houghLineFromList\..\common\VLIB_profile.h",line 
    2314                    $C$DW$219       .dwtag  DW_TAG_TI_branch
    2315                            .dwattr $C$DW$219, DW_AT_low_pc(0x00)
    2316                            .dwattr $C$DW$219, DW_AT_name("VLIB_cache_inval")
    2317                            .dwattr $C$DW$219, DW_AT_TI_call
    2318 000005e4 d0000010!    [!A0]   CALL    .S1     VLIB_cache_inval  ; |140| 
    2319                            .dwpsn  file "./../packages/ti/vlib/src/VLIB_houghLineFromList/VLIB_houghLineFromList_d.c",lin
    2320                    $C$DW$220       .dwtag  DW_TAG_TI_branch
    2321                            .dwattr $C$DW$220, DW_AT_low_pc(0x00)
    2322                            .dwattr $C$DW$220, DW_AT_name("free")
    2323                            .dwattr $C$DW$220, DW_AT_TI_call
    2324 000005e8 c0000010!    [ A0]   CALL    .S1     free              ; |188| 
    2325 000005ec c23ee2e4     [ A0]   LDW     .D2T1   *+SP(92),A4       ; |188| 
    2326 000005f0 d5800028!    [!A0]   MVKL    .S1     act_kernel,A11
    2327                            .dwpsn  file "./../packages/ti/vlib/src/VLIB_houghLineFromList/VLIB_houghLineFromList_d.c",lin
    2328                               ; BRANCHCC OCCURS {$C$L12}        ; |124| 
    2329 000005f4           $C$DW$L$VLIB_houghLineFromList_d$25$E:
    2330                    ;** --------------------------------------------------------------------------*
    2331 000005f4           $C$DW$L$VLIB_houghLineFromList_d$26$B:
    2332                    ;          EXCLUSIVE CPU CYCLES: 2
    2333                    ;** 137 -----------------------    act_kernel = 0;  // [20]
    2334                    ;** 140 -----------------------    VLIB_cache_inval();  // [20]
    2335                    ;** 143 -----------------------    initStack(getSP());  // [20]
    2336                    ;** 146 -----------------------    beg_count = _itoll(TSCH, TSCL);  // [20]
    2337                    ;** 127 -----------------------    VLIB_houghLineFromList(pEdgeMapList, pOutHoughSpace, (*U$12).outBlk
    2338                    ;** 153 -----------------------    v$2 = _itoll(TSCH, TSCL);  // [21]
    2339                    ;** 153 -----------------------    end_count = v$2;  // [21]
    2340                    ;** 156 -----------------------    C$6 = act_kernel;  // [21]
    2341                    ;** 156 -----------------------    C$5 = &cycles[0];  // [21]
    2342                    ;** 156 -----------------------    *((C$6<<3)+C$5) = *((C$6<<3)+C$5)+(v$2-(beg_count+overhead));  // [
    2343                    ;** 159 -----------------------    setStackDepth();  // [21]
    2344                    ;** 137 -----------------------    act_kernel = 1;  // [20]
    2345                    ;** 140 -----------------------    VLIB_cache_inval();  // [20]
    2346                    ;** 143 -----------------------    initStack(getSP());  // [20]
    2347                    ;** 146 -----------------------    beg_count = _itoll(TSCH, TSCL);  // [20]
    2348                    ;** 145 -----------------------    VLIB_houghLineFromList_cn(pEdgeMapList, pOutHoughSpace_cn, (*U$12).
    2349                    ;** 153 -----------------------    v$2 = _itoll(TSCH, TSCL);  // [21]
    2350                    ;** 153 -----------------------    end_count = v$2;  // [21]
    2351                    ;** 156 -----------------------    C$4 = (act_kernel<<3)+C$5;  // [21]
    2352                    ;** 156 -----------------------    *C$4 = *C$4+(v$2-(beg_count+overhead));  // [21]
    2353                    ;** 159 -----------------------    setStackDepth();  // [21]
    2354                    ;** 163 -----------------------    U$152 = U$24;
    2355                    ;** 163 -----------------------    status_nat_vs_int = VLIB_compare_mem((void *)pOutHoughSpace, (void 
    2356                    
    2357 000005f4 0180a359             ZERO    .L1     A3                ; |137| 
    2358 000005f8 05800068! ||         MVKH    .S1     act_kernel,A11
    2359                    
    2360 000005fc 01ac0275             STW     .D1T1   A3,*A11           ; |137| 
    2361 00000600 01810162  ||         ADDKPC  .S2     $C$RL28,B3,0      ; |140| 
    2362                    
    2363                            .dwpsn  file ".\..\packages\ti\vlib\src\VLIB_houghLineFromList\..\common\VLIB_profile.h",line 
    2364                    $C$RL28:   ; CALL OCCURS {VLIB_cache_inval} {0}  ; |140| 
    2365                    $C$DW$L$VLIB_houghLineFromList_d$26$E:
TMS320C6x Assembler PC v7.4.2 Thu Mar 19 12:42:01 2015

Tools Copyright (c) 1996-2012 Texas Instruments Incorporated
package/lib/Regression/regress_d_c/./../packages/ti/vlib/src/VLIB_houghLineFromList/VLIB_houghLineFromList_d.se66 PAGE   44

    2366                    ;** --------------------------------------------------------------------------*
    2367                    $C$DW$L$VLIB_houghLineFromList_d$27$B:
    2368                    ;          EXCLUSIVE CPU CYCLES: 136
    2369                    $C$DW$221       .dwtag  DW_TAG_TI_branch
    2370                            .dwattr $C$DW$221, DW_AT_low_pc(0x00)
    2371                            .dwattr $C$DW$221, DW_AT_name("getSP")
    2372                            .dwattr $C$DW$221, DW_AT_TI_call
    2373 00000604 10000012!            CALLP   .S2     getSP,B3
    2374                            .dwpsn  file ".\..\packages\ti\vlib\src\VLIB_houghLineFromList\..\common\VLIB_profile.h",line 
    2375                    $C$RL29:   ; CALL OCCURS {getSP} {0}         ; |143| 
    2376                    $C$DW$222       .dwtag  DW_TAG_TI_branch
    2377                            .dwattr $C$DW$222, DW_AT_low_pc(0x00)
    2378                            .dwattr $C$DW$222, DW_AT_name("initStack")
    2379                            .dwattr $C$DW$222, DW_AT_TI_call
    2380 00000608 10000012!            CALLP   .S2     initStack,B3
    2381 0000060c           $C$RL30:   ; CALL OCCURS {initStack} {0}     ; |143| 
    2382                            .dwpsn  file ".\..\packages\ti\vlib\src\VLIB_houghLineFromList\..\common\VLIB_profile.h",line 
    2383 0000060c 022803e2             MVC     .S2     TSCL,B4           ; |146| 
    2384 00000610 02ac03e2             MVC     .S2     TSCH,B5           ; |146| 
    2385                            .dwpsn  file "./../packages/ti/vlib/src/VLIB_houghLineFromList/VLIB_houghLineFromList_d.c",lin
    2386 00000614 01be62e4             LDW     .D2T1   *+SP(76),A3       ; |127| 
    2387 00000618 0fbe82e4             LDW     .D2T1   *+SP(80),A31      ; |127| 
    2388 0000061c 023de2e4             LDW     .D2T1   *+SP(60),A4       ; |127| 
    2389 00000620 052d4284             LDHU    .D2T1   *+B11(20),A10     ; |127| 
    2390 00000624 042d2286             LDHU    .D2T2   *+B11(18),B8      ; |127| 
    2391 00000628 01bc22f4             STW     .D2T1   A3,*+SP(4)        ; |127| 
    2392 0000062c 042d0284             LDHU    .D2T1   *+B11(16),A8      ; |127| 
    2393 00000630 032ce286             LDHU    .D2T2   *+B11(14),B6      ; |127| 
    2394 00000634 032cc284             LDHU    .D2T1   *+B11(12),A6      ; |127| 
    2395 00000638 063e42e6             LDW     .D2T2   *+SP(72),B12      ; |127| 
    2396 0000063c 063ee2e4             LDW     .D2T1   *+SP(92),A12      ; |127| 
    2397 00000640 0680002a!            MVKL    .S2     beg_count,B13
    2398 00000644 01bea2e4             LDW     .D2T1   *+SP(84),A3       ; |127| 
    2399 00000648 0680006a!            MVKH    .S2     beg_count,B13
    2400 0000064c 053ec2e6             LDW     .D2T2   *+SP(88),B10      ; |127| 
    2401                            .dwpsn  file ".\..\packages\ti\vlib\src\VLIB_houghLineFromList\..\common\VLIB_profile.h",line 
    2402 00000650 023403c6             STDW    .D2T2   B5:B4,*B13        ; |146| 
    2403                            .dwpsn  file "./../packages/ti/vlib/src/VLIB_houghLineFromList/VLIB_houghLineFromList_d.c",lin
    2404 00000654 0fbc42f4             STW     .D2T1   A31,*+SP(8)       ; |127| 
    2405 00000658     9e4d             LDW     .D2T2   *+SP(64),B4       ; |127| 
    2406 0000065a     ec35             STW     .D2T1   A3,*+SP(12)       ; |127| 
    2407                    $C$DW$223       .dwtag  DW_TAG_TI_branch
    2408                            .dwattr $C$DW$223, DW_AT_low_pc(0x00)
    2409                            .dwattr $C$DW$223, DW_AT_name("VLIB_houghLineFromList")
    2410                            .dwattr $C$DW$223, DW_AT_TI_call
    2411 00000660 10000012!            CALLP   .S2     VLIB_houghLineFromList,B3
    2412 00000664           $C$RL31:   ; CALL OCCURS {VLIB_houghLineFromList} {0}  ; |127| 
    2413                            .dwpsn  file ".\..\packages\ti\vlib\src\VLIB_houghLineFromList\..\common\VLIB_profile.h",line 
    2414 00000664 022803e2             MVC     .S2     TSCL,B4           ; |153| 
    2415 00000668 02ac03e2             MVC     .S2     TSCH,B5           ; |153| 
    2416                    
    2417 0000066c 07800029!            MVKL    .S1     overhead,A15
    2418 00000670 04ac1fda  ||         MV      .L2X    A11,B9
    2419                    
    2420 00000674 07800069!            MVKH    .S1     overhead,A15
TMS320C6x Assembler PC v7.4.2 Thu Mar 19 12:42:01 2015

Tools Copyright (c) 1996-2012 Texas Instruments Incorporated
package/lib/Regression/regress_d_c/./../packages/ti/vlib/src/VLIB_houghLineFromList/VLIB_houghLineFromList_d.se66 PAGE   45

    2421 00000678 01a402e4  ||         LDW     .D2T1   *B9,A3            ; |156| 
    2422                    
    2423 0000067c 033c0365             LDDW    .D1T1   *A15,A7:A6        ; |156| 
    2424 00000680 033403e6  ||         LDDW    .D2T2   *B13,B7:B6        ; |156| 
    2425                    
    2426 00000684 0400002a!            MVKL    .S2     cycles,B8
    2427 00000688 0400006a!            MVKH    .S2     cycles,B8
    2428 0000068c 00000000             NOP             1
    2429                            .dwpsn  file ".\..\packages\ti\vlib\src\VLIB_houghLineFromList\..\common\VLIB_profile.h",line 
    2430 00000690 06a01fd8             MV      .L1X    B8,A13            ; |156| 
    2431                    
    2432 00000694 0218d579             ADDU    .L1X    A6,B6,A5:A4       ; |156| 
    2433 00000698 04346b64  ||         LDDW    .D1T1   *+A13[A3],A9:A8   ; |156| 
    2434                    
    2435 0000069c 031ca078             ADD     .L1     A5,A7,A6          ; |156| 
    2436 000006a0 021097f8             SUBU    .L1X    B4,A4,A5:A4       ; |156| 
    2437 000006a4     f361             ADD     .L2X    A6,B7,B6          ; |156| 
    2438                    
    2439 000006a8 03800028!            MVKL    .S1     end_count,A7
    2440 000006a6     ab61  ||         SUB     .L2     B5,B6,B6          ; |156| 
    2441                    
    2442 000006ac 0f971849             EXT     .S1     A5,24,24,A31      ; |156| 
    2443 000006b0 02110578  ||         ADDU    .L1     A8,A4,A5:A4       ; |156| 
    2444                    
    2445 000006b4 031bf079             ADD     .L1X    B6,A31,A6         ; |156| 
    2446 000006b8 02952841  ||         ADD     .D1     A5,A9,A5          ; |156| 
    2447 000006c0 03800068! ||         MVKH    .S1     end_count,A7
    2448                    
    2449 000006c4     a350             ADD     .L1     A5,A6,A5          ; |156| 
    2450 000006c6     11c4  ||         STDW    .D1T2   B5:B4,*A7         ; |153| 
    2451                    
    2452                    $C$DW$224       .dwtag  DW_TAG_TI_branch
    2453                            .dwattr $C$DW$224, DW_AT_low_pc(0x00)
    2454                            .dwattr $C$DW$224, DW_AT_name("setStackDepth")
    2455                            .dwattr $C$DW$224, DW_AT_TI_call
    2456                    
    2457 000006c8 10000013!            CALLP   .S2     setStackDepth,B3
    2458 000006cc 02346b44  ||         STDW    .D1T1   A5:A4,*+A13[A3]   ; |156| 
    2459                    
    2460                            .dwpsn  file ".\..\packages\ti\vlib\src\VLIB_houghLineFromList\..\common\VLIB_profile.h",line 
    2461 000006d0           $C$RL32:   ; CALL OCCURS {setStackDepth} {0}  ; |159| 
    2462                            .dwpsn  file ".\..\packages\ti\vlib\src\VLIB_houghLineFromList\..\common\VLIB_profile.h",line 
    2463 000006d0 0204a35a             MVK     .L2     1,B4              ; |137| 
    2464                    $C$DW$225       .dwtag  DW_TAG_TI_branch
    2465                            .dwattr $C$DW$225, DW_AT_low_pc(0x00)
    2466                            .dwattr $C$DW$225, DW_AT_name("VLIB_cache_inval")
    2467                            .dwattr $C$DW$225, DW_AT_TI_call
    2468                    
    2469 000006d4 10000013!            CALLP   .S2     VLIB_cache_inval,B3
    2470 000006d8 022c0276  ||         STW     .D1T2   B4,*A11           ; |137| 
    2471                    
    2472                            .dwpsn  file ".\..\packages\ti\vlib\src\VLIB_houghLineFromList\..\common\VLIB_profile.h",line 
    2473                    $C$RL33:   ; CALL OCCURS {VLIB_cache_inval} {0}  ; |140| 
    2474                    $C$DW$226       .dwtag  DW_TAG_TI_branch
    2475                            .dwattr $C$DW$226, DW_AT_low_pc(0x00)
TMS320C6x Assembler PC v7.4.2 Thu Mar 19 12:42:01 2015

Tools Copyright (c) 1996-2012 Texas Instruments Incorporated
package/lib/Regression/regress_d_c/./../packages/ti/vlib/src/VLIB_houghLineFromList/VLIB_houghLineFromList_d.se66 PAGE   46

    2476                            .dwattr $C$DW$226, DW_AT_name("getSP")
    2477                            .dwattr $C$DW$226, DW_AT_TI_call
    2478 000006e0 10000012!            CALLP   .S2     getSP,B3
    2479                            .dwpsn  file ".\..\packages\ti\vlib\src\VLIB_houghLineFromList\..\common\VLIB_profile.h",line 
    2480                    $C$RL34:   ; CALL OCCURS {getSP} {0}         ; |143| 
    2481                    $C$DW$227       .dwtag  DW_TAG_TI_branch
    2482                            .dwattr $C$DW$227, DW_AT_low_pc(0x00)
    2483                            .dwattr $C$DW$227, DW_AT_name("initStack")
    2484                            .dwattr $C$DW$227, DW_AT_TI_call
    2485 000006e4 10000012!            CALLP   .S2     initStack,B3
    2486 000006e8           $C$RL35:   ; CALL OCCURS {initStack} {0}     ; |143| 
    2487                            .dwpsn  file ".\..\packages\ti\vlib\src\VLIB_houghLineFromList\..\common\VLIB_profile.h",line 
    2488 000006e8 022803e2             MVC     .S2     TSCL,B4           ; |146| 
    2489 000006ec 02ac03e2             MVC     .S2     TSCH,B5           ; |146| 
    2490                            .dwpsn  file "./../packages/ti/vlib/src/VLIB_houghLineFromList/VLIB_houghLineFromList_d.c",lin
    2491 000006f0 01be62e4             LDW     .D2T1   *+SP(76),A3       ; |145| 
    2492                            .dwpsn  file ".\..\packages\ti\vlib\src\VLIB_houghLineFromList\..\common\VLIB_profile.h",line 
    2493 000006f4 023403c6             STDW    .D2T2   B5:B4,*B13        ; |146| 
    2494                            .dwpsn  file "./../packages/ti/vlib/src/VLIB_houghLineFromList/VLIB_houghLineFromList_d.c",lin
    2495 000006f8 0fbe82e4             LDW     .D2T1   *+SP(80),A31      ; |145| 
    2496 000006fc 023de2e4             LDW     .D2T1   *+SP(60),A4       ; |145| 
    2497 00000700 042d2286             LDHU    .D2T2   *+B11(18),B8      ; |145| 
    2498 00000704 01bc22f4             STW     .D2T1   A3,*+SP(4)        ; |145| 
    2499 00000708 042d0284             LDHU    .D2T1   *+B11(16),A8      ; |145| 
    2500 0000070c 032ce286             LDHU    .D2T2   *+B11(14),B6      ; |145| 
    2501 00000710 01bea2e4             LDW     .D2T1   *+SP(84),A3       ; |145| 
    2502 00000714 032cc284             LDHU    .D2T1   *+B11(12),A6      ; |145| 
    2503 00000718 052d4284             LDHU    .D2T1   *+B11(20),A10     ; |145| 
    2504 0000071c 023e22e6             LDW     .D2T2   *+SP(68),B4       ; |145| 
    2505 00000720 0fbc42f4             STW     .D2T1   A31,*+SP(8)       ; |145| 
    2506 00000724 01bc62f4             STW     .D2T1   A3,*+SP(12)       ; |145| 
    2507                    $C$DW$228       .dwtag  DW_TAG_TI_branch
    2508                            .dwattr $C$DW$228, DW_AT_low_pc(0x00)
    2509                            .dwattr $C$DW$228, DW_AT_name("VLIB_houghLineFromList_cn")
    2510                            .dwattr $C$DW$228, DW_AT_TI_call
    2511 00000728 10000012!            CALLP   .S2     VLIB_houghLineFromList_cn,B3
    2512 0000072c           $C$RL36:   ; CALL OCCURS {VLIB_houghLineFromList_cn} {0}  ; |145| 
    2513                            .dwpsn  file ".\..\packages\ti\vlib\src\VLIB_houghLineFromList\..\common\VLIB_profile.h",line 
    2514 0000072c 032803e2             MVC     .S2     TSCL,B6           ; |153| 
    2515 00000730 03ac03e2             MVC     .S2     TSCH,B7           ; |153| 
    2516                            .dwpsn  file ".\..\packages\ti\vlib\src\VLIB_houghLineFromList\..\common\VLIB_profile.h",line 
    2517 00000734 01ac0264             LDW     .D1T1   *A11,A3           ; |156| 
    2518 00000738 043403e6             LDDW    .D2T2   *B13,B9:B8        ; |156| 
    2519 0000073c 023c0364             LDDW    .D1T1   *A15,A5:A4        ; |156| 
    2520 00000740 00002000             NOP             2
    2521 00000744 04347e40             ADDAD   .D1     A13,A3,A8         ; |156| 
    2522 00000748 03200364             LDDW    .D1T1   *A8,A7:A6         ; |156| 
    2523 0000074c 0211157a             ADDU    .L2X    A4,B8,B5:B4       ; |156| 
    2524 00000750 0414b07a             ADD     .L2X    B5,A5,B8          ; |156| 
    2525                    
    2526 00000754 042501e3             ADD     .S2     B8,B9,B8          ; |156| 
    2527 00000758 0210c5fa  ||         SUBU    .L2     B6,B4,B5:B4       ; |156| 
    2528                    
    2529 0000075c 0fa0e0fb             SUB     .L2     B7,B8,B31         ; |156| 
    2530 00000760 0297184a  ||         EXT     .S2     B5,24,24,B5       ; |156| 
TMS320C6x Assembler PC v7.4.2 Thu Mar 19 12:42:01 2015

Tools Copyright (c) 1996-2012 Texas Instruments Incorporated
package/lib/Regression/regress_d_c/./../packages/ti/vlib/src/VLIB_houghLineFromList/VLIB_houghLineFromList_d.se66 PAGE   47

    2531                    
    2532 00000764 0210d579             ADDU    .L1X    A6,B4,A5:A4       ; |156| 
    2533 00000768 0217e07b  ||         ADD     .L2     B31,B5,B4         ; |156| 
    2534 0000076c 01800028! ||         MVKL    .S1     end_count,A3
    2535                    
    2536 00000774     a3d0             ADD     .L1     A5,A7,A5          ; |156| 
    2537 00000770 01800069! ||         MVKH    .S1     end_count,A3
    2538                    
    2539 00000776     b250             ADD     .L1X    A5,B4,A5          ; |156| 
    2540 00000778 030c0346  ||         STDW    .D1T2   B7:B6,*A3         ; |153| 
    2541                    
    2542                    $C$DW$229       .dwtag  DW_TAG_TI_branch
    2543                            .dwattr $C$DW$229, DW_AT_low_pc(0x00)
    2544                            .dwattr $C$DW$229, DW_AT_name("setStackDepth")
    2545                            .dwattr $C$DW$229, DW_AT_TI_call
    2546                    
    2547 00000780 10000013!            CALLP   .S2     setStackDepth,B3
    2548 00000784 02200344  ||         STDW    .D1T1   A5:A4,*A8         ; |156| 
    2549                    
    2550                            .dwpsn  file ".\..\packages\ti\vlib\src\VLIB_houghLineFromList\..\common\VLIB_profile.h",line 
    2551 00000788           $C$RL37:   ; CALL OCCURS {setStackDepth} {0}  ; |159| 
    2552 00000788 05bda2e4             LDW     .D2T1   *+SP(52),A11      ; |159| 
    2553                            .dwpsn  file "./../packages/ti/vlib/src/VLIB_houghLineFromList/VLIB_houghLineFromList_d.c",lin
    2554 0000078c     8e4d             LDW     .D2T1   *+SP(64),A4       ; |163| 
    2555 0000078e     be4d             LDW     .D2T2   *+SP(68),B4       ; |163| 
    2556 00000790     2c6e             NOP             2
    2557                    $C$DW$230       .dwtag  DW_TAG_TI_branch
    2558                            .dwattr $C$DW$230, DW_AT_low_pc(0x04)
    2559                            .dwattr $C$DW$230, DW_AT_name("VLIB_compare_mem")
    2560                            .dwattr $C$DW$230, DW_AT_TI_call
    2561                    
    2562 00000792     c586             MV      .L1     A11,A6            ; |163| 
    2563 00000794 10000012! ||         CALLP   .S2     VLIB_compare_mem,B3
    2564                    
    2565 00000798           $C$RL38:   ; CALL OCCURS {VLIB_compare_mem} {0}  ; |163| 
    2566 00000798           $C$DW$L$VLIB_houghLineFromList_d$27$E:
    2567                    ;** --------------------------------------------------------------------------*
    2568 00000798           $C$DW$L$VLIB_houghLineFromList_d$28$B:
    2569                    ;          EXCLUSIVE CPU CYCLES: 11
    2570                    ;** 166 -----------------------    v$1 = prm;
    2571                    ;** 166 -----------------------    U$154 = (*U$12).staticOut;
    2572                    ;** 166 -----------------------    if ( U$154 ) goto g22;
    2573                    ;** 78  -----------------------    status_nat_vs_ref = 1;
    2574                    ;**     -----------------------    goto g23;
    2575                            .dwpsn  file "./../packages/ti/vlib/src/VLIB_houghLineFromList/VLIB_houghLineFromList_d.c",lin
    2576 00000798 002c42e6             LDW     .D2T2   *+B11(8),B0       ; |166| 
    2577                            .dwpsn  file "./../packages/ti/vlib/src/VLIB_houghLineFromList/VLIB_houghLineFromList_d.c",lin
    2578 000007a0     2627             MVK     .L2     0x1,B4            ; |78| 
    2579                            .dwpsn  file "./../packages/ti/vlib/src/VLIB_houghLineFromList/VLIB_houghLineFromList_d.c",lin
    2580 000007a2     ecbd             LDW     .D2T1   *+SP(28),A3       ; |166| 
    2581                            .dwpsn  file "./../packages/ti/vlib/src/VLIB_houghLineFromList/VLIB_houghLineFromList_d.c",lin
    2582 000007a4     4646             MV      .L1     A4,A10            ; |163| 
    2583 000007a6     0c6e             NOP             1
    2584 000007a8 30000590     [!B0]   B       .S1     $C$L9
    2585                            .dwpsn  file "./../packages/ti/vlib/src/VLIB_houghLineFromList/VLIB_houghLineFromList_d.c",lin
TMS320C6x Assembler PC v7.4.2 Thu Mar 19 12:42:01 2015

Tools Copyright (c) 1996-2012 Texas Instruments Incorporated
package/lib/Regression/regress_d_c/./../packages/ti/vlib/src/VLIB_houghLineFromList/VLIB_houghLineFromList_d.se66 PAGE   48

    2586                    $C$DW$231       .dwtag  DW_TAG_TI_branch
    2587                            .dwattr $C$DW$231, DW_AT_low_pc(0x00)
    2588                            .dwattr $C$DW$231, DW_AT_name("VLIB_compare_mem")
    2589                            .dwattr $C$DW$231, DW_AT_TI_call
    2590 000007ac 20000010!    [ B0]   CALL    .S1     VLIB_compare_mem  ; |167| 
    2591 000007b0 223e22e6     [ B0]   LDW     .D2T2   *+SP(68),B4       ; |167| 
    2592                            .dwpsn  file "./../packages/ti/vlib/src/VLIB_houghLineFromList/VLIB_houghLineFromList_d.c",lin
    2593 000007b4 323dc2f6     [!B0]   STW     .D2T2   B4,*+SP(56)       ; |78| 
    2594 000007b8     2c6e             NOP             2
    2595                               ; BRANCHCC OCCURS {$C$L9}  
    2596 000007c0           $C$DW$L$VLIB_houghLineFromList_d$28$E:
    2597                    ;** --------------------------------------------------------------------------*
    2598                            .dwpsn  file "./../packages/ti/vlib/src/VLIB_houghLineFromList/VLIB_houghLineFromList_d.c",lin
    2599 000007c0           $C$DW$L$VLIB_houghLineFromList_d$29$B:
    2600                    ;          EXCLUSIVE CPU CYCLES: 1
    2601                    ;**     -----------------------g22:
    2602                    ;** 167 -----------------------    status_nat_vs_ref = VLIB_compare_mem((void *)U$154, (void *)pOutHou
    2603                    ;** 167 -----------------------    v$1 = prm;
    2604                    
    2605 000007c0     c586             MV      .L1     A11,A6            ; |167| 
    2606 000007c2     904e  ||         MV      .S1X    B0,A4             ; |167| 
    2607 000007c4 01820162  ||         ADDKPC  .S2     $C$RL39,B3,0      ; |167| 
    2608                    
    2609                            .dwpsn  file "./../packages/ti/vlib/src/VLIB_houghLineFromList/VLIB_houghLineFromList_d.c",lin
    2610 000007c8           $C$RL39:   ; CALL OCCURS {VLIB_compare_mem} {0}  ; |167| 
    2611 000007c8           $C$DW$L$VLIB_houghLineFromList_d$29$E:
    2612                    ;** --------------------------------------------------------------------------*
    2613 000007c8           $C$DW$L$VLIB_houghLineFromList_d$30$B:
    2614                    ;          EXCLUSIVE CPU CYCLES: 2
    2615 000007c8     ecbd             LDW     .D2T1   *+SP(28),A3       ; |167| 
    2616 000007ca     cdc5             STW     .D2T1   A4,*+SP(56)       ; |167| 
    2617 000007cc           $C$DW$L$VLIB_houghLineFromList_d$30$E:
    2618                    ;** --------------------------------------------------------------------------*
    2619 000007cc           $C$L9:    
    2620 000007cc           $C$DW$L$VLIB_houghLineFromList_d$31$B:
    2621                    ;          EXCLUSIVE CPU CYCLES: 19
    2622                    ;**     -----------------------g23:
    2623                    ;** 173 -----------------------    est_test = 1;
    2624                    ;** 176 -----------------------    C$3 = U$11+v$1;
    2625                    ;** 176 -----------------------    sprintf(K$165, (const char *)"%s generated input | Opt results comp
    2626                    ;** 178 -----------------------    VLIB_formula_add_test((int)_mpyu((*U$12).listSize, (*U$12).thetaRan
    2627                    ;** 178 -----------------------    goto g25;
    2628                            .dwpsn  file "./../packages/ti/vlib/src/VLIB_houghLineFromList/VLIB_houghLineFromList_d.c",lin
    2629 000007cc 023d82e4             LDW     .D2T1   *+SP(48),A4       ; |176| 
    2630 000007d0 03000028!            MVKL    .S1     testPatternString,A6
    2631 000007d4 03000068!            MVKH    .S1     testPatternString,A6
    2632 000007d8 033c42f4             STW     .D2T1   A6,*+SP(8)        ; |176| 
    2633 000007e0 0200002a!            MVKL    .S2     $C$SL4+0,B4
    2634 000007e4 01906078             ADD     .L1     A3,A4,A3          ; |176| 
    2635 000007e8 028d2204             LDHU    .D1T1   *+A3(18),A5       ; |176| 
    2636                    
    2637 000007ec 020d4205             LDHU    .D1T1   *+A3(20),A4       ; |176| 
    2638 000007f0 0280002a! ||         MVKL    .S2     est_test,B5
    2639                    
    2640 000007f4 018d0205             LDHU    .D1T1   *+A3(16),A3       ; |176| 
TMS320C6x Assembler PC v7.4.2 Thu Mar 19 12:42:01 2015

Tools Copyright (c) 1996-2012 Texas Instruments Incorporated
package/lib/Regression/regress_d_c/./../packages/ti/vlib/src/VLIB_houghLineFromList/VLIB_houghLineFromList_d.se66 PAGE   49

    2641 000007f8 0200006a! ||         MVKH    .S2     $C$SL4+0,B4
    2642                    
    2643 000007fc 0304a359             MVK     .L1     1,A6              ; |173| 
    2644 00000800 0280006b! ||         MVKH    .S2     est_test,B5
    2645 00000804     bc45  ||         STW     .D2T2   B4,*+SP(4)        ; |176| 
    2646                    
    2647                            .dwpsn  file "./../packages/ti/vlib/src/VLIB_houghLineFromList/VLIB_houghLineFromList_d.c",lin
    2648 00000806     00e5             STW     .D2T1   A6,*B5            ; |173| 
    2649                            .dwpsn  file "./../packages/ti/vlib/src/VLIB_houghLineFromList/VLIB_houghLineFromList_d.c",lin
    2650 00000808     8cd5             STW     .D2T1   A5,*+SP(16)       ; |176| 
    2651                    
    2652 0000080a     acc5             STW     .D2T1   A4,*+SP(20)       ; |176| 
    2653 0000080c 02000028! ||         MVKL    .S1     desc,A4
    2654                    
    2655                    $C$DW$232       .dwtag  DW_TAG_TI_branch
    2656                            .dwattr $C$DW$232, DW_AT_low_pc(0x00)
    2657                            .dwattr $C$DW$232, DW_AT_name("sprintf")
    2658                            .dwattr $C$DW$232, DW_AT_TI_call
    2659                    
    2660 00000810 10000013!            CALLP   .S2     sprintf,B3
    2661 00000814 02000069! ||         MVKH    .S1     desc,A4
    2662 00000818 01bc62f4  ||         STW     .D2T1   A3,*+SP(12)       ; |176| 
    2663                    
    2664 00000820           $C$RL40:   ; CALL OCCURS {sprintf} {0}       ; |176| 
    2665 00000820           $C$DW$L$VLIB_houghLineFromList_d$31$E:
    2666                    ;** --------------------------------------------------------------------------*
    2667 00000820           $C$DW$L$VLIB_houghLineFromList_d$32$B:
    2668                    ;          EXCLUSIVE CPU CYCLES: 15
    2669                            .dwpsn  file "./../packages/ti/vlib/src/VLIB_houghLineFromList/VLIB_houghLineFromList_d.c",lin
    2670 00000820 02ad2286             LDHU    .D2T2   *+B11(18),B5      ; |178| 
    2671 00000824 032d0286             LDHU    .D2T2   *+B11(16),B6      ; |178| 
    2672 00000828 023dc2e6             LDW     .D2T2   *+SP(56),B4       ; |178| 
    2673 0000082c 01a80a58             CMPEQ   .L1     A10,0,A3          ; |178| 
    2674 00000830 04000028!            MVKL    .S1     desc,A8
    2675 00000834 0400a35a             ZERO    .L2     B8                ; |178| 
    2676 00000838 0294cf82             MPYU    .M2     B6,B5,B5          ; |178| 
    2677 0000083c 02100a5a             CMPEQ   .L2     B4,0,B4           ; |178| 
    2678 00000840 030c9ffa             OR      .L2X    B4,A3,B6          ; |178| 
    2679                    $C$DW$233       .dwtag  DW_TAG_TI_branch
    2680                            .dwattr $C$DW$233, DW_AT_low_pc(0x0c)
    2681                            .dwattr $C$DW$233, DW_AT_name("VLIB_formula_add_test")
    2682                            .dwattr $C$DW$233, DW_AT_TI_call
    2683                    
    2684 00000844 0200a35b             ZERO    .L2     B4                ; |178| 
    2685 0000084c 04000069! ||         MVKH    .S1     desc,A8
    2686 00000848 0300a359  ||         ZERO    .L1     A6                ; |178| 
    2687 00000850 10000013! ||         CALLP   .S2     VLIB_formula_add_test,B3
    2688 00000854 021418f0  ||         MV      .D1X    B5,A4             ; |178| 
    2689                    
    2690 00000858           $C$RL41:   ; CALL OCCURS {VLIB_formula_add_test} {0}  ; |178| 
    2691 00000858           $C$DW$L$VLIB_houghLineFromList_d$32$E:
    2692                    ;** --------------------------------------------------------------------------*
    2693 00000858           $C$DW$L$VLIB_houghLineFromList_d$33$B:
    2694                    ;          EXCLUSIVE CPU CYCLES: 6
    2695 00000858 0016a121             BNOP    .S1     $C$L11,5          ; |178| 
TMS320C6x Assembler PC v7.4.2 Thu Mar 19 12:42:01 2015

Tools Copyright (c) 1996-2012 Texas Instruments Incorporated
package/lib/Regression/regress_d_c/./../packages/ti/vlib/src/VLIB_houghLineFromList/VLIB_houghLineFromList_d.se66 PAGE   50

    2696                               ; BRANCH OCCURS {$C$L11}          ; |178| 
    2697 00000860           $C$DW$L$VLIB_houghLineFromList_d$33$E:
    2698                    ;** --------------------------------------------------------------------------*
    2699 00000860           $C$L10:    
    2700                            .dwpsn  file "./../packages/ti/vlib/src/VLIB_houghLineFromList/VLIB_houghLineFromList_d.c",lin
    2701 00000860           $C$DW$L$VLIB_houghLineFromList_d$34$B:
    2702                    ;          EXCLUSIVE CPU CYCLES: 7
    2703                    ;**     -----------------------g24:
    2704                    ;** 182 -----------------------    sprintf(K$165, (const char *)"listSize=%d, thetaRange=%d, rhoMaxLen
    2705                    ;** 184 -----------------------    VLIB_skip_test(K$165);
    2706                    
    2707 00000860 02ad0287             LDHU    .D2T2   *+B11(16),B5      ; |182| 
    2708 00000864 0380002b! ||         MVKL    .S2     $C$SL5+0,B7
    2709 00000868 02000028! ||         MVKL    .S1     desc,A4
    2710                    
    2711                    $C$DW$234       .dwtag  DW_TAG_TI_branch
    2712                            .dwattr $C$DW$234, DW_AT_low_pc(0x00)
    2713                            .dwattr $C$DW$234, DW_AT_name("sprintf")
    2714                            .dwattr $C$DW$234, DW_AT_TI_call
    2715                    
    2716 0000086c 00000011!            CALL    .S1     sprintf           ; |182| 
    2717 00000870 032d4287  ||         LDHU    .D2T2   *+B11(20),B6      ; |182| 
    2718 00000874 0380006a! ||         MVKH    .S2     $C$SL5+0,B7
    2719                    
    2720 00000878 02000068!            MVKH    .S1     desc,A4
    2721                            .dwpsn  file "./../packages/ti/vlib/src/VLIB_houghLineFromList/VLIB_houghLineFromList_d.c",lin
    2722 0000087c 03bc22f6             STW     .D2T2   B7,*+SP(4)        ; |182| 
    2723 00000880     fc45             STW     .D2T2   B4,*+SP(12)       ; |182| 
    2724 00000882     dc55             STW     .D2T2   B5,*+SP(8)        ; |182| 
    2725                    
    2726 00000888 033c82f6             STW     .D2T2   B6,*+SP(16)       ; |182| 
    2727 00000884 01830163  ||         ADDKPC  .S2     $C$RL42,B3,0      ; |182| 
    2728                    
    2729 0000088c           $C$RL42:   ; CALL OCCURS {sprintf} {0}       ; |182| 
    2730 0000088c           $C$DW$L$VLIB_houghLineFromList_d$34$E:
    2731                    ;** --------------------------------------------------------------------------*
    2732 0000088c           $C$DW$L$VLIB_houghLineFromList_d$35$B:
    2733                    ;          EXCLUSIVE CPU CYCLES: 7
    2734 0000088c 02000028!            MVKL    .S1     desc,A4
    2735                    $C$DW$235       .dwtag  DW_TAG_TI_branch
    2736                            .dwattr $C$DW$235, DW_AT_low_pc(0x00)
    2737                            .dwattr $C$DW$235, DW_AT_name("VLIB_skip_test")
    2738                            .dwattr $C$DW$235, DW_AT_TI_call
    2739                    
    2740 00000890 10000013!            CALLP   .S2     VLIB_skip_test,B3
    2741 00000894 02000068! ||         MVKH    .S1     desc,A4
    2742                    
    2743                            .dwpsn  file "./../packages/ti/vlib/src/VLIB_houghLineFromList/VLIB_houghLineFromList_d.c",lin
    2744 00000898           $C$RL43:   ; CALL OCCURS {VLIB_skip_test} {0}  ; |184| 
    2745 00000898           $C$DW$L$VLIB_houghLineFromList_d$35$E:
    2746                    ;** --------------------------------------------------------------------------*
    2747 00000898           $C$L11:    
    2748 00000898           $C$DW$L$VLIB_houghLineFromList_d$36$B:
    2749                    ;          EXCLUSIVE CPU CYCLES: 3
    2750                            .dwpsn  file "./../packages/ti/vlib/src/VLIB_houghLineFromList/VLIB_houghLineFromList_d.c",lin
TMS320C6x Assembler PC v7.4.2 Thu Mar 19 12:42:01 2015

Tools Copyright (c) 1996-2012 Texas Instruments Incorporated
package/lib/Regression/regress_d_c/./../packages/ti/vlib/src/VLIB_houghLineFromList/VLIB_houghLineFromList_d.se66 PAGE   51

    2751                    $C$DW$236       .dwtag  DW_TAG_TI_branch
    2752                            .dwattr $C$DW$236, DW_AT_low_pc(0x00)
    2753                            .dwattr $C$DW$236, DW_AT_name("free")
    2754                            .dwattr $C$DW$236, DW_AT_TI_call
    2755 00000898 00000010!            CALL    .S1     free              ; |188| 
    2756 000008a0 023ee2e4             LDW     .D2T1   *+SP(92),A4       ; |188| 
    2757 000008a4 00000000             NOP             1
    2758 000008a8           $C$DW$L$VLIB_houghLineFromList_d$36$E:
    2759                    ;** --------------------------------------------------------------------------*
    2760 000008a8           $C$L12:    
    2761                            .dwpsn  file "./../packages/ti/vlib/src/VLIB_houghLineFromList/VLIB_houghLineFromList_d.c",lin
    2762 000008a8           $C$DW$L$VLIB_houghLineFromList_d$37$B:
    2763                    ;          EXCLUSIVE CPU CYCLES: 3
    2764                    ;**     -----------------------g25:
    2765                    ;** 188 -----------------------    free((void *)CosLUT);
    2766                    ;** 189 -----------------------    free((void *)SinLUT);
    2767                    ;** 190 -----------------------    VLIB_align_free((void *)peng);
    2768                    ;** 191 -----------------------    VLIB_align_free((void *)pang);
    2769                    ;** 192 -----------------------    VLIB_align_free((void *)pong);
    2770                    ;** 193 -----------------------    VLIB_align_free((void *)ping);
    2771                    ;** 194 -----------------------    free((void *)pOutHoughSpace_cn);
    2772                    ;** 195 -----------------------    free((void *)pOutHoughSpace);
    2773                    ;** 196 -----------------------    free((void *)pEdgeMapList);
    2774                    ;** 74  -----------------------    U$11 += 32;
    2775                    ;** 74  -----------------------    U$12 += 32;
    2776                    ;** 74  -----------------------    if ( test_cases > (++tpi) ) goto g3;
    2777                            .dwpsn  file "./../packages/ti/vlib/src/VLIB_houghLineFromList/VLIB_houghLineFromList_d.c",lin
    2778 000008a8 01834162             ADDKPC  .S2     $C$RL44,B3,2      ; |188| 
    2779                    $C$RL44:   ; CALL OCCURS {free} {0}          ; |188| 
    2780                    $C$DW$L$VLIB_houghLineFromList_d$37$E:
    2781                    ;** --------------------------------------------------------------------------*
    2782                    $C$DW$L$VLIB_houghLineFromList_d$38$B:
    2783                    ;          EXCLUSIVE CPU CYCLES: 48
    2784                    $C$DW$237       .dwtag  DW_TAG_TI_branch
    2785                            .dwattr $C$DW$237, DW_AT_low_pc(0x00)
    2786                            .dwattr $C$DW$237, DW_AT_name("free")
    2787                            .dwattr $C$DW$237, DW_AT_TI_call
    2788                    
    2789 000008ac 10000013!            CALLP   .S2     free,B3
    2790 000008b0 023ec2e4  ||         LDW     .D2T1   *+SP(88),A4       ; |189| 
    2791                    
    2792                            .dwpsn  file "./../packages/ti/vlib/src/VLIB_houghLineFromList/VLIB_houghLineFromList_d.c",lin
    2793                    $C$RL45:   ; CALL OCCURS {free} {0}          ; |189| 
    2794                    $C$DW$238       .dwtag  DW_TAG_TI_branch
    2795                            .dwattr $C$DW$238, DW_AT_low_pc(0x00)
    2796                            .dwattr $C$DW$238, DW_AT_name("VLIB_align_free")
    2797                            .dwattr $C$DW$238, DW_AT_TI_call
    2798                    
    2799 000008b4 10000013!            CALLP   .S2     VLIB_align_free,B3
    2800 000008b8 023ea2e5  ||         LDW     .D2T1   *+SP(84),A4       ; |190| 
    2801                    
    2802                            .dwpsn  file "./../packages/ti/vlib/src/VLIB_houghLineFromList/VLIB_houghLineFromList_d.c",lin
    2803                    $C$RL46:   ; CALL OCCURS {VLIB_align_free} {0}  ; |190| 
    2804                    $C$DW$239       .dwtag  DW_TAG_TI_branch
    2805                            .dwattr $C$DW$239, DW_AT_low_pc(0x00)
TMS320C6x Assembler PC v7.4.2 Thu Mar 19 12:42:01 2015

Tools Copyright (c) 1996-2012 Texas Instruments Incorporated
package/lib/Regression/regress_d_c/./../packages/ti/vlib/src/VLIB_houghLineFromList/VLIB_houghLineFromList_d.se66 PAGE   52

    2806                            .dwattr $C$DW$239, DW_AT_name("VLIB_align_free")
    2807                            .dwattr $C$DW$239, DW_AT_TI_call
    2808                    
    2809 000008c0 10000013!            CALLP   .S2     VLIB_align_free,B3
    2810 000008c4 023e82e4  ||         LDW     .D2T1   *+SP(80),A4       ; |191| 
    2811                    
    2812                            .dwpsn  file "./../packages/ti/vlib/src/VLIB_houghLineFromList/VLIB_houghLineFromList_d.c",lin
    2813                    $C$RL47:   ; CALL OCCURS {VLIB_align_free} {0}  ; |191| 
    2814                    $C$DW$240       .dwtag  DW_TAG_TI_branch
    2815                            .dwattr $C$DW$240, DW_AT_low_pc(0x00)
    2816                            .dwattr $C$DW$240, DW_AT_name("VLIB_align_free")
    2817                            .dwattr $C$DW$240, DW_AT_TI_call
    2818                    
    2819 000008c8 10000013!            CALLP   .S2     VLIB_align_free,B3
    2820 000008cc 023e62e4  ||         LDW     .D2T1   *+SP(76),A4       ; |192| 
    2821                    
    2822                            .dwpsn  file "./../packages/ti/vlib/src/VLIB_houghLineFromList/VLIB_houghLineFromList_d.c",lin
    2823                    $C$RL48:   ; CALL OCCURS {VLIB_align_free} {0}  ; |192| 
    2824                    $C$DW$241       .dwtag  DW_TAG_TI_branch
    2825                            .dwattr $C$DW$241, DW_AT_low_pc(0x00)
    2826                            .dwattr $C$DW$241, DW_AT_name("VLIB_align_free")
    2827                            .dwattr $C$DW$241, DW_AT_TI_call
    2828                    
    2829 000008d0 10000013!            CALLP   .S2     VLIB_align_free,B3
    2830 000008d4 023e42e4  ||         LDW     .D2T1   *+SP(72),A4       ; |193| 
    2831                    
    2832                            .dwpsn  file "./../packages/ti/vlib/src/VLIB_houghLineFromList/VLIB_houghLineFromList_d.c",lin
    2833                    $C$RL49:   ; CALL OCCURS {VLIB_align_free} {0}  ; |193| 
    2834                    $C$DW$242       .dwtag  DW_TAG_TI_branch
    2835                            .dwattr $C$DW$242, DW_AT_low_pc(0x00)
    2836                            .dwattr $C$DW$242, DW_AT_name("free")
    2837                            .dwattr $C$DW$242, DW_AT_TI_call
    2838                    
    2839 000008d8 10000013!            CALLP   .S2     free,B3
    2840 000008dc 023e22e4  ||         LDW     .D2T1   *+SP(68),A4       ; |194| 
    2841                    
    2842                            .dwpsn  file "./../packages/ti/vlib/src/VLIB_houghLineFromList/VLIB_houghLineFromList_d.c",lin
    2843                    $C$RL50:   ; CALL OCCURS {free} {0}          ; |194| 
    2844                    $C$DW$243       .dwtag  DW_TAG_TI_branch
    2845                            .dwattr $C$DW$243, DW_AT_low_pc(0x00)
    2846                            .dwattr $C$DW$243, DW_AT_name("free")
    2847                            .dwattr $C$DW$243, DW_AT_TI_call
    2848                    
    2849 000008e0 10000013!            CALLP   .S2     free,B3
    2850 000008e4 023e02e4  ||         LDW     .D2T1   *+SP(64),A4       ; |195| 
    2851                    
    2852                            .dwpsn  file "./../packages/ti/vlib/src/VLIB_houghLineFromList/VLIB_houghLineFromList_d.c",lin
    2853                    $C$RL51:   ; CALL OCCURS {free} {0}          ; |195| 
    2854                    $C$DW$244       .dwtag  DW_TAG_TI_branch
    2855                            .dwattr $C$DW$244, DW_AT_low_pc(0x00)
    2856                            .dwattr $C$DW$244, DW_AT_name("free")
    2857                            .dwattr $C$DW$244, DW_AT_TI_call
    2858                    
    2859 000008e8 10000013!            CALLP   .S2     free,B3
    2860 000008ec 023de2e4  ||         LDW     .D2T1   *+SP(60),A4       ; |196| 
TMS320C6x Assembler PC v7.4.2 Thu Mar 19 12:42:01 2015

Tools Copyright (c) 1996-2012 Texas Instruments Incorporated
package/lib/Regression/regress_d_c/./../packages/ti/vlib/src/VLIB_houghLineFromList/VLIB_houghLineFromList_d.se66 PAGE   53

    2861                    
    2862                            .dwpsn  file "./../packages/ti/vlib/src/VLIB_houghLineFromList/VLIB_houghLineFromList_d.c",lin
    2863 000008f0           $C$RL52:   ; CALL OCCURS {free} {0}          ; |196| 
    2864 000008f0           $C$DW$L$VLIB_houghLineFromList_d$38$E:
    2865                    ;** --------------------------------------------------------------------------*
    2866 000008f0           $C$DW$L$VLIB_houghLineFromList_d$39$B:
    2867                    ;          EXCLUSIVE CPU CYCLES: 14
    2868                    
    2869 000008f0 01800029!            MVKL    .S1     test_cases,A3
    2870 000008f4 023d82e6  ||         LDW     .D2T2   *+SP(48),B4       ; |74| 
    2871                    
    2872 000008f8 01800068!            MVKH    .S1     test_cases,A3
    2873                            .dwpsn  file "./../packages/ti/vlib/src/VLIB_houghLineFromList/VLIB_houghLineFromList_d.c",lin
    2874 000008fc 018c0264             LDW     .D1T1   *A3,A3            ; |74| 
    2875 00000900 05801052             ADDK    .S2     32,B11            ; |74| 
    2876 00000904 07382058             ADD     .L1     1,A14,A14         ; |74| 
    2877 00000908 02001052             ADDK    .S2     32,B4             ; |74| 
    2878 0000090c 023d82f6             STW     .D2T2   B4,*+SP(48)       ; |74| 
    2879 00000910 003868f8             CMPGT   .L1     A3,A14,A0         ; |74| 
    2880                    
    2881 00000914 ce3c4121     [ A0]   BNOP    .S1     $C$L3,2           ; |74| 
    2882 00000918 c22d0287  || [ A0]   LDHU    .D2T2   *+B11(16),B4      ; |84| 
    2883 0000091c c220a358  || [ A0]   MVK     .L1     0x8,A4            ; |84| 
    2884                    
    2885                            .dwpsn  file "./../packages/ti/vlib/src/VLIB_houghLineFromList/VLIB_houghLineFromList_d.c",lin
    2886 00000920 c62d2286     [ A0]   LDHU    .D2T2   *+B11(18),B12     ; |81| 
    2887 00000924 c52d4286     [ A0]   LDHU    .D2T2   *+B11(20),B10     ; |81| 
    2888                            .dwpsn  file "./../packages/ti/vlib/src/VLIB_houghLineFromList/VLIB_houghLineFromList_d.c",lin
    2889 00000928 01905ca0             SHL     .S1X    B4,2,A3           ; |84| 
    2890                            .dwpsn  file "./../packages/ti/vlib/src/VLIB_houghLineFromList/VLIB_houghLineFromList_d.c",lin
    2891                               ; BRANCHCC OCCURS {$C$L3}         ; |74| 
    2892 0000092c           $C$DW$L$VLIB_houghLineFromList_d$39$E:
    2893                    ;** --------------------------------------------------------------------------*
    2894 0000092c           $C$L13:    
    2895                    ;          EXCLUSIVE CPU CYCLES: 8
    2896                    ;**     -----------------------g26:
    2897                    ;** 200 -----------------------    VLIB_profile_cycle_report(2, "N = listSize * thetaRange", NULL);
    2898                    ;** 158 -----------------------    printf((const char *)"---------------------------------------------
    2899                    ;** 165 -----------------------    VLIB_stack_memory();  // [25]
    2900                    ;**     -----------------------    return;
    2901 0000092c 0200002a!            MVKL    .S2     $C$SL6+0,B4
    2902 00000930 0200006a!            MVKH    .S2     $C$SL6+0,B4
    2903                    $C$DW$245       .dwtag  DW_TAG_TI_branch
    2904                            .dwattr $C$DW$245, DW_AT_low_pc(0x00)
    2905                            .dwattr $C$DW$245, DW_AT_name("VLIB_profile_cycle_report")
    2906                            .dwattr $C$DW$245, DW_AT_TI_call
    2907                    
    2908 00000934 10000013!            CALLP   .S2     VLIB_profile_cycle_report,B3
    2909 00000938     4626  ||         MVK     .L1     0x2,A4            ; |200| 
    2910 0000093a     0312  ||         ZERO    .S1     A6                ; |200| 
    2911                    
    2912                            .dwpsn  file "./../packages/ti/vlib/src/VLIB_houghLineFromList/VLIB_houghLineFromList_d.c",lin
    2913 00000940           $C$RL53:   ; CALL OCCURS {VLIB_profile_cycle_report} {0}  ; |200| 
    2914                    ;** --------------------------------------------------------------------------*
    2915                    ;          EXCLUSIVE CPU CYCLES: 14
TMS320C6x Assembler PC v7.4.2 Thu Mar 19 12:42:01 2015

Tools Copyright (c) 1996-2012 Texas Instruments Incorporated
package/lib/Regression/regress_d_c/./../packages/ti/vlib/src/VLIB_houghLineFromList/VLIB_houghLineFromList_d.se66 PAGE   54

    2916 00000940 0200002a!            MVKL    .S2     $C$SL7+0,B4
    2917 00000944 0200006a!            MVKH    .S2     $C$SL7+0,B4
    2918                    $C$DW$246       .dwtag  DW_TAG_TI_branch
    2919                            .dwattr $C$DW$246, DW_AT_low_pc(0x00)
    2920                            .dwattr $C$DW$246, DW_AT_name("printf")
    2921                            .dwattr $C$DW$246, DW_AT_TI_call
    2922                    
    2923 00000948 10000013!            CALLP   .S2     printf,B3
    2924 0000094c 023c22f6  ||         STW     .D2T2   B4,*+SP(4)        ; |158| 
    2925                    
    2926                            .dwpsn  file ".\..\packages\ti\vlib\src\VLIB_houghLineFromList\../common/VLIB_memory.h",line 1
    2927                    $C$RL54:   ; CALL OCCURS {printf} {0}        ; |158| 
    2928                    $C$DW$247       .dwtag  DW_TAG_TI_branch
    2929                            .dwattr $C$DW$247, DW_AT_low_pc(0x00)
    2930                            .dwattr $C$DW$247, DW_AT_name("VLIB_stack_memory")
    2931                            .dwattr $C$DW$247, DW_AT_TI_call
    2932 00000950 10000012!            CALLP   .S2     VLIB_stack_memory,B3
    2933                            .dwpsn  file ".\..\packages\ti\vlib\src\VLIB_houghLineFromList\../common/VLIB_memory.h",line 1
    2934 00000954           $C$RL55:   ; CALL OCCURS {VLIB_stack_memory} {0}  ; |165| 
    2935                    ;** --------------------------------------------------------------------------*
    2936                    ;          EXCLUSIVE CPU CYCLES: 14
    2937                            .dwpsn  file "./../packages/ti/vlib/src/VLIB_houghLineFromList/VLIB_houghLineFromList_d.c",lin
    2938 00000954 07804852             ADDK    .S2     144,SP            ; |206| 
    2939                            .dwcfi  cfa_offset, 56
    2940 00000958     71f7             LDW     .D2T2   *++SP(8),B3
    2941                            .dwcfi  cfa_offset, 48
    2942                            .dwcfi  restore_reg, 19
    2943 0000095a     c677             LDDW    .D2T1   *++SP,A13:A12
    2944                            .dwcfi  cfa_offset, 40
    2945                            .dwcfi  restore_reg, 13
    2946                            .dwcfi  restore_reg, 12
    2947 00000960 073c33e4             LDDW    .D2T1   *++SP,A15:A14
    2948                            .dwcfi  cfa_offset, 32
    2949                            .dwcfi  restore_reg, 15
    2950                            .dwcfi  restore_reg, 14
    2951 00000964 053c33e6             LDDW    .D2T2   *++SP,B11:B10
    2952                            .dwcfi  cfa_offset, 24
    2953                            .dwcfi  restore_reg, 27
    2954                            .dwcfi  restore_reg, 26
    2955 00000968 063c33e6             LDDW    .D2T2   *++SP,B13:B12
    2956                            .dwcfi  cfa_offset, 16
    2957                            .dwcfi  restore_reg, 29
    2958                            .dwcfi  restore_reg, 28
    2959 0000096c 053c52e4             LDW     .D2T1   *++SP(8),A10
    2960                            .dwcfi  cfa_offset, 8
    2961                            .dwcfi  restore_reg, 10
    2962 00000970 05bc52e4             LDW     .D2T1   *++SP(8),A11      ; |206| 
    2963                            .dwcfi  cfa_offset, 0
    2964                            .dwcfi  restore_reg, 11
    2965                            .dwcfi  cfa_offset, 0
    2966                    $C$DW$248       .dwtag  DW_TAG_TI_branch
    2967                            .dwattr $C$DW$248, DW_AT_low_pc(0x00)
    2968                            .dwattr $C$DW$248, DW_AT_TI_return
    2969 00000974 008ca362             RETNOP  .S2     B3,5
    2970                               ; BRANCH OCCURS {B3}  
TMS320C6x Assembler PC v7.4.2 Thu Mar 19 12:42:01 2015

Tools Copyright (c) 1996-2012 Texas Instruments Incorporated
package/lib/Regression/regress_d_c/./../packages/ti/vlib/src/VLIB_houghLineFromList/VLIB_houghLineFromList_d.se66 PAGE   55

    2971                    
    2972                    $C$DW$249       .dwtag  DW_TAG_TI_loop
    2973                            .dwattr $C$DW$249, DW_AT_name("c:\nightlybuilds\vlib\ti\vlib\vlib\examples\package/lib/Regress
    2974                            .dwattr $C$DW$249, DW_AT_TI_begin_file("./../packages/ti/vlib/src/VLIB_houghLineFromList/VLIB_
    2975                            .dwattr $C$DW$249, DW_AT_TI_begin_line(0x4a)
    2976                            .dwattr $C$DW$249, DW_AT_TI_end_line(0xc5)
    2977                    $C$DW$250       .dwtag  DW_TAG_TI_loop_range
    2978                            .dwattr $C$DW$250, DW_AT_low_pc($C$DW$L$VLIB_houghLineFromList_d$5$B)
    2979                            .dwattr $C$DW$250, DW_AT_high_pc($C$DW$L$VLIB_houghLineFromList_d$5$E)
    2980                    $C$DW$251       .dwtag  DW_TAG_TI_loop_range
    2981                            .dwattr $C$DW$251, DW_AT_low_pc($C$DW$L$VLIB_houghLineFromList_d$34$B)
    2982                            .dwattr $C$DW$251, DW_AT_high_pc($C$DW$L$VLIB_houghLineFromList_d$34$E)
    2983                    $C$DW$252       .dwtag  DW_TAG_TI_loop_range
    2984                            .dwattr $C$DW$252, DW_AT_low_pc($C$DW$L$VLIB_houghLineFromList_d$29$B)
    2985                            .dwattr $C$DW$252, DW_AT_high_pc($C$DW$L$VLIB_houghLineFromList_d$29$E)
    2986                    $C$DW$253       .dwtag  DW_TAG_TI_loop_range
    2987                            .dwattr $C$DW$253, DW_AT_low_pc($C$DW$L$VLIB_houghLineFromList_d$26$B)
    2988                            .dwattr $C$DW$253, DW_AT_high_pc($C$DW$L$VLIB_houghLineFromList_d$26$E)
    2989                    $C$DW$254       .dwtag  DW_TAG_TI_loop_range
    2990                            .dwattr $C$DW$254, DW_AT_low_pc($C$DW$L$VLIB_houghLineFromList_d$27$B)
    2991                            .dwattr $C$DW$254, DW_AT_high_pc($C$DW$L$VLIB_houghLineFromList_d$27$E)
    2992                    $C$DW$255       .dwtag  DW_TAG_TI_loop_range
    2993                            .dwattr $C$DW$255, DW_AT_low_pc($C$DW$L$VLIB_houghLineFromList_d$28$B)
    2994                            .dwattr $C$DW$255, DW_AT_high_pc($C$DW$L$VLIB_houghLineFromList_d$28$E)
    2995                    $C$DW$256       .dwtag  DW_TAG_TI_loop_range
    2996                            .dwattr $C$DW$256, DW_AT_low_pc($C$DW$L$VLIB_houghLineFromList_d$30$B)
    2997                            .dwattr $C$DW$256, DW_AT_high_pc($C$DW$L$VLIB_houghLineFromList_d$30$E)
    2998                    $C$DW$257       .dwtag  DW_TAG_TI_loop_range
    2999                            .dwattr $C$DW$257, DW_AT_low_pc($C$DW$L$VLIB_houghLineFromList_d$31$B)
    3000                            .dwattr $C$DW$257, DW_AT_high_pc($C$DW$L$VLIB_houghLineFromList_d$31$E)
    3001                    $C$DW$258       .dwtag  DW_TAG_TI_loop_range
    3002                            .dwattr $C$DW$258, DW_AT_low_pc($C$DW$L$VLIB_houghLineFromList_d$32$B)
    3003                            .dwattr $C$DW$258, DW_AT_high_pc($C$DW$L$VLIB_houghLineFromList_d$32$E)
    3004                    $C$DW$259       .dwtag  DW_TAG_TI_loop_range
    3005                            .dwattr $C$DW$259, DW_AT_low_pc($C$DW$L$VLIB_houghLineFromList_d$33$B)
    3006                            .dwattr $C$DW$259, DW_AT_high_pc($C$DW$L$VLIB_houghLineFromList_d$33$E)
    3007                    $C$DW$260       .dwtag  DW_TAG_TI_loop_range
    3008                            .dwattr $C$DW$260, DW_AT_low_pc($C$DW$L$VLIB_houghLineFromList_d$35$B)
    3009                            .dwattr $C$DW$260, DW_AT_high_pc($C$DW$L$VLIB_houghLineFromList_d$35$E)
    3010                    $C$DW$261       .dwtag  DW_TAG_TI_loop_range
    3011                            .dwattr $C$DW$261, DW_AT_low_pc($C$DW$L$VLIB_houghLineFromList_d$23$B)
    3012                            .dwattr $C$DW$261, DW_AT_high_pc($C$DW$L$VLIB_houghLineFromList_d$23$E)
    3013                    $C$DW$262       .dwtag  DW_TAG_TI_loop_range
    3014                            .dwattr $C$DW$262, DW_AT_low_pc($C$DW$L$VLIB_houghLineFromList_d$11$B)
    3015                            .dwattr $C$DW$262, DW_AT_high_pc($C$DW$L$VLIB_houghLineFromList_d$11$E)
    3016                    $C$DW$263       .dwtag  DW_TAG_TI_loop_range
    3017                            .dwattr $C$DW$263, DW_AT_low_pc($C$DW$L$VLIB_houghLineFromList_d$6$B)
    3018                            .dwattr $C$DW$263, DW_AT_high_pc($C$DW$L$VLIB_houghLineFromList_d$6$E)
    3019                    $C$DW$264       .dwtag  DW_TAG_TI_loop_range
    3020                            .dwattr $C$DW$264, DW_AT_low_pc($C$DW$L$VLIB_houghLineFromList_d$7$B)
    3021                            .dwattr $C$DW$264, DW_AT_high_pc($C$DW$L$VLIB_houghLineFromList_d$7$E)
    3022                    $C$DW$265       .dwtag  DW_TAG_TI_loop_range
    3023                            .dwattr $C$DW$265, DW_AT_low_pc($C$DW$L$VLIB_houghLineFromList_d$8$B)
    3024                            .dwattr $C$DW$265, DW_AT_high_pc($C$DW$L$VLIB_houghLineFromList_d$8$E)
    3025                    $C$DW$266       .dwtag  DW_TAG_TI_loop_range
TMS320C6x Assembler PC v7.4.2 Thu Mar 19 12:42:01 2015

Tools Copyright (c) 1996-2012 Texas Instruments Incorporated
package/lib/Regression/regress_d_c/./../packages/ti/vlib/src/VLIB_houghLineFromList/VLIB_houghLineFromList_d.se66 PAGE   56

    3026                            .dwattr $C$DW$266, DW_AT_low_pc($C$DW$L$VLIB_houghLineFromList_d$9$B)
    3027                            .dwattr $C$DW$266, DW_AT_high_pc($C$DW$L$VLIB_houghLineFromList_d$9$E)
    3028                    $C$DW$267       .dwtag  DW_TAG_TI_loop_range
    3029                            .dwattr $C$DW$267, DW_AT_low_pc($C$DW$L$VLIB_houghLineFromList_d$10$B)
    3030                            .dwattr $C$DW$267, DW_AT_high_pc($C$DW$L$VLIB_houghLineFromList_d$10$E)
    3031                    $C$DW$268       .dwtag  DW_TAG_TI_loop_range
    3032                            .dwattr $C$DW$268, DW_AT_low_pc($C$DW$L$VLIB_houghLineFromList_d$15$B)
    3033                            .dwattr $C$DW$268, DW_AT_high_pc($C$DW$L$VLIB_houghLineFromList_d$15$E)
    3034                    $C$DW$269       .dwtag  DW_TAG_TI_loop_range
    3035                            .dwattr $C$DW$269, DW_AT_low_pc($C$DW$L$VLIB_houghLineFromList_d$16$B)
    3036                            .dwattr $C$DW$269, DW_AT_high_pc($C$DW$L$VLIB_houghLineFromList_d$16$E)
    3037                    $C$DW$270       .dwtag  DW_TAG_TI_loop_range
    3038                            .dwattr $C$DW$270, DW_AT_low_pc($C$DW$L$VLIB_houghLineFromList_d$17$B)
    3039                            .dwattr $C$DW$270, DW_AT_high_pc($C$DW$L$VLIB_houghLineFromList_d$17$E)
    3040                    $C$DW$271       .dwtag  DW_TAG_TI_loop_range
    3041                            .dwattr $C$DW$271, DW_AT_low_pc($C$DW$L$VLIB_houghLineFromList_d$18$B)
    3042                            .dwattr $C$DW$271, DW_AT_high_pc($C$DW$L$VLIB_houghLineFromList_d$18$E)
    3043                    $C$DW$272       .dwtag  DW_TAG_TI_loop_range
    3044                            .dwattr $C$DW$272, DW_AT_low_pc($C$DW$L$VLIB_houghLineFromList_d$19$B)
    3045                            .dwattr $C$DW$272, DW_AT_high_pc($C$DW$L$VLIB_houghLineFromList_d$19$E)
    3046                    $C$DW$273       .dwtag  DW_TAG_TI_loop_range
    3047                            .dwattr $C$DW$273, DW_AT_low_pc($C$DW$L$VLIB_houghLineFromList_d$20$B)
    3048                            .dwattr $C$DW$273, DW_AT_high_pc($C$DW$L$VLIB_houghLineFromList_d$20$E)
    3049                    $C$DW$274       .dwtag  DW_TAG_TI_loop_range
    3050                            .dwattr $C$DW$274, DW_AT_low_pc($C$DW$L$VLIB_houghLineFromList_d$21$B)
    3051                            .dwattr $C$DW$274, DW_AT_high_pc($C$DW$L$VLIB_houghLineFromList_d$21$E)
    3052                    $C$DW$275       .dwtag  DW_TAG_TI_loop_range
    3053                            .dwattr $C$DW$275, DW_AT_low_pc($C$DW$L$VLIB_houghLineFromList_d$22$B)
    3054                            .dwattr $C$DW$275, DW_AT_high_pc($C$DW$L$VLIB_houghLineFromList_d$22$E)
    3055                    $C$DW$276       .dwtag  DW_TAG_TI_loop_range
    3056                            .dwattr $C$DW$276, DW_AT_low_pc($C$DW$L$VLIB_houghLineFromList_d$24$B)
    3057                            .dwattr $C$DW$276, DW_AT_high_pc($C$DW$L$VLIB_houghLineFromList_d$24$E)
    3058                    $C$DW$277       .dwtag  DW_TAG_TI_loop_range
    3059                            .dwattr $C$DW$277, DW_AT_low_pc($C$DW$L$VLIB_houghLineFromList_d$25$B)
    3060                            .dwattr $C$DW$277, DW_AT_high_pc($C$DW$L$VLIB_houghLineFromList_d$25$E)
    3061                    $C$DW$278       .dwtag  DW_TAG_TI_loop_range
    3062                            .dwattr $C$DW$278, DW_AT_low_pc($C$DW$L$VLIB_houghLineFromList_d$36$B)
    3063                            .dwattr $C$DW$278, DW_AT_high_pc($C$DW$L$VLIB_houghLineFromList_d$36$E)
    3064                    $C$DW$279       .dwtag  DW_TAG_TI_loop_range
    3065                            .dwattr $C$DW$279, DW_AT_low_pc($C$DW$L$VLIB_houghLineFromList_d$37$B)
    3066                            .dwattr $C$DW$279, DW_AT_high_pc($C$DW$L$VLIB_houghLineFromList_d$37$E)
    3067                    $C$DW$280       .dwtag  DW_TAG_TI_loop_range
    3068                            .dwattr $C$DW$280, DW_AT_low_pc($C$DW$L$VLIB_houghLineFromList_d$38$B)
    3069                            .dwattr $C$DW$280, DW_AT_high_pc($C$DW$L$VLIB_houghLineFromList_d$38$E)
    3070                    $C$DW$281       .dwtag  DW_TAG_TI_loop_range
    3071                            .dwattr $C$DW$281, DW_AT_low_pc($C$DW$L$VLIB_houghLineFromList_d$39$B)
    3072                            .dwattr $C$DW$281, DW_AT_high_pc($C$DW$L$VLIB_houghLineFromList_d$39$E)
    3073                    
    3074                    $C$DW$282       .dwtag  DW_TAG_TI_loop
    3075                            .dwattr $C$DW$282, DW_AT_name("c:\nightlybuilds\vlib\ti\vlib\vlib\examples\package/lib/Regress
    3076                            .dwattr $C$DW$282, DW_AT_TI_begin_file("./../packages/ti/vlib/src/VLIB_houghLineFromList/VLIB_
    3077                            .dwattr $C$DW$282, DW_AT_TI_begin_line(0x2f)
    3078                            .dwattr $C$DW$282, DW_AT_TI_end_line(0x37)
    3079                    $C$DW$283       .dwtag  DW_TAG_TI_loop_range
    3080                            .dwattr $C$DW$283, DW_AT_low_pc($C$DW$L$VLIB_houghLineFromList_d$12$B)
TMS320C6x Assembler PC v7.4.2 Thu Mar 19 12:42:01 2015

Tools Copyright (c) 1996-2012 Texas Instruments Incorporated
package/lib/Regression/regress_d_c/./../packages/ti/vlib/src/VLIB_houghLineFromList/VLIB_houghLineFromList_d.se66 PAGE   57

    3081                            .dwattr $C$DW$283, DW_AT_high_pc($C$DW$L$VLIB_houghLineFromList_d$12$E)
    3082                    $C$DW$284       .dwtag  DW_TAG_TI_loop_range
    3083                            .dwattr $C$DW$284, DW_AT_low_pc($C$DW$L$VLIB_houghLineFromList_d$13$B)
    3084                            .dwattr $C$DW$284, DW_AT_high_pc($C$DW$L$VLIB_houghLineFromList_d$13$E)
    3085                    $C$DW$285       .dwtag  DW_TAG_TI_loop_range
    3086                            .dwattr $C$DW$285, DW_AT_low_pc($C$DW$L$VLIB_houghLineFromList_d$14$B)
    3087                            .dwattr $C$DW$285, DW_AT_high_pc($C$DW$L$VLIB_houghLineFromList_d$14$E)
    3088                            .dwendtag $C$DW$282
    3089                    
    3090                            .dwendtag $C$DW$249
    3091                    
    3092                            .dwattr $C$DW$143, DW_AT_TI_end_file("./../packages/ti/vlib/src/VLIB_houghLineFromList/VLIB_ho
    3093                            .dwattr $C$DW$143, DW_AT_TI_end_line(0xce)
    3094                            .dwattr $C$DW$143, DW_AT_TI_end_column(0x01)
    3095                            .dwendentry
    3096                            .dwendtag $C$DW$143
    3097                    
    3098                    ;; Inlined function references:
    3099                    ;; [ 10] floor
    3100                    ;; [ 20] VLIB_profile_start
    3101                    ;; [ 21] VLIB_profile_stop
    3102                    ;; [ 24] VLIB_clear_memory
    3103                    ;; [ 25] VLIB_kernel_memory
    3104                    ;; [ 31] VLIB_InitializeTrigLUTs
    3105                    ;******************************************************************************
    3106                    ;* STRINGS                                                                    *
    3107                    ;******************************************************************************
    3108 00000000                   .sect   ".const:.string"
    3109 00000000 00000056  $C$SL1: .string "VLIB_houghLineFromList",0
         00000001 0000004C 
         00000002 00000049 
         00000003 00000042 
         00000004 0000005F 
         00000005 00000068 
         00000006 0000006F 
         00000007 00000075 
         00000008 00000067 
         00000009 00000068 
         0000000a 0000004C 
         0000000b 00000069 
         0000000c 0000006E 
         0000000d 00000065 
         0000000e 00000046 
         0000000f 00000072 
         00000010 0000006F 
         00000011 0000006D 
         00000012 0000004C 
         00000013 00000069 
         00000014 00000073 
         00000015 00000074 
         00000016 00000000 
    3110 00000017 0000007C  $C$SL2: .string "|  %d | FAIL - Error: Sin table initialization failed!",10,0
         00000018 00000020 
         00000019 00000020 
         0000001a 00000025 
TMS320C6x Assembler PC v7.4.2 Thu Mar 19 12:42:01 2015

Tools Copyright (c) 1996-2012 Texas Instruments Incorporated
package/lib/Regression/regress_d_c/./../packages/ti/vlib/src/VLIB_houghLineFromList/VLIB_houghLineFromList_d.se66 PAGE   58

         0000001b 00000064 
         0000001c 00000020 
         0000001d 0000007C 
         0000001e 00000020 
         0000001f 00000046 
         00000020 00000041 
         00000021 00000049 
         00000022 0000004C 
         00000023 00000020 
         00000024 0000002D 
         00000025 00000020 
         00000026 00000045 
         00000027 00000072 
         00000028 00000072 
         00000029 0000006F 
         0000002a 00000072 
         0000002b 0000003A 
         0000002c 00000020 
         0000002d 00000053 
         0000002e 00000069 
         0000002f 0000006E 
         00000030 00000020 
         00000031 00000074 
         00000032 00000061 
         00000033 00000062 
         00000034 0000006C 
         00000035 00000065 
         00000036 00000020 
         00000037 00000069 
         00000038 0000006E 
         00000039 00000069 
         0000003a 00000074 
         0000003b 00000069 
         0000003c 00000061 
         0000003d 0000006C 
         0000003e 00000069 
         0000003f 0000007A 
         00000040 00000061 
         00000041 00000074 
         00000042 00000069 
         00000043 0000006F 
         00000044 0000006E 
         00000045 00000020 
         00000046 00000066 
         00000047 00000061 
         00000048 00000069 
         00000049 0000006C 
         0000004a 00000065 
         0000004b 00000064 
         0000004c 00000021 
         0000004d 0000000A 
         0000004e 00000000 
    3111 0000004f 0000007C  $C$SL3: .string "|  %d | FAIL - Error: Cos table initialization failed!",10,0
         00000050 00000020 
         00000051 00000020 
TMS320C6x Assembler PC v7.4.2 Thu Mar 19 12:42:01 2015

Tools Copyright (c) 1996-2012 Texas Instruments Incorporated
package/lib/Regression/regress_d_c/./../packages/ti/vlib/src/VLIB_houghLineFromList/VLIB_houghLineFromList_d.se66 PAGE   59

         00000052 00000025 
         00000053 00000064 
         00000054 00000020 
         00000055 0000007C 
         00000056 00000020 
         00000057 00000046 
         00000058 00000041 
         00000059 00000049 
         0000005a 0000004C 
         0000005b 00000020 
         0000005c 0000002D 
         0000005d 00000020 
         0000005e 00000045 
         0000005f 00000072 
         00000060 00000072 
         00000061 0000006F 
         00000062 00000072 
         00000063 0000003A 
         00000064 00000020 
         00000065 00000043 
         00000066 0000006F 
         00000067 00000073 
         00000068 00000020 
         00000069 00000074 
         0000006a 00000061 
         0000006b 00000062 
         0000006c 0000006C 
         0000006d 00000065 
         0000006e 00000020 
         0000006f 00000069 
         00000070 0000006E 
         00000071 00000069 
         00000072 00000074 
         00000073 00000069 
         00000074 00000061 
         00000075 0000006C 
         00000076 00000069 
         00000077 0000007A 
         00000078 00000061 
         00000079 00000074 
         0000007a 00000069 
         0000007b 0000006F 
         0000007c 0000006E 
         0000007d 00000020 
         0000007e 00000066 
         0000007f 00000061 
         00000080 00000069 
         00000081 0000006C 
         00000082 00000065 
         00000083 00000064 
         00000084 00000021 
         00000085 0000000A 
         00000086 00000000 
    3112 00000087 00000025  $C$SL4: .string "%s generated input | Opt results compared to NatC results |"
         00000088 00000073 
TMS320C6x Assembler PC v7.4.2 Thu Mar 19 12:42:01 2015

Tools Copyright (c) 1996-2012 Texas Instruments Incorporated
package/lib/Regression/regress_d_c/./../packages/ti/vlib/src/VLIB_houghLineFromList/VLIB_houghLineFromList_d.se66 PAGE   60

         00000089 00000020 
         0000008a 00000067 
         0000008b 00000065 
         0000008c 0000006E 
         0000008d 00000065 
         0000008e 00000072 
         0000008f 00000061 
         00000090 00000074 
         00000091 00000065 
         00000092 00000064 
         00000093 00000020 
         00000094 00000069 
         00000095 0000006E 
         00000096 00000070 
         00000097 00000075 
         00000098 00000074 
         00000099 00000020 
         0000009a 0000007C 
         0000009b 00000020 
         0000009c 0000004F 
         0000009d 00000070 
         0000009e 00000074 
         0000009f 00000020 
         000000a0 00000072 
         000000a1 00000065 
         000000a2 00000073 
         000000a3 00000075 
         000000a4 0000006C 
         000000a5 00000074 
         000000a6 00000073 
         000000a7 00000020 
         000000a8 00000063 
         000000a9 0000006F 
         000000aa 0000006D 
         000000ab 00000070 
         000000ac 00000061 
         000000ad 00000072 
         000000ae 00000065 
         000000af 00000064 
         000000b0 00000020 
         000000b1 00000074 
         000000b2 0000006F 
         000000b3 00000020 
         000000b4 0000004E 
         000000b5 00000061 
         000000b6 00000074 
         000000b7 00000043 
         000000b8 00000020 
         000000b9 00000072 
         000000ba 00000065 
         000000bb 00000073 
         000000bc 00000075 
         000000bd 0000006C 
         000000be 00000074 
         000000bf 00000073 
TMS320C6x Assembler PC v7.4.2 Thu Mar 19 12:42:01 2015

Tools Copyright (c) 1996-2012 Texas Instruments Incorporated
package/lib/Regression/regress_d_c/./../packages/ti/vlib/src/VLIB_houghLineFromList/VLIB_houghLineFromList_d.se66 PAGE   61

         000000c0 00000020 
         000000c1 0000007C 
    3113 000000c2 00000020          .string " listSize=%d, thetaRange=%d, rhoMaxLength=%d",0
         000000c3 0000006C 
         000000c4 00000069 
         000000c5 00000073 
         000000c6 00000074 
         000000c7 00000053 
         000000c8 00000069 
         000000c9 0000007A 
         000000ca 00000065 
         000000cb 0000003D 
         000000cc 00000025 
         000000cd 00000064 
         000000ce 0000002C 
         000000cf 00000020 
         000000d0 00000074 
         000000d1 00000068 
         000000d2 00000065 
         000000d3 00000074 
         000000d4 00000061 
         000000d5 00000052 
         000000d6 00000061 
         000000d7 0000006E 
         000000d8 00000067 
         000000d9 00000065 
         000000da 0000003D 
         000000db 00000025 
         000000dc 00000064 
         000000dd 0000002C 
         000000de 00000020 
         000000df 00000072 
         000000e0 00000068 
         000000e1 0000006F 
         000000e2 0000004D 
         000000e3 00000061 
         000000e4 00000078 
         000000e5 0000004C 
         000000e6 00000065 
         000000e7 0000006E 
         000000e8 00000067 
         000000e9 00000074 
         000000ea 00000068 
         000000eb 0000003D 
         000000ec 00000025 
         000000ed 00000064 
         000000ee 00000000 
    3114 000000ef 0000006C  $C$SL5: .string "listSize=%d, thetaRange=%d, rhoMaxLength=%d",0
         000000f0 00000069 
         000000f1 00000073 
         000000f2 00000074 
         000000f3 00000053 
         000000f4 00000069 
         000000f5 0000007A 
         000000f6 00000065 
TMS320C6x Assembler PC v7.4.2 Thu Mar 19 12:42:01 2015

Tools Copyright (c) 1996-2012 Texas Instruments Incorporated
package/lib/Regression/regress_d_c/./../packages/ti/vlib/src/VLIB_houghLineFromList/VLIB_houghLineFromList_d.se66 PAGE   62

         000000f7 0000003D 
         000000f8 00000025 
         000000f9 00000064 
         000000fa 0000002C 
         000000fb 00000020 
         000000fc 00000074 
         000000fd 00000068 
         000000fe 00000065 
         000000ff 00000074 
         00000100 00000061 
         00000101 00000052 
         00000102 00000061 
         00000103 0000006E 
         00000104 00000067 
         00000105 00000065 
         00000106 0000003D 
         00000107 00000025 
         00000108 00000064 
         00000109 0000002C 
         0000010a 00000020 
         0000010b 00000072 
         0000010c 00000068 
         0000010d 0000006F 
         0000010e 0000004D 
         0000010f 00000061 
         00000110 00000078 
         00000111 0000004C 
         00000112 00000065 
         00000113 0000006E 
         00000114 00000067 
         00000115 00000074 
         00000116 00000068 
         00000117 0000003D 
         00000118 00000025 
         00000119 00000064 
         0000011a 00000000 
    3115 0000011b 0000004E  $C$SL6: .string "N = listSize * thetaRange",0
         0000011c 00000020 
         0000011d 0000003D 
         0000011e 00000020 
         0000011f 0000006C 
         00000120 00000069 
         00000121 00000073 
         00000122 00000074 
         00000123 00000053 
         00000124 00000069 
         00000125 0000007A 
         00000126 00000065 
         00000127 00000020 
         00000128 0000002A 
         00000129 00000020 
         0000012a 00000074 
         0000012b 00000068 
         0000012c 00000065 
         0000012d 00000074 
TMS320C6x Assembler PC v7.4.2 Thu Mar 19 12:42:01 2015

Tools Copyright (c) 1996-2012 Texas Instruments Incorporated
package/lib/Regression/regress_d_c/./../packages/ti/vlib/src/VLIB_houghLineFromList/VLIB_houghLineFromList_d.se66 PAGE   63

         0000012e 00000061 
         0000012f 00000052 
         00000130 00000061 
         00000131 0000006E 
         00000132 00000067 
         00000133 00000065 
         00000134 00000000 
    3116 00000135 0000002D  $C$SL7: .string "-----------------------------------------------------------"
         00000136 0000002D 
         00000137 0000002D 
         00000138 0000002D 
         00000139 0000002D 
         0000013a 0000002D 
         0000013b 0000002D 
         0000013c 0000002D 
         0000013d 0000002D 
         0000013e 0000002D 
         0000013f 0000002D 
         00000140 0000002D 
         00000141 0000002D 
         00000142 0000002D 
         00000143 0000002D 
         00000144 0000002D 
         00000145 0000002D 
         00000146 0000002D 
         00000147 0000002D 
         00000148 0000002D 
         00000149 0000002D 
         0000014a 0000002D 
         0000014b 0000002D 
         0000014c 0000002D 
         0000014d 0000002D 
         0000014e 0000002D 
         0000014f 0000002D 
         00000150 0000002D 
         00000151 0000002D 
         00000152 0000002D 
         00000153 0000002D 
         00000154 0000002D 
         00000155 0000002D 
         00000156 0000002D 
         00000157 0000002D 
         00000158 0000002D 
         00000159 0000002D 
         0000015a 0000002D 
         0000015b 0000002D 
         0000015c 0000002D 
         0000015d 0000002D 
         0000015e 0000002D 
         0000015f 0000002D 
         00000160 0000002D 
         00000161 0000002D 
         00000162 0000002D 
         00000163 0000002D 
         00000164 0000002D 
TMS320C6x Assembler PC v7.4.2 Thu Mar 19 12:42:01 2015

Tools Copyright (c) 1996-2012 Texas Instruments Incorporated
package/lib/Regression/regress_d_c/./../packages/ti/vlib/src/VLIB_houghLineFromList/VLIB_houghLineFromList_d.se66 PAGE   64

         00000165 0000002D 
         00000166 0000002D 
         00000167 0000002D 
         00000168 0000002D 
         00000169 0000002D 
         0000016a 0000002D 
         0000016b 0000002D 
         0000016c 0000002D 
         0000016d 0000002D 
         0000016e 0000002D 
         0000016f 0000002D 
    3117 00000170 0000002D          .string "-----------------------------------------------------------"
         00000171 0000002D 
         00000172 0000002D 
         00000173 0000002D 
         00000174 0000002D 
         00000175 0000002D 
         00000176 0000002D 
         00000177 0000002D 
         00000178 0000002D 
         00000179 0000002D 
         0000017a 0000002D 
         0000017b 0000002D 
         0000017c 0000002D 
         0000017d 0000002D 
         0000017e 0000002D 
         0000017f 0000002D 
         00000180 0000002D 
         00000181 0000002D 
         00000182 0000002D 
         00000183 0000002D 
         00000184 0000002D 
         00000185 0000002D 
         00000186 0000002D 
         00000187 0000002D 
         00000188 0000002D 
         00000189 0000002D 
         0000018a 0000002D 
         0000018b 0000002D 
         0000018c 0000002D 
         0000018d 0000002D 
         0000018e 0000002D 
         0000018f 0000002D 
         00000190 0000002D 
         00000191 0000002D 
         00000192 0000002D 
         00000193 0000002D 
         00000194 0000002D 
         00000195 0000002D 
         00000196 0000002D 
         00000197 0000002D 
         00000198 0000002D 
         00000199 0000002D 
         0000019a 0000002D 
         0000019b 0000002D 
TMS320C6x Assembler PC v7.4.2 Thu Mar 19 12:42:01 2015

Tools Copyright (c) 1996-2012 Texas Instruments Incorporated
package/lib/Regression/regress_d_c/./../packages/ti/vlib/src/VLIB_houghLineFromList/VLIB_houghLineFromList_d.se66 PAGE   65

         0000019c 0000002D 
         0000019d 0000002D 
         0000019e 0000002D 
         0000019f 0000002D 
         000001a0 0000002D 
         000001a1 0000002D 
         000001a2 0000002D 
         000001a3 0000002D 
         000001a4 0000002D 
         000001a5 0000002D 
         000001a6 0000002D 
         000001a7 0000002D 
         000001a8 0000002D 
         000001a9 0000002D 
         000001aa 0000002D 
    3118 000001ab 0000002D          .string "-----------------------",10,0
         000001ac 0000002D 
         000001ad 0000002D 
         000001ae 0000002D 
         000001af 0000002D 
         000001b0 0000002D 
         000001b1 0000002D 
         000001b2 0000002D 
         000001b3 0000002D 
         000001b4 0000002D 
         000001b5 0000002D 
         000001b6 0000002D 
         000001b7 0000002D 
         000001b8 0000002D 
         000001b9 0000002D 
         000001ba 0000002D 
         000001bb 0000002D 
         000001bc 0000002D 
         000001bd 0000002D 
         000001be 0000002D 
         000001bf 0000002D 
         000001c0 0000002D 
         000001c1 0000002D 
         000001c2 0000000A 
         000001c3 00000000 
    3119                    ;*****************************************************************************
    3120                    ;* UNDEFINED EXTERNAL REFERENCES                                             *
    3121                    ;*****************************************************************************
    3122                            .global printf
    3123                            .global sprintf
    3124                            .global memset
    3125                            .global malloc
    3126                            .global free
    3127                            .global memalign
    3128                            .global sin
    3129                            .global cos
    3130                            .global modf
    3131                            .global VLIB_cache_inval
    3132                            .global VLIB_profile_init
    3133                            .global VLIB_formula_add_test
TMS320C6x Assembler PC v7.4.2 Thu Mar 19 12:42:01 2015

Tools Copyright (c) 1996-2012 Texas Instruments Incorporated
package/lib/Regression/regress_d_c/./../packages/ti/vlib/src/VLIB_houghLineFromList/VLIB_houghLineFromList_d.se66 PAGE   66

    3134                            .global VLIB_skip_test
    3135                            .global VLIB_profile_cycle_report
    3136                            .global initStack
    3137                            .global setStackDepth
    3138                            .global getSP
    3139                            .global VLIB_stack_memory
    3140                            .global VLIB_compare_mem
    3141                            .global VLIB_fillBuffer
    3142                            .global VLIB_memalign
    3143                            .global VLIB_align_free
    3144                            .global VLIB_houghLineFromList
    3145                            .global VLIB_houghLineFromList_cn
    3146                            .global houghLineFromList_getTestParams
    3147                            .global test_cases
    3148                            .global act_kernel
    3149                            .global desc
    3150                            .global testPatternString
    3151                            .global est_test
    3152                            .global beg_count
    3153                            .global end_count
    3154                            .global overhead
    3155                            .global cycles
    3156                            .global __c6xabi_divf
    3157                    
    3158                    ;******************************************************************************
    3159                    ;* BUILD ATTRIBUTES                                                           *
    3160                    ;******************************************************************************
    3161                            .battr "TI", Tag_File, 1, Tag_Long_Precision_Bits(2)
    3162                            .battr "TI", Tag_File, 1, Tag_Bitfield_layout(2)
    3163                            .battr "TI", Tag_File, 1, Tag_ABI_enum_size(2)
    3164                            .battr "c6xabi", Tag_File, 1, Tag_ABI_wchar_t(1)
    3165                            .battr "c6xabi", Tag_File, 1, Tag_ABI_array_object_alignment(0)
    3166                            .battr "c6xabi", Tag_File, 1, Tag_ABI_array_object_align_expected(0)
    3167                            .battr "c6xabi", Tag_File, 1, Tag_ABI_PIC(0)
    3168                            .battr "c6xabi", Tag_File, 1, Tag_ABI_PID(0)
    3169                            .battr "c6xabi", Tag_File, 1, Tag_ABI_DSBT(0)
    3170                            .battr "c6xabi", Tag_File, 1, Tag_ABI_stack_align_needed(0)
    3171                            .battr "c6xabi", Tag_File, 1, Tag_ABI_stack_align_preserved(0)
    3172                            .battr "TI", Tag_File, 1, Tag_Tramps_Use_SOC(1)
    3173                    
    3174                    ;******************************************************************************
    3175                    ;* TYPE INFORMATION                                                           *
    3176                    ;******************************************************************************
    3177                    
    3178                    $C$DW$T$38      .dwtag  DW_TAG_enumeration_type
    3179                            .dwattr $C$DW$T$38, DW_AT_byte_size(0x04)
    3180                    $C$DW$286       .dwtag  DW_TAG_enumerator, DW_AT_name("VLIB_NO_ERROR"), DW_AT_const_value(0x00)
    3181                            .dwattr $C$DW$286, DW_AT_decl_file(".\..\packages\ti\vlib\src\VLIB_houghLineFromList\..\common
    3182                            .dwattr $C$DW$286, DW_AT_decl_line(0x7a)
    3183                            .dwattr $C$DW$286, DW_AT_decl_column(0x05)
    3184                    $C$DW$287       .dwtag  DW_TAG_enumerator, DW_AT_name("VLIB_ERR_INPUT_INVALID"), DW_AT_const_value(0x0
    3185                            .dwattr $C$DW$287, DW_AT_decl_file(".\..\packages\ti\vlib\src\VLIB_houghLineFromList\..\common
    3186                            .dwattr $C$DW$287, DW_AT_decl_line(0x7b)
    3187                            .dwattr $C$DW$287, DW_AT_decl_column(0x05)
    3188                    $C$DW$288       .dwtag  DW_TAG_enumerator, DW_AT_name("VLIB_ERR_INPUT_NEGATIVE"), DW_AT_const_value(0x
TMS320C6x Assembler PC v7.4.2 Thu Mar 19 12:42:01 2015

Tools Copyright (c) 1996-2012 Texas Instruments Incorporated
package/lib/Regression/regress_d_c/./../packages/ti/vlib/src/VLIB_houghLineFromList/VLIB_houghLineFromList_d.se66 PAGE   67

    3189                            .dwattr $C$DW$288, DW_AT_decl_file(".\..\packages\ti\vlib\src\VLIB_houghLineFromList\..\common
    3190                            .dwattr $C$DW$288, DW_AT_decl_line(0x7c)
    3191                            .dwattr $C$DW$288, DW_AT_decl_column(0x05)
    3192                    $C$DW$289       .dwtag  DW_TAG_enumerator, DW_AT_name("VLIB_ERR_INPUT_EXCEEDED_RANGE"), DW_AT_const_va
    3193                            .dwattr $C$DW$289, DW_AT_decl_file(".\..\packages\ti\vlib\src\VLIB_houghLineFromList\..\common
    3194                            .dwattr $C$DW$289, DW_AT_decl_line(0x7d)
    3195                            .dwattr $C$DW$289, DW_AT_decl_column(0x05)
    3196                    $C$DW$290       .dwtag  DW_TAG_enumerator, DW_AT_name("VLIB_ERR_MEMORY_EXCEEDED_BOUNDARY"), DW_AT_cons
    3197                            .dwattr $C$DW$290, DW_AT_decl_file(".\..\packages\ti\vlib\src\VLIB_houghLineFromList\..\common
    3198                            .dwattr $C$DW$290, DW_AT_decl_line(0x7e)
    3199                            .dwattr $C$DW$290, DW_AT_decl_column(0x05)
    3200                    $C$DW$291       .dwtag  DW_TAG_enumerator, DW_AT_name("VLIB_ERR_MEMORY_ALLOCATION_FAILURE"), DW_AT_con
    3201                            .dwattr $C$DW$291, DW_AT_decl_file(".\..\packages\ti\vlib\src\VLIB_houghLineFromList\..\common
    3202                            .dwattr $C$DW$291, DW_AT_decl_line(0x7f)
    3203                            .dwattr $C$DW$291, DW_AT_decl_column(0x05)
    3204                    $C$DW$292       .dwtag  DW_TAG_enumerator, DW_AT_name("VLIB_ERR_MEMORY_POINTER_NULL"), DW_AT_const_val
    3205                            .dwattr $C$DW$292, DW_AT_decl_file(".\..\packages\ti\vlib\src\VLIB_houghLineFromList\..\common
    3206                            .dwattr $C$DW$292, DW_AT_decl_line(0x80)
    3207                            .dwattr $C$DW$292, DW_AT_decl_column(0x05)
    3208                    $C$DW$293       .dwtag  DW_TAG_enumerator, DW_AT_name("VLIB_ERR_DMA_FAILURE"), DW_AT_const_value(0x07)
    3209                            .dwattr $C$DW$293, DW_AT_decl_file(".\..\packages\ti\vlib\src\VLIB_houghLineFromList\..\common
    3210                            .dwattr $C$DW$293, DW_AT_decl_line(0x81)
    3211                            .dwattr $C$DW$293, DW_AT_decl_column(0x05)
    3212                    $C$DW$294       .dwtag  DW_TAG_enumerator, DW_AT_name("VLIB_ERR_FILE_OPEN_FAILURE"), DW_AT_const_value
    3213                            .dwattr $C$DW$294, DW_AT_decl_file(".\..\packages\ti\vlib\src\VLIB_houghLineFromList\..\common
    3214                            .dwattr $C$DW$294, DW_AT_decl_line(0x82)
    3215                            .dwattr $C$DW$294, DW_AT_decl_column(0x05)
    3216                    $C$DW$295       .dwtag  DW_TAG_enumerator, DW_AT_name("VLIB_ERR_FILE_READ_FAILURE"), DW_AT_const_value
    3217                            .dwattr $C$DW$295, DW_AT_decl_file(".\..\packages\ti\vlib\src\VLIB_houghLineFromList\..\common
    3218                            .dwattr $C$DW$295, DW_AT_decl_line(0x83)
    3219                            .dwattr $C$DW$295, DW_AT_decl_column(0x05)
    3220                    $C$DW$296       .dwtag  DW_TAG_enumerator, DW_AT_name("VLIB_ERR_FILE_WRITE_FAILURE"), DW_AT_const_valu
    3221                            .dwattr $C$DW$296, DW_AT_decl_file(".\..\packages\ti\vlib\src\VLIB_houghLineFromList\..\common
    3222                            .dwattr $C$DW$296, DW_AT_decl_line(0x84)
    3223                            .dwattr $C$DW$296, DW_AT_decl_column(0x05)
    3224                    $C$DW$297       .dwtag  DW_TAG_enumerator, DW_AT_name("VLIB_ERR_FILE_CLOSE_FAILURE"), DW_AT_const_valu
    3225                            .dwattr $C$DW$297, DW_AT_decl_file(".\..\packages\ti\vlib\src\VLIB_houghLineFromList\..\common
    3226                            .dwattr $C$DW$297, DW_AT_decl_line(0x85)
    3227                            .dwattr $C$DW$297, DW_AT_decl_column(0x05)
    3228                    $C$DW$298       .dwtag  DW_TAG_enumerator, DW_AT_name("VLIB_ERR_FILE_FORMAT_FAILURE"), DW_AT_const_val
    3229                            .dwattr $C$DW$298, DW_AT_decl_file(".\..\packages\ti\vlib\src\VLIB_houghLineFromList\..\common
    3230                            .dwattr $C$DW$298, DW_AT_decl_line(0x86)
    3231                            .dwattr $C$DW$298, DW_AT_decl_column(0x05)
    3232                    $C$DW$299       .dwtag  DW_TAG_enumerator, DW_AT_name("VLIB_WARNING_LOW_MEMORY"), DW_AT_const_value(0x
    3233                            .dwattr $C$DW$299, DW_AT_decl_file(".\..\packages\ti\vlib\src\VLIB_houghLineFromList\..\common
    3234                            .dwattr $C$DW$299, DW_AT_decl_line(0x87)
    3235                            .dwattr $C$DW$299, DW_AT_decl_column(0x05)
    3236                    $C$DW$300       .dwtag  DW_TAG_enumerator, DW_AT_name("VLIB_ERR_NOT_IMPLEMENTED"), DW_AT_const_value(0
    3237                            .dwattr $C$DW$300, DW_AT_decl_file(".\..\packages\ti\vlib\src\VLIB_houghLineFromList\..\common
    3238                            .dwattr $C$DW$300, DW_AT_decl_line(0x88)
    3239                            .dwattr $C$DW$300, DW_AT_decl_column(0x05)
    3240                    $C$DW$301       .dwtag  DW_TAG_enumerator, DW_AT_name("VLIB_ERROR_MAX"), DW_AT_const_value(0x0f)
    3241                            .dwattr $C$DW$301, DW_AT_decl_file(".\..\packages\ti\vlib\src\VLIB_houghLineFromList\..\common
    3242                            .dwattr $C$DW$301, DW_AT_decl_line(0x89)
    3243                            .dwattr $C$DW$301, DW_AT_decl_column(0x05)
TMS320C6x Assembler PC v7.4.2 Thu Mar 19 12:42:01 2015

Tools Copyright (c) 1996-2012 Texas Instruments Incorporated
package/lib/Regression/regress_d_c/./../packages/ti/vlib/src/VLIB_houghLineFromList/VLIB_houghLineFromList_d.se66 PAGE   68

    3244                            .dwendtag $C$DW$T$38
    3245                    
    3246                            .dwattr $C$DW$T$38, DW_AT_decl_file(".\..\packages\ti\vlib\src\VLIB_houghLineFromList\..\commo
    3247                            .dwattr $C$DW$T$38, DW_AT_decl_line(0x79)
    3248                            .dwattr $C$DW$T$38, DW_AT_decl_column(0x0e)
    3249                    $C$DW$T$39      .dwtag  DW_TAG_typedef, DW_AT_name("VLIB_STATUS")
    3250                            .dwattr $C$DW$T$39, DW_AT_type(*$C$DW$T$38)
    3251                            .dwattr $C$DW$T$39, DW_AT_language(DW_LANG_C)
    3252                            .dwattr $C$DW$T$39, DW_AT_decl_file(".\..\packages\ti\vlib\src\VLIB_houghLineFromList\..\commo
    3253                            .dwattr $C$DW$T$39, DW_AT_decl_line(0x8a)
    3254                            .dwattr $C$DW$T$39, DW_AT_decl_column(0x03)
    3255                    
    3256                    $C$DW$T$40      .dwtag  DW_TAG_enumeration_type
    3257                            .dwattr $C$DW$T$40, DW_AT_byte_size(0x04)
    3258                    $C$DW$302       .dwtag  DW_TAG_enumerator, DW_AT_name("vlib_KERNEL_OPT"), DW_AT_const_value(0x00)
    3259                            .dwattr $C$DW$302, DW_AT_decl_file(".\..\packages\ti\vlib\src\VLIB_houghLineFromList\../common
    3260                            .dwattr $C$DW$302, DW_AT_decl_line(0x6a)
    3261                            .dwattr $C$DW$302, DW_AT_decl_column(0x05)
    3262                    $C$DW$303       .dwtag  DW_TAG_enumerator, DW_AT_name("vlib_KERNEL_CN"), DW_AT_const_value(0x01)
    3263                            .dwattr $C$DW$303, DW_AT_decl_file(".\..\packages\ti\vlib\src\VLIB_houghLineFromList\../common
    3264                            .dwattr $C$DW$303, DW_AT_decl_line(0x6b)
    3265                            .dwattr $C$DW$303, DW_AT_decl_column(0x05)
    3266                    $C$DW$304       .dwtag  DW_TAG_enumerator, DW_AT_name("vlib_KERNEL_CNT"), DW_AT_const_value(0x02)
    3267                            .dwattr $C$DW$304, DW_AT_decl_file(".\..\packages\ti\vlib\src\VLIB_houghLineFromList\../common
    3268                            .dwattr $C$DW$304, DW_AT_decl_line(0x6c)
    3269                            .dwattr $C$DW$304, DW_AT_decl_column(0x05)
    3270                            .dwendtag $C$DW$T$40
    3271                    
    3272                            .dwattr $C$DW$T$40, DW_AT_decl_file(".\..\packages\ti\vlib\src\VLIB_houghLineFromList\../commo
    3273                            .dwattr $C$DW$T$40, DW_AT_decl_line(0x69)
    3274                            .dwattr $C$DW$T$40, DW_AT_decl_column(0x06)
    3275                    
    3276                    $C$DW$T$41      .dwtag  DW_TAG_enumeration_type
    3277                            .dwattr $C$DW$T$41, DW_AT_byte_size(0x04)
    3278                    $C$DW$305       .dwtag  DW_TAG_enumerator, DW_AT_name("vlib_KERNEL_FAIL"), DW_AT_const_value(0x00)
    3279                            .dwattr $C$DW$305, DW_AT_decl_file(".\..\packages\ti\vlib\src\VLIB_houghLineFromList\../common
    3280                            .dwattr $C$DW$305, DW_AT_decl_line(0x72)
    3281                            .dwattr $C$DW$305, DW_AT_decl_column(0x05)
    3282                    $C$DW$306       .dwtag  DW_TAG_enumerator, DW_AT_name("vlib_KERNEL_PASS"), DW_AT_const_value(0x01)
    3283                            .dwattr $C$DW$306, DW_AT_decl_file(".\..\packages\ti\vlib\src\VLIB_houghLineFromList\../common
    3284                            .dwattr $C$DW$306, DW_AT_decl_line(0x73)
    3285                            .dwattr $C$DW$306, DW_AT_decl_column(0x05)
    3286                            .dwendtag $C$DW$T$41
    3287                    
    3288                            .dwattr $C$DW$T$41, DW_AT_decl_file(".\..\packages\ti\vlib\src\VLIB_houghLineFromList\../commo
    3289                            .dwattr $C$DW$T$41, DW_AT_decl_line(0x71)
    3290                            .dwattr $C$DW$T$41, DW_AT_decl_column(0x06)
    3291                    
    3292                    $C$DW$T$24      .dwtag  DW_TAG_structure_type
    3293                            .dwattr $C$DW$T$24, DW_AT_byte_size(0x20)
    3294                    $C$DW$307       .dwtag  DW_TAG_member
    3295                            .dwattr $C$DW$307, DW_AT_type(*$C$DW$T$19)
    3296                            .dwattr $C$DW$307, DW_AT_name("testPattern")
    3297                            .dwattr $C$DW$307, DW_AT_TI_symbol_name("testPattern")
    3298                            .dwattr $C$DW$307, DW_AT_data_member_location[DW_OP_plus_uconst 0x0]
TMS320C6x Assembler PC v7.4.2 Thu Mar 19 12:42:01 2015

Tools Copyright (c) 1996-2012 Texas Instruments Incorporated
package/lib/Regression/regress_d_c/./../packages/ti/vlib/src/VLIB_houghLineFromList/VLIB_houghLineFromList_d.se66 PAGE   69

    3299                            .dwattr $C$DW$307, DW_AT_accessibility(DW_ACCESS_public)
    3300                            .dwattr $C$DW$307, DW_AT_decl_file(".\..\packages\ti\vlib\src\VLIB_houghLineFromList\VLIB_houg
    3301                            .dwattr $C$DW$307, DW_AT_decl_line(0x24)
    3302                            .dwattr $C$DW$307, DW_AT_decl_column(0x0f)
    3303                    $C$DW$308       .dwtag  DW_TAG_member
    3304                            .dwattr $C$DW$308, DW_AT_type(*$C$DW$T$21)
    3305                            .dwattr $C$DW$308, DW_AT_name("staticIn")
    3306                            .dwattr $C$DW$308, DW_AT_TI_symbol_name("staticIn")
    3307                            .dwattr $C$DW$308, DW_AT_data_member_location[DW_OP_plus_uconst 0x4]
    3308                            .dwattr $C$DW$308, DW_AT_accessibility(DW_ACCESS_public)
    3309                            .dwattr $C$DW$308, DW_AT_decl_file(".\..\packages\ti\vlib\src\VLIB_houghLineFromList\VLIB_houg
    3310                            .dwattr $C$DW$308, DW_AT_decl_line(0x25)
    3311                            .dwattr $C$DW$308, DW_AT_decl_column(0x0f)
    3312                    $C$DW$309       .dwtag  DW_TAG_member
    3313                            .dwattr $C$DW$309, DW_AT_type(*$C$DW$T$21)
    3314                            .dwattr $C$DW$309, DW_AT_name("staticOut")
    3315                            .dwattr $C$DW$309, DW_AT_TI_symbol_name("staticOut")
    3316                            .dwattr $C$DW$309, DW_AT_data_member_location[DW_OP_plus_uconst 0x8]
    3317                            .dwattr $C$DW$309, DW_AT_accessibility(DW_ACCESS_public)
    3318                            .dwattr $C$DW$309, DW_AT_decl_file(".\..\packages\ti\vlib\src\VLIB_houghLineFromList\VLIB_houg
    3319                            .dwattr $C$DW$309, DW_AT_decl_line(0x26)
    3320                            .dwattr $C$DW$309, DW_AT_decl_column(0x0f)
    3321                    $C$DW$310       .dwtag  DW_TAG_member
    3322                            .dwattr $C$DW$310, DW_AT_type(*$C$DW$T$20)
    3323                            .dwattr $C$DW$310, DW_AT_name("outBlkWidth")
    3324                            .dwattr $C$DW$310, DW_AT_TI_symbol_name("outBlkWidth")
    3325                            .dwattr $C$DW$310, DW_AT_data_member_location[DW_OP_plus_uconst 0xc]
    3326                            .dwattr $C$DW$310, DW_AT_accessibility(DW_ACCESS_public)
    3327                            .dwattr $C$DW$310, DW_AT_decl_file(".\..\packages\ti\vlib\src\VLIB_houghLineFromList\VLIB_houg
    3328                            .dwattr $C$DW$310, DW_AT_decl_line(0x27)
    3329                            .dwattr $C$DW$310, DW_AT_decl_column(0x0f)
    3330                    $C$DW$311       .dwtag  DW_TAG_member
    3331                            .dwattr $C$DW$311, DW_AT_type(*$C$DW$T$20)
    3332                            .dwattr $C$DW$311, DW_AT_name("outBlkHeight")
    3333                            .dwattr $C$DW$311, DW_AT_TI_symbol_name("outBlkHeight")
    3334                            .dwattr $C$DW$311, DW_AT_data_member_location[DW_OP_plus_uconst 0xe]
    3335                            .dwattr $C$DW$311, DW_AT_accessibility(DW_ACCESS_public)
    3336                            .dwattr $C$DW$311, DW_AT_decl_file(".\..\packages\ti\vlib\src\VLIB_houghLineFromList\VLIB_houg
    3337                            .dwattr $C$DW$311, DW_AT_decl_line(0x28)
    3338                            .dwattr $C$DW$311, DW_AT_decl_column(0x0f)
    3339                    $C$DW$312       .dwtag  DW_TAG_member
    3340                            .dwattr $C$DW$312, DW_AT_type(*$C$DW$T$20)
    3341                            .dwattr $C$DW$312, DW_AT_name("listSize")
    3342                            .dwattr $C$DW$312, DW_AT_TI_symbol_name("listSize")
    3343                            .dwattr $C$DW$312, DW_AT_data_member_location[DW_OP_plus_uconst 0x10]
    3344                            .dwattr $C$DW$312, DW_AT_accessibility(DW_ACCESS_public)
    3345                            .dwattr $C$DW$312, DW_AT_decl_file(".\..\packages\ti\vlib\src\VLIB_houghLineFromList\VLIB_houg
    3346                            .dwattr $C$DW$312, DW_AT_decl_line(0x29)
    3347                            .dwattr $C$DW$312, DW_AT_decl_column(0x0f)
    3348                    $C$DW$313       .dwtag  DW_TAG_member
    3349                            .dwattr $C$DW$313, DW_AT_type(*$C$DW$T$20)
    3350                            .dwattr $C$DW$313, DW_AT_name("thetaRange")
    3351                            .dwattr $C$DW$313, DW_AT_TI_symbol_name("thetaRange")
    3352                            .dwattr $C$DW$313, DW_AT_data_member_location[DW_OP_plus_uconst 0x12]
    3353                            .dwattr $C$DW$313, DW_AT_accessibility(DW_ACCESS_public)
TMS320C6x Assembler PC v7.4.2 Thu Mar 19 12:42:01 2015

Tools Copyright (c) 1996-2012 Texas Instruments Incorporated
package/lib/Regression/regress_d_c/./../packages/ti/vlib/src/VLIB_houghLineFromList/VLIB_houghLineFromList_d.se66 PAGE   70

    3354                            .dwattr $C$DW$313, DW_AT_decl_file(".\..\packages\ti\vlib\src\VLIB_houghLineFromList\VLIB_houg
    3355                            .dwattr $C$DW$313, DW_AT_decl_line(0x2a)
    3356                            .dwattr $C$DW$313, DW_AT_decl_column(0x0f)
    3357                    $C$DW$314       .dwtag  DW_TAG_member
    3358                            .dwattr $C$DW$314, DW_AT_type(*$C$DW$T$20)
    3359                            .dwattr $C$DW$314, DW_AT_name("rhoMaxLength")
    3360                            .dwattr $C$DW$314, DW_AT_TI_symbol_name("rhoMaxLength")
    3361                            .dwattr $C$DW$314, DW_AT_data_member_location[DW_OP_plus_uconst 0x14]
    3362                            .dwattr $C$DW$314, DW_AT_accessibility(DW_ACCESS_public)
    3363                            .dwattr $C$DW$314, DW_AT_decl_file(".\..\packages\ti\vlib\src\VLIB_houghLineFromList\VLIB_houg
    3364                            .dwattr $C$DW$314, DW_AT_decl_line(0x2b)
    3365                            .dwattr $C$DW$314, DW_AT_decl_column(0x0f)
    3366                    $C$DW$315       .dwtag  DW_TAG_member
    3367                            .dwattr $C$DW$315, DW_AT_type(*$C$DW$T$23)
    3368                            .dwattr $C$DW$315, DW_AT_name("ref_pSIN")
    3369                            .dwattr $C$DW$315, DW_AT_TI_symbol_name("ref_pSIN")
    3370                            .dwattr $C$DW$315, DW_AT_data_member_location[DW_OP_plus_uconst 0x18]
    3371                            .dwattr $C$DW$315, DW_AT_accessibility(DW_ACCESS_public)
    3372                            .dwattr $C$DW$315, DW_AT_decl_file(".\..\packages\ti\vlib\src\VLIB_houghLineFromList\VLIB_houg
    3373                            .dwattr $C$DW$315, DW_AT_decl_line(0x2c)
    3374                            .dwattr $C$DW$315, DW_AT_decl_column(0x0f)
    3375                    $C$DW$316       .dwtag  DW_TAG_member
    3376                            .dwattr $C$DW$316, DW_AT_type(*$C$DW$T$23)
    3377                            .dwattr $C$DW$316, DW_AT_name("ref_pCOS")
    3378                            .dwattr $C$DW$316, DW_AT_TI_symbol_name("ref_pCOS")
    3379                            .dwattr $C$DW$316, DW_AT_data_member_location[DW_OP_plus_uconst 0x1c]
    3380                            .dwattr $C$DW$316, DW_AT_accessibility(DW_ACCESS_public)
    3381                            .dwattr $C$DW$316, DW_AT_decl_file(".\..\packages\ti\vlib\src\VLIB_houghLineFromList\VLIB_houg
    3382                            .dwattr $C$DW$316, DW_AT_decl_line(0x2d)
    3383                            .dwattr $C$DW$316, DW_AT_decl_column(0x0f)
    3384                            .dwendtag $C$DW$T$24
    3385                    
    3386                            .dwattr $C$DW$T$24, DW_AT_decl_file(".\..\packages\ti\vlib\src\VLIB_houghLineFromList\VLIB_hou
    3387                            .dwattr $C$DW$T$24, DW_AT_decl_line(0x23)
    3388                            .dwattr $C$DW$T$24, DW_AT_decl_column(0x10)
    3389                    $C$DW$T$42      .dwtag  DW_TAG_pointer_type
    3390                            .dwattr $C$DW$T$42, DW_AT_type(*$C$DW$T$24)
    3391                            .dwattr $C$DW$T$42, DW_AT_address_class(0x20)
    3392                    $C$DW$T$44      .dwtag  DW_TAG_typedef, DW_AT_name("houghLineFromList_testParams_t")
    3393                            .dwattr $C$DW$T$44, DW_AT_type(*$C$DW$T$24)
    3394                            .dwattr $C$DW$T$44, DW_AT_language(DW_LANG_C)
    3395                            .dwattr $C$DW$T$44, DW_AT_decl_file(".\..\packages\ti\vlib\src\VLIB_houghLineFromList\VLIB_hou
    3396                            .dwattr $C$DW$T$44, DW_AT_decl_line(0x2e)
    3397                            .dwattr $C$DW$T$44, DW_AT_decl_column(0x03)
    3398                    $C$DW$T$45      .dwtag  DW_TAG_pointer_type
    3399                            .dwattr $C$DW$T$45, DW_AT_type(*$C$DW$T$44)
    3400                            .dwattr $C$DW$T$45, DW_AT_address_class(0x20)
    3401                    $C$DW$T$46      .dwtag  DW_TAG_pointer_type
    3402                            .dwattr $C$DW$T$46, DW_AT_type(*$C$DW$T$45)
    3403                            .dwattr $C$DW$T$46, DW_AT_address_class(0x20)
    3404                    
    3405                    $C$DW$T$26      .dwtag  DW_TAG_structure_type
    3406                            .dwattr $C$DW$T$26, DW_AT_byte_size(0x18)
    3407                    $C$DW$317       .dwtag  DW_TAG_member
    3408                            .dwattr $C$DW$317, DW_AT_type(*$C$DW$T$10)
TMS320C6x Assembler PC v7.4.2 Thu Mar 19 12:42:01 2015

Tools Copyright (c) 1996-2012 Texas Instruments Incorporated
package/lib/Regression/regress_d_c/./../packages/ti/vlib/src/VLIB_houghLineFromList/VLIB_houghLineFromList_d.se66 PAGE   71

    3409                            .dwattr $C$DW$317, DW_AT_name("fd")
    3410                            .dwattr $C$DW$317, DW_AT_TI_symbol_name("fd")
    3411                            .dwattr $C$DW$317, DW_AT_data_member_location[DW_OP_plus_uconst 0x0]
    3412                            .dwattr $C$DW$317, DW_AT_accessibility(DW_ACCESS_public)
    3413                            .dwattr $C$DW$317, DW_AT_decl_file("C:/VLIB_Tools/CCSV5_4_0/ccsv5/tools/compiler/C6000/include
    3414                            .dwattr $C$DW$317, DW_AT_decl_line(0x49)
    3415                            .dwattr $C$DW$317, DW_AT_decl_column(0x0b)
    3416                    $C$DW$318       .dwtag  DW_TAG_member
    3417                            .dwattr $C$DW$318, DW_AT_type(*$C$DW$T$25)
    3418                            .dwattr $C$DW$318, DW_AT_name("buf")
    3419                            .dwattr $C$DW$318, DW_AT_TI_symbol_name("buf")
    3420                            .dwattr $C$DW$318, DW_AT_data_member_location[DW_OP_plus_uconst 0x4]
    3421                            .dwattr $C$DW$318, DW_AT_accessibility(DW_ACCESS_public)
    3422                            .dwattr $C$DW$318, DW_AT_decl_file("C:/VLIB_Tools/CCSV5_4_0/ccsv5/tools/compiler/C6000/include
    3423                            .dwattr $C$DW$318, DW_AT_decl_line(0x4a)
    3424                            .dwattr $C$DW$318, DW_AT_decl_column(0x16)
    3425                    $C$DW$319       .dwtag  DW_TAG_member
    3426                            .dwattr $C$DW$319, DW_AT_type(*$C$DW$T$25)
    3427                            .dwattr $C$DW$319, DW_AT_name("pos")
    3428                            .dwattr $C$DW$319, DW_AT_TI_symbol_name("pos")
    3429                            .dwattr $C$DW$319, DW_AT_data_member_location[DW_OP_plus_uconst 0x8]
    3430                            .dwattr $C$DW$319, DW_AT_accessibility(DW_ACCESS_public)
    3431                            .dwattr $C$DW$319, DW_AT_decl_file("C:/VLIB_Tools/CCSV5_4_0/ccsv5/tools/compiler/C6000/include
    3432                            .dwattr $C$DW$319, DW_AT_decl_line(0x4b)
    3433                            .dwattr $C$DW$319, DW_AT_decl_column(0x16)
    3434                    $C$DW$320       .dwtag  DW_TAG_member
    3435                            .dwattr $C$DW$320, DW_AT_type(*$C$DW$T$25)
    3436                            .dwattr $C$DW$320, DW_AT_name("bufend")
    3437                            .dwattr $C$DW$320, DW_AT_TI_symbol_name("bufend")
    3438                            .dwattr $C$DW$320, DW_AT_data_member_location[DW_OP_plus_uconst 0xc]
    3439                            .dwattr $C$DW$320, DW_AT_accessibility(DW_ACCESS_public)
    3440                            .dwattr $C$DW$320, DW_AT_decl_file("C:/VLIB_Tools/CCSV5_4_0/ccsv5/tools/compiler/C6000/include
    3441                            .dwattr $C$DW$320, DW_AT_decl_line(0x4c)
    3442                            .dwattr $C$DW$320, DW_AT_decl_column(0x16)
    3443                    $C$DW$321       .dwtag  DW_TAG_member
    3444                            .dwattr $C$DW$321, DW_AT_type(*$C$DW$T$25)
    3445                            .dwattr $C$DW$321, DW_AT_name("buff_stop")
    3446                            .dwattr $C$DW$321, DW_AT_TI_symbol_name("buff_stop")
    3447                            .dwattr $C$DW$321, DW_AT_data_member_location[DW_OP_plus_uconst 0x10]
    3448                            .dwattr $C$DW$321, DW_AT_accessibility(DW_ACCESS_public)
    3449                            .dwattr $C$DW$321, DW_AT_decl_file("C:/VLIB_Tools/CCSV5_4_0/ccsv5/tools/compiler/C6000/include
    3450                            .dwattr $C$DW$321, DW_AT_decl_line(0x4d)
    3451                            .dwattr $C$DW$321, DW_AT_decl_column(0x16)
    3452                    $C$DW$322       .dwtag  DW_TAG_member
    3453                            .dwattr $C$DW$322, DW_AT_type(*$C$DW$T$11)
    3454                            .dwattr $C$DW$322, DW_AT_name("flags")
    3455                            .dwattr $C$DW$322, DW_AT_TI_symbol_name("flags")
    3456                            .dwattr $C$DW$322, DW_AT_data_member_location[DW_OP_plus_uconst 0x14]
    3457                            .dwattr $C$DW$322, DW_AT_accessibility(DW_ACCESS_public)
    3458                            .dwattr $C$DW$322, DW_AT_decl_file("C:/VLIB_Tools/CCSV5_4_0/ccsv5/tools/compiler/C6000/include
    3459                            .dwattr $C$DW$322, DW_AT_decl_line(0x4e)
    3460                            .dwattr $C$DW$322, DW_AT_decl_column(0x16)
    3461                            .dwendtag $C$DW$T$26
    3462                    
    3463                            .dwattr $C$DW$T$26, DW_AT_decl_file("C:/VLIB_Tools/CCSV5_4_0/ccsv5/tools/compiler/C6000/includ
TMS320C6x Assembler PC v7.4.2 Thu Mar 19 12:42:01 2015

Tools Copyright (c) 1996-2012 Texas Instruments Incorporated
package/lib/Regression/regress_d_c/./../packages/ti/vlib/src/VLIB_houghLineFromList/VLIB_houghLineFromList_d.se66 PAGE   72

    3464                            .dwattr $C$DW$T$26, DW_AT_decl_line(0x48)
    3465                            .dwattr $C$DW$T$26, DW_AT_decl_column(0x10)
    3466                    $C$DW$T$47      .dwtag  DW_TAG_typedef, DW_AT_name("FILE")
    3467                            .dwattr $C$DW$T$47, DW_AT_type(*$C$DW$T$26)
    3468                            .dwattr $C$DW$T$47, DW_AT_language(DW_LANG_C)
    3469                            .dwattr $C$DW$T$47, DW_AT_decl_file("C:/VLIB_Tools/CCSV5_4_0/ccsv5/tools/compiler/C6000/includ
    3470                            .dwattr $C$DW$T$47, DW_AT_decl_line(0x4f)
    3471                            .dwattr $C$DW$T$47, DW_AT_decl_column(0x03)
    3472                    
    3473                    $C$DW$T$27      .dwtag  DW_TAG_structure_type
    3474                            .dwattr $C$DW$T$27, DW_AT_byte_size(0x08)
    3475                    $C$DW$323       .dwtag  DW_TAG_member
    3476                            .dwattr $C$DW$323, DW_AT_type(*$C$DW$T$10)
    3477                            .dwattr $C$DW$323, DW_AT_name("quot")
    3478                            .dwattr $C$DW$323, DW_AT_TI_symbol_name("quot")
    3479                            .dwattr $C$DW$323, DW_AT_data_member_location[DW_OP_plus_uconst 0x0]
    3480                            .dwattr $C$DW$323, DW_AT_accessibility(DW_ACCESS_public)
    3481                            .dwattr $C$DW$323, DW_AT_decl_file("C:/VLIB_Tools/CCSV5_4_0/ccsv5/tools/compiler/C6000/include
    3482                            .dwattr $C$DW$323, DW_AT_decl_line(0x3e)
    3483                            .dwattr $C$DW$323, DW_AT_decl_column(0x16)
    3484                    $C$DW$324       .dwtag  DW_TAG_member
    3485                            .dwattr $C$DW$324, DW_AT_type(*$C$DW$T$10)
    3486                            .dwattr $C$DW$324, DW_AT_name("rem")
    3487                            .dwattr $C$DW$324, DW_AT_TI_symbol_name("rem")
    3488                            .dwattr $C$DW$324, DW_AT_data_member_location[DW_OP_plus_uconst 0x4]
    3489                            .dwattr $C$DW$324, DW_AT_accessibility(DW_ACCESS_public)
    3490                            .dwattr $C$DW$324, DW_AT_decl_file("C:/VLIB_Tools/CCSV5_4_0/ccsv5/tools/compiler/C6000/include
    3491                            .dwattr $C$DW$324, DW_AT_decl_line(0x3e)
    3492                            .dwattr $C$DW$324, DW_AT_decl_column(0x1c)
    3493                            .dwendtag $C$DW$T$27
    3494                    
    3495                            .dwattr $C$DW$T$27, DW_AT_decl_file("C:/VLIB_Tools/CCSV5_4_0/ccsv5/tools/compiler/C6000/includ
    3496                            .dwattr $C$DW$T$27, DW_AT_decl_line(0x3e)
    3497                            .dwattr $C$DW$T$27, DW_AT_decl_column(0x10)
    3498                    $C$DW$T$48      .dwtag  DW_TAG_typedef, DW_AT_name("div_t")
    3499                            .dwattr $C$DW$T$48, DW_AT_type(*$C$DW$T$27)
    3500                            .dwattr $C$DW$T$48, DW_AT_language(DW_LANG_C)
    3501                            .dwattr $C$DW$T$48, DW_AT_decl_file("C:/VLIB_Tools/CCSV5_4_0/ccsv5/tools/compiler/C6000/includ
    3502                            .dwattr $C$DW$T$48, DW_AT_decl_line(0x3e)
    3503                            .dwattr $C$DW$T$48, DW_AT_decl_column(0x23)
    3504                    
    3505                    $C$DW$T$28      .dwtag  DW_TAG_structure_type
    3506                            .dwattr $C$DW$T$28, DW_AT_byte_size(0x08)
    3507                    $C$DW$325       .dwtag  DW_TAG_member
    3508                            .dwattr $C$DW$325, DW_AT_type(*$C$DW$T$10)
    3509                            .dwattr $C$DW$325, DW_AT_name("quot")
    3510                            .dwattr $C$DW$325, DW_AT_TI_symbol_name("quot")
    3511                            .dwattr $C$DW$325, DW_AT_data_member_location[DW_OP_plus_uconst 0x0]
    3512                            .dwattr $C$DW$325, DW_AT_accessibility(DW_ACCESS_public)
    3513                            .dwattr $C$DW$325, DW_AT_decl_file("C:/VLIB_Tools/CCSV5_4_0/ccsv5/tools/compiler/C6000/include
    3514                            .dwattr $C$DW$325, DW_AT_decl_line(0x40)
    3515                            .dwattr $C$DW$325, DW_AT_decl_column(0x17)
    3516                    $C$DW$326       .dwtag  DW_TAG_member
    3517                            .dwattr $C$DW$326, DW_AT_type(*$C$DW$T$10)
    3518                            .dwattr $C$DW$326, DW_AT_name("rem")
TMS320C6x Assembler PC v7.4.2 Thu Mar 19 12:42:01 2015

Tools Copyright (c) 1996-2012 Texas Instruments Incorporated
package/lib/Regression/regress_d_c/./../packages/ti/vlib/src/VLIB_houghLineFromList/VLIB_houghLineFromList_d.se66 PAGE   73

    3519                            .dwattr $C$DW$326, DW_AT_TI_symbol_name("rem")
    3520                            .dwattr $C$DW$326, DW_AT_data_member_location[DW_OP_plus_uconst 0x4]
    3521                            .dwattr $C$DW$326, DW_AT_accessibility(DW_ACCESS_public)
    3522                            .dwattr $C$DW$326, DW_AT_decl_file("C:/VLIB_Tools/CCSV5_4_0/ccsv5/tools/compiler/C6000/include
    3523                            .dwattr $C$DW$326, DW_AT_decl_line(0x40)
    3524                            .dwattr $C$DW$326, DW_AT_decl_column(0x1d)
    3525                            .dwendtag $C$DW$T$28
    3526                    
    3527                            .dwattr $C$DW$T$28, DW_AT_decl_file("C:/VLIB_Tools/CCSV5_4_0/ccsv5/tools/compiler/C6000/includ
    3528                            .dwattr $C$DW$T$28, DW_AT_decl_line(0x40)
    3529                            .dwattr $C$DW$T$28, DW_AT_decl_column(0x10)
    3530                    $C$DW$T$49      .dwtag  DW_TAG_typedef, DW_AT_name("ldiv_t")
    3531                            .dwattr $C$DW$T$49, DW_AT_type(*$C$DW$T$28)
    3532                            .dwattr $C$DW$T$49, DW_AT_language(DW_LANG_C)
    3533                            .dwattr $C$DW$T$49, DW_AT_decl_file("C:/VLIB_Tools/CCSV5_4_0/ccsv5/tools/compiler/C6000/includ
    3534                            .dwattr $C$DW$T$49, DW_AT_decl_line(0x40)
    3535                            .dwattr $C$DW$T$49, DW_AT_decl_column(0x24)
    3536                    
    3537                    $C$DW$T$29      .dwtag  DW_TAG_structure_type
    3538                            .dwattr $C$DW$T$29, DW_AT_byte_size(0x10)
    3539                    $C$DW$327       .dwtag  DW_TAG_member
    3540                            .dwattr $C$DW$327, DW_AT_type(*$C$DW$T$14)
    3541                            .dwattr $C$DW$327, DW_AT_name("quot")
    3542                            .dwattr $C$DW$327, DW_AT_TI_symbol_name("quot")
    3543                            .dwattr $C$DW$327, DW_AT_data_member_location[DW_OP_plus_uconst 0x0]
    3544                            .dwattr $C$DW$327, DW_AT_accessibility(DW_ACCESS_public)
    3545                            .dwattr $C$DW$327, DW_AT_decl_file("C:/VLIB_Tools/CCSV5_4_0/ccsv5/tools/compiler/C6000/include
    3546                            .dwattr $C$DW$327, DW_AT_decl_line(0x43)
    3547                            .dwattr $C$DW$327, DW_AT_decl_column(0x1c)
    3548                    $C$DW$328       .dwtag  DW_TAG_member
    3549                            .dwattr $C$DW$328, DW_AT_type(*$C$DW$T$14)
    3550                            .dwattr $C$DW$328, DW_AT_name("rem")
    3551                            .dwattr $C$DW$328, DW_AT_TI_symbol_name("rem")
    3552                            .dwattr $C$DW$328, DW_AT_data_member_location[DW_OP_plus_uconst 0x8]
    3553                            .dwattr $C$DW$328, DW_AT_accessibility(DW_ACCESS_public)
    3554                            .dwattr $C$DW$328, DW_AT_decl_file("C:/VLIB_Tools/CCSV5_4_0/ccsv5/tools/compiler/C6000/include
    3555                            .dwattr $C$DW$328, DW_AT_decl_line(0x43)
    3556                            .dwattr $C$DW$328, DW_AT_decl_column(0x22)
    3557                            .dwendtag $C$DW$T$29
    3558                    
    3559                            .dwattr $C$DW$T$29, DW_AT_decl_file("C:/VLIB_Tools/CCSV5_4_0/ccsv5/tools/compiler/C6000/includ
    3560                            .dwattr $C$DW$T$29, DW_AT_decl_line(0x43)
    3561                            .dwattr $C$DW$T$29, DW_AT_decl_column(0x10)
    3562                    $C$DW$T$50      .dwtag  DW_TAG_typedef, DW_AT_name("lldiv_t")
    3563                            .dwattr $C$DW$T$50, DW_AT_type(*$C$DW$T$29)
    3564                            .dwattr $C$DW$T$50, DW_AT_language(DW_LANG_C)
    3565                            .dwattr $C$DW$T$50, DW_AT_decl_file("C:/VLIB_Tools/CCSV5_4_0/ccsv5/tools/compiler/C6000/includ
    3566                            .dwattr $C$DW$T$50, DW_AT_decl_line(0x43)
    3567                            .dwattr $C$DW$T$50, DW_AT_decl_column(0x29)
    3568                    
    3569                    $C$DW$T$31      .dwtag  DW_TAG_structure_type
    3570                            .dwattr $C$DW$T$31, DW_AT_byte_size(0x24)
    3571                    $C$DW$329       .dwtag  DW_TAG_member
    3572                            .dwattr $C$DW$329, DW_AT_type(*$C$DW$T$30)
    3573                            .dwattr $C$DW$329, DW_AT_name("area")
TMS320C6x Assembler PC v7.4.2 Thu Mar 19 12:42:01 2015

Tools Copyright (c) 1996-2012 Texas Instruments Incorporated
package/lib/Regression/regress_d_c/./../packages/ti/vlib/src/VLIB_houghLineFromList/VLIB_houghLineFromList_d.se66 PAGE   74

    3574                            .dwattr $C$DW$329, DW_AT_TI_symbol_name("area")
    3575                            .dwattr $C$DW$329, DW_AT_data_member_location[DW_OP_plus_uconst 0x0]
    3576                            .dwattr $C$DW$329, DW_AT_accessibility(DW_ACCESS_public)
    3577                            .dwattr $C$DW$329, DW_AT_decl_file(".\..\packages\ti\vlib\src\VLIB_houghLineFromList\..\common
    3578                            .dwattr $C$DW$329, DW_AT_decl_line(0x69)
    3579                            .dwattr $C$DW$329, DW_AT_decl_column(0x0d)
    3580                    $C$DW$330       .dwtag  DW_TAG_member
    3581                            .dwattr $C$DW$330, DW_AT_type(*$C$DW$T$30)
    3582                            .dwattr $C$DW$330, DW_AT_name("xsum")
    3583                            .dwattr $C$DW$330, DW_AT_TI_symbol_name("xsum")
    3584                            .dwattr $C$DW$330, DW_AT_data_member_location[DW_OP_plus_uconst 0x4]
    3585                            .dwattr $C$DW$330, DW_AT_accessibility(DW_ACCESS_public)
    3586                            .dwattr $C$DW$330, DW_AT_decl_file(".\..\packages\ti\vlib\src\VLIB_houghLineFromList\..\common
    3587                            .dwattr $C$DW$330, DW_AT_decl_line(0x6a)
    3588                            .dwattr $C$DW$330, DW_AT_decl_column(0x0d)
    3589                    $C$DW$331       .dwtag  DW_TAG_member
    3590                            .dwattr $C$DW$331, DW_AT_type(*$C$DW$T$30)
    3591                            .dwattr $C$DW$331, DW_AT_name("ysum")
    3592                            .dwattr $C$DW$331, DW_AT_TI_symbol_name("ysum")
    3593                            .dwattr $C$DW$331, DW_AT_data_member_location[DW_OP_plus_uconst 0x8]
    3594                            .dwattr $C$DW$331, DW_AT_accessibility(DW_ACCESS_public)
    3595                            .dwattr $C$DW$331, DW_AT_decl_file(".\..\packages\ti\vlib\src\VLIB_houghLineFromList\..\common
    3596                            .dwattr $C$DW$331, DW_AT_decl_line(0x6b)
    3597                            .dwattr $C$DW$331, DW_AT_decl_column(0x0d)
    3598                    $C$DW$332       .dwtag  DW_TAG_member
    3599                            .dwattr $C$DW$332, DW_AT_type(*$C$DW$T$30)
    3600                            .dwattr $C$DW$332, DW_AT_name("xmin")
    3601                            .dwattr $C$DW$332, DW_AT_TI_symbol_name("xmin")
    3602                            .dwattr $C$DW$332, DW_AT_data_member_location[DW_OP_plus_uconst 0xc]
    3603                            .dwattr $C$DW$332, DW_AT_accessibility(DW_ACCESS_public)
    3604                            .dwattr $C$DW$332, DW_AT_decl_file(".\..\packages\ti\vlib\src\VLIB_houghLineFromList\..\common
    3605                            .dwattr $C$DW$332, DW_AT_decl_line(0x6d)
    3606                            .dwattr $C$DW$332, DW_AT_decl_column(0x0d)
    3607                    $C$DW$333       .dwtag  DW_TAG_member
    3608                            .dwattr $C$DW$333, DW_AT_type(*$C$DW$T$30)
    3609                            .dwattr $C$DW$333, DW_AT_name("ymin")
    3610                            .dwattr $C$DW$333, DW_AT_TI_symbol_name("ymin")
    3611                            .dwattr $C$DW$333, DW_AT_data_member_location[DW_OP_plus_uconst 0x10]
    3612                            .dwattr $C$DW$333, DW_AT_accessibility(DW_ACCESS_public)
    3613                            .dwattr $C$DW$333, DW_AT_decl_file(".\..\packages\ti\vlib\src\VLIB_houghLineFromList\..\common
    3614                            .dwattr $C$DW$333, DW_AT_decl_line(0x6e)
    3615                            .dwattr $C$DW$333, DW_AT_decl_column(0x0d)
    3616                    $C$DW$334       .dwtag  DW_TAG_member
    3617                            .dwattr $C$DW$334, DW_AT_type(*$C$DW$T$30)
    3618                            .dwattr $C$DW$334, DW_AT_name("xmax")
    3619                            .dwattr $C$DW$334, DW_AT_TI_symbol_name("xmax")
    3620                            .dwattr $C$DW$334, DW_AT_data_member_location[DW_OP_plus_uconst 0x14]
    3621                            .dwattr $C$DW$334, DW_AT_accessibility(DW_ACCESS_public)
    3622                            .dwattr $C$DW$334, DW_AT_decl_file(".\..\packages\ti\vlib\src\VLIB_houghLineFromList\..\common
    3623                            .dwattr $C$DW$334, DW_AT_decl_line(0x6f)
    3624                            .dwattr $C$DW$334, DW_AT_decl_column(0x0d)
    3625                    $C$DW$335       .dwtag  DW_TAG_member
    3626                            .dwattr $C$DW$335, DW_AT_type(*$C$DW$T$30)
    3627                            .dwattr $C$DW$335, DW_AT_name("ymax")
    3628                            .dwattr $C$DW$335, DW_AT_TI_symbol_name("ymax")
TMS320C6x Assembler PC v7.4.2 Thu Mar 19 12:42:01 2015

Tools Copyright (c) 1996-2012 Texas Instruments Incorporated
package/lib/Regression/regress_d_c/./../packages/ti/vlib/src/VLIB_houghLineFromList/VLIB_houghLineFromList_d.se66 PAGE   75

    3629                            .dwattr $C$DW$335, DW_AT_data_member_location[DW_OP_plus_uconst 0x18]
    3630                            .dwattr $C$DW$335, DW_AT_accessibility(DW_ACCESS_public)
    3631                            .dwattr $C$DW$335, DW_AT_decl_file(".\..\packages\ti\vlib\src\VLIB_houghLineFromList\..\common
    3632                            .dwattr $C$DW$335, DW_AT_decl_line(0x70)
    3633                            .dwattr $C$DW$335, DW_AT_decl_column(0x0d)
    3634                    $C$DW$336       .dwtag  DW_TAG_member
    3635                            .dwattr $C$DW$336, DW_AT_type(*$C$DW$T$30)
    3636                            .dwattr $C$DW$336, DW_AT_name("seedx")
    3637                            .dwattr $C$DW$336, DW_AT_TI_symbol_name("seedx")
    3638                            .dwattr $C$DW$336, DW_AT_data_member_location[DW_OP_plus_uconst 0x1c]
    3639                            .dwattr $C$DW$336, DW_AT_accessibility(DW_ACCESS_public)
    3640                            .dwattr $C$DW$336, DW_AT_decl_file(".\..\packages\ti\vlib\src\VLIB_houghLineFromList\..\common
    3641                            .dwattr $C$DW$336, DW_AT_decl_line(0x72)
    3642                            .dwattr $C$DW$336, DW_AT_decl_column(0x0d)
    3643                    $C$DW$337       .dwtag  DW_TAG_member
    3644                            .dwattr $C$DW$337, DW_AT_type(*$C$DW$T$30)
    3645                            .dwattr $C$DW$337, DW_AT_name("seedy")
    3646                            .dwattr $C$DW$337, DW_AT_TI_symbol_name("seedy")
    3647                            .dwattr $C$DW$337, DW_AT_data_member_location[DW_OP_plus_uconst 0x20]
    3648                            .dwattr $C$DW$337, DW_AT_accessibility(DW_ACCESS_public)
    3649                            .dwattr $C$DW$337, DW_AT_decl_file(".\..\packages\ti\vlib\src\VLIB_houghLineFromList\..\common
    3650                            .dwattr $C$DW$337, DW_AT_decl_line(0x73)
    3651                            .dwattr $C$DW$337, DW_AT_decl_column(0x0d)
    3652                            .dwendtag $C$DW$T$31
    3653                    
    3654                            .dwattr $C$DW$T$31, DW_AT_decl_file(".\..\packages\ti\vlib\src\VLIB_houghLineFromList\..\commo
    3655                            .dwattr $C$DW$T$31, DW_AT_decl_line(0x68)
    3656                            .dwattr $C$DW$T$31, DW_AT_decl_column(0x10)
    3657                    $C$DW$T$51      .dwtag  DW_TAG_typedef, DW_AT_name("VLIB_CC")
    3658                            .dwattr $C$DW$T$51, DW_AT_type(*$C$DW$T$31)
    3659                            .dwattr $C$DW$T$51, DW_AT_language(DW_LANG_C)
    3660                            .dwattr $C$DW$T$51, DW_AT_decl_file(".\..\packages\ti\vlib\src\VLIB_houghLineFromList\..\commo
    3661                            .dwattr $C$DW$T$51, DW_AT_decl_line(0x75)
    3662                            .dwattr $C$DW$T$51, DW_AT_decl_column(0x03)
    3663                    
    3664                    $C$DW$T$34      .dwtag  DW_TAG_structure_type
    3665                            .dwattr $C$DW$T$34, DW_AT_byte_size(0x10)
    3666                    $C$DW$338       .dwtag  DW_TAG_member
    3667                            .dwattr $C$DW$338, DW_AT_type(*$C$DW$T$8)
    3668                            .dwattr $C$DW$338, DW_AT_name("daylight")
    3669                            .dwattr $C$DW$338, DW_AT_TI_symbol_name("daylight")
    3670                            .dwattr $C$DW$338, DW_AT_data_member_location[DW_OP_plus_uconst 0x0]
    3671                            .dwattr $C$DW$338, DW_AT_accessibility(DW_ACCESS_public)
    3672                            .dwattr $C$DW$338, DW_AT_decl_file("C:/VLIB_Tools/CCSV5_4_0/ccsv5/tools/compiler/C6000/include
    3673                            .dwattr $C$DW$338, DW_AT_decl_line(0x52)
    3674                            .dwattr $C$DW$338, DW_AT_decl_column(0x0b)
    3675                    $C$DW$339       .dwtag  DW_TAG_member
    3676                            .dwattr $C$DW$339, DW_AT_type(*$C$DW$T$10)
    3677                            .dwattr $C$DW$339, DW_AT_name("timezone")
    3678                            .dwattr $C$DW$339, DW_AT_TI_symbol_name("timezone")
    3679                            .dwattr $C$DW$339, DW_AT_data_member_location[DW_OP_plus_uconst 0x4]
    3680                            .dwattr $C$DW$339, DW_AT_accessibility(DW_ACCESS_public)
    3681                            .dwattr $C$DW$339, DW_AT_decl_file("C:/VLIB_Tools/CCSV5_4_0/ccsv5/tools/compiler/C6000/include
    3682                            .dwattr $C$DW$339, DW_AT_decl_line(0x53)
    3683                            .dwattr $C$DW$339, DW_AT_decl_column(0x0b)
TMS320C6x Assembler PC v7.4.2 Thu Mar 19 12:42:01 2015

Tools Copyright (c) 1996-2012 Texas Instruments Incorporated
package/lib/Regression/regress_d_c/./../packages/ti/vlib/src/VLIB_houghLineFromList/VLIB_houghLineFromList_d.se66 PAGE   76

    3684                    $C$DW$340       .dwtag  DW_TAG_member
    3685                            .dwattr $C$DW$340, DW_AT_type(*$C$DW$T$33)
    3686                            .dwattr $C$DW$340, DW_AT_name("tzname")
    3687                            .dwattr $C$DW$340, DW_AT_TI_symbol_name("tzname")
    3688                            .dwattr $C$DW$340, DW_AT_data_member_location[DW_OP_plus_uconst 0x8]
    3689                            .dwattr $C$DW$340, DW_AT_accessibility(DW_ACCESS_public)
    3690                            .dwattr $C$DW$340, DW_AT_decl_file("C:/VLIB_Tools/CCSV5_4_0/ccsv5/tools/compiler/C6000/include
    3691                            .dwattr $C$DW$340, DW_AT_decl_line(0x54)
    3692                            .dwattr $C$DW$340, DW_AT_decl_column(0x0b)
    3693                    $C$DW$341       .dwtag  DW_TAG_member
    3694                            .dwattr $C$DW$341, DW_AT_type(*$C$DW$T$33)
    3695                            .dwattr $C$DW$341, DW_AT_name("dstname")
    3696                            .dwattr $C$DW$341, DW_AT_TI_symbol_name("dstname")
    3697                            .dwattr $C$DW$341, DW_AT_data_member_location[DW_OP_plus_uconst 0xc]
    3698                            .dwattr $C$DW$341, DW_AT_accessibility(DW_ACCESS_public)
    3699                            .dwattr $C$DW$341, DW_AT_decl_file("C:/VLIB_Tools/CCSV5_4_0/ccsv5/tools/compiler/C6000/include
    3700                            .dwattr $C$DW$341, DW_AT_decl_line(0x55)
    3701                            .dwattr $C$DW$341, DW_AT_decl_column(0x0b)
    3702                            .dwendtag $C$DW$T$34
    3703                    
    3704                            .dwattr $C$DW$T$34, DW_AT_decl_file("C:/VLIB_Tools/CCSV5_4_0/ccsv5/tools/compiler/C6000/includ
    3705                            .dwattr $C$DW$T$34, DW_AT_decl_line(0x51)
    3706                            .dwattr $C$DW$T$34, DW_AT_decl_column(0x01)
    3707                    $C$DW$T$52      .dwtag  DW_TAG_typedef, DW_AT_name("TZ")
    3708                            .dwattr $C$DW$T$52, DW_AT_type(*$C$DW$T$34)
    3709                            .dwattr $C$DW$T$52, DW_AT_language(DW_LANG_C)
    3710                            .dwattr $C$DW$T$52, DW_AT_decl_file("C:/VLIB_Tools/CCSV5_4_0/ccsv5/tools/compiler/C6000/includ
    3711                            .dwattr $C$DW$T$52, DW_AT_decl_line(0x56)
    3712                            .dwattr $C$DW$T$52, DW_AT_decl_column(0x03)
    3713                    $C$DW$T$2       .dwtag  DW_TAG_unspecified_type
    3714                            .dwattr $C$DW$T$2, DW_AT_name("void")
    3715                    $C$DW$T$3       .dwtag  DW_TAG_pointer_type
    3716                            .dwattr $C$DW$T$3, DW_AT_type(*$C$DW$T$2)
    3717                            .dwattr $C$DW$T$3, DW_AT_address_class(0x20)
    3718                    $C$DW$T$53      .dwtag  DW_TAG_typedef, DW_AT_name("VLIB_PTR")
    3719                            .dwattr $C$DW$T$53, DW_AT_type(*$C$DW$T$3)
    3720                            .dwattr $C$DW$T$53, DW_AT_language(DW_LANG_C)
    3721                            .dwattr $C$DW$T$53, DW_AT_decl_file(".\..\packages\ti\vlib\src\VLIB_houghLineFromList\..\commo
    3722                            .dwattr $C$DW$T$53, DW_AT_decl_line(0x5c)
    3723                            .dwattr $C$DW$T$53, DW_AT_decl_column(0x19)
    3724                    $C$DW$T$4       .dwtag  DW_TAG_base_type
    3725                            .dwattr $C$DW$T$4, DW_AT_encoding(DW_ATE_boolean)
    3726                            .dwattr $C$DW$T$4, DW_AT_name("bool")
    3727                            .dwattr $C$DW$T$4, DW_AT_byte_size(0x01)
    3728                    $C$DW$T$5       .dwtag  DW_TAG_base_type
    3729                            .dwattr $C$DW$T$5, DW_AT_encoding(DW_ATE_signed_char)
    3730                            .dwattr $C$DW$T$5, DW_AT_name("signed char")
    3731                            .dwattr $C$DW$T$5, DW_AT_byte_size(0x01)
    3732                    $C$DW$T$85      .dwtag  DW_TAG_pointer_type
    3733                            .dwattr $C$DW$T$85, DW_AT_type(*$C$DW$T$5)
    3734                            .dwattr $C$DW$T$85, DW_AT_address_class(0x20)
    3735                    $C$DW$T$97      .dwtag  DW_TAG_typedef, DW_AT_name("int8_t")
    3736                            .dwattr $C$DW$T$97, DW_AT_type(*$C$DW$T$5)
    3737                            .dwattr $C$DW$T$97, DW_AT_language(DW_LANG_C)
    3738                            .dwattr $C$DW$T$97, DW_AT_decl_file("C:/VLIB_Tools/CCSV5_4_0/ccsv5/tools/compiler/C6000/includ
TMS320C6x Assembler PC v7.4.2 Thu Mar 19 12:42:01 2015

Tools Copyright (c) 1996-2012 Texas Instruments Incorporated
package/lib/Regression/regress_d_c/./../packages/ti/vlib/src/VLIB_houghLineFromList/VLIB_houghLineFromList_d.se66 PAGE   77

    3739                            .dwattr $C$DW$T$97, DW_AT_decl_line(0x2a)
    3740                            .dwattr $C$DW$T$97, DW_AT_decl_column(0x1d)
    3741                    $C$DW$T$98      .dwtag  DW_TAG_typedef, DW_AT_name("int_least8_t")
    3742                            .dwattr $C$DW$T$98, DW_AT_type(*$C$DW$T$97)
    3743                            .dwattr $C$DW$T$98, DW_AT_language(DW_LANG_C)
    3744                            .dwattr $C$DW$T$98, DW_AT_decl_file("C:/VLIB_Tools/CCSV5_4_0/ccsv5/tools/compiler/C6000/includ
    3745                            .dwattr $C$DW$T$98, DW_AT_decl_line(0x39)
    3746                            .dwattr $C$DW$T$98, DW_AT_decl_column(0x17)
    3747                    $C$DW$T$6       .dwtag  DW_TAG_base_type
    3748                            .dwattr $C$DW$T$6, DW_AT_encoding(DW_ATE_unsigned_char)
    3749                            .dwattr $C$DW$T$6, DW_AT_name("unsigned char")
    3750                            .dwattr $C$DW$T$6, DW_AT_byte_size(0x01)
    3751                    $C$DW$T$25      .dwtag  DW_TAG_pointer_type
    3752                            .dwattr $C$DW$T$25, DW_AT_type(*$C$DW$T$6)
    3753                            .dwattr $C$DW$T$25, DW_AT_address_class(0x20)
    3754                    $C$DW$T$19      .dwtag  DW_TAG_typedef, DW_AT_name("uint8_t")
    3755                            .dwattr $C$DW$T$19, DW_AT_type(*$C$DW$T$6)
    3756                            .dwattr $C$DW$T$19, DW_AT_language(DW_LANG_C)
    3757                            .dwattr $C$DW$T$19, DW_AT_decl_file("C:/VLIB_Tools/CCSV5_4_0/ccsv5/tools/compiler/C6000/includ
    3758                            .dwattr $C$DW$T$19, DW_AT_decl_line(0x2b)
    3759                            .dwattr $C$DW$T$19, DW_AT_decl_column(0x1c)
    3760                    $C$DW$T$99      .dwtag  DW_TAG_typedef, DW_AT_name("uint_least8_t")
    3761                            .dwattr $C$DW$T$99, DW_AT_type(*$C$DW$T$19)
    3762                            .dwattr $C$DW$T$99, DW_AT_language(DW_LANG_C)
    3763                            .dwattr $C$DW$T$99, DW_AT_decl_file("C:/VLIB_Tools/CCSV5_4_0/ccsv5/tools/compiler/C6000/includ
    3764                            .dwattr $C$DW$T$99, DW_AT_decl_line(0x3a)
    3765                            .dwattr $C$DW$T$99, DW_AT_decl_column(0x16)
    3766                    $C$DW$T$7       .dwtag  DW_TAG_base_type
    3767                            .dwattr $C$DW$T$7, DW_AT_encoding(DW_ATE_signed_char)
    3768                            .dwattr $C$DW$T$7, DW_AT_name("wchar_t")
    3769                            .dwattr $C$DW$T$7, DW_AT_byte_size(0x02)
    3770                    $C$DW$T$8       .dwtag  DW_TAG_base_type
    3771                            .dwattr $C$DW$T$8, DW_AT_encoding(DW_ATE_signed)
    3772                            .dwattr $C$DW$T$8, DW_AT_name("short")
    3773                            .dwattr $C$DW$T$8, DW_AT_byte_size(0x02)
    3774                    $C$DW$T$100     .dwtag  DW_TAG_pointer_type
    3775                            .dwattr $C$DW$T$100, DW_AT_type(*$C$DW$T$8)
    3776                            .dwattr $C$DW$T$100, DW_AT_address_class(0x20)
    3777                    $C$DW$T$22      .dwtag  DW_TAG_typedef, DW_AT_name("int16_t")
    3778                            .dwattr $C$DW$T$22, DW_AT_type(*$C$DW$T$8)
    3779                            .dwattr $C$DW$T$22, DW_AT_language(DW_LANG_C)
    3780                            .dwattr $C$DW$T$22, DW_AT_decl_file("C:/VLIB_Tools/CCSV5_4_0/ccsv5/tools/compiler/C6000/includ
    3781                            .dwattr $C$DW$T$22, DW_AT_decl_line(0x2c)
    3782                            .dwattr $C$DW$T$22, DW_AT_decl_column(0x1d)
    3783                    $C$DW$T$23      .dwtag  DW_TAG_pointer_type
    3784                            .dwattr $C$DW$T$23, DW_AT_type(*$C$DW$T$22)
    3785                            .dwattr $C$DW$T$23, DW_AT_address_class(0x20)
    3786                    $C$DW$T$103     .dwtag  DW_TAG_restrict_type
    3787                            .dwattr $C$DW$T$103, DW_AT_type(*$C$DW$T$23)
    3788                    $C$DW$T$105     .dwtag  DW_TAG_const_type
    3789                            .dwattr $C$DW$T$105, DW_AT_type(*$C$DW$T$22)
    3790                    $C$DW$T$106     .dwtag  DW_TAG_pointer_type
    3791                            .dwattr $C$DW$T$106, DW_AT_type(*$C$DW$T$105)
    3792                            .dwattr $C$DW$T$106, DW_AT_address_class(0x20)
    3793                    $C$DW$T$107     .dwtag  DW_TAG_typedef, DW_AT_name("int_least16_t")
TMS320C6x Assembler PC v7.4.2 Thu Mar 19 12:42:01 2015

Tools Copyright (c) 1996-2012 Texas Instruments Incorporated
package/lib/Regression/regress_d_c/./../packages/ti/vlib/src/VLIB_houghLineFromList/VLIB_houghLineFromList_d.se66 PAGE   78

    3794                            .dwattr $C$DW$T$107, DW_AT_type(*$C$DW$T$22)
    3795                            .dwattr $C$DW$T$107, DW_AT_language(DW_LANG_C)
    3796                            .dwattr $C$DW$T$107, DW_AT_decl_file("C:/VLIB_Tools/CCSV5_4_0/ccsv5/tools/compiler/C6000/inclu
    3797                            .dwattr $C$DW$T$107, DW_AT_decl_line(0x3c)
    3798                            .dwattr $C$DW$T$107, DW_AT_decl_column(0x17)
    3799                    $C$DW$T$9       .dwtag  DW_TAG_base_type
    3800                            .dwattr $C$DW$T$9, DW_AT_encoding(DW_ATE_unsigned)
    3801                            .dwattr $C$DW$T$9, DW_AT_name("unsigned short")
    3802                            .dwattr $C$DW$T$9, DW_AT_byte_size(0x02)
    3803                    $C$DW$T$108     .dwtag  DW_TAG_pointer_type
    3804                            .dwattr $C$DW$T$108, DW_AT_type(*$C$DW$T$9)
    3805                            .dwattr $C$DW$T$108, DW_AT_address_class(0x20)
    3806                    $C$DW$T$20      .dwtag  DW_TAG_typedef, DW_AT_name("uint16_t")
    3807                            .dwattr $C$DW$T$20, DW_AT_type(*$C$DW$T$9)
    3808                            .dwattr $C$DW$T$20, DW_AT_language(DW_LANG_C)
    3809                            .dwattr $C$DW$T$20, DW_AT_decl_file("C:/VLIB_Tools/CCSV5_4_0/ccsv5/tools/compiler/C6000/includ
    3810                            .dwattr $C$DW$T$20, DW_AT_decl_line(0x2d)
    3811                            .dwattr $C$DW$T$20, DW_AT_decl_column(0x1c)
    3812                    $C$DW$T$21      .dwtag  DW_TAG_pointer_type
    3813                            .dwattr $C$DW$T$21, DW_AT_type(*$C$DW$T$20)
    3814                            .dwattr $C$DW$T$21, DW_AT_address_class(0x20)
    3815                    $C$DW$T$110     .dwtag  DW_TAG_restrict_type
    3816                            .dwattr $C$DW$T$110, DW_AT_type(*$C$DW$T$21)
    3817                    $C$DW$T$111     .dwtag  DW_TAG_const_type
    3818                            .dwattr $C$DW$T$111, DW_AT_type(*$C$DW$T$20)
    3819                    $C$DW$T$112     .dwtag  DW_TAG_pointer_type
    3820                            .dwattr $C$DW$T$112, DW_AT_type(*$C$DW$T$111)
    3821                            .dwattr $C$DW$T$112, DW_AT_address_class(0x20)
    3822                    $C$DW$T$113     .dwtag  DW_TAG_restrict_type
    3823                            .dwattr $C$DW$T$113, DW_AT_type(*$C$DW$T$112)
    3824                    $C$DW$T$114     .dwtag  DW_TAG_typedef, DW_AT_name("uint_least16_t")
    3825                            .dwattr $C$DW$T$114, DW_AT_type(*$C$DW$T$20)
    3826                            .dwattr $C$DW$T$114, DW_AT_language(DW_LANG_C)
    3827                            .dwattr $C$DW$T$114, DW_AT_decl_file("C:/VLIB_Tools/CCSV5_4_0/ccsv5/tools/compiler/C6000/inclu
    3828                            .dwattr $C$DW$T$114, DW_AT_decl_line(0x3d)
    3829                            .dwattr $C$DW$T$114, DW_AT_decl_column(0x16)
    3830                    $C$DW$T$109     .dwtag  DW_TAG_typedef, DW_AT_name("wchar_t")
    3831                            .dwattr $C$DW$T$109, DW_AT_type(*$C$DW$T$9)
    3832                            .dwattr $C$DW$T$109, DW_AT_language(DW_LANG_C)
    3833                            .dwattr $C$DW$T$109, DW_AT_decl_file("C:/VLIB_Tools/CCSV5_4_0/ccsv5/tools/compiler/C6000/inclu
    3834                            .dwattr $C$DW$T$109, DW_AT_decl_line(0x53)
    3835                            .dwattr $C$DW$T$109, DW_AT_decl_column(0x1a)
    3836                    $C$DW$T$10      .dwtag  DW_TAG_base_type
    3837                            .dwattr $C$DW$T$10, DW_AT_encoding(DW_ATE_signed)
    3838                            .dwattr $C$DW$T$10, DW_AT_name("int")
    3839                            .dwattr $C$DW$T$10, DW_AT_byte_size(0x04)
    3840                    $C$DW$T$142     .dwtag  DW_TAG_typedef, DW_AT_name("fpos_t")
    3841                            .dwattr $C$DW$T$142, DW_AT_type(*$C$DW$T$10)
    3842                            .dwattr $C$DW$T$142, DW_AT_language(DW_LANG_C)
    3843                            .dwattr $C$DW$T$142, DW_AT_decl_file("C:/VLIB_Tools/CCSV5_4_0/ccsv5/tools/compiler/C6000/inclu
    3844                            .dwattr $C$DW$T$142, DW_AT_decl_line(0x53)
    3845                            .dwattr $C$DW$T$142, DW_AT_decl_column(0x0d)
    3846                    $C$DW$T$30      .dwtag  DW_TAG_typedef, DW_AT_name("int32_t")
    3847                            .dwattr $C$DW$T$30, DW_AT_type(*$C$DW$T$10)
    3848                            .dwattr $C$DW$T$30, DW_AT_language(DW_LANG_C)
TMS320C6x Assembler PC v7.4.2 Thu Mar 19 12:42:01 2015

Tools Copyright (c) 1996-2012 Texas Instruments Incorporated
package/lib/Regression/regress_d_c/./../packages/ti/vlib/src/VLIB_houghLineFromList/VLIB_houghLineFromList_d.se66 PAGE   79

    3849                            .dwattr $C$DW$T$30, DW_AT_decl_file("C:/VLIB_Tools/CCSV5_4_0/ccsv5/tools/compiler/C6000/includ
    3850                            .dwattr $C$DW$T$30, DW_AT_decl_line(0x2e)
    3851                            .dwattr $C$DW$T$30, DW_AT_decl_column(0x1d)
    3852                    $C$DW$T$132     .dwtag  DW_TAG_typedef, DW_AT_name("VLIB_CCHandle")
    3853                            .dwattr $C$DW$T$132, DW_AT_type(*$C$DW$T$30)
    3854                            .dwattr $C$DW$T$132, DW_AT_language(DW_LANG_C)
    3855                            .dwattr $C$DW$T$132, DW_AT_decl_file(".\..\packages\ti\vlib\src\VLIB_houghLineFromList\..\comm
    3856                            .dwattr $C$DW$T$132, DW_AT_decl_line(0x77)
    3857                            .dwattr $C$DW$T$132, DW_AT_decl_column(0x11)
    3858                    
    3859                    $C$DW$T$35      .dwtag  DW_TAG_array_type
    3860                            .dwattr $C$DW$T$35, DW_AT_type(*$C$DW$T$30)
    3861                            .dwattr $C$DW$T$35, DW_AT_language(DW_LANG_C)
    3862                            .dwattr $C$DW$T$35, DW_AT_byte_size(0x10)
    3863                    $C$DW$342       .dwtag  DW_TAG_subrange_type
    3864                            .dwattr $C$DW$342, DW_AT_upper_bound(0x03)
    3865                            .dwendtag $C$DW$T$35
    3866                    
    3867                    $C$DW$T$81      .dwtag  DW_TAG_pointer_type
    3868                            .dwattr $C$DW$T$81, DW_AT_type(*$C$DW$T$30)
    3869                            .dwattr $C$DW$T$81, DW_AT_address_class(0x20)
    3870                    $C$DW$T$137     .dwtag  DW_TAG_typedef, DW_AT_name("int_fast16_t")
    3871                            .dwattr $C$DW$T$137, DW_AT_type(*$C$DW$T$30)
    3872                            .dwattr $C$DW$T$137, DW_AT_language(DW_LANG_C)
    3873                            .dwattr $C$DW$T$137, DW_AT_decl_file("C:/VLIB_Tools/CCSV5_4_0/ccsv5/tools/compiler/C6000/inclu
    3874                            .dwattr $C$DW$T$137, DW_AT_decl_line(0x4b)
    3875                            .dwattr $C$DW$T$137, DW_AT_decl_column(0x17)
    3876                    $C$DW$T$138     .dwtag  DW_TAG_typedef, DW_AT_name("int_fast32_t")
    3877                            .dwattr $C$DW$T$138, DW_AT_type(*$C$DW$T$30)
    3878                            .dwattr $C$DW$T$138, DW_AT_language(DW_LANG_C)
    3879                            .dwattr $C$DW$T$138, DW_AT_decl_file("C:/VLIB_Tools/CCSV5_4_0/ccsv5/tools/compiler/C6000/inclu
    3880                            .dwattr $C$DW$T$138, DW_AT_decl_line(0x4e)
    3881                            .dwattr $C$DW$T$138, DW_AT_decl_column(0x17)
    3882                    $C$DW$T$139     .dwtag  DW_TAG_typedef, DW_AT_name("int_fast8_t")
    3883                            .dwattr $C$DW$T$139, DW_AT_type(*$C$DW$T$30)
    3884                            .dwattr $C$DW$T$139, DW_AT_language(DW_LANG_C)
    3885                            .dwattr $C$DW$T$139, DW_AT_decl_file("C:/VLIB_Tools/CCSV5_4_0/ccsv5/tools/compiler/C6000/inclu
    3886                            .dwattr $C$DW$T$139, DW_AT_decl_line(0x49)
    3887                            .dwattr $C$DW$T$139, DW_AT_decl_column(0x17)
    3888                    $C$DW$T$140     .dwtag  DW_TAG_typedef, DW_AT_name("int_least32_t")
    3889                            .dwattr $C$DW$T$140, DW_AT_type(*$C$DW$T$30)
    3890                            .dwattr $C$DW$T$140, DW_AT_language(DW_LANG_C)
    3891                            .dwattr $C$DW$T$140, DW_AT_decl_file("C:/VLIB_Tools/CCSV5_4_0/ccsv5/tools/compiler/C6000/inclu
    3892                            .dwattr $C$DW$T$140, DW_AT_decl_line(0x3e)
    3893                            .dwattr $C$DW$T$140, DW_AT_decl_column(0x17)
    3894                    $C$DW$T$141     .dwtag  DW_TAG_typedef, DW_AT_name("intptr_t")
    3895                            .dwattr $C$DW$T$141, DW_AT_type(*$C$DW$T$10)
    3896                            .dwattr $C$DW$T$141, DW_AT_language(DW_LANG_C)
    3897                            .dwattr $C$DW$T$141, DW_AT_decl_file("C:/VLIB_Tools/CCSV5_4_0/ccsv5/tools/compiler/C6000/inclu
    3898                            .dwattr $C$DW$T$141, DW_AT_decl_line(0x58)
    3899                            .dwattr $C$DW$T$141, DW_AT_decl_column(0x1a)
    3900                    $C$DW$T$11      .dwtag  DW_TAG_base_type
    3901                            .dwattr $C$DW$T$11, DW_AT_encoding(DW_ATE_unsigned)
    3902                            .dwattr $C$DW$T$11, DW_AT_name("unsigned int")
    3903                            .dwattr $C$DW$T$11, DW_AT_byte_size(0x04)
TMS320C6x Assembler PC v7.4.2 Thu Mar 19 12:42:01 2015

Tools Copyright (c) 1996-2012 Texas Instruments Incorporated
package/lib/Regression/regress_d_c/./../packages/ti/vlib/src/VLIB_houghLineFromList/VLIB_houghLineFromList_d.se66 PAGE   80

    3904                    $C$DW$T$143     .dwtag  DW_TAG_typedef, DW_AT_name("VLIB_VAL")
    3905                            .dwattr $C$DW$T$143, DW_AT_type(*$C$DW$T$11)
    3906                            .dwattr $C$DW$T$143, DW_AT_language(DW_LANG_C)
    3907                            .dwattr $C$DW$T$143, DW_AT_decl_file(".\..\packages\ti\vlib\src\VLIB_houghLineFromList\..\comm
    3908                            .dwattr $C$DW$T$143, DW_AT_decl_line(0x5d)
    3909                            .dwattr $C$DW$T$143, DW_AT_decl_column(0x17)
    3910                    $C$DW$T$154     .dwtag  DW_TAG_typedef, DW_AT_name("clock_t")
    3911                            .dwattr $C$DW$T$154, DW_AT_type(*$C$DW$T$11)
    3912                            .dwattr $C$DW$T$154, DW_AT_language(DW_LANG_C)
    3913                            .dwattr $C$DW$T$154, DW_AT_decl_file("C:/VLIB_Tools/CCSV5_4_0/ccsv5/tools/compiler/C6000/inclu
    3914                            .dwattr $C$DW$T$154, DW_AT_decl_line(0x37)
    3915                            .dwattr $C$DW$T$154, DW_AT_decl_column(0x16)
    3916                    $C$DW$T$54      .dwtag  DW_TAG_typedef, DW_AT_name("size_t")
    3917                            .dwattr $C$DW$T$54, DW_AT_type(*$C$DW$T$11)
    3918                            .dwattr $C$DW$T$54, DW_AT_language(DW_LANG_C)
    3919                            .dwattr $C$DW$T$54, DW_AT_decl_file("C:/VLIB_Tools/CCSV5_4_0/ccsv5/tools/compiler/C6000/includ
    3920                            .dwattr $C$DW$T$54, DW_AT_decl_line(0x45)
    3921                            .dwattr $C$DW$T$54, DW_AT_decl_column(0x19)
    3922                    $C$DW$T$147     .dwtag  DW_TAG_typedef, DW_AT_name("time_t")
    3923                            .dwattr $C$DW$T$147, DW_AT_type(*$C$DW$T$11)
    3924                            .dwattr $C$DW$T$147, DW_AT_language(DW_LANG_C)
    3925                            .dwattr $C$DW$T$147, DW_AT_decl_file("C:/VLIB_Tools/CCSV5_4_0/ccsv5/tools/compiler/C6000/inclu
    3926                            .dwattr $C$DW$T$147, DW_AT_decl_line(0x38)
    3927                            .dwattr $C$DW$T$147, DW_AT_decl_column(0x16)
    3928                    $C$DW$T$72      .dwtag  DW_TAG_typedef, DW_AT_name("uint32_t")
    3929                            .dwattr $C$DW$T$72, DW_AT_type(*$C$DW$T$11)
    3930                            .dwattr $C$DW$T$72, DW_AT_language(DW_LANG_C)
    3931                            .dwattr $C$DW$T$72, DW_AT_decl_file("C:/VLIB_Tools/CCSV5_4_0/ccsv5/tools/compiler/C6000/includ
    3932                            .dwattr $C$DW$T$72, DW_AT_decl_line(0x2f)
    3933                            .dwattr $C$DW$T$72, DW_AT_decl_column(0x1c)
    3934                    $C$DW$T$149     .dwtag  DW_TAG_typedef, DW_AT_name("uint_fast16_t")
    3935                            .dwattr $C$DW$T$149, DW_AT_type(*$C$DW$T$72)
    3936                            .dwattr $C$DW$T$149, DW_AT_language(DW_LANG_C)
    3937                            .dwattr $C$DW$T$149, DW_AT_decl_file("C:/VLIB_Tools/CCSV5_4_0/ccsv5/tools/compiler/C6000/inclu
    3938                            .dwattr $C$DW$T$149, DW_AT_decl_line(0x4c)
    3939                            .dwattr $C$DW$T$149, DW_AT_decl_column(0x16)
    3940                    $C$DW$T$150     .dwtag  DW_TAG_typedef, DW_AT_name("uint_fast32_t")
    3941                            .dwattr $C$DW$T$150, DW_AT_type(*$C$DW$T$72)
    3942                            .dwattr $C$DW$T$150, DW_AT_language(DW_LANG_C)
    3943                            .dwattr $C$DW$T$150, DW_AT_decl_file("C:/VLIB_Tools/CCSV5_4_0/ccsv5/tools/compiler/C6000/inclu
    3944                            .dwattr $C$DW$T$150, DW_AT_decl_line(0x4f)
    3945                            .dwattr $C$DW$T$150, DW_AT_decl_column(0x16)
    3946                    $C$DW$T$151     .dwtag  DW_TAG_typedef, DW_AT_name("uint_fast8_t")
    3947                            .dwattr $C$DW$T$151, DW_AT_type(*$C$DW$T$72)
    3948                            .dwattr $C$DW$T$151, DW_AT_language(DW_LANG_C)
    3949                            .dwattr $C$DW$T$151, DW_AT_decl_file("C:/VLIB_Tools/CCSV5_4_0/ccsv5/tools/compiler/C6000/inclu
    3950                            .dwattr $C$DW$T$151, DW_AT_decl_line(0x4a)
    3951                            .dwattr $C$DW$T$151, DW_AT_decl_column(0x16)
    3952                    $C$DW$T$152     .dwtag  DW_TAG_typedef, DW_AT_name("uint_least32_t")
    3953                            .dwattr $C$DW$T$152, DW_AT_type(*$C$DW$T$72)
    3954                            .dwattr $C$DW$T$152, DW_AT_language(DW_LANG_C)
    3955                            .dwattr $C$DW$T$152, DW_AT_decl_file("C:/VLIB_Tools/CCSV5_4_0/ccsv5/tools/compiler/C6000/inclu
    3956                            .dwattr $C$DW$T$152, DW_AT_decl_line(0x3f)
    3957                            .dwattr $C$DW$T$152, DW_AT_decl_column(0x16)
    3958                    $C$DW$T$153     .dwtag  DW_TAG_typedef, DW_AT_name("uintptr_t")
TMS320C6x Assembler PC v7.4.2 Thu Mar 19 12:42:01 2015

Tools Copyright (c) 1996-2012 Texas Instruments Incorporated
package/lib/Regression/regress_d_c/./../packages/ti/vlib/src/VLIB_houghLineFromList/VLIB_houghLineFromList_d.se66 PAGE   81

    3959                            .dwattr $C$DW$T$153, DW_AT_type(*$C$DW$T$11)
    3960                            .dwattr $C$DW$T$153, DW_AT_language(DW_LANG_C)
    3961                            .dwattr $C$DW$T$153, DW_AT_decl_file("C:/VLIB_Tools/CCSV5_4_0/ccsv5/tools/compiler/C6000/inclu
    3962                            .dwattr $C$DW$T$153, DW_AT_decl_line(0x59)
    3963                            .dwattr $C$DW$T$153, DW_AT_decl_column(0x1a)
    3964                    $C$DW$T$12      .dwtag  DW_TAG_base_type
    3965                            .dwattr $C$DW$T$12, DW_AT_encoding(DW_ATE_signed)
    3966                            .dwattr $C$DW$T$12, DW_AT_name("__int40_t")
    3967                            .dwattr $C$DW$T$12, DW_AT_byte_size(0x08)
    3968                            .dwattr $C$DW$T$12, DW_AT_bit_size(0x28)
    3969                            .dwattr $C$DW$T$12, DW_AT_bit_offset(0x18)
    3970                    $C$DW$T$155     .dwtag  DW_TAG_typedef, DW_AT_name("int40_t")
    3971                            .dwattr $C$DW$T$155, DW_AT_type(*$C$DW$T$12)
    3972                            .dwattr $C$DW$T$155, DW_AT_language(DW_LANG_C)
    3973                            .dwattr $C$DW$T$155, DW_AT_decl_file("C:/VLIB_Tools/CCSV5_4_0/ccsv5/tools/compiler/C6000/inclu
    3974                            .dwattr $C$DW$T$155, DW_AT_decl_line(0x31)
    3975                            .dwattr $C$DW$T$155, DW_AT_decl_column(0x21)
    3976                    $C$DW$T$156     .dwtag  DW_TAG_typedef, DW_AT_name("int_fast40_t")
    3977                            .dwattr $C$DW$T$156, DW_AT_type(*$C$DW$T$155)
    3978                            .dwattr $C$DW$T$156, DW_AT_language(DW_LANG_C)
    3979                            .dwattr $C$DW$T$156, DW_AT_decl_file("C:/VLIB_Tools/CCSV5_4_0/ccsv5/tools/compiler/C6000/inclu
    3980                            .dwattr $C$DW$T$156, DW_AT_decl_line(0x51)
    3981                            .dwattr $C$DW$T$156, DW_AT_decl_column(0x17)
    3982                    $C$DW$T$157     .dwtag  DW_TAG_typedef, DW_AT_name("int_least40_t")
    3983                            .dwattr $C$DW$T$157, DW_AT_type(*$C$DW$T$155)
    3984                            .dwattr $C$DW$T$157, DW_AT_language(DW_LANG_C)
    3985                            .dwattr $C$DW$T$157, DW_AT_decl_file("C:/VLIB_Tools/CCSV5_4_0/ccsv5/tools/compiler/C6000/inclu
    3986                            .dwattr $C$DW$T$157, DW_AT_decl_line(0x41)
    3987                            .dwattr $C$DW$T$157, DW_AT_decl_column(0x17)
    3988                    $C$DW$T$13      .dwtag  DW_TAG_base_type
    3989                            .dwattr $C$DW$T$13, DW_AT_encoding(DW_ATE_unsigned)
    3990                            .dwattr $C$DW$T$13, DW_AT_name("unsigned __int40_t")
    3991                            .dwattr $C$DW$T$13, DW_AT_byte_size(0x08)
    3992                            .dwattr $C$DW$T$13, DW_AT_bit_size(0x28)
    3993                            .dwattr $C$DW$T$13, DW_AT_bit_offset(0x18)
    3994                    $C$DW$T$158     .dwtag  DW_TAG_typedef, DW_AT_name("uint40_t")
    3995                            .dwattr $C$DW$T$158, DW_AT_type(*$C$DW$T$13)
    3996                            .dwattr $C$DW$T$158, DW_AT_language(DW_LANG_C)
    3997                            .dwattr $C$DW$T$158, DW_AT_decl_file("C:/VLIB_Tools/CCSV5_4_0/ccsv5/tools/compiler/C6000/inclu
    3998                            .dwattr $C$DW$T$158, DW_AT_decl_line(0x32)
    3999                            .dwattr $C$DW$T$158, DW_AT_decl_column(0x20)
    4000                    $C$DW$T$159     .dwtag  DW_TAG_typedef, DW_AT_name("uint_fast40_t")
    4001                            .dwattr $C$DW$T$159, DW_AT_type(*$C$DW$T$158)
    4002                            .dwattr $C$DW$T$159, DW_AT_language(DW_LANG_C)
    4003                            .dwattr $C$DW$T$159, DW_AT_decl_file("C:/VLIB_Tools/CCSV5_4_0/ccsv5/tools/compiler/C6000/inclu
    4004                            .dwattr $C$DW$T$159, DW_AT_decl_line(0x52)
    4005                            .dwattr $C$DW$T$159, DW_AT_decl_column(0x16)
    4006                    $C$DW$T$160     .dwtag  DW_TAG_typedef, DW_AT_name("uint_least40_t")
    4007                            .dwattr $C$DW$T$160, DW_AT_type(*$C$DW$T$158)
    4008                            .dwattr $C$DW$T$160, DW_AT_language(DW_LANG_C)
    4009                            .dwattr $C$DW$T$160, DW_AT_decl_file("C:/VLIB_Tools/CCSV5_4_0/ccsv5/tools/compiler/C6000/inclu
    4010                            .dwattr $C$DW$T$160, DW_AT_decl_line(0x42)
    4011                            .dwattr $C$DW$T$160, DW_AT_decl_column(0x16)
    4012                    $C$DW$T$14      .dwtag  DW_TAG_base_type
    4013                            .dwattr $C$DW$T$14, DW_AT_encoding(DW_ATE_signed)
TMS320C6x Assembler PC v7.4.2 Thu Mar 19 12:42:01 2015

Tools Copyright (c) 1996-2012 Texas Instruments Incorporated
package/lib/Regression/regress_d_c/./../packages/ti/vlib/src/VLIB_houghLineFromList/VLIB_houghLineFromList_d.se66 PAGE   82

    4014                            .dwattr $C$DW$T$14, DW_AT_name("long long")
    4015                            .dwattr $C$DW$T$14, DW_AT_byte_size(0x08)
    4016                    $C$DW$T$162     .dwtag  DW_TAG_typedef, DW_AT_name("int64_t")
    4017                            .dwattr $C$DW$T$162, DW_AT_type(*$C$DW$T$14)
    4018                            .dwattr $C$DW$T$162, DW_AT_language(DW_LANG_C)
    4019                            .dwattr $C$DW$T$162, DW_AT_decl_file("C:/VLIB_Tools/CCSV5_4_0/ccsv5/tools/compiler/C6000/inclu
    4020                            .dwattr $C$DW$T$162, DW_AT_decl_line(0x34)
    4021                            .dwattr $C$DW$T$162, DW_AT_decl_column(0x21)
    4022                    $C$DW$T$163     .dwtag  DW_TAG_typedef, DW_AT_name("int_fast64_t")
    4023                            .dwattr $C$DW$T$163, DW_AT_type(*$C$DW$T$162)
    4024                            .dwattr $C$DW$T$163, DW_AT_language(DW_LANG_C)
    4025                            .dwattr $C$DW$T$163, DW_AT_decl_file("C:/VLIB_Tools/CCSV5_4_0/ccsv5/tools/compiler/C6000/inclu
    4026                            .dwattr $C$DW$T$163, DW_AT_decl_line(0x54)
    4027                            .dwattr $C$DW$T$163, DW_AT_decl_column(0x17)
    4028                    $C$DW$T$164     .dwtag  DW_TAG_typedef, DW_AT_name("int_least64_t")
    4029                            .dwattr $C$DW$T$164, DW_AT_type(*$C$DW$T$162)
    4030                            .dwattr $C$DW$T$164, DW_AT_language(DW_LANG_C)
    4031                            .dwattr $C$DW$T$164, DW_AT_decl_file("C:/VLIB_Tools/CCSV5_4_0/ccsv5/tools/compiler/C6000/inclu
    4032                            .dwattr $C$DW$T$164, DW_AT_decl_line(0x44)
    4033                            .dwattr $C$DW$T$164, DW_AT_decl_column(0x17)
    4034                    $C$DW$T$165     .dwtag  DW_TAG_typedef, DW_AT_name("intmax_t")
    4035                            .dwattr $C$DW$T$165, DW_AT_type(*$C$DW$T$14)
    4036                            .dwattr $C$DW$T$165, DW_AT_language(DW_LANG_C)
    4037                            .dwattr $C$DW$T$165, DW_AT_decl_file("C:/VLIB_Tools/CCSV5_4_0/ccsv5/tools/compiler/C6000/inclu
    4038                            .dwattr $C$DW$T$165, DW_AT_decl_line(0x5c)
    4039                            .dwattr $C$DW$T$165, DW_AT_decl_column(0x20)
    4040                    $C$DW$T$15      .dwtag  DW_TAG_base_type
    4041                            .dwattr $C$DW$T$15, DW_AT_encoding(DW_ATE_unsigned)
    4042                            .dwattr $C$DW$T$15, DW_AT_name("unsigned long long")
    4043                            .dwattr $C$DW$T$15, DW_AT_byte_size(0x08)
    4044                    $C$DW$T$167     .dwtag  DW_TAG_pointer_type
    4045                            .dwattr $C$DW$T$167, DW_AT_type(*$C$DW$T$15)
    4046                            .dwattr $C$DW$T$167, DW_AT_address_class(0x20)
    4047                    $C$DW$T$168     .dwtag  DW_TAG_typedef, DW_AT_name("uint64_t")
    4048                            .dwattr $C$DW$T$168, DW_AT_type(*$C$DW$T$15)
    4049                            .dwattr $C$DW$T$168, DW_AT_language(DW_LANG_C)
    4050                            .dwattr $C$DW$T$168, DW_AT_decl_file("C:/VLIB_Tools/CCSV5_4_0/ccsv5/tools/compiler/C6000/inclu
    4051                            .dwattr $C$DW$T$168, DW_AT_decl_line(0x35)
    4052                            .dwattr $C$DW$T$168, DW_AT_decl_column(0x20)
    4053                    
    4054                    $C$DW$T$169     .dwtag  DW_TAG_array_type
    4055                            .dwattr $C$DW$T$169, DW_AT_type(*$C$DW$T$168)
    4056                            .dwattr $C$DW$T$169, DW_AT_language(DW_LANG_C)
    4057                            .dwattr $C$DW$T$169, DW_AT_byte_size(0x10)
    4058                    $C$DW$343       .dwtag  DW_TAG_subrange_type
    4059                            .dwattr $C$DW$343, DW_AT_upper_bound(0x01)
    4060                            .dwendtag $C$DW$T$169
    4061                    
    4062                    $C$DW$T$170     .dwtag  DW_TAG_typedef, DW_AT_name("uint_fast64_t")
    4063                            .dwattr $C$DW$T$170, DW_AT_type(*$C$DW$T$168)
    4064                            .dwattr $C$DW$T$170, DW_AT_language(DW_LANG_C)
    4065                            .dwattr $C$DW$T$170, DW_AT_decl_file("C:/VLIB_Tools/CCSV5_4_0/ccsv5/tools/compiler/C6000/inclu
    4066                            .dwattr $C$DW$T$170, DW_AT_decl_line(0x55)
    4067                            .dwattr $C$DW$T$170, DW_AT_decl_column(0x16)
    4068                    $C$DW$T$171     .dwtag  DW_TAG_typedef, DW_AT_name("uint_least64_t")
TMS320C6x Assembler PC v7.4.2 Thu Mar 19 12:42:01 2015

Tools Copyright (c) 1996-2012 Texas Instruments Incorporated
package/lib/Regression/regress_d_c/./../packages/ti/vlib/src/VLIB_houghLineFromList/VLIB_houghLineFromList_d.se66 PAGE   83

    4069                            .dwattr $C$DW$T$171, DW_AT_type(*$C$DW$T$168)
    4070                            .dwattr $C$DW$T$171, DW_AT_language(DW_LANG_C)
    4071                            .dwattr $C$DW$T$171, DW_AT_decl_file("C:/VLIB_Tools/CCSV5_4_0/ccsv5/tools/compiler/C6000/inclu
    4072                            .dwattr $C$DW$T$171, DW_AT_decl_line(0x45)
    4073                            .dwattr $C$DW$T$171, DW_AT_decl_column(0x16)
    4074                    $C$DW$T$172     .dwtag  DW_TAG_typedef, DW_AT_name("uintmax_t")
    4075                            .dwattr $C$DW$T$172, DW_AT_type(*$C$DW$T$15)
    4076                            .dwattr $C$DW$T$172, DW_AT_language(DW_LANG_C)
    4077                            .dwattr $C$DW$T$172, DW_AT_decl_file("C:/VLIB_Tools/CCSV5_4_0/ccsv5/tools/compiler/C6000/inclu
    4078                            .dwattr $C$DW$T$172, DW_AT_decl_line(0x5d)
    4079                            .dwattr $C$DW$T$172, DW_AT_decl_column(0x20)
    4080                    $C$DW$T$16      .dwtag  DW_TAG_base_type
    4081                            .dwattr $C$DW$T$16, DW_AT_encoding(DW_ATE_float)
    4082                            .dwattr $C$DW$T$16, DW_AT_name("float")
    4083                            .dwattr $C$DW$T$16, DW_AT_byte_size(0x04)
    4084                    $C$DW$T$129     .dwtag  DW_TAG_typedef, DW_AT_name("VLIB_F32")
    4085                            .dwattr $C$DW$T$129, DW_AT_type(*$C$DW$T$16)
    4086                            .dwattr $C$DW$T$129, DW_AT_language(DW_LANG_C)
    4087                            .dwattr $C$DW$T$129, DW_AT_decl_file(".\..\packages\ti\vlib\src\VLIB_houghLineFromList\..\comm
    4088                            .dwattr $C$DW$T$129, DW_AT_decl_line(0x5b)
    4089                            .dwattr $C$DW$T$129, DW_AT_decl_column(0x0f)
    4090                    $C$DW$T$173     .dwtag  DW_TAG_const_type
    4091                            .dwattr $C$DW$T$173, DW_AT_type(*$C$DW$T$129)
    4092                    $C$DW$T$175     .dwtag  DW_TAG_typedef, DW_AT_name("float32_t")
    4093                            .dwattr $C$DW$T$175, DW_AT_type(*$C$DW$T$16)
    4094                            .dwattr $C$DW$T$175, DW_AT_language(DW_LANG_C)
    4095                            .dwattr $C$DW$T$175, DW_AT_decl_file("C:\VLIB_Tools\CCSV5_4_0\ccsv5\tools\compiler\C6000\inclu
    4096                            .dwattr $C$DW$T$175, DW_AT_decl_line(0x30)
    4097                            .dwattr $C$DW$T$175, DW_AT_decl_column(0x0f)
    4098                    $C$DW$T$17      .dwtag  DW_TAG_base_type
    4099                            .dwattr $C$DW$T$17, DW_AT_encoding(DW_ATE_float)
    4100                            .dwattr $C$DW$T$17, DW_AT_name("double")
    4101                            .dwattr $C$DW$T$17, DW_AT_byte_size(0x08)
    4102                    $C$DW$T$176     .dwtag  DW_TAG_typedef, DW_AT_name("VLIB_D64")
    4103                            .dwattr $C$DW$T$176, DW_AT_type(*$C$DW$T$17)
    4104                            .dwattr $C$DW$T$176, DW_AT_language(DW_LANG_C)
    4105                            .dwattr $C$DW$T$176, DW_AT_decl_file(".\..\packages\ti\vlib\src\VLIB_houghLineFromList\..\comm
    4106                            .dwattr $C$DW$T$176, DW_AT_decl_line(0x5a)
    4107                            .dwattr $C$DW$T$176, DW_AT_decl_column(0x10)
    4108                    $C$DW$T$177     .dwtag  DW_TAG_pointer_type
    4109                            .dwattr $C$DW$T$177, DW_AT_type(*$C$DW$T$17)
    4110                            .dwattr $C$DW$T$177, DW_AT_address_class(0x20)
    4111                    $C$DW$T$182     .dwtag  DW_TAG_typedef, DW_AT_name("__float2_t")
    4112                            .dwattr $C$DW$T$182, DW_AT_type(*$C$DW$T$17)
    4113                            .dwattr $C$DW$T$182, DW_AT_language(DW_LANG_C)
    4114                            .dwattr $C$DW$T$182, DW_AT_decl_file("C:/VLIB_Tools/CCSV5_4_0/ccsv5/tools/compiler/C6000/inclu
    4115                            .dwattr $C$DW$T$182, DW_AT_decl_line(0x5f)
    4116                            .dwattr $C$DW$T$182, DW_AT_decl_column(0x14)
    4117                    $C$DW$T$18      .dwtag  DW_TAG_base_type
    4118                            .dwattr $C$DW$T$18, DW_AT_encoding(DW_ATE_float)
    4119                            .dwattr $C$DW$T$18, DW_AT_name("long double")
    4120                            .dwattr $C$DW$T$18, DW_AT_byte_size(0x08)
    4121                    $C$DW$T$32      .dwtag  DW_TAG_base_type
    4122                            .dwattr $C$DW$T$32, DW_AT_encoding(DW_ATE_signed_char)
    4123                            .dwattr $C$DW$T$32, DW_AT_name("signed char")
TMS320C6x Assembler PC v7.4.2 Thu Mar 19 12:42:01 2015

Tools Copyright (c) 1996-2012 Texas Instruments Incorporated
package/lib/Regression/regress_d_c/./../packages/ti/vlib/src/VLIB_houghLineFromList/VLIB_houghLineFromList_d.se66 PAGE   84

    4124                            .dwattr $C$DW$T$32, DW_AT_byte_size(0x01)
    4125                    
    4126                    $C$DW$T$33      .dwtag  DW_TAG_array_type
    4127                            .dwattr $C$DW$T$33, DW_AT_type(*$C$DW$T$32)
    4128                            .dwattr $C$DW$T$33, DW_AT_language(DW_LANG_C)
    4129                            .dwattr $C$DW$T$33, DW_AT_byte_size(0x04)
    4130                    $C$DW$344       .dwtag  DW_TAG_subrange_type
    4131                            .dwattr $C$DW$344, DW_AT_upper_bound(0x03)
    4132                            .dwendtag $C$DW$T$33
    4133                    
    4134                    $C$DW$T$63      .dwtag  DW_TAG_pointer_type
    4135                            .dwattr $C$DW$T$63, DW_AT_type(*$C$DW$T$32)
    4136                            .dwattr $C$DW$T$63, DW_AT_address_class(0x20)
    4137                    $C$DW$T$183     .dwtag  DW_TAG_typedef, DW_AT_name("va_list")
    4138                            .dwattr $C$DW$T$183, DW_AT_type(*$C$DW$T$63)
    4139                            .dwattr $C$DW$T$183, DW_AT_language(DW_LANG_C)
    4140                            .dwattr $C$DW$T$183, DW_AT_decl_file("C:/VLIB_Tools/CCSV5_4_0/ccsv5/tools/compiler/C6000/inclu
    4141                            .dwattr $C$DW$T$183, DW_AT_decl_line(0x2f)
    4142                            .dwattr $C$DW$T$183, DW_AT_decl_column(0x12)
    4143                    $C$DW$T$115     .dwtag  DW_TAG_const_type
    4144                            .dwattr $C$DW$T$115, DW_AT_type(*$C$DW$T$32)
    4145                    $C$DW$T$116     .dwtag  DW_TAG_pointer_type
    4146                            .dwattr $C$DW$T$116, DW_AT_type(*$C$DW$T$115)
    4147                            .dwattr $C$DW$T$116, DW_AT_address_class(0x20)
    4148                    
    4149                    $C$DW$T$184     .dwtag  DW_TAG_array_type
    4150                            .dwattr $C$DW$T$184, DW_AT_type(*$C$DW$T$32)
    4151                            .dwattr $C$DW$T$184, DW_AT_language(DW_LANG_C)
    4152                    $C$DW$345       .dwtag  DW_TAG_subrange_type
    4153                            .dwendtag $C$DW$T$184
    4154                    
    4155                    
    4156                    $C$DW$T$36      .dwtag  DW_TAG_structure_type
    4157                            .dwattr $C$DW$T$36, DW_AT_name("__simd128_int32_t")
    4158                            .dwattr $C$DW$T$36, DW_AT_byte_size(0x10)
    4159                    $C$DW$346       .dwtag  DW_TAG_member
    4160                            .dwattr $C$DW$346, DW_AT_type(*$C$DW$T$35)
    4161                            .dwattr $C$DW$346, DW_AT_name("_v")
    4162                            .dwattr $C$DW$346, DW_AT_TI_symbol_name("_v")
    4163                            .dwattr $C$DW$346, DW_AT_data_member_location[DW_OP_plus_uconst 0x0]
    4164                            .dwattr $C$DW$346, DW_AT_accessibility(DW_ACCESS_public)
    4165                            .dwattr $C$DW$346, DW_AT_decl_file("C:\VLIB_Tools\CCSV5_4_0\ccsv5\tools\compiler\C6000\include
    4166                            .dwattr $C$DW$346, DW_AT_decl_line(0x44)
    4167                            .dwattr $C$DW$346, DW_AT_decl_column(0x01)
    4168                            .dwendtag $C$DW$T$36
    4169                    
    4170                            .dwattr $C$DW$T$36, DW_AT_decl_file("C:\VLIB_Tools\CCSV5_4_0\ccsv5\tools\compiler\C6000\includ
    4171                            .dwattr $C$DW$T$36, DW_AT_decl_line(0x44)
    4172                            .dwattr $C$DW$T$36, DW_AT_decl_column(0x01)
    4173                    $C$DW$T$185     .dwtag  DW_TAG_typedef, DW_AT_name("int32x4_t")
    4174                            .dwattr $C$DW$T$185, DW_AT_type(*$C$DW$T$36)
    4175                            .dwattr $C$DW$T$185, DW_AT_language(DW_LANG_C)
    4176                            .dwattr $C$DW$T$185, DW_AT_decl_file("C:\VLIB_Tools\CCSV5_4_0\ccsv5\tools\compiler\C6000\inclu
    4177                            .dwattr $C$DW$T$185, DW_AT_decl_line(0x44)
    4178                            .dwattr $C$DW$T$185, DW_AT_decl_column(0x01)
TMS320C6x Assembler PC v7.4.2 Thu Mar 19 12:42:01 2015

Tools Copyright (c) 1996-2012 Texas Instruments Incorporated
package/lib/Regression/regress_d_c/./../packages/ti/vlib/src/VLIB_houghLineFromList/VLIB_houghLineFromList_d.se66 PAGE   85

    4179                    $C$DW$T$186     .dwtag  DW_TAG_typedef, DW_AT_name("__x128_t")
    4180                            .dwattr $C$DW$T$186, DW_AT_type(*$C$DW$T$185)
    4181                            .dwattr $C$DW$T$186, DW_AT_language(DW_LANG_C)
    4182                            .dwattr $C$DW$T$186, DW_AT_decl_file("C:\VLIB_Tools\CCSV5_4_0\ccsv5\tools\compiler\C6000\inclu
    4183                            .dwattr $C$DW$T$186, DW_AT_decl_line(0x46)
    4184                            .dwattr $C$DW$T$186, DW_AT_decl_column(0x13)
    4185                    
    4186                    $C$DW$T$37      .dwtag  DW_TAG_structure_type
    4187                            .dwattr $C$DW$T$37, DW_AT_name("tm")
    4188                            .dwattr $C$DW$T$37, DW_AT_byte_size(0x24)
    4189                    $C$DW$347       .dwtag  DW_TAG_member
    4190                            .dwattr $C$DW$347, DW_AT_type(*$C$DW$T$10)
    4191                            .dwattr $C$DW$347, DW_AT_name("tm_sec")
    4192                            .dwattr $C$DW$347, DW_AT_TI_symbol_name("tm_sec")
    4193                            .dwattr $C$DW$347, DW_AT_data_member_location[DW_OP_plus_uconst 0x0]
    4194                            .dwattr $C$DW$347, DW_AT_accessibility(DW_ACCESS_public)
    4195                            .dwattr $C$DW$347, DW_AT_decl_file("C:/VLIB_Tools/CCSV5_4_0/ccsv5/tools/compiler/C6000/include
    4196                            .dwattr $C$DW$347, DW_AT_decl_line(0x41)
    4197                            .dwattr $C$DW$347, DW_AT_decl_column(0x09)
    4198                    $C$DW$348       .dwtag  DW_TAG_member
    4199                            .dwattr $C$DW$348, DW_AT_type(*$C$DW$T$10)
    4200                            .dwattr $C$DW$348, DW_AT_name("tm_min")
    4201                            .dwattr $C$DW$348, DW_AT_TI_symbol_name("tm_min")
    4202                            .dwattr $C$DW$348, DW_AT_data_member_location[DW_OP_plus_uconst 0x4]
    4203                            .dwattr $C$DW$348, DW_AT_accessibility(DW_ACCESS_public)
    4204                            .dwattr $C$DW$348, DW_AT_decl_file("C:/VLIB_Tools/CCSV5_4_0/ccsv5/tools/compiler/C6000/include
    4205                            .dwattr $C$DW$348, DW_AT_decl_line(0x42)
    4206                            .dwattr $C$DW$348, DW_AT_decl_column(0x09)
    4207                    $C$DW$349       .dwtag  DW_TAG_member
    4208                            .dwattr $C$DW$349, DW_AT_type(*$C$DW$T$10)
    4209                            .dwattr $C$DW$349, DW_AT_name("tm_hour")
    4210                            .dwattr $C$DW$349, DW_AT_TI_symbol_name("tm_hour")
    4211                            .dwattr $C$DW$349, DW_AT_data_member_location[DW_OP_plus_uconst 0x8]
    4212                            .dwattr $C$DW$349, DW_AT_accessibility(DW_ACCESS_public)
    4213                            .dwattr $C$DW$349, DW_AT_decl_file("C:/VLIB_Tools/CCSV5_4_0/ccsv5/tools/compiler/C6000/include
    4214                            .dwattr $C$DW$349, DW_AT_decl_line(0x43)
    4215                            .dwattr $C$DW$349, DW_AT_decl_column(0x09)
    4216                    $C$DW$350       .dwtag  DW_TAG_member
    4217                            .dwattr $C$DW$350, DW_AT_type(*$C$DW$T$10)
    4218                            .dwattr $C$DW$350, DW_AT_name("tm_mday")
    4219                            .dwattr $C$DW$350, DW_AT_TI_symbol_name("tm_mday")
    4220                            .dwattr $C$DW$350, DW_AT_data_member_location[DW_OP_plus_uconst 0xc]
    4221                            .dwattr $C$DW$350, DW_AT_accessibility(DW_ACCESS_public)
    4222                            .dwattr $C$DW$350, DW_AT_decl_file("C:/VLIB_Tools/CCSV5_4_0/ccsv5/tools/compiler/C6000/include
    4223                            .dwattr $C$DW$350, DW_AT_decl_line(0x44)
    4224                            .dwattr $C$DW$350, DW_AT_decl_column(0x09)
    4225                    $C$DW$351       .dwtag  DW_TAG_member
    4226                            .dwattr $C$DW$351, DW_AT_type(*$C$DW$T$10)
    4227                            .dwattr $C$DW$351, DW_AT_name("tm_mon")
    4228                            .dwattr $C$DW$351, DW_AT_TI_symbol_name("tm_mon")
    4229                            .dwattr $C$DW$351, DW_AT_data_member_location[DW_OP_plus_uconst 0x10]
    4230                            .dwattr $C$DW$351, DW_AT_accessibility(DW_ACCESS_public)
    4231                            .dwattr $C$DW$351, DW_AT_decl_file("C:/VLIB_Tools/CCSV5_4_0/ccsv5/tools/compiler/C6000/include
    4232                            .dwattr $C$DW$351, DW_AT_decl_line(0x45)
    4233                            .dwattr $C$DW$351, DW_AT_decl_column(0x09)
TMS320C6x Assembler PC v7.4.2 Thu Mar 19 12:42:01 2015

Tools Copyright (c) 1996-2012 Texas Instruments Incorporated
package/lib/Regression/regress_d_c/./../packages/ti/vlib/src/VLIB_houghLineFromList/VLIB_houghLineFromList_d.se66 PAGE   86

    4234                    $C$DW$352       .dwtag  DW_TAG_member
    4235                            .dwattr $C$DW$352, DW_AT_type(*$C$DW$T$10)
    4236                            .dwattr $C$DW$352, DW_AT_name("tm_year")
    4237                            .dwattr $C$DW$352, DW_AT_TI_symbol_name("tm_year")
    4238                            .dwattr $C$DW$352, DW_AT_data_member_location[DW_OP_plus_uconst 0x14]
    4239                            .dwattr $C$DW$352, DW_AT_accessibility(DW_ACCESS_public)
    4240                            .dwattr $C$DW$352, DW_AT_decl_file("C:/VLIB_Tools/CCSV5_4_0/ccsv5/tools/compiler/C6000/include
    4241                            .dwattr $C$DW$352, DW_AT_decl_line(0x46)
    4242                            .dwattr $C$DW$352, DW_AT_decl_column(0x09)
    4243                    $C$DW$353       .dwtag  DW_TAG_member
    4244                            .dwattr $C$DW$353, DW_AT_type(*$C$DW$T$10)
    4245                            .dwattr $C$DW$353, DW_AT_name("tm_wday")
    4246                            .dwattr $C$DW$353, DW_AT_TI_symbol_name("tm_wday")
    4247                            .dwattr $C$DW$353, DW_AT_data_member_location[DW_OP_plus_uconst 0x18]
    4248                            .dwattr $C$DW$353, DW_AT_accessibility(DW_ACCESS_public)
    4249                            .dwattr $C$DW$353, DW_AT_decl_file("C:/VLIB_Tools/CCSV5_4_0/ccsv5/tools/compiler/C6000/include
    4250                            .dwattr $C$DW$353, DW_AT_decl_line(0x47)
    4251                            .dwattr $C$DW$353, DW_AT_decl_column(0x09)
    4252                    $C$DW$354       .dwtag  DW_TAG_member
    4253                            .dwattr $C$DW$354, DW_AT_type(*$C$DW$T$10)
    4254                            .dwattr $C$DW$354, DW_AT_name("tm_yday")
    4255                            .dwattr $C$DW$354, DW_AT_TI_symbol_name("tm_yday")
    4256                            .dwattr $C$DW$354, DW_AT_data_member_location[DW_OP_plus_uconst 0x1c]
    4257                            .dwattr $C$DW$354, DW_AT_accessibility(DW_ACCESS_public)
    4258                            .dwattr $C$DW$354, DW_AT_decl_file("C:/VLIB_Tools/CCSV5_4_0/ccsv5/tools/compiler/C6000/include
    4259                            .dwattr $C$DW$354, DW_AT_decl_line(0x48)
    4260                            .dwattr $C$DW$354, DW_AT_decl_column(0x09)
    4261                    $C$DW$355       .dwtag  DW_TAG_member
    4262                            .dwattr $C$DW$355, DW_AT_type(*$C$DW$T$10)
    4263                            .dwattr $C$DW$355, DW_AT_name("tm_isdst")
    4264                            .dwattr $C$DW$355, DW_AT_TI_symbol_name("tm_isdst")
    4265                            .dwattr $C$DW$355, DW_AT_data_member_location[DW_OP_plus_uconst 0x20]
    4266                            .dwattr $C$DW$355, DW_AT_accessibility(DW_ACCESS_public)
    4267                            .dwattr $C$DW$355, DW_AT_decl_file("C:/VLIB_Tools/CCSV5_4_0/ccsv5/tools/compiler/C6000/include
    4268                            .dwattr $C$DW$355, DW_AT_decl_line(0x49)
    4269                            .dwattr $C$DW$355, DW_AT_decl_column(0x09)
    4270                            .dwendtag $C$DW$T$37
    4271                    
    4272                            .dwattr $C$DW$T$37, DW_AT_decl_file("C:/VLIB_Tools/CCSV5_4_0/ccsv5/tools/compiler/C6000/includ
    4273                            .dwattr $C$DW$T$37, DW_AT_decl_line(0x3f)
    4274                            .dwattr $C$DW$T$37, DW_AT_decl_column(0x08)
    4275                            .dwattr $C$DW$CU, DW_AT_language(DW_LANG_C)
    4276                    
    4277                    ;***************************************************************
    4278                    ;* DWARF CIE ENTRIES                                           *
    4279                    ;***************************************************************
    4280                    
    4281                    $C$DW$CIE       .dwcie 19
    4282                            .dwcfi  cfa_register, 31
    4283                            .dwcfi  cfa_offset, 0
    4284                            .dwcfi  undefined, 0
    4285                            .dwcfi  undefined, 1
    4286                            .dwcfi  undefined, 2
    4287                            .dwcfi  undefined, 3
    4288                            .dwcfi  undefined, 4
TMS320C6x Assembler PC v7.4.2 Thu Mar 19 12:42:01 2015

Tools Copyright (c) 1996-2012 Texas Instruments Incorporated
package/lib/Regression/regress_d_c/./../packages/ti/vlib/src/VLIB_houghLineFromList/VLIB_houghLineFromList_d.se66 PAGE   87

    4289                            .dwcfi  undefined, 5
    4290                            .dwcfi  undefined, 6
    4291                            .dwcfi  undefined, 7
    4292                            .dwcfi  undefined, 8
    4293                            .dwcfi  undefined, 9
    4294                            .dwcfi  same_value, 10
    4295                            .dwcfi  same_value, 11
    4296                            .dwcfi  same_value, 12
    4297                            .dwcfi  same_value, 13
    4298                            .dwcfi  same_value, 14
    4299                            .dwcfi  same_value, 15
    4300                            .dwcfi  undefined, 16
    4301                            .dwcfi  undefined, 17
    4302                            .dwcfi  undefined, 18
    4303                            .dwcfi  undefined, 19
    4304                            .dwcfi  undefined, 20
    4305                            .dwcfi  undefined, 21
    4306                            .dwcfi  undefined, 22
    4307                            .dwcfi  undefined, 23
    4308                            .dwcfi  undefined, 24
    4309                            .dwcfi  undefined, 25
    4310                            .dwcfi  same_value, 26
    4311                            .dwcfi  same_value, 27
    4312                            .dwcfi  same_value, 28
    4313                            .dwcfi  same_value, 29
    4314                            .dwcfi  same_value, 30
    4315                            .dwcfi  same_value, 31
    4316                            .dwcfi  same_value, 32
    4317                            .dwcfi  undefined, 33
    4318                            .dwcfi  undefined, 34
    4319                            .dwcfi  undefined, 35
    4320                            .dwcfi  undefined, 36
    4321                            .dwcfi  undefined, 37
    4322                            .dwcfi  undefined, 38
    4323                            .dwcfi  undefined, 39
    4324                            .dwcfi  undefined, 40
    4325                            .dwcfi  undefined, 41
    4326                            .dwcfi  undefined, 42
    4327                            .dwcfi  undefined, 43
    4328                            .dwcfi  undefined, 44
    4329                            .dwcfi  undefined, 45
    4330                            .dwcfi  undefined, 46
    4331                            .dwcfi  undefined, 47
    4332                            .dwcfi  undefined, 48
    4333                            .dwcfi  undefined, 49
    4334                            .dwcfi  undefined, 50
    4335                            .dwcfi  undefined, 51
    4336                            .dwcfi  undefined, 52
    4337                            .dwcfi  undefined, 53
    4338                            .dwcfi  undefined, 54
    4339                            .dwcfi  undefined, 55
    4340                            .dwcfi  undefined, 56
    4341                            .dwcfi  undefined, 57
    4342                            .dwcfi  undefined, 58
    4343                            .dwcfi  undefined, 59
TMS320C6x Assembler PC v7.4.2 Thu Mar 19 12:42:01 2015

Tools Copyright (c) 1996-2012 Texas Instruments Incorporated
package/lib/Regression/regress_d_c/./../packages/ti/vlib/src/VLIB_houghLineFromList/VLIB_houghLineFromList_d.se66 PAGE   88

    4344                            .dwcfi  undefined, 60
    4345                            .dwcfi  undefined, 61
    4346                            .dwcfi  undefined, 62
    4347                            .dwcfi  undefined, 63
    4348                            .dwcfi  undefined, 64
    4349                            .dwcfi  undefined, 65
    4350                            .dwcfi  undefined, 66
    4351                            .dwcfi  undefined, 67
    4352                            .dwcfi  undefined, 68
    4353                            .dwcfi  undefined, 69
    4354                            .dwcfi  undefined, 70
    4355                            .dwcfi  undefined, 71
    4356                            .dwcfi  undefined, 72
    4357                            .dwcfi  undefined, 73
    4358                            .dwcfi  undefined, 74
    4359                            .dwcfi  undefined, 75
    4360                            .dwcfi  undefined, 76
    4361                            .dwcfi  undefined, 77
    4362                            .dwcfi  undefined, 78
    4363                            .dwcfi  undefined, 79
    4364                            .dwcfi  undefined, 80
    4365                            .dwcfi  undefined, 81
    4366                            .dwcfi  undefined, 82
    4367                            .dwcfi  undefined, 83
    4368                            .dwcfi  undefined, 84
    4369                            .dwcfi  undefined, 85
    4370                            .dwcfi  undefined, 86
    4371                            .dwcfi  undefined, 87
    4372                            .dwcfi  undefined, 88
    4373                            .dwcfi  undefined, 89
    4374                            .dwcfi  undefined, 90
    4375                            .dwcfi  undefined, 91
    4376                            .dwcfi  undefined, 92
    4377                            .dwcfi  undefined, 93
    4378                            .dwcfi  undefined, 94
    4379                            .dwcfi  undefined, 95
    4380                            .dwcfi  undefined, 96
    4381                            .dwcfi  undefined, 97
    4382                            .dwcfi  undefined, 98
    4383                            .dwcfi  undefined, 99
    4384                            .dwcfi  undefined, 100
    4385                            .dwcfi  undefined, 101
    4386                            .dwcfi  undefined, 102
    4387                            .dwcfi  undefined, 103
    4388                            .dwcfi  undefined, 104
    4389                            .dwcfi  undefined, 105
    4390                            .dwcfi  undefined, 106
    4391                            .dwcfi  undefined, 107
    4392                            .dwcfi  undefined, 108
    4393                            .dwcfi  undefined, 109
    4394                            .dwcfi  undefined, 110
    4395                            .dwcfi  undefined, 111
    4396                            .dwcfi  undefined, 112
    4397                            .dwcfi  undefined, 113
    4398                            .dwcfi  undefined, 114
TMS320C6x Assembler PC v7.4.2 Thu Mar 19 12:42:01 2015

Tools Copyright (c) 1996-2012 Texas Instruments Incorporated
package/lib/Regression/regress_d_c/./../packages/ti/vlib/src/VLIB_houghLineFromList/VLIB_houghLineFromList_d.se66 PAGE   89

    4399                            .dwcfi  undefined, 115
    4400                            .dwcfi  undefined, 116
    4401                            .dwcfi  undefined, 117
    4402                            .dwcfi  undefined, 118
    4403                            .dwcfi  undefined, 119
    4404                            .dwcfi  undefined, 120
    4405                            .dwcfi  undefined, 121
    4406                            .dwcfi  undefined, 122
    4407                            .dwcfi  undefined, 123
    4408                            .dwcfi  undefined, 124
    4409                            .dwcfi  undefined, 125
    4410                            .dwcfi  undefined, 126
    4411                            .dwcfi  undefined, 127
    4412                            .dwendentry
    4413                            .dwendtag $C$DW$CU
    4414                    

No Assembly Errors, No Assembly Warnings
