TMS320C6x Assembler PC v7.4.2 Thu Mar 19 12:43:17 2015

Tools Copyright (c) 1996-2012 Texas Instruments Incorporated
package/lib/Regression/regress_d_c/./../packages/ti/vlib/src/VLIB_lbp/VLIB_lbp_d.se66 PAGE    1

       1                    ;******************************************************************************
       2                    ;* TMS320C6x C/C++ Codegen                                          PC v7.4.2 *
       3                    ;* Date/Time created: Thu Mar 19 12:43:16 2015                                *
       4                    ;******************************************************************************
       5                            .compiler_opts --abi=eabi --c64p_l1d_workaround=off --endian=little --hll_source=on --long_pre
       6                    
       7                    ;******************************************************************************
       8                    ;* GLOBAL FILE PARAMETERS                                                     *
       9                    ;*                                                                            *
      10                    ;*   Architecture      : TMS320C66xx                                          *
      11                    ;*   Optimization      : Enabled at level 3                                   *
      12                    ;*   Optimizing for    : Speed                                                *
      13                    ;*                       Based on options: -o3, no -ms                        *
      14                    ;*   Endian            : Little                                               *
      15                    ;*   Interrupt Thrshld : 10000                                                *
      16                    ;*   Data Access Model : Far                                                  *
      17                    ;*   Pipelining        : Enabled                                              *
      18                    ;*   Speculate Loads   : Enabled with threshold = 0                           *
      19                    ;*   Memory Aliases    : Presume are aliases (pessimistic)                    *
      20                    ;*   Debug Info        : DWARF Debug w/Optimization                           *
      21                    ;*                                                                            *
      22                    ;******************************************************************************
      23                    
      24                            .asg    A15, FP
      25                            .asg    B14, DP
      26                            .asg    B15, SP
      27                            .global $bss
      28                    
      29                    
      30                    $C$DW$CU        .dwtag  DW_TAG_compile_unit
      31                            .dwattr $C$DW$CU, DW_AT_name("./../packages/ti/vlib/src/VLIB_lbp/VLIB_lbp_d.c")
      32                            .dwattr $C$DW$CU, DW_AT_producer("TI TMS320C6x C/C++ Codegen PC v7.4.2 Copyright (c) 1996-2012
      33                            .dwattr $C$DW$CU, DW_AT_TI_version(0x01)
      34                            .dwattr $C$DW$CU, DW_AT_comp_dir("c:\nightlybuilds\vlib\ti\vlib\vlib\examples")
      35                    
      36                    $C$DW$1 .dwtag  DW_TAG_subprogram, DW_AT_name("_itoll")
      37                            .dwattr $C$DW$1, DW_AT_TI_symbol_name("_itoll")
      38                            .dwattr $C$DW$1, DW_AT_type(*$C$DW$T$14)
      39                            .dwattr $C$DW$1, DW_AT_declaration
      40                            .dwattr $C$DW$1, DW_AT_external
      41                            .dwattr $C$DW$1, DW_AT_decl_file("C:/VLIB_Tools/CCSV5_4_0/ccsv5/tools/compiler/C6000/include/c
      42                            .dwattr $C$DW$1, DW_AT_decl_line(0xdf)
      43                            .dwattr $C$DW$1, DW_AT_decl_column(0x0b)
      44                    $C$DW$2 .dwtag  DW_TAG_formal_parameter
      45                            .dwattr $C$DW$2, DW_AT_type(*$C$DW$T$11)
      46                    $C$DW$3 .dwtag  DW_TAG_formal_parameter
      47                            .dwattr $C$DW$3, DW_AT_type(*$C$DW$T$11)
      48                            .dwendtag $C$DW$1
      49                    
      50                    
      51                    $C$DW$4 .dwtag  DW_TAG_subprogram, DW_AT_name("printf")
      52                            .dwattr $C$DW$4, DW_AT_TI_symbol_name("printf")
      53                            .dwattr $C$DW$4, DW_AT_type(*$C$DW$T$10)
      54                            .dwattr $C$DW$4, DW_AT_declaration
      55                            .dwattr $C$DW$4, DW_AT_external
TMS320C6x Assembler PC v7.4.2 Thu Mar 19 12:43:17 2015

Tools Copyright (c) 1996-2012 Texas Instruments Incorporated
package/lib/Regression/regress_d_c/./../packages/ti/vlib/src/VLIB_lbp/VLIB_lbp_d.se66 PAGE    2

      56                            .dwattr $C$DW$4, DW_AT_decl_file("C:/VLIB_Tools/CCSV5_4_0/ccsv5/tools/compiler/C6000/include/s
      57                            .dwattr $C$DW$4, DW_AT_decl_line(0xb8)
      58                            .dwattr $C$DW$4, DW_AT_decl_column(0x19)
      59                    $C$DW$5 .dwtag  DW_TAG_formal_parameter
      60                            .dwattr $C$DW$5, DW_AT_type(*$C$DW$T$110)
      61                    $C$DW$6 .dwtag  DW_TAG_unspecified_parameters
      62                            .dwendtag $C$DW$4
      63                    
      64                    
      65                    $C$DW$7 .dwtag  DW_TAG_subprogram, DW_AT_name("sprintf")
      66                            .dwattr $C$DW$7, DW_AT_TI_symbol_name("sprintf")
      67                            .dwattr $C$DW$7, DW_AT_type(*$C$DW$T$10)
      68                            .dwattr $C$DW$7, DW_AT_declaration
      69                            .dwattr $C$DW$7, DW_AT_external
      70                            .dwattr $C$DW$7, DW_AT_decl_file("C:/VLIB_Tools/CCSV5_4_0/ccsv5/tools/compiler/C6000/include/s
      71                            .dwattr $C$DW$7, DW_AT_decl_line(0xbc)
      72                            .dwattr $C$DW$7, DW_AT_decl_column(0x19)
      73                    $C$DW$8 .dwtag  DW_TAG_formal_parameter
      74                            .dwattr $C$DW$8, DW_AT_type(*$C$DW$T$60)
      75                    $C$DW$9 .dwtag  DW_TAG_formal_parameter
      76                            .dwattr $C$DW$9, DW_AT_type(*$C$DW$T$110)
      77                    $C$DW$10        .dwtag  DW_TAG_unspecified_parameters
      78                            .dwendtag $C$DW$7
      79                    
      80                    
      81                    $C$DW$11        .dwtag  DW_TAG_subprogram, DW_AT_name("memset")
      82                            .dwattr $C$DW$11, DW_AT_TI_symbol_name("memset")
      83                            .dwattr $C$DW$11, DW_AT_type(*$C$DW$T$3)
      84                            .dwattr $C$DW$11, DW_AT_declaration
      85                            .dwattr $C$DW$11, DW_AT_external
      86                            .dwattr $C$DW$11, DW_AT_decl_file("C:/VLIB_Tools/CCSV5_4_0/ccsv5/tools/compiler/C6000/include/
      87                            .dwattr $C$DW$11, DW_AT_decl_line(0x5b)
      88                            .dwattr $C$DW$11, DW_AT_decl_column(0x16)
      89                    $C$DW$12        .dwtag  DW_TAG_formal_parameter
      90                            .dwattr $C$DW$12, DW_AT_type(*$C$DW$T$3)
      91                    $C$DW$13        .dwtag  DW_TAG_formal_parameter
      92                            .dwattr $C$DW$13, DW_AT_type(*$C$DW$T$10)
      93                    $C$DW$14        .dwtag  DW_TAG_formal_parameter
      94                            .dwattr $C$DW$14, DW_AT_type(*$C$DW$T$53)
      95                            .dwendtag $C$DW$11
      96                    
      97                    
      98                    $C$DW$15        .dwtag  DW_TAG_subprogram, DW_AT_name("malloc")
      99                            .dwattr $C$DW$15, DW_AT_TI_symbol_name("malloc")
     100                            .dwattr $C$DW$15, DW_AT_type(*$C$DW$T$3)
     101                            .dwattr $C$DW$15, DW_AT_declaration
     102                            .dwattr $C$DW$15, DW_AT_external
     103                            .dwattr $C$DW$15, DW_AT_decl_file("C:/VLIB_Tools/CCSV5_4_0/ccsv5/tools/compiler/C6000/include/
     104                            .dwattr $C$DW$15, DW_AT_decl_line(0x82)
     105                            .dwattr $C$DW$15, DW_AT_decl_column(0x19)
     106                    $C$DW$16        .dwtag  DW_TAG_formal_parameter
     107                            .dwattr $C$DW$16, DW_AT_type(*$C$DW$T$53)
     108                            .dwendtag $C$DW$15
     109                    
     110                    
TMS320C6x Assembler PC v7.4.2 Thu Mar 19 12:43:17 2015

Tools Copyright (c) 1996-2012 Texas Instruments Incorporated
package/lib/Regression/regress_d_c/./../packages/ti/vlib/src/VLIB_lbp/VLIB_lbp_d.se66 PAGE    3

     111                    $C$DW$17        .dwtag  DW_TAG_subprogram, DW_AT_name("free")
     112                            .dwattr $C$DW$17, DW_AT_TI_symbol_name("free")
     113                            .dwattr $C$DW$17, DW_AT_declaration
     114                            .dwattr $C$DW$17, DW_AT_external
     115                            .dwattr $C$DW$17, DW_AT_decl_file("C:/VLIB_Tools/CCSV5_4_0/ccsv5/tools/compiler/C6000/include/
     116                            .dwattr $C$DW$17, DW_AT_decl_line(0x86)
     117                            .dwattr $C$DW$17, DW_AT_decl_column(0x19)
     118                    $C$DW$18        .dwtag  DW_TAG_formal_parameter
     119                            .dwattr $C$DW$18, DW_AT_type(*$C$DW$T$3)
     120                            .dwendtag $C$DW$17
     121                    
     122                    
     123                    $C$DW$19        .dwtag  DW_TAG_subprogram, DW_AT_name("VLIB_cache_inval")
     124                            .dwattr $C$DW$19, DW_AT_TI_symbol_name("VLIB_cache_inval")
     125                            .dwattr $C$DW$19, DW_AT_type(*$C$DW$T$10)
     126                            .dwattr $C$DW$19, DW_AT_declaration
     127                            .dwattr $C$DW$19, DW_AT_external
     128                            .dwattr $C$DW$19, DW_AT_decl_file(".\..\packages\ti\vlib\src\VLIB_lbp\..\common\c6x/VLIB_cache
     129                            .dwattr $C$DW$19, DW_AT_decl_line(0x58)
     130                            .dwattr $C$DW$19, DW_AT_decl_column(0x05)
     131                    
     132                    $C$DW$20        .dwtag  DW_TAG_subprogram, DW_AT_name("VLIB_assert")
     133                            .dwattr $C$DW$20, DW_AT_TI_symbol_name("VLIB_assert")
     134                            .dwattr $C$DW$20, DW_AT_declaration
     135                            .dwattr $C$DW$20, DW_AT_external
     136                            .dwattr $C$DW$20, DW_AT_decl_file(".\..\packages\ti\vlib\src\VLIB_lbp\../common/VLIB_test.h")
     137                            .dwattr $C$DW$20, DW_AT_decl_line(0x9a)
     138                            .dwattr $C$DW$20, DW_AT_decl_column(0x06)
     139                    $C$DW$21        .dwtag  DW_TAG_formal_parameter
     140                            .dwattr $C$DW$21, DW_AT_type(*$C$DW$T$10)
     141                    $C$DW$22        .dwtag  DW_TAG_formal_parameter
     142                            .dwattr $C$DW$22, DW_AT_type(*$C$DW$T$60)
     143                            .dwendtag $C$DW$20
     144                    
     145                    
     146                    $C$DW$23        .dwtag  DW_TAG_subprogram, DW_AT_name("VLIB_profile_init")
     147                            .dwattr $C$DW$23, DW_AT_TI_symbol_name("VLIB_profile_init")
     148                            .dwattr $C$DW$23, DW_AT_declaration
     149                            .dwattr $C$DW$23, DW_AT_external
     150                            .dwattr $C$DW$23, DW_AT_decl_file(".\..\packages\ti\vlib\src\VLIB_lbp\..\common\VLIB_profile.h
     151                            .dwattr $C$DW$23, DW_AT_decl_line(0x7b)
     152                            .dwattr $C$DW$23, DW_AT_decl_column(0x06)
     153                    $C$DW$24        .dwtag  DW_TAG_formal_parameter
     154                            .dwattr $C$DW$24, DW_AT_type(*$C$DW$T$10)
     155                    $C$DW$25        .dwtag  DW_TAG_formal_parameter
     156                            .dwattr $C$DW$25, DW_AT_type(*$C$DW$T$60)
     157                            .dwendtag $C$DW$23
     158                    
     159                    
     160                    $C$DW$26        .dwtag  DW_TAG_subprogram, DW_AT_name("VLIB_formula_add_test")
     161                            .dwattr $C$DW$26, DW_AT_TI_symbol_name("VLIB_formula_add_test")
     162                            .dwattr $C$DW$26, DW_AT_declaration
     163                            .dwattr $C$DW$26, DW_AT_external
     164                            .dwattr $C$DW$26, DW_AT_decl_file(".\..\packages\ti\vlib\src\VLIB_lbp\..\common\VLIB_profile.h
     165                            .dwattr $C$DW$26, DW_AT_decl_line(0x7d)
TMS320C6x Assembler PC v7.4.2 Thu Mar 19 12:43:17 2015

Tools Copyright (c) 1996-2012 Texas Instruments Incorporated
package/lib/Regression/regress_d_c/./../packages/ti/vlib/src/VLIB_lbp/VLIB_lbp_d.se66 PAGE    4

     166                            .dwattr $C$DW$26, DW_AT_decl_column(0x06)
     167                    $C$DW$27        .dwtag  DW_TAG_formal_parameter
     168                            .dwattr $C$DW$27, DW_AT_type(*$C$DW$T$10)
     169                    $C$DW$28        .dwtag  DW_TAG_formal_parameter
     170                            .dwattr $C$DW$28, DW_AT_type(*$C$DW$T$10)
     171                    $C$DW$29        .dwtag  DW_TAG_formal_parameter
     172                            .dwattr $C$DW$29, DW_AT_type(*$C$DW$T$10)
     173                    $C$DW$30        .dwtag  DW_TAG_formal_parameter
     174                            .dwattr $C$DW$30, DW_AT_type(*$C$DW$T$10)
     175                    $C$DW$31        .dwtag  DW_TAG_formal_parameter
     176                            .dwattr $C$DW$31, DW_AT_type(*$C$DW$T$60)
     177                    $C$DW$32        .dwtag  DW_TAG_formal_parameter
     178                            .dwattr $C$DW$32, DW_AT_type(*$C$DW$T$10)
     179                            .dwendtag $C$DW$26
     180                    
     181                    
     182                    $C$DW$33        .dwtag  DW_TAG_subprogram, DW_AT_name("VLIB_skip_test")
     183                            .dwattr $C$DW$33, DW_AT_TI_symbol_name("VLIB_skip_test")
     184                            .dwattr $C$DW$33, DW_AT_declaration
     185                            .dwattr $C$DW$33, DW_AT_external
     186                            .dwattr $C$DW$33, DW_AT_decl_file(".\..\packages\ti\vlib\src\VLIB_lbp\..\common\VLIB_profile.h
     187                            .dwattr $C$DW$33, DW_AT_decl_line(0x7e)
     188                            .dwattr $C$DW$33, DW_AT_decl_column(0x06)
     189                    $C$DW$34        .dwtag  DW_TAG_formal_parameter
     190                            .dwattr $C$DW$34, DW_AT_type(*$C$DW$T$60)
     191                            .dwendtag $C$DW$33
     192                    
     193                    
     194                    $C$DW$35        .dwtag  DW_TAG_subprogram, DW_AT_name("VLIB_profile_cycle_report")
     195                            .dwattr $C$DW$35, DW_AT_TI_symbol_name("VLIB_profile_cycle_report")
     196                            .dwattr $C$DW$35, DW_AT_declaration
     197                            .dwattr $C$DW$35, DW_AT_external
     198                            .dwattr $C$DW$35, DW_AT_decl_file(".\..\packages\ti\vlib\src\VLIB_lbp\..\common\VLIB_profile.h
     199                            .dwattr $C$DW$35, DW_AT_decl_line(0x7f)
     200                            .dwattr $C$DW$35, DW_AT_decl_column(0x06)
     201                    $C$DW$36        .dwtag  DW_TAG_formal_parameter
     202                            .dwattr $C$DW$36, DW_AT_type(*$C$DW$T$10)
     203                    $C$DW$37        .dwtag  DW_TAG_formal_parameter
     204                            .dwattr $C$DW$37, DW_AT_type(*$C$DW$T$60)
     205                    $C$DW$38        .dwtag  DW_TAG_formal_parameter
     206                            .dwattr $C$DW$38, DW_AT_type(*$C$DW$T$60)
     207                            .dwendtag $C$DW$35
     208                    
     209                    
     210                    $C$DW$39        .dwtag  DW_TAG_subprogram, DW_AT_name("initStack")
     211                            .dwattr $C$DW$39, DW_AT_TI_symbol_name("initStack")
     212                            .dwattr $C$DW$39, DW_AT_declaration
     213                            .dwattr $C$DW$39, DW_AT_external
     214                            .dwattr $C$DW$39, DW_AT_decl_file(".\..\packages\ti\vlib\src\VLIB_lbp\..\common\VLIB_profile.h
     215                            .dwattr $C$DW$39, DW_AT_decl_line(0x80)
     216                            .dwattr $C$DW$39, DW_AT_decl_column(0x06)
     217                    $C$DW$40        .dwtag  DW_TAG_formal_parameter
     218                            .dwattr $C$DW$40, DW_AT_type(*$C$DW$T$21)
     219                            .dwendtag $C$DW$39
     220                    
TMS320C6x Assembler PC v7.4.2 Thu Mar 19 12:43:17 2015

Tools Copyright (c) 1996-2012 Texas Instruments Incorporated
package/lib/Regression/regress_d_c/./../packages/ti/vlib/src/VLIB_lbp/VLIB_lbp_d.se66 PAGE    5

     221                    
     222                    $C$DW$41        .dwtag  DW_TAG_subprogram, DW_AT_name("setStackDepth")
     223                            .dwattr $C$DW$41, DW_AT_TI_symbol_name("setStackDepth")
     224                            .dwattr $C$DW$41, DW_AT_declaration
     225                            .dwattr $C$DW$41, DW_AT_external
     226                            .dwattr $C$DW$41, DW_AT_decl_file(".\..\packages\ti\vlib\src\VLIB_lbp\..\common\VLIB_profile.h
     227                            .dwattr $C$DW$41, DW_AT_decl_line(0x81)
     228                            .dwattr $C$DW$41, DW_AT_decl_column(0x06)
     229                    
     230                    $C$DW$42        .dwtag  DW_TAG_subprogram, DW_AT_name("getSP")
     231                            .dwattr $C$DW$42, DW_AT_TI_symbol_name("getSP")
     232                            .dwattr $C$DW$42, DW_AT_type(*$C$DW$T$21)
     233                            .dwattr $C$DW$42, DW_AT_declaration
     234                            .dwattr $C$DW$42, DW_AT_external
     235                            .dwattr $C$DW$42, DW_AT_decl_file(".\..\packages\ti\vlib\src\VLIB_lbp\..\common\VLIB_profile.h
     236                            .dwattr $C$DW$42, DW_AT_decl_line(0x82)
     237                            .dwattr $C$DW$42, DW_AT_decl_column(0x0a)
     238                    
     239                    $C$DW$43        .dwtag  DW_TAG_subprogram, DW_AT_name("VLIB_stack_memory")
     240                            .dwattr $C$DW$43, DW_AT_TI_symbol_name("VLIB_stack_memory")
     241                            .dwattr $C$DW$43, DW_AT_declaration
     242                            .dwattr $C$DW$43, DW_AT_external
     243                            .dwattr $C$DW$43, DW_AT_decl_file(".\..\packages\ti\vlib\src\VLIB_lbp\..\common\VLIB_profile.h
     244                            .dwattr $C$DW$43, DW_AT_decl_line(0x83)
     245                            .dwattr $C$DW$43, DW_AT_decl_column(0x06)
     246                    
     247                    $C$DW$44        .dwtag  DW_TAG_subprogram, DW_AT_name("VLIB_compare_mem")
     248                            .dwattr $C$DW$44, DW_AT_TI_symbol_name("VLIB_compare_mem")
     249                            .dwattr $C$DW$44, DW_AT_type(*$C$DW$T$23)
     250                            .dwattr $C$DW$44, DW_AT_declaration
     251                            .dwattr $C$DW$44, DW_AT_external
     252                            .dwattr $C$DW$44, DW_AT_decl_file(".\..\packages\ti\vlib\src\VLIB_lbp\../common/VLIB_memory.h"
     253                            .dwattr $C$DW$44, DW_AT_decl_line(0x6f)
     254                            .dwattr $C$DW$44, DW_AT_decl_column(0x11)
     255                    $C$DW$45        .dwtag  DW_TAG_formal_parameter
     256                            .dwattr $C$DW$45, DW_AT_type(*$C$DW$T$52)
     257                    $C$DW$46        .dwtag  DW_TAG_formal_parameter
     258                            .dwattr $C$DW$46, DW_AT_type(*$C$DW$T$52)
     259                    $C$DW$47        .dwtag  DW_TAG_formal_parameter
     260                            .dwattr $C$DW$47, DW_AT_type(*$C$DW$T$23)
     261                            .dwendtag $C$DW$44
     262                    
     263                    
     264                    $C$DW$48        .dwtag  DW_TAG_subprogram, DW_AT_name("VLIB_fillBuffer")
     265                            .dwattr $C$DW$48, DW_AT_TI_symbol_name("VLIB_fillBuffer")
     266                            .dwattr $C$DW$48, DW_AT_declaration
     267                            .dwattr $C$DW$48, DW_AT_external
     268                            .dwattr $C$DW$48, DW_AT_decl_file(".\..\packages\ti\vlib\src\VLIB_lbp\../common/VLIB_memory.h"
     269                            .dwattr $C$DW$48, DW_AT_decl_line(0x77)
     270                            .dwattr $C$DW$48, DW_AT_decl_column(0x06)
     271                    $C$DW$49        .dwtag  DW_TAG_formal_parameter
     272                            .dwattr $C$DW$49, DW_AT_type(*$C$DW$T$19)
     273                    $C$DW$50        .dwtag  DW_TAG_formal_parameter
     274                            .dwattr $C$DW$50, DW_AT_type(*$C$DW$T$19)
     275                    $C$DW$51        .dwtag  DW_TAG_formal_parameter
TMS320C6x Assembler PC v7.4.2 Thu Mar 19 12:43:17 2015

Tools Copyright (c) 1996-2012 Texas Instruments Incorporated
package/lib/Regression/regress_d_c/./../packages/ti/vlib/src/VLIB_lbp/VLIB_lbp_d.se66 PAGE    6

     276                            .dwattr $C$DW$51, DW_AT_type(*$C$DW$T$3)
     277                    $C$DW$52        .dwtag  DW_TAG_formal_parameter
     278                            .dwattr $C$DW$52, DW_AT_type(*$C$DW$T$3)
     279                    $C$DW$53        .dwtag  DW_TAG_formal_parameter
     280                            .dwattr $C$DW$53, DW_AT_type(*$C$DW$T$74)
     281                    $C$DW$54        .dwtag  DW_TAG_formal_parameter
     282                            .dwattr $C$DW$54, DW_AT_type(*$C$DW$T$74)
     283                    $C$DW$55        .dwtag  DW_TAG_formal_parameter
     284                            .dwattr $C$DW$55, DW_AT_type(*$C$DW$T$74)
     285                    $C$DW$56        .dwtag  DW_TAG_formal_parameter
     286                            .dwattr $C$DW$56, DW_AT_type(*$C$DW$T$19)
     287                    $C$DW$57        .dwtag  DW_TAG_formal_parameter
     288                            .dwattr $C$DW$57, DW_AT_type(*$C$DW$T$60)
     289                            .dwendtag $C$DW$48
     290                    
     291                    
     292                    $C$DW$58        .dwtag  DW_TAG_subprogram, DW_AT_name("VLIB_malloc")
     293                            .dwattr $C$DW$58, DW_AT_TI_symbol_name("VLIB_malloc")
     294                            .dwattr $C$DW$58, DW_AT_type(*$C$DW$T$3)
     295                            .dwattr $C$DW$58, DW_AT_declaration
     296                            .dwattr $C$DW$58, DW_AT_external
     297                            .dwattr $C$DW$58, DW_AT_decl_file(".\..\packages\ti\vlib\src\VLIB_lbp\../common/VLIB_memory.h"
     298                            .dwattr $C$DW$58, DW_AT_decl_line(0xaf)
     299                            .dwattr $C$DW$58, DW_AT_decl_column(0x07)
     300                    $C$DW$59        .dwtag  DW_TAG_formal_parameter
     301                            .dwattr $C$DW$59, DW_AT_type(*$C$DW$T$53)
     302                            .dwendtag $C$DW$58
     303                    
     304                    
     305                    $C$DW$60        .dwtag  DW_TAG_subprogram, DW_AT_name("VLIB_free")
     306                            .dwattr $C$DW$60, DW_AT_TI_symbol_name("VLIB_free")
     307                            .dwattr $C$DW$60, DW_AT_declaration
     308                            .dwattr $C$DW$60, DW_AT_external
     309                            .dwattr $C$DW$60, DW_AT_decl_file(".\..\packages\ti\vlib\src\VLIB_lbp\../common/VLIB_memory.h"
     310                            .dwattr $C$DW$60, DW_AT_decl_line(0xb4)
     311                            .dwattr $C$DW$60, DW_AT_decl_column(0x07)
     312                    $C$DW$61        .dwtag  DW_TAG_formal_parameter
     313                            .dwattr $C$DW$61, DW_AT_type(*$C$DW$T$3)
     314                            .dwendtag $C$DW$60
     315                    
     316                    
     317                    $C$DW$62        .dwtag  DW_TAG_subprogram, DW_AT_name("VLIB_lbp")
     318                            .dwattr $C$DW$62, DW_AT_TI_symbol_name("VLIB_lbp")
     319                            .dwattr $C$DW$62, DW_AT_declaration
     320                            .dwattr $C$DW$62, DW_AT_external
     321                            .dwattr $C$DW$62, DW_AT_decl_file(".\..\packages\ti\vlib\src\VLIB_lbp\c66/VLIB_lbp.h")
     322                            .dwattr $C$DW$62, DW_AT_decl_line(0x7b)
     323                            .dwattr $C$DW$62, DW_AT_decl_column(0x09)
     324                    $C$DW$63        .dwtag  DW_TAG_formal_parameter
     325                            .dwattr $C$DW$63, DW_AT_type(*$C$DW$T$79)
     326                    $C$DW$64        .dwtag  DW_TAG_formal_parameter
     327                            .dwattr $C$DW$64, DW_AT_type(*$C$DW$T$80)
     328                    $C$DW$65        .dwtag  DW_TAG_formal_parameter
     329                            .dwattr $C$DW$65, DW_AT_type(*$C$DW$T$80)
     330                    $C$DW$66        .dwtag  DW_TAG_formal_parameter
TMS320C6x Assembler PC v7.4.2 Thu Mar 19 12:43:17 2015

Tools Copyright (c) 1996-2012 Texas Instruments Incorporated
package/lib/Regression/regress_d_c/./../packages/ti/vlib/src/VLIB_lbp/VLIB_lbp_d.se66 PAGE    7

     331                            .dwattr $C$DW$66, DW_AT_type(*$C$DW$T$81)
     332                    $C$DW$67        .dwtag  DW_TAG_formal_parameter
     333                            .dwattr $C$DW$67, DW_AT_type(*$C$DW$T$21)
     334                    $C$DW$68        .dwtag  DW_TAG_formal_parameter
     335                            .dwattr $C$DW$68, DW_AT_type(*$C$DW$T$21)
     336                    $C$DW$69        .dwtag  DW_TAG_formal_parameter
     337                            .dwattr $C$DW$69, DW_AT_type(*$C$DW$T$21)
     338                    $C$DW$70        .dwtag  DW_TAG_formal_parameter
     339                            .dwattr $C$DW$70, DW_AT_type(*$C$DW$T$21)
     340                            .dwendtag $C$DW$62
     341                    
     342                    
     343                    $C$DW$71        .dwtag  DW_TAG_subprogram, DW_AT_name("VLIB_lbp_cn")
     344                            .dwattr $C$DW$71, DW_AT_TI_symbol_name("VLIB_lbp_cn")
     345                            .dwattr $C$DW$71, DW_AT_declaration
     346                            .dwattr $C$DW$71, DW_AT_external
     347                            .dwattr $C$DW$71, DW_AT_decl_file(".\..\packages\ti\vlib\src\VLIB_lbp\VLIB_lbp_cn.h")
     348                            .dwattr $C$DW$71, DW_AT_decl_line(0x20)
     349                            .dwattr $C$DW$71, DW_AT_decl_column(0x06)
     350                    $C$DW$72        .dwtag  DW_TAG_formal_parameter
     351                            .dwattr $C$DW$72, DW_AT_type(*$C$DW$T$78)
     352                    $C$DW$73        .dwtag  DW_TAG_formal_parameter
     353                            .dwattr $C$DW$73, DW_AT_type(*$C$DW$T$20)
     354                    $C$DW$74        .dwtag  DW_TAG_formal_parameter
     355                            .dwattr $C$DW$74, DW_AT_type(*$C$DW$T$22)
     356                    $C$DW$75        .dwtag  DW_TAG_formal_parameter
     357                            .dwattr $C$DW$75, DW_AT_type(*$C$DW$T$23)
     358                    $C$DW$76        .dwtag  DW_TAG_formal_parameter
     359                            .dwattr $C$DW$76, DW_AT_type(*$C$DW$T$23)
     360                    $C$DW$77        .dwtag  DW_TAG_formal_parameter
     361                            .dwattr $C$DW$77, DW_AT_type(*$C$DW$T$23)
     362                    $C$DW$78        .dwtag  DW_TAG_formal_parameter
     363                            .dwattr $C$DW$78, DW_AT_type(*$C$DW$T$23)
     364                            .dwendtag $C$DW$71
     365                    
     366                    
     367                    $C$DW$79        .dwtag  DW_TAG_subprogram, DW_AT_name("lbp_getTestParams")
     368                            .dwattr $C$DW$79, DW_AT_TI_symbol_name("lbp_getTestParams")
     369                            .dwattr $C$DW$79, DW_AT_declaration
     370                            .dwattr $C$DW$79, DW_AT_external
     371                            .dwattr $C$DW$79, DW_AT_decl_file(".\..\packages\ti\vlib\src\VLIB_lbp\VLIB_lbp_idat.h")
     372                            .dwattr $C$DW$79, DW_AT_decl_line(0x2e)
     373                            .dwattr $C$DW$79, DW_AT_decl_column(0x06)
     374                    $C$DW$80        .dwtag  DW_TAG_formal_parameter
     375                            .dwattr $C$DW$80, DW_AT_type(*$C$DW$T$45)
     376                    $C$DW$81        .dwtag  DW_TAG_formal_parameter
     377                            .dwattr $C$DW$81, DW_AT_type(*$C$DW$T$86)
     378                            .dwendtag $C$DW$79
     379                    
     380                    $C$DW$82        .dwtag  DW_TAG_variable, DW_AT_name("test_cases")
     381                            .dwattr $C$DW$82, DW_AT_TI_symbol_name("test_cases")
     382                            .dwattr $C$DW$82, DW_AT_type(*$C$DW$T$23)
     383                            .dwattr $C$DW$82, DW_AT_declaration
     384                            .dwattr $C$DW$82, DW_AT_external
     385                            .dwattr $C$DW$82, DW_AT_decl_file(".\..\packages\ti\vlib\src\VLIB_lbp\../common/VLIB_test.h")
TMS320C6x Assembler PC v7.4.2 Thu Mar 19 12:43:17 2015

Tools Copyright (c) 1996-2012 Texas Instruments Incorporated
package/lib/Regression/regress_d_c/./../packages/ti/vlib/src/VLIB_lbp/VLIB_lbp_d.se66 PAGE    8

     386                            .dwattr $C$DW$82, DW_AT_decl_line(0x60)
     387                            .dwattr $C$DW$82, DW_AT_decl_column(0x13)
     388                    $C$DW$83        .dwtag  DW_TAG_variable, DW_AT_name("act_kernel")
     389                            .dwattr $C$DW$83, DW_AT_TI_symbol_name("act_kernel")
     390                            .dwattr $C$DW$83, DW_AT_type(*$C$DW$T$10)
     391                            .dwattr $C$DW$83, DW_AT_declaration
     392                            .dwattr $C$DW$83, DW_AT_external
     393                            .dwattr $C$DW$83, DW_AT_decl_file(".\..\packages\ti\vlib\src\VLIB_lbp\../common/VLIB_test.h")
     394                            .dwattr $C$DW$83, DW_AT_decl_line(0x62)
     395                            .dwattr $C$DW$83, DW_AT_decl_column(0x13)
     396                    $C$DW$84        .dwtag  DW_TAG_variable, DW_AT_name("desc")
     397                            .dwattr $C$DW$84, DW_AT_TI_symbol_name("desc")
     398                            .dwattr $C$DW$84, DW_AT_type(*$C$DW$T$164)
     399                            .dwattr $C$DW$84, DW_AT_declaration
     400                            .dwattr $C$DW$84, DW_AT_external
     401                            .dwattr $C$DW$84, DW_AT_decl_file(".\..\packages\ti\vlib\src\VLIB_lbp\../common/VLIB_test.h")
     402                            .dwattr $C$DW$84, DW_AT_decl_line(0x63)
     403                            .dwattr $C$DW$84, DW_AT_decl_column(0x13)
     404                    $C$DW$85        .dwtag  DW_TAG_variable, DW_AT_name("testPatternString")
     405                            .dwattr $C$DW$85, DW_AT_TI_symbol_name("testPatternString")
     406                            .dwattr $C$DW$85, DW_AT_type(*$C$DW$T$164)
     407                            .dwattr $C$DW$85, DW_AT_declaration
     408                            .dwattr $C$DW$85, DW_AT_external
     409                            .dwattr $C$DW$85, DW_AT_decl_file(".\..\packages\ti\vlib\src\VLIB_lbp\../common/VLIB_test.h")
     410                            .dwattr $C$DW$85, DW_AT_decl_line(0x64)
     411                            .dwattr $C$DW$85, DW_AT_decl_column(0x13)
     412                    $C$DW$86        .dwtag  DW_TAG_variable, DW_AT_name("est_test")
     413                            .dwattr $C$DW$86, DW_AT_TI_symbol_name("est_test")
     414                            .dwattr $C$DW$86, DW_AT_type(*$C$DW$T$10)
     415                            .dwattr $C$DW$86, DW_AT_declaration
     416                            .dwattr $C$DW$86, DW_AT_external
     417                            .dwattr $C$DW$86, DW_AT_decl_file(".\..\packages\ti\vlib\src\VLIB_lbp\..\common\VLIB_profile.h
     418                            .dwattr $C$DW$86, DW_AT_decl_line(0x75)
     419                            .dwattr $C$DW$86, DW_AT_decl_column(0x14)
     420                    $C$DW$87        .dwtag  DW_TAG_variable, DW_AT_name("beg_count")
     421                            .dwattr $C$DW$87, DW_AT_TI_symbol_name("beg_count")
     422                            .dwattr $C$DW$87, DW_AT_type(*$C$DW$T$154)
     423                            .dwattr $C$DW$87, DW_AT_declaration
     424                            .dwattr $C$DW$87, DW_AT_external
     425                            .dwattr $C$DW$87, DW_AT_decl_file(".\..\packages\ti\vlib\src\VLIB_lbp\..\common\VLIB_profile.h
     426                            .dwattr $C$DW$87, DW_AT_decl_line(0x76)
     427                            .dwattr $C$DW$87, DW_AT_decl_column(0x14)
     428                    $C$DW$88        .dwtag  DW_TAG_variable, DW_AT_name("end_count")
     429                            .dwattr $C$DW$88, DW_AT_TI_symbol_name("end_count")
     430                            .dwattr $C$DW$88, DW_AT_type(*$C$DW$T$154)
     431                            .dwattr $C$DW$88, DW_AT_declaration
     432                            .dwattr $C$DW$88, DW_AT_external
     433                            .dwattr $C$DW$88, DW_AT_decl_file(".\..\packages\ti\vlib\src\VLIB_lbp\..\common\VLIB_profile.h
     434                            .dwattr $C$DW$88, DW_AT_decl_line(0x77)
     435                            .dwattr $C$DW$88, DW_AT_decl_column(0x14)
     436                    $C$DW$89        .dwtag  DW_TAG_variable, DW_AT_name("overhead")
     437                            .dwattr $C$DW$89, DW_AT_TI_symbol_name("overhead")
     438                            .dwattr $C$DW$89, DW_AT_type(*$C$DW$T$154)
     439                            .dwattr $C$DW$89, DW_AT_declaration
     440                            .dwattr $C$DW$89, DW_AT_external
TMS320C6x Assembler PC v7.4.2 Thu Mar 19 12:43:17 2015

Tools Copyright (c) 1996-2012 Texas Instruments Incorporated
package/lib/Regression/regress_d_c/./../packages/ti/vlib/src/VLIB_lbp/VLIB_lbp_d.se66 PAGE    9

     441                            .dwattr $C$DW$89, DW_AT_decl_file(".\..\packages\ti\vlib\src\VLIB_lbp\..\common\VLIB_profile.h
     442                            .dwattr $C$DW$89, DW_AT_decl_line(0x78)
     443                            .dwattr $C$DW$89, DW_AT_decl_column(0x14)
     444                    $C$DW$90        .dwtag  DW_TAG_variable, DW_AT_name("cycles")
     445                            .dwattr $C$DW$90, DW_AT_TI_symbol_name("cycles")
     446                            .dwattr $C$DW$90, DW_AT_type(*$C$DW$T$155)
     447                            .dwattr $C$DW$90, DW_AT_declaration
     448                            .dwattr $C$DW$90, DW_AT_external
     449                            .dwattr $C$DW$90, DW_AT_decl_file(".\..\packages\ti\vlib\src\VLIB_lbp\..\common\VLIB_profile.h
     450                            .dwattr $C$DW$90, DW_AT_decl_line(0x79)
     451                            .dwattr $C$DW$90, DW_AT_decl_column(0x14)
     452                    ;       C:\VLIB_Tools\CCSV5_4_0\ccsv5\tools\compiler\C6000\bin\opt6x.exe C:\\Users\\gtbldadm\\AppData\
     453 00000000                   .sect   ".text"
     454                            .clink
     455                            .global VLIB_lbp_d
     456                    
     457                    $C$DW$91        .dwtag  DW_TAG_subprogram, DW_AT_name("VLIB_lbp_d")
     458                            .dwattr $C$DW$91, DW_AT_low_pc(VLIB_lbp_d)
     459                            .dwattr $C$DW$91, DW_AT_high_pc(0x00)
     460                            .dwattr $C$DW$91, DW_AT_TI_symbol_name("VLIB_lbp_d")
     461                            .dwattr $C$DW$91, DW_AT_external
     462                            .dwattr $C$DW$91, DW_AT_TI_begin_file("./../packages/ti/vlib/src/VLIB_lbp/VLIB_lbp_d.c")
     463                            .dwattr $C$DW$91, DW_AT_TI_begin_line(0x26)
     464                            .dwattr $C$DW$91, DW_AT_TI_begin_column(0x06)
     465                            .dwattr $C$DW$91, DW_AT_decl_file("./../packages/ti/vlib/src/VLIB_lbp/VLIB_lbp_d.c")
     466                            .dwattr $C$DW$91, DW_AT_decl_line(0x26)
     467                            .dwattr $C$DW$91, DW_AT_decl_column(0x06)
     468                            .dwattr $C$DW$91, DW_AT_TI_max_frame_size(0x70)
     469                            .dwpsn  file "./../packages/ti/vlib/src/VLIB_lbp/VLIB_lbp_d.c",line 39,column 1,is_stmt,addres
     470                    
     471                            .dwfde $C$DW$CIE, VLIB_lbp_d
     472                    $C$DW$92        .dwtag  DW_TAG_formal_parameter, DW_AT_name("LevelOfFeedback")
     473                            .dwattr $C$DW$92, DW_AT_TI_symbol_name("LevelOfFeedback")
     474                            .dwattr $C$DW$92, DW_AT_type(*$C$DW$T$19)
     475                            .dwattr $C$DW$92, DW_AT_location[DW_OP_reg4]
     476                    ;----------------------------------------------------------------------
     477                    ;  38 | void VLIB_lbp_d(uint8_t LevelOfFeedback)                               
     478                    ;----------------------------------------------------------------------
     479                    
     480                    ;******************************************************************************
     481                    ;* FUNCTION NAME: VLIB_lbp_d                                                  *
     482                    ;*                                                                            *
     483                    ;*   Regs Modified     : A0,A1,A2,A3,A4,A5,A6,A7,A8,A9,A10,A11,A12,A13,A14,   *
     484                    ;*                           A15,B0,B1,B2,B3,B4,B5,B6,B7,B8,B9,B10,B11,B12,   *
     485                    ;*                           B13,SP,A16,A17,A18,A19,A20,A21,A22,A23,A24,A25,  *
     486                    ;*                           A26,A27,A28,A29,A30,A31,B16,B17,B18,B19,B20,B21, *
     487                    ;*                           B22,B23,B24,B25,B26,B27,B28,B29,B30,B31          *
     488                    ;*   Regs Used         : A0,A1,A2,A3,A4,A5,A6,A7,A8,A9,A10,A11,A12,A13,A14,   *
     489                    ;*                           A15,B0,B1,B2,B3,B4,B5,B6,B7,B8,B9,B10,B11,B12,   *
     490                    ;*                           B13,DP,SP,A16,A17,A18,A19,A20,A21,A22,A23,A24,   *
     491                    ;*                           A25,A26,A27,A28,A29,A30,A31,B16,B17,B18,B19,B20, *
     492                    ;*                           B21,B22,B23,B24,B25,B26,B27,B28,B29,B30,B31      *
     493                    ;*   Local Frame Size  : 24 Args + 32 Auto + 56 Save = 112 byte               *
     494                    ;******************************************************************************
     495                    
TMS320C6x Assembler PC v7.4.2 Thu Mar 19 12:43:17 2015

Tools Copyright (c) 1996-2012 Texas Instruments Incorporated
package/lib/Regression/regress_d_c/./../packages/ti/vlib/src/VLIB_lbp/VLIB_lbp_d.se66 PAGE   10

     496                    ;******************************************************************************
     497                    ;*                                                                            *
     498                    ;* Using -g (debug) with optimization (-o3) may disable key optimizations!    *
     499                    ;*                                                                            *
     500                    ;******************************************************************************
     501 00000000           VLIB_lbp_d:
     502                    ;** --------------------------------------------------------------------------*
     503                    ;          EXCLUSIVE CPU CYCLES: 15
     504                    ;** 45  -----------------------    lbp_getTestParams(&prm, &test_cases);
     505                    ;** 48  -----------------------    VLIB_profile_init(3, "VLIB_lbp");
     506                    ;** 51  -----------------------    if ( test_cases <= 0 ) goto g14;
     507                            .dwcfi  cfa_offset, 0
     508                    ;----------------------------------------------------------------------
     509                    ;  40 | int32_t    tpi;  /* test parameter index */                            
     510                    ;  43 | lbp_testParams_t   *prm;                                               
     511                    ;----------------------------------------------------------------------
     512 00000000     25f7             STW     .D2T1   A11,*SP--(8)      ; |39| 
     513                            .dwcfi  cfa_offset, 8
     514                            .dwcfi  save_reg_to_mem, 11, 0
     515 00000002     2577             STW     .D2T1   A10,*SP--(8)      ; |39| 
     516                            .dwcfi  cfa_offset, 16
     517                            .dwcfi  save_reg_to_mem, 10, -8
     518 00000004     9677             STDW    .D2T2   B13:B12,*SP--     ; |39| 
     519                            .dwcfi  cfa_offset, 24
     520                            .dwcfi  save_reg_to_mem, 29, -12
     521                            .dwcfi  save_reg_to_mem, 28, -16
     522 00000006     9577             STDW    .D2T2   B11:B10,*SP--     ; |39| 
     523                            .dwcfi  cfa_offset, 32
     524                            .dwcfi  save_reg_to_mem, 27, -20
     525                            .dwcfi  save_reg_to_mem, 26, -24
     526 00000008     8777             STDW    .D2T1   A15:A14,*SP--     ; |39| 
     527                            .dwcfi  cfa_offset, 40
     528                            .dwcfi  save_reg_to_mem, 15, -28
     529                            .dwcfi  save_reg_to_mem, 14, -32
     530 0000000a     8677             STDW    .D2T1   A13:A12,*SP--     ; |39| 
     531                            .dwcfi  cfa_offset, 48
     532                            .dwcfi  save_reg_to_mem, 13, -36
     533                            .dwcfi  save_reg_to_mem, 12, -40
     534 0000000c 01be14f6             STW     .D2T2   B3,*SP--(64)      ; |39| 
     535                            .dwcfi  cfa_offset, 112
     536                            .dwcfi  save_reg_to_mem, 19, 0
     537                    $C$DW$93        .dwtag  DW_TAG_variable, DW_AT_name("$O$C3")
     538                            .dwattr $C$DW$93, DW_AT_TI_symbol_name("$O$C3")
     539                            .dwattr $C$DW$93, DW_AT_type(*$C$DW$T$41)
     540                            .dwattr $C$DW$93, DW_AT_location[DW_OP_reg21]
     541                    $C$DW$94        .dwtag  DW_TAG_variable, DW_AT_name("$O$C4")
     542                            .dwattr $C$DW$94, DW_AT_TI_symbol_name("$O$C4")
     543                            .dwattr $C$DW$94, DW_AT_type(*$C$DW$T$41)
     544                            .dwattr $C$DW$94, DW_AT_location[DW_OP_reg20]
     545                    $C$DW$95        .dwtag  DW_TAG_variable, DW_AT_name("$O$C5")
     546                            .dwattr $C$DW$95, DW_AT_TI_symbol_name("$O$C5")
     547                            .dwattr $C$DW$95, DW_AT_type(*$C$DW$T$11)
     548                            .dwattr $C$DW$95, DW_AT_location[DW_OP_reg13]
     549                    $C$DW$96        .dwtag  DW_TAG_variable, DW_AT_name("$O$C6")
     550                            .dwattr $C$DW$96, DW_AT_TI_symbol_name("$O$C6")
TMS320C6x Assembler PC v7.4.2 Thu Mar 19 12:43:17 2015

Tools Copyright (c) 1996-2012 Texas Instruments Incorporated
package/lib/Regression/regress_d_c/./../packages/ti/vlib/src/VLIB_lbp/VLIB_lbp_d.se66 PAGE   11

     551                            .dwattr $C$DW$96, DW_AT_type(*$C$DW$T$153)
     552                            .dwattr $C$DW$96, DW_AT_location[DW_OP_reg4]
     553                    $C$DW$97        .dwtag  DW_TAG_variable, DW_AT_name("$O$C7")
     554                            .dwattr $C$DW$97, DW_AT_TI_symbol_name("$O$C7")
     555                            .dwattr $C$DW$97, DW_AT_type(*$C$DW$T$153)
     556                            .dwattr $C$DW$97, DW_AT_location[DW_OP_reg15]
     557                    $C$DW$98        .dwtag  DW_TAG_variable, DW_AT_name("$O$C8")
     558                            .dwattr $C$DW$98, DW_AT_TI_symbol_name("$O$C8")
     559                            .dwattr $C$DW$98, DW_AT_type(*$C$DW$T$10)
     560                            .dwattr $C$DW$98, DW_AT_location[DW_OP_reg3]
     561                    $C$DW$99        .dwtag  DW_TAG_variable, DW_AT_name("$O$C9")
     562                            .dwattr $C$DW$99, DW_AT_TI_symbol_name("$O$C9")
     563                            .dwattr $C$DW$99, DW_AT_type(*$C$DW$T$6)
     564                            .dwattr $C$DW$99, DW_AT_location[DW_OP_reg3]
     565                    $C$DW$100       .dwtag  DW_TAG_variable, DW_AT_name("$O$C10")
     566                            .dwattr $C$DW$100, DW_AT_TI_symbol_name("$O$C10")
     567                            .dwattr $C$DW$100, DW_AT_type(*$C$DW$T$9)
     568                            .dwattr $C$DW$100, DW_AT_location[DW_OP_reg21]
     569                    $C$DW$101       .dwtag  DW_TAG_variable, DW_AT_name("$O$U12")
     570                            .dwattr $C$DW$101, DW_AT_TI_symbol_name("$O$U12")
     571                            .dwattr $C$DW$101, DW_AT_type(*$C$DW$T$41)
     572                            .dwattr $C$DW$101, DW_AT_location[DW_OP_reg28]
     573                    $C$DW$102       .dwtag  DW_TAG_variable, DW_AT_name("$O$K47")
     574                            .dwattr $C$DW$102, DW_AT_TI_symbol_name("$O$K47")
     575                            .dwattr $C$DW$102, DW_AT_type(*$C$DW$T$90)
     576                            .dwattr $C$DW$102, DW_AT_location[DW_OP_reg4]
     577                    $C$DW$103       .dwtag  DW_TAG_variable, DW_AT_name("$O$K49")
     578                            .dwattr $C$DW$103, DW_AT_TI_symbol_name("$O$K49")
     579                            .dwattr $C$DW$103, DW_AT_type(*$C$DW$T$90)
     580                            .dwattr $C$DW$103, DW_AT_location[DW_OP_reg12]
     581                    $C$DW$104       .dwtag  DW_TAG_variable, DW_AT_name("$O$U61")
     582                            .dwattr $C$DW$104, DW_AT_TI_symbol_name("$O$U61")
     583                            .dwattr $C$DW$104, DW_AT_type(*$C$DW$T$25)
     584                            .dwattr $C$DW$104, DW_AT_location[DW_OP_reg5]
     585                    $C$DW$105       .dwtag  DW_TAG_variable, DW_AT_name("$O$U99")
     586                            .dwattr $C$DW$105, DW_AT_TI_symbol_name("$O$U99")
     587                            .dwattr $C$DW$105, DW_AT_type(*$C$DW$T$10)
     588                            .dwattr $C$DW$105, DW_AT_location[DW_OP_reg13]
     589                    $C$DW$106       .dwtag  DW_TAG_variable, DW_AT_name("$O$U101")
     590                            .dwattr $C$DW$106, DW_AT_TI_symbol_name("$O$U101")
     591                            .dwattr $C$DW$106, DW_AT_type(*$C$DW$T$129)
     592                            .dwattr $C$DW$106, DW_AT_location[DW_OP_reg0]
     593                    $C$DW$107       .dwtag  DW_TAG_variable, DW_AT_name("$O$U11")
     594                            .dwattr $C$DW$107, DW_AT_TI_symbol_name("$O$U11")
     595                            .dwattr $C$DW$107, DW_AT_type(*$C$DW$T$10)
     596                            .dwattr $C$DW$107, DW_AT_location[DW_OP_reg29]
     597                    $C$DW$108       .dwtag  DW_TAG_variable, DW_AT_name("$O$L1")
     598                            .dwattr $C$DW$108, DW_AT_TI_symbol_name("$O$L1")
     599                            .dwattr $C$DW$108, DW_AT_type(*$C$DW$T$10)
     600                            .dwattr $C$DW$108, DW_AT_location[DW_OP_reg27]
     601                    $C$DW$109       .dwtag  DW_TAG_variable, DW_AT_name("tpi")
     602                            .dwattr $C$DW$109, DW_AT_TI_symbol_name("tpi")
     603                            .dwattr $C$DW$109, DW_AT_type(*$C$DW$T$23)
     604                            .dwattr $C$DW$109, DW_AT_location[DW_OP_reg14]
     605                    $C$DW$110       .dwtag  DW_TAG_variable, DW_AT_name("prm")
TMS320C6x Assembler PC v7.4.2 Thu Mar 19 12:43:17 2015

Tools Copyright (c) 1996-2012 Texas Instruments Incorporated
package/lib/Regression/regress_d_c/./../packages/ti/vlib/src/VLIB_lbp/VLIB_lbp_d.se66 PAGE   12

     606                            .dwattr $C$DW$110, DW_AT_TI_symbol_name("prm")
     607                            .dwattr $C$DW$110, DW_AT_type(*$C$DW$T$44)
     608                            .dwattr $C$DW$110, DW_AT_location[DW_OP_breg31 28]
     609                    $C$DW$111       .dwtag  DW_TAG_variable, DW_AT_name("status_nat_vs_int")
     610                            .dwattr $C$DW$111, DW_AT_TI_symbol_name("status_nat_vs_int")
     611                            .dwattr $C$DW$111, DW_AT_type(*$C$DW$T$23)
     612                            .dwattr $C$DW$111, DW_AT_location[DW_OP_reg10]
     613                    $C$DW$112       .dwtag  DW_TAG_variable, DW_AT_name("status_nat_vs_ref")
     614                            .dwattr $C$DW$112, DW_AT_TI_symbol_name("status_nat_vs_ref")
     615                            .dwattr $C$DW$112, DW_AT_type(*$C$DW$T$23)
     616                            .dwattr $C$DW$112, DW_AT_location[DW_OP_breg31 32]
     617                    $C$DW$113       .dwtag  DW_TAG_variable, DW_AT_name("inp_size")
     618                            .dwattr $C$DW$113, DW_AT_TI_symbol_name("inp_size")
     619                            .dwattr $C$DW$113, DW_AT_type(*$C$DW$T$21)
     620                            .dwattr $C$DW$113, DW_AT_location[DW_OP_breg31 36]
     621                    $C$DW$114       .dwtag  DW_TAG_variable, DW_AT_name("scratch_size")
     622                            .dwattr $C$DW$114, DW_AT_TI_symbol_name("scratch_size")
     623                            .dwattr $C$DW$114, DW_AT_type(*$C$DW$T$21)
     624                            .dwattr $C$DW$114, DW_AT_location[DW_OP_reg4]
     625                    $C$DW$115       .dwtag  DW_TAG_variable, DW_AT_name("pMapTbl_size")
     626                            .dwattr $C$DW$115, DW_AT_TI_symbol_name("pMapTbl_size")
     627                            .dwattr $C$DW$115, DW_AT_type(*$C$DW$T$21)
     628                            .dwattr $C$DW$115, DW_AT_location[DW_OP_reg27]
     629                    $C$DW$116       .dwtag  DW_TAG_variable, DW_AT_name("pInput")
     630                            .dwattr $C$DW$116, DW_AT_TI_symbol_name("pInput")
     631                            .dwattr $C$DW$116, DW_AT_type(*$C$DW$T$20)
     632                            .dwattr $C$DW$116, DW_AT_location[DW_OP_breg31 40]
     633                    $C$DW$117       .dwtag  DW_TAG_variable, DW_AT_name("pMapTbl")
     634                            .dwattr $C$DW$117, DW_AT_TI_symbol_name("pMapTbl")
     635                            .dwattr $C$DW$117, DW_AT_type(*$C$DW$T$20)
     636                            .dwattr $C$DW$117, DW_AT_location[DW_OP_breg31 44]
     637                    $C$DW$118       .dwtag  DW_TAG_variable, DW_AT_name("pScratch")
     638                            .dwattr $C$DW$118, DW_AT_TI_symbol_name("pScratch")
     639                            .dwattr $C$DW$118, DW_AT_type(*$C$DW$T$20)
     640                            .dwattr $C$DW$118, DW_AT_location[DW_OP_breg31 48]
     641                    $C$DW$119       .dwtag  DW_TAG_variable, DW_AT_name("pOutHistogram")
     642                            .dwattr $C$DW$119, DW_AT_TI_symbol_name("pOutHistogram")
     643                            .dwattr $C$DW$119, DW_AT_type(*$C$DW$T$22)
     644                            .dwattr $C$DW$119, DW_AT_location[DW_OP_breg31 52]
     645                    $C$DW$120       .dwtag  DW_TAG_variable, DW_AT_name("pOutHistogram_cn")
     646                            .dwattr $C$DW$120, DW_AT_TI_symbol_name("pOutHistogram_cn")
     647                            .dwattr $C$DW$120, DW_AT_type(*$C$DW$T$22)
     648                            .dwattr $C$DW$120, DW_AT_location[DW_OP_breg31 56]
     649                    $C$DW$121       .dwtag  DW_TAG_variable, DW_AT_name("maxTbl")
     650                            .dwattr $C$DW$121, DW_AT_TI_symbol_name("maxTbl")
     651                            .dwattr $C$DW$121, DW_AT_type(*$C$DW$T$23)
     652                            .dwattr $C$DW$121, DW_AT_location[DW_OP_reg12]
     653                    $C$DW$122       .dwtag  DW_TAG_variable, DW_AT_name("$O$v1")
     654                            .dwattr $C$DW$122, DW_AT_TI_symbol_name("$O$v1")
     655                            .dwattr $C$DW$122, DW_AT_type(*$C$DW$T$44)
     656                            .dwattr $C$DW$122, DW_AT_location[DW_OP_reg27]
     657                    $C$DW$123       .dwtag  DW_TAG_variable, DW_AT_name("$O$v1")
     658                            .dwattr $C$DW$123, DW_AT_TI_symbol_name("$O$v1")
     659                            .dwattr $C$DW$123, DW_AT_type(*$C$DW$T$44)
     660                            .dwattr $C$DW$123, DW_AT_location[DW_OP_reg27]
TMS320C6x Assembler PC v7.4.2 Thu Mar 19 12:43:17 2015

Tools Copyright (c) 1996-2012 Texas Instruments Incorporated
package/lib/Regression/regress_d_c/./../packages/ti/vlib/src/VLIB_lbp/VLIB_lbp_d.se66 PAGE   13

     661                    $C$DW$124       .dwtag  DW_TAG_variable, DW_AT_name("$O$v2")
     662                            .dwattr $C$DW$124, DW_AT_TI_symbol_name("$O$v2")
     663                            .dwattr $C$DW$124, DW_AT_type(*$C$DW$T$154)
     664                            .dwattr $C$DW$124, DW_AT_location[DW_OP_reg22]
     665                    $C$DW$125       .dwtag  DW_TAG_variable, DW_AT_name("$O$v2")
     666                            .dwattr $C$DW$125, DW_AT_TI_symbol_name("$O$v2")
     667                            .dwattr $C$DW$125, DW_AT_type(*$C$DW$T$154)
     668                            .dwattr $C$DW$125, DW_AT_location[DW_OP_reg22]
     669 00000010 0200002a!            MVKL    .S2     test_cases,B4
     670 00000014 0200006a!            MVKH    .S2     test_cases,B4
     671                    $C$DW$126       .dwtag  DW_TAG_TI_branch
     672                            .dwattr $C$DW$126, DW_AT_low_pc(0x00)
     673                            .dwattr $C$DW$126, DW_AT_name("lbp_getTestParams")
     674                            .dwattr $C$DW$126, DW_AT_TI_call
     675                    
     676 00000018 10000013!            CALLP   .S2     lbp_getTestParams,B3
     677 00000020 120007fc  ||         ADDAW   .D1X    SP,7,A4           ; |45| 
     678                    
     679                            .dwpsn  file "./../packages/ti/vlib/src/VLIB_lbp/VLIB_lbp_d.c",line 45,column 5,is_stmt,isa 0
     680                    ;----------------------------------------------------------------------
     681                    ;  45 | lbp_getTestParams(&prm, &test_cases);                                  
     682                    ;----------------------------------------------------------------------
     683 00000024           $C$RL0:    ; CALL OCCURS {lbp_getTestParams} {0}  ; |45| 
     684                    ;** --------------------------------------------------------------------------*
     685                    ;          EXCLUSIVE CPU CYCLES: 8
     686 00000024 0200002a!            MVKL    .S2     $C$SL1+0,B4
     687 00000028 0200006a!            MVKH    .S2     $C$SL1+0,B4
     688                    $C$DW$127       .dwtag  DW_TAG_TI_branch
     689                            .dwattr $C$DW$127, DW_AT_low_pc(0x00)
     690                            .dwattr $C$DW$127, DW_AT_name("VLIB_profile_init")
     691                            .dwattr $C$DW$127, DW_AT_TI_call
     692                    
     693 0000002c 10000013!            CALLP   .S2     VLIB_profile_init,B3
     694 00000030 020ca358  ||         MVK     .L1     0x3,A4            ; |48| 
     695                    
     696                            .dwpsn  file "./../packages/ti/vlib/src/VLIB_lbp/VLIB_lbp_d.c",line 48,column 5,is_stmt,isa 0
     697                    ;----------------------------------------------------------------------
     698                    ;  48 | VLIB_profile_init(3, "VLIB_lbp");                                      
     699                    ;----------------------------------------------------------------------
     700 00000034           $C$RL1:    ; CALL OCCURS {VLIB_profile_init} {0}  ; |48| 
     701                    ;** --------------------------------------------------------------------------*
     702                    ;          EXCLUSIVE CPU CYCLES: 14
     703                    ;**     -----------------------    K$47 = &desc[0];
     704                    ;**     -----------------------    K$49 = &testPatternString[0];
     705                    ;**     -----------------------    U$12 = prm;
     706                    ;**     -----------------------    U$11 = 0;
     707                    ;** 51  -----------------------    tpi = 0;
     708                    ;**     -----------------------    #pragma LOOP_FLAGS(5120u)
     709 00000034 01800028!            MVKL    .S1     test_cases,A3
     710 00000038 01800068!            MVKH    .S1     test_cases,A3
     711                            .dwpsn  file "./../packages/ti/vlib/src/VLIB_lbp/VLIB_lbp_d.c",line 51,column 19,is_stmt,isa 0
     712                    ;----------------------------------------------------------------------
     713                    ;  51 | for( tpi = 0; tpi < test_cases; tpi++ ) {                              
     714                    ;----------------------------------------------------------------------
     715 0000003c 020c0264             LDW     .D1T1   *A3,A4            ; |51| 
TMS320C6x Assembler PC v7.4.2 Thu Mar 19 12:43:17 2015

Tools Copyright (c) 1996-2012 Texas Instruments Incorporated
package/lib/Regression/regress_d_c/./../packages/ti/vlib/src/VLIB_lbp/VLIB_lbp_d.se66 PAGE   14

     716 00000040 063ce2e6             LDW     .D2T2   *+SP(28),B12
     717                            .dwpsn  file "./../packages/ti/vlib/src/VLIB_lbp/VLIB_lbp_d.c",line 51,column 10,is_stmt,isa 0
     718                    ;----------------------------------------------------------------------
     719                    ;  54 | int32_t    status_nat_vs_int = vlib_KERNEL_PASS; /* Test status : Natur
     720                    ;     | al c vs. Optimized */                                                  
     721                    ;  55 | int32_t    status_nat_vs_ref = vlib_KERNEL_PASS; /* Test status : Natur
     722                    ;     | al c vs. Static Reference */                                           
     723                    ;----------------------------------------------------------------------
     724 00000044 0680a35a             ZERO    .L2     B13               ; |51| 
     725 00000048 0700a358             ZERO    .L1     A14               ; |51| 
     726 0000004c     0c6e             NOP             1
     727                            .dwpsn  file "./../packages/ti/vlib/src/VLIB_lbp/VLIB_lbp_d.c",line 51,column 19,is_stmt,isa 0
     728 0000004e     1226             CMPGT   .L1     A4,0,A0           ; |51| 
     729                    
     730 00000050 d0009691     [!A0]   B       .S1     $C$L10            ; |51| 
     731 00000054 c23082e6  || [ A0]   LDW     .D2T2   *+B12(16),B4      ; |58| 
     732                    
     733                            .dwpsn  file "./../packages/ti/vlib/src/VLIB_lbp/VLIB_lbp_d.c",line 58,column 21,is_stmt,isa 0
     734                    ;----------------------------------------------------------------------
     735                    ;  58 | uint32_t    inp_size          =   prm[tpi].imageWidth  * prm[tpi].image
     736                    ;     | Height;                                                                
     737                    ;  59 | uint32_t    scratch_size      =   prm[tpi].imageWidth  * prm[tpi].image
     738                    ;     | Height * 6;                                                            
     739                    ;----------------------------------------------------------------------
     740 00000058 c2b0a2e6     [ A0]   LDW     .D2T2   *+B12(20),B5      ; |58| 
     741                            .dwpsn  file "./../packages/ti/vlib/src/VLIB_lbp/VLIB_lbp_d.c",line 60,column 21,is_stmt,isa 0
     742                    ;----------------------------------------------------------------------
     743                    ;  60 | uint32_t    pMapTbl_size      =   1 << prm[tpi].numNeighbours;         
     744                    ;----------------------------------------------------------------------
     745 00000060 c530c2e6     [ A0]   LDW     .D2T2   *+B12(24),B10     ; |60| 
     746 00000064 00004000             NOP             3
     747                            .dwpsn  file "./../packages/ti/vlib/src/VLIB_lbp/VLIB_lbp_d.c",line 51,column 19,is_stmt,isa 0
     748                               ; BRANCHCC OCCURS {$C$L10}        ; |51| 
     749                    ;** --------------------------------------------------------------------------*
     750                    ;**   BEGIN LOOP $C$L1
     751                    ;** --------------------------------------------------------------------------*
     752 00000068           $C$L1:    
     753                            .dwpsn  file "./../packages/ti/vlib/src/VLIB_lbp/VLIB_lbp_d.c",line 51,column 10,is_stmt,isa 0
     754                    $C$DW$L$VLIB_lbp_d$4$B:
     755                    ;          EXCLUSIVE CPU CYCLES: 6
     756                    ;**     -----------------------g3:
     757                    ;** 58  -----------------------    inp_size = (*U$12).imageWidth*(*U$12).imageHeight;
     758                    ;** 60  -----------------------    pMapTbl_size = 1u<<(*U$12).numNeighbours;
     759                    ;** 59  -----------------------    scratch_size = _lo(_mpyli(6, (int)inp_size));
     760                    ;** 63  -----------------------    pInput = VLIB_malloc(inp_size);
     761                    ;** 64  -----------------------    pMapTbl = VLIB_malloc(pMapTbl_size);
     762                    ;** 65  -----------------------    pScratch = VLIB_malloc(scratch_size);
     763                    ;** 69  -----------------------    VLIB_assert((*U$12).numNeighbours == 8, "This release requires numN
     764                    ;** 70  -----------------------    VLIB_assert((*U$12).radius == 1, "This release requires radius = 1"
     765                    ;** 73  -----------------------    if ( !((pInput == NULL)|(pMapTbl == NULL)|(pScratch == NULL)) ) got
     766                    $C$DW$128       .dwtag  DW_TAG_TI_branch
     767                            .dwattr $C$DW$128, DW_AT_low_pc(0x00)
     768                            .dwattr $C$DW$128, DW_AT_name("VLIB_malloc")
     769                            .dwattr $C$DW$128, DW_AT_TI_call
     770                    
TMS320C6x Assembler PC v7.4.2 Thu Mar 19 12:43:17 2015

Tools Copyright (c) 1996-2012 Texas Instruments Incorporated
package/lib/Regression/regress_d_c/./../packages/ti/vlib/src/VLIB_lbp/VLIB_lbp_d.se66 PAGE   15

     771 00000068 00000011!            CALL    .S1     VLIB_malloc       ; |63| 
     772 0000006c 0210a802  ||         MPY32   .M2     B5,B4,B4          ; |58| 
     773                    
     774                            .dwpsn  file "./../packages/ti/vlib/src/VLIB_lbp/VLIB_lbp_d.c",line 63,column 21,is_stmt,isa 0
     775                    ;----------------------------------------------------------------------
     776                    ;  63 | uint8_t    *pInput            =  (uint8_t *) VLIB_malloc(inp_size * siz
     777                    ;     | eof(uint8_t));                                                         
     778                    ;----------------------------------------------------------------------
     779 00000070 01864162             ADDKPC  .S2     $C$RL2,B3,2       ; |63| 
     780                            .dwpsn  file "./../packages/ti/vlib/src/VLIB_lbp/VLIB_lbp_d.c",line 58,column 21,is_stmt,isa 0
     781 00000074     bd45             STW     .D2T2   B4,*+SP(36)       ; |58| 
     782                            .dwpsn  file "./../packages/ti/vlib/src/VLIB_lbp/VLIB_lbp_d.c",line 63,column 21,is_stmt,isa 0
     783 00000076     9246             MV      .L1X    B4,A4             ; |63| 
     784 00000078           $C$RL2:    ; CALL OCCURS {VLIB_malloc} {0}   ; |63| 
     785 00000078           $C$DW$L$VLIB_lbp_d$4$E:
     786                    ;** --------------------------------------------------------------------------*
     787 00000078           $C$DW$L$VLIB_lbp_d$5$B:
     788                    ;          EXCLUSIVE CPU CYCLES: 51
     789                            .dwpsn  file "./../packages/ti/vlib/src/VLIB_lbp/VLIB_lbp_d.c",line 60,column 21,is_stmt,isa 0
     790 00000078 0204a35a             MVK     .L2     1,B4              ; |60| 
     791 00000080 05914ce2             SHL     .S2     B4,B10,B11        ; |60| 
     792                            .dwpsn  file "./../packages/ti/vlib/src/VLIB_lbp/VLIB_lbp_d.c",line 63,column 21,is_stmt,isa 0
     793 00000084     cd45             STW     .D2T1   A4,*+SP(40)       ; |63| 
     794                    $C$DW$129       .dwtag  DW_TAG_TI_branch
     795                            .dwattr $C$DW$129, DW_AT_low_pc(0x04)
     796                            .dwattr $C$DW$129, DW_AT_name("VLIB_malloc")
     797                            .dwattr $C$DW$129, DW_AT_TI_call
     798                    
     799 00000086     9586             MV      .L1X    B11,A4            ; |64| 
     800 00000088 10000012! ||         CALLP   .S2     VLIB_malloc,B3
     801                    
     802                            .dwpsn  file "./../packages/ti/vlib/src/VLIB_lbp/VLIB_lbp_d.c",line 64,column 21,is_stmt,isa 0
     803                    ;----------------------------------------------------------------------
     804                    ;  64 | uint8_t    *pMapTbl           =  (uint8_t *) VLIB_malloc(pMapTbl_size *
     805                    ;     |  sizeof(uint8_t));                                                     
     806                    ;----------------------------------------------------------------------
     807 0000008c           $C$RL3:    ; CALL OCCURS {VLIB_malloc} {0}   ; |64| 
     808                            .dwpsn  file "./../packages/ti/vlib/src/VLIB_lbp/VLIB_lbp_d.c",line 59,column 21,is_stmt,isa 0
     809 0000008c     bd4d             LDW     .D2T2   *+SP(36),B4       ; |59| 
     810 0000008e     c6a7             MVK     .L2     6,B5              ; |59| 
     811                            .dwpsn  file "./../packages/ti/vlib/src/VLIB_lbp/VLIB_lbp_d.c",line 64,column 21,is_stmt,isa 0
     812 00000090     ed45             STW     .D2T1   A4,*+SP(44)       ; |64| 
     813 00000092     2c6e             NOP             2
     814                            .dwpsn  file "./../packages/ti/vlib/src/VLIB_lbp/VLIB_lbp_d.c",line 59,column 21,is_stmt,isa 0
     815 00000094 0210a572             MPYLI   .M2     B5,B4,B5:B4       ; |59| 
     816 00000098     6c6e             NOP             4
     817                    $C$DW$130       .dwtag  DW_TAG_TI_branch
     818                            .dwattr $C$DW$130, DW_AT_low_pc(0x04)
     819                            .dwattr $C$DW$130, DW_AT_name("VLIB_malloc")
     820                            .dwattr $C$DW$130, DW_AT_TI_call
     821                    
     822 0000009a     9246             MV      .L1X    B4,A4             ; |59| 
     823 000000a0 10000012! ||         CALLP   .S2     VLIB_malloc,B3
     824                    
     825                            .dwpsn  file "./../packages/ti/vlib/src/VLIB_lbp/VLIB_lbp_d.c",line 65,column 21,is_stmt,isa 0
TMS320C6x Assembler PC v7.4.2 Thu Mar 19 12:43:17 2015

Tools Copyright (c) 1996-2012 Texas Instruments Incorporated
package/lib/Regression/regress_d_c/./../packages/ti/vlib/src/VLIB_lbp/VLIB_lbp_d.se66 PAGE   16

     826                    ;----------------------------------------------------------------------
     827                    ;  65 | uint8_t    *pScratch          =  (uint8_t *) VLIB_malloc(scratch_size *
     828                    ;     |  sizeof(uint8_t));                                                     
     829                    ;  66 | uint32_t   *pOutHistogram;                                             
     830                    ;  67 | uint32_t   *pOutHistogram_cn;                                          
     831                    ;----------------------------------------------------------------------
     832 000000a4           $C$RL4:    ; CALL OCCURS {VLIB_malloc} {0}   ; |65| 
     833                            .dwpsn  file "./../packages/ti/vlib/src/VLIB_lbp/VLIB_lbp_d.c",line 69,column 9,is_stmt,isa 0
     834                    ;----------------------------------------------------------------------
     835                    ;  69 | VLIB_assert(prm[tpi].numNeighbours == 8, "This release requires numNeig
     836                    ;     | hbors = 8");                                                           
     837                    ;----------------------------------------------------------------------
     838 000000a4 0230c2e6             LDW     .D2T2   *+B12(24),B4      ; |69| 
     839                            .dwpsn  file "./../packages/ti/vlib/src/VLIB_lbp/VLIB_lbp_d.c",line 65,column 21,is_stmt,isa 0
     840 000000a8     8dc5             STW     .D2T1   A4,*+SP(48)       ; |65| 
     841 000000aa     4c6e             NOP             3
     842                    
     843 000000ac 02111a59             CMPEQ   .L1X    B4,8,A4           ; |69| 
     844 000000b0 0200002a! ||         MVKL    .S2     $C$SL2+0,B4
     845                    
     846 000000b4 0200006a!            MVKH    .S2     $C$SL2+0,B4
     847                    $C$DW$131       .dwtag  DW_TAG_TI_branch
     848                            .dwattr $C$DW$131, DW_AT_low_pc(0x00)
     849                            .dwattr $C$DW$131, DW_AT_name("VLIB_assert")
     850                            .dwattr $C$DW$131, DW_AT_TI_call
     851 000000b8 10000012!            CALLP   .S2     VLIB_assert,B3
     852                            .dwpsn  file "./../packages/ti/vlib/src/VLIB_lbp/VLIB_lbp_d.c",line 69,column 9,is_stmt,isa 0
     853 000000c0           $C$RL5:    ; CALL OCCURS {VLIB_assert} {0}   ; |69| 
     854                            .dwpsn  file "./../packages/ti/vlib/src/VLIB_lbp/VLIB_lbp_d.c",line 70,column 9,is_stmt,isa 0
     855                    ;----------------------------------------------------------------------
     856                    ;  70 | VLIB_assert(prm[tpi].radius == 1, "This release requires radius = 1"); 
     857                    ;----------------------------------------------------------------------
     858 000000c0 0230e2e6             LDW     .D2T2   *+B12(28),B4      ; |70| 
     859 000000c4 00006000             NOP             4
     860                    
     861 000000c8 02103a59             CMPEQ   .L1X    B4,1,A4           ; |70| 
     862 000000cc 0200002a! ||         MVKL    .S2     $C$SL3+0,B4
     863                    
     864 000000d0 0200006a!            MVKH    .S2     $C$SL3+0,B4
     865                    $C$DW$132       .dwtag  DW_TAG_TI_branch
     866                            .dwattr $C$DW$132, DW_AT_low_pc(0x00)
     867                            .dwattr $C$DW$132, DW_AT_name("VLIB_assert")
     868                            .dwattr $C$DW$132, DW_AT_TI_call
     869 000000d4 10000012!            CALLP   .S2     VLIB_assert,B3
     870 000000d8           $C$RL6:    ; CALL OCCURS {VLIB_assert} {0}   ; |70| 
     871 000000d8           $C$DW$L$VLIB_lbp_d$5$E:
     872                    ;** --------------------------------------------------------------------------*
     873 000000d8           $C$DW$L$VLIB_lbp_d$6$B:
     874                    ;          EXCLUSIVE CPU CYCLES: 15
     875                    
     876 000000d8     05a6             ZERO    .L1     A3                ; |73| 
     877 000000da     cd0d  ||         LDW     .D2T1   *+SP(40),A0       ; |73| 
     878                    
     879                            .dwpsn  file "./../packages/ti/vlib/src/VLIB_lbp/VLIB_lbp_d.c",line 73,column 9,is_stmt,isa 0
     880                    ;----------------------------------------------------------------------
TMS320C6x Assembler PC v7.4.2 Thu Mar 19 12:43:17 2015

Tools Copyright (c) 1996-2012 Texas Instruments Incorporated
package/lib/Regression/regress_d_c/./../packages/ti/vlib/src/VLIB_lbp/VLIB_lbp_d.se66 PAGE   17

     881                    ;  73 | if( pInput && pMapTbl && pScratch ) {                                  
     882                    ;  75 |     int32_t    fail, maxTbl = 0, i;                                    
     883                    ;  78 |     VLIB_fillBuffer(prm[tpi].testPattern,                              
     884                    ;  79 |                     (uint8_t)1,                                        
     885                    ;  80 |                     pMapTbl, prm[tpi].lbpMapTbl,                       
     886                    ;  81 |                     pMapTbl_size, 1, pMapTbl_size * sizeof(pMapTbl[0]),
     887                    ;  82 |                     sizeof(pMapTbl[0]), testPatternString);            
     888                    ;  84 |     VLIB_fillBuffer(prm[tpi].testPattern,                              
     889                    ;  85 |                     (uint8_t)1,                                        
     890                    ;  86 |                     pInput, prm[tpi].staticIn,                         
     891                    ;  87 |                     prm[tpi].imageWidth, prm[tpi].imageHeight, prm[tpi]
     892                    ;     | .imageWidth * sizeof(pInput[0]),                                       
     893                    ;  88 |                     sizeof(pInput[0]), testPatternString);             
     894                    ;  91 |     for( i=0; i < pMapTbl_size; i++ ) {                                
     895                    ;  92 |         if( maxTbl < pMapTbl[i] ) {                                    
     896                    ;  93 |             maxTbl = pMapTbl[i];                                       
     897                    ;  97 |     pOutHistogram     =  (uint32_t *) VLIB_malloc((maxTbl + 1) * sizeof
     898                    ;     | (uint32_t));                                                           
     899                    ;  98 |     pOutHistogram_cn  =  (uint32_t *) malloc((maxTbl + 1) * sizeof(uint
     900                    ;     | 32_t));                                                                
     901                    ; 101 |     if( pOutHistogram && pOutHistogram_cn ) {                          
     902                    ; 103 |         memset(pOutHistogram, 0, (maxTbl + 1) * sizeof(pOutHistogram[0]
     903                    ;     | ));                                                                    
     904                    ; 104 |         memset(pOutHistogram_cn, 0, (maxTbl + 1) * sizeof(pOutHistogram
     905                    ;     | _cn[0]));                                                              
     906                    ; 107 |         VLIB_profile_start(vlib_KERNEL_OPT);                           
     907                    ; 108 |         VLIB_lbp(pInput, pMapTbl, pScratch, pOutHistogram,             
     908                    ; 109 |                  prm[tpi].imageWidth, prm[tpi].imageHeight,            
     909                    ; 110 |                  prm[tpi].numNeighbours, prm[tpi].radius);             
     910                    ; 111 |         VLIB_profile_stop();                                           
     911                    ; 115 |         VLIB_profile_start(vlib_KERNEL_CN);                            
     912                    ; 116 |         VLIB_lbp_cn(pInput, pMapTbl, pOutHistogram_cn,                 
     913                    ; 117 |                     prm[tpi].imageWidth, prm[tpi].imageHeight,         
     914                    ; 118 |                     prm[tpi].numNeighbours, prm[tpi].radius);          
     915                    ; 119 |         VLIB_profile_stop();                                           
     916                    ; 123 |         status_nat_vs_int = VLIB_compare_mem((void *) pOutHistogram, (v
     917                    ;     | oid *)pOutHistogram_cn, (maxTbl + 1) * sizeof(pOutHistogram_cn[0]));   
     918                    ; 126 |         if( prm[tpi].staticOut != NULL ) {                             
     919                    ; 127 |             status_nat_vs_ref = VLIB_compare_mem((void *) prm[tpi].stat
     920                    ;     | icOut, (void *)pOutHistogram_cn, (maxTbl + 1) * sizeof(pOutHistogram_cn
     921                    ;     | [0]));                                                                 
     922                    ; 131 |         fail = ((status_nat_vs_int == vlib_KERNEL_FAIL) || (status_nat_
     923                    ;     | vs_ref == vlib_KERNEL_FAIL)) ? 1 : 0;                                  
     924                    ; 132 |         est_test=1;                                                    
     925                    ; 135 |         sprintf(desc, "%s generated input | Opt results compared to Nat
     926                    ;     | C results | imageWidth=%d, imageHeight=%d, out_size=%d",               
     927                    ; 136 |                 testPatternString, prm[tpi].imageWidth, prm[tpi].imageH
     928                    ;     | eight, maxTbl + 1);                                                    
     929                    ; 137 |         VLIB_formula_add_test(inp_size, prm[tpi].imageHeight, NULL, fai
     930                    ;     | l, desc, NULL);                                                        
     931                    ; 138 |     } else {                                                           
     932                    ; 140 |         sprintf(desc, "imageWidth=%d, imageHeight=%d,  out size=%d",   
     933                    ; 141 |                 prm[tpi].imageWidth, prm[tpi].imageHeight, maxTbl + 1);
     934                    ; 142 |         VLIB_skip_test(desc);                                          
     935                    ; 144 | } else {                                                               
TMS320C6x Assembler PC v7.4.2 Thu Mar 19 12:43:17 2015

Tools Copyright (c) 1996-2012 Texas Instruments Incorporated
package/lib/Regression/regress_d_c/./../packages/ti/vlib/src/VLIB_lbp/VLIB_lbp_d.se66 PAGE   18

     936                    ;----------------------------------------------------------------------
     937 000000e0     fd0d             LDW     .D2T2   *+SP(44),B0       ; |73| 
     938 000000e2     8dad             LDW     .D2T1   *+SP(48),A2       ; |73| 
     939 000000e4     06a6             ZERO    .L1     A5                ; |73| 
     940 000000e6     0626             ZERO    .L1     A4                ; |73| 
     941 000000e8     6ae6     [!A0]   MVK     .L1     0x1,A5            ; |73| 
     942 000000ea     ea66     [!B0]   MVK     .L1     0x1,A4            ; |73| 
     943                    
     944 000000ec 02148ff9             OR      .L1     A4,A5,A4          ; |73| 
     945 000000f0 b18000a8  || [!A2]   MVK     .S1     0x1,A3            ; |73| 
     946                    
     947 000000f4 00106ff8             OR      .L1     A3,A4,A0          ; |73| 
     948                    
     949 000000f8 d0000f13     [!A0]   B       .S2     $C$L2             ; |73| 
     950 00000100 c2b082e7  || [ A0]   LDW     .D2T2   *+B12(16),B5      ; |146| 
     951 00000104 d404a35b  || [!A0]   MVK     .L2     0x1,B8            ; |78| 
     952 00000108 c2000028! || [ A0]   MVKL    .S1     desc,A4
     953                    
     954 0000010c c300002b!    [ A0]   MVKL    .S2     $C$SL4+0,B6
     955 00000110 d33062e7  || [!A0]   LDW     .D2T2   *+B12(12),B6      ; |78| 
     956 00000114 d6000028! || [!A0]   MVKL    .S1     testPatternString,A12
     957                    
     958 00000118 d2300295     [!A0]   LDBU    .D2T1   *B12,A4           ; |78| 
     959 0000011c c300006a! || [ A0]   MVKH    .S2     $C$SL4+0,B6
     960                    
     961                    $C$DW$133       .dwtag  DW_TAG_TI_branch
     962                            .dwattr $C$DW$133, DW_AT_low_pc(0x00)
     963                            .dwattr $C$DW$133, DW_AT_name("VLIB_fillBuffer")
     964                            .dwattr $C$DW$133, DW_AT_TI_call
     965                    
     966 00000120 d0000011!    [!A0]   CALL    .S1     VLIB_fillBuffer   ; |78| 
     967 00000124 c230a2e7  || [ A0]   LDW     .D2T2   *+B12(20),B4      ; |146| 
     968 00000128 d3ae100a  || [!A0]   EXTU    .S2     B11,16,16,B7      ; |78| 
     969                    
     970                            .dwpsn  file "./../packages/ti/vlib/src/VLIB_lbp/VLIB_lbp_d.c",line 146,column 13,is_stmt,isa 
     971                    ;----------------------------------------------------------------------
     972                    ; 146 | sprintf(desc, "imageWidth=%d, imageHeight=%d",                         
     973                    ;----------------------------------------------------------------------
     974                    $C$DW$134       .dwtag  DW_TAG_TI_branch
     975                            .dwattr $C$DW$134, DW_AT_low_pc(0x00)
     976                            .dwattr $C$DW$134, DW_AT_name("sprintf")
     977                            .dwattr $C$DW$134, DW_AT_TI_call
     978 0000012c c0000010!    [ A0]   CALL    .S1     sprintf           ; |146| 
     979                            .dwpsn  file "./../packages/ti/vlib/src/VLIB_lbp/VLIB_lbp_d.c",line 78,column 13,is_stmt,isa 0
     980 00000130 d2ae100a     [!A0]   EXTU    .S2     B11,16,16,B5      ; |78| 
     981                            .dwpsn  file "./../packages/ti/vlib/src/VLIB_lbp/VLIB_lbp_d.c",line 73,column 9,is_stmt,isa 0
     982                               ; BRANCHCC OCCURS {$C$L2}         ; |73| 
     983 00000134           $C$DW$L$VLIB_lbp_d$6$E:
     984                    ;** --------------------------------------------------------------------------*
     985 00000134           $C$DW$L$VLIB_lbp_d$7$B:
     986                    ;          EXCLUSIVE CPU CYCLES: 4
     987                    ;** 146 -----------------------    sprintf(K$47, (const char *)"imageWidth=%d, imageHeight=%d", (*U$12
     988                    ;** 148 -----------------------    VLIB_skip_test(K$47);
     989                    ;** 148 -----------------------    goto g13;
     990                            .dwpsn  file "./../packages/ti/vlib/src/VLIB_lbp/VLIB_lbp_d.c",line 146,column 13,is_stmt,isa 
TMS320C6x Assembler PC v7.4.2 Thu Mar 19 12:43:17 2015

Tools Copyright (c) 1996-2012 Texas Instruments Incorporated
package/lib/Regression/regress_d_c/./../packages/ti/vlib/src/VLIB_lbp/VLIB_lbp_d.se66 PAGE   19

     991                    ;----------------------------------------------------------------------
     992                    ; 147 | prm[tpi].imageWidth, prm[tpi].imageHeight);                            
     993                    ;----------------------------------------------------------------------
     994 00000134     dc55             STW     .D2T2   B5,*+SP(8)        ; |146| 
     995 00000136     bc65             STW     .D2T2   B6,*+SP(4)        ; |146| 
     996 00000138 023c62f6             STW     .D2T2   B4,*+SP(12)       ; |146| 
     997                    
     998 00000140 02000069!            MVKH    .S1     desc,A4
     999 00000144 01820162  ||         ADDKPC  .S2     $C$RL7,B3,0       ; |146| 
    1000                    
    1001 00000148           $C$RL7:    ; CALL OCCURS {sprintf} {0}       ; |146| 
    1002 00000148           $C$DW$L$VLIB_lbp_d$7$E:
    1003                    ;** --------------------------------------------------------------------------*
    1004 00000148           $C$DW$L$VLIB_lbp_d$8$B:
    1005                    ;          EXCLUSIVE CPU CYCLES: 7
    1006 00000148 02000028!            MVKL    .S1     desc,A4
    1007                    $C$DW$135       .dwtag  DW_TAG_TI_branch
    1008                            .dwattr $C$DW$135, DW_AT_low_pc(0x00)
    1009                            .dwattr $C$DW$135, DW_AT_name("VLIB_skip_test")
    1010                            .dwattr $C$DW$135, DW_AT_TI_call
    1011                    
    1012 0000014c 10000013!            CALLP   .S2     VLIB_skip_test,B3
    1013 00000150 02000068! ||         MVKH    .S1     desc,A4
    1014                    
    1015                            .dwpsn  file "./../packages/ti/vlib/src/VLIB_lbp/VLIB_lbp_d.c",line 148,column 13,is_stmt,isa 
    1016                    ;----------------------------------------------------------------------
    1017                    ; 148 | VLIB_skip_test(desc);                                                  
    1018                    ; 150 | free(pOutHistogram_cn);                                                
    1019                    ; 151 | VLIB_free(pOutHistogram);                                              
    1020                    ; 152 | VLIB_free(pScratch);                                                   
    1021                    ;----------------------------------------------------------------------
    1022 00000154           $C$RL8:    ; CALL OCCURS {VLIB_skip_test} {0}  ; |148| 
    1023 00000154           $C$DW$L$VLIB_lbp_d$8$E:
    1024                    ;** --------------------------------------------------------------------------*
    1025 00000154           $C$DW$L$VLIB_lbp_d$9$B:
    1026                    ;          EXCLUSIVE CPU CYCLES: 6
    1027 00000154 01a8a120             BNOP    .S1     $C$L8,5           ; |148| 
    1028                               ; BRANCH OCCURS {$C$L8}           ; |148| 
    1029 00000158           $C$DW$L$VLIB_lbp_d$9$E:
    1030                    ;** --------------------------------------------------------------------------*
    1031 00000158           $C$L2:    
    1032                            .dwpsn  file "./../packages/ti/vlib/src/VLIB_lbp/VLIB_lbp_d.c",line 75,column 30,is_stmt,isa 0
    1033 00000158           $C$DW$L$VLIB_lbp_d$10$B:
    1034                    ;          EXCLUSIVE CPU CYCLES: 3
    1035                    ;**     -----------------------g5:
    1036                    ;** 78  -----------------------    VLIB_fillBuffer((*U$12).testPattern, 1u, (void *)pMapTbl, (*U$12).l
    1037                    ;** 84  -----------------------    C$10 = (unsigned short)(*U$12).imageWidth;
    1038                    ;** 84  -----------------------    VLIB_fillBuffer((*U$12).testPattern, 1u, (void *)pInput, (*U$12).st
    1039                    ;**     -----------------------    U$61 = pMapTbl;
    1040                    ;** 91  -----------------------    L$1 = pMapTbl_size;
    1041                    ;** 75  -----------------------    maxTbl = 0;
    1042                    ;**     -----------------------    #pragma MUST_ITERATE(1, 2147483647, 1)
    1043                    ;**     -----------------------    #pragma LOOP_FLAGS(4096u)
    1044                    ;**     -----------------------g6:
    1045                    ;** 93  -----------------------    C$9 = *U$61++;
TMS320C6x Assembler PC v7.4.2 Thu Mar 19 12:43:17 2015

Tools Copyright (c) 1996-2012 Texas Instruments Incorporated
package/lib/Regression/regress_d_c/./../packages/ti/vlib/src/VLIB_lbp/VLIB_lbp_d.se66 PAGE   20

    1046                    ;** 93  -----------------------    (maxTbl > C$9) ? maxTbl : (maxTbl = C$9);
    1047                    ;** 91  -----------------------    if ( L$1 = L$1-1 ) goto g6;
    1048                    ;** 97  -----------------------    C$5 = (unsigned)(maxTbl*4)+4u;
    1049                            .dwpsn  file "./../packages/ti/vlib/src/VLIB_lbp/VLIB_lbp_d.c",line 78,column 13,is_stmt,isa 0
    1050 00000158     56c6             MV      .L1X    B5,A10            ; |78| 
    1051 0000015a     17c6             MV      .L1X    B7,A8             ; |78| 
    1052                    
    1053 00000160     d046             MV      .L1X    B0,A6             ; |78| 
    1054 00000168 06000069! ||         MVKH    .S1     testPatternString,A12
    1055 00000164 05200fdb  ||         MV      .L2     B8,B10            ; |78| 
    1056 00000162     8417  ||         MV      .D2     B8,B4             ; |78| 
    1057 0000016c 01840162  ||         ADDKPC  .S2     $C$RL9,B3,0       ; |78| 
    1058                    
    1059 00000170           $C$RL9:    ; CALL OCCURS {VLIB_fillBuffer} {0}  ; |78| 
    1060 00000170           $C$DW$L$VLIB_lbp_d$10$E:
    1061                    ;** --------------------------------------------------------------------------*
    1062 00000170           $C$DW$L$VLIB_lbp_d$11$B:
    1063                    ;          EXCLUSIVE CPU CYCLES: 12
    1064                            .dwpsn  file "./../packages/ti/vlib/src/VLIB_lbp/VLIB_lbp_d.c",line 84,column 13,is_stmt,isa 0
    1065 00000170 02b10286             LDHU    .D2T2   *+B12(16),B5      ; |84| 
    1066 00000174 033022e6             LDW     .D2T2   *+B12(4),B6       ; |84| 
    1067 00000178 04314286             LDHU    .D2T2   *+B12(20),B8      ; |84| 
    1068 00000180 033d42e4             LDW     .D2T1   *+SP(40),A6       ; |84| 
    1069 00000184 02300294             LDBU    .D2T1   *B12,A4           ; |84| 
    1070 00000188     56c6             MV      .L1X    B5,A10            ; |84| 
    1071                    $C$DW$136       .dwtag  DW_TAG_TI_branch
    1072                            .dwattr $C$DW$136, DW_AT_low_pc(0x08)
    1073                            .dwattr $C$DW$136, DW_AT_name("VLIB_fillBuffer")
    1074                            .dwattr $C$DW$136, DW_AT_TI_call
    1075                    
    1076 0000018a     16c6             MV      .L1X    B5,A8             ; |84| 
    1077 00000190     8507  ||         MV      .L2     B10,B4            ; |84| 
    1078 0000018c 10000013! ||         CALLP   .S2     VLIB_fillBuffer,B3
    1079                    
    1080 00000192           $C$RL10:   ; CALL OCCURS {VLIB_fillBuffer} {0}  ; |84| 
    1081 00000192           $C$DW$L$VLIB_lbp_d$11$E:
    1082                    ;** --------------------------------------------------------------------------*
    1083 00000192           $C$DW$L$VLIB_lbp_d$12$B:
    1084                    ;          EXCLUSIVE CPU CYCLES: 4
    1085                    
    1086 00000192     ed5d             LDW     .D2T1   *+SP(44),A5       ; |91| 
    1087 00000194 06ac03a2  ||         MVC     .S2     B11,ILC
    1088                    
    1089 00000198     4c6e             NOP             3
    1090 0000019a           $C$DW$L$VLIB_lbp_d$12$E:
    1091                    ;*----------------------------------------------------------------------------*
    1092                    ;*   SOFTWARE PIPELINE INFORMATION
    1093                    ;*
    1094                    ;*      Loop found in file               : ./../packages/ti/vlib/src/VLIB_lbp/VLIB_lbp_d.c
    1095                    ;*      Loop source line                 : 91
    1096                    ;*      Loop opening brace source line   : 91
    1097                    ;*      Loop closing brace source line   : 95
    1098                    ;*      Known Minimum Trip Count         : 1                    
    1099                    ;*      Known Max Trip Count Factor      : 1
    1100                    ;*      Loop Carried Dependency Bound(^) : 2
TMS320C6x Assembler PC v7.4.2 Thu Mar 19 12:43:17 2015

Tools Copyright (c) 1996-2012 Texas Instruments Incorporated
package/lib/Regression/regress_d_c/./../packages/ti/vlib/src/VLIB_lbp/VLIB_lbp_d.se66 PAGE   21

    1101                    ;*      Unpartitioned Resource Bound     : 1
    1102                    ;*      Partitioned Resource Bound(*)    : 1
    1103                    ;*      Resource Partition:
    1104                    ;*                                A-side   B-side
    1105                    ;*      .L units                     1*       0     
    1106                    ;*      .S units                     0        0     
    1107                    ;*      .D units                     1*       0     
    1108                    ;*      .M units                     0        0     
    1109                    ;*      .X cross paths               0        0     
    1110                    ;*      .T address paths             1*       0     
    1111                    ;*      Long read paths              0        0     
    1112                    ;*      Long write paths             0        0     
    1113                    ;*      Logical  ops (.LS)           0        0     (.L or .S unit)
    1114                    ;*      Addition ops (.LSD)          1        0     (.L or .S or .D unit)
    1115                    ;*      Bound(.L .S .LS)             1*       0     
    1116                    ;*      Bound(.L .S .D .LS .LSD)     1*       0     
    1117                    ;*
    1118                    ;*      Searching for software pipeline schedule at ...
    1119                    ;*         ii = 2  Schedule found with 4 iterations in parallel
    1120                    ;*
    1121                    ;*      Register Usage Table:
    1122                    ;*          +-----------------------------------------------------------------+
    1123                    ;*          |AAAAAAAAAAAAAAAAAAAAAAAAAAAAAAAA|BBBBBBBBBBBBBBBBBBBBBBBBBBBBBBBB|
    1124                    ;*          |00000000001111111111222222222233|00000000001111111111222222222233|
    1125                    ;*          |01234567890123456789012345678901|01234567890123456789012345678901|
    1126                    ;*          |--------------------------------+--------------------------------|
    1127                    ;*       0: |*  ***                          |                                |
    1128                    ;*       1: |   ***                          |                                |
    1129                    ;*          +-----------------------------------------------------------------+
    1130                    ;*
    1131                    ;*      Done
    1132                    ;*
    1133                    ;*      Loop will be splooped
    1134                    ;*      Collapsed epilog stages       : 0
    1135                    ;*      Collapsed prolog stages       : 0
    1136                    ;*      Minimum required memory pad   : 0 bytes
    1137                    ;*
    1138                    ;*      Minimum safe trip count       : 1
    1139                    ;*      Min. prof. trip count  (est.) : 2
    1140                    ;*
    1141                    ;*      Mem bank conflicts/iter(est.) : { min 0.000, est 0.000, max 0.000 }
    1142                    ;*      Mem bank perf. penalty (est.) : 0.0%
    1143                    ;*
    1144                    ;*
    1145                    ;*      Total cycles (est.)         : 6 + trip_cnt * 2        
    1146                    ;*----------------------------------------------------------------------------*
    1147                    ;*        SINGLE SCHEDULED ITERATION
    1148                    ;*
    1149                    ;*        $C$C58:
    1150                    ;*   0              LDBU    .D1T1   *A5++,A3          ; |93| 
    1151                    ;*   1              NOP             4
    1152                    ;*   5              CMPGT   .L1     A4,A3,A0          ; |93|  ^ 
    1153                    ;*   6      [!A0]   MV      .L1     A3,A4             ; |93|  ^ 
    1154                    ;*     ||           SPBR            $C$C58
    1155                    ;*   7              NOP             1
TMS320C6x Assembler PC v7.4.2 Thu Mar 19 12:43:17 2015

Tools Copyright (c) 1996-2012 Texas Instruments Incorporated
package/lib/Regression/regress_d_c/./../packages/ti/vlib/src/VLIB_lbp/VLIB_lbp_d.se66 PAGE   22

    1156                    ;*   8              ; BRANCHCC OCCURS {$C$C58}        ; |91| 
    1157                    ;*----------------------------------------------------------------------------*
    1158 0000019a           $C$L3:    ; PIPED LOOP PROLOG
    1159                    ;          EXCLUSIVE CPU CYCLES: 7
    1160 0000019a     0ce6             SPLOOP  2       ;8                ; (P) 
    1161                    ;** --------------------------------------------------------------------------*
    1162 000001a0           $C$L4:    ; PIPED LOOP KERNEL
    1163                            .dwpsn  file "./../packages/ti/vlib/src/VLIB_lbp/VLIB_lbp_d.c",line 75,column 30,is_stmt,isa 0
    1164 000001a0           $C$DW$L$VLIB_lbp_d$14$B:
    1165                    ;          EXCLUSIVE CPU CYCLES: 2
    1166                            .dwpsn  file "./../packages/ti/vlib/src/VLIB_lbp/VLIB_lbp_d.c",line 93,column 21,is_stmt,isa 0
    1167 000001a0     0ebc             LDBU    .D1T1   *A5++,A3          ; |93| (P) <0,0> 
    1168 000001a2     4c6e             NOP             3
    1169                    
    1170 000001a4     2c67             SPMASK          L1
    1171 000001a6     0626  ||         ZERO    .L1     A4                ; |75| 
    1172                    
    1173 000001a8     8da8             CMPGT   .L1     A4,A3,A0          ; |93| (P) <0,5>  ^ 
    1174                    
    1175 000001aa     1c67             SPKERNEL 1,0
    1176 000001ac d20c0fd8  || [!A0]   MV      .L1     A3,A4             ; |93| <0,6>  ^ 
    1177                    
    1178 000001b0           $C$DW$L$VLIB_lbp_d$14$E:
    1179                    ;** --------------------------------------------------------------------------*
    1180 000001b0           $C$L5:    ; PIPED LOOP EPILOG
    1181                    ;          EXCLUSIVE CPU CYCLES: 8
    1182                    ;** 97  -----------------------    pOutHistogram = VLIB_malloc(C$5);
    1183                    ;** 98  -----------------------    pOutHistogram_cn = malloc(C$5);
    1184                    ;** 101 -----------------------    v$1 = prm;
    1185                    ;** 101 -----------------------    if ( !((pOutHistogram != NULL)&(pOutHistogram_cn != NULL)) ) goto g
    1186                            .dwpsn  file "./../packages/ti/vlib/src/VLIB_lbp/VLIB_lbp_d.c",line 97,column 13,is_stmt,isa 0
    1187                    $C$DW$137       .dwtag  DW_TAG_TI_branch
    1188                            .dwattr $C$DW$137, DW_AT_low_pc(0x00)
    1189                            .dwattr $C$DW$137, DW_AT_name("VLIB_malloc")
    1190                            .dwattr $C$DW$137, DW_AT_TI_call
    1191 000001b0 00000012!            CALL    .S2     VLIB_malloc       ; |97| 
    1192 000001b4 018a0162             ADDKPC  .S2     $C$RL11,B3,0      ; |97| 
    1193 000001b8     8192             MVK     .S1     4,A3              ; |97| 
    1194 000001ba     8646             MV      .L1     A4,A12
    1195 000001c0 068d9c40             ADDAW   .D1     A3,A12,A13        ; |97| 
    1196 000001c4 02340fd8             MV      .L1     A13,A4            ; |97| 
    1197 000001c8           $C$RL11:   ; CALL OCCURS {VLIB_malloc} {0}   ; |97| 
    1198                    ;** --------------------------------------------------------------------------*
    1199 000001c8           $C$DW$L$VLIB_lbp_d$16$B:
    1200                    ;          EXCLUSIVE CPU CYCLES: 7
    1201 000001c8     0c6e             NOP             1
    1202                    $C$DW$138       .dwtag  DW_TAG_TI_branch
    1203                            .dwattr $C$DW$138, DW_AT_low_pc(0x00)
    1204                            .dwattr $C$DW$138, DW_AT_name("malloc")
    1205                            .dwattr $C$DW$138, DW_AT_TI_call
    1206                    
    1207 000001cc 10000013!            CALLP   .S2     malloc,B3
    1208 000001ca     adc5  ||         STW     .D2T1   A4,*+SP(52)       ; |97| 
    1209 000001d0     8686  ||         MV      .L1     A13,A4            ; |98| 
    1210                    
TMS320C6x Assembler PC v7.4.2 Thu Mar 19 12:43:17 2015

Tools Copyright (c) 1996-2012 Texas Instruments Incorporated
package/lib/Regression/regress_d_c/./../packages/ti/vlib/src/VLIB_lbp/VLIB_lbp_d.se66 PAGE   23

    1211                            .dwpsn  file "./../packages/ti/vlib/src/VLIB_lbp/VLIB_lbp_d.c",line 98,column 13,is_stmt,isa 0
    1212 000001d2           $C$RL12:   ; CALL OCCURS {malloc} {0}        ; |98| 
    1213 000001d2           $C$DW$L$VLIB_lbp_d$16$E:
    1214                    ;** --------------------------------------------------------------------------*
    1215 000001d2           $C$DW$L$VLIB_lbp_d$17$B:
    1216                    ;          EXCLUSIVE CPU CYCLES: 13
    1217                    
    1218 000001d2     ad8d             LDW     .D2T1   *+SP(52),A0       ; |101| 
    1219 000001d4     0627  ||         ZERO    .L2     B4                ; |101| 
    1220 000001d6     124f  ||         MV      .S2X    A4,B0             ; |101| 
    1221                    
    1222                            .dwpsn  file "./../packages/ti/vlib/src/VLIB_lbp/VLIB_lbp_d.c",line 101,column 13,is_stmt,isa 
    1223 000001d8 05bce2e6             LDW     .D2T2   *+SP(28),B11      ; |101| 
    1224 000001e0     aa67     [ B0]   MVK     .L2     0x1,B4            ; |101| 
    1225 000001e2     06a7             ZERO    .L2     B5                ; |101| 
    1226                            .dwpsn  file "./../packages/ti/vlib/src/VLIB_lbp/VLIB_lbp_d.c",line 98,column 13,is_stmt,isa 0
    1227 000001e4     cdc5             STW     .D2T1   A4,*+SP(56)       ; |98| 
    1228                            .dwpsn  file "./../packages/ti/vlib/src/VLIB_lbp/VLIB_lbp_d.c",line 101,column 13,is_stmt,isa 
    1229 000001e6     2ae7     [ A0]   MVK     .L2     0x1,B5            ; |101| 
    1230 000001e8 00148f7a             AND     .L2     B4,B5,B0          ; |101| 
    1231                    
    1232 000001ec 30005211     [!B0]   B       .S1     $C$L7             ; |101| 
    1233 000001f0 32b5607b  || [!B0]   ADD     .L2     B11,B13,B5        ; |140| 
    1234 000001f4 3300002b! || [!B0]   MVKL    .S2     $C$SL6+0,B6
    1235 000001f8 31b02058  || [!B0]   ADD     .L1     1,A12,A3          ; |140| 
    1236                    
    1237                    $C$DW$139       .dwtag  DW_TAG_TI_branch
    1238                            .dwattr $C$DW$139, DW_AT_low_pc(0x00)
    1239                            .dwattr $C$DW$139, DW_AT_name("memset")
    1240                            .dwattr $C$DW$139, DW_AT_TI_call
    1241                    
    1242 00000200 20000011!    [ B0]   CALL    .S1     memset            ; |103| 
    1243 00000204 3214a2e6  || [!B0]   LDW     .D2T2   *+B5(20),B4       ; |140| 
    1244                    
    1245 00000208 3300006a!    [!B0]   MVKH    .S2     $C$SL6+0,B6
    1246                            .dwpsn  file "./../packages/ti/vlib/src/VLIB_lbp/VLIB_lbp_d.c",line 140,column 17,is_stmt,isa 
    1247 0000020c 329482e6     [!B0]   LDW     .D2T2   *+B5(16),B5       ; |140| 
    1248                    $C$DW$140       .dwtag  DW_TAG_TI_branch
    1249                            .dwattr $C$DW$140, DW_AT_low_pc(0x00)
    1250                            .dwattr $C$DW$140, DW_AT_name("sprintf")
    1251                            .dwattr $C$DW$140, DW_AT_TI_call
    1252 00000210 30000010!    [!B0]   CALL    .S1     sprintf           ; |140| 
    1253 00000214 32000029!    [!B0]   MVKL    .S1     desc,A4
    1254                            .dwpsn  file "./../packages/ti/vlib/src/VLIB_lbp/VLIB_lbp_d.c",line 101,column 13,is_stmt,isa 
    1255                               ; BRANCHCC OCCURS {$C$L7}         ; |101| 
    1256 00000220           $C$DW$L$VLIB_lbp_d$17$E:
    1257                    ;** --------------------------------------------------------------------------*
    1258 00000220           $C$DW$L$VLIB_lbp_d$18$B:
    1259                    ;          EXCLUSIVE CPU CYCLES: 1
    1260                    ;** 103 -----------------------    memset((void *)pOutHistogram, 0, C$5);
    1261                    ;** 104 -----------------------    memset((void *)pOutHistogram_cn, 0, C$5);
    1262                    ;** 137 -----------------------    act_kernel = 0;  // [16]
    1263                    ;** 140 -----------------------    VLIB_cache_inval();  // [16]
    1264                    ;** 143 -----------------------    initStack(getSP());  // [16]
    1265                    ;** 146 -----------------------    beg_count = _itoll(TSCH, TSCL);  // [16]
TMS320C6x Assembler PC v7.4.2 Thu Mar 19 12:43:17 2015

Tools Copyright (c) 1996-2012 Texas Instruments Incorporated
package/lib/Regression/regress_d_c/./../packages/ti/vlib/src/VLIB_lbp/VLIB_lbp_d.se66 PAGE   24

    1266                    ;** 108 -----------------------    VLIB_lbp(pInput, pMapTbl, pScratch, pOutHistogram, (unsigned)(*U$12
    1267                    ;** 153 -----------------------    v$2 = _itoll(TSCH, TSCL);  // [17]
    1268                    ;** 153 -----------------------    end_count = v$2;  // [17]
    1269                    ;** 156 -----------------------    C$8 = act_kernel;  // [17]
    1270                    ;** 156 -----------------------    C$7 = &cycles[0];  // [17]
    1271                    ;** 156 -----------------------    *((C$8<<3)+C$7) = *((C$8<<3)+C$7)+(v$2-(beg_count+overhead));  // [
    1272                    ;** 159 -----------------------    setStackDepth();  // [17]
    1273                    ;** 137 -----------------------    act_kernel = 1;  // [16]
    1274                    ;** 140 -----------------------    VLIB_cache_inval();  // [16]
    1275                    ;** 143 -----------------------    initStack(getSP());  // [16]
    1276                    ;** 146 -----------------------    beg_count = _itoll(TSCH, TSCL);  // [16]
    1277                    ;** 116 -----------------------    VLIB_lbp_cn(pInput, pMapTbl, pOutHistogram_cn, (*U$12).imageWidth, 
    1278                    
    1279 00000220     c686             MV      .L1     A13,A6            ; |103| 
    1280 00000222     0627  ||         ZERO    .L2     B4                ; |103| 
    1281 00000228 020006a0  ||         MV      .S1     A0,A4             ; |103| 
    1282 00000224 01830163  ||         ADDKPC  .S2     $C$RL13,B3,0      ; |103| 
    1283                    
    1284                            .dwpsn  file "./../packages/ti/vlib/src/VLIB_lbp/VLIB_lbp_d.c",line 103,column 17,is_stmt,isa 
    1285                    $C$RL13:   ; CALL OCCURS {memset} {0}        ; |103| 
    1286                    $C$DW$L$VLIB_lbp_d$18$E:
    1287                    ;** --------------------------------------------------------------------------*
    1288                    $C$DW$L$VLIB_lbp_d$19$B:
    1289                    ;          EXCLUSIVE CPU CYCLES: 101
    1290                    $C$DW$141       .dwtag  DW_TAG_TI_branch
    1291                            .dwattr $C$DW$141, DW_AT_low_pc(0x00)
    1292                            .dwattr $C$DW$141, DW_AT_name("memset")
    1293                            .dwattr $C$DW$141, DW_AT_TI_call
    1294                    
    1295 0000022c 10000013!            CALLP   .S2     memset,B3
    1296 00000230     cdcd  ||         LDW     .D2T1   *+SP(56),A4       ; |104| 
    1297 00000232     0627  ||         ZERO    .L2     B4                ; |104| 
    1298 00000234 03340fd8  ||         MV      .L1     A13,A6            ; |104| 
    1299                    
    1300                            .dwpsn  file "./../packages/ti/vlib/src/VLIB_lbp/VLIB_lbp_d.c",line 104,column 17,is_stmt,isa 
    1301 00000238           $C$RL14:   ; CALL OCCURS {memset} {0}        ; |104| 
    1302 00000238 05800028!            MVKL    .S1     act_kernel,A11
    1303                    
    1304 00000240 05800069!            MVKH    .S1     act_kernel,A11
    1305 00000244 0180a358  ||         ZERO    .L1     A3                ; |137| 
    1306                    
    1307                    $C$DW$142       .dwtag  DW_TAG_TI_branch
    1308                            .dwattr $C$DW$142, DW_AT_low_pc(0x00)
    1309                            .dwattr $C$DW$142, DW_AT_name("VLIB_cache_inval")
    1310                            .dwattr $C$DW$142, DW_AT_TI_call
    1311                    
    1312 00000248 10000013!            CALLP   .S2     VLIB_cache_inval,B3
    1313 0000024c 01ac0274  ||         STW     .D1T1   A3,*A11           ; |137| 
    1314                    
    1315                            .dwpsn  file ".\..\packages\ti\vlib\src\VLIB_lbp\..\common\VLIB_profile.h",line 140,column 5,i
    1316                    $C$RL15:   ; CALL OCCURS {VLIB_cache_inval} {0}  ; |140| 
    1317                    $C$DW$143       .dwtag  DW_TAG_TI_branch
    1318                            .dwattr $C$DW$143, DW_AT_low_pc(0x00)
    1319                            .dwattr $C$DW$143, DW_AT_name("getSP")
    1320                            .dwattr $C$DW$143, DW_AT_TI_call
TMS320C6x Assembler PC v7.4.2 Thu Mar 19 12:43:17 2015

Tools Copyright (c) 1996-2012 Texas Instruments Incorporated
package/lib/Regression/regress_d_c/./../packages/ti/vlib/src/VLIB_lbp/VLIB_lbp_d.se66 PAGE   25

    1321 00000250 10000012!            CALLP   .S2     getSP,B3
    1322                            .dwpsn  file ".\..\packages\ti\vlib\src\VLIB_lbp\..\common\VLIB_profile.h",line 143,column 5,i
    1323                    $C$RL16:   ; CALL OCCURS {getSP} {0}         ; |143| 
    1324                    $C$DW$144       .dwtag  DW_TAG_TI_branch
    1325                            .dwattr $C$DW$144, DW_AT_low_pc(0x00)
    1326                            .dwattr $C$DW$144, DW_AT_name("initStack")
    1327                            .dwattr $C$DW$144, DW_AT_TI_call
    1328 00000254 10000012!            CALLP   .S2     initStack,B3
    1329 00000258           $C$RL17:   ; CALL OCCURS {initStack} {0}     ; |143| 
    1330                            .dwpsn  file ".\..\packages\ti\vlib\src\VLIB_lbp\..\common\VLIB_profile.h",line 146,column 5,i
    1331 00000258 032803e2             MVC     .S2     TSCL,B6           ; |146| 
    1332 0000025c 02ac03e2             MVC     .S2     TSCH,B5           ; |146| 
    1333                            .dwpsn  file "./../packages/ti/vlib/src/VLIB_lbp/VLIB_lbp_d.c",line 108,column 17,is_stmt,isa 
    1334 00000260 023d42e4             LDW     .D2T1   *+SP(40),A4       ; |108| 
    1335 00000264 0530e2e6             LDW     .D2T2   *+B12(28),B10     ; |108| 
    1336 00000268 0530c2e4             LDW     .D2T1   *+B12(24),A10     ; |108| 
    1337 0000026c 0430a2e6             LDW     .D2T2   *+B12(20),B8      ; |108| 
    1338                    
    1339 00000270 0200002b!            MVKL    .S2     beg_count,B4
    1340 00000274 043082e4  ||         LDW     .D2T1   *+B12(16),A8      ; |108| 
    1341                    
    1342 00000278 0200006b!            MVKH    .S2     beg_count,B4
    1343 0000027c 03940fdb  ||         MV      .L2     B5,B7             ; |146| 
    1344 00000280     8ded  ||         LDW     .D2T1   *+SP(48),A6       ; |108| 
    1345                    
    1346                            .dwpsn  file ".\..\packages\ti\vlib\src\VLIB_lbp\..\common\VLIB_profile.h",line 146,column 5,i
    1347 00000282     1065             STDW    .D2T2   B7:B6,*B4         ; |146| 
    1348                            .dwpsn  file "./../packages/ti/vlib/src/VLIB_lbp/VLIB_lbp_d.c",line 108,column 17,is_stmt,isa 
    1349 00000284     fd4d             LDW     .D2T2   *+SP(44),B4       ; |108| 
    1350                    $C$DW$145       .dwtag  DW_TAG_TI_branch
    1351                            .dwattr $C$DW$145, DW_AT_low_pc(0x00)
    1352                            .dwattr $C$DW$145, DW_AT_name("VLIB_lbp")
    1353                            .dwattr $C$DW$145, DW_AT_TI_call
    1354                    
    1355 00000288 10000012!            CALLP   .S2     VLIB_lbp,B3
    1356 00000286     bded  ||         LDW     .D2T2   *+SP(52),B6       ; |108| 
    1357                    
    1358 0000028c           $C$RL18:   ; CALL OCCURS {VLIB_lbp} {0}      ; |108| 
    1359                            .dwpsn  file ".\..\packages\ti\vlib\src\VLIB_lbp\..\common\VLIB_profile.h",line 153,column 5,i
    1360                    ;----------------------------------------------------------------------
    1361                    ; 153 | VLIB_free(pMapTbl);                                                    
    1362                    ; 154 | VLIB_free(pInput);                                                     
    1363                    ;----------------------------------------------------------------------
    1364 0000028c 032803e2             MVC     .S2     TSCL,B6           ; |153| 
    1365 00000290 03ac03e2             MVC     .S2     TSCH,B7           ; |153| 
    1366 00000294 0200002a!            MVKL    .S2     overhead,B4
    1367 00000298 0280002a!            MVKL    .S2     cycles,B5
    1368 000002a0 0500002a!            MVKL    .S2     beg_count,B10
    1369                    
    1370 000002a4 01ac0265             LDW     .D1T1   *A11,A3           ; |156| 
    1371 000002a8 0500006a! ||         MVKH    .S2     beg_count,B10
    1372                    
    1373 000002ac 0200006b!            MVKH    .S2     overhead,B4
    1374 000002b0 042803e6  ||         LDDW    .D2T2   *B10,B9:B8        ; |156| 
    1375                    
TMS320C6x Assembler PC v7.4.2 Thu Mar 19 12:43:17 2015

Tools Copyright (c) 1996-2012 Texas Instruments Incorporated
package/lib/Regression/regress_d_c/./../packages/ti/vlib/src/VLIB_lbp/VLIB_lbp_d.se66 PAGE   26

    1376 000002b8     100d             LDDW    .D2T2   *B4,B17:B16       ; |156| 
    1377 000002b4 0280006b! ||         MVKH    .S2     cycles,B5
    1378                    
    1379 000002ba     0c6e             NOP             1
    1380                            .dwpsn  file ".\..\packages\ti\vlib\src\VLIB_lbp\..\common\VLIB_profile.h",line 156,column 5,i
    1381                    ;----------------------------------------------------------------------
    1382                    ; 158 | VLIB_profile_cycle_report(vlib_PROFILE_FORMULA_RANGE,                  
    1383                    ;----------------------------------------------------------------------
    1384 000002c0 07941fd8             MV      .L1X    B5,A15            ; |156| 
    1385 000002c4 033c6b64             LDDW    .D1T1   *+A15[A3],A7:A6   ; |156| 
    1386 000002c8 00000000             NOP             1
    1387 000002cc 0222057a             ADDU    .L2     B16,B8,B5:B4      ; |156| 
    1388                    
    1389 000002d0 0444a1e3             ADD     .S2     B5,B17,B8         ; |156| 
    1390 000002d4 0210c5fa  ||         SUBU    .L2     B6,B4,B5:B4       ; |156| 
    1391                    
    1392 000002d8 0425007a             ADD     .L2     B8,B9,B8          ; |156| 
    1393                    
    1394 000002dc 0210d579             ADDU    .L1X    A6,B4,A5:A4       ; |156| 
    1395 000002e0 0220e0fb  ||         SUB     .L2     B7,B8,B4          ; |156| 
    1396 000002e4     aae3  ||         EXT     .S2     B5,24,24,B5       ; |156| 
    1397                    
    1398 000002e6     82c1             ADD     .L2     B4,B5,B4          ; |156| 
    1399 000002e8 03000028! ||         MVKL    .S1     end_count,A6
    1400                    
    1401 000002f0     a3d0             ADD     .L1     A5,A7,A5          ; |156| 
    1402 000002ec 03000069! ||         MVKH    .S1     end_count,A6
    1403                    
    1404 000002f2     b250             ADD     .L1X    A5,B4,A5          ; |156| 
    1405 000002f4 03180346  ||         STDW    .D1T2   B7:B6,*A6         ; |153| 
    1406                    
    1407                    $C$DW$146       .dwtag  DW_TAG_TI_branch
    1408                            .dwattr $C$DW$146, DW_AT_low_pc(0x00)
    1409                            .dwattr $C$DW$146, DW_AT_name("setStackDepth")
    1410                            .dwattr $C$DW$146, DW_AT_TI_call
    1411                    
    1412 000002f8 10000013!            CALLP   .S2     setStackDepth,B3
    1413 00000300 023c6b44  ||         STDW    .D1T1   A5:A4,*+A15[A3]   ; |156| 
    1414                    
    1415                            .dwpsn  file ".\..\packages\ti\vlib\src\VLIB_lbp\..\common\VLIB_profile.h",line 159,column 5,i
    1416                    ;----------------------------------------------------------------------
    1417                    ; 159 | "N = imageWidth * imageHeight; M = imageHeight",                       
    1418                    ;----------------------------------------------------------------------
    1419 00000304           $C$RL19:   ; CALL OCCURS {setStackDepth} {0}  ; |159| 
    1420                            .dwpsn  file ".\..\packages\ti\vlib\src\VLIB_lbp\..\common\VLIB_profile.h",line 137,column 5,i
    1421 00000304 0184a358             MVK     .L1     1,A3              ; |137| 
    1422                    $C$DW$147       .dwtag  DW_TAG_TI_branch
    1423                            .dwattr $C$DW$147, DW_AT_low_pc(0x00)
    1424                            .dwattr $C$DW$147, DW_AT_name("VLIB_cache_inval")
    1425                            .dwattr $C$DW$147, DW_AT_TI_call
    1426                    
    1427 00000308 10000013!            CALLP   .S2     VLIB_cache_inval,B3
    1428 0000030c 01ac0274  ||         STW     .D1T1   A3,*A11           ; |137| 
    1429                    
    1430                            .dwpsn  file ".\..\packages\ti\vlib\src\VLIB_lbp\..\common\VLIB_profile.h",line 140,column 5,i
TMS320C6x Assembler PC v7.4.2 Thu Mar 19 12:43:17 2015

Tools Copyright (c) 1996-2012 Texas Instruments Incorporated
package/lib/Regression/regress_d_c/./../packages/ti/vlib/src/VLIB_lbp/VLIB_lbp_d.se66 PAGE   27

    1431                    $C$RL20:   ; CALL OCCURS {VLIB_cache_inval} {0}  ; |140| 
    1432                    $C$DW$148       .dwtag  DW_TAG_TI_branch
    1433                            .dwattr $C$DW$148, DW_AT_low_pc(0x00)
    1434                            .dwattr $C$DW$148, DW_AT_name("getSP")
    1435                            .dwattr $C$DW$148, DW_AT_TI_call
    1436 00000310 10000012!            CALLP   .S2     getSP,B3
    1437                            .dwpsn  file ".\..\packages\ti\vlib\src\VLIB_lbp\..\common\VLIB_profile.h",line 143,column 5,i
    1438                    $C$RL21:   ; CALL OCCURS {getSP} {0}         ; |143| 
    1439                    $C$DW$149       .dwtag  DW_TAG_TI_branch
    1440                            .dwattr $C$DW$149, DW_AT_low_pc(0x00)
    1441                            .dwattr $C$DW$149, DW_AT_name("initStack")
    1442                            .dwattr $C$DW$149, DW_AT_TI_call
    1443 00000314 10000012!            CALLP   .S2     initStack,B3
    1444 00000318           $C$RL22:   ; CALL OCCURS {initStack} {0}     ; |143| 
    1445                            .dwpsn  file ".\..\packages\ti\vlib\src\VLIB_lbp\..\common\VLIB_profile.h",line 146,column 5,i
    1446 00000318 022803e2             MVC     .S2     TSCL,B4           ; |146| 
    1447 0000031c 02ac03e2             MVC     .S2     TSCH,B5           ; |146| 
    1448 00000320 022803c6             STDW    .D2T2   B5:B4,*B10        ; |146| 
    1449                            .dwpsn  file "./../packages/ti/vlib/src/VLIB_lbp/VLIB_lbp_d.c",line 116,column 17,is_stmt,isa 
    1450 00000324 023d42e4             LDW     .D2T1   *+SP(40),A4       ; |116| 
    1451 00000328 0430c2e6             LDW     .D2T2   *+B12(24),B8      ; |116| 
    1452 0000032c 033dc2e4             LDW     .D2T1   *+SP(56),A6       ; |116| 
    1453 00000330 033082e6             LDW     .D2T2   *+B12(16),B6      ; |116| 
    1454 00000334 0430a2e4             LDW     .D2T1   *+B12(20),A8      ; |116| 
    1455 00000338 023d62e6             LDW     .D2T2   *+SP(44),B4       ; |116| 
    1456                    $C$DW$150       .dwtag  DW_TAG_TI_branch
    1457                            .dwattr $C$DW$150, DW_AT_low_pc(0x00)
    1458                            .dwattr $C$DW$150, DW_AT_name("VLIB_lbp_cn")
    1459                            .dwattr $C$DW$150, DW_AT_TI_call
    1460                    
    1461 0000033c 10000013!            CALLP   .S2     VLIB_lbp_cn,B3
    1462 00000340 0530e2e4  ||         LDW     .D2T1   *+B12(28),A10     ; |116| 
    1463                    
    1464 00000344           $C$RL23:   ; CALL OCCURS {VLIB_lbp_cn} {0}   ; |116| 
    1465 00000344           $C$DW$L$VLIB_lbp_d$19$E:
    1466                    ;** --------------------------------------------------------------------------*
    1467 00000344           $C$DW$L$VLIB_lbp_d$20$B:
    1468                    ;          EXCLUSIVE CPU CYCLES: 22
    1469                    ;** 153 -----------------------    v$2 = _itoll(TSCH, TSCL);  // [17]
    1470                    ;** 153 -----------------------    end_count = v$2;  // [17]
    1471                    ;** 156 -----------------------    C$6 = (act_kernel<<3)+C$7;  // [17]
    1472                    ;** 156 -----------------------    *C$6 = *C$6+(v$2-(beg_count+overhead));  // [17]
    1473                    ;** 159 -----------------------    setStackDepth();  // [17]
    1474                    ;** 123 -----------------------    U$99 = C$5;
    1475                    ;** 123 -----------------------    status_nat_vs_int = VLIB_compare_mem((void *)pOutHistogram, (void *
    1476                    ;** 126 -----------------------    v$1 = v$1;
    1477                    ;** 126 -----------------------    U$101 = (*U$12).staticOut;
    1478                    ;** 126 -----------------------    if ( U$101 ) goto g10;
    1479                    ;** 55  -----------------------    status_nat_vs_ref = 1;
    1480                    ;**     -----------------------    goto g11;
    1481                            .dwpsn  file ".\..\packages\ti\vlib\src\VLIB_lbp\..\common\VLIB_profile.h",line 153,column 5,i
    1482 00000344 032803e2             MVC     .S2     TSCL,B6           ; |153| 
    1483 00000348 022c03e2             MVC     .S2     TSCH,B4           ; |153| 
    1484                    
    1485 0000034c 0280002b!            MVKL    .S2     overhead,B5
TMS320C6x Assembler PC v7.4.2 Thu Mar 19 12:43:17 2015

Tools Copyright (c) 1996-2012 Texas Instruments Incorporated
package/lib/Regression/regress_d_c/./../packages/ti/vlib/src/VLIB_lbp/VLIB_lbp_d.se66 PAGE   28

    1486 00000350 01ac0264  ||         LDW     .D1T1   *A11,A3           ; |156| 
    1487                    
    1488 00000354 0280006b!            MVKH    .S2     overhead,B5
    1489 00000358 042803e6  ||         LDDW    .D2T2   *B10,B9:B8        ; |156| 
    1490                    
    1491                            .dwpsn  file ".\..\packages\ti\vlib\src\VLIB_lbp\..\common\VLIB_profile.h",line 156,column 5,i
    1492 0000035c 081403e6             LDDW    .D2T2   *B5,B17:B16       ; |156| 
    1493                            .dwpsn  file ".\..\packages\ti\vlib\src\VLIB_lbp\..\common\VLIB_profile.h",line 153,column 5,i
    1494 00000360     e247             MV      .L2     B4,B7             ; |153| 
    1495 00000362     0c6e             NOP             1
    1496                            .dwpsn  file ".\..\packages\ti\vlib\src\VLIB_lbp\..\common\VLIB_profile.h",line 156,column 5,i
    1497 00000364 023c7e40             ADDAD   .D1     A15,A3,A4         ; |156| 
    1498 00000368 03100364             LDDW    .D1T1   *A4,A7:A6         ; |156| 
    1499 0000036c 0222057a             ADDU    .L2     B16,B8,B5:B4      ; |156| 
    1500 00000370 0444a07a             ADD     .L2     B5,B17,B8         ; |156| 
    1501                    
    1502 00000374 042501e3             ADD     .S2     B8,B9,B8          ; |156| 
    1503 00000378 0210c5fa  ||         SUBU    .L2     B6,B4,B5:B4       ; |156| 
    1504                    
    1505 00000380 0fa0e0fb             SUB     .L2     B7,B8,B31         ; |156| 
    1506 00000384 0297184a  ||         EXT     .S2     B5,24,24,B5       ; |156| 
    1507                    
    1508 00000388 0410d579             ADDU    .L1X    A6,B4,A9:A8       ; |156| 
    1509 0000038c 0217e07b  ||         ADD     .L2     B31,B5,B4         ; |156| 
    1510 00000390 01800028! ||         MVKL    .S1     end_count,A3
    1511                    
    1512 00000394 029d2079             ADD     .L1     A9,A7,A5          ; |156| 
    1513 00000398 01800068! ||         MVKH    .S1     end_count,A3
    1514                    
    1515 0000039c 0490b079             ADD     .L1X    A5,B4,A9          ; |156| 
    1516 000003a0 030c0346  ||         STDW    .D1T2   B7:B6,*A3         ; |153| 
    1517                    
    1518                    $C$DW$151       .dwtag  DW_TAG_TI_branch
    1519                            .dwattr $C$DW$151, DW_AT_low_pc(0x00)
    1520                            .dwattr $C$DW$151, DW_AT_name("setStackDepth")
    1521                            .dwattr $C$DW$151, DW_AT_TI_call
    1522                    
    1523 000003a4 10000013!            CALLP   .S2     setStackDepth,B3
    1524 000003a8 04100344  ||         STDW    .D1T1   A9:A8,*A4         ; |156| 
    1525                    
    1526                            .dwpsn  file ".\..\packages\ti\vlib\src\VLIB_lbp\..\common\VLIB_profile.h",line 159,column 5,i
    1527                    ;----------------------------------------------------------------------
    1528                    ; 160 | "imageWidth * imageHeight");                                           
    1529                    ; 163 | VLIB_kernel_memory();                                                  
    1530                    ;----------------------------------------------------------------------
    1531 000003ac           $C$RL24:   ; CALL OCCURS {setStackDepth} {0}  ; |159| 
    1532 000003ac           $C$DW$L$VLIB_lbp_d$20$E:
    1533                    ;** --------------------------------------------------------------------------*
    1534 000003ac           $C$DW$L$VLIB_lbp_d$21$B:
    1535                    ;          EXCLUSIVE CPU CYCLES: 7
    1536                            .dwpsn  file "./../packages/ti/vlib/src/VLIB_lbp/VLIB_lbp_d.c",line 123,column 17,is_stmt,isa 
    1537 000003ac     adcd             LDW     .D2T1   *+SP(52),A4       ; |123| 
    1538                    $C$DW$152       .dwtag  DW_TAG_TI_branch
    1539                            .dwattr $C$DW$152, DW_AT_low_pc(0x00)
    1540                            .dwattr $C$DW$152, DW_AT_name("VLIB_compare_mem")
TMS320C6x Assembler PC v7.4.2 Thu Mar 19 12:43:17 2015

Tools Copyright (c) 1996-2012 Texas Instruments Incorporated
package/lib/Regression/regress_d_c/./../packages/ti/vlib/src/VLIB_lbp/VLIB_lbp_d.se66 PAGE   29

    1541                            .dwattr $C$DW$152, DW_AT_TI_call
    1542                    
    1543 000003b0 10000013!            CALLP   .S2     VLIB_compare_mem,B3
    1544 000003ae     ddcd  ||         LDW     .D2T2   *+SP(56),B4       ; |123| 
    1545 000003b4 03340fd8  ||         MV      .L1     A13,A6            ; |123| 
    1546                    
    1547 000003b8           $C$RL25:   ; CALL OCCURS {VLIB_compare_mem} {0}  ; |123| 
    1548 000003b8           $C$DW$L$VLIB_lbp_d$21$E:
    1549                    ;** --------------------------------------------------------------------------*
    1550 000003b8           $C$DW$L$VLIB_lbp_d$22$B:
    1551                    ;          EXCLUSIVE CPU CYCLES: 11
    1552                            .dwpsn  file "./../packages/ti/vlib/src/VLIB_lbp/VLIB_lbp_d.c",line 126,column 17,is_stmt,isa 
    1553 000003b8 003042e4             LDW     .D2T1   *+B12(8),A0       ; |126| 
    1554                            .dwpsn  file "./../packages/ti/vlib/src/VLIB_lbp/VLIB_lbp_d.c",line 123,column 17,is_stmt,isa 
    1555 000003c0     4646             MV      .L1     A4,A10            ; |123| 
    1556 000003c2     4c6e             NOP             3
    1557 000003c4 d0000610     [!A0]   B       .S1     $C$L6
    1558                            .dwpsn  file "./../packages/ti/vlib/src/VLIB_lbp/VLIB_lbp_d.c",line 127,column 21,is_stmt,isa 
    1559                    $C$DW$153       .dwtag  DW_TAG_TI_branch
    1560                            .dwattr $C$DW$153, DW_AT_low_pc(0x00)
    1561                            .dwattr $C$DW$153, DW_AT_name("VLIB_compare_mem")
    1562                            .dwattr $C$DW$153, DW_AT_TI_call
    1563 000003c8 c0000010!    [ A0]   CALL    .S1     VLIB_compare_mem  ; |127| 
    1564 000003cc c23dc2e6     [ A0]   LDW     .D2T2   *+SP(56),B4       ; |127| 
    1565                            .dwpsn  file "./../packages/ti/vlib/src/VLIB_lbp/VLIB_lbp_d.c",line 55,column 20,is_stmt,isa 0
    1566 000003d0 d204a35a     [!A0]   MVK     .L2     0x1,B4            ; |55| 
    1567 000003d4 d23d02f6     [!A0]   STW     .D2T2   B4,*+SP(32)       ; |55| 
    1568 000003d8     0c6e             NOP             1
    1569                               ; BRANCHCC OCCURS {$C$L6}  
    1570 000003e0           $C$DW$L$VLIB_lbp_d$22$E:
    1571                    ;** --------------------------------------------------------------------------*
    1572                            .dwpsn  file "./../packages/ti/vlib/src/VLIB_lbp/VLIB_lbp_d.c",line 126,column 17,is_stmt,isa 
    1573 000003e0           $C$DW$L$VLIB_lbp_d$23$B:
    1574                    ;          EXCLUSIVE CPU CYCLES: 1
    1575                    ;**     -----------------------g10:
    1576                    ;** 127 -----------------------    status_nat_vs_ref = VLIB_compare_mem((void *)U$101, (void *)pOutHis
    1577                    ;** 127 -----------------------    v$1 = prm;
    1578                    
    1579 000003e0     c686             MV      .L1     A13,A6            ; |127| 
    1580 000003e2     804e  ||         MV      .S1     A0,A4             ; |127| 
    1581 000003e4 01820162  ||         ADDKPC  .S2     $C$RL26,B3,0      ; |127| 
    1582                    
    1583                            .dwpsn  file "./../packages/ti/vlib/src/VLIB_lbp/VLIB_lbp_d.c",line 127,column 21,is_stmt,isa 
    1584 000003e8           $C$RL26:   ; CALL OCCURS {VLIB_compare_mem} {0}  ; |127| 
    1585 000003e8           $C$DW$L$VLIB_lbp_d$23$E:
    1586                    ;** --------------------------------------------------------------------------*
    1587 000003e8           $C$DW$L$VLIB_lbp_d$24$B:
    1588                    ;          EXCLUSIVE CPU CYCLES: 5
    1589 000003e8 05bce2e6             LDW     .D2T2   *+SP(28),B11      ; |127| 
    1590 000003ec     8d45             STW     .D2T1   A4,*+SP(32)       ; |127| 
    1591 000003ee     4c6e             NOP             3
    1592 000003f0           $C$DW$L$VLIB_lbp_d$24$E:
    1593                    ;** --------------------------------------------------------------------------*
    1594 000003f0           $C$L6:    
    1595 000003f0           $C$DW$L$VLIB_lbp_d$25$B:
TMS320C6x Assembler PC v7.4.2 Thu Mar 19 12:43:17 2015

Tools Copyright (c) 1996-2012 Texas Instruments Incorporated
package/lib/Regression/regress_d_c/./../packages/ti/vlib/src/VLIB_lbp/VLIB_lbp_d.se66 PAGE   30

    1596                    ;          EXCLUSIVE CPU CYCLES: 14
    1597                    ;**     -----------------------g11:
    1598                    ;** 132 -----------------------    est_test = 1;
    1599                    ;** 135 -----------------------    C$4 = U$11+v$1;
    1600                    ;** 135 -----------------------    sprintf(K$47, (const char *)"%s generated input | Opt results compa
    1601                    ;** 137 -----------------------    VLIB_formula_add_test((int)inp_size, (*U$12).imageHeight, 0, (statu
    1602                    ;** 138 -----------------------    goto g13;
    1603                            .dwpsn  file "./../packages/ti/vlib/src/VLIB_lbp/VLIB_lbp_d.c",line 135,column 17,is_stmt,isa 
    1604 000003f0 0235607a             ADD     .L2     B11,B13,B4        ; |135| 
    1605                    
    1606 000003f8 0290a2e6             LDW     .D2T2   *+B4(20),B5       ; |135| 
    1607 000003f4 02000029! ||         MVKL    .S1     $C$SL5+0,A4
    1608                    
    1609 00000400 01800028!            MVKL    .S1     testPatternString,A3
    1610                    
    1611 00000408     906d             LDW     .D2T2   *+B4(16),B6       ; |135| 
    1612 00000404 02000069! ||         MVKH    .S1     $C$SL5+0,A4
    1613                    
    1614 0000040c 01800068!            MVKH    .S1     testPatternString,A3
    1615 0000040a     ac45  ||         STW     .D2T1   A4,*+SP(4)        ; |135| 
    1616                    
    1617 00000410 02800029!            MVKL    .S1     est_test,A5
    1618 00000414     cc35  ||         STW     .D2T1   A3,*+SP(8)        ; |135| 
    1619                    
    1620 00000420 0230305a             ADD     .L2X    1,A12,B4          ; |135| 
    1621 00000418 02800069! ||         MVKH    .S1     est_test,A5
    1622 00000416     9cd5  ||         STW     .D2T2   B5,*+SP(16)       ; |135| 
    1623                    
    1624 00000424     25a6             MVK     .L1     1,A3              ; |132| 
    1625 00000428 02000028! ||         MVKL    .S1     desc,A4
    1626 00000426     bcc5  ||         STW     .D2T2   B4,*+SP(20)       ; |135| 
    1627                    
    1628                    $C$DW$154       .dwtag  DW_TAG_TI_branch
    1629                            .dwattr $C$DW$154, DW_AT_low_pc(0x00)
    1630                            .dwattr $C$DW$154, DW_AT_name("sprintf")
    1631                            .dwattr $C$DW$154, DW_AT_TI_call
    1632                    
    1633 0000042c 10000013!            CALLP   .S2     sprintf,B3
    1634 00000430     fc65  ||         STW     .D2T2   B6,*+SP(12)       ; |135| 
    1635 00000432     00b4  ||         STW     .D1T1   A3,*A5            ; |132| 
    1636 00000434 02000068! ||         MVKH    .S1     desc,A4
    1637                    
    1638 00000438           $C$RL27:   ; CALL OCCURS {sprintf} {0}       ; |135| 
    1639 00000438           $C$DW$L$VLIB_lbp_d$25$E:
    1640                    ;** --------------------------------------------------------------------------*
    1641 00000438           $C$DW$L$VLIB_lbp_d$26$B:
    1642                    ;          EXCLUSIVE CPU CYCLES: 12
    1643 00000438 023d02e6             LDW     .D2T2   *+SP(32),B4       ; |135| 
    1644                            .dwpsn  file "./../packages/ti/vlib/src/VLIB_lbp/VLIB_lbp_d.c",line 137,column 17,is_stmt,isa 
    1645 00000440 01a80a58             CMPEQ   .L1     A10,0,A3          ; |137| 
    1646 00000444 023d22e4             LDW     .D2T1   *+SP(36),A4       ; |137| 
    1647 00000448 04000028!            MVKL    .S1     desc,A8
    1648 0000044c 0400a35a             ZERO    .L2     B8                ; |137| 
    1649 00000450 02100a5a             CMPEQ   .L2     B4,0,B4           ; |137| 
    1650                    $C$DW$155       .dwtag  DW_TAG_TI_branch
TMS320C6x Assembler PC v7.4.2 Thu Mar 19 12:43:17 2015

Tools Copyright (c) 1996-2012 Texas Instruments Incorporated
package/lib/Regression/regress_d_c/./../packages/ti/vlib/src/VLIB_lbp/VLIB_lbp_d.se66 PAGE   31

    1651                            .dwattr $C$DW$155, DW_AT_low_pc(0x00)
    1652                            .dwattr $C$DW$155, DW_AT_name("VLIB_formula_add_test")
    1653                            .dwattr $C$DW$155, DW_AT_TI_call
    1654                    
    1655 00000454 10000013!            CALLP   .S2     VLIB_formula_add_test,B3
    1656 00000458 030c9ffb  ||         OR      .L2X    B4,A3,B6          ; |137| 
    1657 0000045c 0230a2e7  ||         LDW     .D2T2   *+B12(20),B4      ; |137| 
    1658 00000460 04000069! ||         MVKH    .S1     desc,A8
    1659 00000464     0726  ||         ZERO    .L1     A6                ; |137| 
    1660                    
    1661 00000466           $C$RL28:   ; CALL OCCURS {VLIB_formula_add_test} {0}  ; |137| 
    1662 00000466           $C$DW$L$VLIB_lbp_d$26$E:
    1663                    ;** --------------------------------------------------------------------------*
    1664 00000466           $C$DW$L$VLIB_lbp_d$27$B:
    1665                    ;          EXCLUSIVE CPU CYCLES: 6
    1666                            .dwpsn  file "./../packages/ti/vlib/src/VLIB_lbp/VLIB_lbp_d.c",line 138,column 13,is_stmt,isa 
    1667 00000466     070a             B       .S1     $C$L9             ; |138| 
    1668                            .dwpsn  file "./../packages/ti/vlib/src/VLIB_lbp/VLIB_lbp_d.c",line 150,column 9,is_stmt,isa 0
    1669                    $C$DW$156       .dwtag  DW_TAG_TI_branch
    1670                            .dwattr $C$DW$156, DW_AT_low_pc(0x00)
    1671                            .dwattr $C$DW$156, DW_AT_name("free")
    1672                            .dwattr $C$DW$156, DW_AT_TI_call
    1673 00000468 00000010!            CALL    .S1     free              ; |150| 
    1674 0000046c     cdcd             LDW     .D2T1   *+SP(56),A4       ; |150| 
    1675 0000046e     4c6e             NOP             3
    1676                            .dwpsn  file "./../packages/ti/vlib/src/VLIB_lbp/VLIB_lbp_d.c",line 138,column 13,is_stmt,isa 
    1677                               ; BRANCH OCCURS {$C$L9}           ; |138| 
    1678 00000470           $C$DW$L$VLIB_lbp_d$27$E:
    1679                    ;** --------------------------------------------------------------------------*
    1680 00000470           $C$L7:    
    1681                            .dwpsn  file "./../packages/ti/vlib/src/VLIB_lbp/VLIB_lbp_d.c",line 101,column 13,is_stmt,isa 
    1682 00000470           $C$DW$L$VLIB_lbp_d$28$B:
    1683                    ;          EXCLUSIVE CPU CYCLES: 4
    1684                    ;**     -----------------------g12:
    1685                    ;** 140 -----------------------    C$3 = U$11+v$1;
    1686                    ;** 140 -----------------------    sprintf(K$47, (const char *)"imageWidth=%d, imageHeight=%d,  out si
    1687                    ;** 142 -----------------------    VLIB_skip_test(K$47);
    1688                            .dwpsn  file "./../packages/ti/vlib/src/VLIB_lbp/VLIB_lbp_d.c",line 140,column 17,is_stmt,isa 
    1689 00000470     fc45             STW     .D2T2   B4,*+SP(12)       ; |140| 
    1690 00000472     bc65             STW     .D2T2   B6,*+SP(4)        ; |140| 
    1691 00000474     8cb5             STW     .D2T1   A3,*+SP(16)       ; |140| 
    1692                    
    1693 00000476     dc55             STW     .D2T2   B5,*+SP(8)        ; |140| 
    1694 00000478 01890163  ||         ADDKPC  .S2     $C$RL29,B3,0      ; |140| 
    1695 00000480 02000068! ||         MVKH    .S1     desc,A4
    1696                    
    1697 00000484           $C$RL29:   ; CALL OCCURS {sprintf} {0}       ; |140| 
    1698 00000484           $C$DW$L$VLIB_lbp_d$28$E:
    1699                    ;** --------------------------------------------------------------------------*
    1700 00000484           $C$DW$L$VLIB_lbp_d$29$B:
    1701                    ;          EXCLUSIVE CPU CYCLES: 7
    1702 00000484 02000028!            MVKL    .S1     desc,A4
    1703                    $C$DW$157       .dwtag  DW_TAG_TI_branch
    1704                            .dwattr $C$DW$157, DW_AT_low_pc(0x00)
    1705                            .dwattr $C$DW$157, DW_AT_name("VLIB_skip_test")
TMS320C6x Assembler PC v7.4.2 Thu Mar 19 12:43:17 2015

Tools Copyright (c) 1996-2012 Texas Instruments Incorporated
package/lib/Regression/regress_d_c/./../packages/ti/vlib/src/VLIB_lbp/VLIB_lbp_d.se66 PAGE   32

    1706                            .dwattr $C$DW$157, DW_AT_TI_call
    1707                    
    1708 00000488 10000013!            CALLP   .S2     VLIB_skip_test,B3
    1709 0000048c 02000068! ||         MVKH    .S1     desc,A4
    1710                    
    1711                            .dwpsn  file "./../packages/ti/vlib/src/VLIB_lbp/VLIB_lbp_d.c",line 142,column 17,is_stmt,isa 
    1712 00000490           $C$RL30:   ; CALL OCCURS {VLIB_skip_test} {0}  ; |142| 
    1713 00000490           $C$DW$L$VLIB_lbp_d$29$E:
    1714                    ;** --------------------------------------------------------------------------*
    1715 00000490           $C$L8:    
    1716 00000490           $C$DW$L$VLIB_lbp_d$30$B:
    1717                    ;          EXCLUSIVE CPU CYCLES: 5
    1718                            .dwpsn  file "./../packages/ti/vlib/src/VLIB_lbp/VLIB_lbp_d.c",line 150,column 9,is_stmt,isa 0
    1719                    $C$DW$158       .dwtag  DW_TAG_TI_branch
    1720                            .dwattr $C$DW$158, DW_AT_low_pc(0x00)
    1721                            .dwattr $C$DW$158, DW_AT_name("free")
    1722                            .dwattr $C$DW$158, DW_AT_TI_call
    1723 00000490 00000010!            CALL    .S1     free              ; |150| 
    1724 00000494     cdcd             LDW     .D2T1   *+SP(56),A4       ; |150| 
    1725 00000496     4c6e             NOP             3
    1726 00000498           $C$DW$L$VLIB_lbp_d$30$E:
    1727                    ;** --------------------------------------------------------------------------*
    1728 00000498           $C$L9:    
    1729                            .dwpsn  file "./../packages/ti/vlib/src/VLIB_lbp/VLIB_lbp_d.c",line 148,column 13,is_stmt,isa 
    1730 00000498           $C$DW$L$VLIB_lbp_d$31$B:
    1731                    ;          EXCLUSIVE CPU CYCLES: 1
    1732                    ;**     -----------------------g13:
    1733                    ;** 150 -----------------------    free((void *)pOutHistogram_cn);
    1734                    ;** 151 -----------------------    VLIB_free((void *)pOutHistogram);
    1735                    ;** 152 -----------------------    VLIB_free((void *)pScratch);
    1736                    ;** 153 -----------------------    VLIB_free((void *)pMapTbl);
    1737                    ;** 154 -----------------------    VLIB_free((void *)pInput);
    1738                    ;** 51  -----------------------    U$11 += 32;
    1739                    ;** 51  -----------------------    U$12 += 32;
    1740                    ;** 51  -----------------------    if ( test_cases > (++tpi) ) goto g3;
    1741                            .dwpsn  file "./../packages/ti/vlib/src/VLIB_lbp/VLIB_lbp_d.c",line 150,column 9,is_stmt,isa 0
    1742 00000498 01880162             ADDKPC  .S2     $C$RL31,B3,0      ; |150| 
    1743                    $C$RL31:   ; CALL OCCURS {free} {0}          ; |150| 
    1744                    $C$DW$L$VLIB_lbp_d$31$E:
    1745                    ;** --------------------------------------------------------------------------*
    1746                    $C$DW$L$VLIB_lbp_d$32$B:
    1747                    ;          EXCLUSIVE CPU CYCLES: 24
    1748                    $C$DW$159       .dwtag  DW_TAG_TI_branch
    1749                            .dwattr $C$DW$159, DW_AT_low_pc(0x00)
    1750                            .dwattr $C$DW$159, DW_AT_name("VLIB_free")
    1751                            .dwattr $C$DW$159, DW_AT_TI_call
    1752                    
    1753 000004a0 10000013!            CALLP   .S2     VLIB_free,B3
    1754 000004a4 023da2e4  ||         LDW     .D2T1   *+SP(52),A4       ; |151| 
    1755                    
    1756                            .dwpsn  file "./../packages/ti/vlib/src/VLIB_lbp/VLIB_lbp_d.c",line 151,column 9,is_stmt,isa 0
    1757                    $C$RL32:   ; CALL OCCURS {VLIB_free} {0}     ; |151| 
    1758                    $C$DW$160       .dwtag  DW_TAG_TI_branch
    1759                            .dwattr $C$DW$160, DW_AT_low_pc(0x00)
    1760                            .dwattr $C$DW$160, DW_AT_name("VLIB_free")
TMS320C6x Assembler PC v7.4.2 Thu Mar 19 12:43:17 2015

Tools Copyright (c) 1996-2012 Texas Instruments Incorporated
package/lib/Regression/regress_d_c/./../packages/ti/vlib/src/VLIB_lbp/VLIB_lbp_d.se66 PAGE   33

    1761                            .dwattr $C$DW$160, DW_AT_TI_call
    1762                    
    1763 000004a8 10000013!            CALLP   .S2     VLIB_free,B3
    1764 000004ac 023d82e4  ||         LDW     .D2T1   *+SP(48),A4       ; |152| 
    1765                    
    1766                            .dwpsn  file "./../packages/ti/vlib/src/VLIB_lbp/VLIB_lbp_d.c",line 152,column 9,is_stmt,isa 0
    1767                    $C$RL33:   ; CALL OCCURS {VLIB_free} {0}     ; |152| 
    1768                    $C$DW$161       .dwtag  DW_TAG_TI_branch
    1769                            .dwattr $C$DW$161, DW_AT_low_pc(0x00)
    1770                            .dwattr $C$DW$161, DW_AT_name("VLIB_free")
    1771                            .dwattr $C$DW$161, DW_AT_TI_call
    1772                    
    1773 000004b0 10000013!            CALLP   .S2     VLIB_free,B3
    1774 000004b4 023d62e4  ||         LDW     .D2T1   *+SP(44),A4       ; |153| 
    1775                    
    1776                            .dwpsn  file "./../packages/ti/vlib/src/VLIB_lbp/VLIB_lbp_d.c",line 153,column 9,is_stmt,isa 0
    1777                    $C$RL34:   ; CALL OCCURS {VLIB_free} {0}     ; |153| 
    1778                    $C$DW$162       .dwtag  DW_TAG_TI_branch
    1779                            .dwattr $C$DW$162, DW_AT_low_pc(0x00)
    1780                            .dwattr $C$DW$162, DW_AT_name("VLIB_free")
    1781                            .dwattr $C$DW$162, DW_AT_TI_call
    1782                    
    1783 000004b8 10000013!            CALLP   .S2     VLIB_free,B3
    1784 000004bc 023d42e4  ||         LDW     .D2T1   *+SP(40),A4       ; |154| 
    1785                    
    1786                            .dwpsn  file "./../packages/ti/vlib/src/VLIB_lbp/VLIB_lbp_d.c",line 154,column 9,is_stmt,isa 0
    1787 000004c0           $C$RL35:   ; CALL OCCURS {VLIB_free} {0}     ; |154| 
    1788 000004c0           $C$DW$L$VLIB_lbp_d$32$E:
    1789                    ;** --------------------------------------------------------------------------*
    1790 000004c0           $C$DW$L$VLIB_lbp_d$33$B:
    1791                    ;          EXCLUSIVE CPU CYCLES: 14
    1792 000004c0 01800028!            MVKL    .S1     test_cases,A3
    1793 000004c4 01800068!            MVKH    .S1     test_cases,A3
    1794                            .dwpsn  file "./../packages/ti/vlib/src/VLIB_lbp/VLIB_lbp_d.c",line 51,column 19,is_stmt,isa 0
    1795 000004c8 018c0264             LDW     .D1T1   *A3,A3            ; |51| 
    1796 000004cc 06001052             ADDK    .S2     32,B12            ; |51| 
    1797 000004d0 07382058             ADD     .L1     1,A14,A14         ; |51| 
    1798 000004d4 06801052             ADDK    .S2     32,B13            ; |51| 
    1799 000004d8 00000000             NOP             1
    1800 000004dc 003868f8             CMPGT   .L1     A3,A14,A0         ; |51| 
    1801                    
    1802 000004e0 cfff7111     [ A0]   B       .S1     $C$L1             ; |51| 
    1803 000004e4 c23082e6  || [ A0]   LDW     .D2T2   *+B12(16),B4      ; |58| 
    1804                    
    1805                            .dwpsn  file "./../packages/ti/vlib/src/VLIB_lbp/VLIB_lbp_d.c",line 58,column 21,is_stmt,isa 0
    1806 000004e8 c2b0a2e6     [ A0]   LDW     .D2T2   *+B12(20),B5      ; |58| 
    1807                            .dwpsn  file "./../packages/ti/vlib/src/VLIB_lbp/VLIB_lbp_d.c",line 60,column 21,is_stmt,isa 0
    1808 000004ec c530c2e6     [ A0]   LDW     .D2T2   *+B12(24),B10     ; |60| 
    1809 000004f0 00004000             NOP             3
    1810                            .dwpsn  file "./../packages/ti/vlib/src/VLIB_lbp/VLIB_lbp_d.c",line 51,column 19,is_stmt,isa 0
    1811                               ; BRANCHCC OCCURS {$C$L1}         ; |51| 
    1812 000004f4           $C$DW$L$VLIB_lbp_d$33$E:
    1813                    ;** --------------------------------------------------------------------------*
    1814 000004f4           $C$L10:    
    1815                    ;          EXCLUSIVE CPU CYCLES: 8
TMS320C6x Assembler PC v7.4.2 Thu Mar 19 12:43:17 2015

Tools Copyright (c) 1996-2012 Texas Instruments Incorporated
package/lib/Regression/regress_d_c/./../packages/ti/vlib/src/VLIB_lbp/VLIB_lbp_d.se66 PAGE   34

    1816                    ;**     -----------------------g14:
    1817                    ;** 158 -----------------------    VLIB_profile_cycle_report(2, "N = imageWidth * imageHeight; M = ima
    1818                    ;** 158 -----------------------    printf((const char *)"---------------------------------------------
    1819                    ;** 165 -----------------------    VLIB_stack_memory();  // [20]
    1820                    ;**     -----------------------    return;
    1821 000004f4 0200002a!            MVKL    .S2     $C$SL8+0,B4
    1822                    
    1823 000004f8 03000029!            MVKL    .S1     $C$SL7+0,A6
    1824 000004fc 0200006a! ||         MVKH    .S2     $C$SL8+0,B4
    1825                    
    1826                    $C$DW$163       .dwtag  DW_TAG_TI_branch
    1827                            .dwattr $C$DW$163, DW_AT_low_pc(0x00)
    1828                            .dwattr $C$DW$163, DW_AT_name("VLIB_profile_cycle_report")
    1829                            .dwattr $C$DW$163, DW_AT_TI_call
    1830                    
    1831 00000500 10000013!            CALLP   .S2     VLIB_profile_cycle_report,B3
    1832 00000504 03000069! ||         MVKH    .S1     $C$SL7+0,A6
    1833 00000508 0208a358  ||         MVK     .L1     0x2,A4            ; |158| 
    1834                    
    1835                            .dwpsn  file "./../packages/ti/vlib/src/VLIB_lbp/VLIB_lbp_d.c",line 158,column 5,is_stmt,isa 0
    1836 0000050c           $C$RL36:   ; CALL OCCURS {VLIB_profile_cycle_report} {0}  ; |158| 
    1837                    ;** --------------------------------------------------------------------------*
    1838                    ;          EXCLUSIVE CPU CYCLES: 14
    1839 0000050c 0200002a!            MVKL    .S2     $C$SL9+0,B4
    1840 00000510 0200006a!            MVKH    .S2     $C$SL9+0,B4
    1841                    $C$DW$164       .dwtag  DW_TAG_TI_branch
    1842                            .dwattr $C$DW$164, DW_AT_low_pc(0x00)
    1843                            .dwattr $C$DW$164, DW_AT_name("printf")
    1844                            .dwattr $C$DW$164, DW_AT_TI_call
    1845                    
    1846 00000514 10000013!            CALLP   .S2     printf,B3
    1847 00000518 023c22f6  ||         STW     .D2T2   B4,*+SP(4)        ; |158| 
    1848                    
    1849                            .dwpsn  file ".\..\packages\ti\vlib\src\VLIB_lbp\../common/VLIB_memory.h",line 158,column 5,is
    1850                    $C$RL37:   ; CALL OCCURS {printf} {0}        ; |158| 
    1851                    $C$DW$165       .dwtag  DW_TAG_TI_branch
    1852                            .dwattr $C$DW$165, DW_AT_low_pc(0x00)
    1853                            .dwattr $C$DW$165, DW_AT_name("VLIB_stack_memory")
    1854                            .dwattr $C$DW$165, DW_AT_TI_call
    1855 0000051c 10000012!            CALLP   .S2     VLIB_stack_memory,B3
    1856                            .dwpsn  file ".\..\packages\ti\vlib\src\VLIB_lbp\../common/VLIB_memory.h",line 165,column 5,is
    1857 00000520           $C$RL38:   ; CALL OCCURS {VLIB_stack_memory} {0}  ; |165| 
    1858                    ;** --------------------------------------------------------------------------*
    1859                    ;          EXCLUSIVE CPU CYCLES: 13
    1860                            .dwpsn  file "./../packages/ti/vlib/src/VLIB_lbp/VLIB_lbp_d.c",line 164,column 1,is_stmt,isa 0
    1861 00000520 01be12e6             LDW     .D2T2   *++SP(64),B3      ; |164| 
    1862                            .dwcfi  cfa_offset, 48
    1863                            .dwcfi  restore_reg, 19
    1864 00000524     c677             LDDW    .D2T1   *++SP,A13:A12
    1865                            .dwcfi  cfa_offset, 40
    1866                            .dwcfi  restore_reg, 13
    1867                            .dwcfi  restore_reg, 12
    1868 00000526     c777             LDDW    .D2T1   *++SP,A15:A14
    1869                            .dwcfi  cfa_offset, 32
    1870                            .dwcfi  restore_reg, 15
TMS320C6x Assembler PC v7.4.2 Thu Mar 19 12:43:17 2015

Tools Copyright (c) 1996-2012 Texas Instruments Incorporated
package/lib/Regression/regress_d_c/./../packages/ti/vlib/src/VLIB_lbp/VLIB_lbp_d.se66 PAGE   35

    1871                            .dwcfi  restore_reg, 14
    1872 00000528     d577             LDDW    .D2T2   *++SP,B11:B10
    1873                            .dwcfi  cfa_offset, 24
    1874                            .dwcfi  restore_reg, 27
    1875                            .dwcfi  restore_reg, 26
    1876 0000052a     d677             LDDW    .D2T2   *++SP,B13:B12
    1877                            .dwcfi  cfa_offset, 16
    1878                            .dwcfi  restore_reg, 29
    1879                            .dwcfi  restore_reg, 28
    1880 0000052c     6577             LDW     .D2T1   *++SP(8),A10
    1881                            .dwcfi  cfa_offset, 8
    1882                            .dwcfi  restore_reg, 10
    1883 0000052e     65f7             LDW     .D2T1   *++SP(8),A11      ; |164| 
    1884                            .dwcfi  cfa_offset, 0
    1885                            .dwcfi  restore_reg, 11
    1886                            .dwcfi  cfa_offset, 0
    1887                    $C$DW$166       .dwtag  DW_TAG_TI_branch
    1888                            .dwattr $C$DW$166, DW_AT_low_pc(0x00)
    1889                            .dwattr $C$DW$166, DW_AT_TI_return
    1890 00000530 008ca362             RETNOP  .S2     B3,5
    1891                               ; BRANCH OCCURS {B3}  
    1892                    
    1893                    $C$DW$167       .dwtag  DW_TAG_TI_loop
    1894                            .dwattr $C$DW$167, DW_AT_name("c:\nightlybuilds\vlib\ti\vlib\vlib\examples\package/lib/Regress
    1895                            .dwattr $C$DW$167, DW_AT_TI_begin_file("./../packages/ti/vlib/src/VLIB_lbp/VLIB_lbp_d.c")
    1896                            .dwattr $C$DW$167, DW_AT_TI_begin_line(0x33)
    1897                            .dwattr $C$DW$167, DW_AT_TI_end_line(0x9b)
    1898                    $C$DW$168       .dwtag  DW_TAG_TI_loop_range
    1899                            .dwattr $C$DW$168, DW_AT_low_pc($C$DW$L$VLIB_lbp_d$4$B)
    1900                            .dwattr $C$DW$168, DW_AT_high_pc($C$DW$L$VLIB_lbp_d$4$E)
    1901                    $C$DW$169       .dwtag  DW_TAG_TI_loop_range
    1902                            .dwattr $C$DW$169, DW_AT_low_pc($C$DW$L$VLIB_lbp_d$28$B)
    1903                            .dwattr $C$DW$169, DW_AT_high_pc($C$DW$L$VLIB_lbp_d$28$E)
    1904                    $C$DW$170       .dwtag  DW_TAG_TI_loop_range
    1905                            .dwattr $C$DW$170, DW_AT_low_pc($C$DW$L$VLIB_lbp_d$7$B)
    1906                            .dwattr $C$DW$170, DW_AT_high_pc($C$DW$L$VLIB_lbp_d$7$E)
    1907                    $C$DW$171       .dwtag  DW_TAG_TI_loop_range
    1908                            .dwattr $C$DW$171, DW_AT_low_pc($C$DW$L$VLIB_lbp_d$8$B)
    1909                            .dwattr $C$DW$171, DW_AT_high_pc($C$DW$L$VLIB_lbp_d$8$E)
    1910                    $C$DW$172       .dwtag  DW_TAG_TI_loop_range
    1911                            .dwattr $C$DW$172, DW_AT_low_pc($C$DW$L$VLIB_lbp_d$9$B)
    1912                            .dwattr $C$DW$172, DW_AT_high_pc($C$DW$L$VLIB_lbp_d$9$E)
    1913                    $C$DW$173       .dwtag  DW_TAG_TI_loop_range
    1914                            .dwattr $C$DW$173, DW_AT_low_pc($C$DW$L$VLIB_lbp_d$29$B)
    1915                            .dwattr $C$DW$173, DW_AT_high_pc($C$DW$L$VLIB_lbp_d$29$E)
    1916                    $C$DW$174       .dwtag  DW_TAG_TI_loop_range
    1917                            .dwattr $C$DW$174, DW_AT_low_pc($C$DW$L$VLIB_lbp_d$23$B)
    1918                            .dwattr $C$DW$174, DW_AT_high_pc($C$DW$L$VLIB_lbp_d$23$E)
    1919                    $C$DW$175       .dwtag  DW_TAG_TI_loop_range
    1920                            .dwattr $C$DW$175, DW_AT_low_pc($C$DW$L$VLIB_lbp_d$5$B)
    1921                            .dwattr $C$DW$175, DW_AT_high_pc($C$DW$L$VLIB_lbp_d$5$E)
    1922                    $C$DW$176       .dwtag  DW_TAG_TI_loop_range
    1923                            .dwattr $C$DW$176, DW_AT_low_pc($C$DW$L$VLIB_lbp_d$6$B)
    1924                            .dwattr $C$DW$176, DW_AT_high_pc($C$DW$L$VLIB_lbp_d$6$E)
    1925                    $C$DW$177       .dwtag  DW_TAG_TI_loop_range
TMS320C6x Assembler PC v7.4.2 Thu Mar 19 12:43:17 2015

Tools Copyright (c) 1996-2012 Texas Instruments Incorporated
package/lib/Regression/regress_d_c/./../packages/ti/vlib/src/VLIB_lbp/VLIB_lbp_d.se66 PAGE   36

    1926                            .dwattr $C$DW$177, DW_AT_low_pc($C$DW$L$VLIB_lbp_d$10$B)
    1927                            .dwattr $C$DW$177, DW_AT_high_pc($C$DW$L$VLIB_lbp_d$10$E)
    1928                    $C$DW$178       .dwtag  DW_TAG_TI_loop_range
    1929                            .dwattr $C$DW$178, DW_AT_low_pc($C$DW$L$VLIB_lbp_d$11$B)
    1930                            .dwattr $C$DW$178, DW_AT_high_pc($C$DW$L$VLIB_lbp_d$11$E)
    1931                    $C$DW$179       .dwtag  DW_TAG_TI_loop_range
    1932                            .dwattr $C$DW$179, DW_AT_low_pc($C$DW$L$VLIB_lbp_d$12$B)
    1933                            .dwattr $C$DW$179, DW_AT_high_pc($C$DW$L$VLIB_lbp_d$12$E)
    1934                    $C$DW$180       .dwtag  DW_TAG_TI_loop_range
    1935                            .dwattr $C$DW$180, DW_AT_low_pc($C$DW$L$VLIB_lbp_d$16$B)
    1936                            .dwattr $C$DW$180, DW_AT_high_pc($C$DW$L$VLIB_lbp_d$16$E)
    1937                    $C$DW$181       .dwtag  DW_TAG_TI_loop_range
    1938                            .dwattr $C$DW$181, DW_AT_low_pc($C$DW$L$VLIB_lbp_d$17$B)
    1939                            .dwattr $C$DW$181, DW_AT_high_pc($C$DW$L$VLIB_lbp_d$17$E)
    1940                    $C$DW$182       .dwtag  DW_TAG_TI_loop_range
    1941                            .dwattr $C$DW$182, DW_AT_low_pc($C$DW$L$VLIB_lbp_d$18$B)
    1942                            .dwattr $C$DW$182, DW_AT_high_pc($C$DW$L$VLIB_lbp_d$18$E)
    1943                    $C$DW$183       .dwtag  DW_TAG_TI_loop_range
    1944                            .dwattr $C$DW$183, DW_AT_low_pc($C$DW$L$VLIB_lbp_d$19$B)
    1945                            .dwattr $C$DW$183, DW_AT_high_pc($C$DW$L$VLIB_lbp_d$19$E)
    1946                    $C$DW$184       .dwtag  DW_TAG_TI_loop_range
    1947                            .dwattr $C$DW$184, DW_AT_low_pc($C$DW$L$VLIB_lbp_d$20$B)
    1948                            .dwattr $C$DW$184, DW_AT_high_pc($C$DW$L$VLIB_lbp_d$20$E)
    1949                    $C$DW$185       .dwtag  DW_TAG_TI_loop_range
    1950                            .dwattr $C$DW$185, DW_AT_low_pc($C$DW$L$VLIB_lbp_d$21$B)
    1951                            .dwattr $C$DW$185, DW_AT_high_pc($C$DW$L$VLIB_lbp_d$21$E)
    1952                    $C$DW$186       .dwtag  DW_TAG_TI_loop_range
    1953                            .dwattr $C$DW$186, DW_AT_low_pc($C$DW$L$VLIB_lbp_d$22$B)
    1954                            .dwattr $C$DW$186, DW_AT_high_pc($C$DW$L$VLIB_lbp_d$22$E)
    1955                    $C$DW$187       .dwtag  DW_TAG_TI_loop_range
    1956                            .dwattr $C$DW$187, DW_AT_low_pc($C$DW$L$VLIB_lbp_d$24$B)
    1957                            .dwattr $C$DW$187, DW_AT_high_pc($C$DW$L$VLIB_lbp_d$24$E)
    1958                    $C$DW$188       .dwtag  DW_TAG_TI_loop_range
    1959                            .dwattr $C$DW$188, DW_AT_low_pc($C$DW$L$VLIB_lbp_d$25$B)
    1960                            .dwattr $C$DW$188, DW_AT_high_pc($C$DW$L$VLIB_lbp_d$25$E)
    1961                    $C$DW$189       .dwtag  DW_TAG_TI_loop_range
    1962                            .dwattr $C$DW$189, DW_AT_low_pc($C$DW$L$VLIB_lbp_d$26$B)
    1963                            .dwattr $C$DW$189, DW_AT_high_pc($C$DW$L$VLIB_lbp_d$26$E)
    1964                    $C$DW$190       .dwtag  DW_TAG_TI_loop_range
    1965                            .dwattr $C$DW$190, DW_AT_low_pc($C$DW$L$VLIB_lbp_d$27$B)
    1966                            .dwattr $C$DW$190, DW_AT_high_pc($C$DW$L$VLIB_lbp_d$27$E)
    1967                    $C$DW$191       .dwtag  DW_TAG_TI_loop_range
    1968                            .dwattr $C$DW$191, DW_AT_low_pc($C$DW$L$VLIB_lbp_d$30$B)
    1969                            .dwattr $C$DW$191, DW_AT_high_pc($C$DW$L$VLIB_lbp_d$30$E)
    1970                    $C$DW$192       .dwtag  DW_TAG_TI_loop_range
    1971                            .dwattr $C$DW$192, DW_AT_low_pc($C$DW$L$VLIB_lbp_d$31$B)
    1972                            .dwattr $C$DW$192, DW_AT_high_pc($C$DW$L$VLIB_lbp_d$31$E)
    1973                    $C$DW$193       .dwtag  DW_TAG_TI_loop_range
    1974                            .dwattr $C$DW$193, DW_AT_low_pc($C$DW$L$VLIB_lbp_d$32$B)
    1975                            .dwattr $C$DW$193, DW_AT_high_pc($C$DW$L$VLIB_lbp_d$32$E)
    1976                    $C$DW$194       .dwtag  DW_TAG_TI_loop_range
    1977                            .dwattr $C$DW$194, DW_AT_low_pc($C$DW$L$VLIB_lbp_d$33$B)
    1978                            .dwattr $C$DW$194, DW_AT_high_pc($C$DW$L$VLIB_lbp_d$33$E)
    1979                    
    1980                    $C$DW$195       .dwtag  DW_TAG_TI_loop
TMS320C6x Assembler PC v7.4.2 Thu Mar 19 12:43:17 2015

Tools Copyright (c) 1996-2012 Texas Instruments Incorporated
package/lib/Regression/regress_d_c/./../packages/ti/vlib/src/VLIB_lbp/VLIB_lbp_d.se66 PAGE   37

    1981                            .dwattr $C$DW$195, DW_AT_name("c:\nightlybuilds\vlib\ti\vlib\vlib\examples\package/lib/Regress
    1982                            .dwattr $C$DW$195, DW_AT_TI_begin_file("./../packages/ti/vlib/src/VLIB_lbp/VLIB_lbp_d.c")
    1983                            .dwattr $C$DW$195, DW_AT_TI_begin_line(0x5b)
    1984                            .dwattr $C$DW$195, DW_AT_TI_end_line(0x5f)
    1985                    $C$DW$196       .dwtag  DW_TAG_TI_loop_range
    1986                            .dwattr $C$DW$196, DW_AT_low_pc($C$DW$L$VLIB_lbp_d$14$B)
    1987                            .dwattr $C$DW$196, DW_AT_high_pc($C$DW$L$VLIB_lbp_d$14$E)
    1988                            .dwendtag $C$DW$195
    1989                    
    1990                            .dwendtag $C$DW$167
    1991                    
    1992                            .dwattr $C$DW$91, DW_AT_TI_end_file("./../packages/ti/vlib/src/VLIB_lbp/VLIB_lbp_d.c")
    1993                            .dwattr $C$DW$91, DW_AT_TI_end_line(0xa4)
    1994                            .dwattr $C$DW$91, DW_AT_TI_end_column(0x01)
    1995                            .dwendentry
    1996                            .dwendtag $C$DW$91
    1997                    
    1998                    ;; Inlined function references:
    1999                    ;; [ 16] VLIB_profile_start
    2000                    ;; [ 17] VLIB_profile_stop
    2001                    ;; [ 20] VLIB_kernel_memory
    2002                    ;******************************************************************************
    2003                    ;* STRINGS                                                                    *
    2004                    ;******************************************************************************
    2005 00000000                   .sect   ".const:.string"
    2006 00000000 00000056  $C$SL1: .string "VLIB_lbp",0
         00000001 0000004C 
         00000002 00000049 
         00000003 00000042 
         00000004 0000005F 
         00000005 0000006C 
         00000006 00000062 
         00000007 00000070 
         00000008 00000000 
    2007 00000009 00000054  $C$SL2: .string "This release requires numNeighbors = 8",0
         0000000a 00000068 
         0000000b 00000069 
         0000000c 00000073 
         0000000d 00000020 
         0000000e 00000072 
         0000000f 00000065 
         00000010 0000006C 
         00000011 00000065 
         00000012 00000061 
         00000013 00000073 
         00000014 00000065 
         00000015 00000020 
         00000016 00000072 
         00000017 00000065 
         00000018 00000071 
         00000019 00000075 
         0000001a 00000069 
         0000001b 00000072 
         0000001c 00000065 
         0000001d 00000073 
TMS320C6x Assembler PC v7.4.2 Thu Mar 19 12:43:17 2015

Tools Copyright (c) 1996-2012 Texas Instruments Incorporated
package/lib/Regression/regress_d_c/./../packages/ti/vlib/src/VLIB_lbp/VLIB_lbp_d.se66 PAGE   38

         0000001e 00000020 
         0000001f 0000006E 
         00000020 00000075 
         00000021 0000006D 
         00000022 0000004E 
         00000023 00000065 
         00000024 00000069 
         00000025 00000067 
         00000026 00000068 
         00000027 00000062 
         00000028 0000006F 
         00000029 00000072 
         0000002a 00000073 
         0000002b 00000020 
         0000002c 0000003D 
         0000002d 00000020 
         0000002e 00000038 
         0000002f 00000000 
    2008 00000030 00000054  $C$SL3: .string "This release requires radius = 1",0
         00000031 00000068 
         00000032 00000069 
         00000033 00000073 
         00000034 00000020 
         00000035 00000072 
         00000036 00000065 
         00000037 0000006C 
         00000038 00000065 
         00000039 00000061 
         0000003a 00000073 
         0000003b 00000065 
         0000003c 00000020 
         0000003d 00000072 
         0000003e 00000065 
         0000003f 00000071 
         00000040 00000075 
         00000041 00000069 
         00000042 00000072 
         00000043 00000065 
         00000044 00000073 
         00000045 00000020 
         00000046 00000072 
         00000047 00000061 
         00000048 00000064 
         00000049 00000069 
         0000004a 00000075 
         0000004b 00000073 
         0000004c 00000020 
         0000004d 0000003D 
         0000004e 00000020 
         0000004f 00000031 
         00000050 00000000 
    2009 00000051 00000069  $C$SL4: .string "imageWidth=%d, imageHeight=%d",0
         00000052 0000006D 
         00000053 00000061 
         00000054 00000067 
TMS320C6x Assembler PC v7.4.2 Thu Mar 19 12:43:17 2015

Tools Copyright (c) 1996-2012 Texas Instruments Incorporated
package/lib/Regression/regress_d_c/./../packages/ti/vlib/src/VLIB_lbp/VLIB_lbp_d.se66 PAGE   39

         00000055 00000065 
         00000056 00000057 
         00000057 00000069 
         00000058 00000064 
         00000059 00000074 
         0000005a 00000068 
         0000005b 0000003D 
         0000005c 00000025 
         0000005d 00000064 
         0000005e 0000002C 
         0000005f 00000020 
         00000060 00000069 
         00000061 0000006D 
         00000062 00000061 
         00000063 00000067 
         00000064 00000065 
         00000065 00000048 
         00000066 00000065 
         00000067 00000069 
         00000068 00000067 
         00000069 00000068 
         0000006a 00000074 
         0000006b 0000003D 
         0000006c 00000025 
         0000006d 00000064 
         0000006e 00000000 
    2010 0000006f 00000025  $C$SL5: .string "%s generated input | Opt results compared to NatC results |"
         00000070 00000073 
         00000071 00000020 
         00000072 00000067 
         00000073 00000065 
         00000074 0000006E 
         00000075 00000065 
         00000076 00000072 
         00000077 00000061 
         00000078 00000074 
         00000079 00000065 
         0000007a 00000064 
         0000007b 00000020 
         0000007c 00000069 
         0000007d 0000006E 
         0000007e 00000070 
         0000007f 00000075 
         00000080 00000074 
         00000081 00000020 
         00000082 0000007C 
         00000083 00000020 
         00000084 0000004F 
         00000085 00000070 
         00000086 00000074 
         00000087 00000020 
         00000088 00000072 
         00000089 00000065 
         0000008a 00000073 
         0000008b 00000075 
TMS320C6x Assembler PC v7.4.2 Thu Mar 19 12:43:17 2015

Tools Copyright (c) 1996-2012 Texas Instruments Incorporated
package/lib/Regression/regress_d_c/./../packages/ti/vlib/src/VLIB_lbp/VLIB_lbp_d.se66 PAGE   40

         0000008c 0000006C 
         0000008d 00000074 
         0000008e 00000073 
         0000008f 00000020 
         00000090 00000063 
         00000091 0000006F 
         00000092 0000006D 
         00000093 00000070 
         00000094 00000061 
         00000095 00000072 
         00000096 00000065 
         00000097 00000064 
         00000098 00000020 
         00000099 00000074 
         0000009a 0000006F 
         0000009b 00000020 
         0000009c 0000004E 
         0000009d 00000061 
         0000009e 00000074 
         0000009f 00000043 
         000000a0 00000020 
         000000a1 00000072 
         000000a2 00000065 
         000000a3 00000073 
         000000a4 00000075 
         000000a5 0000006C 
         000000a6 00000074 
         000000a7 00000073 
         000000a8 00000020 
         000000a9 0000007C 
    2011 000000aa 00000020          .string " imageWidth=%d, imageHeight=%d, out_size=%d",0
         000000ab 00000069 
         000000ac 0000006D 
         000000ad 00000061 
         000000ae 00000067 
         000000af 00000065 
         000000b0 00000057 
         000000b1 00000069 
         000000b2 00000064 
         000000b3 00000074 
         000000b4 00000068 
         000000b5 0000003D 
         000000b6 00000025 
         000000b7 00000064 
         000000b8 0000002C 
         000000b9 00000020 
         000000ba 00000069 
         000000bb 0000006D 
         000000bc 00000061 
         000000bd 00000067 
         000000be 00000065 
         000000bf 00000048 
         000000c0 00000065 
         000000c1 00000069 
         000000c2 00000067 
TMS320C6x Assembler PC v7.4.2 Thu Mar 19 12:43:17 2015

Tools Copyright (c) 1996-2012 Texas Instruments Incorporated
package/lib/Regression/regress_d_c/./../packages/ti/vlib/src/VLIB_lbp/VLIB_lbp_d.se66 PAGE   41

         000000c3 00000068 
         000000c4 00000074 
         000000c5 0000003D 
         000000c6 00000025 
         000000c7 00000064 
         000000c8 0000002C 
         000000c9 00000020 
         000000ca 0000006F 
         000000cb 00000075 
         000000cc 00000074 
         000000cd 0000005F 
         000000ce 00000073 
         000000cf 00000069 
         000000d0 0000007A 
         000000d1 00000065 
         000000d2 0000003D 
         000000d3 00000025 
         000000d4 00000064 
         000000d5 00000000 
    2012 000000d6 00000069  $C$SL6: .string "imageWidth=%d, imageHeight=%d,  out size=%d",0
         000000d7 0000006D 
         000000d8 00000061 
         000000d9 00000067 
         000000da 00000065 
         000000db 00000057 
         000000dc 00000069 
         000000dd 00000064 
         000000de 00000074 
         000000df 00000068 
         000000e0 0000003D 
         000000e1 00000025 
         000000e2 00000064 
         000000e3 0000002C 
         000000e4 00000020 
         000000e5 00000069 
         000000e6 0000006D 
         000000e7 00000061 
         000000e8 00000067 
         000000e9 00000065 
         000000ea 00000048 
         000000eb 00000065 
         000000ec 00000069 
         000000ed 00000067 
         000000ee 00000068 
         000000ef 00000074 
         000000f0 0000003D 
         000000f1 00000025 
         000000f2 00000064 
         000000f3 0000002C 
         000000f4 00000020 
         000000f5 00000020 
         000000f6 0000006F 
         000000f7 00000075 
         000000f8 00000074 
         000000f9 00000020 
TMS320C6x Assembler PC v7.4.2 Thu Mar 19 12:43:17 2015

Tools Copyright (c) 1996-2012 Texas Instruments Incorporated
package/lib/Regression/regress_d_c/./../packages/ti/vlib/src/VLIB_lbp/VLIB_lbp_d.se66 PAGE   42

         000000fa 00000073 
         000000fb 00000069 
         000000fc 0000007A 
         000000fd 00000065 
         000000fe 0000003D 
         000000ff 00000025 
         00000100 00000064 
         00000101 00000000 
    2013 00000102 00000069  $C$SL7: .string "imageWidth * imageHeight",0
         00000103 0000006D 
         00000104 00000061 
         00000105 00000067 
         00000106 00000065 
         00000107 00000057 
         00000108 00000069 
         00000109 00000064 
         0000010a 00000074 
         0000010b 00000068 
         0000010c 00000020 
         0000010d 0000002A 
         0000010e 00000020 
         0000010f 00000069 
         00000110 0000006D 
         00000111 00000061 
         00000112 00000067 
         00000113 00000065 
         00000114 00000048 
         00000115 00000065 
         00000116 00000069 
         00000117 00000067 
         00000118 00000068 
         00000119 00000074 
         0000011a 00000000 
    2014 0000011b 0000004E  $C$SL8: .string "N = imageWidth * imageHeight; M = imageHeight",0
         0000011c 00000020 
         0000011d 0000003D 
         0000011e 00000020 
         0000011f 00000069 
         00000120 0000006D 
         00000121 00000061 
         00000122 00000067 
         00000123 00000065 
         00000124 00000057 
         00000125 00000069 
         00000126 00000064 
         00000127 00000074 
         00000128 00000068 
         00000129 00000020 
         0000012a 0000002A 
         0000012b 00000020 
         0000012c 00000069 
         0000012d 0000006D 
         0000012e 00000061 
         0000012f 00000067 
         00000130 00000065 
TMS320C6x Assembler PC v7.4.2 Thu Mar 19 12:43:17 2015

Tools Copyright (c) 1996-2012 Texas Instruments Incorporated
package/lib/Regression/regress_d_c/./../packages/ti/vlib/src/VLIB_lbp/VLIB_lbp_d.se66 PAGE   43

         00000131 00000048 
         00000132 00000065 
         00000133 00000069 
         00000134 00000067 
         00000135 00000068 
         00000136 00000074 
         00000137 0000003B 
         00000138 00000020 
         00000139 0000004D 
         0000013a 00000020 
         0000013b 0000003D 
         0000013c 00000020 
         0000013d 00000069 
         0000013e 0000006D 
         0000013f 00000061 
         00000140 00000067 
         00000141 00000065 
         00000142 00000048 
         00000143 00000065 
         00000144 00000069 
         00000145 00000067 
         00000146 00000068 
         00000147 00000074 
         00000148 00000000 
    2015 00000149 0000002D  $C$SL9: .string "-----------------------------------------------------------"
         0000014a 0000002D 
         0000014b 0000002D 
         0000014c 0000002D 
         0000014d 0000002D 
         0000014e 0000002D 
         0000014f 0000002D 
         00000150 0000002D 
         00000151 0000002D 
         00000152 0000002D 
         00000153 0000002D 
         00000154 0000002D 
         00000155 0000002D 
         00000156 0000002D 
         00000157 0000002D 
         00000158 0000002D 
         00000159 0000002D 
         0000015a 0000002D 
         0000015b 0000002D 
         0000015c 0000002D 
         0000015d 0000002D 
         0000015e 0000002D 
         0000015f 0000002D 
         00000160 0000002D 
         00000161 0000002D 
         00000162 0000002D 
         00000163 0000002D 
         00000164 0000002D 
         00000165 0000002D 
         00000166 0000002D 
         00000167 0000002D 
TMS320C6x Assembler PC v7.4.2 Thu Mar 19 12:43:17 2015

Tools Copyright (c) 1996-2012 Texas Instruments Incorporated
package/lib/Regression/regress_d_c/./../packages/ti/vlib/src/VLIB_lbp/VLIB_lbp_d.se66 PAGE   44

         00000168 0000002D 
         00000169 0000002D 
         0000016a 0000002D 
         0000016b 0000002D 
         0000016c 0000002D 
         0000016d 0000002D 
         0000016e 0000002D 
         0000016f 0000002D 
         00000170 0000002D 
         00000171 0000002D 
         00000172 0000002D 
         00000173 0000002D 
         00000174 0000002D 
         00000175 0000002D 
         00000176 0000002D 
         00000177 0000002D 
         00000178 0000002D 
         00000179 0000002D 
         0000017a 0000002D 
         0000017b 0000002D 
         0000017c 0000002D 
         0000017d 0000002D 
         0000017e 0000002D 
         0000017f 0000002D 
         00000180 0000002D 
         00000181 0000002D 
         00000182 0000002D 
         00000183 0000002D 
    2016 00000184 0000002D          .string "-----------------------------------------------------------"
         00000185 0000002D 
         00000186 0000002D 
         00000187 0000002D 
         00000188 0000002D 
         00000189 0000002D 
         0000018a 0000002D 
         0000018b 0000002D 
         0000018c 0000002D 
         0000018d 0000002D 
         0000018e 0000002D 
         0000018f 0000002D 
         00000190 0000002D 
         00000191 0000002D 
         00000192 0000002D 
         00000193 0000002D 
         00000194 0000002D 
         00000195 0000002D 
         00000196 0000002D 
         00000197 0000002D 
         00000198 0000002D 
         00000199 0000002D 
         0000019a 0000002D 
         0000019b 0000002D 
         0000019c 0000002D 
         0000019d 0000002D 
         0000019e 0000002D 
TMS320C6x Assembler PC v7.4.2 Thu Mar 19 12:43:17 2015

Tools Copyright (c) 1996-2012 Texas Instruments Incorporated
package/lib/Regression/regress_d_c/./../packages/ti/vlib/src/VLIB_lbp/VLIB_lbp_d.se66 PAGE   45

         0000019f 0000002D 
         000001a0 0000002D 
         000001a1 0000002D 
         000001a2 0000002D 
         000001a3 0000002D 
         000001a4 0000002D 
         000001a5 0000002D 
         000001a6 0000002D 
         000001a7 0000002D 
         000001a8 0000002D 
         000001a9 0000002D 
         000001aa 0000002D 
         000001ab 0000002D 
         000001ac 0000002D 
         000001ad 0000002D 
         000001ae 0000002D 
         000001af 0000002D 
         000001b0 0000002D 
         000001b1 0000002D 
         000001b2 0000002D 
         000001b3 0000002D 
         000001b4 0000002D 
         000001b5 0000002D 
         000001b6 0000002D 
         000001b7 0000002D 
         000001b8 0000002D 
         000001b9 0000002D 
         000001ba 0000002D 
         000001bb 0000002D 
         000001bc 0000002D 
         000001bd 0000002D 
         000001be 0000002D 
    2017 000001bf 0000002D          .string "-----------------------",10,0
         000001c0 0000002D 
         000001c1 0000002D 
         000001c2 0000002D 
         000001c3 0000002D 
         000001c4 0000002D 
         000001c5 0000002D 
         000001c6 0000002D 
         000001c7 0000002D 
         000001c8 0000002D 
         000001c9 0000002D 
         000001ca 0000002D 
         000001cb 0000002D 
         000001cc 0000002D 
         000001cd 0000002D 
         000001ce 0000002D 
         000001cf 0000002D 
         000001d0 0000002D 
         000001d1 0000002D 
         000001d2 0000002D 
         000001d3 0000002D 
         000001d4 0000002D 
         000001d5 0000002D 
TMS320C6x Assembler PC v7.4.2 Thu Mar 19 12:43:17 2015

Tools Copyright (c) 1996-2012 Texas Instruments Incorporated
package/lib/Regression/regress_d_c/./../packages/ti/vlib/src/VLIB_lbp/VLIB_lbp_d.se66 PAGE   46

         000001d6 0000000A 
         000001d7 00000000 
    2018                    ;*****************************************************************************
    2019                    ;* UNDEFINED EXTERNAL REFERENCES                                             *
    2020                    ;*****************************************************************************
    2021                            .global printf
    2022                            .global sprintf
    2023                            .global memset
    2024                            .global malloc
    2025                            .global free
    2026                            .global VLIB_cache_inval
    2027                            .global VLIB_assert
    2028                            .global VLIB_profile_init
    2029                            .global VLIB_formula_add_test
    2030                            .global VLIB_skip_test
    2031                            .global VLIB_profile_cycle_report
    2032                            .global initStack
    2033                            .global setStackDepth
    2034                            .global getSP
    2035                            .global VLIB_stack_memory
    2036                            .global VLIB_compare_mem
    2037                            .global VLIB_fillBuffer
    2038                            .global VLIB_malloc
    2039                            .global VLIB_free
    2040                            .global VLIB_lbp
    2041                            .global VLIB_lbp_cn
    2042                            .global lbp_getTestParams
    2043                            .global test_cases
    2044                            .global act_kernel
    2045                            .global desc
    2046                            .global testPatternString
    2047                            .global est_test
    2048                            .global beg_count
    2049                            .global end_count
    2050                            .global overhead
    2051                            .global cycles
    2052                    
    2053                    ;******************************************************************************
    2054                    ;* BUILD ATTRIBUTES                                                           *
    2055                    ;******************************************************************************
    2056                            .battr "TI", Tag_File, 1, Tag_Long_Precision_Bits(2)
    2057                            .battr "TI", Tag_File, 1, Tag_Bitfield_layout(2)
    2058                            .battr "TI", Tag_File, 1, Tag_ABI_enum_size(2)
    2059                            .battr "c6xabi", Tag_File, 1, Tag_ABI_wchar_t(1)
    2060                            .battr "c6xabi", Tag_File, 1, Tag_ABI_array_object_alignment(0)
    2061                            .battr "c6xabi", Tag_File, 1, Tag_ABI_array_object_align_expected(0)
    2062                            .battr "c6xabi", Tag_File, 1, Tag_ABI_PIC(0)
    2063                            .battr "c6xabi", Tag_File, 1, Tag_ABI_PID(0)
    2064                            .battr "c6xabi", Tag_File, 1, Tag_ABI_DSBT(0)
    2065                            .battr "c6xabi", Tag_File, 1, Tag_ABI_stack_align_needed(0)
    2066                            .battr "c6xabi", Tag_File, 1, Tag_ABI_stack_align_preserved(0)
    2067                            .battr "TI", Tag_File, 1, Tag_Tramps_Use_SOC(1)
    2068                    
    2069                    ;******************************************************************************
    2070                    ;* TYPE INFORMATION                                                           *
TMS320C6x Assembler PC v7.4.2 Thu Mar 19 12:43:17 2015

Tools Copyright (c) 1996-2012 Texas Instruments Incorporated
package/lib/Regression/regress_d_c/./../packages/ti/vlib/src/VLIB_lbp/VLIB_lbp_d.se66 PAGE   47

    2071                    ;******************************************************************************
    2072                    
    2073                    $C$DW$T$37      .dwtag  DW_TAG_enumeration_type
    2074                            .dwattr $C$DW$T$37, DW_AT_byte_size(0x04)
    2075                    $C$DW$197       .dwtag  DW_TAG_enumerator, DW_AT_name("VLIB_NO_ERROR"), DW_AT_const_value(0x00)
    2076                            .dwattr $C$DW$197, DW_AT_decl_file(".\..\packages\ti\vlib\src\VLIB_lbp\..\common\c66/VLIB_type
    2077                            .dwattr $C$DW$197, DW_AT_decl_line(0x7a)
    2078                            .dwattr $C$DW$197, DW_AT_decl_column(0x05)
    2079                    $C$DW$198       .dwtag  DW_TAG_enumerator, DW_AT_name("VLIB_ERR_INPUT_INVALID"), DW_AT_const_value(0x0
    2080                            .dwattr $C$DW$198, DW_AT_decl_file(".\..\packages\ti\vlib\src\VLIB_lbp\..\common\c66/VLIB_type
    2081                            .dwattr $C$DW$198, DW_AT_decl_line(0x7b)
    2082                            .dwattr $C$DW$198, DW_AT_decl_column(0x05)
    2083                    $C$DW$199       .dwtag  DW_TAG_enumerator, DW_AT_name("VLIB_ERR_INPUT_NEGATIVE"), DW_AT_const_value(0x
    2084                            .dwattr $C$DW$199, DW_AT_decl_file(".\..\packages\ti\vlib\src\VLIB_lbp\..\common\c66/VLIB_type
    2085                            .dwattr $C$DW$199, DW_AT_decl_line(0x7c)
    2086                            .dwattr $C$DW$199, DW_AT_decl_column(0x05)
    2087                    $C$DW$200       .dwtag  DW_TAG_enumerator, DW_AT_name("VLIB_ERR_INPUT_EXCEEDED_RANGE"), DW_AT_const_va
    2088                            .dwattr $C$DW$200, DW_AT_decl_file(".\..\packages\ti\vlib\src\VLIB_lbp\..\common\c66/VLIB_type
    2089                            .dwattr $C$DW$200, DW_AT_decl_line(0x7d)
    2090                            .dwattr $C$DW$200, DW_AT_decl_column(0x05)
    2091                    $C$DW$201       .dwtag  DW_TAG_enumerator, DW_AT_name("VLIB_ERR_MEMORY_EXCEEDED_BOUNDARY"), DW_AT_cons
    2092                            .dwattr $C$DW$201, DW_AT_decl_file(".\..\packages\ti\vlib\src\VLIB_lbp\..\common\c66/VLIB_type
    2093                            .dwattr $C$DW$201, DW_AT_decl_line(0x7e)
    2094                            .dwattr $C$DW$201, DW_AT_decl_column(0x05)
    2095                    $C$DW$202       .dwtag  DW_TAG_enumerator, DW_AT_name("VLIB_ERR_MEMORY_ALLOCATION_FAILURE"), DW_AT_con
    2096                            .dwattr $C$DW$202, DW_AT_decl_file(".\..\packages\ti\vlib\src\VLIB_lbp\..\common\c66/VLIB_type
    2097                            .dwattr $C$DW$202, DW_AT_decl_line(0x7f)
    2098                            .dwattr $C$DW$202, DW_AT_decl_column(0x05)
    2099                    $C$DW$203       .dwtag  DW_TAG_enumerator, DW_AT_name("VLIB_ERR_MEMORY_POINTER_NULL"), DW_AT_const_val
    2100                            .dwattr $C$DW$203, DW_AT_decl_file(".\..\packages\ti\vlib\src\VLIB_lbp\..\common\c66/VLIB_type
    2101                            .dwattr $C$DW$203, DW_AT_decl_line(0x80)
    2102                            .dwattr $C$DW$203, DW_AT_decl_column(0x05)
    2103                    $C$DW$204       .dwtag  DW_TAG_enumerator, DW_AT_name("VLIB_ERR_DMA_FAILURE"), DW_AT_const_value(0x07)
    2104                            .dwattr $C$DW$204, DW_AT_decl_file(".\..\packages\ti\vlib\src\VLIB_lbp\..\common\c66/VLIB_type
    2105                            .dwattr $C$DW$204, DW_AT_decl_line(0x81)
    2106                            .dwattr $C$DW$204, DW_AT_decl_column(0x05)
    2107                    $C$DW$205       .dwtag  DW_TAG_enumerator, DW_AT_name("VLIB_ERR_FILE_OPEN_FAILURE"), DW_AT_const_value
    2108                            .dwattr $C$DW$205, DW_AT_decl_file(".\..\packages\ti\vlib\src\VLIB_lbp\..\common\c66/VLIB_type
    2109                            .dwattr $C$DW$205, DW_AT_decl_line(0x82)
    2110                            .dwattr $C$DW$205, DW_AT_decl_column(0x05)
    2111                    $C$DW$206       .dwtag  DW_TAG_enumerator, DW_AT_name("VLIB_ERR_FILE_READ_FAILURE"), DW_AT_const_value
    2112                            .dwattr $C$DW$206, DW_AT_decl_file(".\..\packages\ti\vlib\src\VLIB_lbp\..\common\c66/VLIB_type
    2113                            .dwattr $C$DW$206, DW_AT_decl_line(0x83)
    2114                            .dwattr $C$DW$206, DW_AT_decl_column(0x05)
    2115                    $C$DW$207       .dwtag  DW_TAG_enumerator, DW_AT_name("VLIB_ERR_FILE_WRITE_FAILURE"), DW_AT_const_valu
    2116                            .dwattr $C$DW$207, DW_AT_decl_file(".\..\packages\ti\vlib\src\VLIB_lbp\..\common\c66/VLIB_type
    2117                            .dwattr $C$DW$207, DW_AT_decl_line(0x84)
    2118                            .dwattr $C$DW$207, DW_AT_decl_column(0x05)
    2119                    $C$DW$208       .dwtag  DW_TAG_enumerator, DW_AT_name("VLIB_ERR_FILE_CLOSE_FAILURE"), DW_AT_const_valu
    2120                            .dwattr $C$DW$208, DW_AT_decl_file(".\..\packages\ti\vlib\src\VLIB_lbp\..\common\c66/VLIB_type
    2121                            .dwattr $C$DW$208, DW_AT_decl_line(0x85)
    2122                            .dwattr $C$DW$208, DW_AT_decl_column(0x05)
    2123                    $C$DW$209       .dwtag  DW_TAG_enumerator, DW_AT_name("VLIB_ERR_FILE_FORMAT_FAILURE"), DW_AT_const_val
    2124                            .dwattr $C$DW$209, DW_AT_decl_file(".\..\packages\ti\vlib\src\VLIB_lbp\..\common\c66/VLIB_type
    2125                            .dwattr $C$DW$209, DW_AT_decl_line(0x86)
TMS320C6x Assembler PC v7.4.2 Thu Mar 19 12:43:17 2015

Tools Copyright (c) 1996-2012 Texas Instruments Incorporated
package/lib/Regression/regress_d_c/./../packages/ti/vlib/src/VLIB_lbp/VLIB_lbp_d.se66 PAGE   48

    2126                            .dwattr $C$DW$209, DW_AT_decl_column(0x05)
    2127                    $C$DW$210       .dwtag  DW_TAG_enumerator, DW_AT_name("VLIB_WARNING_LOW_MEMORY"), DW_AT_const_value(0x
    2128                            .dwattr $C$DW$210, DW_AT_decl_file(".\..\packages\ti\vlib\src\VLIB_lbp\..\common\c66/VLIB_type
    2129                            .dwattr $C$DW$210, DW_AT_decl_line(0x87)
    2130                            .dwattr $C$DW$210, DW_AT_decl_column(0x05)
    2131                    $C$DW$211       .dwtag  DW_TAG_enumerator, DW_AT_name("VLIB_ERR_NOT_IMPLEMENTED"), DW_AT_const_value(0
    2132                            .dwattr $C$DW$211, DW_AT_decl_file(".\..\packages\ti\vlib\src\VLIB_lbp\..\common\c66/VLIB_type
    2133                            .dwattr $C$DW$211, DW_AT_decl_line(0x88)
    2134                            .dwattr $C$DW$211, DW_AT_decl_column(0x05)
    2135                    $C$DW$212       .dwtag  DW_TAG_enumerator, DW_AT_name("VLIB_ERROR_MAX"), DW_AT_const_value(0x0f)
    2136                            .dwattr $C$DW$212, DW_AT_decl_file(".\..\packages\ti\vlib\src\VLIB_lbp\..\common\c66/VLIB_type
    2137                            .dwattr $C$DW$212, DW_AT_decl_line(0x89)
    2138                            .dwattr $C$DW$212, DW_AT_decl_column(0x05)
    2139                            .dwendtag $C$DW$T$37
    2140                    
    2141                            .dwattr $C$DW$T$37, DW_AT_decl_file(".\..\packages\ti\vlib\src\VLIB_lbp\..\common\c66/VLIB_typ
    2142                            .dwattr $C$DW$T$37, DW_AT_decl_line(0x79)
    2143                            .dwattr $C$DW$T$37, DW_AT_decl_column(0x0e)
    2144                    $C$DW$T$38      .dwtag  DW_TAG_typedef, DW_AT_name("VLIB_STATUS")
    2145                            .dwattr $C$DW$T$38, DW_AT_type(*$C$DW$T$37)
    2146                            .dwattr $C$DW$T$38, DW_AT_language(DW_LANG_C)
    2147                            .dwattr $C$DW$T$38, DW_AT_decl_file(".\..\packages\ti\vlib\src\VLIB_lbp\..\common\c66/VLIB_typ
    2148                            .dwattr $C$DW$T$38, DW_AT_decl_line(0x8a)
    2149                            .dwattr $C$DW$T$38, DW_AT_decl_column(0x03)
    2150                    
    2151                    $C$DW$T$39      .dwtag  DW_TAG_enumeration_type
    2152                            .dwattr $C$DW$T$39, DW_AT_byte_size(0x04)
    2153                    $C$DW$213       .dwtag  DW_TAG_enumerator, DW_AT_name("vlib_KERNEL_OPT"), DW_AT_const_value(0x00)
    2154                            .dwattr $C$DW$213, DW_AT_decl_file(".\..\packages\ti\vlib\src\VLIB_lbp\../common/VLIB_test.h")
    2155                            .dwattr $C$DW$213, DW_AT_decl_line(0x6a)
    2156                            .dwattr $C$DW$213, DW_AT_decl_column(0x05)
    2157                    $C$DW$214       .dwtag  DW_TAG_enumerator, DW_AT_name("vlib_KERNEL_CN"), DW_AT_const_value(0x01)
    2158                            .dwattr $C$DW$214, DW_AT_decl_file(".\..\packages\ti\vlib\src\VLIB_lbp\../common/VLIB_test.h")
    2159                            .dwattr $C$DW$214, DW_AT_decl_line(0x6b)
    2160                            .dwattr $C$DW$214, DW_AT_decl_column(0x05)
    2161                    $C$DW$215       .dwtag  DW_TAG_enumerator, DW_AT_name("vlib_KERNEL_CNT"), DW_AT_const_value(0x02)
    2162                            .dwattr $C$DW$215, DW_AT_decl_file(".\..\packages\ti\vlib\src\VLIB_lbp\../common/VLIB_test.h")
    2163                            .dwattr $C$DW$215, DW_AT_decl_line(0x6c)
    2164                            .dwattr $C$DW$215, DW_AT_decl_column(0x05)
    2165                            .dwendtag $C$DW$T$39
    2166                    
    2167                            .dwattr $C$DW$T$39, DW_AT_decl_file(".\..\packages\ti\vlib\src\VLIB_lbp\../common/VLIB_test.h"
    2168                            .dwattr $C$DW$T$39, DW_AT_decl_line(0x69)
    2169                            .dwattr $C$DW$T$39, DW_AT_decl_column(0x06)
    2170                    
    2171                    $C$DW$T$40      .dwtag  DW_TAG_enumeration_type
    2172                            .dwattr $C$DW$T$40, DW_AT_byte_size(0x04)
    2173                    $C$DW$216       .dwtag  DW_TAG_enumerator, DW_AT_name("vlib_KERNEL_FAIL"), DW_AT_const_value(0x00)
    2174                            .dwattr $C$DW$216, DW_AT_decl_file(".\..\packages\ti\vlib\src\VLIB_lbp\../common/VLIB_test.h")
    2175                            .dwattr $C$DW$216, DW_AT_decl_line(0x72)
    2176                            .dwattr $C$DW$216, DW_AT_decl_column(0x05)
    2177                    $C$DW$217       .dwtag  DW_TAG_enumerator, DW_AT_name("vlib_KERNEL_PASS"), DW_AT_const_value(0x01)
    2178                            .dwattr $C$DW$217, DW_AT_decl_file(".\..\packages\ti\vlib\src\VLIB_lbp\../common/VLIB_test.h")
    2179                            .dwattr $C$DW$217, DW_AT_decl_line(0x73)
    2180                            .dwattr $C$DW$217, DW_AT_decl_column(0x05)
TMS320C6x Assembler PC v7.4.2 Thu Mar 19 12:43:17 2015

Tools Copyright (c) 1996-2012 Texas Instruments Incorporated
package/lib/Regression/regress_d_c/./../packages/ti/vlib/src/VLIB_lbp/VLIB_lbp_d.se66 PAGE   49

    2181                            .dwendtag $C$DW$T$40
    2182                    
    2183                            .dwattr $C$DW$T$40, DW_AT_decl_file(".\..\packages\ti\vlib\src\VLIB_lbp\../common/VLIB_test.h"
    2184                            .dwattr $C$DW$T$40, DW_AT_decl_line(0x71)
    2185                            .dwattr $C$DW$T$40, DW_AT_decl_column(0x06)
    2186                    
    2187                    $C$DW$T$24      .dwtag  DW_TAG_structure_type
    2188                            .dwattr $C$DW$T$24, DW_AT_byte_size(0x20)
    2189                    $C$DW$218       .dwtag  DW_TAG_member
    2190                            .dwattr $C$DW$218, DW_AT_type(*$C$DW$T$19)
    2191                            .dwattr $C$DW$218, DW_AT_name("testPattern")
    2192                            .dwattr $C$DW$218, DW_AT_TI_symbol_name("testPattern")
    2193                            .dwattr $C$DW$218, DW_AT_data_member_location[DW_OP_plus_uconst 0x0]
    2194                            .dwattr $C$DW$218, DW_AT_accessibility(DW_ACCESS_public)
    2195                            .dwattr $C$DW$218, DW_AT_decl_file(".\..\packages\ti\vlib\src\VLIB_lbp\VLIB_lbp_idat.h")
    2196                            .dwattr $C$DW$218, DW_AT_decl_line(0x24)
    2197                            .dwattr $C$DW$218, DW_AT_decl_column(0x0f)
    2198                    $C$DW$219       .dwtag  DW_TAG_member
    2199                            .dwattr $C$DW$219, DW_AT_type(*$C$DW$T$20)
    2200                            .dwattr $C$DW$219, DW_AT_name("staticIn")
    2201                            .dwattr $C$DW$219, DW_AT_TI_symbol_name("staticIn")
    2202                            .dwattr $C$DW$219, DW_AT_data_member_location[DW_OP_plus_uconst 0x4]
    2203                            .dwattr $C$DW$219, DW_AT_accessibility(DW_ACCESS_public)
    2204                            .dwattr $C$DW$219, DW_AT_decl_file(".\..\packages\ti\vlib\src\VLIB_lbp\VLIB_lbp_idat.h")
    2205                            .dwattr $C$DW$219, DW_AT_decl_line(0x25)
    2206                            .dwattr $C$DW$219, DW_AT_decl_column(0x0f)
    2207                    $C$DW$220       .dwtag  DW_TAG_member
    2208                            .dwattr $C$DW$220, DW_AT_type(*$C$DW$T$22)
    2209                            .dwattr $C$DW$220, DW_AT_name("staticOut")
    2210                            .dwattr $C$DW$220, DW_AT_TI_symbol_name("staticOut")
    2211                            .dwattr $C$DW$220, DW_AT_data_member_location[DW_OP_plus_uconst 0x8]
    2212                            .dwattr $C$DW$220, DW_AT_accessibility(DW_ACCESS_public)
    2213                            .dwattr $C$DW$220, DW_AT_decl_file(".\..\packages\ti\vlib\src\VLIB_lbp\VLIB_lbp_idat.h")
    2214                            .dwattr $C$DW$220, DW_AT_decl_line(0x26)
    2215                            .dwattr $C$DW$220, DW_AT_decl_column(0x0f)
    2216                    $C$DW$221       .dwtag  DW_TAG_member
    2217                            .dwattr $C$DW$221, DW_AT_type(*$C$DW$T$20)
    2218                            .dwattr $C$DW$221, DW_AT_name("lbpMapTbl")
    2219                            .dwattr $C$DW$221, DW_AT_TI_symbol_name("lbpMapTbl")
    2220                            .dwattr $C$DW$221, DW_AT_data_member_location[DW_OP_plus_uconst 0xc]
    2221                            .dwattr $C$DW$221, DW_AT_accessibility(DW_ACCESS_public)
    2222                            .dwattr $C$DW$221, DW_AT_decl_file(".\..\packages\ti\vlib\src\VLIB_lbp\VLIB_lbp_idat.h")
    2223                            .dwattr $C$DW$221, DW_AT_decl_line(0x27)
    2224                            .dwattr $C$DW$221, DW_AT_decl_column(0x0f)
    2225                    $C$DW$222       .dwtag  DW_TAG_member
    2226                            .dwattr $C$DW$222, DW_AT_type(*$C$DW$T$23)
    2227                            .dwattr $C$DW$222, DW_AT_name("imageWidth")
    2228                            .dwattr $C$DW$222, DW_AT_TI_symbol_name("imageWidth")
    2229                            .dwattr $C$DW$222, DW_AT_data_member_location[DW_OP_plus_uconst 0x10]
    2230                            .dwattr $C$DW$222, DW_AT_accessibility(DW_ACCESS_public)
    2231                            .dwattr $C$DW$222, DW_AT_decl_file(".\..\packages\ti\vlib\src\VLIB_lbp\VLIB_lbp_idat.h")
    2232                            .dwattr $C$DW$222, DW_AT_decl_line(0x28)
    2233                            .dwattr $C$DW$222, DW_AT_decl_column(0x0f)
    2234                    $C$DW$223       .dwtag  DW_TAG_member
    2235                            .dwattr $C$DW$223, DW_AT_type(*$C$DW$T$23)
TMS320C6x Assembler PC v7.4.2 Thu Mar 19 12:43:17 2015

Tools Copyright (c) 1996-2012 Texas Instruments Incorporated
package/lib/Regression/regress_d_c/./../packages/ti/vlib/src/VLIB_lbp/VLIB_lbp_d.se66 PAGE   50

    2236                            .dwattr $C$DW$223, DW_AT_name("imageHeight")
    2237                            .dwattr $C$DW$223, DW_AT_TI_symbol_name("imageHeight")
    2238                            .dwattr $C$DW$223, DW_AT_data_member_location[DW_OP_plus_uconst 0x14]
    2239                            .dwattr $C$DW$223, DW_AT_accessibility(DW_ACCESS_public)
    2240                            .dwattr $C$DW$223, DW_AT_decl_file(".\..\packages\ti\vlib\src\VLIB_lbp\VLIB_lbp_idat.h")
    2241                            .dwattr $C$DW$223, DW_AT_decl_line(0x29)
    2242                            .dwattr $C$DW$223, DW_AT_decl_column(0x0f)
    2243                    $C$DW$224       .dwtag  DW_TAG_member
    2244                            .dwattr $C$DW$224, DW_AT_type(*$C$DW$T$23)
    2245                            .dwattr $C$DW$224, DW_AT_name("numNeighbours")
    2246                            .dwattr $C$DW$224, DW_AT_TI_symbol_name("numNeighbours")
    2247                            .dwattr $C$DW$224, DW_AT_data_member_location[DW_OP_plus_uconst 0x18]
    2248                            .dwattr $C$DW$224, DW_AT_accessibility(DW_ACCESS_public)
    2249                            .dwattr $C$DW$224, DW_AT_decl_file(".\..\packages\ti\vlib\src\VLIB_lbp\VLIB_lbp_idat.h")
    2250                            .dwattr $C$DW$224, DW_AT_decl_line(0x2a)
    2251                            .dwattr $C$DW$224, DW_AT_decl_column(0x0f)
    2252                    $C$DW$225       .dwtag  DW_TAG_member
    2253                            .dwattr $C$DW$225, DW_AT_type(*$C$DW$T$23)
    2254                            .dwattr $C$DW$225, DW_AT_name("radius")
    2255                            .dwattr $C$DW$225, DW_AT_TI_symbol_name("radius")
    2256                            .dwattr $C$DW$225, DW_AT_data_member_location[DW_OP_plus_uconst 0x1c]
    2257                            .dwattr $C$DW$225, DW_AT_accessibility(DW_ACCESS_public)
    2258                            .dwattr $C$DW$225, DW_AT_decl_file(".\..\packages\ti\vlib\src\VLIB_lbp\VLIB_lbp_idat.h")
    2259                            .dwattr $C$DW$225, DW_AT_decl_line(0x2b)
    2260                            .dwattr $C$DW$225, DW_AT_decl_column(0x0f)
    2261                            .dwendtag $C$DW$T$24
    2262                    
    2263                            .dwattr $C$DW$T$24, DW_AT_decl_file(".\..\packages\ti\vlib\src\VLIB_lbp\VLIB_lbp_idat.h")
    2264                            .dwattr $C$DW$T$24, DW_AT_decl_line(0x23)
    2265                            .dwattr $C$DW$T$24, DW_AT_decl_column(0x10)
    2266                    $C$DW$T$41      .dwtag  DW_TAG_pointer_type
    2267                            .dwattr $C$DW$T$41, DW_AT_type(*$C$DW$T$24)
    2268                            .dwattr $C$DW$T$41, DW_AT_address_class(0x20)
    2269                    $C$DW$T$43      .dwtag  DW_TAG_typedef, DW_AT_name("lbp_testParams_t")
    2270                            .dwattr $C$DW$T$43, DW_AT_type(*$C$DW$T$24)
    2271                            .dwattr $C$DW$T$43, DW_AT_language(DW_LANG_C)
    2272                            .dwattr $C$DW$T$43, DW_AT_decl_file(".\..\packages\ti\vlib\src\VLIB_lbp\VLIB_lbp_idat.h")
    2273                            .dwattr $C$DW$T$43, DW_AT_decl_line(0x2c)
    2274                            .dwattr $C$DW$T$43, DW_AT_decl_column(0x03)
    2275                    $C$DW$T$44      .dwtag  DW_TAG_pointer_type
    2276                            .dwattr $C$DW$T$44, DW_AT_type(*$C$DW$T$43)
    2277                            .dwattr $C$DW$T$44, DW_AT_address_class(0x20)
    2278                    $C$DW$T$45      .dwtag  DW_TAG_pointer_type
    2279                            .dwattr $C$DW$T$45, DW_AT_type(*$C$DW$T$44)
    2280                            .dwattr $C$DW$T$45, DW_AT_address_class(0x20)
    2281                    
    2282                    $C$DW$T$26      .dwtag  DW_TAG_structure_type
    2283                            .dwattr $C$DW$T$26, DW_AT_byte_size(0x18)
    2284                    $C$DW$226       .dwtag  DW_TAG_member
    2285                            .dwattr $C$DW$226, DW_AT_type(*$C$DW$T$10)
    2286                            .dwattr $C$DW$226, DW_AT_name("fd")
    2287                            .dwattr $C$DW$226, DW_AT_TI_symbol_name("fd")
    2288                            .dwattr $C$DW$226, DW_AT_data_member_location[DW_OP_plus_uconst 0x0]
    2289                            .dwattr $C$DW$226, DW_AT_accessibility(DW_ACCESS_public)
    2290                            .dwattr $C$DW$226, DW_AT_decl_file("C:/VLIB_Tools/CCSV5_4_0/ccsv5/tools/compiler/C6000/include
TMS320C6x Assembler PC v7.4.2 Thu Mar 19 12:43:17 2015

Tools Copyright (c) 1996-2012 Texas Instruments Incorporated
package/lib/Regression/regress_d_c/./../packages/ti/vlib/src/VLIB_lbp/VLIB_lbp_d.se66 PAGE   51

    2291                            .dwattr $C$DW$226, DW_AT_decl_line(0x49)
    2292                            .dwattr $C$DW$226, DW_AT_decl_column(0x0b)
    2293                    $C$DW$227       .dwtag  DW_TAG_member
    2294                            .dwattr $C$DW$227, DW_AT_type(*$C$DW$T$25)
    2295                            .dwattr $C$DW$227, DW_AT_name("buf")
    2296                            .dwattr $C$DW$227, DW_AT_TI_symbol_name("buf")
    2297                            .dwattr $C$DW$227, DW_AT_data_member_location[DW_OP_plus_uconst 0x4]
    2298                            .dwattr $C$DW$227, DW_AT_accessibility(DW_ACCESS_public)
    2299                            .dwattr $C$DW$227, DW_AT_decl_file("C:/VLIB_Tools/CCSV5_4_0/ccsv5/tools/compiler/C6000/include
    2300                            .dwattr $C$DW$227, DW_AT_decl_line(0x4a)
    2301                            .dwattr $C$DW$227, DW_AT_decl_column(0x16)
    2302                    $C$DW$228       .dwtag  DW_TAG_member
    2303                            .dwattr $C$DW$228, DW_AT_type(*$C$DW$T$25)
    2304                            .dwattr $C$DW$228, DW_AT_name("pos")
    2305                            .dwattr $C$DW$228, DW_AT_TI_symbol_name("pos")
    2306                            .dwattr $C$DW$228, DW_AT_data_member_location[DW_OP_plus_uconst 0x8]
    2307                            .dwattr $C$DW$228, DW_AT_accessibility(DW_ACCESS_public)
    2308                            .dwattr $C$DW$228, DW_AT_decl_file("C:/VLIB_Tools/CCSV5_4_0/ccsv5/tools/compiler/C6000/include
    2309                            .dwattr $C$DW$228, DW_AT_decl_line(0x4b)
    2310                            .dwattr $C$DW$228, DW_AT_decl_column(0x16)
    2311                    $C$DW$229       .dwtag  DW_TAG_member
    2312                            .dwattr $C$DW$229, DW_AT_type(*$C$DW$T$25)
    2313                            .dwattr $C$DW$229, DW_AT_name("bufend")
    2314                            .dwattr $C$DW$229, DW_AT_TI_symbol_name("bufend")
    2315                            .dwattr $C$DW$229, DW_AT_data_member_location[DW_OP_plus_uconst 0xc]
    2316                            .dwattr $C$DW$229, DW_AT_accessibility(DW_ACCESS_public)
    2317                            .dwattr $C$DW$229, DW_AT_decl_file("C:/VLIB_Tools/CCSV5_4_0/ccsv5/tools/compiler/C6000/include
    2318                            .dwattr $C$DW$229, DW_AT_decl_line(0x4c)
    2319                            .dwattr $C$DW$229, DW_AT_decl_column(0x16)
    2320                    $C$DW$230       .dwtag  DW_TAG_member
    2321                            .dwattr $C$DW$230, DW_AT_type(*$C$DW$T$25)
    2322                            .dwattr $C$DW$230, DW_AT_name("buff_stop")
    2323                            .dwattr $C$DW$230, DW_AT_TI_symbol_name("buff_stop")
    2324                            .dwattr $C$DW$230, DW_AT_data_member_location[DW_OP_plus_uconst 0x10]
    2325                            .dwattr $C$DW$230, DW_AT_accessibility(DW_ACCESS_public)
    2326                            .dwattr $C$DW$230, DW_AT_decl_file("C:/VLIB_Tools/CCSV5_4_0/ccsv5/tools/compiler/C6000/include
    2327                            .dwattr $C$DW$230, DW_AT_decl_line(0x4d)
    2328                            .dwattr $C$DW$230, DW_AT_decl_column(0x16)
    2329                    $C$DW$231       .dwtag  DW_TAG_member
    2330                            .dwattr $C$DW$231, DW_AT_type(*$C$DW$T$11)
    2331                            .dwattr $C$DW$231, DW_AT_name("flags")
    2332                            .dwattr $C$DW$231, DW_AT_TI_symbol_name("flags")
    2333                            .dwattr $C$DW$231, DW_AT_data_member_location[DW_OP_plus_uconst 0x14]
    2334                            .dwattr $C$DW$231, DW_AT_accessibility(DW_ACCESS_public)
    2335                            .dwattr $C$DW$231, DW_AT_decl_file("C:/VLIB_Tools/CCSV5_4_0/ccsv5/tools/compiler/C6000/include
    2336                            .dwattr $C$DW$231, DW_AT_decl_line(0x4e)
    2337                            .dwattr $C$DW$231, DW_AT_decl_column(0x16)
    2338                            .dwendtag $C$DW$T$26
    2339                    
    2340                            .dwattr $C$DW$T$26, DW_AT_decl_file("C:/VLIB_Tools/CCSV5_4_0/ccsv5/tools/compiler/C6000/includ
    2341                            .dwattr $C$DW$T$26, DW_AT_decl_line(0x48)
    2342                            .dwattr $C$DW$T$26, DW_AT_decl_column(0x10)
    2343                    $C$DW$T$46      .dwtag  DW_TAG_typedef, DW_AT_name("FILE")
    2344                            .dwattr $C$DW$T$46, DW_AT_type(*$C$DW$T$26)
    2345                            .dwattr $C$DW$T$46, DW_AT_language(DW_LANG_C)
TMS320C6x Assembler PC v7.4.2 Thu Mar 19 12:43:17 2015

Tools Copyright (c) 1996-2012 Texas Instruments Incorporated
package/lib/Regression/regress_d_c/./../packages/ti/vlib/src/VLIB_lbp/VLIB_lbp_d.se66 PAGE   52

    2346                            .dwattr $C$DW$T$46, DW_AT_decl_file("C:/VLIB_Tools/CCSV5_4_0/ccsv5/tools/compiler/C6000/includ
    2347                            .dwattr $C$DW$T$46, DW_AT_decl_line(0x4f)
    2348                            .dwattr $C$DW$T$46, DW_AT_decl_column(0x03)
    2349                    
    2350                    $C$DW$T$27      .dwtag  DW_TAG_structure_type
    2351                            .dwattr $C$DW$T$27, DW_AT_byte_size(0x08)
    2352                    $C$DW$232       .dwtag  DW_TAG_member
    2353                            .dwattr $C$DW$232, DW_AT_type(*$C$DW$T$10)
    2354                            .dwattr $C$DW$232, DW_AT_name("quot")
    2355                            .dwattr $C$DW$232, DW_AT_TI_symbol_name("quot")
    2356                            .dwattr $C$DW$232, DW_AT_data_member_location[DW_OP_plus_uconst 0x0]
    2357                            .dwattr $C$DW$232, DW_AT_accessibility(DW_ACCESS_public)
    2358                            .dwattr $C$DW$232, DW_AT_decl_file("C:/VLIB_Tools/CCSV5_4_0/ccsv5/tools/compiler/C6000/include
    2359                            .dwattr $C$DW$232, DW_AT_decl_line(0x3e)
    2360                            .dwattr $C$DW$232, DW_AT_decl_column(0x16)
    2361                    $C$DW$233       .dwtag  DW_TAG_member
    2362                            .dwattr $C$DW$233, DW_AT_type(*$C$DW$T$10)
    2363                            .dwattr $C$DW$233, DW_AT_name("rem")
    2364                            .dwattr $C$DW$233, DW_AT_TI_symbol_name("rem")
    2365                            .dwattr $C$DW$233, DW_AT_data_member_location[DW_OP_plus_uconst 0x4]
    2366                            .dwattr $C$DW$233, DW_AT_accessibility(DW_ACCESS_public)
    2367                            .dwattr $C$DW$233, DW_AT_decl_file("C:/VLIB_Tools/CCSV5_4_0/ccsv5/tools/compiler/C6000/include
    2368                            .dwattr $C$DW$233, DW_AT_decl_line(0x3e)
    2369                            .dwattr $C$DW$233, DW_AT_decl_column(0x1c)
    2370                            .dwendtag $C$DW$T$27
    2371                    
    2372                            .dwattr $C$DW$T$27, DW_AT_decl_file("C:/VLIB_Tools/CCSV5_4_0/ccsv5/tools/compiler/C6000/includ
    2373                            .dwattr $C$DW$T$27, DW_AT_decl_line(0x3e)
    2374                            .dwattr $C$DW$T$27, DW_AT_decl_column(0x10)
    2375                    $C$DW$T$47      .dwtag  DW_TAG_typedef, DW_AT_name("div_t")
    2376                            .dwattr $C$DW$T$47, DW_AT_type(*$C$DW$T$27)
    2377                            .dwattr $C$DW$T$47, DW_AT_language(DW_LANG_C)
    2378                            .dwattr $C$DW$T$47, DW_AT_decl_file("C:/VLIB_Tools/CCSV5_4_0/ccsv5/tools/compiler/C6000/includ
    2379                            .dwattr $C$DW$T$47, DW_AT_decl_line(0x3e)
    2380                            .dwattr $C$DW$T$47, DW_AT_decl_column(0x23)
    2381                    
    2382                    $C$DW$T$28      .dwtag  DW_TAG_structure_type
    2383                            .dwattr $C$DW$T$28, DW_AT_byte_size(0x08)
    2384                    $C$DW$234       .dwtag  DW_TAG_member
    2385                            .dwattr $C$DW$234, DW_AT_type(*$C$DW$T$10)
    2386                            .dwattr $C$DW$234, DW_AT_name("quot")
    2387                            .dwattr $C$DW$234, DW_AT_TI_symbol_name("quot")
    2388                            .dwattr $C$DW$234, DW_AT_data_member_location[DW_OP_plus_uconst 0x0]
    2389                            .dwattr $C$DW$234, DW_AT_accessibility(DW_ACCESS_public)
    2390                            .dwattr $C$DW$234, DW_AT_decl_file("C:/VLIB_Tools/CCSV5_4_0/ccsv5/tools/compiler/C6000/include
    2391                            .dwattr $C$DW$234, DW_AT_decl_line(0x40)
    2392                            .dwattr $C$DW$234, DW_AT_decl_column(0x17)
    2393                    $C$DW$235       .dwtag  DW_TAG_member
    2394                            .dwattr $C$DW$235, DW_AT_type(*$C$DW$T$10)
    2395                            .dwattr $C$DW$235, DW_AT_name("rem")
    2396                            .dwattr $C$DW$235, DW_AT_TI_symbol_name("rem")
    2397                            .dwattr $C$DW$235, DW_AT_data_member_location[DW_OP_plus_uconst 0x4]
    2398                            .dwattr $C$DW$235, DW_AT_accessibility(DW_ACCESS_public)
    2399                            .dwattr $C$DW$235, DW_AT_decl_file("C:/VLIB_Tools/CCSV5_4_0/ccsv5/tools/compiler/C6000/include
    2400                            .dwattr $C$DW$235, DW_AT_decl_line(0x40)
TMS320C6x Assembler PC v7.4.2 Thu Mar 19 12:43:17 2015

Tools Copyright (c) 1996-2012 Texas Instruments Incorporated
package/lib/Regression/regress_d_c/./../packages/ti/vlib/src/VLIB_lbp/VLIB_lbp_d.se66 PAGE   53

    2401                            .dwattr $C$DW$235, DW_AT_decl_column(0x1d)
    2402                            .dwendtag $C$DW$T$28
    2403                    
    2404                            .dwattr $C$DW$T$28, DW_AT_decl_file("C:/VLIB_Tools/CCSV5_4_0/ccsv5/tools/compiler/C6000/includ
    2405                            .dwattr $C$DW$T$28, DW_AT_decl_line(0x40)
    2406                            .dwattr $C$DW$T$28, DW_AT_decl_column(0x10)
    2407                    $C$DW$T$48      .dwtag  DW_TAG_typedef, DW_AT_name("ldiv_t")
    2408                            .dwattr $C$DW$T$48, DW_AT_type(*$C$DW$T$28)
    2409                            .dwattr $C$DW$T$48, DW_AT_language(DW_LANG_C)
    2410                            .dwattr $C$DW$T$48, DW_AT_decl_file("C:/VLIB_Tools/CCSV5_4_0/ccsv5/tools/compiler/C6000/includ
    2411                            .dwattr $C$DW$T$48, DW_AT_decl_line(0x40)
    2412                            .dwattr $C$DW$T$48, DW_AT_decl_column(0x24)
    2413                    
    2414                    $C$DW$T$29      .dwtag  DW_TAG_structure_type
    2415                            .dwattr $C$DW$T$29, DW_AT_byte_size(0x10)
    2416                    $C$DW$236       .dwtag  DW_TAG_member
    2417                            .dwattr $C$DW$236, DW_AT_type(*$C$DW$T$14)
    2418                            .dwattr $C$DW$236, DW_AT_name("quot")
    2419                            .dwattr $C$DW$236, DW_AT_TI_symbol_name("quot")
    2420                            .dwattr $C$DW$236, DW_AT_data_member_location[DW_OP_plus_uconst 0x0]
    2421                            .dwattr $C$DW$236, DW_AT_accessibility(DW_ACCESS_public)
    2422                            .dwattr $C$DW$236, DW_AT_decl_file("C:/VLIB_Tools/CCSV5_4_0/ccsv5/tools/compiler/C6000/include
    2423                            .dwattr $C$DW$236, DW_AT_decl_line(0x43)
    2424                            .dwattr $C$DW$236, DW_AT_decl_column(0x1c)
    2425                    $C$DW$237       .dwtag  DW_TAG_member
    2426                            .dwattr $C$DW$237, DW_AT_type(*$C$DW$T$14)
    2427                            .dwattr $C$DW$237, DW_AT_name("rem")
    2428                            .dwattr $C$DW$237, DW_AT_TI_symbol_name("rem")
    2429                            .dwattr $C$DW$237, DW_AT_data_member_location[DW_OP_plus_uconst 0x8]
    2430                            .dwattr $C$DW$237, DW_AT_accessibility(DW_ACCESS_public)
    2431                            .dwattr $C$DW$237, DW_AT_decl_file("C:/VLIB_Tools/CCSV5_4_0/ccsv5/tools/compiler/C6000/include
    2432                            .dwattr $C$DW$237, DW_AT_decl_line(0x43)
    2433                            .dwattr $C$DW$237, DW_AT_decl_column(0x22)
    2434                            .dwendtag $C$DW$T$29
    2435                    
    2436                            .dwattr $C$DW$T$29, DW_AT_decl_file("C:/VLIB_Tools/CCSV5_4_0/ccsv5/tools/compiler/C6000/includ
    2437                            .dwattr $C$DW$T$29, DW_AT_decl_line(0x43)
    2438                            .dwattr $C$DW$T$29, DW_AT_decl_column(0x10)
    2439                    $C$DW$T$49      .dwtag  DW_TAG_typedef, DW_AT_name("lldiv_t")
    2440                            .dwattr $C$DW$T$49, DW_AT_type(*$C$DW$T$29)
    2441                            .dwattr $C$DW$T$49, DW_AT_language(DW_LANG_C)
    2442                            .dwattr $C$DW$T$49, DW_AT_decl_file("C:/VLIB_Tools/CCSV5_4_0/ccsv5/tools/compiler/C6000/includ
    2443                            .dwattr $C$DW$T$49, DW_AT_decl_line(0x43)
    2444                            .dwattr $C$DW$T$49, DW_AT_decl_column(0x29)
    2445                    
    2446                    $C$DW$T$30      .dwtag  DW_TAG_structure_type
    2447                            .dwattr $C$DW$T$30, DW_AT_byte_size(0x24)
    2448                    $C$DW$238       .dwtag  DW_TAG_member
    2449                            .dwattr $C$DW$238, DW_AT_type(*$C$DW$T$23)
    2450                            .dwattr $C$DW$238, DW_AT_name("area")
    2451                            .dwattr $C$DW$238, DW_AT_TI_symbol_name("area")
    2452                            .dwattr $C$DW$238, DW_AT_data_member_location[DW_OP_plus_uconst 0x0]
    2453                            .dwattr $C$DW$238, DW_AT_accessibility(DW_ACCESS_public)
    2454                            .dwattr $C$DW$238, DW_AT_decl_file(".\..\packages\ti\vlib\src\VLIB_lbp\..\common\c66/VLIB_type
    2455                            .dwattr $C$DW$238, DW_AT_decl_line(0x69)
TMS320C6x Assembler PC v7.4.2 Thu Mar 19 12:43:17 2015

Tools Copyright (c) 1996-2012 Texas Instruments Incorporated
package/lib/Regression/regress_d_c/./../packages/ti/vlib/src/VLIB_lbp/VLIB_lbp_d.se66 PAGE   54

    2456                            .dwattr $C$DW$238, DW_AT_decl_column(0x0d)
    2457                    $C$DW$239       .dwtag  DW_TAG_member
    2458                            .dwattr $C$DW$239, DW_AT_type(*$C$DW$T$23)
    2459                            .dwattr $C$DW$239, DW_AT_name("xsum")
    2460                            .dwattr $C$DW$239, DW_AT_TI_symbol_name("xsum")
    2461                            .dwattr $C$DW$239, DW_AT_data_member_location[DW_OP_plus_uconst 0x4]
    2462                            .dwattr $C$DW$239, DW_AT_accessibility(DW_ACCESS_public)
    2463                            .dwattr $C$DW$239, DW_AT_decl_file(".\..\packages\ti\vlib\src\VLIB_lbp\..\common\c66/VLIB_type
    2464                            .dwattr $C$DW$239, DW_AT_decl_line(0x6a)
    2465                            .dwattr $C$DW$239, DW_AT_decl_column(0x0d)
    2466                    $C$DW$240       .dwtag  DW_TAG_member
    2467                            .dwattr $C$DW$240, DW_AT_type(*$C$DW$T$23)
    2468                            .dwattr $C$DW$240, DW_AT_name("ysum")
    2469                            .dwattr $C$DW$240, DW_AT_TI_symbol_name("ysum")
    2470                            .dwattr $C$DW$240, DW_AT_data_member_location[DW_OP_plus_uconst 0x8]
    2471                            .dwattr $C$DW$240, DW_AT_accessibility(DW_ACCESS_public)
    2472                            .dwattr $C$DW$240, DW_AT_decl_file(".\..\packages\ti\vlib\src\VLIB_lbp\..\common\c66/VLIB_type
    2473                            .dwattr $C$DW$240, DW_AT_decl_line(0x6b)
    2474                            .dwattr $C$DW$240, DW_AT_decl_column(0x0d)
    2475                    $C$DW$241       .dwtag  DW_TAG_member
    2476                            .dwattr $C$DW$241, DW_AT_type(*$C$DW$T$23)
    2477                            .dwattr $C$DW$241, DW_AT_name("xmin")
    2478                            .dwattr $C$DW$241, DW_AT_TI_symbol_name("xmin")
    2479                            .dwattr $C$DW$241, DW_AT_data_member_location[DW_OP_plus_uconst 0xc]
    2480                            .dwattr $C$DW$241, DW_AT_accessibility(DW_ACCESS_public)
    2481                            .dwattr $C$DW$241, DW_AT_decl_file(".\..\packages\ti\vlib\src\VLIB_lbp\..\common\c66/VLIB_type
    2482                            .dwattr $C$DW$241, DW_AT_decl_line(0x6d)
    2483                            .dwattr $C$DW$241, DW_AT_decl_column(0x0d)
    2484                    $C$DW$242       .dwtag  DW_TAG_member
    2485                            .dwattr $C$DW$242, DW_AT_type(*$C$DW$T$23)
    2486                            .dwattr $C$DW$242, DW_AT_name("ymin")
    2487                            .dwattr $C$DW$242, DW_AT_TI_symbol_name("ymin")
    2488                            .dwattr $C$DW$242, DW_AT_data_member_location[DW_OP_plus_uconst 0x10]
    2489                            .dwattr $C$DW$242, DW_AT_accessibility(DW_ACCESS_public)
    2490                            .dwattr $C$DW$242, DW_AT_decl_file(".\..\packages\ti\vlib\src\VLIB_lbp\..\common\c66/VLIB_type
    2491                            .dwattr $C$DW$242, DW_AT_decl_line(0x6e)
    2492                            .dwattr $C$DW$242, DW_AT_decl_column(0x0d)
    2493                    $C$DW$243       .dwtag  DW_TAG_member
    2494                            .dwattr $C$DW$243, DW_AT_type(*$C$DW$T$23)
    2495                            .dwattr $C$DW$243, DW_AT_name("xmax")
    2496                            .dwattr $C$DW$243, DW_AT_TI_symbol_name("xmax")
    2497                            .dwattr $C$DW$243, DW_AT_data_member_location[DW_OP_plus_uconst 0x14]
    2498                            .dwattr $C$DW$243, DW_AT_accessibility(DW_ACCESS_public)
    2499                            .dwattr $C$DW$243, DW_AT_decl_file(".\..\packages\ti\vlib\src\VLIB_lbp\..\common\c66/VLIB_type
    2500                            .dwattr $C$DW$243, DW_AT_decl_line(0x6f)
    2501                            .dwattr $C$DW$243, DW_AT_decl_column(0x0d)
    2502                    $C$DW$244       .dwtag  DW_TAG_member
    2503                            .dwattr $C$DW$244, DW_AT_type(*$C$DW$T$23)
    2504                            .dwattr $C$DW$244, DW_AT_name("ymax")
    2505                            .dwattr $C$DW$244, DW_AT_TI_symbol_name("ymax")
    2506                            .dwattr $C$DW$244, DW_AT_data_member_location[DW_OP_plus_uconst 0x18]
    2507                            .dwattr $C$DW$244, DW_AT_accessibility(DW_ACCESS_public)
    2508                            .dwattr $C$DW$244, DW_AT_decl_file(".\..\packages\ti\vlib\src\VLIB_lbp\..\common\c66/VLIB_type
    2509                            .dwattr $C$DW$244, DW_AT_decl_line(0x70)
    2510                            .dwattr $C$DW$244, DW_AT_decl_column(0x0d)
TMS320C6x Assembler PC v7.4.2 Thu Mar 19 12:43:17 2015

Tools Copyright (c) 1996-2012 Texas Instruments Incorporated
package/lib/Regression/regress_d_c/./../packages/ti/vlib/src/VLIB_lbp/VLIB_lbp_d.se66 PAGE   55

    2511                    $C$DW$245       .dwtag  DW_TAG_member
    2512                            .dwattr $C$DW$245, DW_AT_type(*$C$DW$T$23)
    2513                            .dwattr $C$DW$245, DW_AT_name("seedx")
    2514                            .dwattr $C$DW$245, DW_AT_TI_symbol_name("seedx")
    2515                            .dwattr $C$DW$245, DW_AT_data_member_location[DW_OP_plus_uconst 0x1c]
    2516                            .dwattr $C$DW$245, DW_AT_accessibility(DW_ACCESS_public)
    2517                            .dwattr $C$DW$245, DW_AT_decl_file(".\..\packages\ti\vlib\src\VLIB_lbp\..\common\c66/VLIB_type
    2518                            .dwattr $C$DW$245, DW_AT_decl_line(0x72)
    2519                            .dwattr $C$DW$245, DW_AT_decl_column(0x0d)
    2520                    $C$DW$246       .dwtag  DW_TAG_member
    2521                            .dwattr $C$DW$246, DW_AT_type(*$C$DW$T$23)
    2522                            .dwattr $C$DW$246, DW_AT_name("seedy")
    2523                            .dwattr $C$DW$246, DW_AT_TI_symbol_name("seedy")
    2524                            .dwattr $C$DW$246, DW_AT_data_member_location[DW_OP_plus_uconst 0x20]
    2525                            .dwattr $C$DW$246, DW_AT_accessibility(DW_ACCESS_public)
    2526                            .dwattr $C$DW$246, DW_AT_decl_file(".\..\packages\ti\vlib\src\VLIB_lbp\..\common\c66/VLIB_type
    2527                            .dwattr $C$DW$246, DW_AT_decl_line(0x73)
    2528                            .dwattr $C$DW$246, DW_AT_decl_column(0x0d)
    2529                            .dwendtag $C$DW$T$30
    2530                    
    2531                            .dwattr $C$DW$T$30, DW_AT_decl_file(".\..\packages\ti\vlib\src\VLIB_lbp\..\common\c66/VLIB_typ
    2532                            .dwattr $C$DW$T$30, DW_AT_decl_line(0x68)
    2533                            .dwattr $C$DW$T$30, DW_AT_decl_column(0x10)
    2534                    $C$DW$T$50      .dwtag  DW_TAG_typedef, DW_AT_name("VLIB_CC")
    2535                            .dwattr $C$DW$T$50, DW_AT_type(*$C$DW$T$30)
    2536                            .dwattr $C$DW$T$50, DW_AT_language(DW_LANG_C)
    2537                            .dwattr $C$DW$T$50, DW_AT_decl_file(".\..\packages\ti\vlib\src\VLIB_lbp\..\common\c66/VLIB_typ
    2538                            .dwattr $C$DW$T$50, DW_AT_decl_line(0x75)
    2539                            .dwattr $C$DW$T$50, DW_AT_decl_column(0x03)
    2540                    
    2541                    $C$DW$T$33      .dwtag  DW_TAG_structure_type
    2542                            .dwattr $C$DW$T$33, DW_AT_byte_size(0x10)
    2543                    $C$DW$247       .dwtag  DW_TAG_member
    2544                            .dwattr $C$DW$247, DW_AT_type(*$C$DW$T$8)
    2545                            .dwattr $C$DW$247, DW_AT_name("daylight")
    2546                            .dwattr $C$DW$247, DW_AT_TI_symbol_name("daylight")
    2547                            .dwattr $C$DW$247, DW_AT_data_member_location[DW_OP_plus_uconst 0x0]
    2548                            .dwattr $C$DW$247, DW_AT_accessibility(DW_ACCESS_public)
    2549                            .dwattr $C$DW$247, DW_AT_decl_file("C:/VLIB_Tools/CCSV5_4_0/ccsv5/tools/compiler/C6000/include
    2550                            .dwattr $C$DW$247, DW_AT_decl_line(0x52)
    2551                            .dwattr $C$DW$247, DW_AT_decl_column(0x0b)
    2552                    $C$DW$248       .dwtag  DW_TAG_member
    2553                            .dwattr $C$DW$248, DW_AT_type(*$C$DW$T$10)
    2554                            .dwattr $C$DW$248, DW_AT_name("timezone")
    2555                            .dwattr $C$DW$248, DW_AT_TI_symbol_name("timezone")
    2556                            .dwattr $C$DW$248, DW_AT_data_member_location[DW_OP_plus_uconst 0x4]
    2557                            .dwattr $C$DW$248, DW_AT_accessibility(DW_ACCESS_public)
    2558                            .dwattr $C$DW$248, DW_AT_decl_file("C:/VLIB_Tools/CCSV5_4_0/ccsv5/tools/compiler/C6000/include
    2559                            .dwattr $C$DW$248, DW_AT_decl_line(0x53)
    2560                            .dwattr $C$DW$248, DW_AT_decl_column(0x0b)
    2561                    $C$DW$249       .dwtag  DW_TAG_member
    2562                            .dwattr $C$DW$249, DW_AT_type(*$C$DW$T$32)
    2563                            .dwattr $C$DW$249, DW_AT_name("tzname")
    2564                            .dwattr $C$DW$249, DW_AT_TI_symbol_name("tzname")
    2565                            .dwattr $C$DW$249, DW_AT_data_member_location[DW_OP_plus_uconst 0x8]
TMS320C6x Assembler PC v7.4.2 Thu Mar 19 12:43:17 2015

Tools Copyright (c) 1996-2012 Texas Instruments Incorporated
package/lib/Regression/regress_d_c/./../packages/ti/vlib/src/VLIB_lbp/VLIB_lbp_d.se66 PAGE   56

    2566                            .dwattr $C$DW$249, DW_AT_accessibility(DW_ACCESS_public)
    2567                            .dwattr $C$DW$249, DW_AT_decl_file("C:/VLIB_Tools/CCSV5_4_0/ccsv5/tools/compiler/C6000/include
    2568                            .dwattr $C$DW$249, DW_AT_decl_line(0x54)
    2569                            .dwattr $C$DW$249, DW_AT_decl_column(0x0b)
    2570                    $C$DW$250       .dwtag  DW_TAG_member
    2571                            .dwattr $C$DW$250, DW_AT_type(*$C$DW$T$32)
    2572                            .dwattr $C$DW$250, DW_AT_name("dstname")
    2573                            .dwattr $C$DW$250, DW_AT_TI_symbol_name("dstname")
    2574                            .dwattr $C$DW$250, DW_AT_data_member_location[DW_OP_plus_uconst 0xc]
    2575                            .dwattr $C$DW$250, DW_AT_accessibility(DW_ACCESS_public)
    2576                            .dwattr $C$DW$250, DW_AT_decl_file("C:/VLIB_Tools/CCSV5_4_0/ccsv5/tools/compiler/C6000/include
    2577                            .dwattr $C$DW$250, DW_AT_decl_line(0x55)
    2578                            .dwattr $C$DW$250, DW_AT_decl_column(0x0b)
    2579                            .dwendtag $C$DW$T$33
    2580                    
    2581                            .dwattr $C$DW$T$33, DW_AT_decl_file("C:/VLIB_Tools/CCSV5_4_0/ccsv5/tools/compiler/C6000/includ
    2582                            .dwattr $C$DW$T$33, DW_AT_decl_line(0x51)
    2583                            .dwattr $C$DW$T$33, DW_AT_decl_column(0x01)
    2584                    $C$DW$T$51      .dwtag  DW_TAG_typedef, DW_AT_name("TZ")
    2585                            .dwattr $C$DW$T$51, DW_AT_type(*$C$DW$T$33)
    2586                            .dwattr $C$DW$T$51, DW_AT_language(DW_LANG_C)
    2587                            .dwattr $C$DW$T$51, DW_AT_decl_file("C:/VLIB_Tools/CCSV5_4_0/ccsv5/tools/compiler/C6000/includ
    2588                            .dwattr $C$DW$T$51, DW_AT_decl_line(0x56)
    2589                            .dwattr $C$DW$T$51, DW_AT_decl_column(0x03)
    2590                    $C$DW$T$2       .dwtag  DW_TAG_unspecified_type
    2591                            .dwattr $C$DW$T$2, DW_AT_name("void")
    2592                    $C$DW$T$3       .dwtag  DW_TAG_pointer_type
    2593                            .dwattr $C$DW$T$3, DW_AT_type(*$C$DW$T$2)
    2594                            .dwattr $C$DW$T$3, DW_AT_address_class(0x20)
    2595                    $C$DW$T$52      .dwtag  DW_TAG_typedef, DW_AT_name("VLIB_PTR")
    2596                            .dwattr $C$DW$T$52, DW_AT_type(*$C$DW$T$3)
    2597                            .dwattr $C$DW$T$52, DW_AT_language(DW_LANG_C)
    2598                            .dwattr $C$DW$T$52, DW_AT_decl_file(".\..\packages\ti\vlib\src\VLIB_lbp\..\common\c66/VLIB_typ
    2599                            .dwattr $C$DW$T$52, DW_AT_decl_line(0x5c)
    2600                            .dwattr $C$DW$T$52, DW_AT_decl_column(0x19)
    2601                    $C$DW$T$4       .dwtag  DW_TAG_base_type
    2602                            .dwattr $C$DW$T$4, DW_AT_encoding(DW_ATE_boolean)
    2603                            .dwattr $C$DW$T$4, DW_AT_name("bool")
    2604                            .dwattr $C$DW$T$4, DW_AT_byte_size(0x01)
    2605                    $C$DW$T$5       .dwtag  DW_TAG_base_type
    2606                            .dwattr $C$DW$T$5, DW_AT_encoding(DW_ATE_signed_char)
    2607                            .dwattr $C$DW$T$5, DW_AT_name("signed char")
    2608                            .dwattr $C$DW$T$5, DW_AT_byte_size(0x01)
    2609                    $C$DW$T$90      .dwtag  DW_TAG_pointer_type
    2610                            .dwattr $C$DW$T$90, DW_AT_type(*$C$DW$T$5)
    2611                            .dwattr $C$DW$T$90, DW_AT_address_class(0x20)
    2612                    $C$DW$T$102     .dwtag  DW_TAG_typedef, DW_AT_name("int8_t")
    2613                            .dwattr $C$DW$T$102, DW_AT_type(*$C$DW$T$5)
    2614                            .dwattr $C$DW$T$102, DW_AT_language(DW_LANG_C)
    2615                            .dwattr $C$DW$T$102, DW_AT_decl_file("C:/VLIB_Tools/CCSV5_4_0/ccsv5/tools/compiler/C6000/inclu
    2616                            .dwattr $C$DW$T$102, DW_AT_decl_line(0x2a)
    2617                            .dwattr $C$DW$T$102, DW_AT_decl_column(0x1d)
    2618                    $C$DW$T$103     .dwtag  DW_TAG_typedef, DW_AT_name("int_least8_t")
    2619                            .dwattr $C$DW$T$103, DW_AT_type(*$C$DW$T$102)
    2620                            .dwattr $C$DW$T$103, DW_AT_language(DW_LANG_C)
TMS320C6x Assembler PC v7.4.2 Thu Mar 19 12:43:17 2015

Tools Copyright (c) 1996-2012 Texas Instruments Incorporated
package/lib/Regression/regress_d_c/./../packages/ti/vlib/src/VLIB_lbp/VLIB_lbp_d.se66 PAGE   57

    2621                            .dwattr $C$DW$T$103, DW_AT_decl_file("C:/VLIB_Tools/CCSV5_4_0/ccsv5/tools/compiler/C6000/inclu
    2622                            .dwattr $C$DW$T$103, DW_AT_decl_line(0x39)
    2623                            .dwattr $C$DW$T$103, DW_AT_decl_column(0x17)
    2624                    $C$DW$T$6       .dwtag  DW_TAG_base_type
    2625                            .dwattr $C$DW$T$6, DW_AT_encoding(DW_ATE_unsigned_char)
    2626                            .dwattr $C$DW$T$6, DW_AT_name("unsigned char")
    2627                            .dwattr $C$DW$T$6, DW_AT_byte_size(0x01)
    2628                    $C$DW$T$25      .dwtag  DW_TAG_pointer_type
    2629                            .dwattr $C$DW$T$25, DW_AT_type(*$C$DW$T$6)
    2630                            .dwattr $C$DW$T$25, DW_AT_address_class(0x20)
    2631                    $C$DW$T$19      .dwtag  DW_TAG_typedef, DW_AT_name("uint8_t")
    2632                            .dwattr $C$DW$T$19, DW_AT_type(*$C$DW$T$6)
    2633                            .dwattr $C$DW$T$19, DW_AT_language(DW_LANG_C)
    2634                            .dwattr $C$DW$T$19, DW_AT_decl_file("C:/VLIB_Tools/CCSV5_4_0/ccsv5/tools/compiler/C6000/includ
    2635                            .dwattr $C$DW$T$19, DW_AT_decl_line(0x2b)
    2636                            .dwattr $C$DW$T$19, DW_AT_decl_column(0x1c)
    2637                    $C$DW$T$20      .dwtag  DW_TAG_pointer_type
    2638                            .dwattr $C$DW$T$20, DW_AT_type(*$C$DW$T$19)
    2639                            .dwattr $C$DW$T$20, DW_AT_address_class(0x20)
    2640                    $C$DW$T$80      .dwtag  DW_TAG_restrict_type
    2641                            .dwattr $C$DW$T$80, DW_AT_type(*$C$DW$T$20)
    2642                    $C$DW$T$77      .dwtag  DW_TAG_const_type
    2643                            .dwattr $C$DW$T$77, DW_AT_type(*$C$DW$T$19)
    2644                    $C$DW$T$78      .dwtag  DW_TAG_pointer_type
    2645                            .dwattr $C$DW$T$78, DW_AT_type(*$C$DW$T$77)
    2646                            .dwattr $C$DW$T$78, DW_AT_address_class(0x20)
    2647                    $C$DW$T$79      .dwtag  DW_TAG_restrict_type
    2648                            .dwattr $C$DW$T$79, DW_AT_type(*$C$DW$T$78)
    2649                    $C$DW$T$104     .dwtag  DW_TAG_typedef, DW_AT_name("uint_least8_t")
    2650                            .dwattr $C$DW$T$104, DW_AT_type(*$C$DW$T$19)
    2651                            .dwattr $C$DW$T$104, DW_AT_language(DW_LANG_C)
    2652                            .dwattr $C$DW$T$104, DW_AT_decl_file("C:/VLIB_Tools/CCSV5_4_0/ccsv5/tools/compiler/C6000/inclu
    2653                            .dwattr $C$DW$T$104, DW_AT_decl_line(0x3a)
    2654                            .dwattr $C$DW$T$104, DW_AT_decl_column(0x16)
    2655                    $C$DW$T$7       .dwtag  DW_TAG_base_type
    2656                            .dwattr $C$DW$T$7, DW_AT_encoding(DW_ATE_signed_char)
    2657                            .dwattr $C$DW$T$7, DW_AT_name("wchar_t")
    2658                            .dwattr $C$DW$T$7, DW_AT_byte_size(0x02)
    2659                    $C$DW$T$8       .dwtag  DW_TAG_base_type
    2660                            .dwattr $C$DW$T$8, DW_AT_encoding(DW_ATE_signed)
    2661                            .dwattr $C$DW$T$8, DW_AT_name("short")
    2662                            .dwattr $C$DW$T$8, DW_AT_byte_size(0x02)
    2663                    $C$DW$T$105     .dwtag  DW_TAG_typedef, DW_AT_name("int16_t")
    2664                            .dwattr $C$DW$T$105, DW_AT_type(*$C$DW$T$8)
    2665                            .dwattr $C$DW$T$105, DW_AT_language(DW_LANG_C)
    2666                            .dwattr $C$DW$T$105, DW_AT_decl_file("C:/VLIB_Tools/CCSV5_4_0/ccsv5/tools/compiler/C6000/inclu
    2667                            .dwattr $C$DW$T$105, DW_AT_decl_line(0x2c)
    2668                            .dwattr $C$DW$T$105, DW_AT_decl_column(0x1d)
    2669                    $C$DW$T$106     .dwtag  DW_TAG_typedef, DW_AT_name("int_least16_t")
    2670                            .dwattr $C$DW$T$106, DW_AT_type(*$C$DW$T$105)
    2671                            .dwattr $C$DW$T$106, DW_AT_language(DW_LANG_C)
    2672                            .dwattr $C$DW$T$106, DW_AT_decl_file("C:/VLIB_Tools/CCSV5_4_0/ccsv5/tools/compiler/C6000/inclu
    2673                            .dwattr $C$DW$T$106, DW_AT_decl_line(0x3c)
    2674                            .dwattr $C$DW$T$106, DW_AT_decl_column(0x17)
    2675                    $C$DW$T$9       .dwtag  DW_TAG_base_type
TMS320C6x Assembler PC v7.4.2 Thu Mar 19 12:43:17 2015

Tools Copyright (c) 1996-2012 Texas Instruments Incorporated
package/lib/Regression/regress_d_c/./../packages/ti/vlib/src/VLIB_lbp/VLIB_lbp_d.se66 PAGE   58

    2676                            .dwattr $C$DW$T$9, DW_AT_encoding(DW_ATE_unsigned)
    2677                            .dwattr $C$DW$T$9, DW_AT_name("unsigned short")
    2678                            .dwattr $C$DW$T$9, DW_AT_byte_size(0x02)
    2679                    $C$DW$T$74      .dwtag  DW_TAG_typedef, DW_AT_name("uint16_t")
    2680                            .dwattr $C$DW$T$74, DW_AT_type(*$C$DW$T$9)
    2681                            .dwattr $C$DW$T$74, DW_AT_language(DW_LANG_C)
    2682                            .dwattr $C$DW$T$74, DW_AT_decl_file("C:/VLIB_Tools/CCSV5_4_0/ccsv5/tools/compiler/C6000/includ
    2683                            .dwattr $C$DW$T$74, DW_AT_decl_line(0x2d)
    2684                            .dwattr $C$DW$T$74, DW_AT_decl_column(0x1c)
    2685                    $C$DW$T$108     .dwtag  DW_TAG_typedef, DW_AT_name("uint_least16_t")
    2686                            .dwattr $C$DW$T$108, DW_AT_type(*$C$DW$T$74)
    2687                            .dwattr $C$DW$T$108, DW_AT_language(DW_LANG_C)
    2688                            .dwattr $C$DW$T$108, DW_AT_decl_file("C:/VLIB_Tools/CCSV5_4_0/ccsv5/tools/compiler/C6000/inclu
    2689                            .dwattr $C$DW$T$108, DW_AT_decl_line(0x3d)
    2690                            .dwattr $C$DW$T$108, DW_AT_decl_column(0x16)
    2691                    $C$DW$T$107     .dwtag  DW_TAG_typedef, DW_AT_name("wchar_t")
    2692                            .dwattr $C$DW$T$107, DW_AT_type(*$C$DW$T$9)
    2693                            .dwattr $C$DW$T$107, DW_AT_language(DW_LANG_C)
    2694                            .dwattr $C$DW$T$107, DW_AT_decl_file("C:/VLIB_Tools/CCSV5_4_0/ccsv5/tools/compiler/C6000/inclu
    2695                            .dwattr $C$DW$T$107, DW_AT_decl_line(0x53)
    2696                            .dwattr $C$DW$T$107, DW_AT_decl_column(0x1a)
    2697                    $C$DW$T$10      .dwtag  DW_TAG_base_type
    2698                            .dwattr $C$DW$T$10, DW_AT_encoding(DW_ATE_signed)
    2699                            .dwattr $C$DW$T$10, DW_AT_name("int")
    2700                            .dwattr $C$DW$T$10, DW_AT_byte_size(0x04)
    2701                    $C$DW$T$127     .dwtag  DW_TAG_typedef, DW_AT_name("fpos_t")
    2702                            .dwattr $C$DW$T$127, DW_AT_type(*$C$DW$T$10)
    2703                            .dwattr $C$DW$T$127, DW_AT_language(DW_LANG_C)
    2704                            .dwattr $C$DW$T$127, DW_AT_decl_file("C:/VLIB_Tools/CCSV5_4_0/ccsv5/tools/compiler/C6000/inclu
    2705                            .dwattr $C$DW$T$127, DW_AT_decl_line(0x53)
    2706                            .dwattr $C$DW$T$127, DW_AT_decl_column(0x0d)
    2707                    $C$DW$T$23      .dwtag  DW_TAG_typedef, DW_AT_name("int32_t")
    2708                            .dwattr $C$DW$T$23, DW_AT_type(*$C$DW$T$10)
    2709                            .dwattr $C$DW$T$23, DW_AT_language(DW_LANG_C)
    2710                            .dwattr $C$DW$T$23, DW_AT_decl_file("C:/VLIB_Tools/CCSV5_4_0/ccsv5/tools/compiler/C6000/includ
    2711                            .dwattr $C$DW$T$23, DW_AT_decl_line(0x2e)
    2712                            .dwattr $C$DW$T$23, DW_AT_decl_column(0x1d)
    2713                    $C$DW$T$120     .dwtag  DW_TAG_typedef, DW_AT_name("VLIB_CCHandle")
    2714                            .dwattr $C$DW$T$120, DW_AT_type(*$C$DW$T$23)
    2715                            .dwattr $C$DW$T$120, DW_AT_language(DW_LANG_C)
    2716                            .dwattr $C$DW$T$120, DW_AT_decl_file(".\..\packages\ti\vlib\src\VLIB_lbp\..\common\c66/VLIB_ty
    2717                            .dwattr $C$DW$T$120, DW_AT_decl_line(0x77)
    2718                            .dwattr $C$DW$T$120, DW_AT_decl_column(0x11)
    2719                    
    2720                    $C$DW$T$34      .dwtag  DW_TAG_array_type
    2721                            .dwattr $C$DW$T$34, DW_AT_type(*$C$DW$T$23)
    2722                            .dwattr $C$DW$T$34, DW_AT_language(DW_LANG_C)
    2723                            .dwattr $C$DW$T$34, DW_AT_byte_size(0x10)
    2724                    $C$DW$251       .dwtag  DW_TAG_subrange_type
