TMS320C6x Assembler PC v7.4.2 Thu Mar 19 12:42:25 2015

Tools Copyright (c) 1996-2012 Texas Instruments Incorporated
package/lib/Regression/regress_d_c/./../packages/ti/vlib/src/VLIB_initUYVYint_to_LABpl_LUT/VLIB_initUYVYint_to_LABpl_LUT_d.se66 PAGE    1

       1                    ;******************************************************************************
       2                    ;* TMS320C6x C/C++ Codegen                                          PC v7.4.2 *
       3                    ;* Date/Time created: Thu Mar 19 12:42:24 2015                                *
       4                    ;******************************************************************************
       5                            .compiler_opts --abi=eabi --c64p_l1d_workaround=off --endian=little --hll_source=on --long_pre
       6                    
       7                    ;******************************************************************************
       8                    ;* GLOBAL FILE PARAMETERS                                                     *
       9                    ;*                                                                            *
      10                    ;*   Architecture      : TMS320C66xx                                          *
      11                    ;*   Optimization      : Enabled at level 3                                   *
      12                    ;*   Optimizing for    : Speed                                                *
      13                    ;*                       Based on options: -o3, no -ms                        *
      14                    ;*   Endian            : Little                                               *
      15                    ;*   Interrupt Thrshld : 10000                                                *
      16                    ;*   Data Access Model : Far                                                  *
      17                    ;*   Pipelining        : Enabled                                              *
      18                    ;*   Speculate Loads   : Enabled with threshold = 0                           *
      19                    ;*   Memory Aliases    : Presume are aliases (pessimistic)                    *
      20                    ;*   Debug Info        : DWARF Debug w/Optimization                           *
      21                    ;*                                                                            *
      22                    ;******************************************************************************
      23                    
      24                            .asg    A15, FP
      25                            .asg    B14, DP
      26                            .asg    B15, SP
      27                            .global $bss
      28                    
      29                    
      30                    $C$DW$CU        .dwtag  DW_TAG_compile_unit
      31                            .dwattr $C$DW$CU, DW_AT_name("./../packages/ti/vlib/src/VLIB_initUYVYint_to_LABpl_LUT/VLIB_ini
      32                            .dwattr $C$DW$CU, DW_AT_producer("TI TMS320C6x C/C++ Codegen PC v7.4.2 Copyright (c) 1996-2012
      33                            .dwattr $C$DW$CU, DW_AT_TI_version(0x01)
      34                            .dwattr $C$DW$CU, DW_AT_comp_dir("c:\nightlybuilds\vlib\ti\vlib\vlib\examples")
      35                    
      36                    $C$DW$1 .dwtag  DW_TAG_subprogram, DW_AT_name("_itoll")
      37                            .dwattr $C$DW$1, DW_AT_TI_symbol_name("_itoll")
      38                            .dwattr $C$DW$1, DW_AT_type(*$C$DW$T$14)
      39                            .dwattr $C$DW$1, DW_AT_declaration
      40                            .dwattr $C$DW$1, DW_AT_external
      41                            .dwattr $C$DW$1, DW_AT_decl_file("C:/VLIB_Tools/CCSV5_4_0/ccsv5/tools/compiler/C6000/include/c
      42                            .dwattr $C$DW$1, DW_AT_decl_line(0xdf)
      43                            .dwattr $C$DW$1, DW_AT_decl_column(0x0b)
      44                    $C$DW$2 .dwtag  DW_TAG_formal_parameter
      45                            .dwattr $C$DW$2, DW_AT_type(*$C$DW$T$11)
      46                    $C$DW$3 .dwtag  DW_TAG_formal_parameter
      47                            .dwattr $C$DW$3, DW_AT_type(*$C$DW$T$11)
      48                            .dwendtag $C$DW$1
      49                    
      50                    
      51                    $C$DW$4 .dwtag  DW_TAG_subprogram, DW_AT_name("printf")
      52                            .dwattr $C$DW$4, DW_AT_TI_symbol_name("printf")
      53                            .dwattr $C$DW$4, DW_AT_type(*$C$DW$T$10)
      54                            .dwattr $C$DW$4, DW_AT_declaration
      55                            .dwattr $C$DW$4, DW_AT_external
TMS320C6x Assembler PC v7.4.2 Thu Mar 19 12:42:25 2015

Tools Copyright (c) 1996-2012 Texas Instruments Incorporated
package/lib/Regression/regress_d_c/./../packages/ti/vlib/src/VLIB_initUYVYint_to_LABpl_LUT/VLIB_initUYVYint_to_LABpl_LUT_d.se66 PAGE    2

      56                            .dwattr $C$DW$4, DW_AT_decl_file("C:/VLIB_Tools/CCSV5_4_0/ccsv5/tools/compiler/C6000/include/s
      57                            .dwattr $C$DW$4, DW_AT_decl_line(0xb8)
      58                            .dwattr $C$DW$4, DW_AT_decl_column(0x19)
      59                    $C$DW$5 .dwtag  DW_TAG_formal_parameter
      60                            .dwattr $C$DW$5, DW_AT_type(*$C$DW$T$105)
      61                    $C$DW$6 .dwtag  DW_TAG_unspecified_parameters
      62                            .dwendtag $C$DW$4
      63                    
      64                    
      65                    $C$DW$7 .dwtag  DW_TAG_subprogram, DW_AT_name("sprintf")
      66                            .dwattr $C$DW$7, DW_AT_TI_symbol_name("sprintf")
      67                            .dwattr $C$DW$7, DW_AT_type(*$C$DW$T$10)
      68                            .dwattr $C$DW$7, DW_AT_declaration
      69                            .dwattr $C$DW$7, DW_AT_external
      70                            .dwattr $C$DW$7, DW_AT_decl_file("C:/VLIB_Tools/CCSV5_4_0/ccsv5/tools/compiler/C6000/include/s
      71                            .dwattr $C$DW$7, DW_AT_decl_line(0xbc)
      72                            .dwattr $C$DW$7, DW_AT_decl_column(0x19)
      73                    $C$DW$8 .dwtag  DW_TAG_formal_parameter
      74                            .dwattr $C$DW$8, DW_AT_type(*$C$DW$T$61)
      75                    $C$DW$9 .dwtag  DW_TAG_formal_parameter
      76                            .dwattr $C$DW$9, DW_AT_type(*$C$DW$T$105)
      77                    $C$DW$10        .dwtag  DW_TAG_unspecified_parameters
      78                            .dwendtag $C$DW$7
      79                    
      80                    
      81                    $C$DW$11        .dwtag  DW_TAG_subprogram, DW_AT_name("malloc")
      82                            .dwattr $C$DW$11, DW_AT_TI_symbol_name("malloc")
      83                            .dwattr $C$DW$11, DW_AT_type(*$C$DW$T$3)
      84                            .dwattr $C$DW$11, DW_AT_declaration
      85                            .dwattr $C$DW$11, DW_AT_external
      86                            .dwattr $C$DW$11, DW_AT_decl_file("C:/VLIB_Tools/CCSV5_4_0/ccsv5/tools/compiler/C6000/include/
      87                            .dwattr $C$DW$11, DW_AT_decl_line(0x82)
      88                            .dwattr $C$DW$11, DW_AT_decl_column(0x19)
      89                    $C$DW$12        .dwtag  DW_TAG_formal_parameter
      90                            .dwattr $C$DW$12, DW_AT_type(*$C$DW$T$56)
      91                            .dwendtag $C$DW$11
      92                    
      93                    
      94                    $C$DW$13        .dwtag  DW_TAG_subprogram, DW_AT_name("free")
      95                            .dwattr $C$DW$13, DW_AT_TI_symbol_name("free")
      96                            .dwattr $C$DW$13, DW_AT_declaration
      97                            .dwattr $C$DW$13, DW_AT_external
      98                            .dwattr $C$DW$13, DW_AT_decl_file("C:/VLIB_Tools/CCSV5_4_0/ccsv5/tools/compiler/C6000/include/
      99                            .dwattr $C$DW$13, DW_AT_decl_line(0x86)
     100                            .dwattr $C$DW$13, DW_AT_decl_column(0x19)
     101                    $C$DW$14        .dwtag  DW_TAG_formal_parameter
     102                            .dwattr $C$DW$14, DW_AT_type(*$C$DW$T$3)
     103                            .dwendtag $C$DW$13
     104                    
     105                    
     106                    $C$DW$15        .dwtag  DW_TAG_subprogram, DW_AT_name("VLIB_cache_inval")
     107                            .dwattr $C$DW$15, DW_AT_TI_symbol_name("VLIB_cache_inval")
     108                            .dwattr $C$DW$15, DW_AT_type(*$C$DW$T$10)
     109                            .dwattr $C$DW$15, DW_AT_declaration
     110                            .dwattr $C$DW$15, DW_AT_external
TMS320C6x Assembler PC v7.4.2 Thu Mar 19 12:42:25 2015

Tools Copyright (c) 1996-2012 Texas Instruments Incorporated
package/lib/Regression/regress_d_c/./../packages/ti/vlib/src/VLIB_initUYVYint_to_LABpl_LUT/VLIB_initUYVYint_to_LABpl_LUT_d.se66 PAGE    3

     111                            .dwattr $C$DW$15, DW_AT_decl_file(".\..\packages\ti\vlib\src\VLIB_initUYVYint_to_LABpl_LUT\..\
     112                            .dwattr $C$DW$15, DW_AT_decl_line(0x58)
     113                            .dwattr $C$DW$15, DW_AT_decl_column(0x05)
     114                    
     115                    $C$DW$16        .dwtag  DW_TAG_subprogram, DW_AT_name("VLIB_profile_init")
     116                            .dwattr $C$DW$16, DW_AT_TI_symbol_name("VLIB_profile_init")
     117                            .dwattr $C$DW$16, DW_AT_declaration
     118                            .dwattr $C$DW$16, DW_AT_external
     119                            .dwattr $C$DW$16, DW_AT_decl_file(".\..\packages\ti\vlib\src\VLIB_initUYVYint_to_LABpl_LUT\..\
     120                            .dwattr $C$DW$16, DW_AT_decl_line(0x7b)
     121                            .dwattr $C$DW$16, DW_AT_decl_column(0x06)
     122                    $C$DW$17        .dwtag  DW_TAG_formal_parameter
     123                            .dwattr $C$DW$17, DW_AT_type(*$C$DW$T$10)
     124                    $C$DW$18        .dwtag  DW_TAG_formal_parameter
     125                            .dwattr $C$DW$18, DW_AT_type(*$C$DW$T$61)
     126                            .dwendtag $C$DW$16
     127                    
     128                    
     129                    $C$DW$19        .dwtag  DW_TAG_subprogram, DW_AT_name("VLIB_formula_add_test")
     130                            .dwattr $C$DW$19, DW_AT_TI_symbol_name("VLIB_formula_add_test")
     131                            .dwattr $C$DW$19, DW_AT_declaration
     132                            .dwattr $C$DW$19, DW_AT_external
     133                            .dwattr $C$DW$19, DW_AT_decl_file(".\..\packages\ti\vlib\src\VLIB_initUYVYint_to_LABpl_LUT\..\
     134                            .dwattr $C$DW$19, DW_AT_decl_line(0x7d)
     135                            .dwattr $C$DW$19, DW_AT_decl_column(0x06)
     136                    $C$DW$20        .dwtag  DW_TAG_formal_parameter
     137                            .dwattr $C$DW$20, DW_AT_type(*$C$DW$T$10)
     138                    $C$DW$21        .dwtag  DW_TAG_formal_parameter
     139                            .dwattr $C$DW$21, DW_AT_type(*$C$DW$T$10)
     140                    $C$DW$22        .dwtag  DW_TAG_formal_parameter
     141                            .dwattr $C$DW$22, DW_AT_type(*$C$DW$T$10)
     142                    $C$DW$23        .dwtag  DW_TAG_formal_parameter
     143                            .dwattr $C$DW$23, DW_AT_type(*$C$DW$T$10)
     144                    $C$DW$24        .dwtag  DW_TAG_formal_parameter
     145                            .dwattr $C$DW$24, DW_AT_type(*$C$DW$T$61)
     146                    $C$DW$25        .dwtag  DW_TAG_formal_parameter
     147                            .dwattr $C$DW$25, DW_AT_type(*$C$DW$T$10)
     148                            .dwendtag $C$DW$19
     149                    
     150                    
     151                    $C$DW$26        .dwtag  DW_TAG_subprogram, DW_AT_name("VLIB_skip_test")
     152                            .dwattr $C$DW$26, DW_AT_TI_symbol_name("VLIB_skip_test")
     153                            .dwattr $C$DW$26, DW_AT_declaration
     154                            .dwattr $C$DW$26, DW_AT_external
     155                            .dwattr $C$DW$26, DW_AT_decl_file(".\..\packages\ti\vlib\src\VLIB_initUYVYint_to_LABpl_LUT\..\
     156                            .dwattr $C$DW$26, DW_AT_decl_line(0x7e)
     157                            .dwattr $C$DW$26, DW_AT_decl_column(0x06)
     158                    $C$DW$27        .dwtag  DW_TAG_formal_parameter
     159                            .dwattr $C$DW$27, DW_AT_type(*$C$DW$T$61)
     160                            .dwendtag $C$DW$26
     161                    
     162                    
     163                    $C$DW$28        .dwtag  DW_TAG_subprogram, DW_AT_name("VLIB_profile_cycle_report")
     164                            .dwattr $C$DW$28, DW_AT_TI_symbol_name("VLIB_profile_cycle_report")
     165                            .dwattr $C$DW$28, DW_AT_declaration
TMS320C6x Assembler PC v7.4.2 Thu Mar 19 12:42:25 2015

Tools Copyright (c) 1996-2012 Texas Instruments Incorporated
package/lib/Regression/regress_d_c/./../packages/ti/vlib/src/VLIB_initUYVYint_to_LABpl_LUT/VLIB_initUYVYint_to_LABpl_LUT_d.se66 PAGE    4

     166                            .dwattr $C$DW$28, DW_AT_external
     167                            .dwattr $C$DW$28, DW_AT_decl_file(".\..\packages\ti\vlib\src\VLIB_initUYVYint_to_LABpl_LUT\..\
     168                            .dwattr $C$DW$28, DW_AT_decl_line(0x7f)
     169                            .dwattr $C$DW$28, DW_AT_decl_column(0x06)
     170                    $C$DW$29        .dwtag  DW_TAG_formal_parameter
     171                            .dwattr $C$DW$29, DW_AT_type(*$C$DW$T$10)
     172                    $C$DW$30        .dwtag  DW_TAG_formal_parameter
     173                            .dwattr $C$DW$30, DW_AT_type(*$C$DW$T$61)
     174                    $C$DW$31        .dwtag  DW_TAG_formal_parameter
     175                            .dwattr $C$DW$31, DW_AT_type(*$C$DW$T$61)
     176                            .dwendtag $C$DW$28
     177                    
     178                    
     179                    $C$DW$32        .dwtag  DW_TAG_subprogram, DW_AT_name("initStack")
     180                            .dwattr $C$DW$32, DW_AT_TI_symbol_name("initStack")
     181                            .dwattr $C$DW$32, DW_AT_declaration
     182                            .dwattr $C$DW$32, DW_AT_external
     183                            .dwattr $C$DW$32, DW_AT_decl_file(".\..\packages\ti\vlib\src\VLIB_initUYVYint_to_LABpl_LUT\..\
     184                            .dwattr $C$DW$32, DW_AT_decl_line(0x80)
     185                            .dwattr $C$DW$32, DW_AT_decl_column(0x06)
     186                    $C$DW$33        .dwtag  DW_TAG_formal_parameter
     187                            .dwattr $C$DW$33, DW_AT_type(*$C$DW$T$70)
     188                            .dwendtag $C$DW$32
     189                    
     190                    
     191                    $C$DW$34        .dwtag  DW_TAG_subprogram, DW_AT_name("setStackDepth")
     192                            .dwattr $C$DW$34, DW_AT_TI_symbol_name("setStackDepth")
     193                            .dwattr $C$DW$34, DW_AT_declaration
     194                            .dwattr $C$DW$34, DW_AT_external
     195                            .dwattr $C$DW$34, DW_AT_decl_file(".\..\packages\ti\vlib\src\VLIB_initUYVYint_to_LABpl_LUT\..\
     196                            .dwattr $C$DW$34, DW_AT_decl_line(0x81)
     197                            .dwattr $C$DW$34, DW_AT_decl_column(0x06)
     198                    
     199                    $C$DW$35        .dwtag  DW_TAG_subprogram, DW_AT_name("getSP")
     200                            .dwattr $C$DW$35, DW_AT_TI_symbol_name("getSP")
     201                            .dwattr $C$DW$35, DW_AT_type(*$C$DW$T$70)
     202                            .dwattr $C$DW$35, DW_AT_declaration
     203                            .dwattr $C$DW$35, DW_AT_external
     204                            .dwattr $C$DW$35, DW_AT_decl_file(".\..\packages\ti\vlib\src\VLIB_initUYVYint_to_LABpl_LUT\..\
     205                            .dwattr $C$DW$35, DW_AT_decl_line(0x82)
     206                            .dwattr $C$DW$35, DW_AT_decl_column(0x0a)
     207                    
     208                    $C$DW$36        .dwtag  DW_TAG_subprogram, DW_AT_name("VLIB_stack_memory")
     209                            .dwattr $C$DW$36, DW_AT_TI_symbol_name("VLIB_stack_memory")
     210                            .dwattr $C$DW$36, DW_AT_declaration
     211                            .dwattr $C$DW$36, DW_AT_external
     212                            .dwattr $C$DW$36, DW_AT_decl_file(".\..\packages\ti\vlib\src\VLIB_initUYVYint_to_LABpl_LUT\..\
     213                            .dwattr $C$DW$36, DW_AT_decl_line(0x83)
     214                            .dwattr $C$DW$36, DW_AT_decl_column(0x06)
     215                    
     216                    $C$DW$37        .dwtag  DW_TAG_subprogram, DW_AT_name("VLIB_compare_mem")
     217                            .dwattr $C$DW$37, DW_AT_TI_symbol_name("VLIB_compare_mem")
     218                            .dwattr $C$DW$37, DW_AT_type(*$C$DW$T$26)
     219                            .dwattr $C$DW$37, DW_AT_declaration
     220                            .dwattr $C$DW$37, DW_AT_external
TMS320C6x Assembler PC v7.4.2 Thu Mar 19 12:42:25 2015

Tools Copyright (c) 1996-2012 Texas Instruments Incorporated
package/lib/Regression/regress_d_c/./../packages/ti/vlib/src/VLIB_initUYVYint_to_LABpl_LUT/VLIB_initUYVYint_to_LABpl_LUT_d.se66 PAGE    5

     221                            .dwattr $C$DW$37, DW_AT_decl_file(".\..\packages\ti\vlib\src\VLIB_initUYVYint_to_LABpl_LUT\../
     222                            .dwattr $C$DW$37, DW_AT_decl_line(0x6f)
     223                            .dwattr $C$DW$37, DW_AT_decl_column(0x11)
     224                    $C$DW$38        .dwtag  DW_TAG_formal_parameter
     225                            .dwattr $C$DW$38, DW_AT_type(*$C$DW$T$55)
     226                    $C$DW$39        .dwtag  DW_TAG_formal_parameter
     227                            .dwattr $C$DW$39, DW_AT_type(*$C$DW$T$55)
     228                    $C$DW$40        .dwtag  DW_TAG_formal_parameter
     229                            .dwattr $C$DW$40, DW_AT_type(*$C$DW$T$26)
     230                            .dwendtag $C$DW$37
     231                    
     232                    
     233                    $C$DW$41        .dwtag  DW_TAG_subprogram, DW_AT_name("VLIB_fillBuffer")
     234                            .dwattr $C$DW$41, DW_AT_TI_symbol_name("VLIB_fillBuffer")
     235                            .dwattr $C$DW$41, DW_AT_declaration
     236                            .dwattr $C$DW$41, DW_AT_external
     237                            .dwattr $C$DW$41, DW_AT_decl_file(".\..\packages\ti\vlib\src\VLIB_initUYVYint_to_LABpl_LUT\../
     238                            .dwattr $C$DW$41, DW_AT_decl_line(0x77)
     239                            .dwattr $C$DW$41, DW_AT_decl_column(0x06)
     240                    $C$DW$42        .dwtag  DW_TAG_formal_parameter
     241                            .dwattr $C$DW$42, DW_AT_type(*$C$DW$T$19)
     242                    $C$DW$43        .dwtag  DW_TAG_formal_parameter
     243                            .dwattr $C$DW$43, DW_AT_type(*$C$DW$T$19)
     244                    $C$DW$44        .dwtag  DW_TAG_formal_parameter
     245                            .dwattr $C$DW$44, DW_AT_type(*$C$DW$T$3)
     246                    $C$DW$45        .dwtag  DW_TAG_formal_parameter
     247                            .dwattr $C$DW$45, DW_AT_type(*$C$DW$T$3)
     248                    $C$DW$46        .dwtag  DW_TAG_formal_parameter
     249                            .dwattr $C$DW$46, DW_AT_type(*$C$DW$T$20)
     250                    $C$DW$47        .dwtag  DW_TAG_formal_parameter
     251                            .dwattr $C$DW$47, DW_AT_type(*$C$DW$T$20)
     252                    $C$DW$48        .dwtag  DW_TAG_formal_parameter
     253                            .dwattr $C$DW$48, DW_AT_type(*$C$DW$T$20)
     254                    $C$DW$49        .dwtag  DW_TAG_formal_parameter
     255                            .dwattr $C$DW$49, DW_AT_type(*$C$DW$T$19)
     256                    $C$DW$50        .dwtag  DW_TAG_formal_parameter
     257                            .dwattr $C$DW$50, DW_AT_type(*$C$DW$T$61)
     258                            .dwendtag $C$DW$41
     259                    
     260                    
     261                    $C$DW$51        .dwtag  DW_TAG_subprogram, DW_AT_name("VLIB_malloc")
     262                            .dwattr $C$DW$51, DW_AT_TI_symbol_name("VLIB_malloc")
     263                            .dwattr $C$DW$51, DW_AT_type(*$C$DW$T$3)
     264                            .dwattr $C$DW$51, DW_AT_declaration
     265                            .dwattr $C$DW$51, DW_AT_external
     266                            .dwattr $C$DW$51, DW_AT_decl_file(".\..\packages\ti\vlib\src\VLIB_initUYVYint_to_LABpl_LUT\../
     267                            .dwattr $C$DW$51, DW_AT_decl_line(0xaf)
     268                            .dwattr $C$DW$51, DW_AT_decl_column(0x07)
     269                    $C$DW$52        .dwtag  DW_TAG_formal_parameter
     270                            .dwattr $C$DW$52, DW_AT_type(*$C$DW$T$56)
     271                            .dwendtag $C$DW$51
     272                    
     273                    
     274                    $C$DW$53        .dwtag  DW_TAG_subprogram, DW_AT_name("VLIB_free")
     275                            .dwattr $C$DW$53, DW_AT_TI_symbol_name("VLIB_free")
TMS320C6x Assembler PC v7.4.2 Thu Mar 19 12:42:25 2015

Tools Copyright (c) 1996-2012 Texas Instruments Incorporated
package/lib/Regression/regress_d_c/./../packages/ti/vlib/src/VLIB_initUYVYint_to_LABpl_LUT/VLIB_initUYVYint_to_LABpl_LUT_d.se66 PAGE    6

     276                            .dwattr $C$DW$53, DW_AT_declaration
     277                            .dwattr $C$DW$53, DW_AT_external
     278                            .dwattr $C$DW$53, DW_AT_decl_file(".\..\packages\ti\vlib\src\VLIB_initUYVYint_to_LABpl_LUT\../
     279                            .dwattr $C$DW$53, DW_AT_decl_line(0xb4)
     280                            .dwattr $C$DW$53, DW_AT_decl_column(0x07)
     281                    $C$DW$54        .dwtag  DW_TAG_formal_parameter
     282                            .dwattr $C$DW$54, DW_AT_type(*$C$DW$T$3)
     283                            .dwendtag $C$DW$53
     284                    
     285                    
     286                    $C$DW$55        .dwtag  DW_TAG_subprogram, DW_AT_name("VLIB_initUYVYint_to_LABpl_LUT")
     287                            .dwattr $C$DW$55, DW_AT_TI_symbol_name("VLIB_initUYVYint_to_LABpl_LUT")
     288                            .dwattr $C$DW$55, DW_AT_type(*$C$DW$T$26)
     289                            .dwattr $C$DW$55, DW_AT_declaration
     290                            .dwattr $C$DW$55, DW_AT_external
     291                            .dwattr $C$DW$55, DW_AT_decl_file(".\..\packages\ti\vlib\src\VLIB_initUYVYint_to_LABpl_LUT\c66
     292                            .dwattr $C$DW$55, DW_AT_decl_line(0x91)
     293                            .dwattr $C$DW$55, DW_AT_decl_column(0x09)
     294                    $C$DW$56        .dwtag  DW_TAG_formal_parameter
     295                            .dwattr $C$DW$56, DW_AT_type(*$C$DW$T$114)
     296                    $C$DW$57        .dwtag  DW_TAG_formal_parameter
     297                            .dwattr $C$DW$57, DW_AT_type(*$C$DW$T$99)
     298                    $C$DW$58        .dwtag  DW_TAG_formal_parameter
     299                            .dwattr $C$DW$58, DW_AT_type(*$C$DW$T$116)
     300                    $C$DW$59        .dwtag  DW_TAG_formal_parameter
     301                            .dwattr $C$DW$59, DW_AT_type(*$C$DW$T$21)
     302                            .dwendtag $C$DW$55
     303                    
     304                    
     305                    $C$DW$60        .dwtag  DW_TAG_subprogram, DW_AT_name("VLIB_initUYVYint_to_LABpl_LUT_cn")
     306                            .dwattr $C$DW$60, DW_AT_TI_symbol_name("VLIB_initUYVYint_to_LABpl_LUT_cn")
     307                            .dwattr $C$DW$60, DW_AT_type(*$C$DW$T$26)
     308                            .dwattr $C$DW$60, DW_AT_declaration
     309                            .dwattr $C$DW$60, DW_AT_external
     310                            .dwattr $C$DW$60, DW_AT_decl_file(".\..\packages\ti\vlib\src\VLIB_initUYVYint_to_LABpl_LUT\VLI
     311                            .dwattr $C$DW$60, DW_AT_decl_line(0x20)
     312                            .dwattr $C$DW$60, DW_AT_decl_column(0x09)
     313                    $C$DW$61        .dwtag  DW_TAG_formal_parameter
     314                            .dwattr $C$DW$61, DW_AT_type(*$C$DW$T$114)
     315                    $C$DW$62        .dwtag  DW_TAG_formal_parameter
     316                            .dwattr $C$DW$62, DW_AT_type(*$C$DW$T$99)
     317                    $C$DW$63        .dwtag  DW_TAG_formal_parameter
     318                            .dwattr $C$DW$63, DW_AT_type(*$C$DW$T$116)
     319                    $C$DW$64        .dwtag  DW_TAG_formal_parameter
     320                            .dwattr $C$DW$64, DW_AT_type(*$C$DW$T$21)
     321                            .dwendtag $C$DW$60
     322                    
     323                    
     324                    $C$DW$65        .dwtag  DW_TAG_subprogram, DW_AT_name("initUYVYint_to_LABpl_LUT_getTestParams")
     325                            .dwattr $C$DW$65, DW_AT_TI_symbol_name("initUYVYint_to_LABpl_LUT_getTestParams")
     326                            .dwattr $C$DW$65, DW_AT_declaration
     327                            .dwattr $C$DW$65, DW_AT_external
     328                            .dwattr $C$DW$65, DW_AT_decl_file(".\..\packages\ti\vlib\src\VLIB_initUYVYint_to_LABpl_LUT\VLI
     329                            .dwattr $C$DW$65, DW_AT_decl_line(0x2b)
     330                            .dwattr $C$DW$65, DW_AT_decl_column(0x06)
TMS320C6x Assembler PC v7.4.2 Thu Mar 19 12:42:25 2015

Tools Copyright (c) 1996-2012 Texas Instruments Incorporated
package/lib/Regression/regress_d_c/./../packages/ti/vlib/src/VLIB_initUYVYint_to_LABpl_LUT/VLIB_initUYVYint_to_LABpl_LUT_d.se66 PAGE    7

     331                    $C$DW$66        .dwtag  DW_TAG_formal_parameter
     332                            .dwattr $C$DW$66, DW_AT_type(*$C$DW$T$48)
     333                    $C$DW$67        .dwtag  DW_TAG_formal_parameter
     334                            .dwattr $C$DW$67, DW_AT_type(*$C$DW$T$78)
     335                            .dwendtag $C$DW$65
     336                    
     337                    $C$DW$68        .dwtag  DW_TAG_variable, DW_AT_name("test_cases")
     338                            .dwattr $C$DW$68, DW_AT_TI_symbol_name("test_cases")
     339                            .dwattr $C$DW$68, DW_AT_type(*$C$DW$T$26)
     340                            .dwattr $C$DW$68, DW_AT_declaration
     341                            .dwattr $C$DW$68, DW_AT_external
     342                            .dwattr $C$DW$68, DW_AT_decl_file(".\..\packages\ti\vlib\src\VLIB_initUYVYint_to_LABpl_LUT\../
     343                            .dwattr $C$DW$68, DW_AT_decl_line(0x60)
     344                            .dwattr $C$DW$68, DW_AT_decl_column(0x13)
     345                    $C$DW$69        .dwtag  DW_TAG_variable, DW_AT_name("act_kernel")
     346                            .dwattr $C$DW$69, DW_AT_TI_symbol_name("act_kernel")
     347                            .dwattr $C$DW$69, DW_AT_type(*$C$DW$T$10)
     348                            .dwattr $C$DW$69, DW_AT_declaration
     349                            .dwattr $C$DW$69, DW_AT_external
     350                            .dwattr $C$DW$69, DW_AT_decl_file(".\..\packages\ti\vlib\src\VLIB_initUYVYint_to_LABpl_LUT\../
     351                            .dwattr $C$DW$69, DW_AT_decl_line(0x62)
     352                            .dwattr $C$DW$69, DW_AT_decl_column(0x13)
     353                    $C$DW$70        .dwtag  DW_TAG_variable, DW_AT_name("desc")
     354                            .dwattr $C$DW$70, DW_AT_TI_symbol_name("desc")
     355                            .dwattr $C$DW$70, DW_AT_type(*$C$DW$T$164)
     356                            .dwattr $C$DW$70, DW_AT_declaration
     357                            .dwattr $C$DW$70, DW_AT_external
     358                            .dwattr $C$DW$70, DW_AT_decl_file(".\..\packages\ti\vlib\src\VLIB_initUYVYint_to_LABpl_LUT\../
     359                            .dwattr $C$DW$70, DW_AT_decl_line(0x63)
     360                            .dwattr $C$DW$70, DW_AT_decl_column(0x13)
     361                    $C$DW$71        .dwtag  DW_TAG_variable, DW_AT_name("testPatternString")
     362                            .dwattr $C$DW$71, DW_AT_TI_symbol_name("testPatternString")
     363                            .dwattr $C$DW$71, DW_AT_type(*$C$DW$T$164)
     364                            .dwattr $C$DW$71, DW_AT_declaration
     365                            .dwattr $C$DW$71, DW_AT_external
     366                            .dwattr $C$DW$71, DW_AT_decl_file(".\..\packages\ti\vlib\src\VLIB_initUYVYint_to_LABpl_LUT\../
     367                            .dwattr $C$DW$71, DW_AT_decl_line(0x64)
     368                            .dwattr $C$DW$71, DW_AT_decl_column(0x13)
     369                    $C$DW$72        .dwtag  DW_TAG_variable, DW_AT_name("est_test")
     370                            .dwattr $C$DW$72, DW_AT_TI_symbol_name("est_test")
     371                            .dwattr $C$DW$72, DW_AT_type(*$C$DW$T$10)
     372                            .dwattr $C$DW$72, DW_AT_declaration
     373                            .dwattr $C$DW$72, DW_AT_external
     374                            .dwattr $C$DW$72, DW_AT_decl_file(".\..\packages\ti\vlib\src\VLIB_initUYVYint_to_LABpl_LUT\..\
     375                            .dwattr $C$DW$72, DW_AT_decl_line(0x75)
     376                            .dwattr $C$DW$72, DW_AT_decl_column(0x14)
     377                    $C$DW$73        .dwtag  DW_TAG_variable, DW_AT_name("beg_count")
     378                            .dwattr $C$DW$73, DW_AT_TI_symbol_name("beg_count")
     379                            .dwattr $C$DW$73, DW_AT_type(*$C$DW$T$154)
     380                            .dwattr $C$DW$73, DW_AT_declaration
     381                            .dwattr $C$DW$73, DW_AT_external
     382                            .dwattr $C$DW$73, DW_AT_decl_file(".\..\packages\ti\vlib\src\VLIB_initUYVYint_to_LABpl_LUT\..\
     383                            .dwattr $C$DW$73, DW_AT_decl_line(0x76)
     384                            .dwattr $C$DW$73, DW_AT_decl_column(0x14)
     385                    $C$DW$74        .dwtag  DW_TAG_variable, DW_AT_name("end_count")
TMS320C6x Assembler PC v7.4.2 Thu Mar 19 12:42:25 2015

Tools Copyright (c) 1996-2012 Texas Instruments Incorporated
package/lib/Regression/regress_d_c/./../packages/ti/vlib/src/VLIB_initUYVYint_to_LABpl_LUT/VLIB_initUYVYint_to_LABpl_LUT_d.se66 PAGE    8

     386                            .dwattr $C$DW$74, DW_AT_TI_symbol_name("end_count")
     387                            .dwattr $C$DW$74, DW_AT_type(*$C$DW$T$154)
     388                            .dwattr $C$DW$74, DW_AT_declaration
     389                            .dwattr $C$DW$74, DW_AT_external
     390                            .dwattr $C$DW$74, DW_AT_decl_file(".\..\packages\ti\vlib\src\VLIB_initUYVYint_to_LABpl_LUT\..\
     391                            .dwattr $C$DW$74, DW_AT_decl_line(0x77)
     392                            .dwattr $C$DW$74, DW_AT_decl_column(0x14)
     393                    $C$DW$75        .dwtag  DW_TAG_variable, DW_AT_name("overhead")
     394                            .dwattr $C$DW$75, DW_AT_TI_symbol_name("overhead")
     395                            .dwattr $C$DW$75, DW_AT_type(*$C$DW$T$154)
     396                            .dwattr $C$DW$75, DW_AT_declaration
     397                            .dwattr $C$DW$75, DW_AT_external
     398                            .dwattr $C$DW$75, DW_AT_decl_file(".\..\packages\ti\vlib\src\VLIB_initUYVYint_to_LABpl_LUT\..\
     399                            .dwattr $C$DW$75, DW_AT_decl_line(0x78)
     400                            .dwattr $C$DW$75, DW_AT_decl_column(0x14)
     401                    $C$DW$76        .dwtag  DW_TAG_variable, DW_AT_name("cycles")
     402                            .dwattr $C$DW$76, DW_AT_TI_symbol_name("cycles")
     403                            .dwattr $C$DW$76, DW_AT_type(*$C$DW$T$155)
     404                            .dwattr $C$DW$76, DW_AT_declaration
     405                            .dwattr $C$DW$76, DW_AT_external
     406                            .dwattr $C$DW$76, DW_AT_decl_file(".\..\packages\ti\vlib\src\VLIB_initUYVYint_to_LABpl_LUT\..\
     407                            .dwattr $C$DW$76, DW_AT_decl_line(0x79)
     408                            .dwattr $C$DW$76, DW_AT_decl_column(0x14)
     409                    ;       C:\VLIB_Tools\CCSV5_4_0\ccsv5\tools\compiler\C6000\bin\opt6x.exe C:\\Users\\gtbldadm\\AppData\
     410 00000000                   .sect   ".text"
     411                            .clink
     412                            .global VLIB_initUYVYint_to_LABpl_LUT_d
     413                    
     414                    $C$DW$77        .dwtag  DW_TAG_subprogram, DW_AT_name("VLIB_initUYVYint_to_LABpl_LUT_d")
     415                            .dwattr $C$DW$77, DW_AT_low_pc(VLIB_initUYVYint_to_LABpl_LUT_d)
     416                            .dwattr $C$DW$77, DW_AT_high_pc(0x00)
     417                            .dwattr $C$DW$77, DW_AT_TI_symbol_name("VLIB_initUYVYint_to_LABpl_LUT_d")
     418                            .dwattr $C$DW$77, DW_AT_external
     419                            .dwattr $C$DW$77, DW_AT_TI_begin_file("./../packages/ti/vlib/src/VLIB_initUYVYint_to_LABpl_LUT
     420                            .dwattr $C$DW$77, DW_AT_TI_begin_line(0x26)
     421                            .dwattr $C$DW$77, DW_AT_TI_begin_column(0x06)
     422                            .dwattr $C$DW$77, DW_AT_decl_file("./../packages/ti/vlib/src/VLIB_initUYVYint_to_LABpl_LUT/VLI
     423                            .dwattr $C$DW$77, DW_AT_decl_line(0x26)
     424                            .dwattr $C$DW$77, DW_AT_decl_column(0x06)
     425                            .dwattr $C$DW$77, DW_AT_TI_max_frame_size(0x60)
     426                            .dwpsn  file "./../packages/ti/vlib/src/VLIB_initUYVYint_to_LABpl_LUT/VLIB_initUYVYint_to_LABp
     427                    
     428                            .dwfde $C$DW$CIE, VLIB_initUYVYint_to_LABpl_LUT_d
     429                    $C$DW$78        .dwtag  DW_TAG_formal_parameter, DW_AT_name("LevelOfFeedback")
     430                            .dwattr $C$DW$78, DW_AT_TI_symbol_name("LevelOfFeedback")
     431                            .dwattr $C$DW$78, DW_AT_type(*$C$DW$T$19)
     432                            .dwattr $C$DW$78, DW_AT_location[DW_OP_reg4]
     433                    ;----------------------------------------------------------------------
     434                    ;  38 | void VLIB_initUYVYint_to_LABpl_LUT_d (uint8_t LevelOfFeedback)         
     435                    ;----------------------------------------------------------------------
     436                    
     437                    ;******************************************************************************
     438                    ;* FUNCTION NAME: VLIB_initUYVYint_to_LABpl_LUT_d                             *
     439                    ;*                                                                            *
     440                    ;*   Regs Modified     : A0,A1,A2,A3,A4,A5,A6,A7,A8,A9,A10,A11,A12,A13,A14,   *
TMS320C6x Assembler PC v7.4.2 Thu Mar 19 12:42:25 2015

Tools Copyright (c) 1996-2012 Texas Instruments Incorporated
package/lib/Regression/regress_d_c/./../packages/ti/vlib/src/VLIB_initUYVYint_to_LABpl_LUT/VLIB_initUYVYint_to_LABpl_LUT_d.se66 PAGE    9

     441                    ;*                           A15,B0,B1,B2,B3,B4,B5,B6,B7,B8,B9,B10,B11,B12,   *
     442                    ;*                           B13,SP,A16,A17,A18,A19,A20,A21,A22,A23,A24,A25,  *
     443                    ;*                           A26,A27,A28,A29,A30,A31,B16,B17,B18,B19,B20,B21, *
     444                    ;*                           B22,B23,B24,B25,B26,B27,B28,B29,B30,B31          *
     445                    ;*   Regs Used         : A0,A1,A2,A3,A4,A5,A6,A7,A8,A9,A10,A11,A12,A13,A14,   *
     446                    ;*                           A15,B0,B1,B2,B3,B4,B5,B6,B7,B8,B9,B10,B11,B12,   *
     447                    ;*                           B13,DP,SP,A16,A17,A18,A19,A20,A21,A22,A23,A24,   *
     448                    ;*                           A25,A26,A27,A28,A29,A30,A31,B16,B17,B18,B19,B20, *
     449                    ;*                           B21,B22,B23,B24,B25,B26,B27,B28,B29,B30,B31      *
     450                    ;*   Local Frame Size  : 16 Args + 20 Auto + 56 Save = 92 byte                *
     451                    ;******************************************************************************
     452                    
     453                    ;******************************************************************************
     454                    ;*                                                                            *
     455                    ;* Using -g (debug) with optimization (-o3) may disable key optimizations!    *
     456                    ;*                                                                            *
     457                    ;******************************************************************************
     458 00000000           VLIB_initUYVYint_to_LABpl_LUT_d:
     459                    ;** --------------------------------------------------------------------------*
     460                    ;          EXCLUSIVE CPU CYCLES: 15
     461                    ;** 45  -----------------------    initUYVYint_to_LABpl_LUT_getTestParams(&prm, &test_cases);
     462                    ;** 48  -----------------------    VLIB_profile_init(2, "VLIB_initUYVYint_to_LABpl_LUT");
     463                    ;** 51  -----------------------    if ( test_cases <= 0 ) goto g14;
     464                            .dwcfi  cfa_offset, 0
     465                    ;----------------------------------------------------------------------
     466                    ;  40 | int32_t    tpi;  /* test parameter index */                            
     467                    ;  43 | initUYVYint_to_LABpl_LUT_testParams_t   *prm;                          
     468                    ;----------------------------------------------------------------------
     469 00000000     25f7             STW     .D2T1   A11,*SP--(8)      ; |39| 
     470                            .dwcfi  cfa_offset, 8
     471                            .dwcfi  save_reg_to_mem, 11, 0
     472 00000002     2577             STW     .D2T1   A10,*SP--(8)      ; |39| 
     473                            .dwcfi  cfa_offset, 16
     474                            .dwcfi  save_reg_to_mem, 10, -8
     475 00000004     9677             STDW    .D2T2   B13:B12,*SP--     ; |39| 
     476                            .dwcfi  cfa_offset, 24
     477                            .dwcfi  save_reg_to_mem, 29, -12
     478                            .dwcfi  save_reg_to_mem, 28, -16
     479 00000006     9577             STDW    .D2T2   B11:B10,*SP--     ; |39| 
     480                            .dwcfi  cfa_offset, 32
     481                            .dwcfi  save_reg_to_mem, 27, -20
     482                            .dwcfi  save_reg_to_mem, 26, -24
     483 00000008     8777             STDW    .D2T1   A15:A14,*SP--     ; |39| 
     484                            .dwcfi  cfa_offset, 40
     485                            .dwcfi  save_reg_to_mem, 15, -28
     486                            .dwcfi  save_reg_to_mem, 14, -32
     487 0000000a     8677             STDW    .D2T1   A13:A12,*SP--     ; |39| 
     488                            .dwcfi  cfa_offset, 48
     489                            .dwcfi  save_reg_to_mem, 13, -36
     490                            .dwcfi  save_reg_to_mem, 12, -40
     491 0000000c 01bd94f6             STW     .D2T2   B3,*SP--(48)      ; |39| 
     492                            .dwcfi  cfa_offset, 96
     493                            .dwcfi  save_reg_to_mem, 19, 0
     494                    $C$DW$79        .dwtag  DW_TAG_variable, DW_AT_name("$O$C2")
     495                            .dwattr $C$DW$79, DW_AT_TI_symbol_name("$O$C2")
TMS320C6x Assembler PC v7.4.2 Thu Mar 19 12:42:25 2015

Tools Copyright (c) 1996-2012 Texas Instruments Incorporated
package/lib/Regression/regress_d_c/./../packages/ti/vlib/src/VLIB_initUYVYint_to_LABpl_LUT/VLIB_initUYVYint_to_LABpl_LUT_d.se66 PAGE   10

     496                            .dwattr $C$DW$79, DW_AT_type(*$C$DW$T$9)
     497                            .dwattr $C$DW$79, DW_AT_location[DW_OP_reg20]
     498                    $C$DW$80        .dwtag  DW_TAG_variable, DW_AT_name("$O$C3")
     499                            .dwattr $C$DW$80, DW_AT_TI_symbol_name("$O$C3")
     500                            .dwattr $C$DW$80, DW_AT_type(*$C$DW$T$9)
     501                            .dwattr $C$DW$80, DW_AT_location[DW_OP_reg3]
     502                    $C$DW$81        .dwtag  DW_TAG_variable, DW_AT_name("$O$C4")
     503                            .dwattr $C$DW$81, DW_AT_TI_symbol_name("$O$C4")
     504                            .dwattr $C$DW$81, DW_AT_type(*$C$DW$T$10)
     505                            .dwattr $C$DW$81, DW_AT_location[DW_OP_reg4]
     506                    $C$DW$82        .dwtag  DW_TAG_variable, DW_AT_name("$O$C5")
     507                            .dwattr $C$DW$82, DW_AT_TI_symbol_name("$O$C5")
     508                            .dwattr $C$DW$82, DW_AT_type(*$C$DW$T$10)
     509                            .dwattr $C$DW$82, DW_AT_location[DW_OP_reg6]
     510                    $C$DW$83        .dwtag  DW_TAG_variable, DW_AT_name("$O$C6")
     511                            .dwattr $C$DW$83, DW_AT_TI_symbol_name("$O$C6")
     512                            .dwattr $C$DW$83, DW_AT_type(*$C$DW$T$10)
     513                            .dwattr $C$DW$83, DW_AT_location[DW_OP_reg3]
     514                    $C$DW$84        .dwtag  DW_TAG_variable, DW_AT_name("$O$C7")
     515                            .dwattr $C$DW$84, DW_AT_TI_symbol_name("$O$C7")
     516                            .dwattr $C$DW$84, DW_AT_type(*$C$DW$T$10)
     517                            .dwattr $C$DW$84, DW_AT_location[DW_OP_reg3]
     518                    $C$DW$85        .dwtag  DW_TAG_variable, DW_AT_name("$O$U13")
     519                            .dwattr $C$DW$85, DW_AT_TI_symbol_name("$O$U13")
     520                            .dwattr $C$DW$85, DW_AT_type(*$C$DW$T$44)
     521                            .dwattr $C$DW$85, DW_AT_location[DW_OP_reg11]
     522                    $C$DW$86        .dwtag  DW_TAG_variable, DW_AT_name("$O$K10")
     523                            .dwattr $C$DW$86, DW_AT_TI_symbol_name("$O$K10")
     524                            .dwattr $C$DW$86, DW_AT_type(*$C$DW$T$10)
     525                            .dwattr $C$DW$86, DW_AT_location[DW_OP_reg3]
     526                    $C$DW$87        .dwtag  DW_TAG_variable, DW_AT_name("$O$K46")
     527                            .dwattr $C$DW$87, DW_AT_TI_symbol_name("$O$K46")
     528                            .dwattr $C$DW$87, DW_AT_type(*$C$DW$T$82)
     529                            .dwattr $C$DW$87, DW_AT_location[DW_OP_reg4]
     530                    $C$DW$88        .dwtag  DW_TAG_variable, DW_AT_name("$O$K48")
     531                            .dwattr $C$DW$88, DW_AT_TI_symbol_name("$O$K48")
     532                            .dwattr $C$DW$88, DW_AT_type(*$C$DW$T$82)
     533                            .dwattr $C$DW$88, DW_AT_location[DW_OP_reg12]
     534                    $C$DW$89        .dwtag  DW_TAG_variable, DW_AT_name("$O$K49")
     535                            .dwattr $C$DW$89, DW_AT_TI_symbol_name("$O$K49")
     536                            .dwattr $C$DW$89, DW_AT_type(*$C$DW$T$10)
     537                            .dwattr $C$DW$89, DW_AT_location[DW_OP_reg20]
     538                    $C$DW$90        .dwtag  DW_TAG_variable, DW_AT_name("$O$K89")
     539                            .dwattr $C$DW$90, DW_AT_TI_symbol_name("$O$K89")
     540                            .dwattr $C$DW$90, DW_AT_type(*$C$DW$T$153)
     541                            .dwattr $C$DW$90, DW_AT_location[DW_OP_reg3]
     542                    $C$DW$91        .dwtag  DW_TAG_variable, DW_AT_name("$O$U103")
     543                            .dwattr $C$DW$91, DW_AT_TI_symbol_name("$O$U103")
     544                            .dwattr $C$DW$91, DW_AT_type(*$C$DW$T$101)
     545                            .dwattr $C$DW$91, DW_AT_location[DW_OP_reg10]
     546                    $C$DW$92        .dwtag  DW_TAG_variable, DW_AT_name("$O$U101")
     547                            .dwattr $C$DW$92, DW_AT_TI_symbol_name("$O$U101")
     548                            .dwattr $C$DW$92, DW_AT_type(*$C$DW$T$101)
     549                            .dwattr $C$DW$92, DW_AT_location[DW_OP_reg29]
     550                    $C$DW$93        .dwtag  DW_TAG_variable, DW_AT_name("$O$U96")
TMS320C6x Assembler PC v7.4.2 Thu Mar 19 12:42:25 2015

Tools Copyright (c) 1996-2012 Texas Instruments Incorporated
package/lib/Regression/regress_d_c/./../packages/ti/vlib/src/VLIB_initUYVYint_to_LABpl_LUT/VLIB_initUYVYint_to_LABpl_LUT_d.se66 PAGE   11

     551                            .dwattr $C$DW$93, DW_AT_TI_symbol_name("$O$U96")
     552                            .dwattr $C$DW$93, DW_AT_type(*$C$DW$T$10)
     553                            .dwattr $C$DW$93, DW_AT_location[DW_OP_reg13]
     554                    $C$DW$94        .dwtag  DW_TAG_variable, DW_AT_name("$O$U115")
     555                            .dwattr $C$DW$94, DW_AT_TI_symbol_name("$O$U115")
     556                            .dwattr $C$DW$94, DW_AT_type(*$C$DW$T$101)
     557                            .dwattr $C$DW$94, DW_AT_location[DW_OP_reg0]
     558                    $C$DW$95        .dwtag  DW_TAG_variable, DW_AT_name("$O$U12")
     559                            .dwattr $C$DW$95, DW_AT_TI_symbol_name("$O$U12")
     560                            .dwattr $C$DW$95, DW_AT_type(*$C$DW$T$10)
     561                            .dwattr $C$DW$95, DW_AT_location[DW_OP_reg27]
     562                    $C$DW$96        .dwtag  DW_TAG_variable, DW_AT_name("$O$L1")
     563                            .dwattr $C$DW$96, DW_AT_TI_symbol_name("$O$L1")
     564                            .dwattr $C$DW$96, DW_AT_type(*$C$DW$T$10)
     565                            .dwattr $C$DW$96, DW_AT_location[DW_OP_reg26]
     566                    $C$DW$97        .dwtag  DW_TAG_variable, DW_AT_name("i")
     567                            .dwattr $C$DW$97, DW_AT_TI_symbol_name("i")
     568                            .dwattr $C$DW$97, DW_AT_type(*$C$DW$T$26)
     569                            .dwattr $C$DW$97, DW_AT_location[DW_OP_reg12]
     570                    $C$DW$98        .dwtag  DW_TAG_variable, DW_AT_name("Lab_cn")
     571                            .dwattr $C$DW$98, DW_AT_TI_symbol_name("Lab_cn")
     572                            .dwattr $C$DW$98, DW_AT_type(*$C$DW$T$21)
     573                            .dwattr $C$DW$98, DW_AT_location[DW_OP_breg31 24]
     574                    $C$DW$99        .dwtag  DW_TAG_variable, DW_AT_name("Lab")
     575                            .dwattr $C$DW$99, DW_AT_TI_symbol_name("Lab")
     576                            .dwattr $C$DW$99, DW_AT_type(*$C$DW$T$21)
     577                            .dwattr $C$DW$99, DW_AT_location[DW_OP_breg31 28]
     578                    $C$DW$100       .dwtag  DW_TAG_variable, DW_AT_name("whitePoint")
     579                            .dwattr $C$DW$100, DW_AT_TI_symbol_name("whitePoint")
     580                            .dwattr $C$DW$100, DW_AT_type(*$C$DW$T$25)
     581                            .dwattr $C$DW$100, DW_AT_location[DW_OP_breg31 32]
     582                    $C$DW$101       .dwtag  DW_TAG_variable, DW_AT_name("coeff")
     583                            .dwattr $C$DW$101, DW_AT_TI_symbol_name("coeff")
     584                            .dwattr $C$DW$101, DW_AT_type(*$C$DW$T$23)
     585                            .dwattr $C$DW$101, DW_AT_location[DW_OP_breg31 36]
     586                    $C$DW$102       .dwtag  DW_TAG_variable, DW_AT_name("lut_size")
     587                            .dwattr $C$DW$102, DW_AT_TI_symbol_name("lut_size")
     588                            .dwattr $C$DW$102, DW_AT_type(*$C$DW$T$70)
     589                            .dwattr $C$DW$102, DW_AT_location[DW_OP_reg13]
     590                    $C$DW$103       .dwtag  DW_TAG_variable, DW_AT_name("status_nat_vs_ref")
     591                            .dwattr $C$DW$103, DW_AT_TI_symbol_name("status_nat_vs_ref")
     592                            .dwattr $C$DW$103, DW_AT_type(*$C$DW$T$26)
     593                            .dwattr $C$DW$103, DW_AT_location[DW_OP_reg28]
     594                    $C$DW$104       .dwtag  DW_TAG_variable, DW_AT_name("status_nat_vs_int")
     595                            .dwattr $C$DW$104, DW_AT_TI_symbol_name("status_nat_vs_int")
     596                            .dwattr $C$DW$104, DW_AT_type(*$C$DW$T$26)
     597                            .dwattr $C$DW$104, DW_AT_location[DW_OP_reg15]
     598                    $C$DW$105       .dwtag  DW_TAG_variable, DW_AT_name("prm")
     599                            .dwattr $C$DW$105, DW_AT_TI_symbol_name("prm")
     600                            .dwattr $C$DW$105, DW_AT_type(*$C$DW$T$47)
     601                            .dwattr $C$DW$105, DW_AT_location[DW_OP_breg31 20]
     602                    $C$DW$106       .dwtag  DW_TAG_variable, DW_AT_name("tpi")
     603                            .dwattr $C$DW$106, DW_AT_TI_symbol_name("tpi")
     604                            .dwattr $C$DW$106, DW_AT_type(*$C$DW$T$26)
     605                            .dwattr $C$DW$106, DW_AT_location[DW_OP_reg14]
TMS320C6x Assembler PC v7.4.2 Thu Mar 19 12:42:25 2015

Tools Copyright (c) 1996-2012 Texas Instruments Incorporated
package/lib/Regression/regress_d_c/./../packages/ti/vlib/src/VLIB_initUYVYint_to_LABpl_LUT/VLIB_initUYVYint_to_LABpl_LUT_d.se66 PAGE   12

     606                    $C$DW$107       .dwtag  DW_TAG_variable, DW_AT_name("$O$v1")
     607                            .dwattr $C$DW$107, DW_AT_TI_symbol_name("$O$v1")
     608                            .dwattr $C$DW$107, DW_AT_type(*$C$DW$T$47)
     609                            .dwattr $C$DW$107, DW_AT_location[DW_OP_reg20]
     610                    $C$DW$108       .dwtag  DW_TAG_variable, DW_AT_name("$O$v2")
     611                            .dwattr $C$DW$108, DW_AT_TI_symbol_name("$O$v2")
     612                            .dwattr $C$DW$108, DW_AT_type(*$C$DW$T$154)
     613                            .dwattr $C$DW$108, DW_AT_location[DW_OP_reg20]
     614                    $C$DW$109       .dwtag  DW_TAG_variable, DW_AT_name("$O$v2")
     615                            .dwattr $C$DW$109, DW_AT_TI_symbol_name("$O$v2")
     616                            .dwattr $C$DW$109, DW_AT_type(*$C$DW$T$154)
     617                            .dwattr $C$DW$109, DW_AT_location[DW_OP_reg24]
     618 00000010 0200002a!            MVKL    .S2     test_cases,B4
     619 00000014 0200006a!            MVKH    .S2     test_cases,B4
     620                    $C$DW$110       .dwtag  DW_TAG_TI_branch
     621                            .dwattr $C$DW$110, DW_AT_low_pc(0x00)
     622                            .dwattr $C$DW$110, DW_AT_name("initUYVYint_to_LABpl_LUT_getTestParams")
     623                            .dwattr $C$DW$110, DW_AT_TI_call
     624                    
     625 00000018 10000013!            CALLP   .S2     initUYVYint_to_LABpl_LUT_getTestParams,B3
     626 00000020 120005fc  ||         ADDAW   .D1X    SP,5,A4           ; |45| 
     627                    
     628                            .dwpsn  file "./../packages/ti/vlib/src/VLIB_initUYVYint_to_LABpl_LUT/VLIB_initUYVYint_to_LABp
     629                    ;----------------------------------------------------------------------
     630                    ;  45 | initUYVYint_to_LABpl_LUT_getTestParams(&prm, &test_cases);             
     631                    ;----------------------------------------------------------------------
     632 00000024           $C$RL0:    ; CALL OCCURS {initUYVYint_to_LABpl_LUT_getTestParams} {0}  ; |45| 
     633                    ;** --------------------------------------------------------------------------*
     634                    ;          EXCLUSIVE CPU CYCLES: 8
     635 00000024 0200002a!            MVKL    .S2     $C$SL1+0,B4
     636 00000028 0200006a!            MVKH    .S2     $C$SL1+0,B4
     637                    $C$DW$111       .dwtag  DW_TAG_TI_branch
     638                            .dwattr $C$DW$111, DW_AT_low_pc(0x00)
     639                            .dwattr $C$DW$111, DW_AT_name("VLIB_profile_init")
     640                            .dwattr $C$DW$111, DW_AT_TI_call
     641                    
     642 0000002c 10000013!            CALLP   .S2     VLIB_profile_init,B3
     643 00000030 0208a358  ||         MVK     .L1     0x2,A4            ; |48| 
     644                    
     645                            .dwpsn  file "./../packages/ti/vlib/src/VLIB_initUYVYint_to_LABpl_LUT/VLIB_initUYVYint_to_LABp
     646                    ;----------------------------------------------------------------------
     647                    ;  48 | VLIB_profile_init(2, "VLIB_initUYVYint_to_LABpl_LUT");                 
     648                    ;----------------------------------------------------------------------
     649 00000034           $C$RL1:    ; CALL OCCURS {VLIB_profile_init} {0}  ; |48| 
     650                    ;** --------------------------------------------------------------------------*
     651                    ;          EXCLUSIVE CPU CYCLES: 14
     652 00000034 01800028!            MVKL    .S1     test_cases,A3
     653 00000038 01800068!            MVKH    .S1     test_cases,A3
     654                            .dwpsn  file "./../packages/ti/vlib/src/VLIB_initUYVYint_to_LABpl_LUT/VLIB_initUYVYint_to_LABp
     655                    ;----------------------------------------------------------------------
     656                    ;  51 | for( tpi=0; tpi < test_cases; tpi++ ) {                                
     657                    ;----------------------------------------------------------------------
     658 0000003c 018c0264             LDW     .D1T1   *A3,A3            ; |51| 
     659 00000040 02bca2e4             LDW     .D2T1   *+SP(20),A5
     660                            .dwpsn  file "./../packages/ti/vlib/src/VLIB_initUYVYint_to_LABpl_LUT/VLIB_initUYVYint_to_LABp
TMS320C6x Assembler PC v7.4.2 Thu Mar 19 12:42:25 2015

Tools Copyright (c) 1996-2012 Texas Instruments Incorporated
package/lib/Regression/regress_d_c/./../packages/ti/vlib/src/VLIB_initUYVYint_to_LABpl_LUT/VLIB_initUYVYint_to_LABpl_LUT_d.se66 PAGE   13

     661                    ;----------------------------------------------------------------------
     662                    ;  54 | int32_t    status_nat_vs_int = vlib_KERNEL_PASS; /* Test status : Natur
     663                    ;     | al c vs. Optimized */                                                  
     664                    ;  55 | int32_t    status_nat_vs_ref = vlib_KERNEL_PASS; /* Test status : Natur
     665                    ;     | al c vs. Static Reference */                                           
     666                    ;----------------------------------------------------------------------
     667 00000044 0700a358             ZERO    .L1     A14               ; |51| 
     668 00000048 0580a35a             ZERO    .L2     B11               ; |51| 
     669 0000004c     0c6e             NOP             1
     670                            .dwpsn  file "./../packages/ti/vlib/src/VLIB_initUYVYint_to_LABpl_LUT/VLIB_initUYVYint_to_LABp
     671 0000004e     11a6             CMPGT   .L1     A3,0,A0           ; |51| 
     672 00000050 d22e8120     [!A0]   BNOP    .S1     $C$L7,4           ; |51| 
     673 00000054 059689c1             SUB     .D1     A5,20,A11
     674                               ; BRANCHCC OCCURS {$C$L7}         ; |51| 
     675                    ;** --------------------------------------------------------------------------*
     676                    ;**     -----------------------    K$46 = &desc[0];
     677                    ;**     -----------------------    K$48 = &testPatternString[0];
     678                    ;**     -----------------------    K$49 = 255;
     679                    ;**     -----------------------    K$89 = &cycles[0];
     680                    ;**     -----------------------    K$10 = 256;
     681                    ;**     -----------------------    U$13 = prm-20;
     682                    ;**     -----------------------    U$12 = 0;
     683                    ;** 51  -----------------------    tpi = 0;
     684                    ;**     -----------------------    #pragma LOOP_FLAGS(5120u)
     685                    ;** --------------------------------------------------------------------------*
     686                    ;**   BEGIN LOOP $C$L1
     687                    ;** --------------------------------------------------------------------------*
     688 00000060           $C$L1:    
     689                            .dwpsn  file "./../packages/ti/vlib/src/VLIB_initUYVYint_to_LABpl_LUT/VLIB_initUYVYint_to_LABp
     690                    $C$DW$L$VLIB_initUYVYint_to_LABpl_LUT_d$5$B:
     691                    ;          EXCLUSIVE CPU CYCLES: 6
     692                    ;**     -----------------------g3:
     693                    ;** 58  -----------------------    C$7 = K$10>>(*(U$13 += 20)).d;
     694                    ;** 58  -----------------------    C$6 = C$7+1;
     695                    ;** 58  -----------------------    lut_size = _lo(_mpyli((short)C$6, _mpy((C$7<<3)+8, C$6)));
     696                    ;** 63  -----------------------    coeff = VLIB_malloc(10u);
     697                    ;** 64  -----------------------    whitePoint = VLIB_malloc(12u);
     698                    ;** 65  -----------------------    Lab = malloc(lut_size);
     699                    ;** 66  -----------------------    Lab_cn = malloc(lut_size);
     700                    ;** 69  -----------------------    if ( !((coeff == NULL)|(whitePoint == NULL)|(Lab == NULL)|(Lab_cn =
     701                    $C$DW$112       .dwtag  DW_TAG_TI_branch
     702                            .dwattr $C$DW$112, DW_AT_low_pc(0x00)
     703                            .dwattr $C$DW$112, DW_AT_name("VLIB_malloc")
     704                            .dwattr $C$DW$112, DW_AT_TI_call
     705                    
     706 00000060 00000013!            CALL    .S2     VLIB_malloc       ; |63| 
     707 00000064 05800a50  ||         ADDK    .S1     20,A11            ; |58| 
     708                    
     709                            .dwpsn  file "./../packages/ti/vlib/src/VLIB_initUYVYint_to_LABpl_LUT/VLIB_initUYVYint_to_LABp
     710                    ;----------------------------------------------------------------------
     711                    ;  58 | uint32_t    lut_size   =  4 * 2 * ((256 >> prm[tpi].d) + 1) *          
     712                    ;  59 |                          ((256 >> prm[tpi].d) + 1) *                   
     713                    ;  60 |                          ((256 >> prm[tpi].d) + 1);                    
     714                    ;----------------------------------------------------------------------
     715 00000068 052c8264             LDW     .D1T1   *+A11(16),A10     ; |58| 
TMS320C6x Assembler PC v7.4.2 Thu Mar 19 12:42:25 2015

Tools Copyright (c) 1996-2012 Texas Instruments Incorporated
package/lib/Regression/regress_d_c/./../packages/ti/vlib/src/VLIB_initUYVYint_to_LABpl_LUT/VLIB_initUYVYint_to_LABpl_LUT_d.se66 PAGE   14

     716                            .dwpsn  file "./../packages/ti/vlib/src/VLIB_initUYVYint_to_LABpl_LUT/VLIB_initUYVYint_to_LABp
     717                    ;----------------------------------------------------------------------
     718                    ;  63 | int16_t    *coeff = (int16_t *) VLIB_malloc(5 * sizeof(int16_t));      
     719                    ;----------------------------------------------------------------------
     720 0000006c 01854162             ADDKPC  .S2     $C$RL2,B3,2       ; |63| 
     721 00000070 0228a358             MVK     .L1     0xa,A4            ; |63| 
     722                    $C$RL2:    ; CALL OCCURS {VLIB_malloc} {0}   ; |63| 
     723                    $C$DW$L$VLIB_initUYVYint_to_LABpl_LUT_d$5$E:
     724                    ;** --------------------------------------------------------------------------*
     725                    $C$DW$L$VLIB_initUYVYint_to_LABpl_LUT_d$6$B:
     726                    ;          EXCLUSIVE CPU CYCLES: 27
     727                    $C$DW$113       .dwtag  DW_TAG_TI_branch
     728                            .dwattr $C$DW$113, DW_AT_low_pc(0x00)
     729                            .dwattr $C$DW$113, DW_AT_name("VLIB_malloc")
     730                            .dwattr $C$DW$113, DW_AT_TI_call
     731                    
     732 00000074 10000013!            CALLP   .S2     VLIB_malloc,B3
     733 00000078     ad45  ||         STW     .D2T1   A4,*+SP(36)       ; |63| 
     734 0000007a     8e26  ||         MVK     .L1     0xc,A4            ; |64| 
     735                    
     736                            .dwpsn  file "./../packages/ti/vlib/src/VLIB_initUYVYint_to_LABpl_LUT/VLIB_initUYVYint_to_LABp
     737                    ;----------------------------------------------------------------------
     738                    ;  64 | VLIB_F32   *whitePoint = (VLIB_F32 *) VLIB_malloc(3 * sizeof(VLIB_F32))
     739                    ;     | ;                                                                      
     740                    ;----------------------------------------------------------------------
     741 00000080           $C$RL3:    ; CALL OCCURS {VLIB_malloc} {0}   ; |64| 
     742 00000080 01808028             MVK     .S1     0x100,A3
     743                    
     744 00000084 018d4de1             SHR     .S1     A3,A10,A3         ; |58| 
     745 00000088     8d45  ||         STW     .D2T1   A4,*+SP(32)       ; |64| 
     746 0000008a     0e26  ||         MVK     .L1     8,A4              ; |58| 
     747                    
     748 0000008c 02107e41             ADDAD   .D1     A4,A3,A4          ; |58| 
     749 00000090     25b0  ||         ADD     .L1     1,A3,A3           ; |58| 
     750                    
     751                            .dwpsn  file "./../packages/ti/vlib/src/VLIB_initUYVYint_to_LABpl_LUT/VLIB_initUYVYint_to_LABp
     752 00000092     899e             MPY     .M1     A4,A3,A4          ; |58| 
     753 00000094 018e1048             EXT     .S1     A3,16,16,A3       ; |58| 
     754 00000098 02106570             MPYLI   .M1     A3,A4,A5:A4       ; |58| 
     755 000000a0     4c6e             NOP             3
     756                    $C$DW$114       .dwtag  DW_TAG_TI_branch
     757                            .dwattr $C$DW$114, DW_AT_low_pc(0x00)
     758                            .dwattr $C$DW$114, DW_AT_name("malloc")
     759                            .dwattr $C$DW$114, DW_AT_TI_call
     760                    
     761 000000a4 10000012!            CALLP   .S2     malloc,B3
     762 000000a2     a646  ||         MV      .L1     A4,A13            ; |58| 
     763                    
     764                            .dwpsn  file "./../packages/ti/vlib/src/VLIB_initUYVYint_to_LABpl_LUT/VLIB_initUYVYint_to_LABp
     765                    ;----------------------------------------------------------------------
     766                    ;  65 | uint16_t   *Lab =    (uint16_t *) malloc(lut_size); /* Should be 8 byte
     767                    ;     |  aligned, malloc aligns to 8 */                                        
     768                    ;----------------------------------------------------------------------
     769                    $C$RL4:    ; CALL OCCURS {malloc} {0}        ; |65| 
     770                    $C$DW$115       .dwtag  DW_TAG_TI_branch
TMS320C6x Assembler PC v7.4.2 Thu Mar 19 12:42:25 2015

Tools Copyright (c) 1996-2012 Texas Instruments Incorporated
package/lib/Regression/regress_d_c/./../packages/ti/vlib/src/VLIB_initUYVYint_to_LABpl_LUT/VLIB_initUYVYint_to_LABpl_LUT_d.se66 PAGE   15

     771                            .dwattr $C$DW$115, DW_AT_low_pc(0x00)
     772                            .dwattr $C$DW$115, DW_AT_name("malloc")
     773                            .dwattr $C$DW$115, DW_AT_TI_call
     774                    
     775 000000a8 10000013!            CALLP   .S2     malloc,B3
     776 000000ac     ecc5  ||         STW     .D2T1   A4,*+SP(28)       ; |65| 
     777 000000ae     8686  ||         MV      .L1     A13,A4            ; |66| 
     778                    
     779                            .dwpsn  file "./../packages/ti/vlib/src/VLIB_initUYVYint_to_LABpl_LUT/VLIB_initUYVYint_to_LABp
     780                    ;----------------------------------------------------------------------
     781                    ;  66 | uint16_t   *Lab_cn = (uint16_t *) malloc(lut_size); /* Should be 8 byte
     782                    ;     |  aligned, malloc aligns to 8 */                                        
     783                    ;----------------------------------------------------------------------
     784 000000b0           $C$RL5:    ; CALL OCCURS {malloc} {0}        ; |66| 
     785 000000b0           $C$DW$L$VLIB_initUYVYint_to_LABpl_LUT_d$6$E:
     786                    ;** --------------------------------------------------------------------------*
     787 000000b0           $C$DW$L$VLIB_initUYVYint_to_LABpl_LUT_d$7$B:
     788                    ;          EXCLUSIVE CPU CYCLES: 17
     789                    
     790 000000b0     0627             ZERO    .L2     B4                ; |69| 
     791 000000b2     0293  ||         ZERO    .S2     B5                ; |69| 
     792 000000b4     4246  ||         MV      .L1     A4,A2             ; |69| 
     793 000000b6     ec9d  ||         LDW     .D2T1   *+SP(28),A1       ; |69| 
     794                    
     795                            .dwpsn  file "./../packages/ti/vlib/src/VLIB_initUYVYint_to_LABpl_LUT/VLIB_initUYVYint_to_LABp
     796                    ;----------------------------------------------------------------------
     797                    ;  69 | if( coeff && whitePoint && Lab && Lab_cn ) {                           
     798                    ;----------------------------------------------------------------------
     799 000000b8     9d0d             LDW     .D2T2   *+SP(32),B0       ; |69| 
     800 000000ba     ad0d             LDW     .D2T1   *+SP(36),A0       ; |69| 
     801 000000c0     05a6             ZERO    .L1     A3                ; |69| 
     802                            .dwpsn  file "./../packages/ti/vlib/src/VLIB_initUYVYint_to_LABpl_LUT/VLIB_initUYVYint_to_LABp
     803 000000c2     ccc5             STW     .D2T1   A4,*+SP(24)       ; |66| 
     804                            .dwpsn  file "./../packages/ti/vlib/src/VLIB_initUYVYint_to_LABpl_LUT/VLIB_initUYVYint_to_LABp
     805                    ;----------------------------------------------------------------------
     806                    ;  71 | int32_t    fail, i;                                                    
     807                    ;  74 | VLIB_fillBuffer(prm[tpi].testPattern,                                  
     808                    ;  75 |                 (uint8_t)255,                                          
     809                    ;  76 |                 NULL, NULL,                                            
     810                    ;  77 |                 NULL, NULL, NULL,                                      
     811                    ;  78 |                 sizeof(uint16_t), testPatternString);                  
     812                    ;  80 | for( i=0; i < 5; i++ ) {                                               
     813                    ;  81 |     coeff[i] = prm[tpi].coeff[i];                                      
     814                    ;  84 | for( i=0; i < 3; i++ ) {                                               
     815                    ;  85 |     whitePoint[i] = prm[tpi].whitePoint[i];                            
     816                    ;  89 | VLIB_profile_start(vlib_KERNEL_OPT);                                   
     817                    ;  90 | VLIB_initUYVYint_to_LABpl_LUT(prm[tpi].d, coeff, whitePoint, Lab);     
     818                    ;  91 | VLIB_profile_stop();                                                   
     819                    ;  94 | VLIB_profile_start(vlib_KERNEL_CN);                                    
     820                    ;  95 | VLIB_initUYVYint_to_LABpl_LUT_cn(prm[tpi].d, coeff, whitePoint, Lab_cn)
     821                    ;     | ;                                                                      
     822                    ;  96 | VLIB_profile_stop();                                                   
     823                    ; 100 | status_nat_vs_int = VLIB_compare_mem((void *) Lab, (void *)Lab_cn, lut_
     824                    ;     | size);                                                                 
     825                    ; 102 | for( i=0; i < lut_size / 2; i++ ) {                                    
TMS320C6x Assembler PC v7.4.2 Thu Mar 19 12:42:25 2015

Tools Copyright (c) 1996-2012 Texas Instruments Incorporated
package/lib/Regression/regress_d_c/./../packages/ti/vlib/src/VLIB_initUYVYint_to_LABpl_LUT/VLIB_initUYVYint_to_LABpl_LUT_d.se66 PAGE   16

     826                    ; 103 |     if( Lab[i] != Lab_cn[i] ) {                                        
     827                    ; 104 |         printf("[%d] O=%d C=%d\n", i, Lab[i], Lab_cn[i]);              
     828                    ; 109 | if( prm[tpi].staticOut != NULL ) {                                     
     829                    ; 110 |     status_nat_vs_ref = VLIB_compare_mem((void *) prm[tpi].staticOut, (
     830                    ;     | void *)Lab_cn, lut_size * sizeof(uint8_t));                            
     831                    ; 114 | fail = ((status_nat_vs_int == vlib_KERNEL_FAIL) || (status_nat_vs_ref =
     832                    ;     | = vlib_KERNEL_FAIL)) ? 1 : 0;                                          
     833                    ; 116 | est_test=1;                                                            
     834                    ; 119 | sprintf(desc, "%s generated input | Opt results compared to NatC result
     835                    ;     | s | d=%d, lut_size=%d bytes",                                          
     836                    ; 120 |         testPatternString, prm[tpi].d, lut_size);                      
     837                    ; 121 | VLIB_formula_add_test(lut_size, NULL, NULL, fail, desc, NULL);         
     838                    ; 123 | } else {                                                               
     839                    ;----------------------------------------------------------------------
     840 000000c4 9184a358     [!A1]   MVK     .L1     0x1,A3            ; |69| 
     841 000000c8     ea67     [!B0]   MVK     .L2     0x1,B4            ; |69| 
     842 000000ca     6ae7     [!A0]   MVK     .L2     0x1,B5            ; |69| 
     843                    
     844 000000cc 02948ffb             OR      .L2     B4,B5,B5          ; |69| 
     845 000000d0 0200002a  ||         ZERO    .S2     B4                ; |69| 
     846                    
     847 000000d4 028cbffb             OR      .L2X    A3,B5,B5          ; |69| 
     848 000000d8 b20000aa  || [!A2]   MVK     .S2     0x1,B4            ; |69| 
     849                    
     850 000000e0 00148ffa             OR      .L2     B4,B5,B0          ; |69| 
     851                    
     852 000000e4 30000c11     [!B0]   B       .S1     $C$L2             ; |69| 
     853 000000e8 21ac8265  || [ B0]   LDW     .D1T1   *+A11(16),A3      ; |125| 
     854 000000ec 2200002a! || [ B0]   MVKL    .S2     $C$SL2+0,B4
     855                    
     856 000000f0 322c0215     [!B0]   LDBU    .D1T1   *A11,A4           ; |74| 
     857 000000f4 22000028! || [ B0]   MVKL    .S1     desc,A4
     858                    
     859                    $C$DW$116       .dwtag  DW_TAG_TI_branch
     860                            .dwattr $C$DW$116, DW_AT_low_pc(0x00)
     861                            .dwattr $C$DW$116, DW_AT_name("VLIB_fillBuffer")
     862                            .dwattr $C$DW$116, DW_AT_TI_call
     863                    
     864 000000f8 30000011!    [!B0]   CALL    .S1     VLIB_fillBuffer   ; |74| 
     865 000000fc 2200006a! || [ B0]   MVKH    .S2     $C$SL2+0,B4
     866                    
     867 00000100 32007faa     [!B0]   MVK     .S2     0xff,B4
     868                            .dwpsn  file "./../packages/ti/vlib/src/VLIB_initUYVYint_to_LABpl_LUT/VLIB_initUYVYint_to_LABp
     869                    ;----------------------------------------------------------------------
     870                    ; 125 | sprintf(desc, "d=%d, lut_size=%d bytes",                               
     871                    ;----------------------------------------------------------------------
     872                    $C$DW$117       .dwtag  DW_TAG_TI_branch
     873                            .dwattr $C$DW$117, DW_AT_low_pc(0x00)
     874                            .dwattr $C$DW$117, DW_AT_name("sprintf")
     875                            .dwattr $C$DW$117, DW_AT_TI_call
     876 00000104 20000010!    [ B0]   CALL    .S1     sprintf           ; |125| 
     877 00000108 36000028!    [!B0]   MVKL    .S1     testPatternString,A12
     878                            .dwpsn  file "./../packages/ti/vlib/src/VLIB_initUYVYint_to_LABpl_LUT/VLIB_initUYVYint_to_LABp
     879                               ; BRANCHCC OCCURS {$C$L2}         ; |69| 
     880 0000010c           $C$DW$L$VLIB_initUYVYint_to_LABpl_LUT_d$7$E:
TMS320C6x Assembler PC v7.4.2 Thu Mar 19 12:42:25 2015

Tools Copyright (c) 1996-2012 Texas Instruments Incorporated
package/lib/Regression/regress_d_c/./../packages/ti/vlib/src/VLIB_initUYVYint_to_LABpl_LUT/VLIB_initUYVYint_to_LABpl_LUT_d.se66 PAGE   17

     881                    ;** --------------------------------------------------------------------------*
     882 0000010c           $C$DW$L$VLIB_initUYVYint_to_LABpl_LUT_d$8$B:
     883                    ;          EXCLUSIVE CPU CYCLES: 4
     884                    ;** 125 -----------------------    sprintf(K$46, (const char *)"d=%d, lut_size=%d bytes", (*U$13).d, l
     885                    ;** 127 -----------------------    VLIB_skip_test(K$46);
     886                    ;** 127 -----------------------    goto g13;
     887                            .dwpsn  file "./../packages/ti/vlib/src/VLIB_initUYVYint_to_LABpl_LUT/VLIB_initUYVYint_to_LABp
     888                    ;----------------------------------------------------------------------
     889                    ; 126 | prm[tpi].d, lut_size);                                                 
     890                    ;----------------------------------------------------------------------
     891 0000010c     cc35             STW     .D2T1   A3,*+SP(8)        ; |125| 
     892 0000010e     bc45             STW     .D2T2   B4,*+SP(4)        ; |125| 
     893 00000110 01880162             ADDKPC  .S2     $C$RL6,B3,0       ; |125| 
     894                    
     895 00000114 02000069!            MVKH    .S1     desc,A4
     896 00000118 06bc62f4  ||         STW     .D2T1   A13,*+SP(12)      ; |125| 
     897                    
     898 00000120           $C$RL6:    ; CALL OCCURS {sprintf} {0}       ; |125| 
     899 00000120           $C$DW$L$VLIB_initUYVYint_to_LABpl_LUT_d$8$E:
     900                    ;** --------------------------------------------------------------------------*
     901 00000120           $C$DW$L$VLIB_initUYVYint_to_LABpl_LUT_d$9$B:
     902                    ;          EXCLUSIVE CPU CYCLES: 7
     903 00000120 02000028!            MVKL    .S1     desc,A4
     904                    $C$DW$118       .dwtag  DW_TAG_TI_branch
     905                            .dwattr $C$DW$118, DW_AT_low_pc(0x00)
     906                            .dwattr $C$DW$118, DW_AT_name("VLIB_skip_test")
     907                            .dwattr $C$DW$118, DW_AT_TI_call
     908                    
     909 00000124 10000013!            CALLP   .S2     VLIB_skip_test,B3
     910 00000128 02000068! ||         MVKH    .S1     desc,A4
     911                    
     912                            .dwpsn  file "./../packages/ti/vlib/src/VLIB_initUYVYint_to_LABpl_LUT/VLIB_initUYVYint_to_LABp
     913                    ;----------------------------------------------------------------------
     914                    ; 127 | VLIB_skip_test(desc);                                                  
     915                    ;----------------------------------------------------------------------
     916 0000012c           $C$RL7:    ; CALL OCCURS {VLIB_skip_test} {0}  ; |127| 
     917 0000012c           $C$DW$L$VLIB_initUYVYint_to_LABpl_LUT_d$9$E:
     918                    ;** --------------------------------------------------------------------------*
     919 0000012c           $C$DW$L$VLIB_initUYVYint_to_LABpl_LUT_d$10$B:
     920                    ;          EXCLUSIVE CPU CYCLES: 6
     921 0000012c 00006810             B       .S1     $C$L6             ; |127| 
     922                            .dwpsn  file "./../packages/ti/vlib/src/VLIB_initUYVYint_to_LABpl_LUT/VLIB_initUYVYint_to_LABp
     923                    ;----------------------------------------------------------------------
     924                    ; 131 | free(Lab_cn);                                                          
     925                    ; 132 | free(Lab);                                                             
     926                    ; 133 | VLIB_free(whitePoint);                                                 
     927                    ; 134 | VLIB_free(coeff);                                                      
     928                    ;----------------------------------------------------------------------
     929                    $C$DW$119       .dwtag  DW_TAG_TI_branch
     930                            .dwattr $C$DW$119, DW_AT_low_pc(0x00)
     931                            .dwattr $C$DW$119, DW_AT_name("free")
     932                            .dwattr $C$DW$119, DW_AT_TI_call
     933 00000130 00000010!            CALL    .S1     free              ; |131| 
     934 00000134     cccd             LDW     .D2T1   *+SP(24),A4       ; |131| 
     935 00000136     4c6e             NOP             3
TMS320C6x Assembler PC v7.4.2 Thu Mar 19 12:42:25 2015

Tools Copyright (c) 1996-2012 Texas Instruments Incorporated
package/lib/Regression/regress_d_c/./../packages/ti/vlib/src/VLIB_initUYVYint_to_LABpl_LUT/VLIB_initUYVYint_to_LABpl_LUT_d.se66 PAGE   18

     936                            .dwpsn  file "./../packages/ti/vlib/src/VLIB_initUYVYint_to_LABpl_LUT/VLIB_initUYVYint_to_LABp
     937                               ; BRANCH OCCURS {$C$L6}           ; |127| 
     938 00000140           $C$DW$L$VLIB_initUYVYint_to_LABpl_LUT_d$10$E:
     939                    ;** --------------------------------------------------------------------------*
     940 00000140           $C$L2:    
     941                            .dwpsn  file "./../packages/ti/vlib/src/VLIB_initUYVYint_to_LABpl_LUT/VLIB_initUYVYint_to_LABp
     942 00000140           $C$DW$L$VLIB_initUYVYint_to_LABpl_LUT_d$11$B:
     943                    ;          EXCLUSIVE CPU CYCLES: 2
     944                    ;**     -----------------------g5:
     945                    ;** 74  -----------------------    VLIB_fillBuffer((*U$13).testPattern, (unsigned char)K$49, NULL, NUL
     946                    ;** 81  -----------------------    *coeff = *(*U$13).coeff;
     947                    ;** 81  -----------------------    coeff[1] = *((*U$13).coeff+2);
     948                    ;** 81  -----------------------    coeff[2] = *((*U$13).coeff+4);
     949                    ;** 81  -----------------------    coeff[3] = *((*U$13).coeff+6);
     950                    ;** 81  -----------------------    coeff[4] = *((*U$13).coeff+8);
     951                    ;** 85  -----------------------    *whitePoint = *(*U$13).whitePoint;
     952                    ;** 85  -----------------------    whitePoint[1] = *((*U$13).whitePoint+4);
     953                    ;** 85  -----------------------    whitePoint[2] = *((*U$13).whitePoint+8);
     954                    ;** 137 -----------------------    act_kernel = 0;  // [14]
     955                    ;** 140 -----------------------    VLIB_cache_inval();  // [14]
     956                    ;** 143 -----------------------    initStack(getSP());  // [14]
     957                    ;** 146 -----------------------    beg_count = _itoll(TSCH, TSCL);  // [14]
     958                    ;** 90  -----------------------    VLIB_initUYVYint_to_LABpl_LUT((*U$13).d, coeff, whitePoint, Lab);
     959                    ;** 153 -----------------------    v$2 = _itoll(TSCH, TSCL);  // [15]
     960                    ;** 153 -----------------------    end_count = v$2;  // [15]
     961                    ;** 156 -----------------------    C$5 = act_kernel;  // [15]
     962                    ;** 156 -----------------------    *((C$5<<3)+K$89) = *((C$5<<3)+K$89)+(v$2-(beg_count+overhead));  //
     963                    ;** 159 -----------------------    setStackDepth();  // [15]
     964                    ;** 137 -----------------------    act_kernel = 1;  // [14]
     965                    ;** 140 -----------------------    VLIB_cache_inval();  // [14]
     966                    ;** 143 -----------------------    initStack(getSP());  // [14]
     967                    ;** 146 -----------------------    beg_count = _itoll(TSCH, TSCL);  // [14]
     968                    ;** 95  -----------------------    VLIB_initUYVYint_to_LABpl_LUT_cn((*U$13).d, coeff, whitePoint, Lab_
     969                    ;** 153 -----------------------    v$2 = _itoll(TSCH, TSCL);  // [15]
     970                    ;** 153 -----------------------    end_count = v$2;  // [15]
     971                    ;** 156 -----------------------    C$4 = act_kernel;  // [15]
     972                    ;** 156 -----------------------    *((C$4<<3)+K$89) = *((C$4<<3)+K$89)+(v$2-(beg_count+overhead));  //
     973                    ;** 159 -----------------------    setStackDepth();  // [15]
     974                    
     975 00000140 01890163             ADDKPC  .S2     $C$RL8,B3,0       ; |74| 
     976 00000144 0400a35b  ||         ZERO    .L2     B8                ; |74| 
     977 00000148 0400a358  ||         ZERO    .L1     A8                ; |74| 
     978                    
     979 0000014c     9a63             EXTU    .S2     B4,24,24,B4       ; |74| 
     980 0000014e     0727  ||         ZERO    .L2     B6                ; |74| 
     981 00000150 05004043  ||         MVK     .D2     0x2,B10           ; |74| 
     982 00000154 06000069! ||         MVKH    .S1     testPatternString,A12
     983 00000160 0300a358  ||         ZERO    .L1     A6                ; |74| 
     984 00000158 05000041  ||         ZERO    .D1     A10               ; |74| 
     985                    
     986                            .dwpsn  file "./../packages/ti/vlib/src/VLIB_initUYVYint_to_LABpl_LUT/VLIB_initUYVYint_to_LABp
     987 00000164           $C$RL8:    ; CALL OCCURS {VLIB_fillBuffer} {0}  ; |74| 
     988 00000164           $C$DW$L$VLIB_initUYVYint_to_LABpl_LUT_d$11$E:
     989                    ;** --------------------------------------------------------------------------*
     990 00000164           $C$DW$L$VLIB_initUYVYint_to_LABpl_LUT_d$12$B:
TMS320C6x Assembler PC v7.4.2 Thu Mar 19 12:42:25 2015

Tools Copyright (c) 1996-2012 Texas Instruments Incorporated
package/lib/Regression/regress_d_c/./../packages/ti/vlib/src/VLIB_initUYVYint_to_LABpl_LUT/VLIB_initUYVYint_to_LABpl_LUT_d.se66 PAGE   19

     991                    ;          EXCLUSIVE CPU CYCLES: 190
     992                            .dwpsn  file "./../packages/ti/vlib/src/VLIB_initUYVYint_to_LABpl_LUT/VLIB_initUYVYint_to_LABp
     993 00000164 022c4266             LDW     .D1T2   *+A11(8),B4       ; |81| 
     994 00000168 01bd22e4             LDW     .D2T1   *+SP(36),A3
     995 0000016c 0fbd22e4             LDW     .D2T1   *+SP(36),A31
     996 00000170 0f3d22e4             LDW     .D2T1   *+SP(36),A30
     997 00000174 0ebd02e4             LDW     .D2T1   *+SP(32),A29
     998 00000178 021002c4             LDH     .D2T1   *B4,A4            ; |81| 
     999 0000017c 05000028!            MVKL    .S1     act_kernel,A10
    1000 00000180 05000068!            MVKH    .S1     act_kernel,A10
    1001                            .dwpsn  file ".\..\packages\ti\vlib\src\VLIB_initUYVYint_to_LABpl_LUT\..\common\VLIB_profile.h
    1002 00000184 0e00a358             ZERO    .L1     A28               ; |137| 
    1003 00000188 0e280274             STW     .D1T1   A28,*A10          ; |137| 
    1004                            .dwpsn  file "./../packages/ti/vlib/src/VLIB_initUYVYint_to_LABpl_LUT/VLIB_initUYVYint_to_LABp
    1005 0000018c 020c0254             STH     .D1T1   A4,*A3            ; |81| 
    1006 00000190 022c4266             LDW     .D1T2   *+A11(8),B4       ; |81| 
    1007 00000194 00000000             NOP             4
    1008 00000194 019022c4             LDH     .D2T1   *+B4(2),A3        ; |81| 
    1009 00000198 00000000             NOP             4
    1010 00000198 01fc2254             STH     .D1T1   A3,*+A31(2)       ; |81| 
    1011 000001a0 022c4266             LDW     .D1T2   *+A11(8),B4       ; |81| 
    1012                            .dwpsn  file ".\..\packages\ti\vlib\src\VLIB_initUYVYint_to_LABpl_LUT\..\common\VLIB_profile.h
    1013                    ;----------------------------------------------------------------------
    1014                    ; 138 | VLIB_profile_cycle_report(vlib_PROFILE_RANGE,                          
    1015                    ; 139 |                           NULL,                                        
    1016                    ;----------------------------------------------------------------------
    1017 000001a4     8d3d             LDW     .D2T1   *+SP(32),A3       ; |137| 
    1018 000001a6     4c6e             NOP             3
    1019                            .dwpsn  file "./../packages/ti/vlib/src/VLIB_initUYVYint_to_LABpl_LUT/VLIB_initUYVYint_to_LABp
    1020 000001a8     424d             LDH     .D2T1   *+B4(4),A4        ; |81| 
    1021 000001aa     6c6e             NOP             4
    1022 000001ac 02784254             STH     .D1T1   A4,*+A30(4)       ; |81| 
    1023 000001b0 022c4266             LDW     .D1T2   *+A11(8),B4       ; |81| 
    1024 000001b4     6c6e             NOP             4
    1025 000001b6     624d             LDH     .D2T1   *+B4(6),A4        ; |81| 
    1026 000001b8 00006000             NOP             4
    1027 000001c0 02786254             STH     .D1T1   A4,*+A30(6)       ; |81| 
    1028 000001c4 022c4266             LDW     .D1T2   *+A11(8),B4       ; |81| 
    1029 000001c8 00000000             NOP             4
    1030 000001c8 021082c4             LDH     .D2T1   *+B4(8),A4        ; |81| 
    1031 000001cc 00000000             NOP             4
    1032 000001cc 02788254             STH     .D1T1   A4,*+A30(8)       ; |81| 
    1033                            .dwpsn  file "./../packages/ti/vlib/src/VLIB_initUYVYint_to_LABpl_LUT/VLIB_initUYVYint_to_LABp
    1034 000001d0 022c6266             LDW     .D1T2   *+A11(12),B4      ; |85| 
    1035 000001d4 00000000             NOP             4
    1036 000001d4 021002e6             LDW     .D2T2   *B4,B4            ; |85| 
    1037 000001d8 00000000             NOP             4
    1038 000001d8 02740276             STW     .D1T2   B4,*A29           ; |85| 
    1039 000001e0 022c6266             LDW     .D1T2   *+A11(12),B4      ; |85| 
    1040 000001e4 00000000             NOP             4
    1041 000001e4 021022e6             LDW     .D2T2   *+B4(4),B4        ; |85| 
    1042 000001e8 00000000             NOP             4
    1043 000001e8 02742276             STW     .D1T2   B4,*+A29(4)       ; |85| 
    1044 000001ec 022c6266             LDW     .D1T2   *+A11(12),B4      ; |85| 
    1045 000001f0 00000000             NOP             4
TMS320C6x Assembler PC v7.4.2 Thu Mar 19 12:42:25 2015

Tools Copyright (c) 1996-2012 Texas Instruments Incorporated
package/lib/Regression/regress_d_c/./../packages/ti/vlib/src/VLIB_initUYVYint_to_LABpl_LUT/VLIB_initUYVYint_to_LABpl_LUT_d.se66 PAGE   20

    1046 000001f0 021042e6             LDW     .D2T2   *+B4(8),B4        ; |85| 
    1047 000001f4 00000000             NOP             4
    1048                    $C$DW$120       .dwtag  DW_TAG_TI_branch
    1049                            .dwattr $C$DW$120, DW_AT_low_pc(0x00)
    1050                            .dwattr $C$DW$120, DW_AT_name("VLIB_cache_inval")
    1051                            .dwattr $C$DW$120, DW_AT_TI_call
    1052                    
    1053 000001f4 10000013!            CALLP   .S2     VLIB_cache_inval,B3
    1054 000001f8 020c4276  ||         STW     .D1T2   B4,*+A3(8)        ; |85| 
    1055                    
    1056                            .dwpsn  file ".\..\packages\ti\vlib\src\VLIB_initUYVYint_to_LABpl_LUT\..\common\VLIB_profile.h
    1057                    ;----------------------------------------------------------------------
    1058                    ; 140 | "width * height");                                                     
    1059                    ;----------------------------------------------------------------------
    1060                    $C$RL9:    ; CALL OCCURS {VLIB_cache_inval} {0}  ; |140| 
    1061                    $C$DW$121       .dwtag  DW_TAG_TI_branch
    1062                            .dwattr $C$DW$121, DW_AT_low_pc(0x00)
    1063                            .dwattr $C$DW$121, DW_AT_name("getSP")
    1064                            .dwattr $C$DW$121, DW_AT_TI_call
    1065 00000200 10000012!            CALLP   .S2     getSP,B3
    1066                            .dwpsn  file ".\..\packages\ti\vlib\src\VLIB_initUYVYint_to_LABpl_LUT\..\common\VLIB_profile.h
    1067                    ;----------------------------------------------------------------------
    1068                    ; 143 | VLIB_kernel_memory();                                                  
    1069                    ;----------------------------------------------------------------------
    1070                    $C$RL10:   ; CALL OCCURS {getSP} {0}         ; |143| 
    1071                    $C$DW$122       .dwtag  DW_TAG_TI_branch
    1072                            .dwattr $C$DW$122, DW_AT_low_pc(0x00)
    1073                            .dwattr $C$DW$122, DW_AT_name("initStack")
    1074                            .dwattr $C$DW$122, DW_AT_TI_call
    1075 00000204 10000012!            CALLP   .S2     initStack,B3
    1076 00000208           $C$RL11:   ; CALL OCCURS {initStack} {0}     ; |143| 
    1077                            .dwpsn  file ".\..\packages\ti\vlib\src\VLIB_initUYVYint_to_LABpl_LUT\..\common\VLIB_profile.h
    1078                    ;----------------------------------------------------------------------
    1079                    ; 147 | #ifndef __ONESHOTTEST                                                  
    1080                    ; 149 | main() {                                                               
    1081                    ; 150 | if( VLIB_cache_init()) {                                               
    1082                    ; 151 |     VLIB_memError("VLIB_initUYVYint_to_LABpl_LUT");                    
    1083                    ; 152 | } else {                                                               
    1084                    ;----------------------------------------------------------------------
    1085 00000208 022803e2             MVC     .S2     TSCL,B4           ; |146| 
    1086 0000020c 02ac03e2             MVC     .S2     TSCH,B5           ; |146| 
    1087 00000210 06000028!            MVKL    .S1     beg_count,A12
    1088                    
    1089 00000214 06000069!            MVKH    .S1     beg_count,A12
    1090 00000218     fced  ||         LDW     .D2T2   *+SP(28),B6       ; |90| 
    1091                    
    1092 00000220 02300346             STDW    .D1T2   B5:B4,*A12        ; |146| 
    1093 0000021a     8d6d  ||         LDW     .D2T1   *+SP(32),A6       ; |90| 
    1094                    
    1095                    $C$DW$123       .dwtag  DW_TAG_TI_branch
    1096                            .dwattr $C$DW$123, DW_AT_low_pc(0x00)
    1097                            .dwattr $C$DW$123, DW_AT_name("VLIB_initUYVYint_to_LABpl_LUT")
    1098                            .dwattr $C$DW$123, DW_AT_TI_call
    1099                    
    1100 00000224 10000013!            CALLP   .S2     VLIB_initUYVYint_to_LABpl_LUT,B3
TMS320C6x Assembler PC v7.4.2 Thu Mar 19 12:42:25 2015

Tools Copyright (c) 1996-2012 Texas Instruments Incorporated
package/lib/Regression/regress_d_c/./../packages/ti/vlib/src/VLIB_initUYVYint_to_LABpl_LUT/VLIB_initUYVYint_to_LABpl_LUT_d.se66 PAGE   21

    1101 00000228 023d22e7  ||         LDW     .D2T2   *+SP(36),B4       ; |90| 
    1102 0000022c 022c8264  ||         LDW     .D1T1   *+A11(16),A4      ; |90| 
    1103                    
    1104                            .dwpsn  file "./../packages/ti/vlib/src/VLIB_initUYVYint_to_LABpl_LUT/VLIB_initUYVYint_to_LABp
    1105 00000230           $C$RL12:   ; CALL OCCURS {VLIB_initUYVYint_to_LABpl_LUT} {0}  ; |90| 
    1106                            .dwpsn  file ".\..\packages\ti\vlib\src\VLIB_initUYVYint_to_LABpl_LUT\..\common\VLIB_profile.h
    1107                    ;----------------------------------------------------------------------
    1108                    ; 153 | VLIB_initUYVYint_to_LABpl_LUT_d(0);                                    
    1109                    ;----------------------------------------------------------------------
    1110 00000230 022803e2             MVC     .S2     TSCL,B4           ; |153| 
    1111 00000234 02ac03e2             MVC     .S2     TSCH,B5           ; |153| 
    1112 00000238 0500002a!            MVKL    .S2     overhead,B10
    1113                    
    1114 0000023c 0500006b!            MVKH    .S2     overhead,B10
    1115 00000240 03280264  ||         LDW     .D1T1   *A10,A6           ; |156| 
    1116                    
    1117 00000244 032803e7             LDDW    .D2T2   *B10,B7:B6        ; |156| 
    1118 00000248 04300364  ||         LDDW    .D1T1   *A12,A9:A8        ; |156| 
    1119                    
    1120 0000024c 01800028!            MVKL    .S1     cycles,A3
    1121 00000250 01800068!            MVKH    .S1     cycles,A3
    1122 00000254 0680002a!            MVKL    .S2     end_count,B13
    1123                            .dwpsn  file ".\..\packages\ti\vlib\src\VLIB_initUYVYint_to_LABpl_LUT\..\common\VLIB_profile.h
    1124                    ;----------------------------------------------------------------------
    1125                    ; 156 | #endif /* __ONESHOTTEST */                                             
    1126                    ;----------------------------------------------------------------------
    1127 00000258 080ccb64             LDDW    .D1T1   *+A3[A6],A17:A16  ; |156| 
    1128 0000025c 02191578             ADDU    .L1X    B6,A8,A5:A4       ; |156| 
    1129 00000260 019cb078             ADD     .L1X    A5,B7,A3          ; |156| 
    1130 00000264 01a46078             ADD     .L1     A3,A9,A3          ; |156| 
    1131 00000268 021097f8             SUBU    .L1X    B4,A4,A5:A4       ; |156| 
    1132 0000026c 030cb0fa             SUB     .L2X    B5,A3,B6          ; |156| 
    1133                    
    1134 00000270 0f971849             EXT     .S1     A5,24,24,A31      ; |156| 
    1135 00000274 02120578  ||         ADDU    .L1     A16,A4,A5:A4      ; |156| 
    1136                    
    1137 00000278 01c4a079             ADD     .L1     A5,A17,A3         ; |156| 
    1138 0000027c 029bf1e0  ||         ADD     .S1X    B6,A31,A5         ; |156| 
    1139                    
    1140 00000280 02946079             ADD     .L1     A3,A5,A5          ; |156| 
    1141 00000284 01800028! ||         MVKL    .S1     cycles,A3
    1142                    
    1143 00000288 01800069!            MVKH    .S1     cycles,A3
    1144 0000028c 0680006a! ||         MVKH    .S2     end_count,B13
    1145                    
    1146                    $C$DW$124       .dwtag  DW_TAG_TI_branch
    1147                            .dwattr $C$DW$124, DW_AT_low_pc(0x00)
    1148                            .dwattr $C$DW$124, DW_AT_name("setStackDepth")
    1149                            .dwattr $C$DW$124, DW_AT_TI_call
    1150                    
    1151 00000290 10000013!            CALLP   .S2     setStackDepth,B3
    1152 00000294 020ccb45  ||         STDW    .D1T1   A5:A4,*+A3[A6]    ; |156| 
    1153 00000298 023403c6  ||         STDW    .D2T2   B5:B4,*B13        ; |153| 
    1154                    
    1155                            .dwpsn  file ".\..\packages\ti\vlib\src\VLIB_initUYVYint_to_LABpl_LUT\..\common\VLIB_profile.h
TMS320C6x Assembler PC v7.4.2 Thu Mar 19 12:42:25 2015

Tools Copyright (c) 1996-2012 Texas Instruments Incorporated
package/lib/Regression/regress_d_c/./../packages/ti/vlib/src/VLIB_initUYVYint_to_LABpl_LUT/VLIB_initUYVYint_to_LABpl_LUT_d.se66 PAGE   22

    1156 0000029c           $C$RL13:   ; CALL OCCURS {setStackDepth} {0}  ; |159| 
    1157                            .dwpsn  file ".\..\packages\ti\vlib\src\VLIB_initUYVYint_to_LABpl_LUT\..\common\VLIB_profile.h
    1158 0000029c 0204a35a             MVK     .L2     1,B4              ; |137| 
    1159                    $C$DW$125       .dwtag  DW_TAG_TI_branch
    1160                            .dwattr $C$DW$125, DW_AT_low_pc(0x00)
    1161                            .dwattr $C$DW$125, DW_AT_name("VLIB_cache_inval")
    1162                            .dwattr $C$DW$125, DW_AT_TI_call
    1163                    
    1164 000002a0 10000013!            CALLP   .S2     VLIB_cache_inval,B3
    1165 000002a4 02280276  ||         STW     .D1T2   B4,*A10           ; |137| 
    1166                    
    1167                            .dwpsn  file ".\..\packages\ti\vlib\src\VLIB_initUYVYint_to_LABpl_LUT\..\common\VLIB_profile.h
    1168                    $C$RL14:   ; CALL OCCURS {VLIB_cache_inval} {0}  ; |140| 
    1169                    $C$DW$126       .dwtag  DW_TAG_TI_branch
    1170                            .dwattr $C$DW$126, DW_AT_low_pc(0x00)
    1171                            .dwattr $C$DW$126, DW_AT_name("getSP")
    1172                            .dwattr $C$DW$126, DW_AT_TI_call
    1173 000002a8 10000012!            CALLP   .S2     getSP,B3
    1174                            .dwpsn  file ".\..\packages\ti\vlib\src\VLIB_initUYVYint_to_LABpl_LUT\..\common\VLIB_profile.h
    1175                    $C$RL15:   ; CALL OCCURS {getSP} {0}         ; |143| 
    1176                    $C$DW$127       .dwtag  DW_TAG_TI_branch
    1177                            .dwattr $C$DW$127, DW_AT_low_pc(0x00)
    1178                            .dwattr $C$DW$127, DW_AT_name("initStack")
    1179                            .dwattr $C$DW$127, DW_AT_TI_call
    1180 000002ac 10000012!            CALLP   .S2     initStack,B3
    1181 000002b0           $C$RL16:   ; CALL OCCURS {initStack} {0}     ; |143| 
    1182                            .dwpsn  file ".\..\packages\ti\vlib\src\VLIB_initUYVYint_to_LABpl_LUT\..\common\VLIB_profile.h
    1183 000002b0 022803e2             MVC     .S2     TSCL,B4           ; |146| 
    1184 000002b4 02ac03e2             MVC     .S2     TSCH,B5           ; |146| 
    1185                            .dwpsn  file "./../packages/ti/vlib/src/VLIB_initUYVYint_to_LABpl_LUT/VLIB_initUYVYint_to_LABp
    1186 000002b8     dced             LDW     .D2T2   *+SP(24),B6       ; |95| 
    1187                    
    1188 000002c0 02300346             STDW    .D1T2   B5:B4,*A12        ; |146| 
    1189 000002ba     8d6d  ||         LDW     .D2T1   *+SP(32),A6       ; |95| 
    1190                    
    1191                    $C$DW$128       .dwtag  DW_TAG_TI_branch
    1192                            .dwattr $C$DW$128, DW_AT_low_pc(0x00)
    1193                            .dwattr $C$DW$128, DW_AT_name("VLIB_initUYVYint_to_LABpl_LUT_cn")
    1194                            .dwattr $C$DW$128, DW_AT_TI_call
    1195                    
    1196 000002c4 10000013!            CALLP   .S2     VLIB_initUYVYint_to_LABpl_LUT_cn,B3
    1197 000002c8 022c8265  ||         LDW     .D1T1   *+A11(16),A4      ; |95| 
    1198 000002cc 023d22e6  ||         LDW     .D2T2   *+SP(36),B4       ; |95| 
    1199                    
    1200 000002d0           $C$RL17:   ; CALL OCCURS {VLIB_initUYVYint_to_LABpl_LUT_cn} {0}  ; |95| 
    1201                            .dwpsn  file ".\..\packages\ti\vlib\src\VLIB_initUYVYint_to_LABpl_LUT\..\common\VLIB_profile.h
    1202 000002d0 042803e2             MVC     .S2     TSCL,B8           ; |153| 
    1203 000002d4 022c03e2             MVC     .S2     TSCH,B4           ; |153| 
    1204                            .dwpsn  file ".\..\packages\ti\vlib\src\VLIB_initUYVYint_to_LABpl_LUT\..\common\VLIB_profile.h
    1205 000002d8 02280264             LDW     .D1T1   *A10,A4           ; |156| 
    1206 000002dc 04300364             LDDW    .D1T1   *A12,A9:A8        ; |156| 
    1207 000002e0 032803e6             LDDW    .D2T2   *B10,B7:B6        ; |156| 
    1208 000002e4 01800028!            MVKL    .S1     cycles,A3
    1209 000002e8 01800068!            MVKH    .S1     cycles,A3
    1210 000002ec 030c8b64             LDDW    .D1T1   *+A3[A4],A7:A6    ; |156| 
TMS320C6x Assembler PC v7.4.2 Thu Mar 19 12:42:25 2015

Tools Copyright (c) 1996-2012 Texas Instruments Incorporated
package/lib/Regression/regress_d_c/./../packages/ti/vlib/src/VLIB_initUYVYint_to_LABpl_LUT/VLIB_initUYVYint_to_LABpl_LUT_d.se66 PAGE   23

    1211                            .dwpsn  file ".\..\packages\ti\vlib\src\VLIB_initUYVYint_to_LABpl_LUT\..\common\VLIB_profile.h
    1212 000002f0 04900fda             MV      .L2     B4,B9             ; |153| 
    1213                            .dwpsn  file ".\..\packages\ti\vlib\src\VLIB_initUYVYint_to_LABpl_LUT\..\common\VLIB_profile.h
    1214 000002f4 0220d57a             ADDU    .L2X    B6,A8,B5:B4       ; |156| 
    1215 000002f8 031ca07a             ADD     .L2     B5,B7,B6          ; |156| 
    1216                    
    1217 000002fc 0324d1e3             ADD     .S2X    B6,A9,B6          ; |156| 
    1218 00000300 021105fa  ||         SUBU    .L2     B8,B4,B5:B4       ; |156| 
    1219                    
    1220 0000030c     eae3             EXT     .S2     B5,24,24,B7       ; |156| 
    1221 00000308 0218957b  ||         ADDU    .L2X    A6,B4,B5:B4       ; |156| 
    1222 00000304 0324c8c3  ||         SUB     .D2     B9,B6,B6          ; |156| 
    1223                    
    1224 0000030e     b3d1             ADD     .L2X    B5,A7,B5          ; |156| 
    1225 00000310     c3eb  ||         ADD     .S2     B6,B7,B6          ; |156| 
    1226                    
    1227 00000312     a351             ADD     .L2     B5,B6,B5          ; |156| 
    1228 00000314 043403c6  ||         STDW    .D2T2   B9:B8,*B13        ; |153| 
    1229                    
    1230                    $C$DW$129       .dwtag  DW_TAG_TI_branch
    1231                            .dwattr $C$DW$129, DW_AT_low_pc(0x00)
    1232                            .dwattr $C$DW$129, DW_AT_name("setStackDepth")
    1233                            .dwattr $C$DW$129, DW_AT_TI_call
    1234                    
    1235 00000318 10000013!            CALLP   .S2     setStackDepth,B3
    1236 00000320 020c8b46  ||         STDW    .D1T2   B5:B4,*+A3[A4]    ; |156| 
    1237                    
    1238                            .dwpsn  file ".\..\packages\ti\vlib\src\VLIB_initUYVYint_to_LABpl_LUT\..\common\VLIB_profile.h
    1239                    ;----------------------------------------------------------------------
    1240                    ; 162 |                                                                        
    1241                    ;----------------------------------------------------------------------
    1242 00000324           $C$RL18:   ; CALL OCCURS {setStackDepth} {0}  ; |159| 
    1243 00000324           $C$DW$L$VLIB_initUYVYint_to_LABpl_LUT_d$12$E:
    1244                    ;** --------------------------------------------------------------------------*
    1245 00000324           $C$DW$L$VLIB_initUYVYint_to_LABpl_LUT_d$13$B:
    1246                    ;          EXCLUSIVE CPU CYCLES: 7
    1247                    ;** 100 -----------------------    U$96 = lut_size;
    1248                    ;** 100 -----------------------    status_nat_vs_int = VLIB_compare_mem((void *)Lab, (void *)Lab_cn, U
    1249                    ;**     -----------------------    U$101 = Lab;
    1250                    ;**     -----------------------    U$103 = Lab_cn;
    1251                    ;**     -----------------------    L$1 = lut_size>>1;
    1252                    ;** 102 -----------------------    i = 0;
    1253                    ;**     -----------------------    #pragma MUST_ITERATE(1, 2147483647, 1)
    1254                    ;**     -----------------------    #pragma LOOP_FLAGS(5120u)
    1255                            .dwpsn  file "./../packages/ti/vlib/src/VLIB_initUYVYint_to_LABpl_LUT/VLIB_initUYVYint_to_LABp
    1256 00000324     eccd             LDW     .D2T1   *+SP(28),A4       ; |100| 
    1257                    $C$DW$130       .dwtag  DW_TAG_TI_branch
    1258                            .dwattr $C$DW$130, DW_AT_low_pc(0x00)
    1259                            .dwattr $C$DW$130, DW_AT_name("VLIB_compare_mem")
    1260                            .dwattr $C$DW$130, DW_AT_TI_call
    1261                    
    1262 00000328 10000013!            CALLP   .S2     VLIB_compare_mem,B3
    1263 00000326     dccd  ||         LDW     .D2T2   *+SP(24),B4       ; |100| 
    1264 0000032c 03340fd8  ||         MV      .L1     A13,A6            ; |100| 
    1265                    
TMS320C6x Assembler PC v7.4.2 Thu Mar 19 12:42:25 2015

Tools Copyright (c) 1996-2012 Texas Instruments Incorporated
package/lib/Regression/regress_d_c/./../packages/ti/vlib/src/VLIB_initUYVYint_to_LABpl_LUT/VLIB_initUYVYint_to_LABpl_LUT_d.se66 PAGE   24

    1266 00000330           $C$RL19:   ; CALL OCCURS {VLIB_compare_mem} {0}  ; |100| 
    1267 00000330           $C$DW$L$VLIB_initUYVYint_to_LABpl_LUT_d$13$E:
    1268                    ;** --------------------------------------------------------------------------*
    1269 00000330           $C$DW$L$VLIB_initUYVYint_to_LABpl_LUT_d$14$B:
    1270                    ;          EXCLUSIVE CPU CYCLES: 12
    1271 00000330 06bce2e6             LDW     .D2T2   *+SP(28),B13
    1272 00000334 053cc2e4             LDW     .D2T1   *+SP(24),A10
    1273                            .dwpsn  file "./../packages/ti/vlib/src/VLIB_initUYVYint_to_LABpl_LUT/VLIB_initUYVYint_to_LABp
    1274 00000338 0600a358             ZERO    .L1     A12               ; |102| 
    1275 00000340 053439a2             SHRU    .S2X    A13,1,B10
    1276                            .dwpsn  file "./../packages/ti/vlib/src/VLIB_initUYVYint_to_LABpl_LUT/VLIB_initUYVYint_to_LABp
    1277 00000344 07900fd8             MV      .L1     A4,A15            ; |100| 
    1278                            .dwpsn  file "./../packages/ti/vlib/src/VLIB_initUYVYint_to_LABpl_LUT/VLIB_initUYVYint_to_LABp
    1279 00000348 02343686             LDHU    .D2T2   *B13++,B4         ; |103| 
    1280 0000034c 01a83604             LDHU    .D1T1   *A10++,A3         ; |103| 
    1281 00000350     6c6e             NOP             4
    1282 00000352     7668             CMPEQ   .L1X    B4,A3,A0          ; |103| 
    1283 00000360           $C$DW$L$VLIB_initUYVYint_to_LABpl_LUT_d$14$E:
    1284                    ;*----------------------------------------------------------------------------*
    1285                    ;*   SOFTWARE PIPELINE INFORMATION
    1286                    ;*      Disqualified loop: Loop contains control code
    1287                    ;*----------------------------------------------------------------------------*
    1288 00000360           $C$L3:    
    1289                            .dwpsn  file "./../packages/ti/vlib/src/VLIB_initUYVYint_to_LABpl_LUT/VLIB_initUYVYint_to_LABp
    1290 00000360           $C$DW$L$VLIB_initUYVYint_to_LABpl_LUT_d$15$B:
    1291                    ;          EXCLUSIVE CPU CYCLES: 6
    1292                    ;**     -----------------------g6:
    1293                    ;** 103 -----------------------    C$3 = *U$103++;
    1294                    ;** 103 -----------------------    C$2 = *U$101++;
    1295                    ;** 103 -----------------------    if ( C$2 == C$3 ) goto g8;
    1296                    
    1297 00000360 c0204121     [ A0]   BNOP    .S1     $C$L4,2           ; |103| 
    1298 00000364 d280002b! || [!A0]   MVKL    .S2     $C$SL3+0,B5
    1299 00000368 c6302058  || [ A0]   ADD     .L1     1,A12,A12         ; |102| 
    1300                    
    1301 0000036c d280006a!    [!A0]   MVKH    .S2     $C$SL3+0,B5
    1302                            .dwpsn  file "./../packages/ti/vlib/src/VLIB_initUYVYint_to_LABpl_LUT/VLIB_initUYVYint_to_LABp
    1303                    $C$DW$131       .dwtag  DW_TAG_TI_branch
    1304                            .dwattr $C$DW$131, DW_AT_low_pc(0x00)
    1305                            .dwattr $C$DW$131, DW_AT_name("printf")
    1306                            .dwattr $C$DW$131, DW_AT_TI_call
    1307 00000370 d0000010!    [!A0]   CALL    .S1     printf            ; |104| 
    1308                            .dwpsn  file "./../packages/ti/vlib/src/VLIB_initUYVYint_to_LABpl_LUT/VLIB_initUYVYint_to_LABp
    1309 00000374 c02bf058     [ A0]   SUB     .L1X    B10,1,A0          ; |102| 
    1310                            .dwpsn  file "./../packages/ti/vlib/src/VLIB_initUYVYint_to_LABpl_LUT/VLIB_initUYVYint_to_LABp
    1311                               ; BRANCHCC OCCURS {$C$L4}         ; |103| 
    1312 00000378           $C$DW$L$VLIB_initUYVYint_to_LABpl_LUT_d$15$E:
    1313                    ;** --------------------------------------------------------------------------*
    1314 00000378           $C$DW$L$VLIB_initUYVYint_to_LABpl_LUT_d$16$B:
    1315                    ;          EXCLUSIVE CPU CYCLES: 5
    1316                    ;** 104 -----------------------    printf((const char *)"[%d] O=%d C=%d\n", i, (int)C$2, (int)C$3);
    1317                            .dwpsn  file "./../packages/ti/vlib/src/VLIB_initUYVYint_to_LABpl_LUT/VLIB_initUYVYint_to_LABp
    1318 00000378     bc55             STW     .D2T2   B5,*+SP(4)        ; |104| 
    1319 0000037a     8cb5             STW     .D2T1   A3,*+SP(16)       ; |104| 
    1320 00000380 023c62f6             STW     .D2T2   B4,*+SP(12)       ; |104| 
TMS320C6x Assembler PC v7.4.2 Thu Mar 19 12:42:25 2015

Tools Copyright (c) 1996-2012 Texas Instruments Incorporated
package/lib/Regression/regress_d_c/./../packages/ti/vlib/src/VLIB_initUYVYint_to_LABpl_LUT/VLIB_initUYVYint_to_LABpl_LUT_d.se66 PAGE   25

    1321                    
    1322 00000384 01830163             ADDKPC  .S2     $C$RL20,B3,0      ; |104| 
    1323 00000388 063c42f4  ||         STW     .D2T1   A12,*+SP(8)       ; |104| 
    1324                    
    1325 0000038c           $C$RL20:   ; CALL OCCURS {printf} {0}        ; |104| 
    1326                    
    1327 0000038c 06302059             ADD     .L1     1,A12,A12         ; |102| 
    1328 00000390 002bf1a1  ||         SUB     .S1X    B10,1,A0          ; |102| 
    1329                    
    1330 000003a0           $C$DW$L$VLIB_initUYVYint_to_LABpl_LUT_d$16$E:
    1331                    ;** --------------------------------------------------------------------------*
    1332 000003a0           $C$L4:    
    1333                            .dwpsn  file "./../packages/ti/vlib/src/VLIB_initUYVYint_to_LABpl_LUT/VLIB_initUYVYint_to_LABp
    1334 000003a0           $C$DW$L$VLIB_initUYVYint_to_LABpl_LUT_d$17$B:
    1335                    ;          EXCLUSIVE CPU CYCLES: 6
    1336                    ;**     -----------------------g8:
    1337                    ;** 102 -----------------------    ++i;
    1338                    ;** 102 -----------------------    if ( L$1 = L$1-1 ) goto g6;
    1339                    
    1340 000003a0 cfe08121     [ A0]   BNOP    .S1     $C$L3,4           ; |102| 
    1341 000003a4 c2343687  || [ A0]   LDHU    .D2T2   *B13++,B4         ; |103| 
    1342 000003a8 c1a83605  || [ A0]   LDHU    .D1T1   *A10++,A3         ; |103| 
    1343 000003ac 052be05a  ||         SUB     .L2     B10,1,B10         ; |102| 
    1344                    
    1345 000003b0 00107a78             CMPEQ   .L1X    B4,A3,A0          ; |103| 
    1346                            .dwpsn  file "./../packages/ti/vlib/src/VLIB_initUYVYint_to_LABpl_LUT/VLIB_initUYVYint_to_LABp
    1347                               ; BRANCHCC OCCURS {$C$L3}         ; |102| 
    1348 000003b4           $C$DW$L$VLIB_initUYVYint_to_LABpl_LUT_d$17$E:
    1349                    ;** --------------------------------------------------------------------------*
    1350 000003b4           $C$DW$L$VLIB_initUYVYint_to_LABpl_LUT_d$18$B:
    1351                    ;** 109 -----------------------    v$1 = prm;
    1352 000003b4           $C$DW$L$VLIB_initUYVYint_to_LABpl_LUT_d$18$E:
    1353                    ;** --------------------------------------------------------------------------*
    1354                            .dwpsn  file "./../packages/ti/vlib/src/VLIB_initUYVYint_to_LABpl_LUT/VLIB_initUYVYint_to_LABp
    1355 000003b4           $C$DW$L$VLIB_initUYVYint_to_LABpl_LUT_d$19$B:
    1356                    ;          EXCLUSIVE CPU CYCLES: 11
    1357                    ;** 109 -----------------------    U$115 = (*U$13).staticOut;
    1358                    ;** 109 -----------------------    if ( U$115 ) goto g11;
    1359                    ;** 55  -----------------------    status_nat_vs_ref = 1;
    1360                    ;**     -----------------------    goto g12;
    1361 000003b4 002c2264             LDW     .D1T1   *+A11(4),A0       ; |109| 
    1362 000003b8     bccd             LDW     .D2T2   *+SP(20),B4       ; |109| 
    1363 000003ba     4c6e             NOP             3
    1364 000003c0 d0000510     [!A0]   B       .S1     $C$L5
    1365                            .dwpsn  file "./../packages/ti/vlib/src/VLIB_initUYVYint_to_LABpl_LUT/VLIB_initUYVYint_to_LABp
    1366                    $C$DW$132       .dwtag  DW_TAG_TI_branch
    1367                            .dwattr $C$DW$132, DW_AT_low_pc(0x00)
    1368                            .dwattr $C$DW$132, DW_AT_name("VLIB_compare_mem")
    1369                            .dwattr $C$DW$132, DW_AT_TI_call
    1370 000003c4 c0000010!    [ A0]   CALL    .S1     VLIB_compare_mem  ; |110| 
    1371 000003c8 c23cc2e6     [ A0]   LDW     .D2T2   *+SP(24),B4       ; |110| 
    1372                            .dwpsn  file "./../packages/ti/vlib/src/VLIB_initUYVYint_to_LABpl_LUT/VLIB_initUYVYint_to_LABp
    1373 000003cc d604a35a     [!A0]   MVK     .L2     0x1,B12           ; |55| 
    1374 000003d0     2c6e             NOP             2
    1375                               ; BRANCHCC OCCURS {$C$L5}  
TMS320C6x Assembler PC v7.4.2 Thu Mar 19 12:42:25 2015

Tools Copyright (c) 1996-2012 Texas Instruments Incorporated
package/lib/Regression/regress_d_c/./../packages/ti/vlib/src/VLIB_initUYVYint_to_LABpl_LUT/VLIB_initUYVYint_to_LABpl_LUT_d.se66 PAGE   26

    1376 000003d2           $C$DW$L$VLIB_initUYVYint_to_LABpl_LUT_d$19$E:
    1377                    ;** --------------------------------------------------------------------------*
    1378                            .dwpsn  file "./../packages/ti/vlib/src/VLIB_initUYVYint_to_LABpl_LUT/VLIB_initUYVYint_to_LABp
    1379 000003d2           $C$DW$L$VLIB_initUYVYint_to_LABpl_LUT_d$20$B:
    1380                    ;          EXCLUSIVE CPU CYCLES: 1
    1381                    ;**     -----------------------g11:
    1382                    ;** 110 -----------------------    status_nat_vs_ref = VLIB_compare_mem((void *)U$115, (void *)Lab_cn,
    1383                    ;** 110 -----------------------    v$1 = prm;
    1384                    
    1385 000003d2     c686             MV      .L1     A13,A6            ; |110| 
    1386 000003d8 020006a0  ||         MV      .S1     A0,A4             ; |110| 
    1387 000003d4 01880163  ||         ADDKPC  .S2     $C$RL21,B3,0      ; |110| 
    1388                    
    1389                            .dwpsn  file "./../packages/ti/vlib/src/VLIB_initUYVYint_to_LABpl_LUT/VLIB_initUYVYint_to_LABp
    1390 000003e0           $C$RL21:   ; CALL OCCURS {VLIB_compare_mem} {0}  ; |110| 
    1391 000003e0           $C$DW$L$VLIB_initUYVYint_to_LABpl_LUT_d$20$E:
    1392                    ;** --------------------------------------------------------------------------*
    1393 000003e0           $C$DW$L$VLIB_initUYVYint_to_LABpl_LUT_d$21$B:
    1394                    ;          EXCLUSIVE CPU CYCLES: 5
    1395 000003e0     bccd             LDW     .D2T2   *+SP(20),B4       ; |110| 
    1396 000003e2     9647             MV      .L2X    A4,B12            ; |110| 
    1397 000003e4 00004000             NOP             3
    1398 000003e8           $C$DW$L$VLIB_initUYVYint_to_LABpl_LUT_d$21$E:
    1399                    ;** --------------------------------------------------------------------------*
    1400 000003e8           $C$L5:    
    1401 000003e8           $C$DW$L$VLIB_initUYVYint_to_LABpl_LUT_d$22$B:
    1402                    ;          EXCLUSIVE CPU CYCLES: 13
    1403                    ;**     -----------------------g12:
    1404                    ;** 116 -----------------------    est_test = 1;
    1405                    ;** 119 -----------------------    sprintf(K$46, (const char *)"%s generated input | Opt results compa
    1406                    ;** 121 -----------------------    VLIB_formula_add_test(U$96, 0, 0, (status_nat_vs_int == 0)|(status_
    1407                            .dwpsn  file "./../packages/ti/vlib/src/VLIB_initUYVYint_to_LABpl_LUT/VLIB_initUYVYint_to_LABp
    1408 000003e8 022c807a             ADD     .L2     B4,B11,B4         ; |119| 
    1409                    
    1410 000003f0 021082e6             LDW     .D2T2   *+B4(16),B4       ; |119| 
    1411 000003ec 01800029! ||         MVKL    .S1     $C$SL4+0,A3
    1412                    
    1413 000003f4 01800068!            MVKH    .S1     $C$SL4+0,A3
    1414                    
    1415 000003f8 0300002b!            MVKL    .S2     testPatternString,B6
    1416 00000400 01bc22f4  ||         STW     .D2T1   A3,*+SP(4)        ; |119| 
    1417                    
    1418 00000404 0300006b!            MVKH    .S2     testPatternString,B6
    1419 00000408 06bc82f4  ||         STW     .D2T1   A13,*+SP(16)      ; |119| 
    1420                    
    1421 0000040c 0280002b!            MVKL    .S2     est_test,B5
    1422 00000410     dc65  ||         STW     .D2T2   B6,*+SP(8)        ; |119| 
    1423                    
    1424 00000412     25a6             MVK     .L1     1,A3              ; |116| 
    1425 00000414 0280006b! ||         MVKH    .S2     est_test,B5
    1426 00000418 02000029! ||         MVKL    .S1     desc,A4
    1427 00000420     fc45  ||         STW     .D2T2   B4,*+SP(12)       ; |119| 
    1428                    
    1429                    $C$DW$133       .dwtag  DW_TAG_TI_branch
    1430                            .dwattr $C$DW$133, DW_AT_low_pc(0x00)
TMS320C6x Assembler PC v7.4.2 Thu Mar 19 12:42:25 2015

Tools Copyright (c) 1996-2012 Texas Instruments Incorporated
package/lib/Regression/regress_d_c/./../packages/ti/vlib/src/VLIB_initUYVYint_to_LABpl_LUT/VLIB_initUYVYint_to_LABpl_LUT_d.se66 PAGE   27

    1431                            .dwattr $C$DW$133, DW_AT_name("sprintf")
    1432                            .dwattr $C$DW$133, DW_AT_TI_call
    1433                    
    1434 00000424 10000013!            CALLP   .S2     sprintf,B3
    1435 00000422     00b5  ||         STW     .D2T1   A3,*B5            ; |116| 
    1436 00000428 02000068! ||         MVKH    .S1     desc,A4
    1437                    
    1438 0000042c           $C$RL22:   ; CALL OCCURS {sprintf} {0}       ; |119| 
    1439 0000042c           $C$DW$L$VLIB_initUYVYint_to_LABpl_LUT_d$22$E:
    1440                    ;** --------------------------------------------------------------------------*
    1441 0000042c           $C$DW$L$VLIB_initUYVYint_to_LABpl_LUT_d$23$B:
    1442                    ;          EXCLUSIVE CPU CYCLES: 13
    1443                            .dwpsn  file "./../packages/ti/vlib/src/VLIB_initUYVYint_to_LABpl_LUT/VLIB_initUYVYint_to_LABp
    1444 0000042c 01bc0a58             CMPEQ   .L1     A15,0,A3          ; |121| 
    1445                    
    1446 00000430 02300a5b             CMPEQ   .L2     B12,0,B4          ; |121| 
    1447 00000434 04000029! ||         MVKL    .S1     desc,A8
    1448 00000438 0400002a  ||         ZERO    .S2     B8                ; |121| 
    1449                    
    1450                    $C$DW$134       .dwtag  DW_TAG_TI_branch
    1451                            .dwattr $C$DW$134, DW_AT_low_pc(0x00)
    1452                            .dwattr $C$DW$134, DW_AT_name("VLIB_formula_add_test")
    1453                            .dwattr $C$DW$134, DW_AT_TI_call
    1454                    
    1455 00000440 10000013!            CALLP   .S2     VLIB_formula_add_test,B3
    1456 00000444 030c9ffb  ||         OR      .L2X    B4,A3,B6          ; |121| 
    1457 00000448     1a77  ||         ZERO    .D2     B4                ; |121| 
    1458 0000044c 04000069! ||         MVKH    .S1     desc,A8
    1459 0000044a     8686  ||         MV      .L1     A13,A4            ; |121| 
    1460 00000450 03000040  ||         ZERO    .D1     A6                ; |121| 
    1461                    
    1462 00000454           $C$RL23:   ; CALL OCCURS {VLIB_formula_add_test} {0}  ; |121| 
    1463                            .dwpsn  file "./../packages/ti/vlib/src/VLIB_initUYVYint_to_LABpl_LUT/VLIB_initUYVYint_to_LABp
    1464                    $C$DW$135       .dwtag  DW_TAG_TI_branch
    1465                            .dwattr $C$DW$135, DW_AT_low_pc(0x00)
    1466                            .dwattr $C$DW$135, DW_AT_name("free")
    1467                            .dwattr $C$DW$135, DW_AT_TI_call
    1468 00000454 00000010!            CALL    .S1     free              ; |131| 
    1469 00000458     cccd             LDW     .D2T1   *+SP(24),A4       ; |131| 
    1470 0000045a     4c6e             NOP             3
    1471 00000460           $C$DW$L$VLIB_initUYVYint_to_LABpl_LUT_d$23$E:
    1472                    ;** --------------------------------------------------------------------------*
    1473 00000460           $C$L6:    
    1474                            .dwpsn  file "./../packages/ti/vlib/src/VLIB_initUYVYint_to_LABpl_LUT/VLIB_initUYVYint_to_LABp
    1475 00000460           $C$DW$L$VLIB_initUYVYint_to_LABpl_LUT_d$24$B:
    1476                    ;          EXCLUSIVE CPU CYCLES: 1
    1477                    ;**     -----------------------g13:
    1478                    ;** 131 -----------------------    free((void *)Lab_cn);
    1479                    ;** 132 -----------------------    free((void *)Lab);
    1480                    ;** 133 -----------------------    VLIB_free((void *)whitePoint);
    1481                    ;** 134 -----------------------    VLIB_free((void *)coeff);
    1482                    ;** 51  -----------------------    U$12 += 20;
    1483                    ;** 51  -----------------------    if ( test_cases > (++tpi) ) goto g3;
    1484                            .dwpsn  file "./../packages/ti/vlib/src/VLIB_initUYVYint_to_LABpl_LUT/VLIB_initUYVYint_to_LABp
    1485 00000460 01810162             ADDKPC  .S2     $C$RL24,B3,0      ; |131| 
TMS320C6x Assembler PC v7.4.2 Thu Mar 19 12:42:25 2015

Tools Copyright (c) 1996-2012 Texas Instruments Incorporated
package/lib/Regression/regress_d_c/./../packages/ti/vlib/src/VLIB_initUYVYint_to_LABpl_LUT/VLIB_initUYVYint_to_LABpl_LUT_d.se66 PAGE   28

    1486                    $C$RL24:   ; CALL OCCURS {free} {0}          ; |131| 
    1487                    $C$DW$L$VLIB_initUYVYint_to_LABpl_LUT_d$24$E:
    1488                    ;** --------------------------------------------------------------------------*
    1489                    $C$DW$L$VLIB_initUYVYint_to_LABpl_LUT_d$25$B:
    1490                    ;          EXCLUSIVE CPU CYCLES: 18
    1491                    $C$DW$136       .dwtag  DW_TAG_TI_branch
    1492                            .dwattr $C$DW$136, DW_AT_low_pc(0x00)
    1493                            .dwattr $C$DW$136, DW_AT_name("free")
    1494                            .dwattr $C$DW$136, DW_AT_TI_call
    1495                    
    1496 00000464 10000013!            CALLP   .S2     free,B3
    1497 00000468 023ce2e4  ||         LDW     .D2T1   *+SP(28),A4       ; |132| 
    1498                    
    1499                            .dwpsn  file "./../packages/ti/vlib/src/VLIB_initUYVYint_to_LABpl_LUT/VLIB_initUYVYint_to_LABp
    1500                    $C$RL25:   ; CALL OCCURS {free} {0}          ; |132| 
    1501                    $C$DW$137       .dwtag  DW_TAG_TI_branch
    1502                            .dwattr $C$DW$137, DW_AT_low_pc(0x00)
    1503                            .dwattr $C$DW$137, DW_AT_name("VLIB_free")
    1504                            .dwattr $C$DW$137, DW_AT_TI_call
    1505                    
    1506 0000046c 10000013!            CALLP   .S2     VLIB_free,B3
    1507 00000470 023d02e4  ||         LDW     .D2T1   *+SP(32),A4       ; |133| 
    1508                    
    1509                            .dwpsn  file "./../packages/ti/vlib/src/VLIB_initUYVYint_to_LABpl_LUT/VLIB_initUYVYint_to_LABp
    1510                    $C$RL26:   ; CALL OCCURS {VLIB_free} {0}     ; |133| 
    1511                    $C$DW$138       .dwtag  DW_TAG_TI_branch
    1512                            .dwattr $C$DW$138, DW_AT_low_pc(0x00)
    1513                            .dwattr $C$DW$138, DW_AT_name("VLIB_free")
    1514                            .dwattr $C$DW$138, DW_AT_TI_call
    1515                    
    1516 00000474 10000013!            CALLP   .S2     VLIB_free,B3
    1517 00000478 023d22e4  ||         LDW     .D2T1   *+SP(36),A4       ; |134| 
    1518                    
    1519                            .dwpsn  file "./../packages/ti/vlib/src/VLIB_initUYVYint_to_LABpl_LUT/VLIB_initUYVYint_to_LABp
    1520 0000047c           $C$RL27:   ; CALL OCCURS {VLIB_free} {0}     ; |134| 
    1521 0000047c           $C$DW$L$VLIB_initUYVYint_to_LABpl_LUT_d$25$E:
    1522                    ;** --------------------------------------------------------------------------*
    1523 0000047c           $C$DW$L$VLIB_initUYVYint_to_LABpl_LUT_d$26$B:
    1524                    ;          EXCLUSIVE CPU CYCLES: 14
    1525 0000047c 01800028!            MVKL    .S1     test_cases,A3
    1526 00000480 01800068!            MVKH    .S1     test_cases,A3
    1527                            .dwpsn  file "./../packages/ti/vlib/src/VLIB_initUYVYint_to_LABpl_LUT/VLIB_initUYVYint_to_LABp
    1528 00000484 018c0264             LDW     .D1T1   *A3,A3            ; |51| 
    1529 00000488 05800a52             ADDK    .S2     20,B11            ; |51| 
    1530 0000048c 07382058             ADD     .L1     1,A14,A14         ; |51| 
    1531 00000490 00002000             NOP             2
    1532 00000494 003868f8             CMPGT   .L1     A3,A14,A0         ; |51| 
    1533 00000498 cef8a120     [ A0]   BNOP    .S1     $C$L1,5           ; |51| 
    1534                               ; BRANCHCC OCCURS {$C$L1}         ; |51| 
    1535 0000049c           $C$DW$L$VLIB_initUYVYint_to_LABpl_LUT_d$26$E:
    1536                    ;** --------------------------------------------------------------------------*
    1537 0000049c           $C$L7:    
    1538                    ;          EXCLUSIVE CPU CYCLES: 7
    1539                    ;**     -----------------------g14:
    1540                    ;** 138 -----------------------    VLIB_profile_cycle_report(1, NULL, "width * height");
TMS320C6x Assembler PC v7.4.2 Thu Mar 19 12:42:25 2015

Tools Copyright (c) 1996-2012 Texas Instruments Incorporated
package/lib/Regression/regress_d_c/./../packages/ti/vlib/src/VLIB_initUYVYint_to_LABpl_LUT/VLIB_initUYVYint_to_LABpl_LUT_d.se66 PAGE   29

    1541                    ;** 158 -----------------------    printf((const char *)"---------------------------------------------
    1542                    ;** 165 -----------------------    VLIB_stack_memory();  // [18]
    1543                    ;**     -----------------------    return;
    1544 0000049c 03000028!            MVKL    .S1     $C$SL5+0,A6
    1545                    $C$DW$139       .dwtag  DW_TAG_TI_branch
    1546                            .dwattr $C$DW$139, DW_AT_low_pc(0x00)
    1547                            .dwattr $C$DW$139, DW_AT_name("VLIB_profile_cycle_report")
    1548                            .dwattr $C$DW$139, DW_AT_TI_call
    1549                    
    1550 000004a0 10000013!            CALLP   .S2     VLIB_profile_cycle_report,B3
    1551 000004a4 03000069! ||         MVKH    .S1     $C$SL5+0,A6
    1552 000004a8     2626  ||         MVK     .L1     0x1,A4            ; |138| 
    1553 000004aa     0627  ||         ZERO    .L2     B4                ; |138| 
    1554                    
    1555                            .dwpsn  file "./../packages/ti/vlib/src/VLIB_initUYVYint_to_LABpl_LUT/VLIB_initUYVYint_to_LABp
    1556 000004ac           $C$RL28:   ; CALL OCCURS {VLIB_profile_cycle_report} {0}  ; |138| 
    1557                    ;** --------------------------------------------------------------------------*
    1558                    ;          EXCLUSIVE CPU CYCLES: 14
    1559 000004ac 0200002a!            MVKL    .S2     $C$SL6+0,B4
    1560 000004b0 0200006a!            MVKH    .S2     $C$SL6+0,B4
    1561                    $C$DW$140       .dwtag  DW_TAG_TI_branch
    1562                            .dwattr $C$DW$140, DW_AT_low_pc(0x00)
    1563                            .dwattr $C$DW$140, DW_AT_name("printf")
    1564                            .dwattr $C$DW$140, DW_AT_TI_call
    1565                    
    1566 000004b4 10000013!            CALLP   .S2     printf,B3
    1567 000004b8 023c22f6  ||         STW     .D2T2   B4,*+SP(4)        ; |158| 
    1568                    
    1569                            .dwpsn  file ".\..\packages\ti\vlib\src\VLIB_initUYVYint_to_LABpl_LUT\../common/VLIB_memory.h"
    1570                    $C$RL29:   ; CALL OCCURS {printf} {0}        ; |158| 
    1571                    $C$DW$141       .dwtag  DW_TAG_TI_branch
    1572                            .dwattr $C$DW$141, DW_AT_low_pc(0x00)
    1573                            .dwattr $C$DW$141, DW_AT_name("VLIB_stack_memory")
    1574                            .dwattr $C$DW$141, DW_AT_TI_call
    1575 000004c0 10000012!            CALLP   .S2     VLIB_stack_memory,B3
    1576                            .dwpsn  file ".\..\packages\ti\vlib\src\VLIB_initUYVYint_to_LABpl_LUT\../common/VLIB_memory.h"
    1577 000004c4           $C$RL30:   ; CALL OCCURS {VLIB_stack_memory} {0}  ; |165| 
    1578                    ;** --------------------------------------------------------------------------*
    1579                    ;          EXCLUSIVE CPU CYCLES: 13
    1580                            .dwpsn  file "./../packages/ti/vlib/src/VLIB_initUYVYint_to_LABpl_LUT/VLIB_initUYVYint_to_LABp
    1581 000004c4 01bd92e6             LDW     .D2T2   *++SP(48),B3      ; |144| 
    1582                            .dwcfi  cfa_offset, 48
    1583                            .dwcfi  restore_reg, 19
    1584 000004c8     c677             LDDW    .D2T1   *++SP,A13:A12
    1585                            .dwcfi  cfa_offset, 40
    1586                            .dwcfi  restore_reg, 13
    1587                            .dwcfi  restore_reg, 12
    1588 000004ca     c777             LDDW    .D2T1   *++SP,A15:A14
    1589                            .dwcfi  cfa_offset, 32
    1590                            .dwcfi  restore_reg, 15
    1591                            .dwcfi  restore_reg, 14
    1592 000004cc     d577             LDDW    .D2T2   *++SP,B11:B10
    1593                            .dwcfi  cfa_offset, 24
    1594                            .dwcfi  restore_reg, 27
    1595                            .dwcfi  restore_reg, 26
TMS320C6x Assembler PC v7.4.2 Thu Mar 19 12:42:25 2015

Tools Copyright (c) 1996-2012 Texas Instruments Incorporated
package/lib/Regression/regress_d_c/./../packages/ti/vlib/src/VLIB_initUYVYint_to_LABpl_LUT/VLIB_initUYVYint_to_LABpl_LUT_d.se66 PAGE   30

    1596 000004ce     d677             LDDW    .D2T2   *++SP,B13:B12
    1597                            .dwcfi  cfa_offset, 16
    1598                            .dwcfi  restore_reg, 29
    1599                            .dwcfi  restore_reg, 28
    1600 000004d0     6577             LDW     .D2T1   *++SP(8),A10
    1601                            .dwcfi  cfa_offset, 8
    1602                            .dwcfi  restore_reg, 10
    1603 000004d2     65f7             LDW     .D2T1   *++SP(8),A11      ; |144| 
    1604                            .dwcfi  cfa_offset, 0
    1605                            .dwcfi  restore_reg, 11
    1606                            .dwcfi  cfa_offset, 0
    1607                    $C$DW$142       .dwtag  DW_TAG_TI_branch
    1608                            .dwattr $C$DW$142, DW_AT_low_pc(0x00)
    1609                            .dwattr $C$DW$142, DW_AT_TI_return
    1610 000004d4 008ca362             RETNOP  .S2     B3,5
    1611                               ; BRANCH OCCURS {B3}  
    1612                    
    1613                    $C$DW$143       .dwtag  DW_TAG_TI_loop
    1614                            .dwattr $C$DW$143, DW_AT_name("c:\nightlybuilds\vlib\ti\vlib\vlib\examples\package/lib/Regress
    1615                            .dwattr $C$DW$143, DW_AT_TI_begin_file("./../packages/ti/vlib/src/VLIB_initUYVYint_to_LABpl_LU
    1616                            .dwattr $C$DW$143, DW_AT_TI_begin_line(0x33)
    1617                            .dwattr $C$DW$143, DW_AT_TI_end_line(0x87)
    1618                    $C$DW$144       .dwtag  DW_TAG_TI_loop_range
    1619                            .dwattr $C$DW$144, DW_AT_low_pc($C$DW$L$VLIB_initUYVYint_to_LABpl_LUT_d$5$B)
    1620                            .dwattr $C$DW$144, DW_AT_high_pc($C$DW$L$VLIB_initUYVYint_to_LABpl_LUT_d$5$E)
    1621                    $C$DW$145       .dwtag  DW_TAG_TI_loop_range
    1622                            .dwattr $C$DW$145, DW_AT_low_pc($C$DW$L$VLIB_initUYVYint_to_LABpl_LUT_d$20$B)
    1623                            .dwattr $C$DW$145, DW_AT_high_pc($C$DW$L$VLIB_initUYVYint_to_LABpl_LUT_d$20$E)
    1624                    $C$DW$146       .dwtag  DW_TAG_TI_loop_range
    1625                            .dwattr $C$DW$146, DW_AT_low_pc($C$DW$L$VLIB_initUYVYint_to_LABpl_LUT_d$11$B)
    1626                            .dwattr $C$DW$146, DW_AT_high_pc($C$DW$L$VLIB_initUYVYint_to_LABpl_LUT_d$11$E)
    1627                    $C$DW$147       .dwtag  DW_TAG_TI_loop_range
    1628                            .dwattr $C$DW$147, DW_AT_low_pc($C$DW$L$VLIB_initUYVYint_to_LABpl_LUT_d$12$B)
    1629                            .dwattr $C$DW$147, DW_AT_high_pc($C$DW$L$VLIB_initUYVYint_to_LABpl_LUT_d$12$E)
    1630                    $C$DW$148       .dwtag  DW_TAG_TI_loop_range
    1631                            .dwattr $C$DW$148, DW_AT_low_pc($C$DW$L$VLIB_initUYVYint_to_LABpl_LUT_d$13$B)
    1632                            .dwattr $C$DW$148, DW_AT_high_pc($C$DW$L$VLIB_initUYVYint_to_LABpl_LUT_d$13$E)
    1633                    $C$DW$149       .dwtag  DW_TAG_TI_loop_range
    1634                            .dwattr $C$DW$149, DW_AT_low_pc($C$DW$L$VLIB_initUYVYint_to_LABpl_LUT_d$14$B)
    1635                            .dwattr $C$DW$149, DW_AT_high_pc($C$DW$L$VLIB_initUYVYint_to_LABpl_LUT_d$14$E)
    1636                    $C$DW$150       .dwtag  DW_TAG_TI_loop_range
    1637                            .dwattr $C$DW$150, DW_AT_low_pc($C$DW$L$VLIB_initUYVYint_to_LABpl_LUT_d$18$B)
    1638                            .dwattr $C$DW$150, DW_AT_high_pc($C$DW$L$VLIB_initUYVYint_to_LABpl_LUT_d$18$E)
    1639                    $C$DW$151       .dwtag  DW_TAG_TI_loop_range
    1640                            .dwattr $C$DW$151, DW_AT_low_pc($C$DW$L$VLIB_initUYVYint_to_LABpl_LUT_d$19$B)
    1641                            .dwattr $C$DW$151, DW_AT_high_pc($C$DW$L$VLIB_initUYVYint_to_LABpl_LUT_d$19$E)
    1642                    $C$DW$152       .dwtag  DW_TAG_TI_loop_range
    1643                            .dwattr $C$DW$152, DW_AT_low_pc($C$DW$L$VLIB_initUYVYint_to_LABpl_LUT_d$21$B)
    1644                            .dwattr $C$DW$152, DW_AT_high_pc($C$DW$L$VLIB_initUYVYint_to_LABpl_LUT_d$21$E)
    1645                    $C$DW$153       .dwtag  DW_TAG_TI_loop_range
    1646                            .dwattr $C$DW$153, DW_AT_low_pc($C$DW$L$VLIB_initUYVYint_to_LABpl_LUT_d$22$B)
    1647                            .dwattr $C$DW$153, DW_AT_high_pc($C$DW$L$VLIB_initUYVYint_to_LABpl_LUT_d$22$E)
    1648                    $C$DW$154       .dwtag  DW_TAG_TI_loop_range
    1649                            .dwattr $C$DW$154, DW_AT_low_pc($C$DW$L$VLIB_initUYVYint_to_LABpl_LUT_d$6$B)
    1650                            .dwattr $C$DW$154, DW_AT_high_pc($C$DW$L$VLIB_initUYVYint_to_LABpl_LUT_d$6$E)
TMS320C6x Assembler PC v7.4.2 Thu Mar 19 12:42:25 2015

Tools Copyright (c) 1996-2012 Texas Instruments Incorporated
package/lib/Regression/regress_d_c/./../packages/ti/vlib/src/VLIB_initUYVYint_to_LABpl_LUT/VLIB_initUYVYint_to_LABpl_LUT_d.se66 PAGE   31

    1651                    $C$DW$155       .dwtag  DW_TAG_TI_loop_range
    1652                            .dwattr $C$DW$155, DW_AT_low_pc($C$DW$L$VLIB_initUYVYint_to_LABpl_LUT_d$7$B)
    1653                            .dwattr $C$DW$155, DW_AT_high_pc($C$DW$L$VLIB_initUYVYint_to_LABpl_LUT_d$7$E)
    1654                    $C$DW$156       .dwtag  DW_TAG_TI_loop_range
    1655                            .dwattr $C$DW$156, DW_AT_low_pc($C$DW$L$VLIB_initUYVYint_to_LABpl_LUT_d$8$B)
    1656                            .dwattr $C$DW$156, DW_AT_high_pc($C$DW$L$VLIB_initUYVYint_to_LABpl_LUT_d$8$E)
    1657                    $C$DW$157       .dwtag  DW_TAG_TI_loop_range
    1658                            .dwattr $C$DW$157, DW_AT_low_pc($C$DW$L$VLIB_initUYVYint_to_LABpl_LUT_d$9$B)
    1659                            .dwattr $C$DW$157, DW_AT_high_pc($C$DW$L$VLIB_initUYVYint_to_LABpl_LUT_d$9$E)
    1660                    $C$DW$158       .dwtag  DW_TAG_TI_loop_range
    1661                            .dwattr $C$DW$158, DW_AT_low_pc($C$DW$L$VLIB_initUYVYint_to_LABpl_LUT_d$10$B)
    1662                            .dwattr $C$DW$158, DW_AT_high_pc($C$DW$L$VLIB_initUYVYint_to_LABpl_LUT_d$10$E)
    1663                    $C$DW$159       .dwtag  DW_TAG_TI_loop_range
    1664                            .dwattr $C$DW$159, DW_AT_low_pc($C$DW$L$VLIB_initUYVYint_to_LABpl_LUT_d$23$B)
    1665                            .dwattr $C$DW$159, DW_AT_high_pc($C$DW$L$VLIB_initUYVYint_to_LABpl_LUT_d$23$E)
    1666                    $C$DW$160       .dwtag  DW_TAG_TI_loop_range
    1667                            .dwattr $C$DW$160, DW_AT_low_pc($C$DW$L$VLIB_initUYVYint_to_LABpl_LUT_d$24$B)
    1668                            .dwattr $C$DW$160, DW_AT_high_pc($C$DW$L$VLIB_initUYVYint_to_LABpl_LUT_d$24$E)
    1669                    $C$DW$161       .dwtag  DW_TAG_TI_loop_range
    1670                            .dwattr $C$DW$161, DW_AT_low_pc($C$DW$L$VLIB_initUYVYint_to_LABpl_LUT_d$25$B)
    1671                            .dwattr $C$DW$161, DW_AT_high_pc($C$DW$L$VLIB_initUYVYint_to_LABpl_LUT_d$25$E)
    1672                    $C$DW$162       .dwtag  DW_TAG_TI_loop_range
    1673                            .dwattr $C$DW$162, DW_AT_low_pc($C$DW$L$VLIB_initUYVYint_to_LABpl_LUT_d$26$B)
    1674                            .dwattr $C$DW$162, DW_AT_high_pc($C$DW$L$VLIB_initUYVYint_to_LABpl_LUT_d$26$E)
    1675                    
    1676                    $C$DW$163       .dwtag  DW_TAG_TI_loop
    1677                            .dwattr $C$DW$163, DW_AT_name("c:\nightlybuilds\vlib\ti\vlib\vlib\examples\package/lib/Regress
    1678                            .dwattr $C$DW$163, DW_AT_TI_begin_file("./../packages/ti/vlib/src/VLIB_initUYVYint_to_LABpl_LU
    1679                            .dwattr $C$DW$163, DW_AT_TI_begin_line(0x66)
    1680                            .dwattr $C$DW$163, DW_AT_TI_end_line(0x6a)
    1681                    $C$DW$164       .dwtag  DW_TAG_TI_loop_range
    1682                            .dwattr $C$DW$164, DW_AT_low_pc($C$DW$L$VLIB_initUYVYint_to_LABpl_LUT_d$15$B)
    1683                            .dwattr $C$DW$164, DW_AT_high_pc($C$DW$L$VLIB_initUYVYint_to_LABpl_LUT_d$15$E)
    1684                    $C$DW$165       .dwtag  DW_TAG_TI_loop_range
    1685                            .dwattr $C$DW$165, DW_AT_low_pc($C$DW$L$VLIB_initUYVYint_to_LABpl_LUT_d$16$B)
    1686                            .dwattr $C$DW$165, DW_AT_high_pc($C$DW$L$VLIB_initUYVYint_to_LABpl_LUT_d$16$E)
    1687                    $C$DW$166       .dwtag  DW_TAG_TI_loop_range
    1688                            .dwattr $C$DW$166, DW_AT_low_pc($C$DW$L$VLIB_initUYVYint_to_LABpl_LUT_d$17$B)
    1689                            .dwattr $C$DW$166, DW_AT_high_pc($C$DW$L$VLIB_initUYVYint_to_LABpl_LUT_d$17$E)
    1690                            .dwendtag $C$DW$163
    1691                    
    1692                            .dwendtag $C$DW$143
    1693                    
    1694                            .dwattr $C$DW$77, DW_AT_TI_end_file("./../packages/ti/vlib/src/VLIB_initUYVYint_to_LABpl_LUT/V
    1695                            .dwattr $C$DW$77, DW_AT_TI_end_line(0x90)
    1696                            .dwattr $C$DW$77, DW_AT_TI_end_column(0x01)
    1697                            .dwendentry
    1698                            .dwendtag $C$DW$77
    1699                    
    1700                    ;; Inlined function references:
    1701                    ;; [ 14] VLIB_profile_start
    1702                    ;; [ 15] VLIB_profile_stop
    1703                    ;; [ 18] VLIB_kernel_memory
    1704                    ;******************************************************************************
    1705                    ;* STRINGS                                                                    *
TMS320C6x Assembler PC v7.4.2 Thu Mar 19 12:42:25 2015

Tools Copyright (c) 1996-2012 Texas Instruments Incorporated
package/lib/Regression/regress_d_c/./../packages/ti/vlib/src/VLIB_initUYVYint_to_LABpl_LUT/VLIB_initUYVYint_to_LABpl_LUT_d.se66 PAGE   32

    1706                    ;******************************************************************************
    1707 00000000                   .sect   ".const:.string"
    1708 00000000 00000056  $C$SL1: .string "VLIB_initUYVYint_to_LABpl_LUT",0
         00000001 0000004C 
         00000002 00000049 
         00000003 00000042 
         00000004 0000005F 
         00000005 00000069 
         00000006 0000006E 
         00000007 00000069 
         00000008 00000074 
         00000009 00000055 
         0000000a 00000059 
         0000000b 00000056 
         0000000c 00000059 
         0000000d 00000069 
         0000000e 0000006E 
         0000000f 00000074 
         00000010 0000005F 
         00000011 00000074 
         00000012 0000006F 
         00000013 0000005F 
         00000014 0000004C 
         00000015 00000041 
         00000016 00000042 
         00000017 00000070 
         00000018 0000006C 
         00000019 0000005F 
         0000001a 0000004C 
         0000001b 00000055 
         0000001c 00000054 
         0000001d 00000000 
    1709 0000001e 00000064  $C$SL2: .string "d=%d, lut_size=%d bytes",0
         0000001f 0000003D 
         00000020 00000025 
         00000021 00000064 
         00000022 0000002C 
         00000023 00000020 
         00000024 0000006C 
         00000025 00000075 
         00000026 00000074 
         00000027 0000005F 
         00000028 00000073 
         00000029 00000069 
         0000002a 0000007A 
         0000002b 00000065 
         0000002c 0000003D 
         0000002d 00000025 
         0000002e 00000064 
         0000002f 00000020 
         00000030 00000062 
         00000031 00000079 
         00000032 00000074 
         00000033 00000065 
         00000034 00000073 
TMS320C6x Assembler PC v7.4.2 Thu Mar 19 12:42:25 2015

Tools Copyright (c) 1996-2012 Texas Instruments Incorporated
package/lib/Regression/regress_d_c/./../packages/ti/vlib/src/VLIB_initUYVYint_to_LABpl_LUT/VLIB_initUYVYint_to_LABpl_LUT_d.se66 PAGE   33

         00000035 00000000 
    1710 00000036 0000005B  $C$SL3: .string "[%d] O=%d C=%d",10,0
         00000037 00000025 
         00000038 00000064 
         00000039 0000005D 
         0000003a 00000020 
         0000003b 0000004F 
         0000003c 0000003D 
         0000003d 00000025 
         0000003e 00000064 
         0000003f 00000020 
         00000040 00000043 
         00000041 0000003D 
         00000042 00000025 
         00000043 00000064 
         00000044 0000000A 
         00000045 00000000 
    1711 00000046 00000025  $C$SL4: .string "%s generated input | Opt results compared to NatC results |"
         00000047 00000073 
         00000048 00000020 
         00000049 00000067 
         0000004a 00000065 
         0000004b 0000006E 
         0000004c 00000065 
         0000004d 00000072 
         0000004e 00000061 
         0000004f 00000074 
         00000050 00000065 
         00000051 00000064 
         00000052 00000020 
         00000053 00000069 
         00000054 0000006E 
         00000055 00000070 
         00000056 00000075 
         00000057 00000074 
         00000058 00000020 
         00000059 0000007C 
         0000005a 00000020 
         0000005b 0000004F 
         0000005c 00000070 
         0000005d 00000074 
         0000005e 00000020 
         0000005f 00000072 
         00000060 00000065 
         00000061 00000073 
         00000062 00000075 
         00000063 0000006C 
         00000064 00000074 
         00000065 00000073 
         00000066 00000020 
         00000067 00000063 
         00000068 0000006F 
         00000069 0000006D 
         0000006a 00000070 
         0000006b 00000061 
TMS320C6x Assembler PC v7.4.2 Thu Mar 19 12:42:25 2015

Tools Copyright (c) 1996-2012 Texas Instruments Incorporated
package/lib/Regression/regress_d_c/./../packages/ti/vlib/src/VLIB_initUYVYint_to_LABpl_LUT/VLIB_initUYVYint_to_LABpl_LUT_d.se66 PAGE   34

         0000006c 00000072 
         0000006d 00000065 
         0000006e 00000064 
         0000006f 00000020 
         00000070 00000074 
         00000071 0000006F 
         00000072 00000020 
         00000073 0000004E 
         00000074 00000061 
         00000075 00000074 
         00000076 00000043 
         00000077 00000020 
         00000078 00000072 
         00000079 00000065 
         0000007a 00000073 
         0000007b 00000075 
         0000007c 0000006C 
         0000007d 00000074 
         0000007e 00000073 
         0000007f 00000020 
         00000080 0000007C 
    1712 00000081 00000020          .string " d=%d, lut_size=%d bytes",0
         00000082 00000064 
         00000083 0000003D 
         00000084 00000025 
         00000085 00000064 
         00000086 0000002C 
         00000087 00000020 
         00000088 0000006C 
         00000089 00000075 
         0000008a 00000074 
         0000008b 0000005F 
         0000008c 00000073 
         0000008d 00000069 
         0000008e 0000007A 
         0000008f 00000065 
         00000090 0000003D 
         00000091 00000025 
         00000092 00000064 
         00000093 00000020 
         00000094 00000062 
         00000095 00000079 
         00000096 00000074 
         00000097 00000065 
         00000098 00000073 
         00000099 00000000 
    1713 0000009a 00000077  $C$SL5: .string "width * height",0
         0000009b 00000069 
         0000009c 00000064 
         0000009d 00000074 
         0000009e 00000068 
         0000009f 00000020 
         000000a0 0000002A 
         000000a1 00000020 
         000000a2 00000068 
TMS320C6x Assembler PC v7.4.2 Thu Mar 19 12:42:25 2015

Tools Copyright (c) 1996-2012 Texas Instruments Incorporated
package/lib/Regression/regress_d_c/./../packages/ti/vlib/src/VLIB_initUYVYint_to_LABpl_LUT/VLIB_initUYVYint_to_LABpl_LUT_d.se66 PAGE   35

         000000a3 00000065 
         000000a4 00000069 
         000000a5 00000067 
         000000a6 00000068 
         000000a7 00000074 
         000000a8 00000000 
    1714 000000a9 0000002D  $C$SL6: .string "-----------------------------------------------------------"
         000000aa 0000002D 
         000000ab 0000002D 
         000000ac 0000002D 
         000000ad 0000002D 
         000000ae 0000002D 
         000000af 0000002D 
         000000b0 0000002D 
         000000b1 0000002D 
         000000b2 0000002D 
         000000b3 0000002D 
         000000b4 0000002D 
         000000b5 0000002D 
         000000b6 0000002D 
         000000b7 0000002D 
         000000b8 0000002D 
         000000b9 0000002D 
         000000ba 0000002D 
         000000bb 0000002D 
         000000bc 0000002D 
         000000bd 0000002D 
         000000be 0000002D 
         000000bf 0000002D 
         000000c0 0000002D 
         000000c1 0000002D 
         000000c2 0000002D 
         000000c3 0000002D 
         000000c4 0000002D 
         000000c5 0000002D 
         000000c6 0000002D 
         000000c7 0000002D 
         000000c8 0000002D 
         000000c9 0000002D 
         000000ca 0000002D 
         000000cb 0000002D 
         000000cc 0000002D 
         000000cd 0000002D 
         000000ce 0000002D 
         000000cf 0000002D 
         000000d0 0000002D 
         000000d1 0000002D 
         000000d2 0000002D 
         000000d3 0000002D 
         000000d4 0000002D 
         000000d5 0000002D 
         000000d6 0000002D 
         000000d7 0000002D 
         000000d8 0000002D 
         000000d9 0000002D 
TMS320C6x Assembler PC v7.4.2 Thu Mar 19 12:42:25 2015

Tools Copyright (c) 1996-2012 Texas Instruments Incorporated
package/lib/Regression/regress_d_c/./../packages/ti/vlib/src/VLIB_initUYVYint_to_LABpl_LUT/VLIB_initUYVYint_to_LABpl_LUT_d.se66 PAGE   36

         000000da 0000002D 
         000000db 0000002D 
         000000dc 0000002D 
         000000dd 0000002D 
         000000de 0000002D 
         000000df 0000002D 
         000000e0 0000002D 
         000000e1 0000002D 
         000000e2 0000002D 
         000000e3 0000002D 
    1715 000000e4 0000002D          .string "-----------------------------------------------------------"
         000000e5 0000002D 
         000000e6 0000002D 
         000000e7 0000002D 
         000000e8 0000002D 
         000000e9 0000002D 
         000000ea 0000002D 
         000000eb 0000002D 
         000000ec 0000002D 
         000000ed 0000002D 
         000000ee 0000002D 
         000000ef 0000002D 
         000000f0 0000002D 
         000000f1 0000002D 
         000000f2 0000002D 
         000000f3 0000002D 
         000000f4 0000002D 
         000000f5 0000002D 
         000000f6 0000002D 
         000000f7 0000002D 
         000000f8 0000002D 
         000000f9 0000002D 
         000000fa 0000002D 
         000000fb 0000002D 
         000000fc 0000002D 
         000000fd 0000002D 
         000000fe 0000002D 
         000000ff 0000002D 
         00000100 0000002D 
         00000101 0000002D 
         00000102 0000002D 
         00000103 0000002D 
         00000104 0000002D 
         00000105 0000002D 
         00000106 0000002D 
         00000107 0000002D 
         00000108 0000002D 
         00000109 0000002D 
         0000010a 0000002D 
         0000010b 0000002D 
         0000010c 0000002D 
         0000010d 0000002D 
         0000010e 0000002D 
         0000010f 0000002D 
         00000110 0000002D 
TMS320C6x Assembler PC v7.4.2 Thu Mar 19 12:42:25 2015

Tools Copyright (c) 1996-2012 Texas Instruments Incorporated
package/lib/Regression/regress_d_c/./../packages/ti/vlib/src/VLIB_initUYVYint_to_LABpl_LUT/VLIB_initUYVYint_to_LABpl_LUT_d.se66 PAGE   37

         00000111 0000002D 
         00000112 0000002D 
         00000113 0000002D 
         00000114 0000002D 
         00000115 0000002D 
         00000116 0000002D 
         00000117 0000002D 
         00000118 0000002D 
         00000119 0000002D 
         0000011a 0000002D 
         0000011b 0000002D 
         0000011c 0000002D 
         0000011d 0000002D 
         0000011e 0000002D 
    1716 0000011f 0000002D          .string "-----------------------",10,0
         00000120 0000002D 
         00000121 0000002D 
         00000122 0000002D 
         00000123 0000002D 
         00000124 0000002D 
         00000125 0000002D 
         00000126 0000002D 
         00000127 0000002D 
         00000128 0000002D 
         00000129 0000002D 
         0000012a 0000002D 
         0000012b 0000002D 
         0000012c 0000002D 
         0000012d 0000002D 
         0000012e 0000002D 
         0000012f 0000002D 
         00000130 0000002D 
         00000131 0000002D 
         00000132 0000002D 
         00000133 0000002D 
         00000134 0000002D 
         00000135 0000002D 
         00000136 0000000A 
         00000137 00000000 
    1717                    ;*****************************************************************************
    1718                    ;* UNDEFINED EXTERNAL REFERENCES                                             *
    1719                    ;*****************************************************************************
    1720                            .global printf
    1721                            .global sprintf
    1722                            .global malloc
    1723                            .global free
    1724                            .global VLIB_cache_inval
    1725                            .global VLIB_profile_init
    1726                            .global VLIB_formula_add_test
    1727                            .global VLIB_skip_test
    1728                            .global VLIB_profile_cycle_report
    1729                            .global initStack
    1730                            .global setStackDepth
    1731                            .global getSP
    1732                            .global VLIB_stack_memory
TMS320C6x Assembler PC v7.4.2 Thu Mar 19 12:42:25 2015

Tools Copyright (c) 1996-2012 Texas Instruments Incorporated
package/lib/Regression/regress_d_c/./../packages/ti/vlib/src/VLIB_initUYVYint_to_LABpl_LUT/VLIB_initUYVYint_to_LABpl_LUT_d.se66 PAGE   38

    1733                            .global VLIB_compare_mem
    1734                            .global VLIB_fillBuffer
    1735                            .global VLIB_malloc
    1736                            .global VLIB_free
    1737                            .global VLIB_initUYVYint_to_LABpl_LUT
    1738                            .global VLIB_initUYVYint_to_LABpl_LUT_cn
    1739                            .global initUYVYint_to_LABpl_LUT_getTestParams
    1740                            .global test_cases
    1741                            .global act_kernel
    1742                            .global desc
    1743                            .global testPatternString
    1744                            .global est_test
    1745                            .global beg_count
    1746                            .global end_count
    1747                            .global overhead
    1748                            .global cycles
    1749                    
    1750                    ;******************************************************************************
    1751                    ;* BUILD ATTRIBUTES                                                           *
    1752                    ;******************************************************************************
    1753                            .battr "TI", Tag_File, 1, Tag_Long_Precision_Bits(2)
    1754                            .battr "TI", Tag_File, 1, Tag_Bitfield_layout(2)
    1755                            .battr "TI", Tag_File, 1, Tag_ABI_enum_size(2)
    1756                            .battr "c6xabi", Tag_File, 1, Tag_ABI_wchar_t(1)
    1757                            .battr "c6xabi", Tag_File, 1, Tag_ABI_array_object_alignment(0)
    1758                            .battr "c6xabi", Tag_File, 1, Tag_ABI_array_object_align_expected(0)
    1759                            .battr "c6xabi", Tag_File, 1, Tag_ABI_PIC(0)
    1760                            .battr "c6xabi", Tag_File, 1, Tag_ABI_PID(0)
    1761                            .battr "c6xabi", Tag_File, 1, Tag_ABI_DSBT(0)
    1762                            .battr "c6xabi", Tag_File, 1, Tag_ABI_stack_align_needed(0)
    1763                            .battr "c6xabi", Tag_File, 1, Tag_ABI_stack_align_preserved(0)
    1764                            .battr "TI", Tag_File, 1, Tag_Tramps_Use_SOC(1)
    1765                    
    1766                    ;******************************************************************************
    1767                    ;* TYPE INFORMATION                                                           *
    1768                    ;******************************************************************************
    1769                    
    1770                    $C$DW$T$40      .dwtag  DW_TAG_enumeration_type
    1771                            .dwattr $C$DW$T$40, DW_AT_byte_size(0x04)
    1772                    $C$DW$167       .dwtag  DW_TAG_enumerator, DW_AT_name("VLIB_NO_ERROR"), DW_AT_const_value(0x00)
    1773                            .dwattr $C$DW$167, DW_AT_decl_file(".\..\packages\ti\vlib\src\VLIB_initUYVYint_to_LABpl_LUT\..
    1774                            .dwattr $C$DW$167, DW_AT_decl_line(0x7a)
    1775                            .dwattr $C$DW$167, DW_AT_decl_column(0x05)
    1776                    $C$DW$168       .dwtag  DW_TAG_enumerator, DW_AT_name("VLIB_ERR_INPUT_INVALID"), DW_AT_const_value(0x0
    1777                            .dwattr $C$DW$168, DW_AT_decl_file(".\..\packages\ti\vlib\src\VLIB_initUYVYint_to_LABpl_LUT\..
    1778                            .dwattr $C$DW$168, DW_AT_decl_line(0x7b)
    1779                            .dwattr $C$DW$168, DW_AT_decl_column(0x05)
    1780                    $C$DW$169       .dwtag  DW_TAG_enumerator, DW_AT_name("VLIB_ERR_INPUT_NEGATIVE"), DW_AT_const_value(0x
    1781                            .dwattr $C$DW$169, DW_AT_decl_file(".\..\packages\ti\vlib\src\VLIB_initUYVYint_to_LABpl_LUT\..
    1782                            .dwattr $C$DW$169, DW_AT_decl_line(0x7c)
    1783                            .dwattr $C$DW$169, DW_AT_decl_column(0x05)
    1784                    $C$DW$170       .dwtag  DW_TAG_enumerator, DW_AT_name("VLIB_ERR_INPUT_EXCEEDED_RANGE"), DW_AT_const_va
    1785                            .dwattr $C$DW$170, DW_AT_decl_file(".\..\packages\ti\vlib\src\VLIB_initUYVYint_to_LABpl_LUT\..
    1786                            .dwattr $C$DW$170, DW_AT_decl_line(0x7d)
    1787                            .dwattr $C$DW$170, DW_AT_decl_column(0x05)
TMS320C6x Assembler PC v7.4.2 Thu Mar 19 12:42:25 2015

Tools Copyright (c) 1996-2012 Texas Instruments Incorporated
package/lib/Regression/regress_d_c/./../packages/ti/vlib/src/VLIB_initUYVYint_to_LABpl_LUT/VLIB_initUYVYint_to_LABpl_LUT_d.se66 PAGE   39

    1788                    $C$DW$171       .dwtag  DW_TAG_enumerator, DW_AT_name("VLIB_ERR_MEMORY_EXCEEDED_BOUNDARY"), DW_AT_cons
    1789                            .dwattr $C$DW$171, DW_AT_decl_file(".\..\packages\ti\vlib\src\VLIB_initUYVYint_to_LABpl_LUT\..
    1790                            .dwattr $C$DW$171, DW_AT_decl_line(0x7e)
    1791                            .dwattr $C$DW$171, DW_AT_decl_column(0x05)
    1792                    $C$DW$172       .dwtag  DW_TAG_enumerator, DW_AT_name("VLIB_ERR_MEMORY_ALLOCATION_FAILURE"), DW_AT_con
    1793                            .dwattr $C$DW$172, DW_AT_decl_file(".\..\packages\ti\vlib\src\VLIB_initUYVYint_to_LABpl_LUT\..
    1794                            .dwattr $C$DW$172, DW_AT_decl_line(0x7f)
    1795                            .dwattr $C$DW$172, DW_AT_decl_column(0x05)
    1796                    $C$DW$173       .dwtag  DW_TAG_enumerator, DW_AT_name("VLIB_ERR_MEMORY_POINTER_NULL"), DW_AT_const_val
    1797                            .dwattr $C$DW$173, DW_AT_decl_file(".\..\packages\ti\vlib\src\VLIB_initUYVYint_to_LABpl_LUT\..
    1798                            .dwattr $C$DW$173, DW_AT_decl_line(0x80)
    1799                            .dwattr $C$DW$173, DW_AT_decl_column(0x05)
    1800                    $C$DW$174       .dwtag  DW_TAG_enumerator, DW_AT_name("VLIB_ERR_DMA_FAILURE"), DW_AT_const_value(0x07)
    1801                            .dwattr $C$DW$174, DW_AT_decl_file(".\..\packages\ti\vlib\src\VLIB_initUYVYint_to_LABpl_LUT\..
    1802                            .dwattr $C$DW$174, DW_AT_decl_line(0x81)
    1803                            .dwattr $C$DW$174, DW_AT_decl_column(0x05)
    1804                    $C$DW$175       .dwtag  DW_TAG_enumerator, DW_AT_name("VLIB_ERR_FILE_OPEN_FAILURE"), DW_AT_const_value
    1805                            .dwattr $C$DW$175, DW_AT_decl_file(".\..\packages\ti\vlib\src\VLIB_initUYVYint_to_LABpl_LUT\..
    1806                            .dwattr $C$DW$175, DW_AT_decl_line(0x82)
    1807                            .dwattr $C$DW$175, DW_AT_decl_column(0x05)
    1808                    $C$DW$176       .dwtag  DW_TAG_enumerator, DW_AT_name("VLIB_ERR_FILE_READ_FAILURE"), DW_AT_const_value
    1809                            .dwattr $C$DW$176, DW_AT_decl_file(".\..\packages\ti\vlib\src\VLIB_initUYVYint_to_LABpl_LUT\..
    1810                            .dwattr $C$DW$176, DW_AT_decl_line(0x83)
    1811                            .dwattr $C$DW$176, DW_AT_decl_column(0x05)
    1812                    $C$DW$177       .dwtag  DW_TAG_enumerator, DW_AT_name("VLIB_ERR_FILE_WRITE_FAILURE"), DW_AT_const_valu
    1813                            .dwattr $C$DW$177, DW_AT_decl_file(".\..\packages\ti\vlib\src\VLIB_initUYVYint_to_LABpl_LUT\..
    1814                            .dwattr $C$DW$177, DW_AT_decl_line(0x84)
    1815                            .dwattr $C$DW$177, DW_AT_decl_column(0x05)
    1816                    $C$DW$178       .dwtag  DW_TAG_enumerator, DW_AT_name("VLIB_ERR_FILE_CLOSE_FAILURE"), DW_AT_const_valu
    1817                            .dwattr $C$DW$178, DW_AT_decl_file(".\..\packages\ti\vlib\src\VLIB_initUYVYint_to_LABpl_LUT\..
    1818                            .dwattr $C$DW$178, DW_AT_decl_line(0x85)
    1819                            .dwattr $C$DW$178, DW_AT_decl_column(0x05)
    1820                    $C$DW$179       .dwtag  DW_TAG_enumerator, DW_AT_name("VLIB_ERR_FILE_FORMAT_FAILURE"), DW_AT_const_val
    1821                            .dwattr $C$DW$179, DW_AT_decl_file(".\..\packages\ti\vlib\src\VLIB_initUYVYint_to_LABpl_LUT\..
    1822                            .dwattr $C$DW$179, DW_AT_decl_line(0x86)
    1823                            .dwattr $C$DW$179, DW_AT_decl_column(0x05)
    1824                    $C$DW$180       .dwtag  DW_TAG_enumerator, DW_AT_name("VLIB_WARNING_LOW_MEMORY"), DW_AT_const_value(0x
    1825                            .dwattr $C$DW$180, DW_AT_decl_file(".\..\packages\ti\vlib\src\VLIB_initUYVYint_to_LABpl_LUT\..
    1826                            .dwattr $C$DW$180, DW_AT_decl_line(0x87)
    1827                            .dwattr $C$DW$180, DW_AT_decl_column(0x05)
    1828                    $C$DW$181       .dwtag  DW_TAG_enumerator, DW_AT_name("VLIB_ERR_NOT_IMPLEMENTED"), DW_AT_const_value(0
    1829                            .dwattr $C$DW$181, DW_AT_decl_file(".\..\packages\ti\vlib\src\VLIB_initUYVYint_to_LABpl_LUT\..
    1830                            .dwattr $C$DW$181, DW_AT_decl_line(0x88)
    1831                            .dwattr $C$DW$181, DW_AT_decl_column(0x05)
    1832                    $C$DW$182       .dwtag  DW_TAG_enumerator, DW_AT_name("VLIB_ERROR_MAX"), DW_AT_const_value(0x0f)
    1833                            .dwattr $C$DW$182, DW_AT_decl_file(".\..\packages\ti\vlib\src\VLIB_initUYVYint_to_LABpl_LUT\..
    1834                            .dwattr $C$DW$182, DW_AT_decl_line(0x89)
    1835                            .dwattr $C$DW$182, DW_AT_decl_column(0x05)
    1836                            .dwendtag $C$DW$T$40
    1837                    
    1838                            .dwattr $C$DW$T$40, DW_AT_decl_file(".\..\packages\ti\vlib\src\VLIB_initUYVYint_to_LABpl_LUT\.
    1839                            .dwattr $C$DW$T$40, DW_AT_decl_line(0x79)
    1840                            .dwattr $C$DW$T$40, DW_AT_decl_column(0x0e)
    1841                    $C$DW$T$41      .dwtag  DW_TAG_typedef, DW_AT_name("VLIB_STATUS")
    1842                            .dwattr $C$DW$T$41, DW_AT_type(*$C$DW$T$40)
TMS320C6x Assembler PC v7.4.2 Thu Mar 19 12:42:25 2015

Tools Copyright (c) 1996-2012 Texas Instruments Incorporated
package/lib/Regression/regress_d_c/./../packages/ti/vlib/src/VLIB_initUYVYint_to_LABpl_LUT/VLIB_initUYVYint_to_LABpl_LUT_d.se66 PAGE   40

    1843                            .dwattr $C$DW$T$41, DW_AT_language(DW_LANG_C)
    1844                            .dwattr $C$DW$T$41, DW_AT_decl_file(".\..\packages\ti\vlib\src\VLIB_initUYVYint_to_LABpl_LUT\.
    1845                            .dwattr $C$DW$T$41, DW_AT_decl_line(0x8a)
    1846                            .dwattr $C$DW$T$41, DW_AT_decl_column(0x03)
    1847                    
    1848                    $C$DW$T$42      .dwtag  DW_TAG_enumeration_type
    1849                            .dwattr $C$DW$T$42, DW_AT_byte_size(0x04)
    1850                    $C$DW$183       .dwtag  DW_TAG_enumerator, DW_AT_name("vlib_KERNEL_OPT"), DW_AT_const_value(0x00)
    1851                            .dwattr $C$DW$183, DW_AT_decl_file(".\..\packages\ti\vlib\src\VLIB_initUYVYint_to_LABpl_LUT\..
    1852                            .dwattr $C$DW$183, DW_AT_decl_line(0x6a)
    1853                            .dwattr $C$DW$183, DW_AT_decl_column(0x05)
    1854                    $C$DW$184       .dwtag  DW_TAG_enumerator, DW_AT_name("vlib_KERNEL_CN"), DW_AT_const_value(0x01)
    1855                            .dwattr $C$DW$184, DW_AT_decl_file(".\..\packages\ti\vlib\src\VLIB_initUYVYint_to_LABpl_LUT\..
    1856                            .dwattr $C$DW$184, DW_AT_decl_line(0x6b)
    1857                            .dwattr $C$DW$184, DW_AT_decl_column(0x05)
    1858                    $C$DW$185       .dwtag  DW_TAG_enumerator, DW_AT_name("vlib_KERNEL_CNT"), DW_AT_const_value(0x02)
    1859                            .dwattr $C$DW$185, DW_AT_decl_file(".\..\packages\ti\vlib\src\VLIB_initUYVYint_to_LABpl_LUT\..
    1860                            .dwattr $C$DW$185, DW_AT_decl_line(0x6c)
    1861                            .dwattr $C$DW$185, DW_AT_decl_column(0x05)
    1862                            .dwendtag $C$DW$T$42
    1863                    
    1864                            .dwattr $C$DW$T$42, DW_AT_decl_file(".\..\packages\ti\vlib\src\VLIB_initUYVYint_to_LABpl_LUT\.
    1865                            .dwattr $C$DW$T$42, DW_AT_decl_line(0x69)
    1866                            .dwattr $C$DW$T$42, DW_AT_decl_column(0x06)
    1867                    
    1868                    $C$DW$T$43      .dwtag  DW_TAG_enumeration_type
    1869                            .dwattr $C$DW$T$43, DW_AT_byte_size(0x04)
    1870                    $C$DW$186       .dwtag  DW_TAG_enumerator, DW_AT_name("vlib_KERNEL_FAIL"), DW_AT_const_value(0x00)
    1871                            .dwattr $C$DW$186, DW_AT_decl_file(".\..\packages\ti\vlib\src\VLIB_initUYVYint_to_LABpl_LUT\..
    1872                            .dwattr $C$DW$186, DW_AT_decl_line(0x72)
    1873                            .dwattr $C$DW$186, DW_AT_decl_column(0x05)
    1874                    $C$DW$187       .dwtag  DW_TAG_enumerator, DW_AT_name("vlib_KERNEL_PASS"), DW_AT_const_value(0x01)
    1875                            .dwattr $C$DW$187, DW_AT_decl_file(".\..\packages\ti\vlib\src\VLIB_initUYVYint_to_LABpl_LUT\..
    1876                            .dwattr $C$DW$187, DW_AT_decl_line(0x73)
    1877                            .dwattr $C$DW$187, DW_AT_decl_column(0x05)
    1878                            .dwendtag $C$DW$T$43
    1879                    
    1880                            .dwattr $C$DW$T$43, DW_AT_decl_file(".\..\packages\ti\vlib\src\VLIB_initUYVYint_to_LABpl_LUT\.
    1881                            .dwattr $C$DW$T$43, DW_AT_decl_line(0x71)
    1882                            .dwattr $C$DW$T$43, DW_AT_decl_column(0x06)
    1883                    
    1884                    $C$DW$T$27      .dwtag  DW_TAG_structure_type
    1885                            .dwattr $C$DW$T$27, DW_AT_byte_size(0x14)
    1886                    $C$DW$188       .dwtag  DW_TAG_member
    1887                            .dwattr $C$DW$188, DW_AT_type(*$C$DW$T$19)
    1888                            .dwattr $C$DW$188, DW_AT_name("testPattern")
    1889                            .dwattr $C$DW$188, DW_AT_TI_symbol_name("testPattern")
    1890                            .dwattr $C$DW$188, DW_AT_data_member_location[DW_OP_plus_uconst 0x0]
    1891                            .dwattr $C$DW$188, DW_AT_accessibility(DW_ACCESS_public)
    1892                            .dwattr $C$DW$188, DW_AT_decl_file(".\..\packages\ti\vlib\src\VLIB_initUYVYint_to_LABpl_LUT\VL
    1893                            .dwattr $C$DW$188, DW_AT_decl_line(0x24)
    1894                            .dwattr $C$DW$188, DW_AT_decl_column(0x0f)
    1895                    $C$DW$189       .dwtag  DW_TAG_member
    1896                            .dwattr $C$DW$189, DW_AT_type(*$C$DW$T$21)
    1897                            .dwattr $C$DW$189, DW_AT_name("staticOut")
TMS320C6x Assembler PC v7.4.2 Thu Mar 19 12:42:25 2015

Tools Copyright (c) 1996-2012 Texas Instruments Incorporated
package/lib/Regression/regress_d_c/./../packages/ti/vlib/src/VLIB_initUYVYint_to_LABpl_LUT/VLIB_initUYVYint_to_LABpl_LUT_d.se66 PAGE   41

    1898                            .dwattr $C$DW$189, DW_AT_TI_symbol_name("staticOut")
    1899                            .dwattr $C$DW$189, DW_AT_data_member_location[DW_OP_plus_uconst 0x4]
    1900                            .dwattr $C$DW$189, DW_AT_accessibility(DW_ACCESS_public)
    1901                            .dwattr $C$DW$189, DW_AT_decl_file(".\..\packages\ti\vlib\src\VLIB_initUYVYint_to_LABpl_LUT\VL
    1902                            .dwattr $C$DW$189, DW_AT_decl_line(0x25)
    1903                            .dwattr $C$DW$189, DW_AT_decl_column(0x0f)
    1904                    $C$DW$190       .dwtag  DW_TAG_member
    1905                            .dwattr $C$DW$190, DW_AT_type(*$C$DW$T$23)
    1906                            .dwattr $C$DW$190, DW_AT_name("coeff")
    1907                            .dwattr $C$DW$190, DW_AT_TI_symbol_name("coeff")
    1908                            .dwattr $C$DW$190, DW_AT_data_member_location[DW_OP_plus_uconst 0x8]
    1909                            .dwattr $C$DW$190, DW_AT_accessibility(DW_ACCESS_public)
    1910                            .dwattr $C$DW$190, DW_AT_decl_file(".\..\packages\ti\vlib\src\VLIB_initUYVYint_to_LABpl_LUT\VL
    1911                            .dwattr $C$DW$190, DW_AT_decl_line(0x26)
    1912                            .dwattr $C$DW$190, DW_AT_decl_column(0x0f)
    1913                    $C$DW$191       .dwtag  DW_TAG_member
    1914                            .dwattr $C$DW$191, DW_AT_type(*$C$DW$T$25)
    1915                            .dwattr $C$DW$191, DW_AT_name("whitePoint")
    1916                            .dwattr $C$DW$191, DW_AT_TI_symbol_name("whitePoint")
    1917                            .dwattr $C$DW$191, DW_AT_data_member_location[DW_OP_plus_uconst 0xc]
    1918                            .dwattr $C$DW$191, DW_AT_accessibility(DW_ACCESS_public)
    1919                            .dwattr $C$DW$191, DW_AT_decl_file(".\..\packages\ti\vlib\src\VLIB_initUYVYint_to_LABpl_LUT\VL
    1920                            .dwattr $C$DW$191, DW_AT_decl_line(0x27)
    1921                            .dwattr $C$DW$191, DW_AT_decl_column(0x0f)
    1922                    $C$DW$192       .dwtag  DW_TAG_member
    1923                            .dwattr $C$DW$192, DW_AT_type(*$C$DW$T$26)
    1924                            .dwattr $C$DW$192, DW_AT_name("d")
    1925                            .dwattr $C$DW$192, DW_AT_TI_symbol_name("d")
    1926                            .dwattr $C$DW$192, DW_AT_data_member_location[DW_OP_plus_uconst 0x10]
    1927                            .dwattr $C$DW$192, DW_AT_accessibility(DW_ACCESS_public)
    1928                            .dwattr $C$DW$192, DW_AT_decl_file(".\..\packages\ti\vlib\src\VLIB_initUYVYint_to_LABpl_LUT\VL
    1929                            .dwattr $C$DW$192, DW_AT_decl_line(0x28)
    1930                            .dwattr $C$DW$192, DW_AT_decl_column(0x0f)
    1931                            .dwendtag $C$DW$T$27
    1932                    
    1933                            .dwattr $C$DW$T$27, DW_AT_decl_file(".\..\packages\ti\vlib\src\VLIB_initUYVYint_to_LABpl_LUT\V
    1934                            .dwattr $C$DW$T$27, DW_AT_decl_line(0x23)
    1935                            .dwattr $C$DW$T$27, DW_AT_decl_column(0x10)
    1936                    $C$DW$T$44      .dwtag  DW_TAG_pointer_type
    1937                            .dwattr $C$DW$T$44, DW_AT_type(*$C$DW$T$27)
    1938                            .dwattr $C$DW$T$44, DW_AT_address_class(0x20)
    1939                    $C$DW$T$46      .dwtag  DW_TAG_typedef, DW_AT_name("initUYVYint_to_LABpl_LUT_testParams_t")
    1940                            .dwattr $C$DW$T$46, DW_AT_type(*$C$DW$T$27)
    1941                            .dwattr $C$DW$T$46, DW_AT_language(DW_LANG_C)
    1942                            .dwattr $C$DW$T$46, DW_AT_decl_file(".\..\packages\ti\vlib\src\VLIB_initUYVYint_to_LABpl_LUT\V
    1943                            .dwattr $C$DW$T$46, DW_AT_decl_line(0x29)
    1944                            .dwattr $C$DW$T$46, DW_AT_decl_column(0x03)
    1945                    $C$DW$T$47      .dwtag  DW_TAG_pointer_type
    1946                            .dwattr $C$DW$T$47, DW_AT_type(*$C$DW$T$46)
    1947                            .dwattr $C$DW$T$47, DW_AT_address_class(0x20)
    1948                    $C$DW$T$48      .dwtag  DW_TAG_pointer_type
    1949                            .dwattr $C$DW$T$48, DW_AT_type(*$C$DW$T$47)
    1950                            .dwattr $C$DW$T$48, DW_AT_address_class(0x20)
    1951                    
    1952                    $C$DW$T$29      .dwtag  DW_TAG_structure_type
TMS320C6x Assembler PC v7.4.2 Thu Mar 19 12:42:25 2015

Tools Copyright (c) 1996-2012 Texas Instruments Incorporated
package/lib/Regression/regress_d_c/./../packages/ti/vlib/src/VLIB_initUYVYint_to_LABpl_LUT/VLIB_initUYVYint_to_LABpl_LUT_d.se66 PAGE   42

    1953                            .dwattr $C$DW$T$29, DW_AT_byte_size(0x18)
    1954                    $C$DW$193       .dwtag  DW_TAG_member
    1955                            .dwattr $C$DW$193, DW_AT_type(*$C$DW$T$10)
    1956                            .dwattr $C$DW$193, DW_AT_name("fd")
    1957                            .dwattr $C$DW$193, DW_AT_TI_symbol_name("fd")
    1958                            .dwattr $C$DW$193, DW_AT_data_member_location[DW_OP_plus_uconst 0x0]
    1959                            .dwattr $C$DW$193, DW_AT_accessibility(DW_ACCESS_public)
    1960                            .dwattr $C$DW$193, DW_AT_decl_file("C:/VLIB_Tools/CCSV5_4_0/ccsv5/tools/compiler/C6000/include
    1961                            .dwattr $C$DW$193, DW_AT_decl_line(0x49)
    1962                            .dwattr $C$DW$193, DW_AT_decl_column(0x0b)
    1963                    $C$DW$194       .dwtag  DW_TAG_member
    1964                            .dwattr $C$DW$194, DW_AT_type(*$C$DW$T$28)
    1965                            .dwattr $C$DW$194, DW_AT_name("buf")
    1966                            .dwattr $C$DW$194, DW_AT_TI_symbol_name("buf")
    1967                            .dwattr $C$DW$194, DW_AT_data_member_location[DW_OP_plus_uconst 0x4]
    1968                            .dwattr $C$DW$194, DW_AT_accessibility(DW_ACCESS_public)
    1969                            .dwattr $C$DW$194, DW_AT_decl_file("C:/VLIB_Tools/CCSV5_4_0/ccsv5/tools/compiler/C6000/include
    1970                            .dwattr $C$DW$194, DW_AT_decl_line(0x4a)
    1971                            .dwattr $C$DW$194, DW_AT_decl_column(0x16)
    1972                    $C$DW$195       .dwtag  DW_TAG_member
    1973                            .dwattr $C$DW$195, DW_AT_type(*$C$DW$T$28)
    1974                            .dwattr $C$DW$195, DW_AT_name("pos")
    1975                            .dwattr $C$DW$195, DW_AT_TI_symbol_name("pos")
    1976                            .dwattr $C$DW$195, DW_AT_data_member_location[DW_OP_plus_uconst 0x8]
    1977                            .dwattr $C$DW$195, DW_AT_accessibility(DW_ACCESS_public)
    1978                            .dwattr $C$DW$195, DW_AT_decl_file("C:/VLIB_Tools/CCSV5_4_0/ccsv5/tools/compiler/C6000/include
    1979                            .dwattr $C$DW$195, DW_AT_decl_line(0x4b)
    1980                            .dwattr $C$DW$195, DW_AT_decl_column(0x16)
    1981                    $C$DW$196       .dwtag  DW_TAG_member
    1982                            .dwattr $C$DW$196, DW_AT_type(*$C$DW$T$28)
    1983                            .dwattr $C$DW$196, DW_AT_name("bufend")
    1984                            .dwattr $C$DW$196, DW_AT_TI_symbol_name("bufend")
    1985                            .dwattr $C$DW$196, DW_AT_data_member_location[DW_OP_plus_uconst 0xc]
    1986                            .dwattr $C$DW$196, DW_AT_accessibility(DW_ACCESS_public)
    1987                            .dwattr $C$DW$196, DW_AT_decl_file("C:/VLIB_Tools/CCSV5_4_0/ccsv5/tools/compiler/C6000/include
    1988                            .dwattr $C$DW$196, DW_AT_decl_line(0x4c)
    1989                            .dwattr $C$DW$196, DW_AT_decl_column(0x16)
    1990                    $C$DW$197       .dwtag  DW_TAG_member
    1991                            .dwattr $C$DW$197, DW_AT_type(*$C$DW$T$28)
    1992                            .dwattr $C$DW$197, DW_AT_name("buff_stop")
    1993                            .dwattr $C$DW$197, DW_AT_TI_symbol_name("buff_stop")
    1994                            .dwattr $C$DW$197, DW_AT_data_member_location[DW_OP_plus_uconst 0x10]
    1995                            .dwattr $C$DW$197, DW_AT_accessibility(DW_ACCESS_public)
    1996                            .dwattr $C$DW$197, DW_AT_decl_file("C:/VLIB_Tools/CCSV5_4_0/ccsv5/tools/compiler/C6000/include
    1997                            .dwattr $C$DW$197, DW_AT_decl_line(0x4d)
    1998                            .dwattr $C$DW$197, DW_AT_decl_column(0x16)
    1999                    $C$DW$198       .dwtag  DW_TAG_member
    2000                            .dwattr $C$DW$198, DW_AT_type(*$C$DW$T$11)
    2001                            .dwattr $C$DW$198, DW_AT_name("flags")
    2002                            .dwattr $C$DW$198, DW_AT_TI_symbol_name("flags")
    2003                            .dwattr $C$DW$198, DW_AT_data_member_location[DW_OP_plus_uconst 0x14]
    2004                            .dwattr $C$DW$198, DW_AT_accessibility(DW_ACCESS_public)
    2005                            .dwattr $C$DW$198, DW_AT_decl_file("C:/VLIB_Tools/CCSV5_4_0/ccsv5/tools/compiler/C6000/include
    2006                            .dwattr $C$DW$198, DW_AT_decl_line(0x4e)
    2007                            .dwattr $C$DW$198, DW_AT_decl_column(0x16)
TMS320C6x Assembler PC v7.4.2 Thu Mar 19 12:42:25 2015

Tools Copyright (c) 1996-2012 Texas Instruments Incorporated
package/lib/Regression/regress_d_c/./../packages/ti/vlib/src/VLIB_initUYVYint_to_LABpl_LUT/VLIB_initUYVYint_to_LABpl_LUT_d.se66 PAGE   43

    2008                            .dwendtag $C$DW$T$29
    2009                    
    2010                            .dwattr $C$DW$T$29, DW_AT_decl_file("C:/VLIB_Tools/CCSV5_4_0/ccsv5/tools/compiler/C6000/includ
    2011                            .dwattr $C$DW$T$29, DW_AT_decl_line(0x48)
    2012                            .dwattr $C$DW$T$29, DW_AT_decl_column(0x10)
    2013                    $C$DW$T$49      .dwtag  DW_TAG_typedef, DW_AT_name("FILE")
    2014                            .dwattr $C$DW$T$49, DW_AT_type(*$C$DW$T$29)
    2015                            .dwattr $C$DW$T$49, DW_AT_language(DW_LANG_C)
    2016                            .dwattr $C$DW$T$49, DW_AT_decl_file("C:/VLIB_Tools/CCSV5_4_0/ccsv5/tools/compiler/C6000/includ
    2017                            .dwattr $C$DW$T$49, DW_AT_decl_line(0x4f)
    2018                            .dwattr $C$DW$T$49, DW_AT_decl_column(0x03)
    2019                    
    2020                    $C$DW$T$30      .dwtag  DW_TAG_structure_type
    2021                            .dwattr $C$DW$T$30, DW_AT_byte_size(0x08)
    2022                    $C$DW$199       .dwtag  DW_TAG_member
    2023                            .dwattr $C$DW$199, DW_AT_type(*$C$DW$T$10)
    2024                            .dwattr $C$DW$199, DW_AT_name("quot")
    2025                            .dwattr $C$DW$199, DW_AT_TI_symbol_name("quot")
    2026                            .dwattr $C$DW$199, DW_AT_data_member_location[DW_OP_plus_uconst 0x0]
    2027                            .dwattr $C$DW$199, DW_AT_accessibility(DW_ACCESS_public)
    2028                            .dwattr $C$DW$199, DW_AT_decl_file("C:/VLIB_Tools/CCSV5_4_0/ccsv5/tools/compiler/C6000/include
    2029                            .dwattr $C$DW$199, DW_AT_decl_line(0x3e)
    2030                            .dwattr $C$DW$199, DW_AT_decl_column(0x16)
    2031                    $C$DW$200       .dwtag  DW_TAG_member
    2032                            .dwattr $C$DW$200, DW_AT_type(*$C$DW$T$10)
    2033                            .dwattr $C$DW$200, DW_AT_name("rem")
    2034                            .dwattr $C$DW$200, DW_AT_TI_symbol_name("rem")
    2035                            .dwattr $C$DW$200, DW_AT_data_member_location[DW_OP_plus_uconst 0x4]
    2036                            .dwattr $C$DW$200, DW_AT_accessibility(DW_ACCESS_public)
    2037                            .dwattr $C$DW$200, DW_AT_decl_file("C:/VLIB_Tools/CCSV5_4_0/ccsv5/tools/compiler/C6000/include
    2038                            .dwattr $C$DW$200, DW_AT_decl_line(0x3e)
    2039                            .dwattr $C$DW$200, DW_AT_decl_column(0x1c)
    2040                            .dwendtag $C$DW$T$30
    2041                    
    2042                            .dwattr $C$DW$T$30, DW_AT_decl_file("C:/VLIB_Tools/CCSV5_4_0/ccsv5/tools/compiler/C6000/includ
    2043                            .dwattr $C$DW$T$30, DW_AT_decl_line(0x3e)
    2044                            .dwattr $C$DW$T$30, DW_AT_decl_column(0x10)
    2045                    $C$DW$T$50      .dwtag  DW_TAG_typedef, DW_AT_name("div_t")
    2046                            .dwattr $C$DW$T$50, DW_AT_type(*$C$DW$T$30)
    2047                            .dwattr $C$DW$T$50, DW_AT_language(DW_LANG_C)
    2048                            .dwattr $C$DW$T$50, DW_AT_decl_file("C:/VLIB_Tools/CCSV5_4_0/ccsv5/tools/compiler/C6000/includ
    2049                            .dwattr $C$DW$T$50, DW_AT_decl_line(0x3e)
    2050                            .dwattr $C$DW$T$50, DW_AT_decl_column(0x23)
    2051                    
    2052                    $C$DW$T$31      .dwtag  DW_TAG_structure_type
    2053                            .dwattr $C$DW$T$31, DW_AT_byte_size(0x08)
    2054                    $C$DW$201       .dwtag  DW_TAG_member
    2055                            .dwattr $C$DW$201, DW_AT_type(*$C$DW$T$10)
    2056                            .dwattr $C$DW$201, DW_AT_name("quot")
    2057                            .dwattr $C$DW$201, DW_AT_TI_symbol_name("quot")
    2058                            .dwattr $C$DW$201, DW_AT_data_member_location[DW_OP_plus_uconst 0x0]
    2059                            .dwattr $C$DW$201, DW_AT_accessibility(DW_ACCESS_public)
    2060                            .dwattr $C$DW$201, DW_AT_decl_file("C:/VLIB_Tools/CCSV5_4_0/ccsv5/tools/compiler/C6000/include
    2061                            .dwattr $C$DW$201, DW_AT_decl_line(0x40)
    2062                            .dwattr $C$DW$201, DW_AT_decl_column(0x17)
TMS320C6x Assembler PC v7.4.2 Thu Mar 19 12:42:25 2015

Tools Copyright (c) 1996-2012 Texas Instruments Incorporated
package/lib/Regression/regress_d_c/./../packages/ti/vlib/src/VLIB_initUYVYint_to_LABpl_LUT/VLIB_initUYVYint_to_LABpl_LUT_d.se66 PAGE   44

    2063                    $C$DW$202       .dwtag  DW_TAG_member
    2064                            .dwattr $C$DW$202, DW_AT_type(*$C$DW$T$10)
    2065                            .dwattr $C$DW$202, DW_AT_name("rem")
    2066                            .dwattr $C$DW$202, DW_AT_TI_symbol_name("rem")
    2067                            .dwattr $C$DW$202, DW_AT_data_member_location[DW_OP_plus_uconst 0x4]
    2068                            .dwattr $C$DW$202, DW_AT_accessibility(DW_ACCESS_public)
    2069                            .dwattr $C$DW$202, DW_AT_decl_file("C:/VLIB_Tools/CCSV5_4_0/ccsv5/tools/compiler/C6000/include
    2070                            .dwattr $C$DW$202, DW_AT_decl_line(0x40)
    2071                            .dwattr $C$DW$202, DW_AT_decl_column(0x1d)
    2072                            .dwendtag $C$DW$T$31
    2073                    
    2074                            .dwattr $C$DW$T$31, DW_AT_decl_file("C:/VLIB_Tools/CCSV5_4_0/ccsv5/tools/compiler/C6000/includ
    2075                            .dwattr $C$DW$T$31, DW_AT_decl_line(0x40)
    2076                            .dwattr $C$DW$T$31, DW_AT_decl_column(0x10)
    2077                    $C$DW$T$51      .dwtag  DW_TAG_typedef, DW_AT_name("ldiv_t")
    2078                            .dwattr $C$DW$T$51, DW_AT_type(*$C$DW$T$31)
    2079                            .dwattr $C$DW$T$51, DW_AT_language(DW_LANG_C)
    2080                            .dwattr $C$DW$T$51, DW_AT_decl_file("C:/VLIB_Tools/CCSV5_4_0/ccsv5/tools/compiler/C6000/includ
    2081                            .dwattr $C$DW$T$51, DW_AT_decl_line(0x40)
    2082                            .dwattr $C$DW$T$51, DW_AT_decl_column(0x24)
    2083                    
    2084                    $C$DW$T$32      .dwtag  DW_TAG_structure_type
    2085                            .dwattr $C$DW$T$32, DW_AT_byte_size(0x10)
    2086                    $C$DW$203       .dwtag  DW_TAG_member
    2087                            .dwattr $C$DW$203, DW_AT_type(*$C$DW$T$14)
    2088                            .dwattr $C$DW$203, DW_AT_name("quot")
    2089                            .dwattr $C$DW$203, DW_AT_TI_symbol_name("quot")
    2090                            .dwattr $C$DW$203, DW_AT_data_member_location[DW_OP_plus_uconst 0x0]
    2091                            .dwattr $C$DW$203, DW_AT_accessibility(DW_ACCESS_public)
    2092                            .dwattr $C$DW$203, DW_AT_decl_file("C:/VLIB_Tools/CCSV5_4_0/ccsv5/tools/compiler/C6000/include
    2093                            .dwattr $C$DW$203, DW_AT_decl_line(0x43)
    2094                            .dwattr $C$DW$203, DW_AT_decl_column(0x1c)
    2095                    $C$DW$204       .dwtag  DW_TAG_member
    2096                            .dwattr $C$DW$204, DW_AT_type(*$C$DW$T$14)
    2097                            .dwattr $C$DW$204, DW_AT_name("rem")
    2098                            .dwattr $C$DW$204, DW_AT_TI_symbol_name("rem")
    2099                            .dwattr $C$DW$204, DW_AT_data_member_location[DW_OP_plus_uconst 0x8]
    2100                            .dwattr $C$DW$204, DW_AT_accessibility(DW_ACCESS_public)
    2101                            .dwattr $C$DW$204, DW_AT_decl_file("C:/VLIB_Tools/CCSV5_4_0/ccsv5/tools/compiler/C6000/include
    2102                            .dwattr $C$DW$204, DW_AT_decl_line(0x43)
    2103                            .dwattr $C$DW$204, DW_AT_decl_column(0x22)
    2104                            .dwendtag $C$DW$T$32
    2105                    
    2106                            .dwattr $C$DW$T$32, DW_AT_decl_file("C:/VLIB_Tools/CCSV5_4_0/ccsv5/tools/compiler/C6000/includ
    2107                            .dwattr $C$DW$T$32, DW_AT_decl_line(0x43)
    2108                            .dwattr $C$DW$T$32, DW_AT_decl_column(0x10)
    2109                    $C$DW$T$52      .dwtag  DW_TAG_typedef, DW_AT_name("lldiv_t")
    2110                            .dwattr $C$DW$T$52, DW_AT_type(*$C$DW$T$32)
    2111                            .dwattr $C$DW$T$52, DW_AT_language(DW_LANG_C)
    2112                            .dwattr $C$DW$T$52, DW_AT_decl_file("C:/VLIB_Tools/CCSV5_4_0/ccsv5/tools/compiler/C6000/includ
    2113                            .dwattr $C$DW$T$52, DW_AT_decl_line(0x43)
    2114                            .dwattr $C$DW$T$52, DW_AT_decl_column(0x29)
    2115                    
    2116                    $C$DW$T$33      .dwtag  DW_TAG_structure_type
    2117                            .dwattr $C$DW$T$33, DW_AT_byte_size(0x24)
TMS320C6x Assembler PC v7.4.2 Thu Mar 19 12:42:25 2015

Tools Copyright (c) 1996-2012 Texas Instruments Incorporated
package/lib/Regression/regress_d_c/./../packages/ti/vlib/src/VLIB_initUYVYint_to_LABpl_LUT/VLIB_initUYVYint_to_LABpl_LUT_d.se66 PAGE   45

    2118                    $C$DW$205       .dwtag  DW_TAG_member
    2119                            .dwattr $C$DW$205, DW_AT_type(*$C$DW$T$26)
    2120                            .dwattr $C$DW$205, DW_AT_name("area")
    2121                            .dwattr $C$DW$205, DW_AT_TI_symbol_name("area")
    2122                            .dwattr $C$DW$205, DW_AT_data_member_location[DW_OP_plus_uconst 0x0]
    2123                            .dwattr $C$DW$205, DW_AT_accessibility(DW_ACCESS_public)
    2124                            .dwattr $C$DW$205, DW_AT_decl_file(".\..\packages\ti\vlib\src\VLIB_initUYVYint_to_LABpl_LUT\..
    2125                            .dwattr $C$DW$205, DW_AT_decl_line(0x69)
    2126                            .dwattr $C$DW$205, DW_AT_decl_column(0x0d)
    2127                    $C$DW$206       .dwtag  DW_TAG_member
    2128                            .dwattr $C$DW$206, DW_AT_type(*$C$DW$T$26)
    2129                            .dwattr $C$DW$206, DW_AT_name("xsum")
    2130                            .dwattr $C$DW$206, DW_AT_TI_symbol_name("xsum")
    2131                            .dwattr $C$DW$206, DW_AT_data_member_location[DW_OP_plus_uconst 0x4]
    2132                            .dwattr $C$DW$206, DW_AT_accessibility(DW_ACCESS_public)
    2133                            .dwattr $C$DW$206, DW_AT_decl_file(".\..\packages\ti\vlib\src\VLIB_initUYVYint_to_LABpl_LUT\..
    2134                            .dwattr $C$DW$206, DW_AT_decl_line(0x6a)
    2135                            .dwattr $C$DW$206, DW_AT_decl_column(0x0d)
    2136                    $C$DW$207       .dwtag  DW_TAG_member
    2137                            .dwattr $C$DW$207, DW_AT_type(*$C$DW$T$26)
    2138                            .dwattr $C$DW$207, DW_AT_name("ysum")
    2139                            .dwattr $C$DW$207, DW_AT_TI_symbol_name("ysum")
    2140                            .dwattr $C$DW$207, DW_AT_data_member_location[DW_OP_plus_uconst 0x8]
    2141                            .dwattr $C$DW$207, DW_AT_accessibility(DW_ACCESS_public)
    2142                            .dwattr $C$DW$207, DW_AT_decl_file(".\..\packages\ti\vlib\src\VLIB_initUYVYint_to_LABpl_LUT\..
    2143                            .dwattr $C$DW$207, DW_AT_decl_line(0x6b)
    2144                            .dwattr $C$DW$207, DW_AT_decl_column(0x0d)
    2145                    $C$DW$208       .dwtag  DW_TAG_member
    2146                            .dwattr $C$DW$208, DW_AT_type(*$C$DW$T$26)
    2147                            .dwattr $C$DW$208, DW_AT_name("xmin")
    2148                            .dwattr $C$DW$208, DW_AT_TI_symbol_name("xmin")
    2149                            .dwattr $C$DW$208, DW_AT_data_member_location[DW_OP_plus_uconst 0xc]
    2150                            .dwattr $C$DW$208, DW_AT_accessibility(DW_ACCESS_public)
    2151                            .dwattr $C$DW$208, DW_AT_decl_file(".\..\packages\ti\vlib\src\VLIB_initUYVYint_to_LABpl_LUT\..
    2152                            .dwattr $C$DW$208, DW_AT_decl_line(0x6d)
    2153                            .dwattr $C$DW$208, DW_AT_decl_column(0x0d)
    2154                    $C$DW$209       .dwtag  DW_TAG_member
    2155                            .dwattr $C$DW$209, DW_AT_type(*$C$DW$T$26)
    2156                            .dwattr $C$DW$209, DW_AT_name("ymin")
    2157                            .dwattr $C$DW$209, DW_AT_TI_symbol_name("ymin")
    2158                            .dwattr $C$DW$209, DW_AT_data_member_location[DW_OP_plus_uconst 0x10]
    2159                            .dwattr $C$DW$209, DW_AT_accessibility(DW_ACCESS_public)
    2160                            .dwattr $C$DW$209, DW_AT_decl_file(".\..\packages\ti\vlib\src\VLIB_initUYVYint_to_LABpl_LUT\..
    2161                            .dwattr $C$DW$209, DW_AT_decl_line(0x6e)
    2162                            .dwattr $C$DW$209, DW_AT_decl_column(0x0d)
    2163                    $C$DW$210       .dwtag  DW_TAG_member
    2164                            .dwattr $C$DW$210, DW_AT_type(*$C$DW$T$26)
    2165                            .dwattr $C$DW$210, DW_AT_name("xmax")
    2166                            .dwattr $C$DW$210, DW_AT_TI_symbol_name("xmax")
    2167                            .dwattr $C$DW$210, DW_AT_data_member_location[DW_OP_plus_uconst 0x14]
    2168                            .dwattr $C$DW$210, DW_AT_accessibility(DW_ACCESS_public)
    2169                            .dwattr $C$DW$210, DW_AT_decl_file(".\..\packages\ti\vlib\src\VLIB_initUYVYint_to_LABpl_LUT\..
    2170                            .dwattr $C$DW$210, DW_AT_decl_line(0x6f)
    2171                            .dwattr $C$DW$210, DW_AT_decl_column(0x0d)
    2172                    $C$DW$211       .dwtag  DW_TAG_member
TMS320C6x Assembler PC v7.4.2 Thu Mar 19 12:42:25 2015

Tools Copyright (c) 1996-2012 Texas Instruments Incorporated
package/lib/Regression/regress_d_c/./../packages/ti/vlib/src/VLIB_initUYVYint_to_LABpl_LUT/VLIB_initUYVYint_to_LABpl_LUT_d.se66 PAGE   46

    2173                            .dwattr $C$DW$211, DW_AT_type(*$C$DW$T$26)
    2174                            .dwattr $C$DW$211, DW_AT_name("ymax")
    2175                            .dwattr $C$DW$211, DW_AT_TI_symbol_name("ymax")
    2176                            .dwattr $C$DW$211, DW_AT_data_member_location[DW_OP_plus_uconst 0x18]
    2177                            .dwattr $C$DW$211, DW_AT_accessibility(DW_ACCESS_public)
    2178                            .dwattr $C$DW$211, DW_AT_decl_file(".\..\packages\ti\vlib\src\VLIB_initUYVYint_to_LABpl_LUT\..
    2179                            .dwattr $C$DW$211, DW_AT_decl_line(0x70)
    2180                            .dwattr $C$DW$211, DW_AT_decl_column(0x0d)
    2181                    $C$DW$212       .dwtag  DW_TAG_member
    2182                            .dwattr $C$DW$212, DW_AT_type(*$C$DW$T$26)
    2183                            .dwattr $C$DW$212, DW_AT_name("seedx")
    2184                            .dwattr $C$DW$212, DW_AT_TI_symbol_name("seedx")
    2185                            .dwattr $C$DW$212, DW_AT_data_member_location[DW_OP_plus_uconst 0x1c]
    2186                            .dwattr $C$DW$212, DW_AT_accessibility(DW_ACCESS_public)
    2187                            .dwattr $C$DW$212, DW_AT_decl_file(".\..\packages\ti\vlib\src\VLIB_initUYVYint_to_LABpl_LUT\..
    2188                            .dwattr $C$DW$212, DW_AT_decl_line(0x72)
    2189                            .dwattr $C$DW$212, DW_AT_decl_column(0x0d)
    2190                    $C$DW$213       .dwtag  DW_TAG_member
    2191                            .dwattr $C$DW$213, DW_AT_type(*$C$DW$T$26)
    2192                            .dwattr $C$DW$213, DW_AT_name("seedy")
    2193                            .dwattr $C$DW$213, DW_AT_TI_symbol_name("seedy")
    2194                            .dwattr $C$DW$213, DW_AT_data_member_location[DW_OP_plus_uconst 0x20]
    2195                            .dwattr $C$DW$213, DW_AT_accessibility(DW_ACCESS_public)
    2196                            .dwattr $C$DW$213, DW_AT_decl_file(".\..\packages\ti\vlib\src\VLIB_initUYVYint_to_LABpl_LUT\..
    2197                            .dwattr $C$DW$213, DW_AT_decl_line(0x73)
    2198                            .dwattr $C$DW$213, DW_AT_decl_column(0x0d)
    2199                            .dwendtag $C$DW$T$33
    2200                    
    2201                            .dwattr $C$DW$T$33, DW_AT_decl_file(".\..\packages\ti\vlib\src\VLIB_initUYVYint_to_LABpl_LUT\.
    2202                            .dwattr $C$DW$T$33, DW_AT_decl_line(0x68)
    2203                            .dwattr $C$DW$T$33, DW_AT_decl_column(0x10)
    2204                    $C$DW$T$53      .dwtag  DW_TAG_typedef, DW_AT_name("VLIB_CC")
    2205                            .dwattr $C$DW$T$53, DW_AT_type(*$C$DW$T$33)
    2206                            .dwattr $C$DW$T$53, DW_AT_language(DW_LANG_C)
    2207                            .dwattr $C$DW$T$53, DW_AT_decl_file(".\..\packages\ti\vlib\src\VLIB_initUYVYint_to_LABpl_LUT\.
    2208                            .dwattr $C$DW$T$53, DW_AT_decl_line(0x75)
    2209                            .dwattr $C$DW$T$53, DW_AT_decl_column(0x03)
    2210                    
    2211                    $C$DW$T$36      .dwtag  DW_TAG_structure_type
    2212                            .dwattr $C$DW$T$36, DW_AT_byte_size(0x10)
    2213                    $C$DW$214       .dwtag  DW_TAG_member
    2214                            .dwattr $C$DW$214, DW_AT_type(*$C$DW$T$8)
    2215                            .dwattr $C$DW$214, DW_AT_name("daylight")
    2216                            .dwattr $C$DW$214, DW_AT_TI_symbol_name("daylight")
    2217                            .dwattr $C$DW$214, DW_AT_data_member_location[DW_OP_plus_uconst 0x0]
    2218                            .dwattr $C$DW$214, DW_AT_accessibility(DW_ACCESS_public)
    2219                            .dwattr $C$DW$214, DW_AT_decl_file("C:/VLIB_Tools/CCSV5_4_0/ccsv5/tools/compiler/C6000/include
    2220                            .dwattr $C$DW$214, DW_AT_decl_line(0x52)
    2221                            .dwattr $C$DW$214, DW_AT_decl_column(0x0b)
    2222                    $C$DW$215       .dwtag  DW_TAG_member
    2223                            .dwattr $C$DW$215, DW_AT_type(*$C$DW$T$10)
    2224                            .dwattr $C$DW$215, DW_AT_name("timezone")
    2225                            .dwattr $C$DW$215, DW_AT_TI_symbol_name("timezone")
    2226                            .dwattr $C$DW$215, DW_AT_data_member_location[DW_OP_plus_uconst 0x4]
    2227                            .dwattr $C$DW$215, DW_AT_accessibility(DW_ACCESS_public)
TMS320C6x Assembler PC v7.4.2 Thu Mar 19 12:42:25 2015

Tools Copyright (c) 1996-2012 Texas Instruments Incorporated
package/lib/Regression/regress_d_c/./../packages/ti/vlib/src/VLIB_initUYVYint_to_LABpl_LUT/VLIB_initUYVYint_to_LABpl_LUT_d.se66 PAGE   47

    2228                            .dwattr $C$DW$215, DW_AT_decl_file("C:/VLIB_Tools/CCSV5_4_0/ccsv5/tools/compiler/C6000/include
    2229                            .dwattr $C$DW$215, DW_AT_decl_line(0x53)
    2230                            .dwattr $C$DW$215, DW_AT_decl_column(0x0b)
    2231                    $C$DW$216       .dwtag  DW_TAG_member
    2232                            .dwattr $C$DW$216, DW_AT_type(*$C$DW$T$35)
    2233                            .dwattr $C$DW$216, DW_AT_name("tzname")
    2234                            .dwattr $C$DW$216, DW_AT_TI_symbol_name("tzname")
    2235                            .dwattr $C$DW$216, DW_AT_data_member_location[DW_OP_plus_uconst 0x8]
    2236                            .dwattr $C$DW$216, DW_AT_accessibility(DW_ACCESS_public)
    2237                            .dwattr $C$DW$216, DW_AT_decl_file("C:/VLIB_Tools/CCSV5_4_0/ccsv5/tools/compiler/C6000/include
    2238                            .dwattr $C$DW$216, DW_AT_decl_line(0x54)
    2239                            .dwattr $C$DW$216, DW_AT_decl_column(0x0b)
    2240                    $C$DW$217       .dwtag  DW_TAG_member
    2241                            .dwattr $C$DW$217, DW_AT_type(*$C$DW$T$35)
    2242                            .dwattr $C$DW$217, DW_AT_name("dstname")
    2243                            .dwattr $C$DW$217, DW_AT_TI_symbol_name("dstname")
    2244                            .dwattr $C$DW$217, DW_AT_data_member_location[DW_OP_plus_uconst 0xc]
    2245                            .dwattr $C$DW$217, DW_AT_accessibility(DW_ACCESS_public)
    2246                            .dwattr $C$DW$217, DW_AT_decl_file("C:/VLIB_Tools/CCSV5_4_0/ccsv5/tools/compiler/C6000/include
    2247                            .dwattr $C$DW$217, DW_AT_decl_line(0x55)
    2248                            .dwattr $C$DW$217, DW_AT_decl_column(0x0b)
    2249                            .dwendtag $C$DW$T$36
    2250                    
    2251                            .dwattr $C$DW$T$36, DW_AT_decl_file("C:/VLIB_Tools/CCSV5_4_0/ccsv5/tools/compiler/C6000/includ
    2252                            .dwattr $C$DW$T$36, DW_AT_decl_line(0x51)
    2253                            .dwattr $C$DW$T$36, DW_AT_decl_column(0x01)
    2254                    $C$DW$T$54      .dwtag  DW_TAG_typedef, DW_AT_name("TZ")
    2255                            .dwattr $C$DW$T$54, DW_AT_type(*$C$DW$T$36)
    2256                            .dwattr $C$DW$T$54, DW_AT_language(DW_LANG_C)
    2257                            .dwattr $C$DW$T$54, DW_AT_decl_file("C:/VLIB_Tools/CCSV5_4_0/ccsv5/tools/compiler/C6000/includ
    2258                            .dwattr $C$DW$T$54, DW_AT_decl_line(0x56)
    2259                            .dwattr $C$DW$T$54, DW_AT_decl_column(0x03)
    2260                    $C$DW$T$2       .dwtag  DW_TAG_unspecified_type
    2261                            .dwattr $C$DW$T$2, DW_AT_name("void")
    2262                    $C$DW$T$3       .dwtag  DW_TAG_pointer_type
    2263                            .dwattr $C$DW$T$3, DW_AT_type(*$C$DW$T$2)
    2264                            .dwattr $C$DW$T$3, DW_AT_address_class(0x20)
    2265                    $C$DW$T$55      .dwtag  DW_TAG_typedef, DW_AT_name("VLIB_PTR")
    2266                            .dwattr $C$DW$T$55, DW_AT_type(*$C$DW$T$3)
    2267                            .dwattr $C$DW$T$55, DW_AT_language(DW_LANG_C)
    2268                            .dwattr $C$DW$T$55, DW_AT_decl_file(".\..\packages\ti\vlib\src\VLIB_initUYVYint_to_LABpl_LUT\.
    2269                            .dwattr $C$DW$T$55, DW_AT_decl_line(0x5c)
    2270                            .dwattr $C$DW$T$55, DW_AT_decl_column(0x19)
    2271                    $C$DW$T$4       .dwtag  DW_TAG_base_type
    2272                            .dwattr $C$DW$T$4, DW_AT_encoding(DW_ATE_boolean)
    2273                            .dwattr $C$DW$T$4, DW_AT_name("bool")
    2274                            .dwattr $C$DW$T$4, DW_AT_byte_size(0x01)
    2275                    $C$DW$T$5       .dwtag  DW_TAG_base_type
    2276                            .dwattr $C$DW$T$5, DW_AT_encoding(DW_ATE_signed_char)
    2277                            .dwattr $C$DW$T$5, DW_AT_name("signed char")
    2278                            .dwattr $C$DW$T$5, DW_AT_byte_size(0x01)
    2279                    $C$DW$T$82      .dwtag  DW_TAG_pointer_type
    2280                            .dwattr $C$DW$T$82, DW_AT_type(*$C$DW$T$5)
    2281                            .dwattr $C$DW$T$82, DW_AT_address_class(0x20)
    2282                    $C$DW$T$94      .dwtag  DW_TAG_typedef, DW_AT_name("int8_t")
TMS320C6x Assembler PC v7.4.2 Thu Mar 19 12:42:25 2015

Tools Copyright (c) 1996-2012 Texas Instruments Incorporated
package/lib/Regression/regress_d_c/./../packages/ti/vlib/src/VLIB_initUYVYint_to_LABpl_LUT/VLIB_initUYVYint_to_LABpl_LUT_d.se66 PAGE   48

    2283                            .dwattr $C$DW$T$94, DW_AT_type(*$C$DW$T$5)
    2284                            .dwattr $C$DW$T$94, DW_AT_language(DW_LANG_C)
    2285                            .dwattr $C$DW$T$94, DW_AT_decl_file("C:/VLIB_Tools/CCSV5_4_0/ccsv5/tools/compiler/C6000/includ
    2286                            .dwattr $C$DW$T$94, DW_AT_decl_line(0x2a)
    2287                            .dwattr $C$DW$T$94, DW_AT_decl_column(0x1d)
    2288                    $C$DW$T$95      .dwtag  DW_TAG_typedef, DW_AT_name("int_least8_t")
    2289                            .dwattr $C$DW$T$95, DW_AT_type(*$C$DW$T$94)
    2290                            .dwattr $C$DW$T$95, DW_AT_language(DW_LANG_C)
    2291                            .dwattr $C$DW$T$95, DW_AT_decl_file("C:/VLIB_Tools/CCSV5_4_0/ccsv5/tools/compiler/C6000/includ
    2292                            .dwattr $C$DW$T$95, DW_AT_decl_line(0x39)
    2293                            .dwattr $C$DW$T$95, DW_AT_decl_column(0x17)
    2294                    $C$DW$T$6       .dwtag  DW_TAG_base_type
    2295                            .dwattr $C$DW$T$6, DW_AT_encoding(DW_ATE_unsigned_char)
    2296                            .dwattr $C$DW$T$6, DW_AT_name("unsigned char")
    2297                            .dwattr $C$DW$T$6, DW_AT_byte_size(0x01)
    2298                    $C$DW$T$28      .dwtag  DW_TAG_pointer_type
    2299                            .dwattr $C$DW$T$28, DW_AT_type(*$C$DW$T$6)
    2300                            .dwattr $C$DW$T$28, DW_AT_address_class(0x20)
    2301                    $C$DW$T$19      .dwtag  DW_TAG_typedef, DW_AT_name("uint8_t")
    2302                            .dwattr $C$DW$T$19, DW_AT_type(*$C$DW$T$6)
    2303                            .dwattr $C$DW$T$19, DW_AT_language(DW_LANG_C)
    2304                            .dwattr $C$DW$T$19, DW_AT_decl_file("C:/VLIB_Tools/CCSV5_4_0/ccsv5/tools/compiler/C6000/includ
    2305                            .dwattr $C$DW$T$19, DW_AT_decl_line(0x2b)
    2306                            .dwattr $C$DW$T$19, DW_AT_decl_column(0x1c)
    2307                    $C$DW$T$96      .dwtag  DW_TAG_typedef, DW_AT_name("uint_least8_t")
    2308                            .dwattr $C$DW$T$96, DW_AT_type(*$C$DW$T$19)
    2309                            .dwattr $C$DW$T$96, DW_AT_language(DW_LANG_C)
    2310                            .dwattr $C$DW$T$96, DW_AT_decl_file("C:/VLIB_Tools/CCSV5_4_0/ccsv5/tools/compiler/C6000/includ
    2311                            .dwattr $C$DW$T$96, DW_AT_decl_line(0x3a)
    2312                            .dwattr $C$DW$T$96, DW_AT_decl_column(0x16)
    2313                    $C$DW$T$7       .dwtag  DW_TAG_base_type
    2314                            .dwattr $C$DW$T$7, DW_AT_encoding(DW_ATE_signed_char)
    2315                            .dwattr $C$DW$T$7, DW_AT_name("wchar_t")
    2316                            .dwattr $C$DW$T$7, DW_AT_byte_size(0x02)
    2317                    $C$DW$T$8       .dwtag  DW_TAG_base_type
    2318                            .dwattr $C$DW$T$8, DW_AT_encoding(DW_ATE_signed)
    2319                            .dwattr $C$DW$T$8, DW_AT_name("short")
    2320                            .dwattr $C$DW$T$8, DW_AT_byte_size(0x02)
    2321                    $C$DW$T$22      .dwtag  DW_TAG_typedef, DW_AT_name("int16_t")
    2322                            .dwattr $C$DW$T$22, DW_AT_type(*$C$DW$T$8)
    2323                            .dwattr $C$DW$T$22, DW_AT_language(DW_LANG_C)
    2324                            .dwattr $C$DW$T$22, DW_AT_decl_file("C:/VLIB_Tools/CCSV5_4_0/ccsv5/tools/compiler/C6000/includ
    2325                            .dwattr $C$DW$T$22, DW_AT_decl_line(0x2c)
    2326                            .dwattr $C$DW$T$22, DW_AT_decl_column(0x1d)
    2327                    $C$DW$T$23      .dwtag  DW_TAG_pointer_type
    2328                            .dwattr $C$DW$T$23, DW_AT_type(*$C$DW$T$22)
    2329                            .dwattr $C$DW$T$23, DW_AT_address_class(0x20)
    2330                    $C$DW$T$98      .dwtag  DW_TAG_const_type
    2331                            .dwattr $C$DW$T$98, DW_AT_type(*$C$DW$T$22)
    2332                    $C$DW$T$99      .dwtag  DW_TAG_pointer_type
    2333                            .dwattr $C$DW$T$99, DW_AT_type(*$C$DW$T$98)
    2334                            .dwattr $C$DW$T$99, DW_AT_address_class(0x20)
    2335                    $C$DW$T$100     .dwtag  DW_TAG_typedef, DW_AT_name("int_least16_t")
    2336                            .dwattr $C$DW$T$100, DW_AT_type(*$C$DW$T$22)
    2337                            .dwattr $C$DW$T$100, DW_AT_language(DW_LANG_C)
TMS320C6x Assembler PC v7.4.2 Thu Mar 19 12:42:25 2015

Tools Copyright (c) 1996-2012 Texas Instruments Incorporated
package/lib/Regression/regress_d_c/./../packages/ti/vlib/src/VLIB_initUYVYint_to_LABpl_LUT/VLIB_initUYVYint_to_LABpl_LUT_d.se66 PAGE   49

    2338                            .dwattr $C$DW$T$100, DW_AT_decl_file("C:/VLIB_Tools/CCSV5_4_0/ccsv5/tools/compiler/C6000/inclu
    2339                            .dwattr $C$DW$T$100, DW_AT_decl_line(0x3c)
    2340                            .dwattr $C$DW$T$100, DW_AT_decl_column(0x17)
    2341                    $C$DW$T$9       .dwtag  DW_TAG_base_type
    2342                            .dwattr $C$DW$T$9, DW_AT_encoding(DW_ATE_unsigned)
    2343                            .dwattr $C$DW$T$9, DW_AT_name("unsigned short")
    2344                            .dwattr $C$DW$T$9, DW_AT_byte_size(0x02)
    2345                    $C$DW$T$101     .dwtag  DW_TAG_pointer_type
    2346                            .dwattr $C$DW$T$101, DW_AT_type(*$C$DW$T$9)
    2347                            .dwattr $C$DW$T$101, DW_AT_address_class(0x20)
    2348                    $C$DW$T$20      .dwtag  DW_TAG_typedef, DW_AT_name("uint16_t")
    2349                            .dwattr $C$DW$T$20, DW_AT_type(*$C$DW$T$9)
    2350                            .dwattr $C$DW$T$20, DW_AT_language(DW_LANG_C)
    2351                            .dwattr $C$DW$T$20, DW_AT_decl_file("C:/VLIB_Tools/CCSV5_4_0/ccsv5/tools/compiler/C6000/includ
    2352                            .dwattr $C$DW$T$20, DW_AT_decl_line(0x2d)
    2353                            .dwattr $C$DW$T$20, DW_AT_decl_column(0x1c)
    2354                    $C$DW$T$21      .dwtag  DW_TAG_pointer_type
    2355                            .dwattr $C$DW$T$21, DW_AT_type(*$C$DW$T$20)
    2356                            .dwattr $C$DW$T$21, DW_AT_address_class(0x20)
    2357                    $C$DW$T$103     .dwtag  DW_TAG_typedef, DW_AT_name("uint_least16_t")
    2358                            .dwattr $C$DW$T$103, DW_AT_type(*$C$DW$T$20)
    2359                            .dwattr $C$DW$T$103, DW_AT_language(DW_LANG_C)
    2360                            .dwattr $C$DW$T$103, DW_AT_decl_file("C:/VLIB_Tools/CCSV5_4_0/ccsv5/tools/compiler/C6000/inclu
    2361                            .dwattr $C$DW$T$103, DW_AT_decl_line(0x3d)
    2362                            .dwattr $C$DW$T$103, DW_AT_decl_column(0x16)
    2363                    $C$DW$T$102     .dwtag  DW_TAG_typedef, DW_AT_name("wchar_t")
    2364                            .dwattr $C$DW$T$102, DW_AT_type(*$C$DW$T$9)
    2365                            .dwattr $C$DW$T$102, DW_AT_language(DW_LANG_C)
    2366                            .dwattr $C$DW$T$102, DW_AT_decl_file("C:/VLIB_Tools/CCSV5_4_0/ccsv5/tools/compiler/C6000/inclu
    2367                            .dwattr $C$DW$T$102, DW_AT_decl_line(0x53)
    2368                            .dwattr $C$DW$T$102, DW_AT_decl_column(0x1a)
    2369                    $C$DW$T$10      .dwtag  DW_TAG_base_type
    2370                            .dwattr $C$DW$T$10, DW_AT_encoding(DW_ATE_signed)
    2371                            .dwattr $C$DW$T$10, DW_AT_name("int")
    2372                            .dwattr $C$DW$T$10, DW_AT_byte_size(0x04)
    2373                    $C$DW$T$128     .dwtag  DW_TAG_typedef, DW_AT_name("fpos_t")
    2374                            .dwattr $C$DW$T$128, DW_AT_type(*$C$DW$T$10)
    2375                            .dwattr $C$DW$T$128, DW_AT_language(DW_LANG_C)
    2376                            .dwattr $C$DW$T$128, DW_AT_decl_file("C:/VLIB_Tools/CCSV5_4_0/ccsv5/tools/compiler/C6000/inclu
    2377                            .dwattr $C$DW$T$128, DW_AT_decl_line(0x53)
    2378                            .dwattr $C$DW$T$128, DW_AT_decl_column(0x0d)
    2379                    $C$DW$T$26      .dwtag  DW_TAG_typedef, DW_AT_name("int32_t")
    2380                            .dwattr $C$DW$T$26, DW_AT_type(*$C$DW$T$10)
    2381                            .dwattr $C$DW$T$26, DW_AT_language(DW_LANG_C)
    2382                            .dwattr $C$DW$T$26, DW_AT_decl_file("C:/VLIB_Tools/CCSV5_4_0/ccsv5/tools/compiler/C6000/includ
    2383                            .dwattr $C$DW$T$26, DW_AT_decl_line(0x2e)
    2384                            .dwattr $C$DW$T$26, DW_AT_decl_column(0x1d)
    2385                    $C$DW$T$120     .dwtag  DW_TAG_typedef, DW_AT_name("VLIB_CCHandle")
    2386                            .dwattr $C$DW$T$120, DW_AT_type(*$C$DW$T$26)
    2387                            .dwattr $C$DW$T$120, DW_AT_language(DW_LANG_C)
    2388                            .dwattr $C$DW$T$120, DW_AT_decl_file(".\..\packages\ti\vlib\src\VLIB_initUYVYint_to_LABpl_LUT\
    2389                            .dwattr $C$DW$T$120, DW_AT_decl_line(0x77)
    2390                            .dwattr $C$DW$T$120, DW_AT_decl_column(0x11)
    2391                    
    2392                    $C$DW$T$37      .dwtag  DW_TAG_array_type
TMS320C6x Assembler PC v7.4.2 Thu Mar 19 12:42:25 2015

Tools Copyright (c) 1996-2012 Texas Instruments Incorporated
package/lib/Regression/regress_d_c/./../packages/ti/vlib/src/VLIB_initUYVYint_to_LABpl_LUT/VLIB_initUYVYint_to_LABpl_LUT_d.se66 PAGE   50

    2393                            .dwattr $C$DW$T$37, DW_AT_type(*$C$DW$T$26)
    2394                            .dwattr $C$DW$T$37, DW_AT_language(DW_LANG_C)
    2395                            .dwattr $C$DW$T$37, DW_AT_byte_size(0x10)
    2396                    $C$DW$218       .dwtag  DW_TAG_subrange_type
    2397                            .dwattr $C$DW$218, DW_AT_upper_bound(0x03)
    2398                            .dwendtag $C$DW$T$37
    2399                    
    2400                    $C$DW$T$78      .dwtag  DW_TAG_pointer_type
    2401                            .dwattr $C$DW$T$78, DW_AT_type(*$C$DW$T$26)
    2402                            .dwattr $C$DW$T$78, DW_AT_address_class(0x20)
    2403                    $C$DW$T$114     .dwtag  DW_TAG_const_type
    2404                            .dwattr $C$DW$T$114, DW_AT_type(*$C$DW$T$26)
    2405                    $C$DW$T$123     .dwtag  DW_TAG_typedef, DW_AT_name("int_fast16_t")
    2406                            .dwattr $C$DW$T$123, DW_AT_type(*$C$DW$T$26)
    2407                            .dwattr $C$DW$T$123, DW_AT_language(DW_LANG_C)
    2408                            .dwattr $C$DW$T$123, DW_AT_decl_file("C:/VLIB_Tools/CCSV5_4_0/ccsv5/tools/compiler/C6000/inclu
    2409                            .dwattr $C$DW$T$123, DW_AT_decl_line(0x4b)
    2410                            .dwattr $C$DW$T$123, DW_AT_decl_column(0x17)
    2411                    $C$DW$T$124     .dwtag  DW_TAG_typedef, DW_AT_name("int_fast32_t")
    2412                            .dwattr $C$DW$T$124, DW_AT_type(*$C$DW$T$26)
    2413                            .dwattr $C$DW$T$124, DW_AT_language(DW_LANG_C)
    2414                            .dwattr $C$DW$T$124, DW_AT_decl_file("C:/VLIB_Tools/CCSV5_4_0/ccsv5/tools/compiler/C6000/inclu
    2415                            .dwattr $C$DW$T$124, DW_AT_decl_line(0x4e)
    2416                            .dwattr $C$DW$T$124, DW_AT_decl_column(0x17)
    2417                    $C$DW$T$125     .dwtag  DW_TAG_typedef, DW_AT_name("int_fast8_t")
    2418                            .dwattr $C$DW$T$125, DW_AT_type(*$C$DW$T$26)
    2419                            .dwattr $C$DW$T$125, DW_AT_language(DW_LANG_C)
    2420                            .dwattr $C$DW$T$125, DW_AT_decl_file("C:/VLIB_Tools/CCSV5_4_0/ccsv5/tools/compiler/C6000/inclu
    2421                            .dwattr $C$DW$T$125, DW_AT_decl_line(0x49)
    2422                            .dwattr $C$DW$T$125, DW_AT_decl_column(0x17)
    2423                    $C$DW$T$126     .dwtag  DW_TAG_typedef, DW_AT_name("int_least32_t")
    2424                            .dwattr $C$DW$T$126, DW_AT_type(*$C$DW$T$26)
    2425                            .dwattr $C$DW$T$126, DW_AT_language(DW_LANG_C)
    2426                            .dwattr $C$DW$T$126, DW_AT_decl_file("C:/VLIB_Tools/CCSV5_4_0/ccsv5/tools/compiler/C6000/inclu
    2427                            .dwattr $C$DW$T$126, DW_AT_decl_line(0x3e)
    2428                            .dwattr $C$DW$T$126, DW_AT_decl_column(0x17)
    2429                    $C$DW$T$127     .dwtag  DW_TAG_typedef, DW_AT_name("intptr_t")
    2430                            .dwattr $C$DW$T$127, DW_AT_type(*$C$DW$T$10)
    2431                            .dwattr $C$DW$T$127, DW_AT_language(DW_LANG_C)
    2432                            .dwattr $C$DW$T$127, DW_AT_decl_file("C:/VLIB_Tools/CCSV5_4_0/ccsv5/tools/compiler/C6000/inclu
    2433                            .dwattr $C$DW$T$127, DW_AT_decl_line(0x58)
    2434                            .dwattr $C$DW$T$127, DW_AT_decl_column(0x1a)
    2435                    $C$DW$T$11      .dwtag  DW_TAG_base_type
    2436                            .dwattr $C$DW$T$11, DW_AT_encoding(DW_ATE_unsigned)
    2437                            .dwattr $C$DW$T$11, DW_AT_name("unsigned int")
    2438                            .dwattr $C$DW$T$11, DW_AT_byte_size(0x04)
    2439                    $C$DW$T$129     .dwtag  DW_TAG_typedef, DW_AT_name("VLIB_VAL")
    2440                            .dwattr $C$DW$T$129, DW_AT_type(*$C$DW$T$11)
    2441                            .dwattr $C$DW$T$129, DW_AT_language(DW_LANG_C)
    2442                            .dwattr $C$DW$T$129, DW_AT_decl_file(".\..\packages\ti\vlib\src\VLIB_initUYVYint_to_LABpl_LUT\
    2443                            .dwattr $C$DW$T$129, DW_AT_decl_line(0x5d)
    2444                            .dwattr $C$DW$T$129, DW_AT_decl_column(0x17)
    2445                    $C$DW$T$140     .dwtag  DW_TAG_typedef, DW_AT_name("clock_t")
    2446                            .dwattr $C$DW$T$140, DW_AT_type(*$C$DW$T$11)
    2447                            .dwattr $C$DW$T$140, DW_AT_language(DW_LANG_C)
TMS320C6x Assembler PC v7.4.2 Thu Mar 19 12:42:25 2015

Tools Copyright (c) 1996-2012 Texas Instruments Incorporated
package/lib/Regression/regress_d_c/./../packages/ti/vlib/src/VLIB_initUYVYint_to_LABpl_LUT/VLIB_initUYVYint_to_LABpl_LUT_d.se66 PAGE   51

    2448                            .dwattr $C$DW$T$140, DW_AT_decl_file("C:/VLIB_Tools/CCSV5_4_0/ccsv5/tools/compiler/C6000/inclu
    2449                            .dwattr $C$DW$T$140, DW_AT_decl_line(0x37)
    2450                            .dwattr $C$DW$T$140, DW_AT_decl_column(0x16)
    2451                    $C$DW$T$56      .dwtag  DW_TAG_typedef, DW_AT_name("size_t")
    2452                            .dwattr $C$DW$T$56, DW_AT_type(*$C$DW$T$11)
    2453                            .dwattr $C$DW$T$56, DW_AT_language(DW_LANG_C)
    2454                            .dwattr $C$DW$T$56, DW_AT_decl_file("C:/VLIB_Tools/CCSV5_4_0/ccsv5/tools/compiler/C6000/includ
    2455                            .dwattr $C$DW$T$56, DW_AT_decl_line(0x45)
    2456                            .dwattr $C$DW$T$56, DW_AT_decl_column(0x19)
    2457                    $C$DW$T$133     .dwtag  DW_TAG_typedef, DW_AT_name("time_t")
    2458                            .dwattr $C$DW$T$133, DW_AT_type(*$C$DW$T$11)
    2459                            .dwattr $C$DW$T$133, DW_AT_language(DW_LANG_C)
    2460                            .dwattr $C$DW$T$133, DW_AT_decl_file("C:/VLIB_Tools/CCSV5_4_0/ccsv5/tools/compiler/C6000/inclu
    2461                            .dwattr $C$DW$T$133, DW_AT_decl_line(0x38)
    2462                            .dwattr $C$DW$T$133, DW_AT_decl_column(0x16)
    2463                    $C$DW$T$70      .dwtag  DW_TAG_typedef, DW_AT_name("uint32_t")
    2464                            .dwattr $C$DW$T$70, DW_AT_type(*$C$DW$T$11)
    2465                            .dwattr $C$DW$T$70, DW_AT_language(DW_LANG_C)
    2466                            .dwattr $C$DW$T$70, DW_AT_decl_file("C:/VLIB_Tools/CCSV5_4_0/ccsv5/tools/compiler/C6000/includ
    2467                            .dwattr $C$DW$T$70, DW_AT_decl_line(0x2f)
    2468                            .dwattr $C$DW$T$70, DW_AT_decl_column(0x1c)
    2469                    $C$DW$T$135     .dwtag  DW_TAG_typedef, DW_AT_name("uint_fast16_t")
    2470                            .dwattr $C$DW$T$135, DW_AT_type(*$C$DW$T$70)
    2471                            .dwattr $C$DW$T$135, DW_AT_language(DW_LANG_C)
    2472                            .dwattr $C$DW$T$135, DW_AT_decl_file("C:/VLIB_Tools/CCSV5_4_0/ccsv5/tools/compiler/C6000/inclu
    2473                            .dwattr $C$DW$T$135, DW_AT_decl_line(0x4c)
    2474                            .dwattr $C$DW$T$135, DW_AT_decl_column(0x16)
    2475                    $C$DW$T$136     .dwtag  DW_TAG_typedef, DW_AT_name("uint_fast32_t")
    2476                            .dwattr $C$DW$T$136, DW_AT_type(*$C$DW$T$70)
    2477                            .dwattr $C$DW$T$136, DW_AT_language(DW_LANG_C)
    2478                            .dwattr $C$DW$T$136, DW_AT_decl_file("C:/VLIB_Tools/CCSV5_4_0/ccsv5/tools/compiler/C6000/inclu
    2479                            .dwattr $C$DW$T$136, DW_AT_decl_line(0x4f)
    2480                            .dwattr $C$DW$T$136, DW_AT_decl_column(0x16)
    2481                    $C$DW$T$137     .dwtag  DW_TAG_typedef, DW_AT_name("uint_fast8_t")
    2482                            .dwattr $C$DW$T$137, DW_AT_type(*$C$DW$T$70)
    2483                            .dwattr $C$DW$T$137, DW_AT_language(DW_LANG_C)
    2484                            .dwattr $C$DW$T$137, DW_AT_decl_file("C:/VLIB_Tools/CCSV5_4_0/ccsv5/tools/compiler/C6000/inclu
    2485                            .dwattr $C$DW$T$137, DW_AT_decl_line(0x4a)
    2486                            .dwattr $C$DW$T$137, DW_AT_decl_column(0x16)
    2487                    $C$DW$T$138     .dwtag  DW_TAG_typedef, DW_AT_name("uint_least32_t")
    2488                            .dwattr $C$DW$T$138, DW_AT_type(*$C$DW$T$70)
    2489                            .dwattr $C$DW$T$138, DW_AT_language(DW_LANG_C)
    2490                            .dwattr $C$DW$T$138, DW_AT_decl_file("C:/VLIB_Tools/CCSV5_4_0/ccsv5/tools/compiler/C6000/inclu
    2491                            .dwattr $C$DW$T$138, DW_AT_decl_line(0x3f)
    2492                            .dwattr $C$DW$T$138, DW_AT_decl_column(0x16)
    2493                    $C$DW$T$139     .dwtag  DW_TAG_typedef, DW_AT_name("uintptr_t")
    2494                            .dwattr $C$DW$T$139, DW_AT_type(*$C$DW$T$11)
    2495                            .dwattr $C$DW$T$139, DW_AT_language(DW_LANG_C)
    2496                            .dwattr $C$DW$T$139, DW_AT_decl_file("C:/VLIB_Tools/CCSV5_4_0/ccsv5/tools/compiler/C6000/inclu
    2497                            .dwattr $C$DW$T$139, DW_AT_decl_line(0x59)
    2498                            .dwattr $C$DW$T$139, DW_AT_decl_column(0x1a)
    2499                    $C$DW$T$12      .dwtag  DW_TAG_base_type
    2500                            .dwattr $C$DW$T$12, DW_AT_encoding(DW_ATE_signed)
    2501                            .dwattr $C$DW$T$12, DW_AT_name("__int40_t")
    2502                            .dwattr $C$DW$T$12, DW_AT_byte_size(0x08)
TMS320C6x Assembler PC v7.4.2 Thu Mar 19 12:42:25 2015

Tools Copyright (c) 1996-2012 Texas Instruments Incorporated
package/lib/Regression/regress_d_c/./../packages/ti/vlib/src/VLIB_initUYVYint_to_LABpl_LUT/VLIB_initUYVYint_to_LABpl_LUT_d.se66 PAGE   52

    2503                            .dwattr $C$DW$T$12, DW_AT_bit_size(0x28)
    2504                            .dwattr $C$DW$T$12, DW_AT_bit_offset(0x18)
    2505                    $C$DW$T$141     .dwtag  DW_TAG_typedef, DW_AT_name("int40_t")
    2506                            .dwattr $C$DW$T$141, DW_AT_type(*$C$DW$T$12)
    2507                            .dwattr $C$DW$T$141, DW_AT_language(DW_LANG_C)
    2508                            .dwattr $C$DW$T$141, DW_AT_decl_file("C:/VLIB_Tools/CCSV5_4_0/ccsv5/tools/compiler/C6000/inclu
    2509                            .dwattr $C$DW$T$141, DW_AT_decl_line(0x31)
    2510                            .dwattr $C$DW$T$141, DW_AT_decl_column(0x21)
    2511                    $C$DW$T$142     .dwtag  DW_TAG_typedef, DW_AT_name("int_fast40_t")
    2512                            .dwattr $C$DW$T$142, DW_AT_type(*$C$DW$T$141)
    2513                            .dwattr $C$DW$T$142, DW_AT_language(DW_LANG_C)
    2514                            .dwattr $C$DW$T$142, DW_AT_decl_file("C:/VLIB_Tools/CCSV5_4_0/ccsv5/tools/compiler/C6000/inclu
    2515                            .dwattr $C$DW$T$142, DW_AT_decl_line(0x51)
    2516                            .dwattr $C$DW$T$142, DW_AT_decl_column(0x17)
    2517                    $C$DW$T$143     .dwtag  DW_TAG_typedef, DW_AT_name("int_least40_t")
    2518                            .dwattr $C$DW$T$143, DW_AT_type(*$C$DW$T$141)
    2519                            .dwattr $C$DW$T$143, DW_AT_language(DW_LANG_C)
    2520                            .dwattr $C$DW$T$143, DW_AT_decl_file("C:/VLIB_Tools/CCSV5_4_0/ccsv5/tools/compiler/C6000/inclu
    2521                            .dwattr $C$DW$T$143, DW_AT_decl_line(0x41)
    2522                            .dwattr $C$DW$T$143, DW_AT_decl_column(0x17)
    2523                    $C$DW$T$13      .dwtag  DW_TAG_base_type
    2524                            .dwattr $C$DW$T$13, DW_AT_encoding(DW_ATE_unsigned)
    2525                            .dwattr $C$DW$T$13, DW_AT_name("unsigned __int40_t")
    2526                            .dwattr $C$DW$T$13, DW_AT_byte_size(0x08)
    2527                            .dwattr $C$DW$T$13, DW_AT_bit_size(0x28)
    2528                            .dwattr $C$DW$T$13, DW_AT_bit_offset(0x18)
    2529                    $C$DW$T$144     .dwtag  DW_TAG_typedef, DW_AT_name("uint40_t")
    2530                            .dwattr $C$DW$T$144, DW_AT_type(*$C$DW$T$13)
    2531                            .dwattr $C$DW$T$144, DW_AT_language(DW_LANG_C)
    2532                            .dwattr $C$DW$T$144, DW_AT_decl_file("C:/VLIB_Tools/CCSV5_4_0/ccsv5/tools/compiler/C6000/inclu
    2533                            .dwattr $C$DW$T$144, DW_AT_decl_line(0x32)
    2534                            .dwattr $C$DW$T$144, DW_AT_decl_column(0x20)
    2535                    $C$DW$T$145     .dwtag  DW_TAG_typedef, DW_AT_name("uint_fast40_t")
    2536                            .dwattr $C$DW$T$145, DW_AT_type(*$C$DW$T$144)
    2537                            .dwattr $C$DW$T$145, DW_AT_language(DW_LANG_C)
    2538                            .dwattr $C$DW$T$145, DW_AT_decl_file("C:/VLIB_Tools/CCSV5_4_0/ccsv5/tools/compiler/C6000/inclu
    2539                            .dwattr $C$DW$T$145, DW_AT_decl_line(0x52)
    2540                            .dwattr $C$DW$T$145, DW_AT_decl_column(0x16)
    2541                    $C$DW$T$146     .dwtag  DW_TAG_typedef, DW_AT_name("uint_least40_t")
    2542                            .dwattr $C$DW$T$146, DW_AT_type(*$C$DW$T$144)
    2543                            .dwattr $C$DW$T$146, DW_AT_language(DW_LANG_C)
    2544                            .dwattr $C$DW$T$146, DW_AT_decl_file("C:/VLIB_Tools/CCSV5_4_0/ccsv5/tools/compiler/C6000/inclu
    2545                            .dwattr $C$DW$T$146, DW_AT_decl_line(0x42)
    2546                            .dwattr $C$DW$T$146, DW_AT_decl_column(0x16)
    2547                    $C$DW$T$14      .dwtag  DW_TAG_base_type
    2548                            .dwattr $C$DW$T$14, DW_AT_encoding(DW_ATE_signed)
    2549                            .dwattr $C$DW$T$14, DW_AT_name("long long")
    2550                            .dwattr $C$DW$T$14, DW_AT_byte_size(0x08)
    2551                    $C$DW$T$148     .dwtag  DW_TAG_typedef, DW_AT_name("int64_t")
    2552                            .dwattr $C$DW$T$148, DW_AT_type(*$C$DW$T$14)
    2553                            .dwattr $C$DW$T$148, DW_AT_language(DW_LANG_C)
    2554                            .dwattr $C$DW$T$148, DW_AT_decl_file("C:/VLIB_Tools/CCSV5_4_0/ccsv5/tools/compiler/C6000/inclu
    2555                            .dwattr $C$DW$T$148, DW_AT_decl_line(0x34)
    2556                            .dwattr $C$DW$T$148, DW_AT_decl_column(0x21)
    2557                    $C$DW$T$149     .dwtag  DW_TAG_typedef, DW_AT_name("int_fast64_t")
TMS320C6x Assembler PC v7.4.2 Thu Mar 19 12:42:25 2015

Tools Copyright (c) 1996-2012 Texas Instruments Incorporated
package/lib/Regression/regress_d_c/./../packages/ti/vlib/src/VLIB_initUYVYint_to_LABpl_LUT/VLIB_initUYVYint_to_LABpl_LUT_d.se66 PAGE   53

    2558                            .dwattr $C$DW$T$149, DW_AT_type(*$C$DW$T$148)
    2559                            .dwattr $C$DW$T$149, DW_AT_language(DW_LANG_C)
    2560                            .dwattr $C$DW$T$149, DW_AT_decl_file("C:/VLIB_Tools/CCSV5_4_0/ccsv5/tools/compiler/C6000/inclu
    2561                            .dwattr $C$DW$T$149, DW_AT_decl_line(0x54)
    2562                            .dwattr $C$DW$T$149, DW_AT_decl_column(0x17)
    2563                    $C$DW$T$150     .dwtag  DW_TAG_typedef, DW_AT_name("int_least64_t")
    2564                            .dwattr $C$DW$T$150, DW_AT_type(*$C$DW$T$148)
    2565                            .dwattr $C$DW$T$150, DW_AT_language(DW_LANG_C)
    2566                            .dwattr $C$DW$T$150, DW_AT_decl_file("C:/VLIB_Tools/CCSV5_4_0/ccsv5/tools/compiler/C6000/inclu
    2567                            .dwattr $C$DW$T$150, DW_AT_decl_line(0x44)
    2568                            .dwattr $C$DW$T$150, DW_AT_decl_column(0x17)
    2569                    $C$DW$T$151     .dwtag  DW_TAG_typedef, DW_AT_name("intmax_t")
    2570                            .dwattr $C$DW$T$151, DW_AT_type(*$C$DW$T$14)
    2571                            .dwattr $C$DW$T$151, DW_AT_language(DW_LANG_C)
    2572                            .dwattr $C$DW$T$151, DW_AT_decl_file("C:/VLIB_Tools/CCSV5_4_0/ccsv5/tools/compiler/C6000/inclu
    2573                            .dwattr $C$DW$T$151, DW_AT_decl_line(0x5c)
    2574                            .dwattr $C$DW$T$151, DW_AT_decl_column(0x20)
    2575                    $C$DW$T$15      .dwtag  DW_TAG_base_type
    2576                            .dwattr $C$DW$T$15, DW_AT_encoding(DW_ATE_unsigned)
    2577                            .dwattr $C$DW$T$15, DW_AT_name("unsigned long long")
    2578                            .dwattr $C$DW$T$15, DW_AT_byte_size(0x08)
    2579                    $C$DW$T$153     .dwtag  DW_TAG_pointer_type
    2580                            .dwattr $C$DW$T$153, DW_AT_type(*$C$DW$T$15)
    2581                            .dwattr $C$DW$T$153, DW_AT_address_class(0x20)
    2582                    $C$DW$T$154     .dwtag  DW_TAG_typedef, DW_AT_name("uint64_t")
    2583                            .dwattr $C$DW$T$154, DW_AT_type(*$C$DW$T$15)
    2584                            .dwattr $C$DW$T$154, DW_AT_language(DW_LANG_C)
    2585                            .dwattr $C$DW$T$154, DW_AT_decl_file("C:/VLIB_Tools/CCSV5_4_0/ccsv5/tools/compiler/C6000/inclu
    2586                            .dwattr $C$DW$T$154, DW_AT_decl_line(0x35)
    2587                            .dwattr $C$DW$T$154, DW_AT_decl_column(0x20)
    2588                    
    2589                    $C$DW$T$155     .dwtag  DW_TAG_array_type
    2590                            .dwattr $C$DW$T$155, DW_AT_type(*$C$DW$T$154)
    2591                            .dwattr $C$DW$T$155, DW_AT_language(DW_LANG_C)
    2592                            .dwattr $C$DW$T$155, DW_AT_byte_size(0x10)
    2593                    $C$DW$219       .dwtag  DW_TAG_subrange_type
    2594                            .dwattr $C$DW$219, DW_AT_upper_bound(0x01)
    2595                            .dwendtag $C$DW$T$155
    2596                    
    2597                    $C$DW$T$156     .dwtag  DW_TAG_typedef, DW_AT_name("uint_fast64_t")
    2598                            .dwattr $C$DW$T$156, DW_AT_type(*$C$DW$T$154)
    2599                            .dwattr $C$DW$T$156, DW_AT_language(DW_LANG_C)
    2600                            .dwattr $C$DW$T$156, DW_AT_decl_file("C:/VLIB_Tools/CCSV5_4_0/ccsv5/tools/compiler/C6000/inclu
    2601                            .dwattr $C$DW$T$156, DW_AT_decl_line(0x55)
    2602                            .dwattr $C$DW$T$156, DW_AT_decl_column(0x16)
    2603                    $C$DW$T$157     .dwtag  DW_TAG_typedef, DW_AT_name("uint_least64_t")
    2604                            .dwattr $C$DW$T$157, DW_AT_type(*$C$DW$T$154)
    2605                            .dwattr $C$DW$T$157, DW_AT_language(DW_LANG_C)
    2606                            .dwattr $C$DW$T$157, DW_AT_decl_file("C:/VLIB_Tools/CCSV5_4_0/ccsv5/tools/compiler/C6000/inclu
    2607                            .dwattr $C$DW$T$157, DW_AT_decl_line(0x45)
    2608                            .dwattr $C$DW$T$157, DW_AT_decl_column(0x16)
    2609                    $C$DW$T$158     .dwtag  DW_TAG_typedef, DW_AT_name("uintmax_t")
    2610                            .dwattr $C$DW$T$158, DW_AT_type(*$C$DW$T$15)
    2611                            .dwattr $C$DW$T$158, DW_AT_language(DW_LANG_C)
    2612                            .dwattr $C$DW$T$158, DW_AT_decl_file("C:/VLIB_Tools/CCSV5_4_0/ccsv5/tools/compiler/C6000/inclu
TMS320C6x Assembler PC v7.4.2 Thu Mar 19 12:42:25 2015

Tools Copyright (c) 1996-2012 Texas Instruments Incorporated
package/lib/Regression/regress_d_c/./../packages/ti/vlib/src/VLIB_initUYVYint_to_LABpl_LUT/VLIB_initUYVYint_to_LABpl_LUT_d.se66 PAGE   54

    2613                            .dwattr $C$DW$T$158, DW_AT_decl_line(0x5d)
    2614                            .dwattr $C$DW$T$158, DW_AT_decl_column(0x20)
    2615                    $C$DW$T$16      .dwtag  DW_TAG_base_type
    2616                            .dwattr $C$DW$T$16, DW_AT_encoding(DW_ATE_float)
    2617                            .dwattr $C$DW$T$16, DW_AT_name("float")
    2618                            .dwattr $C$DW$T$16, DW_AT_byte_size(0x04)
    2619                    $C$DW$T$24      .dwtag  DW_TAG_typedef, DW_AT_name("VLIB_F32")
    2620                            .dwattr $C$DW$T$24, DW_AT_type(*$C$DW$T$16)
    2621                            .dwattr $C$DW$T$24, DW_AT_language(DW_LANG_C)
    2622                            .dwattr $C$DW$T$24, DW_AT_decl_file(".\..\packages\ti\vlib\src\VLIB_initUYVYint_to_LABpl_LUT\.
    2623                            .dwattr $C$DW$T$24, DW_AT_decl_line(0x5b)
    2624                            .dwattr $C$DW$T$24, DW_AT_decl_column(0x0f)
    2625                    $C$DW$T$115     .dwtag  DW_TAG_const_type
    2626                            .dwattr $C$DW$T$115, DW_AT_type(*$C$DW$T$24)
    2627                    $C$DW$T$116     .dwtag  DW_TAG_pointer_type
    2628                            .dwattr $C$DW$T$116, DW_AT_type(*$C$DW$T$115)
    2629                            .dwattr $C$DW$T$116, DW_AT_address_class(0x20)
    2630                    $C$DW$T$25      .dwtag  DW_TAG_pointer_type
    2631                            .dwattr $C$DW$T$25, DW_AT_type(*$C$DW$T$24)
    2632                            .dwattr $C$DW$T$25, DW_AT_address_class(0x20)
    2633                    $C$DW$T$160     .dwtag  DW_TAG_typedef, DW_AT_name("float32_t")
    2634                            .dwattr $C$DW$T$160, DW_AT_type(*$C$DW$T$16)
    2635                            .dwattr $C$DW$T$160, DW_AT_language(DW_LANG_C)
    2636                            .dwattr $C$DW$T$160, DW_AT_decl_file("C:\VLIB_Tools\CCSV5_4_0\ccsv5\tools\compiler\C6000\inclu
    2637                            .dwattr $C$DW$T$160, DW_AT_decl_line(0x30)
    2638                            .dwattr $C$DW$T$160, DW_AT_decl_column(0x0f)
    2639                    $C$DW$T$17      .dwtag  DW_TAG_base_type
    2640                            .dwattr $C$DW$T$17, DW_AT_encoding(DW_ATE_float)
    2641                            .dwattr $C$DW$T$17, DW_AT_name("double")
    2642                            .dwattr $C$DW$T$17, DW_AT_byte_size(0x08)
    2643                    $C$DW$T$161     .dwtag  DW_TAG_typedef, DW_AT_name("VLIB_D64")
    2644                            .dwattr $C$DW$T$161, DW_AT_type(*$C$DW$T$17)
    2645                            .dwattr $C$DW$T$161, DW_AT_language(DW_LANG_C)
    2646                            .dwattr $C$DW$T$161, DW_AT_decl_file(".\..\packages\ti\vlib\src\VLIB_initUYVYint_to_LABpl_LUT\
    2647                            .dwattr $C$DW$T$161, DW_AT_decl_line(0x5a)
    2648                            .dwattr $C$DW$T$161, DW_AT_decl_column(0x10)
    2649                    $C$DW$T$162     .dwtag  DW_TAG_typedef, DW_AT_name("__float2_t")
    2650                            .dwattr $C$DW$T$162, DW_AT_type(*$C$DW$T$17)
    2651                            .dwattr $C$DW$T$162, DW_AT_language(DW_LANG_C)
    2652                            .dwattr $C$DW$T$162, DW_AT_decl_file("C:/VLIB_Tools/CCSV5_4_0/ccsv5/tools/compiler/C6000/inclu
    2653                            .dwattr $C$DW$T$162, DW_AT_decl_line(0x5f)
    2654                            .dwattr $C$DW$T$162, DW_AT_decl_column(0x14)
    2655                    $C$DW$T$18      .dwtag  DW_TAG_base_type
    2656                            .dwattr $C$DW$T$18, DW_AT_encoding(DW_ATE_float)
    2657                            .dwattr $C$DW$T$18, DW_AT_name("long double")
    2658                            .dwattr $C$DW$T$18, DW_AT_byte_size(0x08)
    2659                    $C$DW$T$34      .dwtag  DW_TAG_base_type
    2660                            .dwattr $C$DW$T$34, DW_AT_encoding(DW_ATE_signed_char)
    2661                            .dwattr $C$DW$T$34, DW_AT_name("signed char")
    2662                            .dwattr $C$DW$T$34, DW_AT_byte_size(0x01)
    2663                    
    2664                    $C$DW$T$35      .dwtag  DW_TAG_array_type
    2665                            .dwattr $C$DW$T$35, DW_AT_type(*$C$DW$T$34)
    2666                            .dwattr $C$DW$T$35, DW_AT_language(DW_LANG_C)
    2667                            .dwattr $C$DW$T$35, DW_AT_byte_size(0x04)
TMS320C6x Assembler PC v7.4.2 Thu Mar 19 12:42:25 2015

Tools Copyright (c) 1996-2012 Texas Instruments Incorporated
package/lib/Regression/regress_d_c/./../packages/ti/vlib/src/VLIB_initUYVYint_to_LABpl_LUT/VLIB_initUYVYint_to_LABpl_LUT_d.se66 PAGE   55

    2668                    $C$DW$220       .dwtag  DW_TAG_subrange_type
    2669                            .dwattr $C$DW$220, DW_AT_upper_bound(0x03)
    2670                            .dwendtag $C$DW$T$35
    2671                    
    2672                    $C$DW$T$61      .dwtag  DW_TAG_pointer_type
    2673                            .dwattr $C$DW$T$61, DW_AT_type(*$C$DW$T$34)
    2674                            .dwattr $C$DW$T$61, DW_AT_address_class(0x20)
    2675                    $C$DW$T$163     .dwtag  DW_TAG_typedef, DW_AT_name("va_list")
    2676                            .dwattr $C$DW$T$163, DW_AT_type(*$C$DW$T$61)
    2677                            .dwattr $C$DW$T$163, DW_AT_language(DW_LANG_C)
    2678                            .dwattr $C$DW$T$163, DW_AT_decl_file("C:/VLIB_Tools/CCSV5_4_0/ccsv5/tools/compiler/C6000/inclu
    2679                            .dwattr $C$DW$T$163, DW_AT_decl_line(0x2f)
    2680                            .dwattr $C$DW$T$163, DW_AT_decl_column(0x12)
    2681                    $C$DW$T$104     .dwtag  DW_TAG_const_type
    2682                            .dwattr $C$DW$T$104, DW_AT_type(*$C$DW$T$34)
    2683                    $C$DW$T$105     .dwtag  DW_TAG_pointer_type
    2684                            .dwattr $C$DW$T$105, DW_AT_type(*$C$DW$T$104)
    2685                            .dwattr $C$DW$T$105, DW_AT_address_class(0x20)
    2686                    
    2687                    $C$DW$T$164     .dwtag  DW_TAG_array_type
    2688                            .dwattr $C$DW$T$164, DW_AT_type(*$C$DW$T$34)
    2689                            .dwattr $C$DW$T$164, DW_AT_language(DW_LANG_C)
    2690                    $C$DW$221       .dwtag  DW_TAG_subrange_type
    2691                            .dwendtag $C$DW$T$164
    2692                    
    2693                    
    2694                    $C$DW$T$38      .dwtag  DW_TAG_structure_type
    2695                            .dwattr $C$DW$T$38, DW_AT_name("__simd128_int32_t")
    2696                            .dwattr $C$DW$T$38, DW_AT_byte_size(0x10)
    2697                    $C$DW$222       .dwtag  DW_TAG_member
    2698                            .dwattr $C$DW$222, DW_AT_type(*$C$DW$T$37)
    2699                            .dwattr $C$DW$222, DW_AT_name("_v")
    2700                            .dwattr $C$DW$222, DW_AT_TI_symbol_name("_v")
    2701                            .dwattr $C$DW$222, DW_AT_data_member_location[DW_OP_plus_uconst 0x0]
    2702                            .dwattr $C$DW$222, DW_AT_accessibility(DW_ACCESS_public)
    2703                            .dwattr $C$DW$222, DW_AT_decl_file("C:\VLIB_Tools\CCSV5_4_0\ccsv5\tools\compiler\C6000\include
