TMS320C6x Assembler PC v7.4.2 Thu Mar 19 12:44:48 2015

Tools Copyright (c) 1996-2012 Texas Instruments Incorporated
package/lib/Regression/regress_d_c/./../packages/ti/vlib/src/VLIB_subtractBackgroundS16/VLIB_subtractBackgroundS16_d.se66 PAGE    1

       1                    ;******************************************************************************
       2                    ;* TMS320C6x C/C++ Codegen                                          PC v7.4.2 *
       3                    ;* Date/Time created: Thu Mar 19 12:44:47 2015                                *
       4                    ;******************************************************************************
       5                            .compiler_opts --abi=eabi --c64p_l1d_workaround=off --endian=little --hll_source=on --long_pre
       6                    
       7                    ;******************************************************************************
       8                    ;* GLOBAL FILE PARAMETERS                                                     *
       9                    ;*                                                                            *
      10                    ;*   Architecture      : TMS320C66xx                                          *
      11                    ;*   Optimization      : Enabled at level 3                                   *
      12                    ;*   Optimizing for    : Speed                                                *
      13                    ;*                       Based on options: -o3, no -ms                        *
      14                    ;*   Endian            : Little                                               *
      15                    ;*   Interrupt Thrshld : 10000                                                *
      16                    ;*   Data Access Model : Far                                                  *
      17                    ;*   Pipelining        : Enabled                                              *
      18                    ;*   Speculate Loads   : Enabled with threshold = 0                           *
      19                    ;*   Memory Aliases    : Presume are aliases (pessimistic)                    *
      20                    ;*   Debug Info        : DWARF Debug w/Optimization                           *
      21                    ;*                                                                            *
      22                    ;******************************************************************************
      23                    
      24                            .asg    A15, FP
      25                            .asg    B14, DP
      26                            .asg    B15, SP
      27                            .global $bss
      28                    
      29                    
      30                    $C$DW$CU        .dwtag  DW_TAG_compile_unit
      31                            .dwattr $C$DW$CU, DW_AT_name("./../packages/ti/vlib/src/VLIB_subtractBackgroundS16/VLIB_subtra
      32                            .dwattr $C$DW$CU, DW_AT_producer("TI TMS320C6x C/C++ Codegen PC v7.4.2 Copyright (c) 1996-2012
      33                            .dwattr $C$DW$CU, DW_AT_TI_version(0x01)
      34                            .dwattr $C$DW$CU, DW_AT_comp_dir("c:\nightlybuilds\vlib\ti\vlib\vlib\examples")
      35                    
      36                    $C$DW$1 .dwtag  DW_TAG_subprogram, DW_AT_name("memcpy")
      37                            .dwattr $C$DW$1, DW_AT_TI_symbol_name("memcpy")
      38                            .dwattr $C$DW$1, DW_AT_type(*$C$DW$T$3)
      39                            .dwattr $C$DW$1, DW_AT_declaration
      40                            .dwattr $C$DW$1, DW_AT_external
      41                            .dwattr $C$DW$1, DW_AT_decl_file("C:/VLIB_Tools/CCSV5_4_0/ccsv5/tools/compiler/C6000/include/s
      42                            .dwattr $C$DW$1, DW_AT_decl_line(0x56)
      43                            .dwattr $C$DW$1, DW_AT_decl_column(0x16)
      44                    $C$DW$2 .dwtag  DW_TAG_formal_parameter
      45                            .dwattr $C$DW$2, DW_AT_type(*$C$DW$T$3)
      46                    $C$DW$3 .dwtag  DW_TAG_formal_parameter
      47                            .dwattr $C$DW$3, DW_AT_type(*$C$DW$T$55)
      48                    $C$DW$4 .dwtag  DW_TAG_formal_parameter
      49                            .dwattr $C$DW$4, DW_AT_type(*$C$DW$T$56)
      50                            .dwendtag $C$DW$1
      51                    
      52                    
      53                    $C$DW$5 .dwtag  DW_TAG_subprogram, DW_AT_name("_itoll")
      54                            .dwattr $C$DW$5, DW_AT_TI_symbol_name("_itoll")
      55                            .dwattr $C$DW$5, DW_AT_type(*$C$DW$T$14)
TMS320C6x Assembler PC v7.4.2 Thu Mar 19 12:44:48 2015

Tools Copyright (c) 1996-2012 Texas Instruments Incorporated
package/lib/Regression/regress_d_c/./../packages/ti/vlib/src/VLIB_subtractBackgroundS16/VLIB_subtractBackgroundS16_d.se66 PAGE    2

      56                            .dwattr $C$DW$5, DW_AT_declaration
      57                            .dwattr $C$DW$5, DW_AT_external
      58                            .dwattr $C$DW$5, DW_AT_decl_file("C:/VLIB_Tools/CCSV5_4_0/ccsv5/tools/compiler/C6000/include/c
      59                            .dwattr $C$DW$5, DW_AT_decl_line(0xdf)
      60                            .dwattr $C$DW$5, DW_AT_decl_column(0x0b)
      61                    $C$DW$6 .dwtag  DW_TAG_formal_parameter
      62                            .dwattr $C$DW$6, DW_AT_type(*$C$DW$T$11)
      63                    $C$DW$7 .dwtag  DW_TAG_formal_parameter
      64                            .dwattr $C$DW$7, DW_AT_type(*$C$DW$T$11)
      65                            .dwendtag $C$DW$5
      66                    
      67                    
      68                    $C$DW$8 .dwtag  DW_TAG_subprogram, DW_AT_name("printf")
      69                            .dwattr $C$DW$8, DW_AT_TI_symbol_name("printf")
      70                            .dwattr $C$DW$8, DW_AT_type(*$C$DW$T$10)
      71                            .dwattr $C$DW$8, DW_AT_declaration
      72                            .dwattr $C$DW$8, DW_AT_external
      73                            .dwattr $C$DW$8, DW_AT_decl_file("C:/VLIB_Tools/CCSV5_4_0/ccsv5/tools/compiler/C6000/include/s
      74                            .dwattr $C$DW$8, DW_AT_decl_line(0xb8)
      75                            .dwattr $C$DW$8, DW_AT_decl_column(0x19)
      76                    $C$DW$9 .dwtag  DW_TAG_formal_parameter
      77                            .dwattr $C$DW$9, DW_AT_type(*$C$DW$T$109)
      78                    $C$DW$10        .dwtag  DW_TAG_unspecified_parameters
      79                            .dwendtag $C$DW$8
      80                    
      81                    
      82                    $C$DW$11        .dwtag  DW_TAG_subprogram, DW_AT_name("sprintf")
      83                            .dwattr $C$DW$11, DW_AT_TI_symbol_name("sprintf")
      84                            .dwattr $C$DW$11, DW_AT_type(*$C$DW$T$10)
      85                            .dwattr $C$DW$11, DW_AT_declaration
      86                            .dwattr $C$DW$11, DW_AT_external
      87                            .dwattr $C$DW$11, DW_AT_decl_file("C:/VLIB_Tools/CCSV5_4_0/ccsv5/tools/compiler/C6000/include/
      88                            .dwattr $C$DW$11, DW_AT_decl_line(0xbc)
      89                            .dwattr $C$DW$11, DW_AT_decl_column(0x19)
      90                    $C$DW$12        .dwtag  DW_TAG_formal_parameter
      91                            .dwattr $C$DW$12, DW_AT_type(*$C$DW$T$62)
      92                    $C$DW$13        .dwtag  DW_TAG_formal_parameter
      93                            .dwattr $C$DW$13, DW_AT_type(*$C$DW$T$109)
      94                    $C$DW$14        .dwtag  DW_TAG_unspecified_parameters
      95                            .dwendtag $C$DW$11
      96                    
      97                    
      98                    $C$DW$15        .dwtag  DW_TAG_subprogram, DW_AT_name("malloc")
      99                            .dwattr $C$DW$15, DW_AT_TI_symbol_name("malloc")
     100                            .dwattr $C$DW$15, DW_AT_type(*$C$DW$T$3)
     101                            .dwattr $C$DW$15, DW_AT_declaration
     102                            .dwattr $C$DW$15, DW_AT_external
     103                            .dwattr $C$DW$15, DW_AT_decl_file("C:/VLIB_Tools/CCSV5_4_0/ccsv5/tools/compiler/C6000/include/
     104                            .dwattr $C$DW$15, DW_AT_decl_line(0x82)
     105                            .dwattr $C$DW$15, DW_AT_decl_column(0x19)
     106                    $C$DW$16        .dwtag  DW_TAG_formal_parameter
     107                            .dwattr $C$DW$16, DW_AT_type(*$C$DW$T$56)
     108                            .dwendtag $C$DW$15
     109                    
     110                    
TMS320C6x Assembler PC v7.4.2 Thu Mar 19 12:44:48 2015

Tools Copyright (c) 1996-2012 Texas Instruments Incorporated
package/lib/Regression/regress_d_c/./../packages/ti/vlib/src/VLIB_subtractBackgroundS16/VLIB_subtractBackgroundS16_d.se66 PAGE    3

     111                    $C$DW$17        .dwtag  DW_TAG_subprogram, DW_AT_name("free")
     112                            .dwattr $C$DW$17, DW_AT_TI_symbol_name("free")
     113                            .dwattr $C$DW$17, DW_AT_declaration
     114                            .dwattr $C$DW$17, DW_AT_external
     115                            .dwattr $C$DW$17, DW_AT_decl_file("C:/VLIB_Tools/CCSV5_4_0/ccsv5/tools/compiler/C6000/include/
     116                            .dwattr $C$DW$17, DW_AT_decl_line(0x86)
     117                            .dwattr $C$DW$17, DW_AT_decl_column(0x19)
     118                    $C$DW$18        .dwtag  DW_TAG_formal_parameter
     119                            .dwattr $C$DW$18, DW_AT_type(*$C$DW$T$3)
     120                            .dwendtag $C$DW$17
     121                    
     122                    
     123                    $C$DW$19        .dwtag  DW_TAG_subprogram, DW_AT_name("VLIB_cache_inval")
     124                            .dwattr $C$DW$19, DW_AT_TI_symbol_name("VLIB_cache_inval")
     125                            .dwattr $C$DW$19, DW_AT_type(*$C$DW$T$10)
     126                            .dwattr $C$DW$19, DW_AT_declaration
     127                            .dwattr $C$DW$19, DW_AT_external
     128                            .dwattr $C$DW$19, DW_AT_decl_file(".\..\packages\ti\vlib\src\VLIB_subtractBackgroundS16\..\com
     129                            .dwattr $C$DW$19, DW_AT_decl_line(0x58)
     130                            .dwattr $C$DW$19, DW_AT_decl_column(0x05)
     131                    
     132                    $C$DW$20        .dwtag  DW_TAG_subprogram, DW_AT_name("VLIB_profile_init")
     133                            .dwattr $C$DW$20, DW_AT_TI_symbol_name("VLIB_profile_init")
     134                            .dwattr $C$DW$20, DW_AT_declaration
     135                            .dwattr $C$DW$20, DW_AT_external
     136                            .dwattr $C$DW$20, DW_AT_decl_file(".\..\packages\ti\vlib\src\VLIB_subtractBackgroundS16\..\com
     137                            .dwattr $C$DW$20, DW_AT_decl_line(0x7b)
     138                            .dwattr $C$DW$20, DW_AT_decl_column(0x06)
     139                    $C$DW$21        .dwtag  DW_TAG_formal_parameter
     140                            .dwattr $C$DW$21, DW_AT_type(*$C$DW$T$10)
     141                    $C$DW$22        .dwtag  DW_TAG_formal_parameter
     142                            .dwattr $C$DW$22, DW_AT_type(*$C$DW$T$62)
     143                            .dwendtag $C$DW$20
     144                    
     145                    
     146                    $C$DW$23        .dwtag  DW_TAG_subprogram, DW_AT_name("VLIB_formula_add_test")
     147                            .dwattr $C$DW$23, DW_AT_TI_symbol_name("VLIB_formula_add_test")
     148                            .dwattr $C$DW$23, DW_AT_declaration
     149                            .dwattr $C$DW$23, DW_AT_external
     150                            .dwattr $C$DW$23, DW_AT_decl_file(".\..\packages\ti\vlib\src\VLIB_subtractBackgroundS16\..\com
     151                            .dwattr $C$DW$23, DW_AT_decl_line(0x7d)
     152                            .dwattr $C$DW$23, DW_AT_decl_column(0x06)
     153                    $C$DW$24        .dwtag  DW_TAG_formal_parameter
     154                            .dwattr $C$DW$24, DW_AT_type(*$C$DW$T$10)
     155                    $C$DW$25        .dwtag  DW_TAG_formal_parameter
     156                            .dwattr $C$DW$25, DW_AT_type(*$C$DW$T$10)
     157                    $C$DW$26        .dwtag  DW_TAG_formal_parameter
     158                            .dwattr $C$DW$26, DW_AT_type(*$C$DW$T$10)
     159                    $C$DW$27        .dwtag  DW_TAG_formal_parameter
     160                            .dwattr $C$DW$27, DW_AT_type(*$C$DW$T$10)
     161                    $C$DW$28        .dwtag  DW_TAG_formal_parameter
     162                            .dwattr $C$DW$28, DW_AT_type(*$C$DW$T$62)
     163                    $C$DW$29        .dwtag  DW_TAG_formal_parameter
     164                            .dwattr $C$DW$29, DW_AT_type(*$C$DW$T$10)
     165                            .dwendtag $C$DW$23
TMS320C6x Assembler PC v7.4.2 Thu Mar 19 12:44:48 2015

Tools Copyright (c) 1996-2012 Texas Instruments Incorporated
package/lib/Regression/regress_d_c/./../packages/ti/vlib/src/VLIB_subtractBackgroundS16/VLIB_subtractBackgroundS16_d.se66 PAGE    4

     166                    
     167                    
     168                    $C$DW$30        .dwtag  DW_TAG_subprogram, DW_AT_name("VLIB_skip_test")
     169                            .dwattr $C$DW$30, DW_AT_TI_symbol_name("VLIB_skip_test")
     170                            .dwattr $C$DW$30, DW_AT_declaration
     171                            .dwattr $C$DW$30, DW_AT_external
     172                            .dwattr $C$DW$30, DW_AT_decl_file(".\..\packages\ti\vlib\src\VLIB_subtractBackgroundS16\..\com
     173                            .dwattr $C$DW$30, DW_AT_decl_line(0x7e)
     174                            .dwattr $C$DW$30, DW_AT_decl_column(0x06)
     175                    $C$DW$31        .dwtag  DW_TAG_formal_parameter
     176                            .dwattr $C$DW$31, DW_AT_type(*$C$DW$T$62)
     177                            .dwendtag $C$DW$30
     178                    
     179                    
     180                    $C$DW$32        .dwtag  DW_TAG_subprogram, DW_AT_name("VLIB_profile_cycle_report")
     181                            .dwattr $C$DW$32, DW_AT_TI_symbol_name("VLIB_profile_cycle_report")
     182                            .dwattr $C$DW$32, DW_AT_declaration
     183                            .dwattr $C$DW$32, DW_AT_external
     184                            .dwattr $C$DW$32, DW_AT_decl_file(".\..\packages\ti\vlib\src\VLIB_subtractBackgroundS16\..\com
     185                            .dwattr $C$DW$32, DW_AT_decl_line(0x7f)
     186                            .dwattr $C$DW$32, DW_AT_decl_column(0x06)
     187                    $C$DW$33        .dwtag  DW_TAG_formal_parameter
     188                            .dwattr $C$DW$33, DW_AT_type(*$C$DW$T$10)
     189                    $C$DW$34        .dwtag  DW_TAG_formal_parameter
     190                            .dwattr $C$DW$34, DW_AT_type(*$C$DW$T$62)
     191                    $C$DW$35        .dwtag  DW_TAG_formal_parameter
     192                            .dwattr $C$DW$35, DW_AT_type(*$C$DW$T$62)
     193                            .dwendtag $C$DW$32
     194                    
     195                    
     196                    $C$DW$36        .dwtag  DW_TAG_subprogram, DW_AT_name("initStack")
     197                            .dwattr $C$DW$36, DW_AT_TI_symbol_name("initStack")
     198                            .dwattr $C$DW$36, DW_AT_declaration
     199                            .dwattr $C$DW$36, DW_AT_external
     200                            .dwattr $C$DW$36, DW_AT_decl_file(".\..\packages\ti\vlib\src\VLIB_subtractBackgroundS16\..\com
     201                            .dwattr $C$DW$36, DW_AT_decl_line(0x80)
     202                            .dwattr $C$DW$36, DW_AT_decl_column(0x06)
     203                    $C$DW$37        .dwtag  DW_TAG_formal_parameter
     204                            .dwattr $C$DW$37, DW_AT_type(*$C$DW$T$21)
     205                            .dwendtag $C$DW$36
     206                    
     207                    
     208                    $C$DW$38        .dwtag  DW_TAG_subprogram, DW_AT_name("setStackDepth")
     209                            .dwattr $C$DW$38, DW_AT_TI_symbol_name("setStackDepth")
     210                            .dwattr $C$DW$38, DW_AT_declaration
     211                            .dwattr $C$DW$38, DW_AT_external
     212                            .dwattr $C$DW$38, DW_AT_decl_file(".\..\packages\ti\vlib\src\VLIB_subtractBackgroundS16\..\com
     213                            .dwattr $C$DW$38, DW_AT_decl_line(0x81)
     214                            .dwattr $C$DW$38, DW_AT_decl_column(0x06)
     215                    
     216                    $C$DW$39        .dwtag  DW_TAG_subprogram, DW_AT_name("getSP")
     217                            .dwattr $C$DW$39, DW_AT_TI_symbol_name("getSP")
     218                            .dwattr $C$DW$39, DW_AT_type(*$C$DW$T$21)
     219                            .dwattr $C$DW$39, DW_AT_declaration
     220                            .dwattr $C$DW$39, DW_AT_external
TMS320C6x Assembler PC v7.4.2 Thu Mar 19 12:44:48 2015

Tools Copyright (c) 1996-2012 Texas Instruments Incorporated
package/lib/Regression/regress_d_c/./../packages/ti/vlib/src/VLIB_subtractBackgroundS16/VLIB_subtractBackgroundS16_d.se66 PAGE    5

     221                            .dwattr $C$DW$39, DW_AT_decl_file(".\..\packages\ti\vlib\src\VLIB_subtractBackgroundS16\..\com
     222                            .dwattr $C$DW$39, DW_AT_decl_line(0x82)
     223                            .dwattr $C$DW$39, DW_AT_decl_column(0x0a)
     224                    
     225                    $C$DW$40        .dwtag  DW_TAG_subprogram, DW_AT_name("VLIB_stack_memory")
     226                            .dwattr $C$DW$40, DW_AT_TI_symbol_name("VLIB_stack_memory")
     227                            .dwattr $C$DW$40, DW_AT_declaration
     228                            .dwattr $C$DW$40, DW_AT_external
     229                            .dwattr $C$DW$40, DW_AT_decl_file(".\..\packages\ti\vlib\src\VLIB_subtractBackgroundS16\..\com
     230                            .dwattr $C$DW$40, DW_AT_decl_line(0x83)
     231                            .dwattr $C$DW$40, DW_AT_decl_column(0x06)
     232                    
     233                    $C$DW$41        .dwtag  DW_TAG_subprogram, DW_AT_name("VLIB_compare_mem")
     234                            .dwattr $C$DW$41, DW_AT_TI_symbol_name("VLIB_compare_mem")
     235                            .dwattr $C$DW$41, DW_AT_type(*$C$DW$T$30)
     236                            .dwattr $C$DW$41, DW_AT_declaration
     237                            .dwattr $C$DW$41, DW_AT_external
     238                            .dwattr $C$DW$41, DW_AT_decl_file(".\..\packages\ti\vlib\src\VLIB_subtractBackgroundS16\../com
     239                            .dwattr $C$DW$41, DW_AT_decl_line(0x6f)
     240                            .dwattr $C$DW$41, DW_AT_decl_column(0x11)
     241                    $C$DW$42        .dwtag  DW_TAG_formal_parameter
     242                            .dwattr $C$DW$42, DW_AT_type(*$C$DW$T$53)
     243                    $C$DW$43        .dwtag  DW_TAG_formal_parameter
     244                            .dwattr $C$DW$43, DW_AT_type(*$C$DW$T$53)
     245                    $C$DW$44        .dwtag  DW_TAG_formal_parameter
     246                            .dwattr $C$DW$44, DW_AT_type(*$C$DW$T$30)
     247                            .dwendtag $C$DW$41
     248                    
     249                    
     250                    $C$DW$45        .dwtag  DW_TAG_subprogram, DW_AT_name("VLIB_fillBuffer")
     251                            .dwattr $C$DW$45, DW_AT_TI_symbol_name("VLIB_fillBuffer")
     252                            .dwattr $C$DW$45, DW_AT_declaration
     253                            .dwattr $C$DW$45, DW_AT_external
     254                            .dwattr $C$DW$45, DW_AT_decl_file(".\..\packages\ti\vlib\src\VLIB_subtractBackgroundS16\../com
     255                            .dwattr $C$DW$45, DW_AT_decl_line(0x77)
     256                            .dwattr $C$DW$45, DW_AT_decl_column(0x06)
     257                    $C$DW$46        .dwtag  DW_TAG_formal_parameter
     258                            .dwattr $C$DW$46, DW_AT_type(*$C$DW$T$19)
     259                    $C$DW$47        .dwtag  DW_TAG_formal_parameter
     260                            .dwattr $C$DW$47, DW_AT_type(*$C$DW$T$19)
     261                    $C$DW$48        .dwtag  DW_TAG_formal_parameter
     262                            .dwattr $C$DW$48, DW_AT_type(*$C$DW$T$3)
     263                    $C$DW$49        .dwtag  DW_TAG_formal_parameter
     264                            .dwattr $C$DW$49, DW_AT_type(*$C$DW$T$3)
     265                    $C$DW$50        .dwtag  DW_TAG_formal_parameter
     266                            .dwattr $C$DW$50, DW_AT_type(*$C$DW$T$76)
     267                    $C$DW$51        .dwtag  DW_TAG_formal_parameter
     268                            .dwattr $C$DW$51, DW_AT_type(*$C$DW$T$76)
     269                    $C$DW$52        .dwtag  DW_TAG_formal_parameter
     270                            .dwattr $C$DW$52, DW_AT_type(*$C$DW$T$76)
     271                    $C$DW$53        .dwtag  DW_TAG_formal_parameter
     272                            .dwattr $C$DW$53, DW_AT_type(*$C$DW$T$19)
     273                    $C$DW$54        .dwtag  DW_TAG_formal_parameter
     274                            .dwattr $C$DW$54, DW_AT_type(*$C$DW$T$62)
     275                            .dwendtag $C$DW$45
TMS320C6x Assembler PC v7.4.2 Thu Mar 19 12:44:48 2015

Tools Copyright (c) 1996-2012 Texas Instruments Incorporated
package/lib/Regression/regress_d_c/./../packages/ti/vlib/src/VLIB_subtractBackgroundS16/VLIB_subtractBackgroundS16_d.se66 PAGE    6

     276                    
     277                    
     278                    $C$DW$55        .dwtag  DW_TAG_subprogram, DW_AT_name("VLIB_malloc")
     279                            .dwattr $C$DW$55, DW_AT_TI_symbol_name("VLIB_malloc")
     280                            .dwattr $C$DW$55, DW_AT_type(*$C$DW$T$3)
     281                            .dwattr $C$DW$55, DW_AT_declaration
     282                            .dwattr $C$DW$55, DW_AT_external
     283                            .dwattr $C$DW$55, DW_AT_decl_file(".\..\packages\ti\vlib\src\VLIB_subtractBackgroundS16\../com
     284                            .dwattr $C$DW$55, DW_AT_decl_line(0xaf)
     285                            .dwattr $C$DW$55, DW_AT_decl_column(0x07)
     286                    $C$DW$56        .dwtag  DW_TAG_formal_parameter
     287                            .dwattr $C$DW$56, DW_AT_type(*$C$DW$T$56)
     288                            .dwendtag $C$DW$55
     289                    
     290                    
     291                    $C$DW$57        .dwtag  DW_TAG_subprogram, DW_AT_name("VLIB_free")
     292                            .dwattr $C$DW$57, DW_AT_TI_symbol_name("VLIB_free")
     293                            .dwattr $C$DW$57, DW_AT_declaration
     294                            .dwattr $C$DW$57, DW_AT_external
     295                            .dwattr $C$DW$57, DW_AT_decl_file(".\..\packages\ti\vlib\src\VLIB_subtractBackgroundS16\../com
     296                            .dwattr $C$DW$57, DW_AT_decl_line(0xb4)
     297                            .dwattr $C$DW$57, DW_AT_decl_column(0x07)
     298                    $C$DW$58        .dwtag  DW_TAG_formal_parameter
     299                            .dwattr $C$DW$58, DW_AT_type(*$C$DW$T$3)
     300                            .dwendtag $C$DW$57
     301                    
     302                    
     303                    $C$DW$59        .dwtag  DW_TAG_subprogram, DW_AT_name("VLIB_initMeanWithLumaS16_cn")
     304                            .dwattr $C$DW$59, DW_AT_TI_symbol_name("VLIB_initMeanWithLumaS16_cn")
     305                            .dwattr $C$DW$59, DW_AT_type(*$C$DW$T$30)
     306                            .dwattr $C$DW$59, DW_AT_declaration
     307                            .dwattr $C$DW$59, DW_AT_external
     308                            .dwattr $C$DW$59, DW_AT_decl_file(".\..\packages\ti\vlib\src\VLIB_subtractBackgroundS16\../VLI
     309                            .dwattr $C$DW$59, DW_AT_decl_line(0x21)
     310                            .dwattr $C$DW$59, DW_AT_decl_column(0x09)
     311                    $C$DW$60        .dwtag  DW_TAG_formal_parameter
     312                            .dwattr $C$DW$60, DW_AT_type(*$C$DW$T$101)
     313                    $C$DW$61        .dwtag  DW_TAG_formal_parameter
     314                            .dwattr $C$DW$61, DW_AT_type(*$C$DW$T$97)
     315                    $C$DW$62        .dwtag  DW_TAG_formal_parameter
     316                            .dwattr $C$DW$62, DW_AT_type(*$C$DW$T$118)
     317                            .dwendtag $C$DW$59
     318                    
     319                    
     320                    $C$DW$63        .dwtag  DW_TAG_subprogram, DW_AT_name("VLIB_initVarWithConstS16_cn")
     321                            .dwattr $C$DW$63, DW_AT_TI_symbol_name("VLIB_initVarWithConstS16_cn")
     322                            .dwattr $C$DW$63, DW_AT_type(*$C$DW$T$30)
     323                            .dwattr $C$DW$63, DW_AT_declaration
     324                            .dwattr $C$DW$63, DW_AT_external
     325                            .dwattr $C$DW$63, DW_AT_decl_file(".\..\packages\ti\vlib\src\VLIB_subtractBackgroundS16\../VLI
     326                            .dwattr $C$DW$63, DW_AT_decl_line(0x21)
     327                            .dwattr $C$DW$63, DW_AT_decl_column(0x09)
     328                    $C$DW$64        .dwtag  DW_TAG_formal_parameter
     329                            .dwattr $C$DW$64, DW_AT_type(*$C$DW$T$101)
     330                    $C$DW$65        .dwtag  DW_TAG_formal_parameter
TMS320C6x Assembler PC v7.4.2 Thu Mar 19 12:44:48 2015

Tools Copyright (c) 1996-2012 Texas Instruments Incorporated
package/lib/Regression/regress_d_c/./../packages/ti/vlib/src/VLIB_subtractBackgroundS16/VLIB_subtractBackgroundS16_d.se66 PAGE    7

     331                            .dwattr $C$DW$65, DW_AT_type(*$C$DW$T$102)
     332                    $C$DW$66        .dwtag  DW_TAG_formal_parameter
     333                            .dwattr $C$DW$66, DW_AT_type(*$C$DW$T$118)
     334                            .dwendtag $C$DW$63
     335                    
     336                    
     337                    $C$DW$67        .dwtag  DW_TAG_subprogram, DW_AT_name("VLIB_subtractBackgroundS16")
     338                            .dwattr $C$DW$67, DW_AT_TI_symbol_name("VLIB_subtractBackgroundS16")
     339                            .dwattr $C$DW$67, DW_AT_type(*$C$DW$T$30)
     340                            .dwattr $C$DW$67, DW_AT_declaration
     341                            .dwattr $C$DW$67, DW_AT_external
     342                            .dwattr $C$DW$67, DW_AT_decl_file(".\..\packages\ti\vlib\src\VLIB_subtractBackgroundS16\c66/VL
     343                            .dwattr $C$DW$67, DW_AT_decl_line(0x7c)
     344                            .dwattr $C$DW$67, DW_AT_decl_column(0x09)
     345                    $C$DW$68        .dwtag  DW_TAG_formal_parameter
     346                            .dwattr $C$DW$68, DW_AT_type(*$C$DW$T$123)
     347                    $C$DW$69        .dwtag  DW_TAG_formal_parameter
     348                            .dwattr $C$DW$69, DW_AT_type(*$C$DW$T$97)
     349                    $C$DW$70        .dwtag  DW_TAG_formal_parameter
     350                            .dwattr $C$DW$70, DW_AT_type(*$C$DW$T$104)
     351                    $C$DW$71        .dwtag  DW_TAG_formal_parameter
     352                            .dwattr $C$DW$71, DW_AT_type(*$C$DW$T$104)
     353                    $C$DW$72        .dwtag  DW_TAG_formal_parameter
     354                            .dwattr $C$DW$72, DW_AT_type(*$C$DW$T$102)
     355                    $C$DW$73        .dwtag  DW_TAG_formal_parameter
     356                            .dwattr $C$DW$73, DW_AT_type(*$C$DW$T$102)
     357                    $C$DW$74        .dwtag  DW_TAG_formal_parameter
     358                            .dwattr $C$DW$74, DW_AT_type(*$C$DW$T$118)
     359                            .dwendtag $C$DW$67
     360                    
     361                    
     362                    $C$DW$75        .dwtag  DW_TAG_subprogram, DW_AT_name("VLIB_subtractBackgroundS16_cn")
     363                            .dwattr $C$DW$75, DW_AT_TI_symbol_name("VLIB_subtractBackgroundS16_cn")
     364                            .dwattr $C$DW$75, DW_AT_type(*$C$DW$T$30)
     365                            .dwattr $C$DW$75, DW_AT_declaration
     366                            .dwattr $C$DW$75, DW_AT_external
     367                            .dwattr $C$DW$75, DW_AT_decl_file(".\..\packages\ti\vlib\src\VLIB_subtractBackgroundS16\VLIB_s
     368                            .dwattr $C$DW$75, DW_AT_decl_line(0x22)
     369                            .dwattr $C$DW$75, DW_AT_decl_column(0x09)
     370                    $C$DW$76        .dwtag  DW_TAG_formal_parameter
     371                            .dwattr $C$DW$76, DW_AT_type(*$C$DW$T$123)
     372                    $C$DW$77        .dwtag  DW_TAG_formal_parameter
     373                            .dwattr $C$DW$77, DW_AT_type(*$C$DW$T$97)
     374                    $C$DW$78        .dwtag  DW_TAG_formal_parameter
     375                            .dwattr $C$DW$78, DW_AT_type(*$C$DW$T$104)
     376                    $C$DW$79        .dwtag  DW_TAG_formal_parameter
     377                            .dwattr $C$DW$79, DW_AT_type(*$C$DW$T$104)
     378                    $C$DW$80        .dwtag  DW_TAG_formal_parameter
     379                            .dwattr $C$DW$80, DW_AT_type(*$C$DW$T$102)
     380                    $C$DW$81        .dwtag  DW_TAG_formal_parameter
     381                            .dwattr $C$DW$81, DW_AT_type(*$C$DW$T$102)
     382                    $C$DW$82        .dwtag  DW_TAG_formal_parameter
     383                            .dwattr $C$DW$82, DW_AT_type(*$C$DW$T$118)
     384                            .dwendtag $C$DW$75
     385                    
TMS320C6x Assembler PC v7.4.2 Thu Mar 19 12:44:48 2015

Tools Copyright (c) 1996-2012 Texas Instruments Incorporated
package/lib/Regression/regress_d_c/./../packages/ti/vlib/src/VLIB_subtractBackgroundS16/VLIB_subtractBackgroundS16_d.se66 PAGE    8

     386                    
     387                    $C$DW$83        .dwtag  DW_TAG_subprogram, DW_AT_name("subtractBackgroundS16_getTestParams")
     388                            .dwattr $C$DW$83, DW_AT_TI_symbol_name("subtractBackgroundS16_getTestParams")
     389                            .dwattr $C$DW$83, DW_AT_declaration
     390                            .dwattr $C$DW$83, DW_AT_external
     391                            .dwattr $C$DW$83, DW_AT_decl_file(".\..\packages\ti\vlib\src\VLIB_subtractBackgroundS16\VLIB_s
     392                            .dwattr $C$DW$83, DW_AT_decl_line(0x2d)
     393                            .dwattr $C$DW$83, DW_AT_decl_column(0x06)
     394                    $C$DW$84        .dwtag  DW_TAG_formal_parameter
     395                            .dwattr $C$DW$84, DW_AT_type(*$C$DW$T$46)
     396                    $C$DW$85        .dwtag  DW_TAG_formal_parameter
     397                            .dwattr $C$DW$85, DW_AT_type(*$C$DW$T$79)
     398                            .dwendtag $C$DW$83
     399                    
     400                    $C$DW$86        .dwtag  DW_TAG_variable, DW_AT_name("test_cases")
     401                            .dwattr $C$DW$86, DW_AT_TI_symbol_name("test_cases")
     402                            .dwattr $C$DW$86, DW_AT_type(*$C$DW$T$30)
     403                            .dwattr $C$DW$86, DW_AT_declaration
     404                            .dwattr $C$DW$86, DW_AT_external
     405                            .dwattr $C$DW$86, DW_AT_decl_file(".\..\packages\ti\vlib\src\VLIB_subtractBackgroundS16\../com
     406                            .dwattr $C$DW$86, DW_AT_decl_line(0x60)
     407                            .dwattr $C$DW$86, DW_AT_decl_column(0x13)
     408                    $C$DW$87        .dwtag  DW_TAG_variable, DW_AT_name("act_kernel")
     409                            .dwattr $C$DW$87, DW_AT_TI_symbol_name("act_kernel")
     410                            .dwattr $C$DW$87, DW_AT_type(*$C$DW$T$10)
     411                            .dwattr $C$DW$87, DW_AT_declaration
     412                            .dwattr $C$DW$87, DW_AT_external
     413                            .dwattr $C$DW$87, DW_AT_decl_file(".\..\packages\ti\vlib\src\VLIB_subtractBackgroundS16\../com
     414                            .dwattr $C$DW$87, DW_AT_decl_line(0x62)
     415                            .dwattr $C$DW$87, DW_AT_decl_column(0x13)
     416                    $C$DW$88        .dwtag  DW_TAG_variable, DW_AT_name("desc")
     417                            .dwattr $C$DW$88, DW_AT_TI_symbol_name("desc")
     418                            .dwattr $C$DW$88, DW_AT_type(*$C$DW$T$174)
     419                            .dwattr $C$DW$88, DW_AT_declaration
     420                            .dwattr $C$DW$88, DW_AT_external
     421                            .dwattr $C$DW$88, DW_AT_decl_file(".\..\packages\ti\vlib\src\VLIB_subtractBackgroundS16\../com
     422                            .dwattr $C$DW$88, DW_AT_decl_line(0x63)
     423                            .dwattr $C$DW$88, DW_AT_decl_column(0x13)
     424                    $C$DW$89        .dwtag  DW_TAG_variable, DW_AT_name("testPatternString")
     425                            .dwattr $C$DW$89, DW_AT_TI_symbol_name("testPatternString")
     426                            .dwattr $C$DW$89, DW_AT_type(*$C$DW$T$174)
     427                            .dwattr $C$DW$89, DW_AT_declaration
     428                            .dwattr $C$DW$89, DW_AT_external
     429                            .dwattr $C$DW$89, DW_AT_decl_file(".\..\packages\ti\vlib\src\VLIB_subtractBackgroundS16\../com
     430                            .dwattr $C$DW$89, DW_AT_decl_line(0x64)
     431                            .dwattr $C$DW$89, DW_AT_decl_column(0x13)
     432                    $C$DW$90        .dwtag  DW_TAG_variable, DW_AT_name("est_test")
     433                            .dwattr $C$DW$90, DW_AT_TI_symbol_name("est_test")
     434                            .dwattr $C$DW$90, DW_AT_type(*$C$DW$T$10)
     435                            .dwattr $C$DW$90, DW_AT_declaration
     436                            .dwattr $C$DW$90, DW_AT_external
     437                            .dwattr $C$DW$90, DW_AT_decl_file(".\..\packages\ti\vlib\src\VLIB_subtractBackgroundS16\..\com
     438                            .dwattr $C$DW$90, DW_AT_decl_line(0x75)
     439                            .dwattr $C$DW$90, DW_AT_decl_column(0x14)
     440                    $C$DW$91        .dwtag  DW_TAG_variable, DW_AT_name("beg_count")
TMS320C6x Assembler PC v7.4.2 Thu Mar 19 12:44:48 2015

Tools Copyright (c) 1996-2012 Texas Instruments Incorporated
package/lib/Regression/regress_d_c/./../packages/ti/vlib/src/VLIB_subtractBackgroundS16/VLIB_subtractBackgroundS16_d.se66 PAGE    9

     441                            .dwattr $C$DW$91, DW_AT_TI_symbol_name("beg_count")
     442                            .dwattr $C$DW$91, DW_AT_type(*$C$DW$T$164)
     443                            .dwattr $C$DW$91, DW_AT_declaration
     444                            .dwattr $C$DW$91, DW_AT_external
     445                            .dwattr $C$DW$91, DW_AT_decl_file(".\..\packages\ti\vlib\src\VLIB_subtractBackgroundS16\..\com
     446                            .dwattr $C$DW$91, DW_AT_decl_line(0x76)
     447                            .dwattr $C$DW$91, DW_AT_decl_column(0x14)
     448                    $C$DW$92        .dwtag  DW_TAG_variable, DW_AT_name("end_count")
     449                            .dwattr $C$DW$92, DW_AT_TI_symbol_name("end_count")
     450                            .dwattr $C$DW$92, DW_AT_type(*$C$DW$T$164)
     451                            .dwattr $C$DW$92, DW_AT_declaration
     452                            .dwattr $C$DW$92, DW_AT_external
     453                            .dwattr $C$DW$92, DW_AT_decl_file(".\..\packages\ti\vlib\src\VLIB_subtractBackgroundS16\..\com
     454                            .dwattr $C$DW$92, DW_AT_decl_line(0x77)
     455                            .dwattr $C$DW$92, DW_AT_decl_column(0x14)
     456                    $C$DW$93        .dwtag  DW_TAG_variable, DW_AT_name("overhead")
     457                            .dwattr $C$DW$93, DW_AT_TI_symbol_name("overhead")
     458                            .dwattr $C$DW$93, DW_AT_type(*$C$DW$T$164)
     459                            .dwattr $C$DW$93, DW_AT_declaration
     460                            .dwattr $C$DW$93, DW_AT_external
     461                            .dwattr $C$DW$93, DW_AT_decl_file(".\..\packages\ti\vlib\src\VLIB_subtractBackgroundS16\..\com
     462                            .dwattr $C$DW$93, DW_AT_decl_line(0x78)
     463                            .dwattr $C$DW$93, DW_AT_decl_column(0x14)
     464                    $C$DW$94        .dwtag  DW_TAG_variable, DW_AT_name("cycles")
     465                            .dwattr $C$DW$94, DW_AT_TI_symbol_name("cycles")
     466                            .dwattr $C$DW$94, DW_AT_type(*$C$DW$T$165)
     467                            .dwattr $C$DW$94, DW_AT_declaration
     468                            .dwattr $C$DW$94, DW_AT_external
     469                            .dwattr $C$DW$94, DW_AT_decl_file(".\..\packages\ti\vlib\src\VLIB_subtractBackgroundS16\..\com
     470                            .dwattr $C$DW$94, DW_AT_decl_line(0x79)
     471                            .dwattr $C$DW$94, DW_AT_decl_column(0x14)
     472                    ;       C:\VLIB_Tools\CCSV5_4_0\ccsv5\tools\compiler\C6000\bin\opt6x.exe C:\\Users\\gtbldadm\\AppData\
     473 00000000                   .sect   ".text"
     474                            .clink
     475                            .global VLIB_subtractBackgroundS16_d
     476                    
     477                    $C$DW$95        .dwtag  DW_TAG_subprogram, DW_AT_name("VLIB_subtractBackgroundS16_d")
     478                            .dwattr $C$DW$95, DW_AT_low_pc(VLIB_subtractBackgroundS16_d)
     479                            .dwattr $C$DW$95, DW_AT_high_pc(0x00)
     480                            .dwattr $C$DW$95, DW_AT_TI_symbol_name("VLIB_subtractBackgroundS16_d")
     481                            .dwattr $C$DW$95, DW_AT_external
     482                            .dwattr $C$DW$95, DW_AT_TI_begin_file("./../packages/ti/vlib/src/VLIB_subtractBackgroundS16/VL
     483                            .dwattr $C$DW$95, DW_AT_TI_begin_line(0x29)
     484                            .dwattr $C$DW$95, DW_AT_TI_begin_column(0x06)
     485                            .dwattr $C$DW$95, DW_AT_decl_file("./../packages/ti/vlib/src/VLIB_subtractBackgroundS16/VLIB_s
     486                            .dwattr $C$DW$95, DW_AT_decl_line(0x29)
     487                            .dwattr $C$DW$95, DW_AT_decl_column(0x06)
     488                            .dwattr $C$DW$95, DW_AT_TI_max_frame_size(0x68)
     489                            .dwpsn  file "./../packages/ti/vlib/src/VLIB_subtractBackgroundS16/VLIB_subtractBackgroundS16_
     490                    
     491                            .dwfde $C$DW$CIE, VLIB_subtractBackgroundS16_d
     492                    $C$DW$96        .dwtag  DW_TAG_formal_parameter, DW_AT_name("LevelOfFeedback")
     493                            .dwattr $C$DW$96, DW_AT_TI_symbol_name("LevelOfFeedback")
     494                            .dwattr $C$DW$96, DW_AT_type(*$C$DW$T$19)
     495                            .dwattr $C$DW$96, DW_AT_location[DW_OP_reg4]
TMS320C6x Assembler PC v7.4.2 Thu Mar 19 12:44:48 2015

Tools Copyright (c) 1996-2012 Texas Instruments Incorporated
package/lib/Regression/regress_d_c/./../packages/ti/vlib/src/VLIB_subtractBackgroundS16/VLIB_subtractBackgroundS16_d.se66 PAGE   10

     496                    ;----------------------------------------------------------------------
     497                    ;  41 | void VLIB_subtractBackgroundS16_d (uint8_t LevelOfFeedback)            
     498                    ;----------------------------------------------------------------------
     499                    
     500                    ;******************************************************************************
     501                    ;* FUNCTION NAME: VLIB_subtractBackgroundS16_d                                *
     502                    ;*                                                                            *
     503                    ;*   Regs Modified     : A0,A1,A2,A3,A4,A5,A6,A7,A8,A9,A10,A11,A12,A13,A14,   *
     504                    ;*                           A15,B0,B1,B2,B3,B4,B5,B6,B7,B8,B9,B10,B11,B12,   *
     505                    ;*                           B13,SP,A16,A17,A18,A19,A20,A21,A22,A23,A24,A25,  *
     506                    ;*                           A26,A27,A28,A29,A30,A31,B16,B17,B18,B19,B20,B21, *
     507                    ;*                           B22,B23,B24,B25,B26,B27,B28,B29,B30,B31          *
     508                    ;*   Regs Used         : A0,A1,A2,A3,A4,A5,A6,A7,A8,A9,A10,A11,A12,A13,A14,   *
     509                    ;*                           A15,B0,B1,B2,B3,B4,B5,B6,B7,B8,B9,B10,B11,B12,   *
     510                    ;*                           B13,DP,SP,A16,A17,A18,A19,A20,A21,A22,A23,A24,   *
     511                    ;*                           A25,A26,A27,A28,A29,A30,A31,B16,B17,B18,B19,B20, *
     512                    ;*                           B21,B22,B23,B24,B25,B26,B27,B28,B29,B30,B31      *
     513                    ;*   Local Frame Size  : 16 Args + 28 Auto + 56 Save = 100 byte               *
     514                    ;******************************************************************************
     515                    
     516                    ;******************************************************************************
     517                    ;*                                                                            *
     518                    ;* Using -g (debug) with optimization (-o3) may disable key optimizations!    *
     519                    ;*                                                                            *
     520                    ;******************************************************************************
     521 00000000           VLIB_subtractBackgroundS16_d:
     522                    ;** --------------------------------------------------------------------------*
     523                    ;          EXCLUSIVE CPU CYCLES: 16
     524                    ;** 48  -----------------------    subtractBackgroundS16_getTestParams(&prm, &test_cases);
     525                    ;** 51  -----------------------    VLIB_profile_init(2, "VLIB_subtractBackgroundS16");
     526                    ;** 54  -----------------------    if ( test_cases <= 0 ) goto g13;
     527                            .dwcfi  cfa_offset, 0
     528                    ;----------------------------------------------------------------------
     529                    ;  43 | int32_t    tpi;  /* test parameter index */                            
     530                    ;  46 | subtractBackgroundS16_testParams_t   *prm;                             
     531                    ;----------------------------------------------------------------------
     532 00000000     25f7             STW     .D2T1   A11,*SP--(8)      ; |42| 
     533                            .dwcfi  cfa_offset, 8
     534                            .dwcfi  save_reg_to_mem, 11, 0
     535 00000002     2577             STW     .D2T1   A10,*SP--(8)      ; |42| 
     536                            .dwcfi  cfa_offset, 16
     537                            .dwcfi  save_reg_to_mem, 10, -8
     538 00000004     9677             STDW    .D2T2   B13:B12,*SP--     ; |42| 
     539                            .dwcfi  cfa_offset, 24
     540                            .dwcfi  save_reg_to_mem, 29, -12
     541                            .dwcfi  save_reg_to_mem, 28, -16
     542 00000006     9577             STDW    .D2T2   B11:B10,*SP--     ; |42| 
     543                            .dwcfi  cfa_offset, 32
     544                            .dwcfi  save_reg_to_mem, 27, -20
     545                            .dwcfi  save_reg_to_mem, 26, -24
     546 00000008     8777             STDW    .D2T1   A15:A14,*SP--     ; |42| 
     547                            .dwcfi  cfa_offset, 40
     548                            .dwcfi  save_reg_to_mem, 15, -28
     549                            .dwcfi  save_reg_to_mem, 14, -32
     550 0000000a     8677             STDW    .D2T1   A13:A12,*SP--     ; |42| 
TMS320C6x Assembler PC v7.4.2 Thu Mar 19 12:44:48 2015

Tools Copyright (c) 1996-2012 Texas Instruments Incorporated
package/lib/Regression/regress_d_c/./../packages/ti/vlib/src/VLIB_subtractBackgroundS16/VLIB_subtractBackgroundS16_d.se66 PAGE   11

     551                            .dwcfi  cfa_offset, 48
     552                            .dwcfi  save_reg_to_mem, 13, -36
     553                            .dwcfi  save_reg_to_mem, 12, -40
     554 0000000c 01bdd4f6             STW     .D2T2   B3,*SP--(56)      ; |42| 
     555                            .dwcfi  cfa_offset, 104
     556                            .dwcfi  save_reg_to_mem, 19, 0
     557                    $C$DW$97        .dwtag  DW_TAG_variable, DW_AT_name("$O$C1")
     558                            .dwattr $C$DW$97, DW_AT_TI_symbol_name("$O$C1")
     559                            .dwattr $C$DW$97, DW_AT_type(*$C$DW$T$10)
     560                            .dwattr $C$DW$97, DW_AT_location[DW_OP_reg8]
     561                    $C$DW$98        .dwtag  DW_TAG_variable, DW_AT_name("$O$C2")
     562                            .dwattr $C$DW$98, DW_AT_TI_symbol_name("$O$C2")
     563                            .dwattr $C$DW$98, DW_AT_type(*$C$DW$T$10)
     564                            .dwattr $C$DW$98, DW_AT_location[DW_OP_reg3]
     565                    $C$DW$99        .dwtag  DW_TAG_variable, DW_AT_name("$O$C3")
     566                            .dwattr $C$DW$99, DW_AT_TI_symbol_name("$O$C3")
     567                            .dwattr $C$DW$99, DW_AT_type(*$C$DW$T$9)
     568                            .dwattr $C$DW$99, DW_AT_location[DW_OP_reg8]
     569                    $C$DW$100       .dwtag  DW_TAG_variable, DW_AT_name("$O$C4")
     570                            .dwattr $C$DW$100, DW_AT_TI_symbol_name("$O$C4")
     571                            .dwattr $C$DW$100, DW_AT_type(*$C$DW$T$42)
     572                            .dwattr $C$DW$100, DW_AT_location[DW_OP_reg20]
     573                    $C$DW$101       .dwtag  DW_TAG_variable, DW_AT_name("$O$C5")
     574                            .dwattr $C$DW$101, DW_AT_TI_symbol_name("$O$C5")
     575                            .dwattr $C$DW$101, DW_AT_type(*$C$DW$T$25)
     576                            .dwattr $C$DW$101, DW_AT_location[DW_OP_reg0]
     577                    $C$DW$102       .dwtag  DW_TAG_variable, DW_AT_name("$O$C6")
     578                            .dwattr $C$DW$102, DW_AT_TI_symbol_name("$O$C6")
     579                            .dwattr $C$DW$102, DW_AT_type(*$C$DW$T$9)
     580                            .dwattr $C$DW$102, DW_AT_location[DW_OP_reg8]
     581                    $C$DW$103       .dwtag  DW_TAG_variable, DW_AT_name("$O$C7")
     582                            .dwattr $C$DW$103, DW_AT_TI_symbol_name("$O$C7")
     583                            .dwattr $C$DW$103, DW_AT_type(*$C$DW$T$11)
     584                            .dwattr $C$DW$103, DW_AT_location[DW_OP_reg11]
     585                    $C$DW$104       .dwtag  DW_TAG_variable, DW_AT_name("$O$C8")
     586                            .dwattr $C$DW$104, DW_AT_TI_symbol_name("$O$C8")
     587                            .dwattr $C$DW$104, DW_AT_type(*$C$DW$T$11)
     588                            .dwattr $C$DW$104, DW_AT_location[DW_OP_reg10]
     589                    $C$DW$105       .dwtag  DW_TAG_variable, DW_AT_name("$O$U12")
     590                            .dwattr $C$DW$105, DW_AT_TI_symbol_name("$O$U12")
     591                            .dwattr $C$DW$105, DW_AT_type(*$C$DW$T$42)
     592                            .dwattr $C$DW$105, DW_AT_location[DW_OP_reg13]
     593                    $C$DW$106       .dwtag  DW_TAG_variable, DW_AT_name("$O$K48")
     594                            .dwattr $C$DW$106, DW_AT_TI_symbol_name("$O$K48")
     595                            .dwattr $C$DW$106, DW_AT_type(*$C$DW$T$83)
     596                            .dwattr $C$DW$106, DW_AT_location[DW_OP_reg28]
     597                    $C$DW$107       .dwtag  DW_TAG_variable, DW_AT_name("$O$U11")
     598                            .dwattr $C$DW$107, DW_AT_TI_symbol_name("$O$U11")
     599                            .dwattr $C$DW$107, DW_AT_type(*$C$DW$T$10)
     600                            .dwattr $C$DW$107, DW_AT_location[DW_OP_reg27]
     601                    $C$DW$108       .dwtag  DW_TAG_variable, DW_AT_name("$O$K70")
     602                            .dwattr $C$DW$108, DW_AT_TI_symbol_name("$O$K70")
     603                            .dwattr $C$DW$108, DW_AT_type(*$C$DW$T$163)
     604                            .dwattr $C$DW$108, DW_AT_location[DW_OP_reg12]
     605                    $C$DW$109       .dwtag  DW_TAG_variable, DW_AT_name("$O$U77")
TMS320C6x Assembler PC v7.4.2 Thu Mar 19 12:44:48 2015

Tools Copyright (c) 1996-2012 Texas Instruments Incorporated
package/lib/Regression/regress_d_c/./../packages/ti/vlib/src/VLIB_subtractBackgroundS16/VLIB_subtractBackgroundS16_d.se66 PAGE   12

     606                            .dwattr $C$DW$109, DW_AT_TI_symbol_name("$O$U77")
     607                            .dwattr $C$DW$109, DW_AT_type(*$C$DW$T$10)
     608                            .dwattr $C$DW$109, DW_AT_location[DW_OP_reg11]
     609                    $C$DW$110       .dwtag  DW_TAG_variable, DW_AT_name("$O$U79")
     610                            .dwattr $C$DW$110, DW_AT_TI_symbol_name("$O$U79")
     611                            .dwattr $C$DW$110, DW_AT_type(*$C$DW$T$139)
     612                            .dwattr $C$DW$110, DW_AT_location[DW_OP_reg0]
     613                    $C$DW$111       .dwtag  DW_TAG_variable, DW_AT_name("$O$K88")
     614                            .dwattr $C$DW$111, DW_AT_TI_symbol_name("$O$K88")
     615                            .dwattr $C$DW$111, DW_AT_type(*$C$DW$T$83)
     616                            .dwattr $C$DW$111, DW_AT_location[DW_OP_reg29]
     617                    $C$DW$112       .dwtag  DW_TAG_variable, DW_AT_name("tpi")
     618                            .dwattr $C$DW$112, DW_AT_TI_symbol_name("tpi")
     619                            .dwattr $C$DW$112, DW_AT_type(*$C$DW$T$30)
     620                            .dwattr $C$DW$112, DW_AT_location[DW_OP_reg14]
     621                    $C$DW$113       .dwtag  DW_TAG_variable, DW_AT_name("prm")
     622                            .dwattr $C$DW$113, DW_AT_TI_symbol_name("prm")
     623                            .dwattr $C$DW$113, DW_AT_type(*$C$DW$T$45)
     624                            .dwattr $C$DW$113, DW_AT_location[DW_OP_breg31 20]
     625                    $C$DW$114       .dwtag  DW_TAG_variable, DW_AT_name("status_nat_vs_int")
     626                            .dwattr $C$DW$114, DW_AT_TI_symbol_name("status_nat_vs_int")
     627                            .dwattr $C$DW$114, DW_AT_type(*$C$DW$T$30)
     628                            .dwattr $C$DW$114, DW_AT_location[DW_OP_reg26]
     629                    $C$DW$115       .dwtag  DW_TAG_variable, DW_AT_name("status_nat_vs_ref")
     630                            .dwattr $C$DW$115, DW_AT_TI_symbol_name("status_nat_vs_ref")
     631                            .dwattr $C$DW$115, DW_AT_type(*$C$DW$T$30)
     632                            .dwattr $C$DW$115, DW_AT_location[DW_OP_reg15]
     633                    $C$DW$116       .dwtag  DW_TAG_variable, DW_AT_name("packed_size")
     634                            .dwattr $C$DW$116, DW_AT_TI_symbol_name("packed_size")
     635                            .dwattr $C$DW$116, DW_AT_type(*$C$DW$T$21)
     636                            .dwattr $C$DW$116, DW_AT_location[DW_OP_reg3]
     637                    $C$DW$117       .dwtag  DW_TAG_variable, DW_AT_name("newLuma")
     638                            .dwattr $C$DW$117, DW_AT_TI_symbol_name("newLuma")
     639                            .dwattr $C$DW$117, DW_AT_type(*$C$DW$T$20)
     640                            .dwattr $C$DW$117, DW_AT_location[DW_OP_breg31 24]
     641                    $C$DW$118       .dwtag  DW_TAG_variable, DW_AT_name("prevLuma")
     642                            .dwattr $C$DW$118, DW_AT_TI_symbol_name("prevLuma")
     643                            .dwattr $C$DW$118, DW_AT_type(*$C$DW$T$20)
     644                            .dwattr $C$DW$118, DW_AT_location[DW_OP_breg31 28]
     645                    $C$DW$119       .dwtag  DW_TAG_variable, DW_AT_name("runningMean")
     646                            .dwattr $C$DW$119, DW_AT_TI_symbol_name("runningMean")
     647                            .dwattr $C$DW$119, DW_AT_type(*$C$DW$T$100)
     648                            .dwattr $C$DW$119, DW_AT_location[DW_OP_breg31 32]
     649                    $C$DW$120       .dwtag  DW_TAG_variable, DW_AT_name("runningVar")
     650                            .dwattr $C$DW$120, DW_AT_TI_symbol_name("runningVar")
     651                            .dwattr $C$DW$120, DW_AT_type(*$C$DW$T$100)
     652                            .dwattr $C$DW$120, DW_AT_location[DW_OP_breg31 36]
     653                    $C$DW$121       .dwtag  DW_TAG_variable, DW_AT_name("mask32packed")
     654                            .dwattr $C$DW$121, DW_AT_TI_symbol_name("mask32packed")
     655                            .dwattr $C$DW$121, DW_AT_type(*$C$DW$T$22)
     656                            .dwattr $C$DW$121, DW_AT_location[DW_OP_breg31 40]
     657                    $C$DW$122       .dwtag  DW_TAG_variable, DW_AT_name("mask32packed_cn")
     658                            .dwattr $C$DW$122, DW_AT_TI_symbol_name("mask32packed_cn")
     659                            .dwattr $C$DW$122, DW_AT_type(*$C$DW$T$22)
     660                            .dwattr $C$DW$122, DW_AT_location[DW_OP_breg31 44]
TMS320C6x Assembler PC v7.4.2 Thu Mar 19 12:44:48 2015

Tools Copyright (c) 1996-2012 Texas Instruments Incorporated
package/lib/Regression/regress_d_c/./../packages/ti/vlib/src/VLIB_subtractBackgroundS16/VLIB_subtractBackgroundS16_d.se66 PAGE   13

     661                    $C$DW$123       .dwtag  DW_TAG_variable, DW_AT_name("$O$v1")
     662                            .dwattr $C$DW$123, DW_AT_TI_symbol_name("$O$v1")
     663                            .dwattr $C$DW$123, DW_AT_type(*$C$DW$T$45)
     664                            .dwattr $C$DW$123, DW_AT_location[DW_OP_reg20]
     665                    $C$DW$124       .dwtag  DW_TAG_variable, DW_AT_name("$O$v1")
     666                            .dwattr $C$DW$124, DW_AT_TI_symbol_name("$O$v1")
     667                            .dwattr $C$DW$124, DW_AT_type(*$C$DW$T$45)
     668                            .dwattr $C$DW$124, DW_AT_location[DW_OP_reg20]
     669                    $C$DW$125       .dwtag  DW_TAG_variable, DW_AT_name("$O$v2")
     670                            .dwattr $C$DW$125, DW_AT_TI_symbol_name("$O$v2")
     671                            .dwattr $C$DW$125, DW_AT_type(*$C$DW$T$164)
     672                            .dwattr $C$DW$125, DW_AT_location[DW_OP_reg24]
     673                    $C$DW$126       .dwtag  DW_TAG_variable, DW_AT_name("$O$v2")
     674                            .dwattr $C$DW$126, DW_AT_TI_symbol_name("$O$v2")
     675                            .dwattr $C$DW$126, DW_AT_type(*$C$DW$T$164)
     676                            .dwattr $C$DW$126, DW_AT_location[DW_OP_reg20]
     677 00000010 05000028!            MVKL    .S1     test_cases,A10
     678 00000014 05000068!            MVKH    .S1     test_cases,A10
     679                            .dwpsn  file "./../packages/ti/vlib/src/VLIB_subtractBackgroundS16/VLIB_subtractBackgroundS16_
     680                    ;----------------------------------------------------------------------
     681                    ;  48 | subtractBackgroundS16_getTestParams(&prm, &test_cases);                
     682                    ;----------------------------------------------------------------------
     683 00000018     a636             ADDAW   .D1X    SP,5,A4           ; |48| 
     684                    $C$DW$127       .dwtag  DW_TAG_TI_branch
     685                            .dwattr $C$DW$127, DW_AT_low_pc(0x00)
     686                            .dwattr $C$DW$127, DW_AT_name("subtractBackgroundS16_getTestParams")
     687                            .dwattr $C$DW$127, DW_AT_TI_call
     688                    
     689 00000020 10000012!            CALLP   .S2     subtractBackgroundS16_getTestParams,B3
     690 0000001a     9507  ||         MV      .L2X    A10,B4            ; |48| 
     691                    
     692 00000024           $C$RL0:    ; CALL OCCURS {subtractBackgroundS16_getTestParams} {0}  ; |48| 
     693                    ;** --------------------------------------------------------------------------*
     694                    ;          EXCLUSIVE CPU CYCLES: 8
     695 00000024 0200002a!            MVKL    .S2     $C$SL1+0,B4
     696 00000028 0200006a!            MVKH    .S2     $C$SL1+0,B4
     697                    $C$DW$128       .dwtag  DW_TAG_TI_branch
     698                            .dwattr $C$DW$128, DW_AT_low_pc(0x00)
     699                            .dwattr $C$DW$128, DW_AT_name("VLIB_profile_init")
     700                            .dwattr $C$DW$128, DW_AT_TI_call
     701                    
     702 0000002c 10000013!            CALLP   .S2     VLIB_profile_init,B3
     703 00000030 0208a358  ||         MVK     .L1     0x2,A4            ; |51| 
     704                    
     705                            .dwpsn  file "./../packages/ti/vlib/src/VLIB_subtractBackgroundS16/VLIB_subtractBackgroundS16_
     706                    ;----------------------------------------------------------------------
     707                    ;  51 | VLIB_profile_init(2, "VLIB_subtractBackgroundS16");                    
     708                    ;----------------------------------------------------------------------
     709 00000034           $C$RL1:    ; CALL OCCURS {VLIB_profile_init} {0}  ; |51| 
     710                    ;** --------------------------------------------------------------------------*
     711                    ;          EXCLUSIVE CPU CYCLES: 12
     712                            .dwpsn  file "./../packages/ti/vlib/src/VLIB_subtractBackgroundS16/VLIB_subtractBackgroundS16_
     713                    ;----------------------------------------------------------------------
     714                    ;  54 | for( tpi=0; tpi < test_cases; tpi++ ) {                                
     715                    ;----------------------------------------------------------------------
TMS320C6x Assembler PC v7.4.2 Thu Mar 19 12:44:48 2015

Tools Copyright (c) 1996-2012 Texas Instruments Incorporated
package/lib/Regression/regress_d_c/./../packages/ti/vlib/src/VLIB_subtractBackgroundS16/VLIB_subtractBackgroundS16_d.se66 PAGE   14

     716 00000034 01a80264             LDW     .D1T1   *A10,A3           ; |54| 
     717 00000038 023ca2e4             LDW     .D2T1   *+SP(20),A4
     718                            .dwpsn  file "./../packages/ti/vlib/src/VLIB_subtractBackgroundS16/VLIB_subtractBackgroundS16_
     719                    ;----------------------------------------------------------------------
     720                    ;  57 | int32_t    status_nat_vs_int = vlib_KERNEL_PASS; /* Test status : Natur
     721                    ;     | al c vs. Optimized */                                                  
     722                    ;  58 | int32_t    status_nat_vs_ref = vlib_KERNEL_PASS; /* Test status : Natur
     723                    ;     | al c vs. Static Reference */                                           
     724                    ;----------------------------------------------------------------------
     725 0000003c 0580a35a             ZERO    .L2     B11               ; |54| 
     726 00000040 0700a358             ZERO    .L1     A14               ; |54| 
     727 00000044 0680002a!            MVKL    .S2     desc,B13
     728                            .dwpsn  file "./../packages/ti/vlib/src/VLIB_subtractBackgroundS16/VLIB_subtractBackgroundS16_
     729 00000048 000c0ad8             CMPGT   .L1     A3,0,A0           ; |54| 
     730                    
     731 0000004c d0008c91     [!A0]   B       .S1     $C$L7             ; |54| 
     732 00000050 069309c0  ||         SUB     .D1     A4,24,A13
     733                    
     734                            .dwpsn  file "./../packages/ti/vlib/src/VLIB_subtractBackgroundS16/VLIB_subtractBackgroundS16_
     735                    ;----------------------------------------------------------------------
     736                    ;  61 | uint32_t    packed_size =   (prm[tpi].PixelCount + 31) / 32;           
     737                    ;----------------------------------------------------------------------
     738 00000054 06800c50             ADDK    .S1     24,A13            ; |61| 
     739 00000058 c534a264     [ A0]   LDW     .D1T1   *+A13(20),A10     ; |61| 
     740 0000005c 0680006a!            MVKH    .S2     desc,B13
     741 00000060     2c6e             NOP             2
     742                            .dwpsn  file "./../packages/ti/vlib/src/VLIB_subtractBackgroundS16/VLIB_subtractBackgroundS16_
     743                               ; BRANCHCC OCCURS {$C$L7}         ; |54| 
     744                    ;** --------------------------------------------------------------------------*
     745                    ;          EXCLUSIVE CPU CYCLES: 2
     746                    ;**     -----------------------    K$88 = &desc[0];
     747                    ;**     -----------------------    U$12 = prm-24;
     748                    ;**     -----------------------    U$11 = 0;
     749                    ;** 54  -----------------------    tpi = 0;
     750                    ;**     -----------------------    #pragma LOOP_FLAGS(5120u)
     751 00000062     0c6e             NOP             1
     752                            .dwpsn  file "./../packages/ti/vlib/src/VLIB_subtractBackgroundS16/VLIB_subtractBackgroundS16_
     753                    ;----------------------------------------------------------------------
     754                    ;  64 | uint8_t    *newLuma         =  (uint8_t *) VLIB_malloc(prm[tpi].PixelCo
     755                    ;     | unt * sizeof(uint8_t));                                                
     756                    ;----------------------------------------------------------------------
     757 00000064 02280fd8             MV      .L1     A10,A4            ; |64| 
     758                    ;*----------------------------------------------------------------------------*
     759                    ;*   SOFTWARE PIPELINE INFORMATION
     760                    ;*      Disqualified loop: Loop contains a call
     761                    ;*      Disqualified loop: Loop contains non-pipelinable instructions
     762                    ;*      Disqualified loop: Loop contains a call
     763                    ;*      Disqualified loop: Loop contains non-pipelinable instructions
     764                    ;*      Disqualified loop: Loop contains a call
     765                    ;*      Disqualified loop: Loop contains non-pipelinable instructions
     766                    ;*      Disqualified loop: Loop contains a call
     767                    ;*      Disqualified loop: Loop contains non-pipelinable instructions
     768                    ;*      Disqualified loop: Loop contains a call
     769                    ;*      Disqualified loop: Loop contains non-pipelinable instructions
     770                    ;*      Disqualified loop: Loop contains a call
TMS320C6x Assembler PC v7.4.2 Thu Mar 19 12:44:48 2015

Tools Copyright (c) 1996-2012 Texas Instruments Incorporated
package/lib/Regression/regress_d_c/./../packages/ti/vlib/src/VLIB_subtractBackgroundS16/VLIB_subtractBackgroundS16_d.se66 PAGE   15

     771                    ;*      Disqualified loop: Loop contains non-pipelinable instructions
     772                    ;*      Disqualified loop: Loop contains control code
     773                    ;*----------------------------------------------------------------------------*
     774 00000068           $C$L1:    
     775                            .dwpsn  file "./../packages/ti/vlib/src/VLIB_subtractBackgroundS16/VLIB_subtractBackgroundS16_
     776 00000068           $C$DW$L$VLIB_subtractBackgroundS16_d$5$B:
     777                    ;          EXCLUSIVE CPU CYCLES: 6
     778                    ;**     -----------------------g3:
     779                    ;** 61  -----------------------    C$8 = (*(U$12 += 24)).PixelCount;
     780                    ;** 61  -----------------------    packed_size = C$8+31u>>5;
     781                    ;** 64  -----------------------    newLuma = VLIB_malloc(C$8);
     782                    ;** 65  -----------------------    prevLuma = malloc((*U$12).PixelCount);
     783                    ;** 66  -----------------------    runningMean = VLIB_malloc((*U$12).PixelCount*2u);
     784                    ;** 67  -----------------------    runningVar = VLIB_malloc((*U$12).PixelCount*2u);
     785                    ;** 68  -----------------------    C$7 = packed_size*4u;
     786                    ;** 68  -----------------------    mask32packed = VLIB_malloc(C$7);
     787                    ;** 69  -----------------------    U$26 = C$7;
     788                    ;** 69  -----------------------    mask32packed_cn = malloc(U$26);
     789                    ;** 72  -----------------------    if ( !((newLuma != NULL)&(prevLuma != NULL)&(runningMean != NULL)&(
     790                            .dwpsn  file "./../packages/ti/vlib/src/VLIB_subtractBackgroundS16/VLIB_subtractBackgroundS16_
     791                    $C$DW$129       .dwtag  DW_TAG_TI_branch
     792                            .dwattr $C$DW$129, DW_AT_low_pc(0x00)
     793                            .dwattr $C$DW$129, DW_AT_name("VLIB_malloc")
     794                            .dwattr $C$DW$129, DW_AT_TI_call
     795 00000068 00000010!            CALL    .S1     VLIB_malloc       ; |64| 
     796 0000006c 01848162             ADDKPC  .S2     $C$RL2,B3,4       ; |64| 
     797 00000070           $C$RL2:    ; CALL OCCURS {VLIB_malloc} {0}   ; |64| 
     798 00000070           $C$DW$L$VLIB_subtractBackgroundS16_d$5$E:
     799                    ;** --------------------------------------------------------------------------*
     800 00000070           $C$DW$L$VLIB_subtractBackgroundS16_d$6$B:
     801                    ;          EXCLUSIVE CPU CYCLES: 44
     802 00000070 023cc2f4             STW     .D2T1   A4,*+SP(24)       ; |64| 
     803                    $C$DW$130       .dwtag  DW_TAG_TI_branch
     804                            .dwattr $C$DW$130, DW_AT_low_pc(0x00)
     805                            .dwattr $C$DW$130, DW_AT_name("malloc")
     806                            .dwattr $C$DW$130, DW_AT_TI_call
     807                    
     808 00000074 10000013!            CALLP   .S2     malloc,B3
     809 00000078 0234a264  ||         LDW     .D1T1   *+A13(20),A4      ; |65| 
     810                    
     811                            .dwpsn  file "./../packages/ti/vlib/src/VLIB_subtractBackgroundS16/VLIB_subtractBackgroundS16_
     812                    ;----------------------------------------------------------------------
     813                    ;  65 | uint8_t    *prevLuma        =  (uint8_t *) malloc(prm[tpi].PixelCount *
     814                    ;     |  sizeof(uint8_t));                                                     
     815                    ;----------------------------------------------------------------------
     816 00000080           $C$RL3:    ; CALL OCCURS {malloc} {0}        ; |65| 
     817                            .dwpsn  file "./../packages/ti/vlib/src/VLIB_subtractBackgroundS16/VLIB_subtractBackgroundS16_
     818                    ;----------------------------------------------------------------------
     819                    ;  66 | int16_t    *runningMean     =  (int16_t *) VLIB_malloc(prm[tpi].PixelCo
     820                    ;     | unt * sizeof(int16_t));                                                
     821                    ;----------------------------------------------------------------------
     822 00000080 01b4a264             LDW     .D1T1   *+A13(20),A3      ; |66| 
     823                            .dwpsn  file "./../packages/ti/vlib/src/VLIB_subtractBackgroundS16/VLIB_subtractBackgroundS16_
     824 00000084     ecc5             STW     .D2T1   A4,*+SP(28)       ; |65| 
     825 00000086     4c6e             NOP             3
TMS320C6x Assembler PC v7.4.2 Thu Mar 19 12:44:48 2015

Tools Copyright (c) 1996-2012 Texas Instruments Incorporated
package/lib/Regression/regress_d_c/./../packages/ti/vlib/src/VLIB_subtractBackgroundS16/VLIB_subtractBackgroundS16_d.se66 PAGE   16

     826                    $C$DW$131       .dwtag  DW_TAG_TI_branch
     827                            .dwattr $C$DW$131, DW_AT_low_pc(0x04)
     828                            .dwattr $C$DW$131, DW_AT_name("VLIB_malloc")
     829                            .dwattr $C$DW$131, DW_AT_TI_call
     830                    
     831 0000008c 020c6078             ADD     .L1     A3,A3,A4          ; |66| 
     832 00000088 10000013! ||         CALLP   .S2     VLIB_malloc,B3
     833                    
     834                            .dwpsn  file "./../packages/ti/vlib/src/VLIB_subtractBackgroundS16/VLIB_subtractBackgroundS16_
     835 00000090           $C$RL4:    ; CALL OCCURS {VLIB_malloc} {0}   ; |66| 
     836                            .dwpsn  file "./../packages/ti/vlib/src/VLIB_subtractBackgroundS16/VLIB_subtractBackgroundS16_
     837                    ;----------------------------------------------------------------------
     838                    ;  67 | int16_t    *runningVar      =  (int16_t *) VLIB_malloc(prm[tpi].PixelCo
     839                    ;     | unt * sizeof(int16_t));                                                
     840                    ;----------------------------------------------------------------------
     841 00000090 01b4a264             LDW     .D1T1   *+A13(20),A3      ; |67| 
     842                            .dwpsn  file "./../packages/ti/vlib/src/VLIB_subtractBackgroundS16/VLIB_subtractBackgroundS16_
     843 00000094     8d45             STW     .D2T1   A4,*+SP(32)       ; |66| 
     844 00000096     4c6e             NOP             3
     845                    $C$DW$132       .dwtag  DW_TAG_TI_branch
     846                            .dwattr $C$DW$132, DW_AT_low_pc(0x04)
     847                            .dwattr $C$DW$132, DW_AT_name("VLIB_malloc")
     848                            .dwattr $C$DW$132, DW_AT_TI_call
     849                    
     850 000000a0 020c6078             ADD     .L1     A3,A3,A4          ; |67| 
     851 00000098 10000013! ||         CALLP   .S2     VLIB_malloc,B3
     852                    
     853                            .dwpsn  file "./../packages/ti/vlib/src/VLIB_subtractBackgroundS16/VLIB_subtractBackgroundS16_
     854 000000a4           $C$RL5:    ; CALL OCCURS {VLIB_malloc} {0}   ; |67| 
     855                            .dwpsn  file "./../packages/ti/vlib/src/VLIB_subtractBackgroundS16/VLIB_subtractBackgroundS16_
     856 000000a4 01abe940             ADD     .D1     A10,31,A3         ; |61| 
     857 000000a8 018ca9a0             SHRU    .S1     A3,5,A3           ; |61| 
     858                            .dwpsn  file "./../packages/ti/vlib/src/VLIB_subtractBackgroundS16/VLIB_subtractBackgroundS16_
     859                    ;----------------------------------------------------------------------
     860                    ;  68 | uint32_t   *mask32packed    =  (uint32_t *) VLIB_malloc(packed_size * 4
     861                    ;     | );                                                                     
     862                    ;----------------------------------------------------------------------
     863 000000ac 058c4ca0             SHL     .S1     A3,2,A11          ; |68| 
     864                    $C$DW$133       .dwtag  DW_TAG_TI_branch
     865                            .dwattr $C$DW$133, DW_AT_low_pc(0x00)
     866                            .dwattr $C$DW$133, DW_AT_name("VLIB_malloc")
     867                            .dwattr $C$DW$133, DW_AT_TI_call
     868                    
     869 000000b0 10000013!            CALLP   .S2     VLIB_malloc,B3
     870 000000b4     ad45  ||         STW     .D2T1   A4,*+SP(36)       ; |67| 
     871 000000b6     8586  ||         MV      .L1     A11,A4            ; |68| 
     872                    
     873                    $C$RL6:    ; CALL OCCURS {VLIB_malloc} {0}   ; |68| 
     874                    $C$DW$134       .dwtag  DW_TAG_TI_branch
     875                            .dwattr $C$DW$134, DW_AT_low_pc(0x00)
     876                            .dwattr $C$DW$134, DW_AT_name("malloc")
     877                            .dwattr $C$DW$134, DW_AT_TI_call
     878                    
     879 000000c0 10000013!            CALLP   .S2     malloc,B3
     880 000000c4     cd45  ||         STW     .D2T1   A4,*+SP(40)       ; |68| 
TMS320C6x Assembler PC v7.4.2 Thu Mar 19 12:44:48 2015

Tools Copyright (c) 1996-2012 Texas Instruments Incorporated
package/lib/Regression/regress_d_c/./../packages/ti/vlib/src/VLIB_subtractBackgroundS16/VLIB_subtractBackgroundS16_d.se66 PAGE   17

     881 000000c6     8586  ||         MV      .L1     A11,A4            ; |69| 
     882                    
     883                            .dwpsn  file "./../packages/ti/vlib/src/VLIB_subtractBackgroundS16/VLIB_subtractBackgroundS16_
     884                    ;----------------------------------------------------------------------
     885                    ;  69 | uint32_t   *mask32packed_cn =  (uint32_t *) malloc(packed_size * 4);   
     886                    ;----------------------------------------------------------------------
     887 000000c8           $C$RL7:    ; CALL OCCURS {malloc} {0}        ; |69| 
     888 000000c8           $C$DW$L$VLIB_subtractBackgroundS16_d$6$E:
     889                    ;** --------------------------------------------------------------------------*
     890 000000c8           $C$DW$L$VLIB_subtractBackgroundS16_d$7$B:
     891                    ;          EXCLUSIVE CPU CYCLES: 19
     892                    
     893 000000c8     cc8d             LDW     .D2T1   *+SP(24),A0       ; |72| 
     894 000000ca     06a7  ||         ZERO    .L2     B5                ; |72| 
     895 000000cc     0213  ||         ZERO    .S2     B4                ; |72| 
     896 000000ce     05a6  ||         ZERO    .L1     A3                ; |72| 
     897                    
     898                            .dwpsn  file "./../packages/ti/vlib/src/VLIB_subtractBackgroundS16/VLIB_subtractBackgroundS16_
     899                    ;----------------------------------------------------------------------
     900                    ;  72 | if( newLuma && prevLuma && runningMean && runningVar && mask32packed &&
     901                    ;     |  mask32packed_cn ) {                                                   
     902                    ;  74 |     int32_t    fail;                                                   
     903                    ;----------------------------------------------------------------------
     904 000000d0     fc8d             LDW     .D2T2   *+SP(28),B0       ; |72| 
     905 000000d2     8d1d             LDW     .D2T1   *+SP(32),A1       ; |72| 
     906 000000d4     ad2d             LDW     .D2T1   *+SP(36),A2       ; |72| 
     907 000000d6     dd2d             LDW     .D2T2   *+SP(40),B2       ; |72| 
     908                    
     909 000000d8     ed45             STW     .D2T1   A4,*+SP(44)       ; |69| 
     910 000000da     2ae7  || [ A0]   MVK     .L2     0x1,B5            ; |72| 
     911 000000e0     0626  ||         ZERO    .L1     A4                ; |72| 
     912                    
     913 000000e2     ed0d             LDW     .D2T1   *+SP(44),A0       ; |72| 
     914 000000e4     aa67  || [ B0]   MVK     .L2     0x1,B4            ; |72| 
     915                    
     916 000000ec 8204a358     [ A1]   MVK     .L1     0x1,A4            ; |72| 
     917 000000e8 02948f7b  ||         AND     .L2     B4,B5,B5          ; |72| 
     918 000000e6     0213  ||         ZERO    .S2     B4                ; |72| 
     919                    
     920 000000f0 a204a35a     [ A2]   MVK     .L2     0x1,B4            ; |72| 
     921                    
     922 000000f4 0290bf7b             AND     .L2X    A4,B5,B5          ; |72| 
     923 000000f8 6184a358  || [ B2]   MVK     .L1     0x1,A3            ; |72| 
     924                    
     925 00000100 02948f7b             AND     .L2     B4,B5,B5          ; |72| 
     926 00000104     0213  ||         ZERO    .S2     B4                ; |72| 
     927                    
     928 00000106     2a67     [ A0]   MVK     .L2     0x1,B4            ; |72| 
     929 00000108 028cb7e2  ||         AND     .S2X    A3,B5,B5          ; |72| 
     930                    
     931 0000010c     8689             AND     .L2     B4,B5,B0          ; |72| 
     932                    
     933 00000120 30bc6120     [!B0]   BNOP    .S1     $C$L5,3           ; |72| 
     934 00000110 20344265  || [ B0]   LDW     .D1T1   *+A13(8),A0       ; |77| 
     935 00000114 223ca2e7  || [ B0]   LDW     .D2T2   *+SP(20),B4       ; |77| 
TMS320C6x Assembler PC v7.4.2 Thu Mar 19 12:44:48 2015

Tools Copyright (c) 1996-2012 Texas Instruments Incorporated
package/lib/Regression/regress_d_c/./../packages/ti/vlib/src/VLIB_subtractBackgroundS16/VLIB_subtractBackgroundS16_d.se66 PAGE   18

     936 00000118 2600002b! || [ B0]   MVKL    .S2     testPatternString,B12
     937 0000010e     c866  || [!B0]   ZERO    .L1     A0                ; |77| nullify predicate
     938                    
     939 00000124 2600006a!    [ B0]   MVKH    .S2     testPatternString,B12
     940                            .dwpsn  file "./../packages/ti/vlib/src/VLIB_subtractBackgroundS16/VLIB_subtractBackgroundS16_
     941                    ;----------------------------------------------------------------------
     942                    ;  77 | if( prm[tpi].staticInPrevLuma ) {                                      
     943                    ;----------------------------------------------------------------------
     944 00000128 c0000d90     [ A0]   B       .S1     $C$L2             ; |77| 
     945                            .dwpsn  file "./../packages/ti/vlib/src/VLIB_subtractBackgroundS16/VLIB_subtractBackgroundS16_
     946                               ; BRANCHCC OCCURS {$C$L5}         ; |72| 
     947 0000012c           $C$DW$L$VLIB_subtractBackgroundS16_d$7$E:
     948                    ;** --------------------------------------------------------------------------*
     949 0000012c           $C$DW$L$VLIB_subtractBackgroundS16_d$8$B:
     950                    ;          EXCLUSIVE CPU CYCLES: 5
     951                    ;** 77  -----------------------    v$1 = prm;
     952                    ;**     -----------------------    K$48 = &testPatternString[0];
     953                    ;** 77  -----------------------    C$5 = (*U$12).staticInPrevLuma;
     954                    ;** 77  -----------------------    if ( C$5 ) goto g6;
     955                    
     956 0000012c d4354205     [!A0]   LDHU    .D1T1   *+A13(20),A8      ; |80| 
     957 00000130 d204a35b  || [!A0]   MVK     .L2     0x1,B4            ; |80| 
     958 00000134 c22c81e2  || [ A0]   ADD     .S2     B4,B11,B4         ; |78| 
     959                    
     960                    $C$DW$135       .dwtag  DW_TAG_TI_branch
     961                            .dwattr $C$DW$135, DW_AT_low_pc(0x00)
     962                            .dwattr $C$DW$135, DW_AT_name("VLIB_fillBuffer")
     963                            .dwattr $C$DW$135, DW_AT_TI_call
     964                    
     965 00000138 d0000011!    [!A0]   CALL    .S1     VLIB_fillBuffer   ; |80| 
     966 0000013c d33ce2e4  || [!A0]   LDW     .D2T1   *+SP(28),A6       ; |80| 
     967                    
     968                            .dwpsn  file "./../packages/ti/vlib/src/VLIB_subtractBackgroundS16/VLIB_subtractBackgroundS16_
     969                    ;----------------------------------------------------------------------
     970                    ;  78 | memcpy(prevLuma, prm[tpi].staticInPrevLuma, prm[tpi].PixelCount);      
     971                    ;  79 | } else {                                                               
     972                    ;----------------------------------------------------------------------
     973 00000140 c310a2e4     [ A0]   LDW     .D2T1   *+B4(20),A6       ; |78| 
     974                    $C$DW$136       .dwtag  DW_TAG_TI_branch
     975                            .dwattr $C$DW$136, DW_AT_low_pc(0x04)
     976                            .dwattr $C$DW$136, DW_AT_name("memcpy")
     977                            .dwattr $C$DW$136, DW_AT_TI_call
     978                    
     979 00000144 c21042e7     [ A0]   LDW     .D2T2   *+B4(8),B4        ; |78| 
     980 00000148 c0000010! || [ A0]   CALL    .S1     memcpy            ; |78| 
     981                    
     982 0000014c c23ce2e4     [ A0]   LDW     .D2T1   *+SP(28),A4       ; |78| 
     983                            .dwpsn  file "./../packages/ti/vlib/src/VLIB_subtractBackgroundS16/VLIB_subtractBackgroundS16_
     984                               ; BRANCHCC OCCURS {$C$L2}         ; |77| 
     985 00000150           $C$DW$L$VLIB_subtractBackgroundS16_d$8$E:
     986                    ;** --------------------------------------------------------------------------*
     987 00000150           $C$DW$L$VLIB_subtractBackgroundS16_d$9$B:
     988                    ;          EXCLUSIVE CPU CYCLES: 2
     989                    ;** 80  -----------------------    C$6 = (unsigned short)(*U$12).PixelCount;
     990                    ;** 80  -----------------------    VLIB_fillBuffer(3u, 1u, (void *)prevLuma, (void *)C$5, C$6, 1u, C$6
TMS320C6x Assembler PC v7.4.2 Thu Mar 19 12:44:48 2015

Tools Copyright (c) 1996-2012 Texas Instruments Incorporated
package/lib/Regression/regress_d_c/./../packages/ti/vlib/src/VLIB_subtractBackgroundS16/VLIB_subtractBackgroundS16_d.se66 PAGE   19

     991                    ;** 80  -----------------------    goto g7;
     992                            .dwpsn  file "./../packages/ti/vlib/src/VLIB_subtractBackgroundS16/VLIB_subtractBackgroundS16_
     993                    ;----------------------------------------------------------------------
     994                    ;  80 | VLIB_fillBuffer(RANDOM,                                                
     995                    ;  81 |                 (uint8_t)1,                                            
     996                    ;  82 |                 prevLuma, prm[tpi].staticInPrevLuma,                   
     997                    ;  83 |                 prm[tpi].PixelCount, 1, prm[tpi].PixelCount * sizeof(pr
     998                    ;     | evLuma[0]),                                                            
     999                    ;  84 |                 sizeof(prevLuma[0]), testPatternString);               
    1000                    ;----------------------------------------------------------------------
    1001 00000150     0647             MV      .L2     B4,B8             ; |80| 
    1002                    
    1003 00000154 06301fd9             MV      .L1X    B12,A12           ; |80| 
    1004 00000152     d047  ||         MV      .L2X    A0,B6             ; |80| 
    1005 00000158 018a0163  ||         ADDKPC  .S2     $C$RL8,B3,0       ; |80| 
    1006 00000160     6212  ||         MVK     .S1     0x3,A4            ; |80| 
    1007 00000162     4657  ||         MV      .D2     B4,B10            ; |80| 
    1008 00000164 052008f0  ||         MV      .D1     A8,A10            ; |80| 
    1009                    
    1010 00000168           $C$RL8:    ; CALL OCCURS {VLIB_fillBuffer} {0}  ; |80| 
    1011 00000168           $C$DW$L$VLIB_subtractBackgroundS16_d$9$E:
    1012                    ;** --------------------------------------------------------------------------*
    1013 00000168           $C$DW$L$VLIB_subtractBackgroundS16_d$10$B:
    1014                    ;          EXCLUSIVE CPU CYCLES: 6
    1015                    
    1016 00000168 00000991             B       .S1     $C$L3             ; |80| 
    1017 0000016c 02340214  ||         LDBU    .D1T1   *A13,A4           ; |87| 
    1018                    
    1019                    $C$DW$137       .dwtag  DW_TAG_TI_branch
    1020                            .dwattr $C$DW$137, DW_AT_low_pc(0x00)
    1021                            .dwattr $C$DW$137, DW_AT_name("VLIB_fillBuffer")
    1022                            .dwattr $C$DW$137, DW_AT_TI_call
    1023                    
    1024 00000170 00000011!            CALL    .S1     VLIB_fillBuffer   ; |87| 
    1025 00000174 04354204  ||         LDHU    .D1T1   *+A13(20),A8      ; |87| 
    1026                    
    1027 00000180 033cc2e4             LDW     .D2T1   *+SP(24),A6       ; |87| 
    1028 00000178 03342267  ||         LDW     .D1T2   *+A13(4),B6       ; |87| 
    1029                    
    1030                            .dwpsn  file "./../packages/ti/vlib/src/VLIB_subtractBackgroundS16/VLIB_subtractBackgroundS16_
    1031                    ;----------------------------------------------------------------------
    1032                    ;  87 | VLIB_fillBuffer(prm[tpi].testPattern,                                  
    1033                    ;----------------------------------------------------------------------
    1034 00000184 0404a35a             MVK     .L2     0x1,B8            ; |87| 
    1035 00000188 00002000             NOP             2
    1036                            .dwpsn  file "./../packages/ti/vlib/src/VLIB_subtractBackgroundS16/VLIB_subtractBackgroundS16_
    1037                               ; BRANCH OCCURS {$C$L3}           ; |80| 
    1038 0000018c           $C$DW$L$VLIB_subtractBackgroundS16_d$10$E:
    1039                    ;** --------------------------------------------------------------------------*
    1040 0000018c           $C$L2:    
    1041                            .dwpsn  file "./../packages/ti/vlib/src/VLIB_subtractBackgroundS16/VLIB_subtractBackgroundS16_
    1042 0000018c           $C$DW$L$VLIB_subtractBackgroundS16_d$11$B:
    1043                    ;          EXCLUSIVE CPU CYCLES: 10
    1044                    ;**     -----------------------g6:
    1045                    ;** 78  -----------------------    C$4 = U$11+v$1;
TMS320C6x Assembler PC v7.4.2 Thu Mar 19 12:44:48 2015

Tools Copyright (c) 1996-2012 Texas Instruments Incorporated
package/lib/Regression/regress_d_c/./../packages/ti/vlib/src/VLIB_subtractBackgroundS16/VLIB_subtractBackgroundS16_d.se66 PAGE   20

    1046                    ;** 78  -----------------------    memcpy((void *)prevLuma, (*C$4).staticInPrevLuma, (*C$4).PixelCount
    1047                            .dwpsn  file "./../packages/ti/vlib/src/VLIB_subtractBackgroundS16/VLIB_subtractBackgroundS16_
    1048 0000018c 01846162             ADDKPC  .S2     $C$RL9,B3,3       ; |78| 
    1049 00000190           $C$RL9:    ; CALL OCCURS {memcpy} {0}        ; |78| 
    1050                            .dwpsn  file "./../packages/ti/vlib/src/VLIB_subtractBackgroundS16/VLIB_subtractBackgroundS16_
    1051                    ;----------------------------------------------------------------------
    1052                    ;  88 | (uint8_t)1,                                                            
    1053                    ;  89 | newLuma, prm[tpi].staticInLuma,                                        
    1054                    ;  90 | prm[tpi].PixelCount, 1, prm[tpi].PixelCount * sizeof(newLuma[0]),      
    1055                    ;  91 | sizeof(newLuma[0]), testPatternString);                                
    1056                    ;----------------------------------------------------------------------
    1057 00000190 04354204             LDHU    .D1T1   *+A13(20),A8      ; |87| 
    1058                    $C$DW$138       .dwtag  DW_TAG_TI_branch
    1059                            .dwattr $C$DW$138, DW_AT_low_pc(0x00)
    1060                            .dwattr $C$DW$138, DW_AT_name("VLIB_fillBuffer")
    1061                            .dwattr $C$DW$138, DW_AT_TI_call
    1062                    
    1063 00000194 00000011!            CALL    .S1     VLIB_fillBuffer   ; |87| 
    1064 00000198 033cc2e5  ||         LDW     .D2T1   *+SP(24),A6       ; |87| 
    1065 0000019c 03342266  ||         LDW     .D1T2   *+A13(4),B6       ; |87| 
    1066                    
    1067 000001a0 02340214             LDBU    .D1T1   *A13,A4           ; |87| 
    1068 000001a4 0404a35a             MVK     .L2     0x1,B8            ; |87| 
    1069 000001a8 00002000             NOP             2
    1070 000001ac           $C$DW$L$VLIB_subtractBackgroundS16_d$11$E:
    1071                    ;** --------------------------------------------------------------------------*
    1072 000001ac           $C$L3:    
    1073                            .dwpsn  file "./../packages/ti/vlib/src/VLIB_subtractBackgroundS16/VLIB_subtractBackgroundS16_
    1074 000001ac           $C$DW$L$VLIB_subtractBackgroundS16_d$12$B:
    1075                    ;          EXCLUSIVE CPU CYCLES: 1
    1076                    ;**     -----------------------g7:
    1077                    ;** 87  -----------------------    C$3 = (unsigned short)(*U$12).PixelCount;
    1078                    ;** 87  -----------------------    VLIB_fillBuffer((*U$12).testPattern, 1u, (void *)newLuma, (*U$12).s
    1079                    ;** 95  -----------------------    VLIB_initMeanWithLumaS16_cn(runningMean, prevLuma, (*U$12).PixelCou
    1080                    ;** 99  -----------------------    VLIB_initVarWithConstS16_cn(runningVar, (*U$12).thresholdGlobal, (*
    1081                    ;** 137 -----------------------    act_kernel = 0;  // [15]
    1082                    ;** 140 -----------------------    VLIB_cache_inval();  // [15]
    1083                    ;** 143 -----------------------    initStack(getSP());  // [15]
    1084                    ;** 146 -----------------------    beg_count = _itoll(TSCH, TSCL);  // [15]
    1085                    ;** 103 -----------------------    VLIB_subtractBackgroundS16(mask32packed, newLuma, runningMean, runn
    1086                    ;** 153 -----------------------    v$2 = _itoll(TSCH, TSCL);  // [16]
    1087                    ;** 153 -----------------------    end_count = v$2;  // [16]
    1088                    ;**     -----------------------    K$70 = &cycles[0];
    1089                    ;** 156 -----------------------    C$2 = act_kernel;  // [16]
    1090                    ;** 156 -----------------------    *((C$2<<3)+K$70) = *((C$2<<3)+K$70)+(v$2-(beg_count+overhead));  //
    1091                    ;** 159 -----------------------    setStackDepth();  // [16]
    1092                    ;** 137 -----------------------    act_kernel = 1;  // [15]
    1093                    ;** 140 -----------------------    VLIB_cache_inval();  // [15]
    1094                    ;** 143 -----------------------    initStack(getSP());  // [15]
    1095                    
    1096 000001ac 06301fd9             MV      .L1X    B12,A12           ; |87| 
    1097 000001b0 01880163  ||         ADDKPC  .S2     $C$RL10,B3,0      ; |87| 
    1098 000001b4 02200fdb  ||         MV      .L2     B8,B4             ; |87| 
    1099 000001b8 052008f3  ||         MV      .D2     B8,B10            ; |87| 
    1100 000001bc 052006a0  ||         MV      .S1     A8,A10            ; |87| 
TMS320C6x Assembler PC v7.4.2 Thu Mar 19 12:44:48 2015

Tools Copyright (c) 1996-2012 Texas Instruments Incorporated
package/lib/Regression/regress_d_c/./../packages/ti/vlib/src/VLIB_subtractBackgroundS16/VLIB_subtractBackgroundS16_d.se66 PAGE   21

    1101                    
    1102                            .dwpsn  file "./../packages/ti/vlib/src/VLIB_subtractBackgroundS16/VLIB_subtractBackgroundS16_
    1103 000001c0           $C$RL10:   ; CALL OCCURS {VLIB_fillBuffer} {0}  ; |87| 
    1104 000001c0           $C$DW$L$VLIB_subtractBackgroundS16_d$12$E:
    1105                    ;** --------------------------------------------------------------------------*
    1106 000001c0           $C$DW$L$VLIB_subtractBackgroundS16_d$13$B:
    1107                    ;          EXCLUSIVE CPU CYCLES: 90
    1108                            .dwpsn  file "./../packages/ti/vlib/src/VLIB_subtractBackgroundS16/VLIB_subtractBackgroundS16_
    1109                    ;----------------------------------------------------------------------
    1110                    ;  95 | VLIB_initMeanWithLumaS16_cn(runningMean, prevLuma, prm[tpi].PixelCount)
    1111                    ;     | ;                                                                      
    1112                    ;----------------------------------------------------------------------
    1113 000001c0     8d4d             LDW     .D2T1   *+SP(32),A4       ; |95| 
    1114                    $C$DW$139       .dwtag  DW_TAG_TI_branch
    1115                            .dwattr $C$DW$139, DW_AT_low_pc(0x00)
    1116                            .dwattr $C$DW$139, DW_AT_name("VLIB_initMeanWithLumaS16_cn")
    1117                            .dwattr $C$DW$139, DW_AT_TI_call
    1118                    
    1119 000001c4 10000013!            CALLP   .S2     VLIB_initMeanWithLumaS16_cn,B3
    1120 000001c2     fccd  ||         LDW     .D2T2   *+SP(28),B4       ; |95| 
    1121 000001c8 0334a264  ||         LDW     .D1T1   *+A13(20),A6      ; |95| 
    1122                    
    1123 000001cc           $C$RL11:   ; CALL OCCURS {VLIB_initMeanWithLumaS16_cn} {0}  ; |95| 
    1124                    
    1125 000001cc 023d22e5             LDW     .D2T1   *+SP(36),A4       ; |99| 
    1126 000001d0 02350246  ||         LDH     .D1T2   *+A13(16),B4      ; |99| 
    1127                    
    1128                    $C$DW$140       .dwtag  DW_TAG_TI_branch
    1129                            .dwattr $C$DW$140, DW_AT_low_pc(0x00)
    1130                            .dwattr $C$DW$140, DW_AT_name("VLIB_initVarWithConstS16_cn")
    1131                            .dwattr $C$DW$140, DW_AT_TI_call
    1132                    
    1133 000001d4 10000013!            CALLP   .S2     VLIB_initVarWithConstS16_cn,B3
    1134 000001d8 0334a264  ||         LDW     .D1T1   *+A13(20),A6      ; |99| 
    1135                    
    1136                            .dwpsn  file "./../packages/ti/vlib/src/VLIB_subtractBackgroundS16/VLIB_subtractBackgroundS16_
    1137                    ;----------------------------------------------------------------------
    1138                    ;  99 | VLIB_initVarWithConstS16_cn(runningVar, prm[tpi].thresholdGlobal, prm[t
    1139                    ;     | pi].PixelCount);                                                       
    1140                    ; 102 | VLIB_profile_start(vlib_KERNEL_OPT);                                   
    1141                    ; 103 | VLIB_subtractBackgroundS16(mask32packed, newLuma, runningMean, runningV
    1142                    ;     | ar, prm[tpi].thresholdGlobal, prm[tpi].thresholdFactor, prm[tpi].PixelC
    1143                    ;     | ount);                                                                 
    1144                    ; 104 | VLIB_profile_stop();                                                   
    1145                    ; 108 | VLIB_profile_start(vlib_KERNEL_CN);                                    
    1146                    ; 109 | VLIB_subtractBackgroundS16_cn(mask32packed_cn, newLuma, runningMean, ru
    1147                    ;     | nningVar, prm[tpi].thresholdGlobal, prm[tpi].thresholdFactor, prm[tpi].
    1148                    ;     | PixelCount);                                                           
    1149                    ; 110 | VLIB_profile_stop();                                                   
    1150                    ; 114 | status_nat_vs_int = VLIB_compare_mem((void *) mask32packed, (void *)mas
    1151                    ;     | k32packed_cn, packed_size * sizeof(mask32packed_cn[0]));               
    1152                    ; 117 | if( prm[tpi].staticOutMask != NULL ) {                                 
    1153                    ; 118 |     status_nat_vs_ref = VLIB_compare_mem((void *) prm[tpi].staticOutMas
    1154                    ;     | k, (void *)mask32packed_cn, packed_size * sizeof(mask32packed_cn[0])); 
    1155                    ; 122 | fail = ((status_nat_vs_int == vlib_KERNEL_FAIL) || (status_nat_vs_ref =
TMS320C6x Assembler PC v7.4.2 Thu Mar 19 12:44:48 2015

Tools Copyright (c) 1996-2012 Texas Instruments Incorporated
package/lib/Regression/regress_d_c/./../packages/ti/vlib/src/VLIB_subtractBackgroundS16/VLIB_subtractBackgroundS16_d.se66 PAGE   22

    1156                    ;     | = vlib_KERNEL_FAIL)) ? 1 : 0;                                          
    1157                    ; 124 | est_test=1;                                                            
    1158                    ; 127 | sprintf(desc, "%s generated input | Opt results compared to NatC result
    1159                    ;     | s | PixelCount=%d",                                                    
    1160                    ; 128 |         testPatternString, prm[tpi].PixelCount);                       
    1161                    ; 129 | VLIB_formula_add_test(prm[tpi].PixelCount, NULL, NULL, fail, desc, NULL
    1162                    ;     | );                                                                     
    1163                    ; 131 | } else {                                                               
    1164                    ; 133 | sprintf(desc, "PixelCount=%d",                                         
    1165                    ; 134 |         prm[tpi].PixelCount);                                          
    1166                    ; 135 | VLIB_skip_test(desc);                                                  
    1167                    ; 139 | free(mask32packed_cn);                                                 
    1168                    ;----------------------------------------------------------------------
    1169 000001e0           $C$RL12:   ; CALL OCCURS {VLIB_initVarWithConstS16_cn} {0}  ; |99| 
    1170 000001e0 0280002a!            MVKL    .S2     act_kernel,B5
    1171                    
    1172 000001e4 0280006b!            MVKH    .S2     act_kernel,B5
    1173 000001e8     0627  ||         ZERO    .L2     B4                ; |137| 
    1174                    
    1175                    $C$DW$141       .dwtag  DW_TAG_TI_branch
    1176                            .dwattr $C$DW$141, DW_AT_low_pc(0x00)
    1177                            .dwattr $C$DW$141, DW_AT_name("VLIB_cache_inval")
    1178                            .dwattr $C$DW$141, DW_AT_TI_call
    1179                    
    1180 000001ec 10000012!            CALLP   .S2     VLIB_cache_inval,B3
    1181 000001ea     10c5  ||         STW     .D2T2   B4,*B5            ; |137| 
    1182                    
    1183                            .dwpsn  file ".\..\packages\ti\vlib\src\VLIB_subtractBackgroundS16\..\common\VLIB_profile.h",l
    1184                    ;----------------------------------------------------------------------
    1185                    ; 140 | VLIB_free(mask32packed);                                               
    1186                    ; 141 | VLIB_free(runningVar);                                                 
    1187                    ; 142 | VLIB_free(runningMean);                                                
    1188                    ;----------------------------------------------------------------------
    1189                    $C$RL13:   ; CALL OCCURS {VLIB_cache_inval} {0}  ; |140| 
    1190                    $C$DW$142       .dwtag  DW_TAG_TI_branch
    1191                            .dwattr $C$DW$142, DW_AT_low_pc(0x00)
    1192                            .dwattr $C$DW$142, DW_AT_name("getSP")
    1193                            .dwattr $C$DW$142, DW_AT_TI_call
    1194 000001f0 10000012!            CALLP   .S2     getSP,B3
    1195                            .dwpsn  file ".\..\packages\ti\vlib\src\VLIB_subtractBackgroundS16\..\common\VLIB_profile.h",l
    1196                    ;----------------------------------------------------------------------
    1197                    ; 143 | free(prevLuma);                                                        
    1198                    ; 144 | VLIB_free(newLuma);                                                    
    1199                    ;----------------------------------------------------------------------
    1200                    $C$RL14:   ; CALL OCCURS {getSP} {0}         ; |143| 
    1201                    $C$DW$143       .dwtag  DW_TAG_TI_branch
    1202                            .dwattr $C$DW$143, DW_AT_low_pc(0x00)
    1203                            .dwattr $C$DW$143, DW_AT_name("initStack")
    1204                            .dwattr $C$DW$143, DW_AT_TI_call
    1205 000001f4 10000012!            CALLP   .S2     initStack,B3
    1206 000001f8           $C$RL15:   ; CALL OCCURS {initStack} {0}     ; |143| 
    1207                            .dwpsn  file ".\..\packages\ti\vlib\src\VLIB_subtractBackgroundS16\..\common\VLIB_profile.h",l
    1208                    ;----------------------------------------------------------------------
    1209                    ; 148 | VLIB_profile_cycle_report(vlib_PROFILE_FORMULA_RANGE,                  
    1210                    ; 149 |                           "N = PixelCount",                            
TMS320C6x Assembler PC v7.4.2 Thu Mar 19 12:44:48 2015

Tools Copyright (c) 1996-2012 Texas Instruments Incorporated
package/lib/Regression/regress_d_c/./../packages/ti/vlib/src/VLIB_subtractBackgroundS16/VLIB_subtractBackgroundS16_d.se66 PAGE   23

    1211                    ; 150 |                           "PixelCount");                               
    1212                    ;----------------------------------------------------------------------
    1213 000001f8 032803e2             MVC     .S2     TSCL,B6           ; |146| 
    1214 00000200 022c03e2             MVC     .S2     TSCH,B4           ; |146| 
    1215                    
    1216 00000204 0280002b!            MVKL    .S2     beg_count,B5
    1217 00000208     cd4d  ||         LDW     .D2T1   *+SP(40),A4       ; |103| 
    1218                    
    1219 0000020c 0280006b!            MVKH    .S2     beg_count,B5
    1220 0000020a     e247  ||         MV      .L2     B4,B7             ; |146| 
    1221 00000210 04352247  ||         LDH     .D1T2   *+A13(18),B8      ; |103| 
    1222 00000214     8d6d  ||         LDW     .D2T1   *+SP(32),A6       ; |103| 
    1223                    
    1224 00000216     10e5             STDW    .D2T2   B7:B6,*B5         ; |146| 
    1225                    
    1226 00000218 04350245             LDH     .D1T1   *+A13(16),A8      ; |103| 
    1227 00000220     dccd  ||         LDW     .D2T2   *+SP(24),B4       ; |103| 
    1228                    
    1229                    $C$DW$144       .dwtag  DW_TAG_TI_branch
    1230                            .dwattr $C$DW$144, DW_AT_low_pc(0x00)
    1231                            .dwattr $C$DW$144, DW_AT_name("VLIB_subtractBackgroundS16")
    1232                            .dwattr $C$DW$144, DW_AT_TI_call
    1233                    
    1234 00000224 10000013!            CALLP   .S2     VLIB_subtractBackgroundS16,B3
    1235 00000222     bd6d  ||         LDW     .D2T2   *+SP(36),B6       ; |103| 
    1236 00000228 0534a264  ||         LDW     .D1T1   *+A13(20),A10     ; |103| 
    1237                    
    1238                            .dwpsn  file "./../packages/ti/vlib/src/VLIB_subtractBackgroundS16/VLIB_subtractBackgroundS16_
    1239 0000022c           $C$RL16:   ; CALL OCCURS {VLIB_subtractBackgroundS16} {0}  ; |103| 
    1240                            .dwpsn  file ".\..\packages\ti\vlib\src\VLIB_subtractBackgroundS16\..\common\VLIB_profile.h",l
    1241                    ;----------------------------------------------------------------------
    1242                    ; 153 | VLIB_kernel_memory();                                                  
    1243                    ;----------------------------------------------------------------------
    1244 0000022c 042803e2             MVC     .S2     TSCL,B8           ; |153| 
    1245 00000230 04ac03e2             MVC     .S2     TSCH,B9           ; |153| 
    1246 00000234 0280002a!            MVKL    .S2     overhead,B5
    1247                    
    1248 00000238 01800029!            MVKL    .S1     act_kernel,A3
    1249 00000240 0300002a! ||         MVKL    .S2     beg_count,B6
    1250                    
    1251 00000244 01800069!            MVKH    .S1     act_kernel,A3
    1252 00000248 0300006a! ||         MVKH    .S2     beg_count,B6
    1253                    
    1254 0000024c 018c0265             LDW     .D1T1   *A3,A3            ; |156| 
    1255 00000250 0280006b! ||         MVKH    .S2     overhead,B5
    1256 00000254 031803e6  ||         LDDW    .D2T2   *B6,B7:B6         ; |156| 
    1257                    
    1258 00000258 081403e7             LDDW    .D2T2   *B5,B17:B16       ; |156| 
    1259 0000025c 0200002a! ||         MVKL    .S2     cycles,B4
    1260                    
    1261 00000260 0200006a!            MVKH    .S2     cycles,B4
    1262 00000264     0c6e             NOP             1
    1263 00000266     9646             MV      .L1X    B4,A12
    1264                            .dwpsn  file ".\..\packages\ti\vlib\src\VLIB_subtractBackgroundS16\..\common\VLIB_profile.h",l
    1265                    ;----------------------------------------------------------------------
TMS320C6x Assembler PC v7.4.2 Thu Mar 19 12:44:48 2015

Tools Copyright (c) 1996-2012 Texas Instruments Incorporated
package/lib/Regression/regress_d_c/./../packages/ti/vlib/src/VLIB_subtractBackgroundS16/VLIB_subtractBackgroundS16_d.se66 PAGE   24

    1266                    ; 157 | #ifndef __ONESHOTTEST                                                  
    1267                    ;----------------------------------------------------------------------
    1268 00000268 03306b64             LDDW    .D1T1   *+A12[A3],A7:A6   ; |156| 
    1269 0000026c 021a057a             ADDU    .L2     B16,B6,B5:B4      ; |156| 
    1270 00000270 0844a07a             ADD     .L2     B5,B17,B16        ; |156| 
    1271                    
    1272 00000274 039e01e3             ADD     .S2     B16,B7,B7         ; |156| 
    1273 00000278 021105fa  ||         SUBU    .L2     B8,B4,B5:B4       ; |156| 
    1274                    
    1275 00000280 0f9d20fb             SUB     .L2     B9,B7,B31         ; |156| 
    1276 00000284 0297184a  ||         EXT     .S2     B5,24,24,B5       ; |156| 
    1277                    
    1278 00000288 0210d579             ADDU    .L1X    A6,B4,A5:A4       ; |156| 
    1279 0000028c 0217e07a  ||         ADD     .L2     B31,B5,B4         ; |156| 
    1280                    
    1281 00000294     a3d0             ADD     .L1     A5,A7,A5          ; |156| 
    1282 00000290 0300002b! ||         MVKL    .S2     end_count,B6
    1283                    
    1284 00000296     b250             ADD     .L1X    A5,B4,A5          ; |156| 
    1285 00000298 0300006a! ||         MVKH    .S2     end_count,B6
    1286                    
    1287                    $C$DW$145       .dwtag  DW_TAG_TI_branch
    1288                            .dwattr $C$DW$145, DW_AT_low_pc(0x00)
    1289                            .dwattr $C$DW$145, DW_AT_name("setStackDepth")
    1290                            .dwattr $C$DW$145, DW_AT_TI_call
    1291                    
    1292 000002a0 10000013!            CALLP   .S2     setStackDepth,B3
    1293 000002a4 02306b45  ||         STDW    .D1T1   A5:A4,*+A12[A3]   ; |156| 
    1294 000002a8 041803c6  ||         STDW    .D2T2   B9:B8,*B6         ; |153| 
    1295                    
    1296                            .dwpsn  file ".\..\packages\ti\vlib\src\VLIB_subtractBackgroundS16\..\common\VLIB_profile.h",l
    1297                    ;----------------------------------------------------------------------
    1298                    ; 159 | main() {                                                               
    1299                    ;----------------------------------------------------------------------
    1300 000002ac           $C$RL17:   ; CALL OCCURS {setStackDepth} {0}  ; |159| 
    1301 000002ac 0280002a!            MVKL    .S2     act_kernel,B5
    1302                    
    1303 000002b0 0280006b!            MVKH    .S2     act_kernel,B5
    1304 000002b4     2627  ||         MVK     .L2     1,B4              ; |137| 
    1305                    
    1306                    $C$DW$146       .dwtag  DW_TAG_TI_branch
    1307                            .dwattr $C$DW$146, DW_AT_low_pc(0x00)
    1308                            .dwattr $C$DW$146, DW_AT_name("VLIB_cache_inval")
    1309                            .dwattr $C$DW$146, DW_AT_TI_call
    1310                    
    1311 000002b8 10000012!            CALLP   .S2     VLIB_cache_inval,B3
    1312 000002b6     10c5  ||         STW     .D2T2   B4,*B5            ; |137| 
    1313                    
    1314                            .dwpsn  file ".\..\packages\ti\vlib\src\VLIB_subtractBackgroundS16\..\common\VLIB_profile.h",l
    1315                    $C$RL18:   ; CALL OCCURS {VLIB_cache_inval} {0}  ; |140| 
    1316                    $C$DW$147       .dwtag  DW_TAG_TI_branch
    1317                            .dwattr $C$DW$147, DW_AT_low_pc(0x00)
    1318                            .dwattr $C$DW$147, DW_AT_name("getSP")
    1319                            .dwattr $C$DW$147, DW_AT_TI_call
    1320 000002c0 10000012!            CALLP   .S2     getSP,B3
TMS320C6x Assembler PC v7.4.2 Thu Mar 19 12:44:48 2015

Tools Copyright (c) 1996-2012 Texas Instruments Incorporated
package/lib/Regression/regress_d_c/./../packages/ti/vlib/src/VLIB_subtractBackgroundS16/VLIB_subtractBackgroundS16_d.se66 PAGE   25

    1321                            .dwpsn  file ".\..\packages\ti\vlib\src\VLIB_subtractBackgroundS16\..\common\VLIB_profile.h",l
    1322                    $C$RL19:   ; CALL OCCURS {getSP} {0}         ; |143| 
    1323                    $C$DW$148       .dwtag  DW_TAG_TI_branch
    1324                            .dwattr $C$DW$148, DW_AT_low_pc(0x00)
    1325                            .dwattr $C$DW$148, DW_AT_name("initStack")
    1326                            .dwattr $C$DW$148, DW_AT_TI_call
    1327 000002c4 10000012!            CALLP   .S2     initStack,B3
    1328 000002c8           $C$RL20:   ; CALL OCCURS {initStack} {0}     ; |143| 
    1329 000002c8           $C$DW$L$VLIB_subtractBackgroundS16_d$13$E:
    1330                    ;** --------------------------------------------------------------------------*
    1331 000002c8           $C$DW$L$VLIB_subtractBackgroundS16_d$14$B:
    1332                    ;          EXCLUSIVE CPU CYCLES: 12
    1333                    ;** 146 -----------------------    beg_count = _itoll(TSCH, TSCL);  // [15]
    1334                    ;** 109 -----------------------    VLIB_subtractBackgroundS16_cn(mask32packed_cn, newLuma, runningMean
    1335                    ;** 153 -----------------------    v$2 = _itoll(TSCH, TSCL);  // [16]
    1336                    ;** 153 -----------------------    end_count = v$2;  // [16]
    1337                    ;** 156 -----------------------    C$1 = act_kernel;  // [16]
    1338                    ;** 156 -----------------------    *((C$1<<3)+K$70) = *((C$1<<3)+K$70)+(v$2-(beg_count+overhead));  //
    1339                    ;** 159 -----------------------    setStackDepth();  // [16]
    1340                    ;** 114 -----------------------    U$77 = U$26;
    1341                    ;** 114 -----------------------    status_nat_vs_int = VLIB_compare_mem((void *)mask32packed, (void *)
    1342                    ;** 117 -----------------------    v$1 = prm;
    1343                    ;** 117 -----------------------    U$79 = (*U$12).staticOutMask;
    1344                    ;** 117 -----------------------    if ( U$79 ) goto g9;
    1345                    ;** 58  -----------------------    status_nat_vs_ref = 1;
    1346                    ;**     -----------------------    goto g10;
    1347                            .dwpsn  file ".\..\packages\ti\vlib\src\VLIB_subtractBackgroundS16\..\common\VLIB_profile.h",l
    1348 000002c8 032803e2             MVC     .S2     TSCL,B6           ; |146| 
    1349 000002cc 022c03e2             MVC     .S2     TSCH,B4           ; |146| 
    1350                    
    1351 000002d0 0280002b!            MVKL    .S2     beg_count,B5
    1352 000002d4     8d6d  ||         LDW     .D2T1   *+SP(32),A6       ; |109| 
    1353                    
    1354 000002d8 0280006b!            MVKH    .S2     beg_count,B5
    1355 000002d6     e247  ||         MV      .L2     B4,B7             ; |146| 
    1356 000002e0 04352247  ||         LDH     .D1T2   *+A13(18),B8      ; |109| 
    1357 000002e4     ed4d  ||         LDW     .D2T1   *+SP(44),A4       ; |109| 
    1358                    
    1359 000002e6     10e5             STDW    .D2T2   B7:B6,*B5         ; |146| 
    1360                    
    1361 000002e8 04350245             LDH     .D1T1   *+A13(16),A8      ; |109| 
    1362 000002ec     dccd  ||         LDW     .D2T2   *+SP(24),B4       ; |109| 
    1363                    
    1364                    $C$DW$149       .dwtag  DW_TAG_TI_branch
    1365                            .dwattr $C$DW$149, DW_AT_low_pc(0x00)
    1366                            .dwattr $C$DW$149, DW_AT_name("VLIB_subtractBackgroundS16_cn")
    1367                            .dwattr $C$DW$149, DW_AT_TI_call
    1368                    
    1369 000002f0 10000013!            CALLP   .S2     VLIB_subtractBackgroundS16_cn,B3
    1370 000002ee     bd6d  ||         LDW     .D2T2   *+SP(36),B6       ; |109| 
    1371 000002f4 0534a264  ||         LDW     .D1T1   *+A13(20),A10     ; |109| 
    1372                    
    1373                            .dwpsn  file "./../packages/ti/vlib/src/VLIB_subtractBackgroundS16/VLIB_subtractBackgroundS16_
    1374 000002f8           $C$RL21:   ; CALL OCCURS {VLIB_subtractBackgroundS16_cn} {0}  ; |109| 
    1375 000002f8           $C$DW$L$VLIB_subtractBackgroundS16_d$14$E:
TMS320C6x Assembler PC v7.4.2 Thu Mar 19 12:44:48 2015

Tools Copyright (c) 1996-2012 Texas Instruments Incorporated
package/lib/Regression/regress_d_c/./../packages/ti/vlib/src/VLIB_subtractBackgroundS16/VLIB_subtractBackgroundS16_d.se66 PAGE   26

    1376                    ;** --------------------------------------------------------------------------*
    1377 000002f8           $C$DW$L$VLIB_subtractBackgroundS16_d$15$B:
    1378                    ;          EXCLUSIVE CPU CYCLES: 31
    1379                            .dwpsn  file ".\..\packages\ti\vlib\src\VLIB_subtractBackgroundS16\..\common\VLIB_profile.h",l
    1380 000002f8 022803e2             MVC     .S2     TSCL,B4           ; |153| 
    1381 00000300 02ac03e2             MVC     .S2     TSCH,B5           ; |153| 
    1382 00000304 0380002a!            MVKL    .S2     beg_count,B7
    1383                    
    1384 00000308 01800029!            MVKL    .S1     act_kernel,A3
    1385 0000030c 0300002a! ||         MVKL    .S2     overhead,B6
    1386                    
    1387 00000310 01800069!            MVKH    .S1     act_kernel,A3
    1388 00000314 0380006a! ||         MVKH    .S2     beg_count,B7
    1389                    
    1390 00000318 040c0265             LDW     .D1T1   *A3,A8            ; |156| 
    1391 0000031c 0300006b! ||         MVKH    .S2     overhead,B6
    1392 00000320 041c03e6  ||         LDDW    .D2T2   *B7,B9:B8         ; |156| 
    1393                    
    1394                            .dwpsn  file ".\..\packages\ti\vlib\src\VLIB_subtractBackgroundS16\..\common\VLIB_profile.h",l
    1395 00000324     110d             LDDW    .D2T2   *B6,B17:B16       ; |156| 
    1396 00000326     4c6e             NOP             3
    1397 00000328 03310b64             LDDW    .D1T1   *+A12[A8],A7:A6   ; |156| 
    1398 0000032c 0322057a             ADDU    .L2     B16,B8,B7:B6      ; |156| 
    1399                    
    1400 00000330 0344e1e3             ADD     .S2     B7,B17,B6         ; |156| 
    1401 00000334 081885fa  ||         SUBU    .L2     B4,B6,B17:B16     ; |156| 
    1402                    
    1403 00000338 0324c07a             ADD     .L2     B6,B9,B6          ; |156| 
    1404                    
    1405 00000340     7806             MV      .L1X    B16,A3            ; |156| 
    1406 00000342     ab61  ||         SUB     .L2     B5,B6,B6          ; |156| 
    1407 00000344 03c7184a  ||         EXT     .S2     B17,24,24,B7      ; |156| 
    1408                    
    1409 00000348 020cc579             ADDU    .L1     A6,A3,A5:A4       ; |156| 
    1410 0000034c     c3e1  ||         ADD     .L2     B6,B7,B6          ; |156| 
    1411                    
    1412 0000034e     a3b0             ADD     .L1     A5,A7,A3          ; |156| 
    1413 00000350 0400002a! ||         MVKL    .S2     end_count,B8
    1414                    
    1415 00000358 02987078             ADD     .L1X    A3,B6,A5          ; |156| 
    1416 00000354 0400006b! ||         MVKH    .S2     end_count,B8
    1417                    
    1418                    $C$DW$150       .dwtag  DW_TAG_TI_branch
    1419                            .dwattr $C$DW$150, DW_AT_low_pc(0x00)
    1420                            .dwattr $C$DW$150, DW_AT_name("setStackDepth")
    1421                            .dwattr $C$DW$150, DW_AT_TI_call
    1422                    
    1423 00000360 10000013!            CALLP   .S2     setStackDepth,B3
    1424 00000364 02310b45  ||         STDW    .D1T1   A5:A4,*+A12[A8]   ; |156| 
    1425 00000368 022003c6  ||         STDW    .D2T2   B5:B4,*B8         ; |153| 
    1426                    
    1427                            .dwpsn  file ".\..\packages\ti\vlib\src\VLIB_subtractBackgroundS16\..\common\VLIB_profile.h",l
    1428                    ;----------------------------------------------------------------------
    1429                    ; 160 | if( VLIB_cache_init()) {                                               
    1430                    ; 161 |     VLIB_memError("VLIB_subtractBackgroundS16");                       
TMS320C6x Assembler PC v7.4.2 Thu Mar 19 12:44:48 2015

Tools Copyright (c) 1996-2012 Texas Instruments Incorporated
package/lib/Regression/regress_d_c/./../packages/ti/vlib/src/VLIB_subtractBackgroundS16/VLIB_subtractBackgroundS16_d.se66 PAGE   27

    1431                    ; 162 | } else {                                                               
    1432                    ; 163 |     VLIB_subtractBackgroundS16_d(0);                                   
    1433                    ;----------------------------------------------------------------------
    1434 0000036c           $C$RL22:   ; CALL OCCURS {setStackDepth} {0}  ; |159| 
    1435                            .dwpsn  file "./../packages/ti/vlib/src/VLIB_subtractBackgroundS16/VLIB_subtractBackgroundS16_
    1436 0000036c     cd4d             LDW     .D2T1   *+SP(40),A4       ; |114| 
    1437                    $C$DW$151       .dwtag  DW_TAG_TI_branch
    1438                            .dwattr $C$DW$151, DW_AT_low_pc(0x00)
    1439                            .dwattr $C$DW$151, DW_AT_name("VLIB_compare_mem")
    1440                            .dwattr $C$DW$151, DW_AT_TI_call
    1441                    
    1442 00000370 10000013!            CALLP   .S2     VLIB_compare_mem,B3
    1443 0000036e     fd4d  ||         LDW     .D2T2   *+SP(44),B4       ; |114| 
    1444 00000374 032c0fd8  ||         MV      .L1     A11,A6            ; |114| 
    1445                    
    1446 00000378           $C$RL23:   ; CALL OCCURS {VLIB_compare_mem} {0}  ; |114| 
    1447 00000378           $C$DW$L$VLIB_subtractBackgroundS16_d$15$E:
    1448                    ;** --------------------------------------------------------------------------*
    1449 00000378           $C$DW$L$VLIB_subtractBackgroundS16_d$16$B:
    1450                    ;          EXCLUSIVE CPU CYCLES: 11
    1451                            .dwpsn  file "./../packages/ti/vlib/src/VLIB_subtractBackgroundS16/VLIB_subtractBackgroundS16_
    1452 00000378 00346264             LDW     .D1T1   *+A13(12),A0      ; |117| 
    1453 00000380     bccd             LDW     .D2T2   *+SP(20),B4       ; |117| 
    1454                            .dwpsn  file "./../packages/ti/vlib/src/VLIB_subtractBackgroundS16/VLIB_subtractBackgroundS16_
    1455 00000382     5647             MV      .L2X    A4,B10            ; |114| 
    1456 00000384     2c6e             NOP             2
    1457 00000386     063a     [!A0]   B       .S1     $C$L4
    1458                            .dwpsn  file "./../packages/ti/vlib/src/VLIB_subtractBackgroundS16/VLIB_subtractBackgroundS16_
    1459                    $C$DW$152       .dwtag  DW_TAG_TI_branch
    1460                            .dwattr $C$DW$152, DW_AT_low_pc(0x00)
    1461                            .dwattr $C$DW$152, DW_AT_name("VLIB_compare_mem")
    1462                            .dwattr $C$DW$152, DW_AT_TI_call
    1463 00000388 c0000010!    [ A0]   CALL    .S1     VLIB_compare_mem  ; |118| 
    1464 0000038c c23d62e6     [ A0]   LDW     .D2T2   *+SP(44),B4       ; |118| 
    1465                            .dwpsn  file "./../packages/ti/vlib/src/VLIB_subtractBackgroundS16/VLIB_subtractBackgroundS16_
    1466 00000390 d784a358     [!A0]   MVK     .L1     0x1,A15           ; |58| 
    1467 00000394     2c6e             NOP             2
    1468                               ; BRANCHCC OCCURS {$C$L4}  
    1469 000003a0           $C$DW$L$VLIB_subtractBackgroundS16_d$16$E:
    1470                    ;** --------------------------------------------------------------------------*
    1471                            .dwpsn  file "./../packages/ti/vlib/src/VLIB_subtractBackgroundS16/VLIB_subtractBackgroundS16_
    1472 000003a0           $C$DW$L$VLIB_subtractBackgroundS16_d$17$B:
    1473                    ;          EXCLUSIVE CPU CYCLES: 1
    1474                    ;**     -----------------------g9:
    1475                    ;** 118 -----------------------    status_nat_vs_ref = VLIB_compare_mem((void *)U$79, (void *)mask32pa
    1476                    ;** 118 -----------------------    v$1 = prm;
    1477                    
    1478 000003a0     c586             MV      .L1     A11,A6            ; |118| 
    1479 000003a2     804e  ||         MV      .S1     A0,A4             ; |118| 
    1480 000003a4 01820162  ||         ADDKPC  .S2     $C$RL24,B3,0      ; |118| 
    1481                    
    1482                            .dwpsn  file "./../packages/ti/vlib/src/VLIB_subtractBackgroundS16/VLIB_subtractBackgroundS16_
    1483 000003a8           $C$RL24:   ; CALL OCCURS {VLIB_compare_mem} {0}  ; |118| 
    1484 000003a8           $C$DW$L$VLIB_subtractBackgroundS16_d$17$E:
    1485                    ;** --------------------------------------------------------------------------*
TMS320C6x Assembler PC v7.4.2 Thu Mar 19 12:44:48 2015

Tools Copyright (c) 1996-2012 Texas Instruments Incorporated
package/lib/Regression/regress_d_c/./../packages/ti/vlib/src/VLIB_subtractBackgroundS16/VLIB_subtractBackgroundS16_d.se66 PAGE   28

    1486 000003a8           $C$DW$L$VLIB_subtractBackgroundS16_d$18$B:
    1487                    ;          EXCLUSIVE CPU CYCLES: 5
    1488 000003a8     bccd             LDW     .D2T2   *+SP(20),B4       ; |118| 
    1489 000003aa     e646             MV      .L1     A4,A15            ; |118| 
    1490 000003ac 00004000             NOP             3
    1491 000003b0           $C$DW$L$VLIB_subtractBackgroundS16_d$18$E:
    1492                    ;** --------------------------------------------------------------------------*
    1493 000003b0           $C$L4:    
    1494 000003b0           $C$DW$L$VLIB_subtractBackgroundS16_d$19$B:
    1495                    ;          EXCLUSIVE CPU CYCLES: 12
    1496                    ;**     -----------------------g10:
    1497                    ;** 124 -----------------------    est_test = 1;
    1498                    ;** 127 -----------------------    sprintf(K$88, (const char *)"%s generated input | Opt results compa
    1499                    ;** 129 -----------------------    VLIB_formula_add_test((int)(*U$12).PixelCount, 0, 0, (status_nat_vs
    1500                    ;** 131 -----------------------    goto g12;
    1501                            .dwpsn  file "./../packages/ti/vlib/src/VLIB_subtractBackgroundS16/VLIB_subtractBackgroundS16_
    1502 000003b0 022c807a             ADD     .L2     B4,B11,B4         ; |127| 
    1503 000003b4 0210a2e6             LDW     .D2T2   *+B4(20),B4       ; |127| 
    1504 000003b8 0280002a!            MVKL    .S2     $C$SL2+0,B5
    1505 000003c0 01800028!            MVKL    .S1     est_test,A3
    1506                    
    1507 000003c4 0280006b!            MVKH    .S2     $C$SL2+0,B5
    1508 000003c8 063c42f6  ||         STW     .D2T2   B12,*+SP(8)       ; |127| 
    1509                    
    1510 000003cc 01800069!            MVKH    .S1     est_test,A3
    1511 000003d0     2626  ||         MVK     .L1     1,A4              ; |124| 
    1512 000003d2     bc55  ||         STW     .D2T2   B5,*+SP(4)        ; |127| 
    1513                    
    1514                    $C$DW$153       .dwtag  DW_TAG_TI_branch
    1515                            .dwattr $C$DW$153, DW_AT_low_pc(0x00)
    1516                            .dwattr $C$DW$153, DW_AT_name("sprintf")
    1517                            .dwattr $C$DW$153, DW_AT_TI_call
    1518                    
    1519 000003d4 10000013!            CALLP   .S2     sprintf,B3
    1520 000003d8     fc45  ||         STW     .D2T2   B4,*+SP(12)       ; |127| 
    1521 000003e0 020c0274  ||         STW     .D1T1   A4,*A3            ; |124| 
    1522 000003da     9686  ||         MV      .L1X    B13,A4            ; |127| 
    1523                    
    1524 000003e4           $C$RL25:   ; CALL OCCURS {sprintf} {0}       ; |127| 
    1525 000003e4           $C$DW$L$VLIB_subtractBackgroundS16_d$19$E:
    1526                    ;** --------------------------------------------------------------------------*
    1527 000003e4           $C$DW$L$VLIB_subtractBackgroundS16_d$20$B:
    1528                    ;          EXCLUSIVE CPU CYCLES: 8
    1529                            .dwpsn  file "./../packages/ti/vlib/src/VLIB_subtractBackgroundS16/VLIB_subtractBackgroundS16_
    1530 000003e4 01bc0a58             CMPEQ   .L1     A15,0,A3          ; |129| 
    1531                    
    1532 000003e8 02280a5b             CMPEQ   .L2     B10,0,B4          ; |129| 
    1533 000003ec 0400002a  ||         ZERO    .S2     B8                ; |129| 
    1534                    
    1535                    $C$DW$154       .dwtag  DW_TAG_TI_branch
    1536                            .dwattr $C$DW$154, DW_AT_low_pc(0x00)
    1537                            .dwattr $C$DW$154, DW_AT_name("VLIB_formula_add_test")
    1538                            .dwattr $C$DW$154, DW_AT_TI_call
    1539                    
    1540 000003f0 10000013!            CALLP   .S2     VLIB_formula_add_test,B3
TMS320C6x Assembler PC v7.4.2 Thu Mar 19 12:44:48 2015

Tools Copyright (c) 1996-2012 Texas Instruments Incorporated
package/lib/Regression/regress_d_c/./../packages/ti/vlib/src/VLIB_subtractBackgroundS16/VLIB_subtractBackgroundS16_d.se66 PAGE   29

    1541 000003f4 0234a265  ||         LDW     .D1T1   *+A13(20),A4      ; |129| 
    1542 000003f8 030c9ffb  ||         OR      .L2X    A3,B4,B6          ; |129| 
    1543 000003fc 02000043  ||         ZERO    .D2     B4                ; |129| 
    1544 00000404     0726  ||         ZERO    .L1     A6                ; |129| 
    1545 00000400 043416a1  ||         MV      .S1X    B13,A8            ; |129| 
    1546                    
    1547 00000406           $C$RL26:   ; CALL OCCURS {VLIB_formula_add_test} {0}  ; |129| 
    1548 00000406           $C$DW$L$VLIB_subtractBackgroundS16_d$20$E:
    1549                    ;** --------------------------------------------------------------------------*
    1550 00000406           $C$DW$L$VLIB_subtractBackgroundS16_d$21$B:
    1551                    ;          EXCLUSIVE CPU CYCLES: 6
    1552                            .dwpsn  file "./../packages/ti/vlib/src/VLIB_subtractBackgroundS16/VLIB_subtractBackgroundS16_
    1553 00000406     090a             B       .S1     $C$L6             ; |131| 
    1554                            .dwpsn  file "./../packages/ti/vlib/src/VLIB_subtractBackgroundS16/VLIB_subtractBackgroundS16_
    1555                    $C$DW$155       .dwtag  DW_TAG_TI_branch
    1556                            .dwattr $C$DW$155, DW_AT_low_pc(0x00)
    1557                            .dwattr $C$DW$155, DW_AT_name("free")
    1558                            .dwattr $C$DW$155, DW_AT_TI_call
    1559 00000408 00000010!            CALL    .S1     free              ; |139| 
    1560 0000040c     ed4d             LDW     .D2T1   *+SP(44),A4       ; |139| 
    1561 0000040e     4c6e             NOP             3
    1562                            .dwpsn  file "./../packages/ti/vlib/src/VLIB_subtractBackgroundS16/VLIB_subtractBackgroundS16_
    1563                               ; BRANCH OCCURS {$C$L6}           ; |131| 
    1564 00000410           $C$DW$L$VLIB_subtractBackgroundS16_d$21$E:
    1565                    ;** --------------------------------------------------------------------------*
    1566 00000410           $C$L5:    
    1567                            .dwpsn  file "./../packages/ti/vlib/src/VLIB_subtractBackgroundS16/VLIB_subtractBackgroundS16_
    1568                    $C$DW$L$VLIB_subtractBackgroundS16_d$22$B:
    1569                    ;          EXCLUSIVE CPU CYCLES: 6
    1570                    ;**     -----------------------g11:
    1571                    ;** 133 -----------------------    sprintf(K$88, (const char *)"PixelCount=%d", (*U$12).PixelCount);
    1572                    ;** 135 -----------------------    VLIB_skip_test(K$88);
    1573                    $C$DW$156       .dwtag  DW_TAG_TI_branch
    1574                            .dwattr $C$DW$156, DW_AT_low_pc(0x04)
    1575                            .dwattr $C$DW$156, DW_AT_name("sprintf")
    1576                            .dwattr $C$DW$156, DW_AT_TI_call
    1577                    
    1578 00000410 01b4a265             LDW     .D1T1   *+A13(20),A3      ; |133| 
    1579 00000414 00000010! ||         CALL    .S1     sprintf           ; |133| 
    1580                    
    1581 00000418 0200002a!            MVKL    .S2     $C$SL3+0,B4
    1582 00000420 0200006a!            MVKH    .S2     $C$SL3+0,B4
    1583                            .dwpsn  file "./../packages/ti/vlib/src/VLIB_subtractBackgroundS16/VLIB_subtractBackgroundS16_
    1584 00000424 023c22f6             STW     .D2T2   B4,*+SP(4)        ; |133| 
    1585 00000428 01840162             ADDKPC  .S2     $C$RL27,B3,0      ; |133| 
    1586                    
    1587 0000042c     9686             MV      .L1X    B13,A4            ; |133| 
    1588 0000042e     cc35  ||         STW     .D2T1   A3,*+SP(8)        ; |133| 
    1589                    
    1590                    $C$RL27:   ; CALL OCCURS {sprintf} {0}       ; |133| 
    1591                    $C$DW$L$VLIB_subtractBackgroundS16_d$22$E:
    1592                    ;** --------------------------------------------------------------------------*
    1593                    $C$DW$L$VLIB_subtractBackgroundS16_d$23$B:
    1594                    ;          EXCLUSIVE CPU CYCLES: 11
    1595                    $C$DW$157       .dwtag  DW_TAG_TI_branch
TMS320C6x Assembler PC v7.4.2 Thu Mar 19 12:44:48 2015

Tools Copyright (c) 1996-2012 Texas Instruments Incorporated
package/lib/Regression/regress_d_c/./../packages/ti/vlib/src/VLIB_subtractBackgroundS16/VLIB_subtractBackgroundS16_d.se66 PAGE   30

    1596                            .dwattr $C$DW$157, DW_AT_low_pc(0x00)
    1597                            .dwattr $C$DW$157, DW_AT_name("VLIB_skip_test")
    1598                            .dwattr $C$DW$157, DW_AT_TI_call
    1599                    
    1600 00000430 10000013!            CALLP   .S2     VLIB_skip_test,B3
    1601 00000434 02341fd8  ||         MV      .L1X    B13,A4            ; |135| 
    1602                    
    1603                            .dwpsn  file "./../packages/ti/vlib/src/VLIB_subtractBackgroundS16/VLIB_subtractBackgroundS16_
    1604 00000438           $C$RL28:   ; CALL OCCURS {VLIB_skip_test} {0}  ; |135| 
    1605                            .dwpsn  file "./../packages/ti/vlib/src/VLIB_subtractBackgroundS16/VLIB_subtractBackgroundS16_
    1606                    $C$DW$158       .dwtag  DW_TAG_TI_branch
    1607                            .dwattr $C$DW$158, DW_AT_low_pc(0x00)
    1608                            .dwattr $C$DW$158, DW_AT_name("free")
    1609                            .dwattr $C$DW$158, DW_AT_TI_call
    1610 00000438 00000010!            CALL    .S1     free              ; |139| 
    1611 00000440 023d62e4             LDW     .D2T1   *+SP(44),A4       ; |139| 
    1612 00000444 00004000             NOP             3
    1613 00000448           $C$DW$L$VLIB_subtractBackgroundS16_d$23$E:
    1614                    ;** --------------------------------------------------------------------------*
    1615 00000448           $C$L6:    
    1616                            .dwpsn  file "./../packages/ti/vlib/src/VLIB_subtractBackgroundS16/VLIB_subtractBackgroundS16_
    1617 00000448           $C$DW$L$VLIB_subtractBackgroundS16_d$24$B:
    1618                    ;          EXCLUSIVE CPU CYCLES: 1
    1619                    ;**     -----------------------g12:
    1620                    ;** 139 -----------------------    free((void *)mask32packed_cn);
    1621                    ;** 140 -----------------------    VLIB_free((void *)mask32packed);
    1622                    ;** 141 -----------------------    VLIB_free((void *)runningVar);
    1623                    ;** 142 -----------------------    VLIB_free((void *)runningMean);
    1624                    ;** 143 -----------------------    free((void *)prevLuma);
    1625                    ;** 144 -----------------------    VLIB_free((void *)newLuma);
    1626                    ;** 54  -----------------------    U$11 += 24;
    1627                    ;** 54  -----------------------    if ( test_cases > (++tpi) ) goto g3;
    1628                            .dwpsn  file "./../packages/ti/vlib/src/VLIB_subtractBackgroundS16/VLIB_subtractBackgroundS16_
    1629 00000448 01830162             ADDKPC  .S2     $C$RL29,B3,0      ; |139| 
    1630                    $C$RL29:   ; CALL OCCURS {free} {0}          ; |139| 
    1631                    $C$DW$L$VLIB_subtractBackgroundS16_d$24$E:
    1632                    ;** --------------------------------------------------------------------------*
    1633                    $C$DW$L$VLIB_subtractBackgroundS16_d$25$B:
    1634                    ;          EXCLUSIVE CPU CYCLES: 30
    1635                    $C$DW$159       .dwtag  DW_TAG_TI_branch
    1636                            .dwattr $C$DW$159, DW_AT_low_pc(0x00)
    1637                            .dwattr $C$DW$159, DW_AT_name("VLIB_free")
    1638                            .dwattr $C$DW$159, DW_AT_TI_call
    1639                    
    1640 0000044c 10000013!            CALLP   .S2     VLIB_free,B3
    1641 00000450 023d42e4  ||         LDW     .D2T1   *+SP(40),A4       ; |140| 
    1642                    
    1643                            .dwpsn  file "./../packages/ti/vlib/src/VLIB_subtractBackgroundS16/VLIB_subtractBackgroundS16_
    1644                    $C$RL30:   ; CALL OCCURS {VLIB_free} {0}     ; |140| 
    1645                    $C$DW$160       .dwtag  DW_TAG_TI_branch
    1646                            .dwattr $C$DW$160, DW_AT_low_pc(0x00)
    1647                            .dwattr $C$DW$160, DW_AT_name("VLIB_free")
    1648                            .dwattr $C$DW$160, DW_AT_TI_call
    1649                    
    1650 00000454 10000013!            CALLP   .S2     VLIB_free,B3
TMS320C6x Assembler PC v7.4.2 Thu Mar 19 12:44:48 2015

Tools Copyright (c) 1996-2012 Texas Instruments Incorporated
package/lib/Regression/regress_d_c/./../packages/ti/vlib/src/VLIB_subtractBackgroundS16/VLIB_subtractBackgroundS16_d.se66 PAGE   31

    1651 00000458 023d22e5  ||         LDW     .D2T1   *+SP(36),A4       ; |141| 
    1652                    
    1653                            .dwpsn  file "./../packages/ti/vlib/src/VLIB_subtractBackgroundS16/VLIB_subtractBackgroundS16_
    1654                    $C$RL31:   ; CALL OCCURS {VLIB_free} {0}     ; |141| 
    1655                    $C$DW$161       .dwtag  DW_TAG_TI_branch
    1656                            .dwattr $C$DW$161, DW_AT_low_pc(0x00)
    1657                            .dwattr $C$DW$161, DW_AT_name("VLIB_free")
    1658                            .dwattr $C$DW$161, DW_AT_TI_call
    1659                    
    1660 00000460 10000013!            CALLP   .S2     VLIB_free,B3
    1661 00000464 023d02e4  ||         LDW     .D2T1   *+SP(32),A4       ; |142| 
    1662                    
    1663                            .dwpsn  file "./../packages/ti/vlib/src/VLIB_subtractBackgroundS16/VLIB_subtractBackgroundS16_
    1664                    $C$RL32:   ; CALL OCCURS {VLIB_free} {0}     ; |142| 
    1665                    $C$DW$162       .dwtag  DW_TAG_TI_branch
    1666                            .dwattr $C$DW$162, DW_AT_low_pc(0x00)
    1667                            .dwattr $C$DW$162, DW_AT_name("free")
    1668                            .dwattr $C$DW$162, DW_AT_TI_call
    1669                    
    1670 00000468 10000013!            CALLP   .S2     free,B3
    1671 0000046c 023ce2e4  ||         LDW     .D2T1   *+SP(28),A4       ; |143| 
    1672                    
    1673                            .dwpsn  file "./../packages/ti/vlib/src/VLIB_subtractBackgroundS16/VLIB_subtractBackgroundS16_
    1674                    $C$RL33:   ; CALL OCCURS {free} {0}          ; |143| 
    1675                    $C$DW$163       .dwtag  DW_TAG_TI_branch
    1676                            .dwattr $C$DW$163, DW_AT_low_pc(0x00)
    1677                            .dwattr $C$DW$163, DW_AT_name("VLIB_free")
    1678                            .dwattr $C$DW$163, DW_AT_TI_call
    1679                    
    1680 00000470 10000013!            CALLP   .S2     VLIB_free,B3
    1681 00000474 023cc2e4  ||         LDW     .D2T1   *+SP(24),A4       ; |144| 
    1682                    
    1683                            .dwpsn  file "./../packages/ti/vlib/src/VLIB_subtractBackgroundS16/VLIB_subtractBackgroundS16_
    1684 00000478           $C$RL34:   ; CALL OCCURS {VLIB_free} {0}     ; |144| 
    1685 00000478           $C$DW$L$VLIB_subtractBackgroundS16_d$25$E:
    1686                    ;** --------------------------------------------------------------------------*
    1687 00000478           $C$DW$L$VLIB_subtractBackgroundS16_d$26$B:
    1688                    ;          EXCLUSIVE CPU CYCLES: 14
    1689 00000478 01800028!            MVKL    .S1     test_cases,A3
    1690 0000047c 01800068!            MVKH    .S1     test_cases,A3
    1691                            .dwpsn  file "./../packages/ti/vlib/src/VLIB_subtractBackgroundS16/VLIB_subtractBackgroundS16_
    1692 00000480 018c0264             LDW     .D1T1   *A3,A3            ; |54| 
    1693 00000484 05800c52             ADDK    .S2     24,B11            ; |54| 
    1694 00000488 07382058             ADD     .L1     1,A14,A14         ; |54| 
    1695                            .dwpsn  file "./../packages/ti/vlib/src/VLIB_subtractBackgroundS16/VLIB_subtractBackgroundS16_
    1696 0000048c 06800c50             ADDK    .S1     24,A13            ; |61| 
    1697 00000490 00000000             NOP             1
    1698                            .dwpsn  file "./../packages/ti/vlib/src/VLIB_subtractBackgroundS16/VLIB_subtractBackgroundS16_
    1699 00000494 003868f8             CMPGT   .L1     A3,A14,A0         ; |54| 
    1700                    
    1701 00000498 cefa8121     [ A0]   BNOP    .S1     $C$L1,4           ; |54| 
    1702 0000049c c534a264  || [ A0]   LDW     .D1T1   *+A13(20),A10     ; |61| 
    1703                    
    1704                            .dwpsn  file "./../packages/ti/vlib/src/VLIB_subtractBackgroundS16/VLIB_subtractBackgroundS16_
    1705 000004a0 02280fd8             MV      .L1     A10,A4            ; |64| 
TMS320C6x Assembler PC v7.4.2 Thu Mar 19 12:44:48 2015

Tools Copyright (c) 1996-2012 Texas Instruments Incorporated
package/lib/Regression/regress_d_c/./../packages/ti/vlib/src/VLIB_subtractBackgroundS16/VLIB_subtractBackgroundS16_d.se66 PAGE   32

    1706                            .dwpsn  file "./../packages/ti/vlib/src/VLIB_subtractBackgroundS16/VLIB_subtractBackgroundS16_
    1707                               ; BRANCHCC OCCURS {$C$L1}         ; |54| 
    1708 000004a4           $C$DW$L$VLIB_subtractBackgroundS16_d$26$E:
    1709                    ;** --------------------------------------------------------------------------*
    1710 000004a4           $C$L7:    
    1711                    ;          EXCLUSIVE CPU CYCLES: 8
    1712                    ;**     -----------------------g13:
    1713                    ;** 148 -----------------------    VLIB_profile_cycle_report(2, "N = PixelCount", "PixelCount");
    1714                    ;** 158 -----------------------    printf((const char *)"---------------------------------------------
    1715                    ;** 165 -----------------------    VLIB_stack_memory();  // [19]
    1716                    ;**     -----------------------    return;
    1717 000004a4 0200002a!            MVKL    .S2     $C$SL5+0,B4
    1718                    
    1719 000004a8 03000029!            MVKL    .S1     $C$SL4+0,A6
    1720 000004ac 0200006a! ||         MVKH    .S2     $C$SL5+0,B4
    1721                    
    1722                    $C$DW$164       .dwtag  DW_TAG_TI_branch
    1723                            .dwattr $C$DW$164, DW_AT_low_pc(0x00)
    1724                            .dwattr $C$DW$164, DW_AT_name("VLIB_profile_cycle_report")
    1725                            .dwattr $C$DW$164, DW_AT_TI_call
    1726                    
    1727 000004b0 10000013!            CALLP   .S2     VLIB_profile_cycle_report,B3
    1728 000004b4 03000069! ||         MVKH    .S1     $C$SL4+0,A6
    1729 000004b8 0208a358  ||         MVK     .L1     0x2,A4            ; |148| 
    1730                    
    1731                            .dwpsn  file "./../packages/ti/vlib/src/VLIB_subtractBackgroundS16/VLIB_subtractBackgroundS16_
    1732 000004bc           $C$RL35:   ; CALL OCCURS {VLIB_profile_cycle_report} {0}  ; |148| 
    1733                    ;** --------------------------------------------------------------------------*
    1734                    ;          EXCLUSIVE CPU CYCLES: 14
    1735 000004bc 0200002a!            MVKL    .S2     $C$SL6+0,B4
    1736 000004c0 0200006a!            MVKH    .S2     $C$SL6+0,B4
    1737                    $C$DW$165       .dwtag  DW_TAG_TI_branch
    1738                            .dwattr $C$DW$165, DW_AT_low_pc(0x00)
    1739                            .dwattr $C$DW$165, DW_AT_name("printf")
    1740                            .dwattr $C$DW$165, DW_AT_TI_call
    1741                    
    1742 000004c4 10000013!            CALLP   .S2     printf,B3
    1743 000004c8 023c22f6  ||         STW     .D2T2   B4,*+SP(4)        ; |158| 
    1744                    
    1745                            .dwpsn  file ".\..\packages\ti\vlib\src\VLIB_subtractBackgroundS16\../common/VLIB_memory.h",li
    1746                    $C$RL36:   ; CALL OCCURS {printf} {0}        ; |158| 
    1747                    $C$DW$166       .dwtag  DW_TAG_TI_branch
    1748                            .dwattr $C$DW$166, DW_AT_low_pc(0x00)
    1749                            .dwattr $C$DW$166, DW_AT_name("VLIB_stack_memory")
    1750                            .dwattr $C$DW$166, DW_AT_TI_call
    1751 000004cc 10000012!            CALLP   .S2     VLIB_stack_memory,B3
    1752                            .dwpsn  file ".\..\packages\ti\vlib\src\VLIB_subtractBackgroundS16\../common/VLIB_memory.h",li
    1753 000004d0           $C$RL37:   ; CALL OCCURS {VLIB_stack_memory} {0}  ; |165| 
    1754                    ;** --------------------------------------------------------------------------*
    1755                    ;          EXCLUSIVE CPU CYCLES: 13
    1756                            .dwpsn  file "./../packages/ti/vlib/src/VLIB_subtractBackgroundS16/VLIB_subtractBackgroundS16_
    1757 000004d0 01bdd2e6             LDW     .D2T2   *++SP(56),B3      ; |154| 
    1758                            .dwcfi  cfa_offset, 48
    1759                            .dwcfi  restore_reg, 19
    1760 000004d4     c677             LDDW    .D2T1   *++SP,A13:A12
TMS320C6x Assembler PC v7.4.2 Thu Mar 19 12:44:48 2015

Tools Copyright (c) 1996-2012 Texas Instruments Incorporated
package/lib/Regression/regress_d_c/./../packages/ti/vlib/src/VLIB_subtractBackgroundS16/VLIB_subtractBackgroundS16_d.se66 PAGE   33

    1761                            .dwcfi  cfa_offset, 40
    1762                            .dwcfi  restore_reg, 13
    1763                            .dwcfi  restore_reg, 12
    1764 000004d6     c777             LDDW    .D2T1   *++SP,A15:A14
    1765                            .dwcfi  cfa_offset, 32
    1766                            .dwcfi  restore_reg, 15
    1767                            .dwcfi  restore_reg, 14
    1768 000004d8     d577             LDDW    .D2T2   *++SP,B11:B10
    1769                            .dwcfi  cfa_offset, 24
    1770                            .dwcfi  restore_reg, 27
    1771                            .dwcfi  restore_reg, 26
    1772 000004da     d677             LDDW    .D2T2   *++SP,B13:B12
    1773                            .dwcfi  cfa_offset, 16
    1774                            .dwcfi  restore_reg, 29
    1775                            .dwcfi  restore_reg, 28
    1776 000004e0 053c52e4             LDW     .D2T1   *++SP(8),A10
    1777                            .dwcfi  cfa_offset, 8
    1778                            .dwcfi  restore_reg, 10
    1779 000004e4 05bc52e4             LDW     .D2T1   *++SP(8),A11      ; |154| 
    1780                            .dwcfi  cfa_offset, 0
    1781                            .dwcfi  restore_reg, 11
    1782                            .dwcfi  cfa_offset, 0
    1783                    $C$DW$167       .dwtag  DW_TAG_TI_branch
    1784                            .dwattr $C$DW$167, DW_AT_low_pc(0x00)
    1785                            .dwattr $C$DW$167, DW_AT_TI_return
    1786 000004e8 008ca362             RETNOP  .S2     B3,5
    1787                               ; BRANCH OCCURS {B3}  
    1788                    
    1789                    $C$DW$168       .dwtag  DW_TAG_TI_loop
    1790                            .dwattr $C$DW$168, DW_AT_name("c:\nightlybuilds\vlib\ti\vlib\vlib\examples\package/lib/Regress
    1791                            .dwattr $C$DW$168, DW_AT_TI_begin_file("./../packages/ti/vlib/src/VLIB_subtractBackgroundS16/V
    1792                            .dwattr $C$DW$168, DW_AT_TI_begin_line(0x36)
    1793                            .dwattr $C$DW$168, DW_AT_TI_end_line(0x91)
    1794                    $C$DW$169       .dwtag  DW_TAG_TI_loop_range
    1795                            .dwattr $C$DW$169, DW_AT_low_pc($C$DW$L$VLIB_subtractBackgroundS16_d$5$B)
    1796                            .dwattr $C$DW$169, DW_AT_high_pc($C$DW$L$VLIB_subtractBackgroundS16_d$5$E)
    1797                    $C$DW$170       .dwtag  DW_TAG_TI_loop_range
    1798                            .dwattr $C$DW$170, DW_AT_low_pc($C$DW$L$VLIB_subtractBackgroundS16_d$22$B)
    1799                            .dwattr $C$DW$170, DW_AT_high_pc($C$DW$L$VLIB_subtractBackgroundS16_d$22$E)
    1800                    $C$DW$171       .dwtag  DW_TAG_TI_loop_range
    1801                            .dwattr $C$DW$171, DW_AT_low_pc($C$DW$L$VLIB_subtractBackgroundS16_d$17$B)
    1802                            .dwattr $C$DW$171, DW_AT_high_pc($C$DW$L$VLIB_subtractBackgroundS16_d$17$E)
    1803                    $C$DW$172       .dwtag  DW_TAG_TI_loop_range
    1804                            .dwattr $C$DW$172, DW_AT_low_pc($C$DW$L$VLIB_subtractBackgroundS16_d$6$B)
    1805                            .dwattr $C$DW$172, DW_AT_high_pc($C$DW$L$VLIB_subtractBackgroundS16_d$6$E)
    1806                    $C$DW$173       .dwtag  DW_TAG_TI_loop_range
    1807                            .dwattr $C$DW$173, DW_AT_low_pc($C$DW$L$VLIB_subtractBackgroundS16_d$7$B)
    1808                            .dwattr $C$DW$173, DW_AT_high_pc($C$DW$L$VLIB_subtractBackgroundS16_d$7$E)
    1809                    $C$DW$174       .dwtag  DW_TAG_TI_loop_range
    1810                            .dwattr $C$DW$174, DW_AT_low_pc($C$DW$L$VLIB_subtractBackgroundS16_d$8$B)
    1811                            .dwattr $C$DW$174, DW_AT_high_pc($C$DW$L$VLIB_subtractBackgroundS16_d$8$E)
    1812                    $C$DW$175       .dwtag  DW_TAG_TI_loop_range
    1813                            .dwattr $C$DW$175, DW_AT_low_pc($C$DW$L$VLIB_subtractBackgroundS16_d$9$B)
    1814                            .dwattr $C$DW$175, DW_AT_high_pc($C$DW$L$VLIB_subtractBackgroundS16_d$9$E)
    1815                    $C$DW$176       .dwtag  DW_TAG_TI_loop_range
TMS320C6x Assembler PC v7.4.2 Thu Mar 19 12:44:48 2015

Tools Copyright (c) 1996-2012 Texas Instruments Incorporated
package/lib/Regression/regress_d_c/./../packages/ti/vlib/src/VLIB_subtractBackgroundS16/VLIB_subtractBackgroundS16_d.se66 PAGE   34

    1816                            .dwattr $C$DW$176, DW_AT_low_pc($C$DW$L$VLIB_subtractBackgroundS16_d$10$B)
    1817                            .dwattr $C$DW$176, DW_AT_high_pc($C$DW$L$VLIB_subtractBackgroundS16_d$10$E)
    1818                    $C$DW$177       .dwtag  DW_TAG_TI_loop_range
    1819                            .dwattr $C$DW$177, DW_AT_low_pc($C$DW$L$VLIB_subtractBackgroundS16_d$11$B)
    1820                            .dwattr $C$DW$177, DW_AT_high_pc($C$DW$L$VLIB_subtractBackgroundS16_d$11$E)
    1821                    $C$DW$178       .dwtag  DW_TAG_TI_loop_range
    1822                            .dwattr $C$DW$178, DW_AT_low_pc($C$DW$L$VLIB_subtractBackgroundS16_d$12$B)
    1823                            .dwattr $C$DW$178, DW_AT_high_pc($C$DW$L$VLIB_subtractBackgroundS16_d$12$E)
    1824                    $C$DW$179       .dwtag  DW_TAG_TI_loop_range
    1825                            .dwattr $C$DW$179, DW_AT_low_pc($C$DW$L$VLIB_subtractBackgroundS16_d$13$B)
    1826                            .dwattr $C$DW$179, DW_AT_high_pc($C$DW$L$VLIB_subtractBackgroundS16_d$13$E)
    1827                    $C$DW$180       .dwtag  DW_TAG_TI_loop_range
    1828                            .dwattr $C$DW$180, DW_AT_low_pc($C$DW$L$VLIB_subtractBackgroundS16_d$14$B)
    1829                            .dwattr $C$DW$180, DW_AT_high_pc($C$DW$L$VLIB_subtractBackgroundS16_d$14$E)
    1830                    $C$DW$181       .dwtag  DW_TAG_TI_loop_range
    1831                            .dwattr $C$DW$181, DW_AT_low_pc($C$DW$L$VLIB_subtractBackgroundS16_d$15$B)
    1832                            .dwattr $C$DW$181, DW_AT_high_pc($C$DW$L$VLIB_subtractBackgroundS16_d$15$E)
    1833                    $C$DW$182       .dwtag  DW_TAG_TI_loop_range
    1834                            .dwattr $C$DW$182, DW_AT_low_pc($C$DW$L$VLIB_subtractBackgroundS16_d$16$B)
    1835                            .dwattr $C$DW$182, DW_AT_high_pc($C$DW$L$VLIB_subtractBackgroundS16_d$16$E)
    1836                    $C$DW$183       .dwtag  DW_TAG_TI_loop_range
    1837                            .dwattr $C$DW$183, DW_AT_low_pc($C$DW$L$VLIB_subtractBackgroundS16_d$18$B)
    1838                            .dwattr $C$DW$183, DW_AT_high_pc($C$DW$L$VLIB_subtractBackgroundS16_d$18$E)
    1839                    $C$DW$184       .dwtag  DW_TAG_TI_loop_range
    1840                            .dwattr $C$DW$184, DW_AT_low_pc($C$DW$L$VLIB_subtractBackgroundS16_d$19$B)
    1841                            .dwattr $C$DW$184, DW_AT_high_pc($C$DW$L$VLIB_subtractBackgroundS16_d$19$E)
    1842                    $C$DW$185       .dwtag  DW_TAG_TI_loop_range
    1843                            .dwattr $C$DW$185, DW_AT_low_pc($C$DW$L$VLIB_subtractBackgroundS16_d$20$B)
    1844                            .dwattr $C$DW$185, DW_AT_high_pc($C$DW$L$VLIB_subtractBackgroundS16_d$20$E)
    1845                    $C$DW$186       .dwtag  DW_TAG_TI_loop_range
    1846                            .dwattr $C$DW$186, DW_AT_low_pc($C$DW$L$VLIB_subtractBackgroundS16_d$21$B)
    1847                            .dwattr $C$DW$186, DW_AT_high_pc($C$DW$L$VLIB_subtractBackgroundS16_d$21$E)
    1848                    $C$DW$187       .dwtag  DW_TAG_TI_loop_range
    1849                            .dwattr $C$DW$187, DW_AT_low_pc($C$DW$L$VLIB_subtractBackgroundS16_d$23$B)
    1850                            .dwattr $C$DW$187, DW_AT_high_pc($C$DW$L$VLIB_subtractBackgroundS16_d$23$E)
    1851                    $C$DW$188       .dwtag  DW_TAG_TI_loop_range
    1852                            .dwattr $C$DW$188, DW_AT_low_pc($C$DW$L$VLIB_subtractBackgroundS16_d$24$B)
    1853                            .dwattr $C$DW$188, DW_AT_high_pc($C$DW$L$VLIB_subtractBackgroundS16_d$24$E)
    1854                    $C$DW$189       .dwtag  DW_TAG_TI_loop_range
    1855                            .dwattr $C$DW$189, DW_AT_low_pc($C$DW$L$VLIB_subtractBackgroundS16_d$25$B)
    1856                            .dwattr $C$DW$189, DW_AT_high_pc($C$DW$L$VLIB_subtractBackgroundS16_d$25$E)
    1857                    $C$DW$190       .dwtag  DW_TAG_TI_loop_range
    1858                            .dwattr $C$DW$190, DW_AT_low_pc($C$DW$L$VLIB_subtractBackgroundS16_d$26$B)
    1859                            .dwattr $C$DW$190, DW_AT_high_pc($C$DW$L$VLIB_subtractBackgroundS16_d$26$E)
    1860                            .dwendtag $C$DW$168
    1861                    
    1862                            .dwattr $C$DW$95, DW_AT_TI_end_file("./../packages/ti/vlib/src/VLIB_subtractBackgroundS16/VLIB
    1863                            .dwattr $C$DW$95, DW_AT_TI_end_line(0x9a)
    1864                            .dwattr $C$DW$95, DW_AT_TI_end_column(0x01)
    1865                            .dwendentry
    1866                            .dwendtag $C$DW$95
    1867                    
    1868                    ;; Inlined function references:
    1869                    ;; [ 15] VLIB_profile_start
    1870                    ;; [ 16] VLIB_profile_stop
TMS320C6x Assembler PC v7.4.2 Thu Mar 19 12:44:48 2015

Tools Copyright (c) 1996-2012 Texas Instruments Incorporated
package/lib/Regression/regress_d_c/./../packages/ti/vlib/src/VLIB_subtractBackgroundS16/VLIB_subtractBackgroundS16_d.se66 PAGE   35

    1871                    ;; [ 19] VLIB_kernel_memory
    1872                    ;******************************************************************************
    1873                    ;* STRINGS                                                                    *
    1874                    ;******************************************************************************
    1875 00000000                   .sect   ".const:.string"
    1876 00000000 00000056  $C$SL1: .string "VLIB_subtractBackgroundS16",0
         00000001 0000004C 
         00000002 00000049 
         00000003 00000042 
         00000004 0000005F 
         00000005 00000073 
         00000006 00000075 
         00000007 00000062 
         00000008 00000074 
         00000009 00000072 
         0000000a 00000061 
         0000000b 00000063 
         0000000c 00000074 
         0000000d 00000042 
         0000000e 00000061 
         0000000f 00000063 
         00000010 0000006B 
         00000011 00000067 
         00000012 00000072 
         00000013 0000006F 
         00000014 00000075 
         00000015 0000006E 
         00000016 00000064 
         00000017 00000053 
         00000018 00000031 
         00000019 00000036 
         0000001a 00000000 
    1877 0000001b 00000025  $C$SL2: .string "%s generated input | Opt results compared to NatC results |"
         0000001c 00000073 
         0000001d 00000020 
         0000001e 00000067 
         0000001f 00000065 
         00000020 0000006E 
         00000021 00000065 
         00000022 00000072 
         00000023 00000061 
         00000024 00000074 
         00000025 00000065 
         00000026 00000064 
         00000027 00000020 
         00000028 00000069 
         00000029 0000006E 
         0000002a 00000070 
         0000002b 00000075 
         0000002c 00000074 
         0000002d 00000020 
         0000002e 0000007C 
         0000002f 00000020 
         00000030 0000004F 
         00000031 00000070 
TMS320C6x Assembler PC v7.4.2 Thu Mar 19 12:44:48 2015

Tools Copyright (c) 1996-2012 Texas Instruments Incorporated
package/lib/Regression/regress_d_c/./../packages/ti/vlib/src/VLIB_subtractBackgroundS16/VLIB_subtractBackgroundS16_d.se66 PAGE   36

         00000032 00000074 
         00000033 00000020 
         00000034 00000072 
         00000035 00000065 
         00000036 00000073 
         00000037 00000075 
         00000038 0000006C 
         00000039 00000074 
         0000003a 00000073 
         0000003b 00000020 
         0000003c 00000063 
         0000003d 0000006F 
         0000003e 0000006D 
         0000003f 00000070 
         00000040 00000061 
         00000041 00000072 
         00000042 00000065 
         00000043 00000064 
         00000044 00000020 
         00000045 00000074 
         00000046 0000006F 
         00000047 00000020 
         00000048 0000004E 
         00000049 00000061 
         0000004a 00000074 
         0000004b 00000043 
         0000004c 00000020 
         0000004d 00000072 
         0000004e 00000065 
         0000004f 00000073 
         00000050 00000075 
         00000051 0000006C 
         00000052 00000074 
         00000053 00000073 
         00000054 00000020 
         00000055 0000007C 
    1878 00000056 00000020          .string " PixelCount=%d",0
         00000057 00000050 
         00000058 00000069 
         00000059 00000078 
         0000005a 00000065 
         0000005b 0000006C 
         0000005c 00000043 
         0000005d 0000006F 
         0000005e 00000075 
         0000005f 0000006E 
         00000060 00000074 
         00000061 0000003D 
         00000062 00000025 
         00000063 00000064 
         00000064 00000000 
    1879 00000065 00000050  $C$SL3: .string "PixelCount=%d",0
         00000066 00000069 
         00000067 00000078 
         00000068 00000065 
TMS320C6x Assembler PC v7.4.2 Thu Mar 19 12:44:48 2015

Tools Copyright (c) 1996-2012 Texas Instruments Incorporated
package/lib/Regression/regress_d_c/./../packages/ti/vlib/src/VLIB_subtractBackgroundS16/VLIB_subtractBackgroundS16_d.se66 PAGE   37

         00000069 0000006C 
         0000006a 00000043 
         0000006b 0000006F 
         0000006c 00000075 
         0000006d 0000006E 
         0000006e 00000074 
         0000006f 0000003D 
         00000070 00000025 
         00000071 00000064 
         00000072 00000000 
    1880 00000073 00000050  $C$SL4: .string "PixelCount",0
         00000074 00000069 
         00000075 00000078 
         00000076 00000065 
         00000077 0000006C 
         00000078 00000043 
         00000079 0000006F 
         0000007a 00000075 
         0000007b 0000006E 
         0000007c 00000074 
         0000007d 00000000 
    1881 0000007e 0000004E  $C$SL5: .string "N = PixelCount",0
         0000007f 00000020 
         00000080 0000003D 
         00000081 00000020 
         00000082 00000050 
         00000083 00000069 
         00000084 00000078 
         00000085 00000065 
         00000086 0000006C 
         00000087 00000043 
         00000088 0000006F 
         00000089 00000075 
         0000008a 0000006E 
         0000008b 00000074 
         0000008c 00000000 
    1882 0000008d 0000002D  $C$SL6: .string "-----------------------------------------------------------"
         0000008e 0000002D 
         0000008f 0000002D 
         00000090 0000002D 
         00000091 0000002D 
         00000092 0000002D 
         00000093 0000002D 
         00000094 0000002D 
         00000095 0000002D 
         00000096 0000002D 
         00000097 0000002D 
         00000098 0000002D 
         00000099 0000002D 
         0000009a 0000002D 
         0000009b 0000002D 
         0000009c 0000002D 
         0000009d 0000002D 
         0000009e 0000002D 
         0000009f 0000002D 
TMS320C6x Assembler PC v7.4.2 Thu Mar 19 12:44:48 2015

Tools Copyright (c) 1996-2012 Texas Instruments Incorporated
package/lib/Regression/regress_d_c/./../packages/ti/vlib/src/VLIB_subtractBackgroundS16/VLIB_subtractBackgroundS16_d.se66 PAGE   38

         000000a0 0000002D 
         000000a1 0000002D 
         000000a2 0000002D 
         000000a3 0000002D 
         000000a4 0000002D 
         000000a5 0000002D 
         000000a6 0000002D 
         000000a7 0000002D 
         000000a8 0000002D 
         000000a9 0000002D 
         000000aa 0000002D 
         000000ab 0000002D 
         000000ac 0000002D 
         000000ad 0000002D 
         000000ae 0000002D 
         000000af 0000002D 
         000000b0 0000002D 
         000000b1 0000002D 
         000000b2 0000002D 
         000000b3 0000002D 
         000000b4 0000002D 
         000000b5 0000002D 
         000000b6 0000002D 
         000000b7 0000002D 
         000000b8 0000002D 
         000000b9 0000002D 
         000000ba 0000002D 
         000000bb 0000002D 
         000000bc 0000002D 
         000000bd 0000002D 
         000000be 0000002D 
         000000bf 0000002D 
         000000c0 0000002D 
         000000c1 0000002D 
         000000c2 0000002D 
         000000c3 0000002D 
         000000c4 0000002D 
         000000c5 0000002D 
         000000c6 0000002D 
         000000c7 0000002D 
    1883 000000c8 0000002D          .string "-----------------------------------------------------------"
         000000c9 0000002D 
         000000ca 0000002D 
         000000cb 0000002D 
         000000cc 0000002D 
         000000cd 0000002D 
         000000ce 0000002D 
         000000cf 0000002D 
         000000d0 0000002D 
         000000d1 0000002D 
         000000d2 0000002D 
         000000d3 0000002D 
         000000d4 0000002D 
         000000d5 0000002D 
         000000d6 0000002D 
TMS320C6x Assembler PC v7.4.2 Thu Mar 19 12:44:48 2015

Tools Copyright (c) 1996-2012 Texas Instruments Incorporated
package/lib/Regression/regress_d_c/./../packages/ti/vlib/src/VLIB_subtractBackgroundS16/VLIB_subtractBackgroundS16_d.se66 PAGE   39

         000000d7 0000002D 
         000000d8 0000002D 
         000000d9 0000002D 
         000000da 0000002D 
         000000db 0000002D 
         000000dc 0000002D 
         000000dd 0000002D 
         000000de 0000002D 
         000000df 0000002D 
         000000e0 0000002D 
         000000e1 0000002D 
         000000e2 0000002D 
         000000e3 0000002D 
         000000e4 0000002D 
         000000e5 0000002D 
         000000e6 0000002D 
         000000e7 0000002D 
         000000e8 0000002D 
         000000e9 0000002D 
         000000ea 0000002D 
         000000eb 0000002D 
         000000ec 0000002D 
         000000ed 0000002D 
         000000ee 0000002D 
         000000ef 0000002D 
         000000f0 0000002D 
         000000f1 0000002D 
         000000f2 0000002D 
         000000f3 0000002D 
         000000f4 0000002D 
         000000f5 0000002D 
         000000f6 0000002D 
         000000f7 0000002D 
         000000f8 0000002D 
         000000f9 0000002D 
         000000fa 0000002D 
         000000fb 0000002D 
         000000fc 0000002D 
         000000fd 0000002D 
         000000fe 0000002D 
         000000ff 0000002D 
         00000100 0000002D 
         00000101 0000002D 
         00000102 0000002D 
    1884 00000103 0000002D          .string "-----------------------",10,0
         00000104 0000002D 
         00000105 0000002D 
         00000106 0000002D 
         00000107 0000002D 
         00000108 0000002D 
         00000109 0000002D 
         0000010a 0000002D 
         0000010b 0000002D 
         0000010c 0000002D 
         0000010d 0000002D 
TMS320C6x Assembler PC v7.4.2 Thu Mar 19 12:44:48 2015

Tools Copyright (c) 1996-2012 Texas Instruments Incorporated
package/lib/Regression/regress_d_c/./../packages/ti/vlib/src/VLIB_subtractBackgroundS16/VLIB_subtractBackgroundS16_d.se66 PAGE   40

         0000010e 0000002D 
         0000010f 0000002D 
         00000110 0000002D 
         00000111 0000002D 
         00000112 0000002D 
         00000113 0000002D 
         00000114 0000002D 
         00000115 0000002D 
         00000116 0000002D 
         00000117 0000002D 
         00000118 0000002D 
         00000119 0000002D 
         0000011a 0000000A 
         0000011b 00000000 
    1885                    ;*****************************************************************************
    1886                    ;* UNDEFINED EXTERNAL REFERENCES                                             *
    1887                    ;*****************************************************************************
    1888                            .global printf
    1889                            .global sprintf
    1890                            .global malloc
    1891                            .global free
    1892                            .global VLIB_cache_inval
    1893                            .global VLIB_profile_init
    1894                            .global VLIB_formula_add_test
    1895                            .global VLIB_skip_test
    1896                            .global VLIB_profile_cycle_report
    1897                            .global initStack
    1898                            .global setStackDepth
    1899                            .global getSP
    1900                            .global VLIB_stack_memory
    1901                            .global VLIB_compare_mem
    1902                            .global VLIB_fillBuffer
    1903                            .global VLIB_malloc
    1904                            .global VLIB_free
    1905                            .global VLIB_initMeanWithLumaS16_cn
    1906                            .global VLIB_initVarWithConstS16_cn
    1907                            .global VLIB_subtractBackgroundS16
    1908                            .global VLIB_subtractBackgroundS16_cn
    1909                            .global subtractBackgroundS16_getTestParams
    1910                            .global test_cases
    1911                            .global act_kernel
    1912                            .global desc
    1913                            .global testPatternString
    1914                            .global est_test
    1915                            .global beg_count
    1916                            .global end_count
    1917                            .global overhead
    1918                            .global cycles
    1919                            .global memcpy
    1920                    
    1921                    ;******************************************************************************
    1922                    ;* BUILD ATTRIBUTES                                                           *
    1923                    ;******************************************************************************
    1924                            .battr "TI", Tag_File, 1, Tag_Long_Precision_Bits(2)
    1925                            .battr "TI", Tag_File, 1, Tag_Bitfield_layout(2)
TMS320C6x Assembler PC v7.4.2 Thu Mar 19 12:44:48 2015

Tools Copyright (c) 1996-2012 Texas Instruments Incorporated
package/lib/Regression/regress_d_c/./../packages/ti/vlib/src/VLIB_subtractBackgroundS16/VLIB_subtractBackgroundS16_d.se66 PAGE   41

    1926                            .battr "TI", Tag_File, 1, Tag_ABI_enum_size(2)
    1927                            .battr "c6xabi", Tag_File, 1, Tag_ABI_wchar_t(1)
    1928                            .battr "c6xabi", Tag_File, 1, Tag_ABI_array_object_alignment(0)
    1929                            .battr "c6xabi", Tag_File, 1, Tag_ABI_array_object_align_expected(0)
    1930                            .battr "c6xabi", Tag_File, 1, Tag_ABI_PIC(0)
    1931                            .battr "c6xabi", Tag_File, 1, Tag_ABI_PID(0)
    1932                            .battr "c6xabi", Tag_File, 1, Tag_ABI_DSBT(0)
    1933                            .battr "c6xabi", Tag_File, 1, Tag_ABI_stack_align_needed(0)
    1934                            .battr "c6xabi", Tag_File, 1, Tag_ABI_stack_align_preserved(0)
    1935                            .battr "TI", Tag_File, 1, Tag_Tramps_Use_SOC(1)
    1936                    
    1937                    ;******************************************************************************
    1938                    ;* TYPE INFORMATION                                                           *
    1939                    ;******************************************************************************
    1940                    
    1941                    $C$DW$T$38      .dwtag  DW_TAG_enumeration_type
    1942                            .dwattr $C$DW$T$38, DW_AT_byte_size(0x04)
    1943                    $C$DW$191       .dwtag  DW_TAG_enumerator, DW_AT_name("VLIB_NO_ERROR"), DW_AT_const_value(0x00)
    1944                            .dwattr $C$DW$191, DW_AT_decl_file(".\..\packages\ti\vlib\src\VLIB_subtractBackgroundS16\..\co
    1945                            .dwattr $C$DW$191, DW_AT_decl_line(0x7a)
    1946                            .dwattr $C$DW$191, DW_AT_decl_column(0x05)
    1947                    $C$DW$192       .dwtag  DW_TAG_enumerator, DW_AT_name("VLIB_ERR_INPUT_INVALID"), DW_AT_const_value(0x0
    1948                            .dwattr $C$DW$192, DW_AT_decl_file(".\..\packages\ti\vlib\src\VLIB_subtractBackgroundS16\..\co
    1949                            .dwattr $C$DW$192, DW_AT_decl_line(0x7b)
    1950                            .dwattr $C$DW$192, DW_AT_decl_column(0x05)
    1951                    $C$DW$193       .dwtag  DW_TAG_enumerator, DW_AT_name("VLIB_ERR_INPUT_NEGATIVE"), DW_AT_const_value(0x
    1952                            .dwattr $C$DW$193, DW_AT_decl_file(".\..\packages\ti\vlib\src\VLIB_subtractBackgroundS16\..\co
    1953                            .dwattr $C$DW$193, DW_AT_decl_line(0x7c)
    1954                            .dwattr $C$DW$193, DW_AT_decl_column(0x05)
    1955                    $C$DW$194       .dwtag  DW_TAG_enumerator, DW_AT_name("VLIB_ERR_INPUT_EXCEEDED_RANGE"), DW_AT_const_va
    1956                            .dwattr $C$DW$194, DW_AT_decl_file(".\..\packages\ti\vlib\src\VLIB_subtractBackgroundS16\..\co
    1957                            .dwattr $C$DW$194, DW_AT_decl_line(0x7d)
    1958                            .dwattr $C$DW$194, DW_AT_decl_column(0x05)
    1959                    $C$DW$195       .dwtag  DW_TAG_enumerator, DW_AT_name("VLIB_ERR_MEMORY_EXCEEDED_BOUNDARY"), DW_AT_cons
    1960                            .dwattr $C$DW$195, DW_AT_decl_file(".\..\packages\ti\vlib\src\VLIB_subtractBackgroundS16\..\co
    1961                            .dwattr $C$DW$195, DW_AT_decl_line(0x7e)
    1962                            .dwattr $C$DW$195, DW_AT_decl_column(0x05)
    1963                    $C$DW$196       .dwtag  DW_TAG_enumerator, DW_AT_name("VLIB_ERR_MEMORY_ALLOCATION_FAILURE"), DW_AT_con
    1964                            .dwattr $C$DW$196, DW_AT_decl_file(".\..\packages\ti\vlib\src\VLIB_subtractBackgroundS16\..\co
    1965                            .dwattr $C$DW$196, DW_AT_decl_line(0x7f)
    1966                            .dwattr $C$DW$196, DW_AT_decl_column(0x05)
    1967                    $C$DW$197       .dwtag  DW_TAG_enumerator, DW_AT_name("VLIB_ERR_MEMORY_POINTER_NULL"), DW_AT_const_val
    1968                            .dwattr $C$DW$197, DW_AT_decl_file(".\..\packages\ti\vlib\src\VLIB_subtractBackgroundS16\..\co
    1969                            .dwattr $C$DW$197, DW_AT_decl_line(0x80)
    1970                            .dwattr $C$DW$197, DW_AT_decl_column(0x05)
    1971                    $C$DW$198       .dwtag  DW_TAG_enumerator, DW_AT_name("VLIB_ERR_DMA_FAILURE"), DW_AT_const_value(0x07)
    1972                            .dwattr $C$DW$198, DW_AT_decl_file(".\..\packages\ti\vlib\src\VLIB_subtractBackgroundS16\..\co
    1973                            .dwattr $C$DW$198, DW_AT_decl_line(0x81)
    1974                            .dwattr $C$DW$198, DW_AT_decl_column(0x05)
    1975                    $C$DW$199       .dwtag  DW_TAG_enumerator, DW_AT_name("VLIB_ERR_FILE_OPEN_FAILURE"), DW_AT_const_value
    1976                            .dwattr $C$DW$199, DW_AT_decl_file(".\..\packages\ti\vlib\src\VLIB_subtractBackgroundS16\..\co
    1977                            .dwattr $C$DW$199, DW_AT_decl_line(0x82)
    1978                            .dwattr $C$DW$199, DW_AT_decl_column(0x05)
    1979                    $C$DW$200       .dwtag  DW_TAG_enumerator, DW_AT_name("VLIB_ERR_FILE_READ_FAILURE"), DW_AT_const_value
    1980                            .dwattr $C$DW$200, DW_AT_decl_file(".\..\packages\ti\vlib\src\VLIB_subtractBackgroundS16\..\co
TMS320C6x Assembler PC v7.4.2 Thu Mar 19 12:44:48 2015

Tools Copyright (c) 1996-2012 Texas Instruments Incorporated
package/lib/Regression/regress_d_c/./../packages/ti/vlib/src/VLIB_subtractBackgroundS16/VLIB_subtractBackgroundS16_d.se66 PAGE   42

    1981                            .dwattr $C$DW$200, DW_AT_decl_line(0x83)
    1982                            .dwattr $C$DW$200, DW_AT_decl_column(0x05)
    1983                    $C$DW$201       .dwtag  DW_TAG_enumerator, DW_AT_name("VLIB_ERR_FILE_WRITE_FAILURE"), DW_AT_const_valu
    1984                            .dwattr $C$DW$201, DW_AT_decl_file(".\..\packages\ti\vlib\src\VLIB_subtractBackgroundS16\..\co
    1985                            .dwattr $C$DW$201, DW_AT_decl_line(0x84)
    1986                            .dwattr $C$DW$201, DW_AT_decl_column(0x05)
    1987                    $C$DW$202       .dwtag  DW_TAG_enumerator, DW_AT_name("VLIB_ERR_FILE_CLOSE_FAILURE"), DW_AT_const_valu
    1988                            .dwattr $C$DW$202, DW_AT_decl_file(".\..\packages\ti\vlib\src\VLIB_subtractBackgroundS16\..\co
    1989                            .dwattr $C$DW$202, DW_AT_decl_line(0x85)
    1990                            .dwattr $C$DW$202, DW_AT_decl_column(0x05)
    1991                    $C$DW$203       .dwtag  DW_TAG_enumerator, DW_AT_name("VLIB_ERR_FILE_FORMAT_FAILURE"), DW_AT_const_val
    1992                            .dwattr $C$DW$203, DW_AT_decl_file(".\..\packages\ti\vlib\src\VLIB_subtractBackgroundS16\..\co
    1993                            .dwattr $C$DW$203, DW_AT_decl_line(0x86)
    1994                            .dwattr $C$DW$203, DW_AT_decl_column(0x05)
    1995                    $C$DW$204       .dwtag  DW_TAG_enumerator, DW_AT_name("VLIB_WARNING_LOW_MEMORY"), DW_AT_const_value(0x
    1996                            .dwattr $C$DW$204, DW_AT_decl_file(".\..\packages\ti\vlib\src\VLIB_subtractBackgroundS16\..\co
    1997                            .dwattr $C$DW$204, DW_AT_decl_line(0x87)
    1998                            .dwattr $C$DW$204, DW_AT_decl_column(0x05)
    1999                    $C$DW$205       .dwtag  DW_TAG_enumerator, DW_AT_name("VLIB_ERR_NOT_IMPLEMENTED"), DW_AT_const_value(0
    2000                            .dwattr $C$DW$205, DW_AT_decl_file(".\..\packages\ti\vlib\src\VLIB_subtractBackgroundS16\..\co
    2001                            .dwattr $C$DW$205, DW_AT_decl_line(0x88)
    2002                            .dwattr $C$DW$205, DW_AT_decl_column(0x05)
    2003                    $C$DW$206       .dwtag  DW_TAG_enumerator, DW_AT_name("VLIB_ERROR_MAX"), DW_AT_const_value(0x0f)
    2004                            .dwattr $C$DW$206, DW_AT_decl_file(".\..\packages\ti\vlib\src\VLIB_subtractBackgroundS16\..\co
    2005                            .dwattr $C$DW$206, DW_AT_decl_line(0x89)
    2006                            .dwattr $C$DW$206, DW_AT_decl_column(0x05)
    2007                            .dwendtag $C$DW$T$38
    2008                    
    2009                            .dwattr $C$DW$T$38, DW_AT_decl_file(".\..\packages\ti\vlib\src\VLIB_subtractBackgroundS16\..\c
    2010                            .dwattr $C$DW$T$38, DW_AT_decl_line(0x79)
    2011                            .dwattr $C$DW$T$38, DW_AT_decl_column(0x0e)
    2012                    $C$DW$T$39      .dwtag  DW_TAG_typedef, DW_AT_name("VLIB_STATUS")
    2013                            .dwattr $C$DW$T$39, DW_AT_type(*$C$DW$T$38)
    2014                            .dwattr $C$DW$T$39, DW_AT_language(DW_LANG_C)
    2015                            .dwattr $C$DW$T$39, DW_AT_decl_file(".\..\packages\ti\vlib\src\VLIB_subtractBackgroundS16\..\c
    2016                            .dwattr $C$DW$T$39, DW_AT_decl_line(0x8a)
    2017                            .dwattr $C$DW$T$39, DW_AT_decl_column(0x03)
    2018                    
    2019                    $C$DW$T$40      .dwtag  DW_TAG_enumeration_type
    2020                            .dwattr $C$DW$T$40, DW_AT_byte_size(0x04)
    2021                    $C$DW$207       .dwtag  DW_TAG_enumerator, DW_AT_name("vlib_KERNEL_OPT"), DW_AT_const_value(0x00)
    2022                            .dwattr $C$DW$207, DW_AT_decl_file(".\..\packages\ti\vlib\src\VLIB_subtractBackgroundS16\../co
    2023                            .dwattr $C$DW$207, DW_AT_decl_line(0x6a)
    2024                            .dwattr $C$DW$207, DW_AT_decl_column(0x05)
    2025                    $C$DW$208       .dwtag  DW_TAG_enumerator, DW_AT_name("vlib_KERNEL_CN"), DW_AT_const_value(0x01)
    2026                            .dwattr $C$DW$208, DW_AT_decl_file(".\..\packages\ti\vlib\src\VLIB_subtractBackgroundS16\../co
    2027                            .dwattr $C$DW$208, DW_AT_decl_line(0x6b)
    2028                            .dwattr $C$DW$208, DW_AT_decl_column(0x05)
    2029                    $C$DW$209       .dwtag  DW_TAG_enumerator, DW_AT_name("vlib_KERNEL_CNT"), DW_AT_const_value(0x02)
    2030                            .dwattr $C$DW$209, DW_AT_decl_file(".\..\packages\ti\vlib\src\VLIB_subtractBackgroundS16\../co
    2031                            .dwattr $C$DW$209, DW_AT_decl_line(0x6c)
    2032                            .dwattr $C$DW$209, DW_AT_decl_column(0x05)
    2033                            .dwendtag $C$DW$T$40
    2034                    
    2035                            .dwattr $C$DW$T$40, DW_AT_decl_file(".\..\packages\ti\vlib\src\VLIB_subtractBackgroundS16\../c
TMS320C6x Assembler PC v7.4.2 Thu Mar 19 12:44:48 2015

Tools Copyright (c) 1996-2012 Texas Instruments Incorporated
package/lib/Regression/regress_d_c/./../packages/ti/vlib/src/VLIB_subtractBackgroundS16/VLIB_subtractBackgroundS16_d.se66 PAGE   43

    2036                            .dwattr $C$DW$T$40, DW_AT_decl_line(0x69)
    2037                            .dwattr $C$DW$T$40, DW_AT_decl_column(0x06)
    2038                    
    2039                    $C$DW$T$41      .dwtag  DW_TAG_enumeration_type
    2040                            .dwattr $C$DW$T$41, DW_AT_byte_size(0x04)
    2041                    $C$DW$210       .dwtag  DW_TAG_enumerator, DW_AT_name("vlib_KERNEL_FAIL"), DW_AT_const_value(0x00)
    2042                            .dwattr $C$DW$210, DW_AT_decl_file(".\..\packages\ti\vlib\src\VLIB_subtractBackgroundS16\../co
    2043                            .dwattr $C$DW$210, DW_AT_decl_line(0x72)
    2044                            .dwattr $C$DW$210, DW_AT_decl_column(0x05)
    2045                    $C$DW$211       .dwtag  DW_TAG_enumerator, DW_AT_name("vlib_KERNEL_PASS"), DW_AT_const_value(0x01)
    2046                            .dwattr $C$DW$211, DW_AT_decl_file(".\..\packages\ti\vlib\src\VLIB_subtractBackgroundS16\../co
    2047                            .dwattr $C$DW$211, DW_AT_decl_line(0x73)
    2048                            .dwattr $C$DW$211, DW_AT_decl_column(0x05)
    2049                            .dwendtag $C$DW$T$41
    2050                    
    2051                            .dwattr $C$DW$T$41, DW_AT_decl_file(".\..\packages\ti\vlib\src\VLIB_subtractBackgroundS16\../c
    2052                            .dwattr $C$DW$T$41, DW_AT_decl_line(0x71)
    2053                            .dwattr $C$DW$T$41, DW_AT_decl_column(0x06)
    2054                    
    2055                    $C$DW$T$24      .dwtag  DW_TAG_structure_type
    2056                            .dwattr $C$DW$T$24, DW_AT_byte_size(0x18)
    2057                    $C$DW$212       .dwtag  DW_TAG_member
    2058                            .dwattr $C$DW$212, DW_AT_type(*$C$DW$T$19)
    2059                            .dwattr $C$DW$212, DW_AT_name("testPattern")
    2060                            .dwattr $C$DW$212, DW_AT_TI_symbol_name("testPattern")
    2061                            .dwattr $C$DW$212, DW_AT_data_member_location[DW_OP_plus_uconst 0x0]
    2062                            .dwattr $C$DW$212, DW_AT_accessibility(DW_ACCESS_public)
    2063                            .dwattr $C$DW$212, DW_AT_decl_file(".\..\packages\ti\vlib\src\VLIB_subtractBackgroundS16\VLIB_
    2064                            .dwattr $C$DW$212, DW_AT_decl_line(0x24)
    2065                            .dwattr $C$DW$212, DW_AT_decl_column(0x0f)
    2066                    $C$DW$213       .dwtag  DW_TAG_member
    2067                            .dwattr $C$DW$213, DW_AT_type(*$C$DW$T$20)
    2068                            .dwattr $C$DW$213, DW_AT_name("staticInLuma")
    2069                            .dwattr $C$DW$213, DW_AT_TI_symbol_name("staticInLuma")
    2070                            .dwattr $C$DW$213, DW_AT_data_member_location[DW_OP_plus_uconst 0x4]
    2071                            .dwattr $C$DW$213, DW_AT_accessibility(DW_ACCESS_public)
    2072                            .dwattr $C$DW$213, DW_AT_decl_file(".\..\packages\ti\vlib\src\VLIB_subtractBackgroundS16\VLIB_
    2073                            .dwattr $C$DW$213, DW_AT_decl_line(0x25)
    2074                            .dwattr $C$DW$213, DW_AT_decl_column(0x0f)
    2075                    $C$DW$214       .dwtag  DW_TAG_member
    2076                            .dwattr $C$DW$214, DW_AT_type(*$C$DW$T$20)
    2077                            .dwattr $C$DW$214, DW_AT_name("staticInPrevLuma")
    2078                            .dwattr $C$DW$214, DW_AT_TI_symbol_name("staticInPrevLuma")
    2079                            .dwattr $C$DW$214, DW_AT_data_member_location[DW_OP_plus_uconst 0x8]
    2080                            .dwattr $C$DW$214, DW_AT_accessibility(DW_ACCESS_public)
    2081                            .dwattr $C$DW$214, DW_AT_decl_file(".\..\packages\ti\vlib\src\VLIB_subtractBackgroundS16\VLIB_
    2082                            .dwattr $C$DW$214, DW_AT_decl_line(0x26)
    2083                            .dwattr $C$DW$214, DW_AT_decl_column(0x0f)
    2084                    $C$DW$215       .dwtag  DW_TAG_member
    2085                            .dwattr $C$DW$215, DW_AT_type(*$C$DW$T$22)
    2086                            .dwattr $C$DW$215, DW_AT_name("staticOutMask")
    2087                            .dwattr $C$DW$215, DW_AT_TI_symbol_name("staticOutMask")
    2088                            .dwattr $C$DW$215, DW_AT_data_member_location[DW_OP_plus_uconst 0xc]
    2089                            .dwattr $C$DW$215, DW_AT_accessibility(DW_ACCESS_public)
    2090                            .dwattr $C$DW$215, DW_AT_decl_file(".\..\packages\ti\vlib\src\VLIB_subtractBackgroundS16\VLIB_
TMS320C6x Assembler PC v7.4.2 Thu Mar 19 12:44:48 2015

Tools Copyright (c) 1996-2012 Texas Instruments Incorporated
package/lib/Regression/regress_d_c/./../packages/ti/vlib/src/VLIB_subtractBackgroundS16/VLIB_subtractBackgroundS16_d.se66 PAGE   44

    2091                            .dwattr $C$DW$215, DW_AT_decl_line(0x27)
    2092                            .dwattr $C$DW$215, DW_AT_decl_column(0x0f)
    2093                    $C$DW$216       .dwtag  DW_TAG_member
    2094                            .dwattr $C$DW$216, DW_AT_type(*$C$DW$T$23)
    2095                            .dwattr $C$DW$216, DW_AT_name("thresholdGlobal")
    2096                            .dwattr $C$DW$216, DW_AT_TI_symbol_name("thresholdGlobal")
    2097                            .dwattr $C$DW$216, DW_AT_data_member_location[DW_OP_plus_uconst 0x10]
    2098                            .dwattr $C$DW$216, DW_AT_accessibility(DW_ACCESS_public)
    2099                            .dwattr $C$DW$216, DW_AT_decl_file(".\..\packages\ti\vlib\src\VLIB_subtractBackgroundS16\VLIB_
    2100                            .dwattr $C$DW$216, DW_AT_decl_line(0x28)
    2101                            .dwattr $C$DW$216, DW_AT_decl_column(0x0f)
    2102                    $C$DW$217       .dwtag  DW_TAG_member
    2103                            .dwattr $C$DW$217, DW_AT_type(*$C$DW$T$23)
    2104                            .dwattr $C$DW$217, DW_AT_name("thresholdFactor")
    2105                            .dwattr $C$DW$217, DW_AT_TI_symbol_name("thresholdFactor")
    2106                            .dwattr $C$DW$217, DW_AT_data_member_location[DW_OP_plus_uconst 0x12]
    2107                            .dwattr $C$DW$217, DW_AT_accessibility(DW_ACCESS_public)
    2108                            .dwattr $C$DW$217, DW_AT_decl_file(".\..\packages\ti\vlib\src\VLIB_subtractBackgroundS16\VLIB_
    2109                            .dwattr $C$DW$217, DW_AT_decl_line(0x29)
    2110                            .dwattr $C$DW$217, DW_AT_decl_column(0x0f)
    2111                    $C$DW$218       .dwtag  DW_TAG_member
    2112                            .dwattr $C$DW$218, DW_AT_type(*$C$DW$T$21)
    2113                            .dwattr $C$DW$218, DW_AT_name("PixelCount")
    2114                            .dwattr $C$DW$218, DW_AT_TI_symbol_name("PixelCount")
    2115                            .dwattr $C$DW$218, DW_AT_data_member_location[DW_OP_plus_uconst 0x14]
    2116                            .dwattr $C$DW$218, DW_AT_accessibility(DW_ACCESS_public)
    2117                            .dwattr $C$DW$218, DW_AT_decl_file(".\..\packages\ti\vlib\src\VLIB_subtractBackgroundS16\VLIB_
    2118                            .dwattr $C$DW$218, DW_AT_decl_line(0x2a)
    2119                            .dwattr $C$DW$218, DW_AT_decl_column(0x0f)
    2120                            .dwendtag $C$DW$T$24
    2121                    
    2122                            .dwattr $C$DW$T$24, DW_AT_decl_file(".\..\packages\ti\vlib\src\VLIB_subtractBackgroundS16\VLIB
    2123                            .dwattr $C$DW$T$24, DW_AT_decl_line(0x23)
    2124                            .dwattr $C$DW$T$24, DW_AT_decl_column(0x10)
    2125                    $C$DW$T$42      .dwtag  DW_TAG_pointer_type
    2126                            .dwattr $C$DW$T$42, DW_AT_type(*$C$DW$T$24)
    2127                            .dwattr $C$DW$T$42, DW_AT_address_class(0x20)
    2128                    $C$DW$T$44      .dwtag  DW_TAG_typedef, DW_AT_name("subtractBackgroundS16_testParams_t")
    2129                            .dwattr $C$DW$T$44, DW_AT_type(*$C$DW$T$24)
    2130                            .dwattr $C$DW$T$44, DW_AT_language(DW_LANG_C)
    2131                            .dwattr $C$DW$T$44, DW_AT_decl_file(".\..\packages\ti\vlib\src\VLIB_subtractBackgroundS16\VLIB
    2132                            .dwattr $C$DW$T$44, DW_AT_decl_line(0x2b)
    2133                            .dwattr $C$DW$T$44, DW_AT_decl_column(0x03)
    2134                    $C$DW$T$45      .dwtag  DW_TAG_pointer_type
    2135                            .dwattr $C$DW$T$45, DW_AT_type(*$C$DW$T$44)
    2136                            .dwattr $C$DW$T$45, DW_AT_address_class(0x20)
    2137                    $C$DW$T$46      .dwtag  DW_TAG_pointer_type
    2138                            .dwattr $C$DW$T$46, DW_AT_type(*$C$DW$T$45)
    2139                            .dwattr $C$DW$T$46, DW_AT_address_class(0x20)
    2140                    
    2141                    $C$DW$T$26      .dwtag  DW_TAG_structure_type
    2142                            .dwattr $C$DW$T$26, DW_AT_byte_size(0x18)
    2143                    $C$DW$219       .dwtag  DW_TAG_member
    2144                            .dwattr $C$DW$219, DW_AT_type(*$C$DW$T$10)
    2145                            .dwattr $C$DW$219, DW_AT_name("fd")
TMS320C6x Assembler PC v7.4.2 Thu Mar 19 12:44:48 2015

Tools Copyright (c) 1996-2012 Texas Instruments Incorporated
package/lib/Regression/regress_d_c/./../packages/ti/vlib/src/VLIB_subtractBackgroundS16/VLIB_subtractBackgroundS16_d.se66 PAGE   45

    2146                            .dwattr $C$DW$219, DW_AT_TI_symbol_name("fd")
    2147                            .dwattr $C$DW$219, DW_AT_data_member_location[DW_OP_plus_uconst 0x0]
    2148                            .dwattr $C$DW$219, DW_AT_accessibility(DW_ACCESS_public)
    2149                            .dwattr $C$DW$219, DW_AT_decl_file("C:/VLIB_Tools/CCSV5_4_0/ccsv5/tools/compiler/C6000/include
    2150                            .dwattr $C$DW$219, DW_AT_decl_line(0x49)
    2151                            .dwattr $C$DW$219, DW_AT_decl_column(0x0b)
    2152                    $C$DW$220       .dwtag  DW_TAG_member
    2153                            .dwattr $C$DW$220, DW_AT_type(*$C$DW$T$25)
    2154                            .dwattr $C$DW$220, DW_AT_name("buf")
    2155                            .dwattr $C$DW$220, DW_AT_TI_symbol_name("buf")
    2156                            .dwattr $C$DW$220, DW_AT_data_member_location[DW_OP_plus_uconst 0x4]
    2157                            .dwattr $C$DW$220, DW_AT_accessibility(DW_ACCESS_public)
    2158                            .dwattr $C$DW$220, DW_AT_decl_file("C:/VLIB_Tools/CCSV5_4_0/ccsv5/tools/compiler/C6000/include
    2159                            .dwattr $C$DW$220, DW_AT_decl_line(0x4a)
    2160                            .dwattr $C$DW$220, DW_AT_decl_column(0x16)
    2161                    $C$DW$221       .dwtag  DW_TAG_member
    2162                            .dwattr $C$DW$221, DW_AT_type(*$C$DW$T$25)
    2163                            .dwattr $C$DW$221, DW_AT_name("pos")
    2164                            .dwattr $C$DW$221, DW_AT_TI_symbol_name("pos")
    2165                            .dwattr $C$DW$221, DW_AT_data_member_location[DW_OP_plus_uconst 0x8]
    2166                            .dwattr $C$DW$221, DW_AT_accessibility(DW_ACCESS_public)
    2167                            .dwattr $C$DW$221, DW_AT_decl_file("C:/VLIB_Tools/CCSV5_4_0/ccsv5/tools/compiler/C6000/include
    2168                            .dwattr $C$DW$221, DW_AT_decl_line(0x4b)
    2169                            .dwattr $C$DW$221, DW_AT_decl_column(0x16)
    2170                    $C$DW$222       .dwtag  DW_TAG_member
    2171                            .dwattr $C$DW$222, DW_AT_type(*$C$DW$T$25)
    2172                            .dwattr $C$DW$222, DW_AT_name("bufend")
    2173                            .dwattr $C$DW$222, DW_AT_TI_symbol_name("bufend")
    2174                            .dwattr $C$DW$222, DW_AT_data_member_location[DW_OP_plus_uconst 0xc]
    2175                            .dwattr $C$DW$222, DW_AT_accessibility(DW_ACCESS_public)
    2176                            .dwattr $C$DW$222, DW_AT_decl_file("C:/VLIB_Tools/CCSV5_4_0/ccsv5/tools/compiler/C6000/include
    2177                            .dwattr $C$DW$222, DW_AT_decl_line(0x4c)
    2178                            .dwattr $C$DW$222, DW_AT_decl_column(0x16)
    2179                    $C$DW$223       .dwtag  DW_TAG_member
    2180                            .dwattr $C$DW$223, DW_AT_type(*$C$DW$T$25)
    2181                            .dwattr $C$DW$223, DW_AT_name("buff_stop")
    2182                            .dwattr $C$DW$223, DW_AT_TI_symbol_name("buff_stop")
    2183                            .dwattr $C$DW$223, DW_AT_data_member_location[DW_OP_plus_uconst 0x10]
    2184                            .dwattr $C$DW$223, DW_AT_accessibility(DW_ACCESS_public)
    2185                            .dwattr $C$DW$223, DW_AT_decl_file("C:/VLIB_Tools/CCSV5_4_0/ccsv5/tools/compiler/C6000/include
    2186                            .dwattr $C$DW$223, DW_AT_decl_line(0x4d)
    2187                            .dwattr $C$DW$223, DW_AT_decl_column(0x16)
    2188                    $C$DW$224       .dwtag  DW_TAG_member
    2189                            .dwattr $C$DW$224, DW_AT_type(*$C$DW$T$11)
    2190                            .dwattr $C$DW$224, DW_AT_name("flags")
    2191                            .dwattr $C$DW$224, DW_AT_TI_symbol_name("flags")
    2192                            .dwattr $C$DW$224, DW_AT_data_member_location[DW_OP_plus_uconst 0x14]
    2193                            .dwattr $C$DW$224, DW_AT_accessibility(DW_ACCESS_public)
    2194                            .dwattr $C$DW$224, DW_AT_decl_file("C:/VLIB_Tools/CCSV5_4_0/ccsv5/tools/compiler/C6000/include
    2195                            .dwattr $C$DW$224, DW_AT_decl_line(0x4e)
    2196                            .dwattr $C$DW$224, DW_AT_decl_column(0x16)
    2197                            .dwendtag $C$DW$T$26
    2198                    
    2199                            .dwattr $C$DW$T$26, DW_AT_decl_file("C:/VLIB_Tools/CCSV5_4_0/ccsv5/tools/compiler/C6000/includ
    2200                            .dwattr $C$DW$T$26, DW_AT_decl_line(0x48)
TMS320C6x Assembler PC v7.4.2 Thu Mar 19 12:44:48 2015

Tools Copyright (c) 1996-2012 Texas Instruments Incorporated
package/lib/Regression/regress_d_c/./../packages/ti/vlib/src/VLIB_subtractBackgroundS16/VLIB_subtractBackgroundS16_d.se66 PAGE   46

    2201                            .dwattr $C$DW$T$26, DW_AT_decl_column(0x10)
    2202                    $C$DW$T$47      .dwtag  DW_TAG_typedef, DW_AT_name("FILE")
    2203                            .dwattr $C$DW$T$47, DW_AT_type(*$C$DW$T$26)
    2204                            .dwattr $C$DW$T$47, DW_AT_language(DW_LANG_C)
    2205                            .dwattr $C$DW$T$47, DW_AT_decl_file("C:/VLIB_Tools/CCSV5_4_0/ccsv5/tools/compiler/C6000/includ
    2206                            .dwattr $C$DW$T$47, DW_AT_decl_line(0x4f)
    2207                            .dwattr $C$DW$T$47, DW_AT_decl_column(0x03)
    2208                    
    2209                    $C$DW$T$27      .dwtag  DW_TAG_structure_type
    2210                            .dwattr $C$DW$T$27, DW_AT_byte_size(0x08)
    2211                    $C$DW$225       .dwtag  DW_TAG_member
    2212                            .dwattr $C$DW$225, DW_AT_type(*$C$DW$T$10)
    2213                            .dwattr $C$DW$225, DW_AT_name("quot")
    2214                            .dwattr $C$DW$225, DW_AT_TI_symbol_name("quot")
    2215                            .dwattr $C$DW$225, DW_AT_data_member_location[DW_OP_plus_uconst 0x0]
    2216                            .dwattr $C$DW$225, DW_AT_accessibility(DW_ACCESS_public)
    2217                            .dwattr $C$DW$225, DW_AT_decl_file("C:/VLIB_Tools/CCSV5_4_0/ccsv5/tools/compiler/C6000/include
    2218                            .dwattr $C$DW$225, DW_AT_decl_line(0x3e)
    2219                            .dwattr $C$DW$225, DW_AT_decl_column(0x16)
    2220                    $C$DW$226       .dwtag  DW_TAG_member
    2221                            .dwattr $C$DW$226, DW_AT_type(*$C$DW$T$10)
    2222                            .dwattr $C$DW$226, DW_AT_name("rem")
    2223                            .dwattr $C$DW$226, DW_AT_TI_symbol_name("rem")
    2224                            .dwattr $C$DW$226, DW_AT_data_member_location[DW_OP_plus_uconst 0x4]
    2225                            .dwattr $C$DW$226, DW_AT_accessibility(DW_ACCESS_public)
    2226                            .dwattr $C$DW$226, DW_AT_decl_file("C:/VLIB_Tools/CCSV5_4_0/ccsv5/tools/compiler/C6000/include
    2227                            .dwattr $C$DW$226, DW_AT_decl_line(0x3e)
    2228                            .dwattr $C$DW$226, DW_AT_decl_column(0x1c)
    2229                            .dwendtag $C$DW$T$27
    2230                    
    2231                            .dwattr $C$DW$T$27, DW_AT_decl_file("C:/VLIB_Tools/CCSV5_4_0/ccsv5/tools/compiler/C6000/includ
    2232                            .dwattr $C$DW$T$27, DW_AT_decl_line(0x3e)
    2233                            .dwattr $C$DW$T$27, DW_AT_decl_column(0x10)
    2234                    $C$DW$T$48      .dwtag  DW_TAG_typedef, DW_AT_name("div_t")
    2235                            .dwattr $C$DW$T$48, DW_AT_type(*$C$DW$T$27)
    2236                            .dwattr $C$DW$T$48, DW_AT_language(DW_LANG_C)
    2237                            .dwattr $C$DW$T$48, DW_AT_decl_file("C:/VLIB_Tools/CCSV5_4_0/ccsv5/tools/compiler/C6000/includ
    2238                            .dwattr $C$DW$T$48, DW_AT_decl_line(0x3e)
    2239                            .dwattr $C$DW$T$48, DW_AT_decl_column(0x23)
    2240                    
    2241                    $C$DW$T$28      .dwtag  DW_TAG_structure_type
    2242                            .dwattr $C$DW$T$28, DW_AT_byte_size(0x08)
    2243                    $C$DW$227       .dwtag  DW_TAG_member
    2244                            .dwattr $C$DW$227, DW_AT_type(*$C$DW$T$10)
    2245                            .dwattr $C$DW$227, DW_AT_name("quot")
    2246                            .dwattr $C$DW$227, DW_AT_TI_symbol_name("quot")
    2247                            .dwattr $C$DW$227, DW_AT_data_member_location[DW_OP_plus_uconst 0x0]
    2248                            .dwattr $C$DW$227, DW_AT_accessibility(DW_ACCESS_public)
    2249                            .dwattr $C$DW$227, DW_AT_decl_file("C:/VLIB_Tools/CCSV5_4_0/ccsv5/tools/compiler/C6000/include
    2250                            .dwattr $C$DW$227, DW_AT_decl_line(0x40)
    2251                            .dwattr $C$DW$227, DW_AT_decl_column(0x17)
    2252                    $C$DW$228       .dwtag  DW_TAG_member
    2253                            .dwattr $C$DW$228, DW_AT_type(*$C$DW$T$10)
    2254                            .dwattr $C$DW$228, DW_AT_name("rem")
    2255                            .dwattr $C$DW$228, DW_AT_TI_symbol_name("rem")
TMS320C6x Assembler PC v7.4.2 Thu Mar 19 12:44:48 2015

Tools Copyright (c) 1996-2012 Texas Instruments Incorporated
package/lib/Regression/regress_d_c/./../packages/ti/vlib/src/VLIB_subtractBackgroundS16/VLIB_subtractBackgroundS16_d.se66 PAGE   47

    2256                            .dwattr $C$DW$228, DW_AT_data_member_location[DW_OP_plus_uconst 0x4]
    2257                            .dwattr $C$DW$228, DW_AT_accessibility(DW_ACCESS_public)
    2258                            .dwattr $C$DW$228, DW_AT_decl_file("C:/VLIB_Tools/CCSV5_4_0/ccsv5/tools/compiler/C6000/include
    2259                            .dwattr $C$DW$228, DW_AT_decl_line(0x40)
    2260                            .dwattr $C$DW$228, DW_AT_decl_column(0x1d)
    2261                            .dwendtag $C$DW$T$28
    2262                    
    2263                            .dwattr $C$DW$T$28, DW_AT_decl_file("C:/VLIB_Tools/CCSV5_4_0/ccsv5/tools/compiler/C6000/includ
    2264                            .dwattr $C$DW$T$28, DW_AT_decl_line(0x40)
    2265                            .dwattr $C$DW$T$28, DW_AT_decl_column(0x10)
    2266                    $C$DW$T$49      .dwtag  DW_TAG_typedef, DW_AT_name("ldiv_t")
    2267                            .dwattr $C$DW$T$49, DW_AT_type(*$C$DW$T$28)
    2268                            .dwattr $C$DW$T$49, DW_AT_language(DW_LANG_C)
    2269                            .dwattr $C$DW$T$49, DW_AT_decl_file("C:/VLIB_Tools/CCSV5_4_0/ccsv5/tools/compiler/C6000/includ
    2270                            .dwattr $C$DW$T$49, DW_AT_decl_line(0x40)
    2271                            .dwattr $C$DW$T$49, DW_AT_decl_column(0x24)
    2272                    
    2273                    $C$DW$T$29      .dwtag  DW_TAG_structure_type
    2274                            .dwattr $C$DW$T$29, DW_AT_byte_size(0x10)
    2275                    $C$DW$229       .dwtag  DW_TAG_member
    2276                            .dwattr $C$DW$229, DW_AT_type(*$C$DW$T$14)
    2277                            .dwattr $C$DW$229, DW_AT_name("quot")
    2278                            .dwattr $C$DW$229, DW_AT_TI_symbol_name("quot")
    2279                            .dwattr $C$DW$229, DW_AT_data_member_location[DW_OP_plus_uconst 0x0]
    2280                            .dwattr $C$DW$229, DW_AT_accessibility(DW_ACCESS_public)
    2281                            .dwattr $C$DW$229, DW_AT_decl_file("C:/VLIB_Tools/CCSV5_4_0/ccsv5/tools/compiler/C6000/include
    2282                            .dwattr $C$DW$229, DW_AT_decl_line(0x43)
    2283                            .dwattr $C$DW$229, DW_AT_decl_column(0x1c)
    2284                    $C$DW$230       .dwtag  DW_TAG_member
    2285                            .dwattr $C$DW$230, DW_AT_type(*$C$DW$T$14)
    2286                            .dwattr $C$DW$230, DW_AT_name("rem")
    2287                            .dwattr $C$DW$230, DW_AT_TI_symbol_name("rem")
    2288                            .dwattr $C$DW$230, DW_AT_data_member_location[DW_OP_plus_uconst 0x8]
    2289                            .dwattr $C$DW$230, DW_AT_accessibility(DW_ACCESS_public)
    2290                            .dwattr $C$DW$230, DW_AT_decl_file("C:/VLIB_Tools/CCSV5_4_0/ccsv5/tools/compiler/C6000/include
    2291                            .dwattr $C$DW$230, DW_AT_decl_line(0x43)
    2292                            .dwattr $C$DW$230, DW_AT_decl_column(0x22)
    2293                            .dwendtag $C$DW$T$29
    2294                    
    2295                            .dwattr $C$DW$T$29, DW_AT_decl_file("C:/VLIB_Tools/CCSV5_4_0/ccsv5/tools/compiler/C6000/includ
    2296                            .dwattr $C$DW$T$29, DW_AT_decl_line(0x43)
    2297                            .dwattr $C$DW$T$29, DW_AT_decl_column(0x10)
    2298                    $C$DW$T$50      .dwtag  DW_TAG_typedef, DW_AT_name("lldiv_t")
    2299                            .dwattr $C$DW$T$50, DW_AT_type(*$C$DW$T$29)
    2300                            .dwattr $C$DW$T$50, DW_AT_language(DW_LANG_C)
    2301                            .dwattr $C$DW$T$50, DW_AT_decl_file("C:/VLIB_Tools/CCSV5_4_0/ccsv5/tools/compiler/C6000/includ
    2302                            .dwattr $C$DW$T$50, DW_AT_decl_line(0x43)
    2303                            .dwattr $C$DW$T$50, DW_AT_decl_column(0x29)
    2304                    
    2305                    $C$DW$T$31      .dwtag  DW_TAG_structure_type
    2306                            .dwattr $C$DW$T$31, DW_AT_byte_size(0x24)
    2307                    $C$DW$231       .dwtag  DW_TAG_member
    2308                            .dwattr $C$DW$231, DW_AT_type(*$C$DW$T$30)
    2309                            .dwattr $C$DW$231, DW_AT_name("area")
    2310                            .dwattr $C$DW$231, DW_AT_TI_symbol_name("area")
TMS320C6x Assembler PC v7.4.2 Thu Mar 19 12:44:48 2015

Tools Copyright (c) 1996-2012 Texas Instruments Incorporated
package/lib/Regression/regress_d_c/./../packages/ti/vlib/src/VLIB_subtractBackgroundS16/VLIB_subtractBackgroundS16_d.se66 PAGE   48

    2311                            .dwattr $C$DW$231, DW_AT_data_member_location[DW_OP_plus_uconst 0x0]
    2312                            .dwattr $C$DW$231, DW_AT_accessibility(DW_ACCESS_public)
    2313                            .dwattr $C$DW$231, DW_AT_decl_file(".\..\packages\ti\vlib\src\VLIB_subtractBackgroundS16\..\co
    2314                            .dwattr $C$DW$231, DW_AT_decl_line(0x69)
    2315                            .dwattr $C$DW$231, DW_AT_decl_column(0x0d)
    2316                    $C$DW$232       .dwtag  DW_TAG_member
    2317                            .dwattr $C$DW$232, DW_AT_type(*$C$DW$T$30)
    2318                            .dwattr $C$DW$232, DW_AT_name("xsum")
    2319                            .dwattr $C$DW$232, DW_AT_TI_symbol_name("xsum")
    2320                            .dwattr $C$DW$232, DW_AT_data_member_location[DW_OP_plus_uconst 0x4]
    2321                            .dwattr $C$DW$232, DW_AT_accessibility(DW_ACCESS_public)
    2322                            .dwattr $C$DW$232, DW_AT_decl_file(".\..\packages\ti\vlib\src\VLIB_subtractBackgroundS16\..\co
    2323                            .dwattr $C$DW$232, DW_AT_decl_line(0x6a)
    2324                            .dwattr $C$DW$232, DW_AT_decl_column(0x0d)
    2325                    $C$DW$233       .dwtag  DW_TAG_member
    2326                            .dwattr $C$DW$233, DW_AT_type(*$C$DW$T$30)
    2327                            .dwattr $C$DW$233, DW_AT_name("ysum")
    2328                            .dwattr $C$DW$233, DW_AT_TI_symbol_name("ysum")
    2329                            .dwattr $C$DW$233, DW_AT_data_member_location[DW_OP_plus_uconst 0x8]
    2330                            .dwattr $C$DW$233, DW_AT_accessibility(DW_ACCESS_public)
    2331                            .dwattr $C$DW$233, DW_AT_decl_file(".\..\packages\ti\vlib\src\VLIB_subtractBackgroundS16\..\co
    2332                            .dwattr $C$DW$233, DW_AT_decl_line(0x6b)
    2333                            .dwattr $C$DW$233, DW_AT_decl_column(0x0d)
    2334                    $C$DW$234       .dwtag  DW_TAG_member
    2335                            .dwattr $C$DW$234, DW_AT_type(*$C$DW$T$30)
    2336                            .dwattr $C$DW$234, DW_AT_name("xmin")
    2337                            .dwattr $C$DW$234, DW_AT_TI_symbol_name("xmin")
    2338                            .dwattr $C$DW$234, DW_AT_data_member_location[DW_OP_plus_uconst 0xc]
    2339                            .dwattr $C$DW$234, DW_AT_accessibility(DW_ACCESS_public)
    2340                            .dwattr $C$DW$234, DW_AT_decl_file(".\..\packages\ti\vlib\src\VLIB_subtractBackgroundS16\..\co
    2341                            .dwattr $C$DW$234, DW_AT_decl_line(0x6d)
    2342                            .dwattr $C$DW$234, DW_AT_decl_column(0x0d)
    2343                    $C$DW$235       .dwtag  DW_TAG_member
    2344                            .dwattr $C$DW$235, DW_AT_type(*$C$DW$T$30)
    2345                            .dwattr $C$DW$235, DW_AT_name("ymin")
    2346                            .dwattr $C$DW$235, DW_AT_TI_symbol_name("ymin")
    2347                            .dwattr $C$DW$235, DW_AT_data_member_location[DW_OP_plus_uconst 0x10]
    2348                            .dwattr $C$DW$235, DW_AT_accessibility(DW_ACCESS_public)
    2349                            .dwattr $C$DW$235, DW_AT_decl_file(".\..\packages\ti\vlib\src\VLIB_subtractBackgroundS16\..\co
    2350                            .dwattr $C$DW$235, DW_AT_decl_line(0x6e)
    2351                            .dwattr $C$DW$235, DW_AT_decl_column(0x0d)
    2352                    $C$DW$236       .dwtag  DW_TAG_member
    2353                            .dwattr $C$DW$236, DW_AT_type(*$C$DW$T$30)
    2354                            .dwattr $C$DW$236, DW_AT_name("xmax")
    2355                            .dwattr $C$DW$236, DW_AT_TI_symbol_name("xmax")
    2356                            .dwattr $C$DW$236, DW_AT_data_member_location[DW_OP_plus_uconst 0x14]
    2357                            .dwattr $C$DW$236, DW_AT_accessibility(DW_ACCESS_public)
    2358                            .dwattr $C$DW$236, DW_AT_decl_file(".\..\packages\ti\vlib\src\VLIB_subtractBackgroundS16\..\co
    2359                            .dwattr $C$DW$236, DW_AT_decl_line(0x6f)
    2360                            .dwattr $C$DW$236, DW_AT_decl_column(0x0d)
    2361                    $C$DW$237       .dwtag  DW_TAG_member
    2362                            .dwattr $C$DW$237, DW_AT_type(*$C$DW$T$30)
    2363                            .dwattr $C$DW$237, DW_AT_name("ymax")
    2364                            .dwattr $C$DW$237, DW_AT_TI_symbol_name("ymax")
    2365                            .dwattr $C$DW$237, DW_AT_data_member_location[DW_OP_plus_uconst 0x18]
TMS320C6x Assembler PC v7.4.2 Thu Mar 19 12:44:48 2015

Tools Copyright (c) 1996-2012 Texas Instruments Incorporated
package/lib/Regression/regress_d_c/./../packages/ti/vlib/src/VLIB_subtractBackgroundS16/VLIB_subtractBackgroundS16_d.se66 PAGE   49

    2366                            .dwattr $C$DW$237, DW_AT_accessibility(DW_ACCESS_public)
    2367                            .dwattr $C$DW$237, DW_AT_decl_file(".\..\packages\ti\vlib\src\VLIB_subtractBackgroundS16\..\co
    2368                            .dwattr $C$DW$237, DW_AT_decl_line(0x70)
    2369                            .dwattr $C$DW$237, DW_AT_decl_column(0x0d)
    2370                    $C$DW$238       .dwtag  DW_TAG_member
    2371                            .dwattr $C$DW$238, DW_AT_type(*$C$DW$T$30)
    2372                            .dwattr $C$DW$238, DW_AT_name("seedx")
    2373                            .dwattr $C$DW$238, DW_AT_TI_symbol_name("seedx")
    2374                            .dwattr $C$DW$238, DW_AT_data_member_location[DW_OP_plus_uconst 0x1c]
    2375                            .dwattr $C$DW$238, DW_AT_accessibility(DW_ACCESS_public)
    2376                            .dwattr $C$DW$238, DW_AT_decl_file(".\..\packages\ti\vlib\src\VLIB_subtractBackgroundS16\..\co
    2377                            .dwattr $C$DW$238, DW_AT_decl_line(0x72)
    2378                            .dwattr $C$DW$238, DW_AT_decl_column(0x0d)
    2379                    $C$DW$239       .dwtag  DW_TAG_member
    2380                            .dwattr $C$DW$239, DW_AT_type(*$C$DW$T$30)
    2381                            .dwattr $C$DW$239, DW_AT_name("seedy")
    2382                            .dwattr $C$DW$239, DW_AT_TI_symbol_name("seedy")
    2383                            .dwattr $C$DW$239, DW_AT_data_member_location[DW_OP_plus_uconst 0x20]
    2384                            .dwattr $C$DW$239, DW_AT_accessibility(DW_ACCESS_public)
    2385                            .dwattr $C$DW$239, DW_AT_decl_file(".\..\packages\ti\vlib\src\VLIB_subtractBackgroundS16\..\co
    2386                            .dwattr $C$DW$239, DW_AT_decl_line(0x73)
    2387                            .dwattr $C$DW$239, DW_AT_decl_column(0x0d)
    2388                            .dwendtag $C$DW$T$31
    2389                    
    2390                            .dwattr $C$DW$T$31, DW_AT_decl_file(".\..\packages\ti\vlib\src\VLIB_subtractBackgroundS16\..\c
    2391                            .dwattr $C$DW$T$31, DW_AT_decl_line(0x68)
    2392                            .dwattr $C$DW$T$31, DW_AT_decl_column(0x10)
    2393                    $C$DW$T$51      .dwtag  DW_TAG_typedef, DW_AT_name("VLIB_CC")
    2394                            .dwattr $C$DW$T$51, DW_AT_type(*$C$DW$T$31)
    2395                            .dwattr $C$DW$T$51, DW_AT_language(DW_LANG_C)
    2396                            .dwattr $C$DW$T$51, DW_AT_decl_file(".\..\packages\ti\vlib\src\VLIB_subtractBackgroundS16\..\c
    2397                            .dwattr $C$DW$T$51, DW_AT_decl_line(0x75)
    2398                            .dwattr $C$DW$T$51, DW_AT_decl_column(0x03)
    2399                    
    2400                    $C$DW$T$34      .dwtag  DW_TAG_structure_type
    2401                            .dwattr $C$DW$T$34, DW_AT_byte_size(0x10)
    2402                    $C$DW$240       .dwtag  DW_TAG_member
    2403                            .dwattr $C$DW$240, DW_AT_type(*$C$DW$T$8)
    2404                            .dwattr $C$DW$240, DW_AT_name("daylight")
    2405                            .dwattr $C$DW$240, DW_AT_TI_symbol_name("daylight")
    2406                            .dwattr $C$DW$240, DW_AT_data_member_location[DW_OP_plus_uconst 0x0]
    2407                            .dwattr $C$DW$240, DW_AT_accessibility(DW_ACCESS_public)
    2408                            .dwattr $C$DW$240, DW_AT_decl_file("C:/VLIB_Tools/CCSV5_4_0/ccsv5/tools/compiler/C6000/include
    2409                            .dwattr $C$DW$240, DW_AT_decl_line(0x52)
    2410                            .dwattr $C$DW$240, DW_AT_decl_column(0x0b)
    2411                    $C$DW$241       .dwtag  DW_TAG_member
    2412                            .dwattr $C$DW$241, DW_AT_type(*$C$DW$T$10)
    2413                            .dwattr $C$DW$241, DW_AT_name("timezone")
    2414                            .dwattr $C$DW$241, DW_AT_TI_symbol_name("timezone")
    2415                            .dwattr $C$DW$241, DW_AT_data_member_location[DW_OP_plus_uconst 0x4]
    2416                            .dwattr $C$DW$241, DW_AT_accessibility(DW_ACCESS_public)
    2417                            .dwattr $C$DW$241, DW_AT_decl_file("C:/VLIB_Tools/CCSV5_4_0/ccsv5/tools/compiler/C6000/include
    2418                            .dwattr $C$DW$241, DW_AT_decl_line(0x53)
    2419                            .dwattr $C$DW$241, DW_AT_decl_column(0x0b)
    2420                    $C$DW$242       .dwtag  DW_TAG_member
TMS320C6x Assembler PC v7.4.2 Thu Mar 19 12:44:48 2015

Tools Copyright (c) 1996-2012 Texas Instruments Incorporated
package/lib/Regression/regress_d_c/./../packages/ti/vlib/src/VLIB_subtractBackgroundS16/VLIB_subtractBackgroundS16_d.se66 PAGE   50

    2421                            .dwattr $C$DW$242, DW_AT_type(*$C$DW$T$33)
    2422                            .dwattr $C$DW$242, DW_AT_name("tzname")
    2423                            .dwattr $C$DW$242, DW_AT_TI_symbol_name("tzname")
    2424                            .dwattr $C$DW$242, DW_AT_data_member_location[DW_OP_plus_uconst 0x8]
    2425                            .dwattr $C$DW$242, DW_AT_accessibility(DW_ACCESS_public)
    2426                            .dwattr $C$DW$242, DW_AT_decl_file("C:/VLIB_Tools/CCSV5_4_0/ccsv5/tools/compiler/C6000/include
    2427                            .dwattr $C$DW$242, DW_AT_decl_line(0x54)
    2428                            .dwattr $C$DW$242, DW_AT_decl_column(0x0b)
    2429                    $C$DW$243       .dwtag  DW_TAG_member
    2430                            .dwattr $C$DW$243, DW_AT_type(*$C$DW$T$33)
    2431                            .dwattr $C$DW$243, DW_AT_name("dstname")
    2432                            .dwattr $C$DW$243, DW_AT_TI_symbol_name("dstname")
    2433                            .dwattr $C$DW$243, DW_AT_data_member_location[DW_OP_plus_uconst 0xc]
    2434                            .dwattr $C$DW$243, DW_AT_accessibility(DW_ACCESS_public)
    2435                            .dwattr $C$DW$243, DW_AT_decl_file("C:/VLIB_Tools/CCSV5_4_0/ccsv5/tools/compiler/C6000/include
    2436                            .dwattr $C$DW$243, DW_AT_decl_line(0x55)
    2437                            .dwattr $C$DW$243, DW_AT_decl_column(0x0b)
    2438                            .dwendtag $C$DW$T$34
    2439                    
    2440                            .dwattr $C$DW$T$34, DW_AT_decl_file("C:/VLIB_Tools/CCSV5_4_0/ccsv5/tools/compiler/C6000/includ
    2441                            .dwattr $C$DW$T$34, DW_AT_decl_line(0x51)
    2442                            .dwattr $C$DW$T$34, DW_AT_decl_column(0x01)
    2443                    $C$DW$T$52      .dwtag  DW_TAG_typedef, DW_AT_name("TZ")
    2444                            .dwattr $C$DW$T$52, DW_AT_type(*$C$DW$T$34)
    2445                            .dwattr $C$DW$T$52, DW_AT_language(DW_LANG_C)
    2446                            .dwattr $C$DW$T$52, DW_AT_decl_file("C:/VLIB_Tools/CCSV5_4_0/ccsv5/tools/compiler/C6000/includ
    2447                            .dwattr $C$DW$T$52, DW_AT_decl_line(0x56)
    2448                            .dwattr $C$DW$T$52, DW_AT_decl_column(0x03)
    2449                    $C$DW$T$2       .dwtag  DW_TAG_unspecified_type
    2450                            .dwattr $C$DW$T$2, DW_AT_name("void")
    2451                    $C$DW$T$3       .dwtag  DW_TAG_pointer_type
    2452                            .dwattr $C$DW$T$3, DW_AT_type(*$C$DW$T$2)
    2453                            .dwattr $C$DW$T$3, DW_AT_address_class(0x20)
    2454                    $C$DW$T$53      .dwtag  DW_TAG_typedef, DW_AT_name("VLIB_PTR")
    2455                            .dwattr $C$DW$T$53, DW_AT_type(*$C$DW$T$3)
    2456                            .dwattr $C$DW$T$53, DW_AT_language(DW_LANG_C)
    2457                            .dwattr $C$DW$T$53, DW_AT_decl_file(".\..\packages\ti\vlib\src\VLIB_subtractBackgroundS16\..\c
    2458                            .dwattr $C$DW$T$53, DW_AT_decl_line(0x5c)
    2459                            .dwattr $C$DW$T$53, DW_AT_decl_column(0x19)
    2460                    $C$DW$T$54      .dwtag  DW_TAG_const_type
    2461                            .dwattr $C$DW$T$54, DW_AT_type(*$C$DW$T$2)
    2462                    $C$DW$T$55      .dwtag  DW_TAG_pointer_type
    2463                            .dwattr $C$DW$T$55, DW_AT_type(*$C$DW$T$54)
    2464                            .dwattr $C$DW$T$55, DW_AT_address_class(0x20)
    2465                    $C$DW$T$4       .dwtag  DW_TAG_base_type
    2466                            .dwattr $C$DW$T$4, DW_AT_encoding(DW_ATE_boolean)
    2467                            .dwattr $C$DW$T$4, DW_AT_name("bool")
    2468                            .dwattr $C$DW$T$4, DW_AT_byte_size(0x01)
    2469                    $C$DW$T$5       .dwtag  DW_TAG_base_type
    2470                            .dwattr $C$DW$T$5, DW_AT_encoding(DW_ATE_signed_char)
    2471                            .dwattr $C$DW$T$5, DW_AT_name("signed char")
    2472                            .dwattr $C$DW$T$5, DW_AT_byte_size(0x01)
    2473                    $C$DW$T$83      .dwtag  DW_TAG_pointer_type
    2474                            .dwattr $C$DW$T$83, DW_AT_type(*$C$DW$T$5)
    2475                            .dwattr $C$DW$T$83, DW_AT_address_class(0x20)
TMS320C6x Assembler PC v7.4.2 Thu Mar 19 12:44:48 2015

Tools Copyright (c) 1996-2012 Texas Instruments Incorporated
package/lib/Regression/regress_d_c/./../packages/ti/vlib/src/VLIB_subtractBackgroundS16/VLIB_subtractBackgroundS16_d.se66 PAGE   51

    2476                    $C$DW$T$93      .dwtag  DW_TAG_typedef, DW_AT_name("int8_t")
    2477                            .dwattr $C$DW$T$93, DW_AT_type(*$C$DW$T$5)
    2478                            .dwattr $C$DW$T$93, DW_AT_language(DW_LANG_C)
    2479                            .dwattr $C$DW$T$93, DW_AT_decl_file("C:/VLIB_Tools/CCSV5_4_0/ccsv5/tools/compiler/C6000/includ
    2480                            .dwattr $C$DW$T$93, DW_AT_decl_line(0x2a)
    2481                            .dwattr $C$DW$T$93, DW_AT_decl_column(0x1d)
    2482                    $C$DW$T$94      .dwtag  DW_TAG_typedef, DW_AT_name("int_least8_t")
    2483                            .dwattr $C$DW$T$94, DW_AT_type(*$C$DW$T$93)
    2484                            .dwattr $C$DW$T$94, DW_AT_language(DW_LANG_C)
    2485                            .dwattr $C$DW$T$94, DW_AT_decl_file("C:/VLIB_Tools/CCSV5_4_0/ccsv5/tools/compiler/C6000/includ
    2486                            .dwattr $C$DW$T$94, DW_AT_decl_line(0x39)
    2487                            .dwattr $C$DW$T$94, DW_AT_decl_column(0x17)
    2488                    $C$DW$T$6       .dwtag  DW_TAG_base_type
    2489                            .dwattr $C$DW$T$6, DW_AT_encoding(DW_ATE_unsigned_char)
    2490                            .dwattr $C$DW$T$6, DW_AT_name("unsigned char")
    2491                            .dwattr $C$DW$T$6, DW_AT_byte_size(0x01)
    2492                    $C$DW$T$25      .dwtag  DW_TAG_pointer_type
    2493                            .dwattr $C$DW$T$25, DW_AT_type(*$C$DW$T$6)
    2494                            .dwattr $C$DW$T$25, DW_AT_address_class(0x20)
    2495                    $C$DW$T$19      .dwtag  DW_TAG_typedef, DW_AT_name("uint8_t")
    2496                            .dwattr $C$DW$T$19, DW_AT_type(*$C$DW$T$6)
    2497                            .dwattr $C$DW$T$19, DW_AT_language(DW_LANG_C)
    2498                            .dwattr $C$DW$T$19, DW_AT_decl_file("C:/VLIB_Tools/CCSV5_4_0/ccsv5/tools/compiler/C6000/includ
    2499                            .dwattr $C$DW$T$19, DW_AT_decl_line(0x2b)
    2500                            .dwattr $C$DW$T$19, DW_AT_decl_column(0x1c)
    2501                    $C$DW$T$20      .dwtag  DW_TAG_pointer_type
    2502                            .dwattr $C$DW$T$20, DW_AT_type(*$C$DW$T$19)
    2503                            .dwattr $C$DW$T$20, DW_AT_address_class(0x20)
    2504                    $C$DW$T$95      .dwtag  DW_TAG_const_type
    2505                            .dwattr $C$DW$T$95, DW_AT_type(*$C$DW$T$19)
    2506                    $C$DW$T$96      .dwtag  DW_TAG_pointer_type
    2507                            .dwattr $C$DW$T$96, DW_AT_type(*$C$DW$T$95)
    2508                            .dwattr $C$DW$T$96, DW_AT_address_class(0x20)
    2509                    $C$DW$T$97      .dwtag  DW_TAG_restrict_type
    2510                            .dwattr $C$DW$T$97, DW_AT_type(*$C$DW$T$96)
    2511                    $C$DW$T$98      .dwtag  DW_TAG_typedef, DW_AT_name("uint_least8_t")
    2512                            .dwattr $C$DW$T$98, DW_AT_type(*$C$DW$T$19)
    2513                            .dwattr $C$DW$T$98, DW_AT_language(DW_LANG_C)
    2514                            .dwattr $C$DW$T$98, DW_AT_decl_file("C:/VLIB_Tools/CCSV5_4_0/ccsv5/tools/compiler/C6000/includ
    2515                            .dwattr $C$DW$T$98, DW_AT_decl_line(0x3a)
    2516                            .dwattr $C$DW$T$98, DW_AT_decl_column(0x16)
    2517                    $C$DW$T$7       .dwtag  DW_TAG_base_type
    2518                            .dwattr $C$DW$T$7, DW_AT_encoding(DW_ATE_signed_char)
    2519                            .dwattr $C$DW$T$7, DW_AT_name("wchar_t")
    2520                            .dwattr $C$DW$T$7, DW_AT_byte_size(0x02)
    2521                    $C$DW$T$8       .dwtag  DW_TAG_base_type
    2522                            .dwattr $C$DW$T$8, DW_AT_encoding(DW_ATE_signed)
    2523                            .dwattr $C$DW$T$8, DW_AT_name("short")
    2524                            .dwattr $C$DW$T$8, DW_AT_byte_size(0x02)
    2525                    $C$DW$T$23      .dwtag  DW_TAG_typedef, DW_AT_name("int16_t")
    2526                            .dwattr $C$DW$T$23, DW_AT_type(*$C$DW$T$8)
    2527                            .dwattr $C$DW$T$23, DW_AT_language(DW_LANG_C)
    2528                            .dwattr $C$DW$T$23, DW_AT_decl_file("C:/VLIB_Tools/CCSV5_4_0/ccsv5/tools/compiler/C6000/includ
    2529                            .dwattr $C$DW$T$23, DW_AT_decl_line(0x2c)
    2530                            .dwattr $C$DW$T$23, DW_AT_decl_column(0x1d)
TMS320C6x Assembler PC v7.4.2 Thu Mar 19 12:44:48 2015

Tools Copyright (c) 1996-2012 Texas Instruments Incorporated
package/lib/Regression/regress_d_c/./../packages/ti/vlib/src/VLIB_subtractBackgroundS16/VLIB_subtractBackgroundS16_d.se66 PAGE   52

    2531                    $C$DW$T$100     .dwtag  DW_TAG_pointer_type
    2532                            .dwattr $C$DW$T$100, DW_AT_type(*$C$DW$T$23)
    2533                            .dwattr $C$DW$T$100, DW_AT_address_class(0x20)
    2534                    $C$DW$T$101     .dwtag  DW_TAG_restrict_type
    2535                            .dwattr $C$DW$T$101, DW_AT_type(*$C$DW$T$100)
    2536                    $C$DW$T$102     .dwtag  DW_TAG_const_type
    2537                            .dwattr $C$DW$T$102, DW_AT_type(*$C$DW$T$23)
    2538                    $C$DW$T$103     .dwtag  DW_TAG_pointer_type
    2539                            .dwattr $C$DW$T$103, DW_AT_type(*$C$DW$T$102)
    2540                            .dwattr $C$DW$T$103, DW_AT_address_class(0x20)
    2541                    $C$DW$T$104     .dwtag  DW_TAG_restrict_type
    2542                            .dwattr $C$DW$T$104, DW_AT_type(*$C$DW$T$103)
    2543                    $C$DW$T$105     .dwtag  DW_TAG_typedef, DW_AT_name("int_least16_t")
    2544                            .dwattr $C$DW$T$105, DW_AT_type(*$C$DW$T$23)
    2545                            .dwattr $C$DW$T$105, DW_AT_language(DW_LANG_C)
    2546                            .dwattr $C$DW$T$105, DW_AT_decl_file("C:/VLIB_Tools/CCSV5_4_0/ccsv5/tools/compiler/C6000/inclu
    2547                            .dwattr $C$DW$T$105, DW_AT_decl_line(0x3c)
    2548                            .dwattr $C$DW$T$105, DW_AT_decl_column(0x17)
    2549                    $C$DW$T$9       .dwtag  DW_TAG_base_type
    2550                            .dwattr $C$DW$T$9, DW_AT_encoding(DW_ATE_unsigned)
    2551                            .dwattr $C$DW$T$9, DW_AT_name("unsigned short")
    2552                            .dwattr $C$DW$T$9, DW_AT_byte_size(0x02)
    2553                    $C$DW$T$76      .dwtag  DW_TAG_typedef, DW_AT_name("uint16_t")
    2554                            .dwattr $C$DW$T$76, DW_AT_type(*$C$DW$T$9)
    2555                            .dwattr $C$DW$T$76, DW_AT_language(DW_LANG_C)
    2556                            .dwattr $C$DW$T$76, DW_AT_decl_file("C:/VLIB_Tools/CCSV5_4_0/ccsv5/tools/compiler/C6000/includ
    2557                            .dwattr $C$DW$T$76, DW_AT_decl_line(0x2d)
    2558                            .dwattr $C$DW$T$76, DW_AT_decl_column(0x1c)
    2559                    $C$DW$T$107     .dwtag  DW_TAG_typedef, DW_AT_name("uint_least16_t")
    2560                            .dwattr $C$DW$T$107, DW_AT_type(*$C$DW$T$76)
    2561                            .dwattr $C$DW$T$107, DW_AT_language(DW_LANG_C)
    2562                            .dwattr $C$DW$T$107, DW_AT_decl_file("C:/VLIB_Tools/CCSV5_4_0/ccsv5/tools/compiler/C6000/inclu
    2563                            .dwattr $C$DW$T$107, DW_AT_decl_line(0x3d)
    2564                            .dwattr $C$DW$T$107, DW_AT_decl_column(0x16)
    2565                    $C$DW$T$106     .dwtag  DW_TAG_typedef, DW_AT_name("wchar_t")
    2566                            .dwattr $C$DW$T$106, DW_AT_type(*$C$DW$T$9)
    2567                            .dwattr $C$DW$T$106, DW_AT_language(DW_LANG_C)
    2568                            .dwattr $C$DW$T$106, DW_AT_decl_file("C:/VLIB_Tools/CCSV5_4_0/ccsv5/tools/compiler/C6000/inclu
    2569                            .dwattr $C$DW$T$106, DW_AT_decl_line(0x53)
    2570                            .dwattr $C$DW$T$106, DW_AT_decl_column(0x1a)
    2571                    $C$DW$T$10      .dwtag  DW_TAG_base_type
    2572                            .dwattr $C$DW$T$10, DW_AT_encoding(DW_ATE_signed)
    2573                            .dwattr $C$DW$T$10, DW_AT_name("int")
    2574                            .dwattr $C$DW$T$10, DW_AT_byte_size(0x04)
    2575                    $C$DW$T$137     .dwtag  DW_TAG_typedef, DW_AT_name("fpos_t")
    2576                            .dwattr $C$DW$T$137, DW_AT_type(*$C$DW$T$10)
    2577                            .dwattr $C$DW$T$137, DW_AT_language(DW_LANG_C)
    2578                            .dwattr $C$DW$T$137, DW_AT_decl_file("C:/VLIB_Tools/CCSV5_4_0/ccsv5/tools/compiler/C6000/inclu
    2579                            .dwattr $C$DW$T$137, DW_AT_decl_line(0x53)
    2580                            .dwattr $C$DW$T$137, DW_AT_decl_column(0x0d)
    2581                    $C$DW$T$30      .dwtag  DW_TAG_typedef, DW_AT_name("int32_t")
    2582                            .dwattr $C$DW$T$30, DW_AT_type(*$C$DW$T$10)
    2583                            .dwattr $C$DW$T$30, DW_AT_language(DW_LANG_C)
    2584                            .dwattr $C$DW$T$30, DW_AT_decl_file("C:/VLIB_Tools/CCSV5_4_0/ccsv5/tools/compiler/C6000/includ
    2585                            .dwattr $C$DW$T$30, DW_AT_decl_line(0x2e)
TMS320C6x Assembler PC v7.4.2 Thu Mar 19 12:44:48 2015

Tools Copyright (c) 1996-2012 Texas Instruments Incorporated
package/lib/Regression/regress_d_c/./../packages/ti/vlib/src/VLIB_subtractBackgroundS16/VLIB_subtractBackgroundS16_d.se66 PAGE   53

    2586                            .dwattr $C$DW$T$30, DW_AT_decl_column(0x1d)
    2587                    $C$DW$T$127     .dwtag  DW_TAG_typedef, DW_AT_name("VLIB_CCHandle")
    2588                            .dwattr $C$DW$T$127, DW_AT_type(*$C$DW$T$30)
    2589                            .dwattr $C$DW$T$127, DW_AT_language(DW_LANG_C)
    2590                            .dwattr $C$DW$T$127, DW_AT_decl_file(".\..\packages\ti\vlib\src\VLIB_subtractBackgroundS16\..\
    2591                            .dwattr $C$DW$T$127, DW_AT_decl_line(0x77)
    2592                            .dwattr $C$DW$T$127, DW_AT_decl_column(0x11)
    2593                    
    2594                    $C$DW$T$35      .dwtag  DW_TAG_array_type
    2595                            .dwattr $C$DW$T$35, DW_AT_type(*$C$DW$T$30)
    2596                            .dwattr $C$DW$T$35, DW_AT_language(DW_LANG_C)
    2597                            .dwattr $C$DW$T$35, DW_AT_byte_size(0x10)
    2598                    $C$DW$244       .dwtag  DW_TAG_subrange_type
    2599                            .dwattr $C$DW$244, DW_AT_upper_bound(0x03)
    2600                            .dwendtag $C$DW$T$35
    2601                    
    2602                    $C$DW$T$79      .dwtag  DW_TAG_pointer_type
    2603                            .dwattr $C$DW$T$79, DW_AT_type(*$C$DW$T$30)
    2604                            .dwattr $C$DW$T$79, DW_AT_address_class(0x20)
    2605                    $C$DW$T$132     .dwtag  DW_TAG_typedef, DW_AT_name("int_fast16_t")
    2606                            .dwattr $C$DW$T$132, DW_AT_type(*$C$DW$T$30)
    2607                            .dwattr $C$DW$T$132, DW_AT_language(DW_LANG_C)
    2608                            .dwattr $C$DW$T$132, DW_AT_decl_file("C:/VLIB_Tools/CCSV5_4_0/ccsv5/tools/compiler/C6000/inclu
    2609                            .dwattr $C$DW$T$132, DW_AT_decl_line(0x4b)
    2610                            .dwattr $C$DW$T$132, DW_AT_decl_column(0x17)
    2611                    $C$DW$T$133     .dwtag  DW_TAG_typedef, DW_AT_name("int_fast32_t")
    2612                            .dwattr $C$DW$T$133, DW_AT_type(*$C$DW$T$30)
    2613                            .dwattr $C$DW$T$133, DW_AT_language(DW_LANG_C)
    2614                            .dwattr $C$DW$T$133, DW_AT_decl_file("C:/VLIB_Tools/CCSV5_4_0/ccsv5/tools/compiler/C6000/inclu
    2615                            .dwattr $C$DW$T$133, DW_AT_decl_line(0x4e)
    2616                            .dwattr $C$DW$T$133, DW_AT_decl_column(0x17)
    2617                    $C$DW$T$134     .dwtag  DW_TAG_typedef, DW_AT_name("int_fast8_t")
    2618                            .dwattr $C$DW$T$134, DW_AT_type(*$C$DW$T$30)
    2619                            .dwattr $C$DW$T$134, DW_AT_language(DW_LANG_C)
    2620                            .dwattr $C$DW$T$134, DW_AT_decl_file("C:/VLIB_Tools/CCSV5_4_0/ccsv5/tools/compiler/C6000/inclu
    2621                            .dwattr $C$DW$T$134, DW_AT_decl_line(0x49)
    2622                            .dwattr $C$DW$T$134, DW_AT_decl_column(0x17)
    2623                    $C$DW$T$135     .dwtag  DW_TAG_typedef, DW_AT_name("int_least32_t")
    2624                            .dwattr $C$DW$T$135, DW_AT_type(*$C$DW$T$30)
    2625                            .dwattr $C$DW$T$135, DW_AT_language(DW_LANG_C)
    2626                            .dwattr $C$DW$T$135, DW_AT_decl_file("C:/VLIB_Tools/CCSV5_4_0/ccsv5/tools/compiler/C6000/inclu
    2627                            .dwattr $C$DW$T$135, DW_AT_decl_line(0x3e)
    2628                            .dwattr $C$DW$T$135, DW_AT_decl_column(0x17)
    2629                    $C$DW$T$136     .dwtag  DW_TAG_typedef, DW_AT_name("intptr_t")
    2630                            .dwattr $C$DW$T$136, DW_AT_type(*$C$DW$T$10)
    2631                            .dwattr $C$DW$T$136, DW_AT_language(DW_LANG_C)
    2632                            .dwattr $C$DW$T$136, DW_AT_decl_file("C:/VLIB_Tools/CCSV5_4_0/ccsv5/tools/compiler/C6000/inclu
    2633                            .dwattr $C$DW$T$136, DW_AT_decl_line(0x58)
    2634                            .dwattr $C$DW$T$136, DW_AT_decl_column(0x1a)
    2635                    $C$DW$T$11      .dwtag  DW_TAG_base_type
    2636                            .dwattr $C$DW$T$11, DW_AT_encoding(DW_ATE_unsigned)
    2637                            .dwattr $C$DW$T$11, DW_AT_name("unsigned int")
    2638                            .dwattr $C$DW$T$11, DW_AT_byte_size(0x04)
    2639                    $C$DW$T$138     .dwtag  DW_TAG_typedef, DW_AT_name("VLIB_VAL")
    2640                            .dwattr $C$DW$T$138, DW_AT_type(*$C$DW$T$11)
TMS320C6x Assembler PC v7.4.2 Thu Mar 19 12:44:48 2015

Tools Copyright (c) 1996-2012 Texas Instruments Incorporated
package/lib/Regression/regress_d_c/./../packages/ti/vlib/src/VLIB_subtractBackgroundS16/VLIB_subtractBackgroundS16_d.se66 PAGE   54

    2641                            .dwattr $C$DW$T$138, DW_AT_language(DW_LANG_C)
    2642                            .dwattr $C$DW$T$138, DW_AT_decl_file(".\..\packages\ti\vlib\src\VLIB_subtractBackgroundS16\..\
    2643                            .dwattr $C$DW$T$138, DW_AT_decl_line(0x5d)
    2644                            .dwattr $C$DW$T$138, DW_AT_decl_column(0x17)
    2645                    $C$DW$T$139     .dwtag  DW_TAG_pointer_type
    2646                            .dwattr $C$DW$T$139, DW_AT_type(*$C$DW$T$11)
    2647                            .dwattr $C$DW$T$139, DW_AT_address_class(0x20)
    2648                    $C$DW$T$150     .dwtag  DW_TAG_typedef, DW_AT_name("clock_t")
    2649                            .dwattr $C$DW$T$150, DW_AT_type(*$C$DW$T$11)
    2650                            .dwattr $C$DW$T$150, DW_AT_language(DW_LANG_C)
    2651                            .dwattr $C$DW$T$150, DW_AT_decl_file("C:/VLIB_Tools/CCSV5_4_0/ccsv5/tools/compiler/C6000/inclu
    2652                            .dwattr $C$DW$T$150, DW_AT_decl_line(0x37)
    2653                            .dwattr $C$DW$T$150, DW_AT_decl_column(0x16)
    2654                    $C$DW$T$56      .dwtag  DW_TAG_typedef, DW_AT_name("size_t")
    2655                            .dwattr $C$DW$T$56, DW_AT_type(*$C$DW$T$11)
    2656                            .dwattr $C$DW$T$56, DW_AT_language(DW_LANG_C)
    2657                            .dwattr $C$DW$T$56, DW_AT_decl_file("C:/VLIB_Tools/CCSV5_4_0/ccsv5/tools/compiler/C6000/includ
    2658                            .dwattr $C$DW$T$56, DW_AT_decl_line(0x45)
    2659                            .dwattr $C$DW$T$56, DW_AT_decl_column(0x19)
    2660                    $C$DW$T$143     .dwtag  DW_TAG_typedef, DW_AT_name("time_t")
    2661                            .dwattr $C$DW$T$143, DW_AT_type(*$C$DW$T$11)
    2662                            .dwattr $C$DW$T$143, DW_AT_language(DW_LANG_C)
    2663                            .dwattr $C$DW$T$143, DW_AT_decl_file("C:/VLIB_Tools/CCSV5_4_0/ccsv5/tools/compiler/C6000/inclu
    2664                            .dwattr $C$DW$T$143, DW_AT_decl_line(0x38)
    2665                            .dwattr $C$DW$T$143, DW_AT_decl_column(0x16)
    2666                    $C$DW$T$21      .dwtag  DW_TAG_typedef, DW_AT_name("uint32_t")
    2667                            .dwattr $C$DW$T$21, DW_AT_type(*$C$DW$T$11)
    2668                            .dwattr $C$DW$T$21, DW_AT_language(DW_LANG_C)
    2669                            .dwattr $C$DW$T$21, DW_AT_decl_file("C:/VLIB_Tools/CCSV5_4_0/ccsv5/tools/compiler/C6000/includ
    2670                            .dwattr $C$DW$T$21, DW_AT_decl_line(0x2f)
    2671                            .dwattr $C$DW$T$21, DW_AT_decl_column(0x1c)
    2672                    $C$DW$T$22      .dwtag  DW_TAG_pointer_type
    2673                            .dwattr $C$DW$T$22, DW_AT_type(*$C$DW$T$21)
    2674                            .dwattr $C$DW$T$22, DW_AT_address_class(0x20)
    2675                    $C$DW$T$123     .dwtag  DW_TAG_restrict_type
    2676                            .dwattr $C$DW$T$123, DW_AT_type(*$C$DW$T$22)
    2677                    $C$DW$T$118     .dwtag  DW_TAG_const_type
    2678                            .dwattr $C$DW$T$118, DW_AT_type(*$C$DW$T$21)
    2679                    $C$DW$T$145     .dwtag  DW_TAG_typedef, DW_AT_name("uint_fast16_t")
    2680                            .dwattr $C$DW$T$145, DW_AT_type(*$C$DW$T$21)
    2681                            .dwattr $C$DW$T$145, DW_AT_language(DW_LANG_C)
    2682                            .dwattr $C$DW$T$145, DW_AT_decl_file("C:/VLIB_Tools/CCSV5_4_0/ccsv5/tools/compiler/C6000/inclu
    2683                            .dwattr $C$DW$T$145, DW_AT_decl_line(0x4c)
    2684                            .dwattr $C$DW$T$145, DW_AT_decl_column(0x16)
    2685                    $C$DW$T$146     .dwtag  DW_TAG_typedef, DW_AT_name("uint_fast32_t")
    2686                            .dwattr $C$DW$T$146, DW_AT_type(*$C$DW$T$21)
    2687                            .dwattr $C$DW$T$146, DW_AT_language(DW_LANG_C)
    2688                            .dwattr $C$DW$T$146, DW_AT_decl_file("C:/VLIB_Tools/CCSV5_4_0/ccsv5/tools/compiler/C6000/inclu
    2689                            .dwattr $C$DW$T$146, DW_AT_decl_line(0x4f)
    2690                            .dwattr $C$DW$T$146, DW_AT_decl_column(0x16)
    2691                    $C$DW$T$147     .dwtag  DW_TAG_typedef, DW_AT_name("uint_fast8_t")
    2692                            .dwattr $C$DW$T$147, DW_AT_type(*$C$DW$T$21)
    2693                            .dwattr $C$DW$T$147, DW_AT_language(DW_LANG_C)
    2694                            .dwattr $C$DW$T$147, DW_AT_decl_file("C:/VLIB_Tools/CCSV5_4_0/ccsv5/tools/compiler/C6000/inclu
    2695                            .dwattr $C$DW$T$147, DW_AT_decl_line(0x4a)
TMS320C6x Assembler PC v7.4.2 Thu Mar 19 12:44:48 2015

Tools Copyright (c) 1996-2012 Texas Instruments Incorporated
package/lib/Regression/regress_d_c/./../packages/ti/vlib/src/VLIB_subtractBackgroundS16/VLIB_subtractBackgroundS16_d.se66 PAGE   55

    2696                            .dwattr $C$DW$T$147, DW_AT_decl_column(0x16)
    2697                    $C$DW$T$148     .dwtag  DW_TAG_typedef, DW_AT_name("uint_least32_t")
    2698                            .dwattr $C$DW$T$148, DW_AT_type(*$C$DW$T$21)
    2699                            .dwattr $C$DW$T$148, DW_AT_language(DW_LANG_C)
    2700                            .dwattr $C$DW$T$148, DW_AT_decl_file("C:/VLIB_Tools/CCSV5_4_0/ccsv5/tools/compiler/C6000/inclu
    2701                            .dwattr $C$DW$T$148, DW_AT_decl_line(0x3f)
    2702                            .dwattr $C$DW$T$148, DW_AT_decl_column(0x16)
    2703                    $C$DW$T$149     .dwtag  DW_TAG_typedef, DW_AT_name("uintptr_t")
    2704                            .dwattr $C$DW$T$149, DW_AT_type(*$C$DW$T$11)
    2705                            .dwattr $C$DW$T$149, DW_AT_language(DW_LANG_C)
    2706                            .dwattr $C$DW$T$149, DW_AT_decl_file("C:/VLIB_Tools/CCSV5_4_0/ccsv5/tools/compiler/C6000/inclu
    2707                            .dwattr $C$DW$T$149, DW_AT_decl_line(0x59)
    2708                            .dwattr $C$DW$T$149, DW_AT_decl_column(0x1a)
    2709                    $C$DW$T$12      .dwtag  DW_TAG_base_type
    2710                            .dwattr $C$DW$T$12, DW_AT_encoding(DW_ATE_signed)
    2711                            .dwattr $C$DW$T$12, DW_AT_name("__int40_t")
    2712                            .dwattr $C$DW$T$12, DW_AT_byte_size(0x08)
    2713                            .dwattr $C$DW$T$12, DW_AT_bit_size(0x28)
    2714                            .dwattr $C$DW$T$12, DW_AT_bit_offset(0x18)
    2715                    $C$DW$T$151     .dwtag  DW_TAG_typedef, DW_AT_name("int40_t")
    2716                            .dwattr $C$DW$T$151, DW_AT_type(*$C$DW$T$12)
    2717                            .dwattr $C$DW$T$151, DW_AT_language(DW_LANG_C)
    2718                            .dwattr $C$DW$T$151, DW_AT_decl_file("C:/VLIB_Tools/CCSV5_4_0/ccsv5/tools/compiler/C6000/inclu
    2719                            .dwattr $C$DW$T$151, DW_AT_decl_line(0x31)
    2720                            .dwattr $C$DW$T$151, DW_AT_decl_column(0x21)
    2721                    $C$DW$T$152     .dwtag  DW_TAG_typedef, DW_AT_name("int_fast40_t")
    2722                            .dwattr $C$DW$T$152, DW_AT_type(*$C$DW$T$151)
    2723                            .dwattr $C$DW$T$152, DW_AT_language(DW_LANG_C)
    2724                            .dwattr $C$DW$T$152, DW_AT_decl_file("C:/VLIB_Tools/CCSV5_4_0/ccsv5/tools/compiler/C6000/inclu
    2725                            .dwattr $C$DW$T$152, DW_AT_decl_line(0x51)
    2726                            .dwattr $C$DW$T$152, DW_AT_decl_column(0x17)
    2727                    $C$DW$T$153     .dwtag  DW_TAG_typedef, DW_AT_name("int_least40_t")
    2728                            .dwattr $C$DW$T$153, DW_AT_type(*$C$DW$T$151)
    2729                            .dwattr $C$DW$T$153, DW_AT_language(DW_LANG_C)
    2730                            .dwattr $C$DW$T$153, DW_AT_decl_file("C:/VLIB_Tools/CCSV5_4_0/ccsv5/tools/compiler/C6000/inclu
    2731                            .dwattr $C$DW$T$153, DW_AT_decl_line(0x41)
    2732                            .dwattr $C$DW$T$153, DW_AT_decl_column(0x17)
    2733                    $C$DW$T$13      .dwtag  DW_TAG_base_type
    2734                            .dwattr $C$DW$T$13, DW_AT_encoding(DW_ATE_unsigned)
    2735                            .dwattr $C$DW$T$13, DW_AT_name("unsigned __int40_t")
    2736                            .dwattr $C$DW$T$13, DW_AT_byte_size(0x08)
    2737                            .dwattr $C$DW$T$13, DW_AT_bit_size(0x28)
    2738                            .dwattr $C$DW$T$13, DW_AT_bit_offset(0x18)
