TMS320C6x Assembler PC v7.4.2 Thu Mar 19 12:43:41 2015

Tools Copyright (c) 1996-2012 Texas Instruments Incorporated
package/lib/Regression/regress_d_c/./../packages/ti/vlib/src/VLIB_normalFlow_16/VLIB_normalFlow_16_d.se66 PAGE    1

       1                    ;******************************************************************************
       2                    ;* TMS320C6x C/C++ Codegen                                          PC v7.4.2 *
       3                    ;* Date/Time created: Thu Mar 19 12:43:40 2015                                *
       4                    ;******************************************************************************
       5                            .compiler_opts --abi=eabi --c64p_l1d_workaround=off --endian=little --hll_source=on --long_pre
       6                    
       7                    ;******************************************************************************
       8                    ;* GLOBAL FILE PARAMETERS                                                     *
       9                    ;*                                                                            *
      10                    ;*   Architecture      : TMS320C66xx                                          *
      11                    ;*   Optimization      : Enabled at level 3                                   *
      12                    ;*   Optimizing for    : Speed                                                *
      13                    ;*                       Based on options: -o3, no -ms                        *
      14                    ;*   Endian            : Little                                               *
      15                    ;*   Interrupt Thrshld : 10000                                                *
      16                    ;*   Data Access Model : Far                                                  *
      17                    ;*   Pipelining        : Enabled                                              *
      18                    ;*   Speculate Loads   : Enabled with threshold = 0                           *
      19                    ;*   Memory Aliases    : Presume are aliases (pessimistic)                    *
      20                    ;*   Debug Info        : DWARF Debug w/Optimization                           *
      21                    ;*                                                                            *
      22                    ;******************************************************************************
      23                    
      24                            .asg    A15, FP
      25                            .asg    B14, DP
      26                            .asg    B15, SP
      27                            .global $bss
      28                    
      29                    
      30                    $C$DW$CU        .dwtag  DW_TAG_compile_unit
      31                            .dwattr $C$DW$CU, DW_AT_name("./../packages/ti/vlib/src/VLIB_normalFlow_16/VLIB_normalFlow_16_
      32                            .dwattr $C$DW$CU, DW_AT_producer("TI TMS320C6x C/C++ Codegen PC v7.4.2 Copyright (c) 1996-2012
      33                            .dwattr $C$DW$CU, DW_AT_TI_version(0x01)
      34                            .dwattr $C$DW$CU, DW_AT_comp_dir("c:\nightlybuilds\vlib\ti\vlib\vlib\examples")
      35                    
      36                    $C$DW$1 .dwtag  DW_TAG_subprogram, DW_AT_name("_itoll")
      37                            .dwattr $C$DW$1, DW_AT_TI_symbol_name("_itoll")
      38                            .dwattr $C$DW$1, DW_AT_type(*$C$DW$T$14)
      39                            .dwattr $C$DW$1, DW_AT_declaration
      40                            .dwattr $C$DW$1, DW_AT_external
      41                            .dwattr $C$DW$1, DW_AT_decl_file("C:/VLIB_Tools/CCSV5_4_0/ccsv5/tools/compiler/C6000/include/c
      42                            .dwattr $C$DW$1, DW_AT_decl_line(0xdf)
      43                            .dwattr $C$DW$1, DW_AT_decl_column(0x0b)
      44                    $C$DW$2 .dwtag  DW_TAG_formal_parameter
      45                            .dwattr $C$DW$2, DW_AT_type(*$C$DW$T$11)
      46                    $C$DW$3 .dwtag  DW_TAG_formal_parameter
      47                            .dwattr $C$DW$3, DW_AT_type(*$C$DW$T$11)
      48                            .dwendtag $C$DW$1
      49                    
      50                    
      51                    $C$DW$4 .dwtag  DW_TAG_subprogram, DW_AT_name("printf")
      52                            .dwattr $C$DW$4, DW_AT_TI_symbol_name("printf")
      53                            .dwattr $C$DW$4, DW_AT_type(*$C$DW$T$10)
      54                            .dwattr $C$DW$4, DW_AT_declaration
      55                            .dwattr $C$DW$4, DW_AT_external
TMS320C6x Assembler PC v7.4.2 Thu Mar 19 12:43:41 2015

Tools Copyright (c) 1996-2012 Texas Instruments Incorporated
package/lib/Regression/regress_d_c/./../packages/ti/vlib/src/VLIB_normalFlow_16/VLIB_normalFlow_16_d.se66 PAGE    2

      56                            .dwattr $C$DW$4, DW_AT_decl_file("C:/VLIB_Tools/CCSV5_4_0/ccsv5/tools/compiler/C6000/include/s
      57                            .dwattr $C$DW$4, DW_AT_decl_line(0xb8)
      58                            .dwattr $C$DW$4, DW_AT_decl_column(0x19)
      59                    $C$DW$5 .dwtag  DW_TAG_formal_parameter
      60                            .dwattr $C$DW$5, DW_AT_type(*$C$DW$T$109)
      61                    $C$DW$6 .dwtag  DW_TAG_unspecified_parameters
      62                            .dwendtag $C$DW$4
      63                    
      64                    
      65                    $C$DW$7 .dwtag  DW_TAG_subprogram, DW_AT_name("sprintf")
      66                            .dwattr $C$DW$7, DW_AT_TI_symbol_name("sprintf")
      67                            .dwattr $C$DW$7, DW_AT_type(*$C$DW$T$10)
      68                            .dwattr $C$DW$7, DW_AT_declaration
      69                            .dwattr $C$DW$7, DW_AT_external
      70                            .dwattr $C$DW$7, DW_AT_decl_file("C:/VLIB_Tools/CCSV5_4_0/ccsv5/tools/compiler/C6000/include/s
      71                            .dwattr $C$DW$7, DW_AT_decl_line(0xbc)
      72                            .dwattr $C$DW$7, DW_AT_decl_column(0x19)
      73                    $C$DW$8 .dwtag  DW_TAG_formal_parameter
      74                            .dwattr $C$DW$8, DW_AT_type(*$C$DW$T$60)
      75                    $C$DW$9 .dwtag  DW_TAG_formal_parameter
      76                            .dwattr $C$DW$9, DW_AT_type(*$C$DW$T$109)
      77                    $C$DW$10        .dwtag  DW_TAG_unspecified_parameters
      78                            .dwendtag $C$DW$7
      79                    
      80                    
      81                    $C$DW$11        .dwtag  DW_TAG_subprogram, DW_AT_name("memset")
      82                            .dwattr $C$DW$11, DW_AT_TI_symbol_name("memset")
      83                            .dwattr $C$DW$11, DW_AT_type(*$C$DW$T$3)
      84                            .dwattr $C$DW$11, DW_AT_declaration
      85                            .dwattr $C$DW$11, DW_AT_external
      86                            .dwattr $C$DW$11, DW_AT_decl_file("C:/VLIB_Tools/CCSV5_4_0/ccsv5/tools/compiler/C6000/include/
      87                            .dwattr $C$DW$11, DW_AT_decl_line(0x5b)
      88                            .dwattr $C$DW$11, DW_AT_decl_column(0x16)
      89                    $C$DW$12        .dwtag  DW_TAG_formal_parameter
      90                            .dwattr $C$DW$12, DW_AT_type(*$C$DW$T$3)
      91                    $C$DW$13        .dwtag  DW_TAG_formal_parameter
      92                            .dwattr $C$DW$13, DW_AT_type(*$C$DW$T$10)
      93                    $C$DW$14        .dwtag  DW_TAG_formal_parameter
      94                            .dwattr $C$DW$14, DW_AT_type(*$C$DW$T$53)
      95                            .dwendtag $C$DW$11
      96                    
      97                    
      98                    $C$DW$15        .dwtag  DW_TAG_subprogram, DW_AT_name("malloc")
      99                            .dwattr $C$DW$15, DW_AT_TI_symbol_name("malloc")
     100                            .dwattr $C$DW$15, DW_AT_type(*$C$DW$T$3)
     101                            .dwattr $C$DW$15, DW_AT_declaration
     102                            .dwattr $C$DW$15, DW_AT_external
     103                            .dwattr $C$DW$15, DW_AT_decl_file("C:/VLIB_Tools/CCSV5_4_0/ccsv5/tools/compiler/C6000/include/
     104                            .dwattr $C$DW$15, DW_AT_decl_line(0x82)
     105                            .dwattr $C$DW$15, DW_AT_decl_column(0x19)
     106                    $C$DW$16        .dwtag  DW_TAG_formal_parameter
     107                            .dwattr $C$DW$16, DW_AT_type(*$C$DW$T$53)
     108                            .dwendtag $C$DW$15
     109                    
     110                    
TMS320C6x Assembler PC v7.4.2 Thu Mar 19 12:43:41 2015

Tools Copyright (c) 1996-2012 Texas Instruments Incorporated
package/lib/Regression/regress_d_c/./../packages/ti/vlib/src/VLIB_normalFlow_16/VLIB_normalFlow_16_d.se66 PAGE    3

     111                    $C$DW$17        .dwtag  DW_TAG_subprogram, DW_AT_name("free")
     112                            .dwattr $C$DW$17, DW_AT_TI_symbol_name("free")
     113                            .dwattr $C$DW$17, DW_AT_declaration
     114                            .dwattr $C$DW$17, DW_AT_external
     115                            .dwattr $C$DW$17, DW_AT_decl_file("C:/VLIB_Tools/CCSV5_4_0/ccsv5/tools/compiler/C6000/include/
     116                            .dwattr $C$DW$17, DW_AT_decl_line(0x86)
     117                            .dwattr $C$DW$17, DW_AT_decl_column(0x19)
     118                    $C$DW$18        .dwtag  DW_TAG_formal_parameter
     119                            .dwattr $C$DW$18, DW_AT_type(*$C$DW$T$3)
     120                            .dwendtag $C$DW$17
     121                    
     122                    
     123                    $C$DW$19        .dwtag  DW_TAG_subprogram, DW_AT_name("VLIB_cache_inval")
     124                            .dwattr $C$DW$19, DW_AT_TI_symbol_name("VLIB_cache_inval")
     125                            .dwattr $C$DW$19, DW_AT_type(*$C$DW$T$10)
     126                            .dwattr $C$DW$19, DW_AT_declaration
     127                            .dwattr $C$DW$19, DW_AT_external
     128                            .dwattr $C$DW$19, DW_AT_decl_file(".\..\packages\ti\vlib\src\VLIB_normalFlow_16\..\common\c6x/
     129                            .dwattr $C$DW$19, DW_AT_decl_line(0x58)
     130                            .dwattr $C$DW$19, DW_AT_decl_column(0x05)
     131                    
     132                    $C$DW$20        .dwtag  DW_TAG_subprogram, DW_AT_name("VLIB_profile_init")
     133                            .dwattr $C$DW$20, DW_AT_TI_symbol_name("VLIB_profile_init")
     134                            .dwattr $C$DW$20, DW_AT_declaration
     135                            .dwattr $C$DW$20, DW_AT_external
     136                            .dwattr $C$DW$20, DW_AT_decl_file(".\..\packages\ti\vlib\src\VLIB_normalFlow_16\..\common\VLIB
     137                            .dwattr $C$DW$20, DW_AT_decl_line(0x7b)
     138                            .dwattr $C$DW$20, DW_AT_decl_column(0x06)
     139                    $C$DW$21        .dwtag  DW_TAG_formal_parameter
     140                            .dwattr $C$DW$21, DW_AT_type(*$C$DW$T$10)
     141                    $C$DW$22        .dwtag  DW_TAG_formal_parameter
     142                            .dwattr $C$DW$22, DW_AT_type(*$C$DW$T$60)
     143                            .dwendtag $C$DW$20
     144                    
     145                    
     146                    $C$DW$23        .dwtag  DW_TAG_subprogram, DW_AT_name("VLIB_formula_add_test")
     147                            .dwattr $C$DW$23, DW_AT_TI_symbol_name("VLIB_formula_add_test")
     148                            .dwattr $C$DW$23, DW_AT_declaration
     149                            .dwattr $C$DW$23, DW_AT_external
     150                            .dwattr $C$DW$23, DW_AT_decl_file(".\..\packages\ti\vlib\src\VLIB_normalFlow_16\..\common\VLIB
     151                            .dwattr $C$DW$23, DW_AT_decl_line(0x7d)
     152                            .dwattr $C$DW$23, DW_AT_decl_column(0x06)
     153                    $C$DW$24        .dwtag  DW_TAG_formal_parameter
     154                            .dwattr $C$DW$24, DW_AT_type(*$C$DW$T$10)
     155                    $C$DW$25        .dwtag  DW_TAG_formal_parameter
     156                            .dwattr $C$DW$25, DW_AT_type(*$C$DW$T$10)
     157                    $C$DW$26        .dwtag  DW_TAG_formal_parameter
     158                            .dwattr $C$DW$26, DW_AT_type(*$C$DW$T$10)
     159                    $C$DW$27        .dwtag  DW_TAG_formal_parameter
     160                            .dwattr $C$DW$27, DW_AT_type(*$C$DW$T$10)
     161                    $C$DW$28        .dwtag  DW_TAG_formal_parameter
     162                            .dwattr $C$DW$28, DW_AT_type(*$C$DW$T$60)
     163                    $C$DW$29        .dwtag  DW_TAG_formal_parameter
     164                            .dwattr $C$DW$29, DW_AT_type(*$C$DW$T$10)
     165                            .dwendtag $C$DW$23
TMS320C6x Assembler PC v7.4.2 Thu Mar 19 12:43:41 2015

Tools Copyright (c) 1996-2012 Texas Instruments Incorporated
package/lib/Regression/regress_d_c/./../packages/ti/vlib/src/VLIB_normalFlow_16/VLIB_normalFlow_16_d.se66 PAGE    4

     166                    
     167                    
     168                    $C$DW$30        .dwtag  DW_TAG_subprogram, DW_AT_name("VLIB_skip_test")
     169                            .dwattr $C$DW$30, DW_AT_TI_symbol_name("VLIB_skip_test")
     170                            .dwattr $C$DW$30, DW_AT_declaration
     171                            .dwattr $C$DW$30, DW_AT_external
     172                            .dwattr $C$DW$30, DW_AT_decl_file(".\..\packages\ti\vlib\src\VLIB_normalFlow_16\..\common\VLIB
     173                            .dwattr $C$DW$30, DW_AT_decl_line(0x7e)
     174                            .dwattr $C$DW$30, DW_AT_decl_column(0x06)
     175                    $C$DW$31        .dwtag  DW_TAG_formal_parameter
     176                            .dwattr $C$DW$31, DW_AT_type(*$C$DW$T$60)
     177                            .dwendtag $C$DW$30
     178                    
     179                    
     180                    $C$DW$32        .dwtag  DW_TAG_subprogram, DW_AT_name("VLIB_profile_cycle_report")
     181                            .dwattr $C$DW$32, DW_AT_TI_symbol_name("VLIB_profile_cycle_report")
     182                            .dwattr $C$DW$32, DW_AT_declaration
     183                            .dwattr $C$DW$32, DW_AT_external
     184                            .dwattr $C$DW$32, DW_AT_decl_file(".\..\packages\ti\vlib\src\VLIB_normalFlow_16\..\common\VLIB
     185                            .dwattr $C$DW$32, DW_AT_decl_line(0x7f)
     186                            .dwattr $C$DW$32, DW_AT_decl_column(0x06)
     187                    $C$DW$33        .dwtag  DW_TAG_formal_parameter
     188                            .dwattr $C$DW$33, DW_AT_type(*$C$DW$T$10)
     189                    $C$DW$34        .dwtag  DW_TAG_formal_parameter
     190                            .dwattr $C$DW$34, DW_AT_type(*$C$DW$T$60)
     191                    $C$DW$35        .dwtag  DW_TAG_formal_parameter
     192                            .dwattr $C$DW$35, DW_AT_type(*$C$DW$T$60)
     193                            .dwendtag $C$DW$32
     194                    
     195                    
     196                    $C$DW$36        .dwtag  DW_TAG_subprogram, DW_AT_name("initStack")
     197                            .dwattr $C$DW$36, DW_AT_TI_symbol_name("initStack")
     198                            .dwattr $C$DW$36, DW_AT_declaration
     199                            .dwattr $C$DW$36, DW_AT_external
     200                            .dwattr $C$DW$36, DW_AT_decl_file(".\..\packages\ti\vlib\src\VLIB_normalFlow_16\..\common\VLIB
     201                            .dwattr $C$DW$36, DW_AT_decl_line(0x80)
     202                            .dwattr $C$DW$36, DW_AT_decl_column(0x06)
     203                    $C$DW$37        .dwtag  DW_TAG_formal_parameter
     204                            .dwattr $C$DW$37, DW_AT_type(*$C$DW$T$69)
     205                            .dwendtag $C$DW$36
     206                    
     207                    
     208                    $C$DW$38        .dwtag  DW_TAG_subprogram, DW_AT_name("setStackDepth")
     209                            .dwattr $C$DW$38, DW_AT_TI_symbol_name("setStackDepth")
     210                            .dwattr $C$DW$38, DW_AT_declaration
     211                            .dwattr $C$DW$38, DW_AT_external
     212                            .dwattr $C$DW$38, DW_AT_decl_file(".\..\packages\ti\vlib\src\VLIB_normalFlow_16\..\common\VLIB
     213                            .dwattr $C$DW$38, DW_AT_decl_line(0x81)
     214                            .dwattr $C$DW$38, DW_AT_decl_column(0x06)
     215                    
     216                    $C$DW$39        .dwtag  DW_TAG_subprogram, DW_AT_name("getSP")
     217                            .dwattr $C$DW$39, DW_AT_TI_symbol_name("getSP")
     218                            .dwattr $C$DW$39, DW_AT_type(*$C$DW$T$69)
     219                            .dwattr $C$DW$39, DW_AT_declaration
     220                            .dwattr $C$DW$39, DW_AT_external
TMS320C6x Assembler PC v7.4.2 Thu Mar 19 12:43:41 2015

Tools Copyright (c) 1996-2012 Texas Instruments Incorporated
package/lib/Regression/regress_d_c/./../packages/ti/vlib/src/VLIB_normalFlow_16/VLIB_normalFlow_16_d.se66 PAGE    5

     221                            .dwattr $C$DW$39, DW_AT_decl_file(".\..\packages\ti\vlib\src\VLIB_normalFlow_16\..\common\VLIB
     222                            .dwattr $C$DW$39, DW_AT_decl_line(0x82)
     223                            .dwattr $C$DW$39, DW_AT_decl_column(0x0a)
     224                    
     225                    $C$DW$40        .dwtag  DW_TAG_subprogram, DW_AT_name("VLIB_stack_memory")
     226                            .dwattr $C$DW$40, DW_AT_TI_symbol_name("VLIB_stack_memory")
     227                            .dwattr $C$DW$40, DW_AT_declaration
     228                            .dwattr $C$DW$40, DW_AT_external
     229                            .dwattr $C$DW$40, DW_AT_decl_file(".\..\packages\ti\vlib\src\VLIB_normalFlow_16\..\common\VLIB
     230                            .dwattr $C$DW$40, DW_AT_decl_line(0x83)
     231                            .dwattr $C$DW$40, DW_AT_decl_column(0x06)
     232                    
     233                    $C$DW$41        .dwtag  DW_TAG_subprogram, DW_AT_name("VLIB_compare_mem")
     234                            .dwattr $C$DW$41, DW_AT_TI_symbol_name("VLIB_compare_mem")
     235                            .dwattr $C$DW$41, DW_AT_type(*$C$DW$T$29)
     236                            .dwattr $C$DW$41, DW_AT_declaration
     237                            .dwattr $C$DW$41, DW_AT_external
     238                            .dwattr $C$DW$41, DW_AT_decl_file(".\..\packages\ti\vlib\src\VLIB_normalFlow_16\../common/VLIB
     239                            .dwattr $C$DW$41, DW_AT_decl_line(0x6f)
     240                            .dwattr $C$DW$41, DW_AT_decl_column(0x11)
     241                    $C$DW$42        .dwtag  DW_TAG_formal_parameter
     242                            .dwattr $C$DW$42, DW_AT_type(*$C$DW$T$52)
     243                    $C$DW$43        .dwtag  DW_TAG_formal_parameter
     244                            .dwattr $C$DW$43, DW_AT_type(*$C$DW$T$52)
     245                    $C$DW$44        .dwtag  DW_TAG_formal_parameter
     246                            .dwattr $C$DW$44, DW_AT_type(*$C$DW$T$29)
     247                            .dwendtag $C$DW$41
     248                    
     249                    
     250                    $C$DW$45        .dwtag  DW_TAG_subprogram, DW_AT_name("VLIB_fillBuffer")
     251                            .dwattr $C$DW$45, DW_AT_TI_symbol_name("VLIB_fillBuffer")
     252                            .dwattr $C$DW$45, DW_AT_declaration
     253                            .dwattr $C$DW$45, DW_AT_external
     254                            .dwattr $C$DW$45, DW_AT_decl_file(".\..\packages\ti\vlib\src\VLIB_normalFlow_16\../common/VLIB
     255                            .dwattr $C$DW$45, DW_AT_decl_line(0x77)
     256                            .dwattr $C$DW$45, DW_AT_decl_column(0x06)
     257                    $C$DW$46        .dwtag  DW_TAG_formal_parameter
     258                            .dwattr $C$DW$46, DW_AT_type(*$C$DW$T$19)
     259                    $C$DW$47        .dwtag  DW_TAG_formal_parameter
     260                            .dwattr $C$DW$47, DW_AT_type(*$C$DW$T$19)
     261                    $C$DW$48        .dwtag  DW_TAG_formal_parameter
     262                            .dwattr $C$DW$48, DW_AT_type(*$C$DW$T$3)
     263                    $C$DW$49        .dwtag  DW_TAG_formal_parameter
     264                            .dwattr $C$DW$49, DW_AT_type(*$C$DW$T$3)
     265                    $C$DW$50        .dwtag  DW_TAG_formal_parameter
     266                            .dwattr $C$DW$50, DW_AT_type(*$C$DW$T$22)
     267                    $C$DW$51        .dwtag  DW_TAG_formal_parameter
     268                            .dwattr $C$DW$51, DW_AT_type(*$C$DW$T$22)
     269                    $C$DW$52        .dwtag  DW_TAG_formal_parameter
     270                            .dwattr $C$DW$52, DW_AT_type(*$C$DW$T$22)
     271                    $C$DW$53        .dwtag  DW_TAG_formal_parameter
     272                            .dwattr $C$DW$53, DW_AT_type(*$C$DW$T$19)
     273                    $C$DW$54        .dwtag  DW_TAG_formal_parameter
     274                            .dwattr $C$DW$54, DW_AT_type(*$C$DW$T$60)
     275                            .dwendtag $C$DW$45
TMS320C6x Assembler PC v7.4.2 Thu Mar 19 12:43:41 2015

Tools Copyright (c) 1996-2012 Texas Instruments Incorporated
package/lib/Regression/regress_d_c/./../packages/ti/vlib/src/VLIB_normalFlow_16/VLIB_normalFlow_16_d.se66 PAGE    6

     276                    
     277                    
     278                    $C$DW$55        .dwtag  DW_TAG_subprogram, DW_AT_name("VLIB_malloc")
     279                            .dwattr $C$DW$55, DW_AT_TI_symbol_name("VLIB_malloc")
     280                            .dwattr $C$DW$55, DW_AT_type(*$C$DW$T$3)
     281                            .dwattr $C$DW$55, DW_AT_declaration
     282                            .dwattr $C$DW$55, DW_AT_external
     283                            .dwattr $C$DW$55, DW_AT_decl_file(".\..\packages\ti\vlib\src\VLIB_normalFlow_16\../common/VLIB
     284                            .dwattr $C$DW$55, DW_AT_decl_line(0xaf)
     285                            .dwattr $C$DW$55, DW_AT_decl_column(0x07)
     286                    $C$DW$56        .dwtag  DW_TAG_formal_parameter
     287                            .dwattr $C$DW$56, DW_AT_type(*$C$DW$T$53)
     288                            .dwendtag $C$DW$55
     289                    
     290                    
     291                    $C$DW$57        .dwtag  DW_TAG_subprogram, DW_AT_name("VLIB_free")
     292                            .dwattr $C$DW$57, DW_AT_TI_symbol_name("VLIB_free")
     293                            .dwattr $C$DW$57, DW_AT_declaration
     294                            .dwattr $C$DW$57, DW_AT_external
     295                            .dwattr $C$DW$57, DW_AT_decl_file(".\..\packages\ti\vlib\src\VLIB_normalFlow_16\../common/VLIB
     296                            .dwattr $C$DW$57, DW_AT_decl_line(0xb4)
     297                            .dwattr $C$DW$57, DW_AT_decl_column(0x07)
     298                    $C$DW$58        .dwtag  DW_TAG_formal_parameter
     299                            .dwattr $C$DW$58, DW_AT_type(*$C$DW$T$3)
     300                            .dwendtag $C$DW$57
     301                    
     302                    
     303                    $C$DW$59        .dwtag  DW_TAG_subprogram, DW_AT_name("VLIB_xyGradientsAndMagnitude_cn")
     304                            .dwattr $C$DW$59, DW_AT_TI_symbol_name("VLIB_xyGradientsAndMagnitude_cn")
     305                            .dwattr $C$DW$59, DW_AT_type(*$C$DW$T$29)
     306                            .dwattr $C$DW$59, DW_AT_declaration
     307                            .dwattr $C$DW$59, DW_AT_external
     308                            .dwattr $C$DW$59, DW_AT_decl_file(".\..\packages\ti\vlib\src\VLIB_normalFlow_16\../VLIB_xyGrad
     309                            .dwattr $C$DW$59, DW_AT_decl_line(0x20)
     310                            .dwattr $C$DW$59, DW_AT_decl_column(0x09)
     311                    $C$DW$60        .dwtag  DW_TAG_formal_parameter
     312                            .dwattr $C$DW$60, DW_AT_type(*$C$DW$T$101)
     313                    $C$DW$61        .dwtag  DW_TAG_formal_parameter
     314                            .dwattr $C$DW$61, DW_AT_type(*$C$DW$T$104)
     315                    $C$DW$62        .dwtag  DW_TAG_formal_parameter
     316                            .dwattr $C$DW$62, DW_AT_type(*$C$DW$T$104)
     317                    $C$DW$63        .dwtag  DW_TAG_formal_parameter
     318                            .dwattr $C$DW$63, DW_AT_type(*$C$DW$T$104)
     319                    $C$DW$64        .dwtag  DW_TAG_formal_parameter
     320                            .dwattr $C$DW$64, DW_AT_type(*$C$DW$T$22)
     321                    $C$DW$65        .dwtag  DW_TAG_formal_parameter
     322                            .dwattr $C$DW$65, DW_AT_type(*$C$DW$T$22)
     323                            .dwendtag $C$DW$59
     324                    
     325                    
     326                    $C$DW$66        .dwtag  DW_TAG_subprogram, DW_AT_name("VLIB_normalFlow_16")
     327                            .dwattr $C$DW$66, DW_AT_TI_symbol_name("VLIB_normalFlow_16")
     328                            .dwattr $C$DW$66, DW_AT_declaration
     329                            .dwattr $C$DW$66, DW_AT_external
     330                            .dwattr $C$DW$66, DW_AT_decl_file(".\..\packages\ti\vlib\src\VLIB_normalFlow_16\c66/VLIB_norma
TMS320C6x Assembler PC v7.4.2 Thu Mar 19 12:43:41 2015

Tools Copyright (c) 1996-2012 Texas Instruments Incorporated
package/lib/Regression/regress_d_c/./../packages/ti/vlib/src/VLIB_normalFlow_16/VLIB_normalFlow_16_d.se66 PAGE    7

     331                            .dwattr $C$DW$66, DW_AT_decl_line(0x77)
     332                            .dwattr $C$DW$66, DW_AT_decl_column(0x06)
     333                    $C$DW$67        .dwtag  DW_TAG_formal_parameter
     334                            .dwattr $C$DW$67, DW_AT_type(*$C$DW$T$79)
     335                    $C$DW$68        .dwtag  DW_TAG_formal_parameter
     336                            .dwattr $C$DW$68, DW_AT_type(*$C$DW$T$79)
     337                    $C$DW$69        .dwtag  DW_TAG_formal_parameter
     338                            .dwattr $C$DW$69, DW_AT_type(*$C$DW$T$79)
     339                    $C$DW$70        .dwtag  DW_TAG_formal_parameter
     340                            .dwattr $C$DW$70, DW_AT_type(*$C$DW$T$79)
     341                    $C$DW$71        .dwtag  DW_TAG_formal_parameter
     342                            .dwattr $C$DW$71, DW_AT_type(*$C$DW$T$79)
     343                    $C$DW$72        .dwtag  DW_TAG_formal_parameter
     344                            .dwattr $C$DW$72, DW_AT_type(*$C$DW$T$20)
     345                    $C$DW$73        .dwtag  DW_TAG_formal_parameter
     346                            .dwattr $C$DW$73, DW_AT_type(*$C$DW$T$29)
     347                    $C$DW$74        .dwtag  DW_TAG_formal_parameter
     348                            .dwattr $C$DW$74, DW_AT_type(*$C$DW$T$21)
     349                    $C$DW$75        .dwtag  DW_TAG_formal_parameter
     350                            .dwattr $C$DW$75, DW_AT_type(*$C$DW$T$21)
     351                            .dwendtag $C$DW$66
     352                    
     353                    
     354                    $C$DW$76        .dwtag  DW_TAG_subprogram, DW_AT_name("VLIB_normalFlow_16_cn")
     355                            .dwattr $C$DW$76, DW_AT_TI_symbol_name("VLIB_normalFlow_16_cn")
     356                            .dwattr $C$DW$76, DW_AT_declaration
     357                            .dwattr $C$DW$76, DW_AT_external
     358                            .dwattr $C$DW$76, DW_AT_decl_file(".\..\packages\ti\vlib\src\VLIB_normalFlow_16\VLIB_normalFlo
     359                            .dwattr $C$DW$76, DW_AT_decl_line(0x20)
     360                            .dwattr $C$DW$76, DW_AT_decl_column(0x06)
     361                    $C$DW$77        .dwtag  DW_TAG_formal_parameter
     362                            .dwattr $C$DW$77, DW_AT_type(*$C$DW$T$21)
     363                    $C$DW$78        .dwtag  DW_TAG_formal_parameter
     364                            .dwattr $C$DW$78, DW_AT_type(*$C$DW$T$21)
     365                    $C$DW$79        .dwtag  DW_TAG_formal_parameter
     366                            .dwattr $C$DW$79, DW_AT_type(*$C$DW$T$21)
     367                    $C$DW$80        .dwtag  DW_TAG_formal_parameter
     368                            .dwattr $C$DW$80, DW_AT_type(*$C$DW$T$21)
     369                    $C$DW$81        .dwtag  DW_TAG_formal_parameter
     370                            .dwattr $C$DW$81, DW_AT_type(*$C$DW$T$21)
     371                    $C$DW$82        .dwtag  DW_TAG_formal_parameter
     372                            .dwattr $C$DW$82, DW_AT_type(*$C$DW$T$20)
     373                    $C$DW$83        .dwtag  DW_TAG_formal_parameter
     374                            .dwattr $C$DW$83, DW_AT_type(*$C$DW$T$29)
     375                    $C$DW$84        .dwtag  DW_TAG_formal_parameter
     376                            .dwattr $C$DW$84, DW_AT_type(*$C$DW$T$21)
     377                    $C$DW$85        .dwtag  DW_TAG_formal_parameter
     378                            .dwattr $C$DW$85, DW_AT_type(*$C$DW$T$21)
     379                            .dwendtag $C$DW$76
     380                    
     381                    
     382                    $C$DW$86        .dwtag  DW_TAG_subprogram, DW_AT_name("normalFlow_16_getTestParams")
     383                            .dwattr $C$DW$86, DW_AT_TI_symbol_name("normalFlow_16_getTestParams")
     384                            .dwattr $C$DW$86, DW_AT_declaration
     385                            .dwattr $C$DW$86, DW_AT_external
TMS320C6x Assembler PC v7.4.2 Thu Mar 19 12:43:41 2015

Tools Copyright (c) 1996-2012 Texas Instruments Incorporated
package/lib/Regression/regress_d_c/./../packages/ti/vlib/src/VLIB_normalFlow_16/VLIB_normalFlow_16_d.se66 PAGE    8

     386                            .dwattr $C$DW$86, DW_AT_decl_file(".\..\packages\ti\vlib\src\VLIB_normalFlow_16\VLIB_normalFlo
     387                            .dwattr $C$DW$86, DW_AT_decl_line(0x31)
     388                            .dwattr $C$DW$86, DW_AT_decl_column(0x06)
     389                    $C$DW$87        .dwtag  DW_TAG_formal_parameter
     390                            .dwattr $C$DW$87, DW_AT_type(*$C$DW$T$45)
     391                    $C$DW$88        .dwtag  DW_TAG_formal_parameter
     392                            .dwattr $C$DW$88, DW_AT_type(*$C$DW$T$84)
     393                            .dwendtag $C$DW$86
     394                    
     395                    $C$DW$89        .dwtag  DW_TAG_variable, DW_AT_name("test_cases")
     396                            .dwattr $C$DW$89, DW_AT_TI_symbol_name("test_cases")
     397                            .dwattr $C$DW$89, DW_AT_type(*$C$DW$T$29)
     398                            .dwattr $C$DW$89, DW_AT_declaration
     399                            .dwattr $C$DW$89, DW_AT_external
     400                            .dwattr $C$DW$89, DW_AT_decl_file(".\..\packages\ti\vlib\src\VLIB_normalFlow_16\../common/VLIB
     401                            .dwattr $C$DW$89, DW_AT_decl_line(0x60)
     402                            .dwattr $C$DW$89, DW_AT_decl_column(0x13)
     403                    $C$DW$90        .dwtag  DW_TAG_variable, DW_AT_name("act_kernel")
     404                            .dwattr $C$DW$90, DW_AT_TI_symbol_name("act_kernel")
     405                            .dwattr $C$DW$90, DW_AT_type(*$C$DW$T$10)
     406                            .dwattr $C$DW$90, DW_AT_declaration
     407                            .dwattr $C$DW$90, DW_AT_external
     408                            .dwattr $C$DW$90, DW_AT_decl_file(".\..\packages\ti\vlib\src\VLIB_normalFlow_16\../common/VLIB
     409                            .dwattr $C$DW$90, DW_AT_decl_line(0x62)
     410                            .dwattr $C$DW$90, DW_AT_decl_column(0x13)
     411                    $C$DW$91        .dwtag  DW_TAG_variable, DW_AT_name("desc")
     412                            .dwattr $C$DW$91, DW_AT_TI_symbol_name("desc")
     413                            .dwattr $C$DW$91, DW_AT_type(*$C$DW$T$165)
     414                            .dwattr $C$DW$91, DW_AT_declaration
     415                            .dwattr $C$DW$91, DW_AT_external
     416                            .dwattr $C$DW$91, DW_AT_decl_file(".\..\packages\ti\vlib\src\VLIB_normalFlow_16\../common/VLIB
     417                            .dwattr $C$DW$91, DW_AT_decl_line(0x63)
     418                            .dwattr $C$DW$91, DW_AT_decl_column(0x13)
     419                    $C$DW$92        .dwtag  DW_TAG_variable, DW_AT_name("testPatternString")
     420                            .dwattr $C$DW$92, DW_AT_TI_symbol_name("testPatternString")
     421                            .dwattr $C$DW$92, DW_AT_type(*$C$DW$T$165)
     422                            .dwattr $C$DW$92, DW_AT_declaration
     423                            .dwattr $C$DW$92, DW_AT_external
     424                            .dwattr $C$DW$92, DW_AT_decl_file(".\..\packages\ti\vlib\src\VLIB_normalFlow_16\../common/VLIB
     425                            .dwattr $C$DW$92, DW_AT_decl_line(0x64)
     426                            .dwattr $C$DW$92, DW_AT_decl_column(0x13)
     427                    $C$DW$93        .dwtag  DW_TAG_variable, DW_AT_name("est_test")
     428                            .dwattr $C$DW$93, DW_AT_TI_symbol_name("est_test")
     429                            .dwattr $C$DW$93, DW_AT_type(*$C$DW$T$10)
     430                            .dwattr $C$DW$93, DW_AT_declaration
     431                            .dwattr $C$DW$93, DW_AT_external
     432                            .dwattr $C$DW$93, DW_AT_decl_file(".\..\packages\ti\vlib\src\VLIB_normalFlow_16\..\common\VLIB
     433                            .dwattr $C$DW$93, DW_AT_decl_line(0x75)
     434                            .dwattr $C$DW$93, DW_AT_decl_column(0x14)
     435                    $C$DW$94        .dwtag  DW_TAG_variable, DW_AT_name("beg_count")
     436                            .dwattr $C$DW$94, DW_AT_TI_symbol_name("beg_count")
     437                            .dwattr $C$DW$94, DW_AT_type(*$C$DW$T$155)
     438                            .dwattr $C$DW$94, DW_AT_declaration
     439                            .dwattr $C$DW$94, DW_AT_external
     440                            .dwattr $C$DW$94, DW_AT_decl_file(".\..\packages\ti\vlib\src\VLIB_normalFlow_16\..\common\VLIB
TMS320C6x Assembler PC v7.4.2 Thu Mar 19 12:43:41 2015

Tools Copyright (c) 1996-2012 Texas Instruments Incorporated
package/lib/Regression/regress_d_c/./../packages/ti/vlib/src/VLIB_normalFlow_16/VLIB_normalFlow_16_d.se66 PAGE    9

     441                            .dwattr $C$DW$94, DW_AT_decl_line(0x76)
     442                            .dwattr $C$DW$94, DW_AT_decl_column(0x14)
     443                    $C$DW$95        .dwtag  DW_TAG_variable, DW_AT_name("end_count")
     444                            .dwattr $C$DW$95, DW_AT_TI_symbol_name("end_count")
     445                            .dwattr $C$DW$95, DW_AT_type(*$C$DW$T$155)
     446                            .dwattr $C$DW$95, DW_AT_declaration
     447                            .dwattr $C$DW$95, DW_AT_external
     448                            .dwattr $C$DW$95, DW_AT_decl_file(".\..\packages\ti\vlib\src\VLIB_normalFlow_16\..\common\VLIB
     449                            .dwattr $C$DW$95, DW_AT_decl_line(0x77)
     450                            .dwattr $C$DW$95, DW_AT_decl_column(0x14)
     451                    $C$DW$96        .dwtag  DW_TAG_variable, DW_AT_name("overhead")
     452                            .dwattr $C$DW$96, DW_AT_TI_symbol_name("overhead")
     453                            .dwattr $C$DW$96, DW_AT_type(*$C$DW$T$155)
     454                            .dwattr $C$DW$96, DW_AT_declaration
     455                            .dwattr $C$DW$96, DW_AT_external
     456                            .dwattr $C$DW$96, DW_AT_decl_file(".\..\packages\ti\vlib\src\VLIB_normalFlow_16\..\common\VLIB
     457                            .dwattr $C$DW$96, DW_AT_decl_line(0x78)
     458                            .dwattr $C$DW$96, DW_AT_decl_column(0x14)
     459                    $C$DW$97        .dwtag  DW_TAG_variable, DW_AT_name("cycles")
     460                            .dwattr $C$DW$97, DW_AT_TI_symbol_name("cycles")
     461                            .dwattr $C$DW$97, DW_AT_type(*$C$DW$T$156)
     462                            .dwattr $C$DW$97, DW_AT_declaration
     463                            .dwattr $C$DW$97, DW_AT_external
     464                            .dwattr $C$DW$97, DW_AT_decl_file(".\..\packages\ti\vlib\src\VLIB_normalFlow_16\..\common\VLIB
     465                            .dwattr $C$DW$97, DW_AT_decl_line(0x79)
     466                            .dwattr $C$DW$97, DW_AT_decl_column(0x14)
     467                    ;       C:\VLIB_Tools\CCSV5_4_0\ccsv5\tools\compiler\C6000\bin\opt6x.exe C:\\Users\\gtbldadm\\AppData\
     468 00000000                   .sect   ".text"
     469                            .clink
     470                            .global VLIB_normalFlow_16_d
     471                    
     472                    $C$DW$98        .dwtag  DW_TAG_subprogram, DW_AT_name("VLIB_normalFlow_16_d")
     473                            .dwattr $C$DW$98, DW_AT_low_pc(VLIB_normalFlow_16_d)
     474                            .dwattr $C$DW$98, DW_AT_high_pc(0x00)
     475                            .dwattr $C$DW$98, DW_AT_TI_symbol_name("VLIB_normalFlow_16_d")
     476                            .dwattr $C$DW$98, DW_AT_external
     477                            .dwattr $C$DW$98, DW_AT_TI_begin_file("./../packages/ti/vlib/src/VLIB_normalFlow_16/VLIB_norma
     478                            .dwattr $C$DW$98, DW_AT_TI_begin_line(0x28)
     479                            .dwattr $C$DW$98, DW_AT_TI_begin_column(0x06)
     480                            .dwattr $C$DW$98, DW_AT_decl_file("./../packages/ti/vlib/src/VLIB_normalFlow_16/VLIB_normalFlo
     481                            .dwattr $C$DW$98, DW_AT_decl_line(0x28)
     482                            .dwattr $C$DW$98, DW_AT_decl_column(0x06)
     483                            .dwattr $C$DW$98, DW_AT_TI_max_frame_size(0x90)
     484                            .dwpsn  file "./../packages/ti/vlib/src/VLIB_normalFlow_16/VLIB_normalFlow_16_d.c",line 41,col
     485                    
     486                            .dwfde $C$DW$CIE, VLIB_normalFlow_16_d
     487                    $C$DW$99        .dwtag  DW_TAG_formal_parameter, DW_AT_name("LevelOfFeedback")
     488                            .dwattr $C$DW$99, DW_AT_TI_symbol_name("LevelOfFeedback")
     489                            .dwattr $C$DW$99, DW_AT_type(*$C$DW$T$19)
     490                            .dwattr $C$DW$99, DW_AT_location[DW_OP_reg4]
     491                    ;----------------------------------------------------------------------
     492                    ;  40 | void VLIB_normalFlow_16_d (uint8_t LevelOfFeedback)                    
     493                    ;----------------------------------------------------------------------
     494                    
     495                    ;******************************************************************************
TMS320C6x Assembler PC v7.4.2 Thu Mar 19 12:43:41 2015

Tools Copyright (c) 1996-2012 Texas Instruments Incorporated
package/lib/Regression/regress_d_c/./../packages/ti/vlib/src/VLIB_normalFlow_16/VLIB_normalFlow_16_d.se66 PAGE   10

     496                    ;* FUNCTION NAME: VLIB_normalFlow_16_d                                        *
     497                    ;*                                                                            *
     498                    ;*   Regs Modified     : A0,A1,A2,A3,A4,A5,A6,A7,A8,A9,A10,A11,A12,A13,A14,   *
     499                    ;*                           A15,B0,B1,B2,B3,B4,B5,B6,B7,B8,B9,B10,B11,B12,   *
     500                    ;*                           B13,SP,A16,A17,A18,A19,A20,A21,A22,A23,A24,A25,  *
     501                    ;*                           A26,A27,A28,A29,A30,A31,B16,B17,B18,B19,B20,B21, *
     502                    ;*                           B22,B23,B24,B25,B26,B27,B28,B29,B30,B31          *
     503                    ;*   Regs Used         : A0,A1,A2,A3,A4,A5,A6,A7,A8,A9,A10,A11,A12,A13,A14,   *
     504                    ;*                           A15,B0,B1,B2,B3,B4,B5,B6,B7,B8,B9,B10,B11,B12,   *
     505                    ;*                           B13,DP,SP,A16,A17,A18,A19,A20,A21,A22,A23,A24,   *
     506                    ;*                           A25,A26,A27,A28,A29,A30,A31,B16,B17,B18,B19,B20, *
     507                    ;*                           B21,B22,B23,B24,B25,B26,B27,B28,B29,B30,B31      *
     508                    ;*   Local Frame Size  : 24 Args + 60 Auto + 56 Save = 140 byte               *
     509                    ;******************************************************************************
     510                    
     511                    ;******************************************************************************
     512                    ;*                                                                            *
     513                    ;* Using -g (debug) with optimization (-o3) may disable key optimizations!    *
     514                    ;*                                                                            *
     515                    ;******************************************************************************
     516 00000000           VLIB_normalFlow_16_d:
     517                    ;** --------------------------------------------------------------------------*
     518                    ;          EXCLUSIVE CPU CYCLES: 15
     519                    ;** 47  -----------------------    normalFlow_16_getTestParams(&prm, &test_cases);
     520                    ;** 50  -----------------------    VLIB_profile_init(2, "VLIB_normalFlow_16");
     521                    ;** 53  -----------------------    if ( test_cases <= 0 ) goto g36;
     522                            .dwcfi  cfa_offset, 0
     523                    ;----------------------------------------------------------------------
     524                    ;  42 | int32_t    tpi;  /* test parameter index */                            
     525                    ;  45 | normalFlow_16_testParams_t   *prm;                                     
     526                    ;----------------------------------------------------------------------
     527 00000000     25f7             STW     .D2T1   A11,*SP--(8)      ; |41| 
     528                            .dwcfi  cfa_offset, 8
     529                            .dwcfi  save_reg_to_mem, 11, 0
     530 00000002     2577             STW     .D2T1   A10,*SP--(8)      ; |41| 
     531                            .dwcfi  cfa_offset, 16
     532                            .dwcfi  save_reg_to_mem, 10, -8
     533 00000004     9677             STDW    .D2T2   B13:B12,*SP--     ; |41| 
     534                            .dwcfi  cfa_offset, 24
     535                            .dwcfi  save_reg_to_mem, 29, -12
     536                            .dwcfi  save_reg_to_mem, 28, -16
     537 00000006     9577             STDW    .D2T2   B11:B10,*SP--     ; |41| 
     538                            .dwcfi  cfa_offset, 32
     539                            .dwcfi  save_reg_to_mem, 27, -20
     540                            .dwcfi  save_reg_to_mem, 26, -24
     541 00000008     8777             STDW    .D2T1   A15:A14,*SP--     ; |41| 
     542                            .dwcfi  cfa_offset, 40
     543                            .dwcfi  save_reg_to_mem, 15, -28
     544                            .dwcfi  save_reg_to_mem, 14, -32
     545 0000000a     8677             STDW    .D2T1   A13:A12,*SP--     ; |41| 
     546                            .dwcfi  cfa_offset, 48
     547                            .dwcfi  save_reg_to_mem, 13, -36
     548                            .dwcfi  save_reg_to_mem, 12, -40
     549 0000000c 01bf14f6             STW     .D2T2   B3,*SP--(96)      ; |41| 
     550                            .dwcfi  cfa_offset, 144
TMS320C6x Assembler PC v7.4.2 Thu Mar 19 12:43:41 2015

Tools Copyright (c) 1996-2012 Texas Instruments Incorporated
package/lib/Regression/regress_d_c/./../packages/ti/vlib/src/VLIB_normalFlow_16/VLIB_normalFlow_16_d.se66 PAGE   11

     551                            .dwcfi  save_reg_to_mem, 19, 0
     552                    $C$DW$100       .dwtag  DW_TAG_variable, DW_AT_name("$O$C7")
     553                            .dwattr $C$DW$100, DW_AT_TI_symbol_name("$O$C7")
     554                            .dwattr $C$DW$100, DW_AT_type(*$C$DW$T$41)
     555                            .dwattr $C$DW$100, DW_AT_location[DW_OP_reg20]
     556                    $C$DW$101       .dwtag  DW_TAG_variable, DW_AT_name("$O$C8")
     557                            .dwattr $C$DW$101, DW_AT_TI_symbol_name("$O$C8")
     558                            .dwattr $C$DW$101, DW_AT_type(*$C$DW$T$10)
     559                            .dwattr $C$DW$101, DW_AT_location[DW_OP_reg8]
     560                    $C$DW$102       .dwtag  DW_TAG_variable, DW_AT_name("$O$C9")
     561                            .dwattr $C$DW$102, DW_AT_TI_symbol_name("$O$C9")
     562                            .dwattr $C$DW$102, DW_AT_type(*$C$DW$T$10)
     563                            .dwattr $C$DW$102, DW_AT_location[DW_OP_reg3]
     564                    $C$DW$103       .dwtag  DW_TAG_variable, DW_AT_name("$O$C10")
     565                            .dwattr $C$DW$103, DW_AT_TI_symbol_name("$O$C10")
     566                            .dwattr $C$DW$103, DW_AT_type(*$C$DW$T$41)
     567                            .dwattr $C$DW$103, DW_AT_location[DW_OP_reg20]
     568                    $C$DW$104       .dwtag  DW_TAG_variable, DW_AT_name("$O$C11")
     569                            .dwattr $C$DW$104, DW_AT_TI_symbol_name("$O$C11")
     570                            .dwattr $C$DW$104, DW_AT_type(*$C$DW$T$8)
     571                            .dwattr $C$DW$104, DW_AT_location[DW_OP_reg3]
     572                    $C$DW$105       .dwtag  DW_TAG_variable, DW_AT_name("$O$C12")
     573                            .dwattr $C$DW$105, DW_AT_TI_symbol_name("$O$C12")
     574                            .dwattr $C$DW$105, DW_AT_type(*$C$DW$T$9)
     575                            .dwattr $C$DW$105, DW_AT_location[DW_OP_reg8]
     576                    $C$DW$106       .dwtag  DW_TAG_variable, DW_AT_name("$O$C13")
     577                            .dwattr $C$DW$106, DW_AT_TI_symbol_name("$O$C13")
     578                            .dwattr $C$DW$106, DW_AT_type(*$C$DW$T$9)
     579                            .dwattr $C$DW$106, DW_AT_location[DW_OP_reg8]
     580                    $C$DW$107       .dwtag  DW_TAG_variable, DW_AT_name("$O$C14")
     581                            .dwattr $C$DW$107, DW_AT_TI_symbol_name("$O$C14")
     582                            .dwattr $C$DW$107, DW_AT_type(*$C$DW$T$9)
     583                            .dwattr $C$DW$107, DW_AT_location[DW_OP_reg8]
     584                    $C$DW$108       .dwtag  DW_TAG_variable, DW_AT_name("$O$C15")
     585                            .dwattr $C$DW$108, DW_AT_TI_symbol_name("$O$C15")
     586                            .dwattr $C$DW$108, DW_AT_type(*$C$DW$T$41)
     587                            .dwattr $C$DW$108, DW_AT_location[DW_OP_reg20]
     588                    $C$DW$109       .dwtag  DW_TAG_variable, DW_AT_name("$O$C16")
     589                            .dwattr $C$DW$109, DW_AT_TI_symbol_name("$O$C16")
     590                            .dwattr $C$DW$109, DW_AT_type(*$C$DW$T$9)
     591                            .dwattr $C$DW$109, DW_AT_location[DW_OP_reg21]
     592                    $C$DW$110       .dwtag  DW_TAG_variable, DW_AT_name("$O$C17")
     593                            .dwattr $C$DW$110, DW_AT_TI_symbol_name("$O$C17")
     594                            .dwattr $C$DW$110, DW_AT_type(*$C$DW$T$10)
     595                            .dwattr $C$DW$110, DW_AT_location[DW_OP_reg3]
     596                    $C$DW$111       .dwtag  DW_TAG_variable, DW_AT_name("$O$C18")
     597                            .dwattr $C$DW$111, DW_AT_TI_symbol_name("$O$C18")
     598                            .dwattr $C$DW$111, DW_AT_type(*$C$DW$T$9)
     599                            .dwattr $C$DW$111, DW_AT_location[DW_OP_reg8]
     600                    $C$DW$112       .dwtag  DW_TAG_variable, DW_AT_name("$O$C19")
     601                            .dwattr $C$DW$112, DW_AT_TI_symbol_name("$O$C19")
     602                            .dwattr $C$DW$112, DW_AT_type(*$C$DW$T$9)
     603                            .dwattr $C$DW$112, DW_AT_location[DW_OP_reg3]
     604                    $C$DW$113       .dwtag  DW_TAG_variable, DW_AT_name("$O$C20")
     605                            .dwattr $C$DW$113, DW_AT_TI_symbol_name("$O$C20")
TMS320C6x Assembler PC v7.4.2 Thu Mar 19 12:43:41 2015

Tools Copyright (c) 1996-2012 Texas Instruments Incorporated
package/lib/Regression/regress_d_c/./../packages/ti/vlib/src/VLIB_normalFlow_16/VLIB_normalFlow_16_d.se66 PAGE   12

     606                            .dwattr $C$DW$113, DW_AT_type(*$C$DW$T$9)
     607                            .dwattr $C$DW$113, DW_AT_location[DW_OP_reg3]
     608                    $C$DW$114       .dwtag  DW_TAG_variable, DW_AT_name("$O$C21")
     609                            .dwattr $C$DW$114, DW_AT_TI_symbol_name("$O$C21")
     610                            .dwattr $C$DW$114, DW_AT_type(*$C$DW$T$9)
     611                            .dwattr $C$DW$114, DW_AT_location[DW_OP_reg3]
     612                    $C$DW$115       .dwtag  DW_TAG_variable, DW_AT_name("$O$C22")
     613                            .dwattr $C$DW$115, DW_AT_TI_symbol_name("$O$C22")
     614                            .dwattr $C$DW$115, DW_AT_type(*$C$DW$T$9)
     615                            .dwattr $C$DW$115, DW_AT_location[DW_OP_reg8]
     616                    $C$DW$116       .dwtag  DW_TAG_variable, DW_AT_name("$O$C23")
     617                            .dwattr $C$DW$116, DW_AT_TI_symbol_name("$O$C23")
     618                            .dwattr $C$DW$116, DW_AT_type(*$C$DW$T$9)
     619                            .dwattr $C$DW$116, DW_AT_location[DW_OP_reg8]
     620                    $C$DW$117       .dwtag  DW_TAG_variable, DW_AT_name("$O$C24")
     621                            .dwattr $C$DW$117, DW_AT_TI_symbol_name("$O$C24")
     622                            .dwattr $C$DW$117, DW_AT_type(*$C$DW$T$11)
     623                            .dwattr $C$DW$117, DW_AT_location[DW_OP_reg10]
     624                    $C$DW$118       .dwtag  DW_TAG_variable, DW_AT_name("$O$C25")
     625                            .dwattr $C$DW$118, DW_AT_TI_symbol_name("$O$C25")
     626                            .dwattr $C$DW$118, DW_AT_type(*$C$DW$T$11)
     627                            .dwattr $C$DW$118, DW_AT_location[DW_OP_reg12]
     628                    $C$DW$119       .dwtag  DW_TAG_variable, DW_AT_name("$O$U12")
     629                            .dwattr $C$DW$119, DW_AT_TI_symbol_name("$O$U12")
     630                            .dwattr $C$DW$119, DW_AT_type(*$C$DW$T$41)
     631                            .dwattr $C$DW$119, DW_AT_location[DW_OP_reg11]
     632                    $C$DW$120       .dwtag  DW_TAG_variable, DW_AT_name("$O$K63")
     633                            .dwattr $C$DW$120, DW_AT_TI_symbol_name("$O$K63")
     634                            .dwattr $C$DW$120, DW_AT_type(*$C$DW$T$88)
     635                            .dwattr $C$DW$120, DW_AT_location[DW_OP_reg12]
     636                    $C$DW$121       .dwtag  DW_TAG_variable, DW_AT_name("$O$K64")
     637                            .dwattr $C$DW$121, DW_AT_TI_symbol_name("$O$K64")
     638                            .dwattr $C$DW$121, DW_AT_type(*$C$DW$T$10)
     639                            .dwattr $C$DW$121, DW_AT_location[DW_OP_reg4]
     640                    $C$DW$122       .dwtag  DW_TAG_variable, DW_AT_name("$O$U11")
     641                            .dwattr $C$DW$122, DW_AT_TI_symbol_name("$O$U11")
     642                            .dwattr $C$DW$122, DW_AT_type(*$C$DW$T$10)
     643                            .dwattr $C$DW$122, DW_AT_location[DW_OP_reg27]
     644                    $C$DW$123       .dwtag  DW_TAG_variable, DW_AT_name("$O$U129")
     645                            .dwattr $C$DW$123, DW_AT_TI_symbol_name("$O$U129")
     646                            .dwattr $C$DW$123, DW_AT_type(*$C$DW$T$103)
     647                            .dwattr $C$DW$123, DW_AT_location[DW_OP_reg5]
     648                    $C$DW$124       .dwtag  DW_TAG_variable, DW_AT_name("$O$K150")
     649                            .dwattr $C$DW$124, DW_AT_TI_symbol_name("$O$K150")
     650                            .dwattr $C$DW$124, DW_AT_type(*$C$DW$T$16)
     651                            .dwattr $C$DW$124, DW_AT_location[DW_OP_reg12]
     652                    $C$DW$125       .dwtag  DW_TAG_variable, DW_AT_name("$O$K147")
     653                            .dwattr $C$DW$125, DW_AT_TI_symbol_name("$O$K147")
     654                            .dwattr $C$DW$125, DW_AT_type(*$C$DW$T$16)
     655                            .dwattr $C$DW$125, DW_AT_location[DW_OP_reg10]
     656                    $C$DW$126       .dwtag  DW_TAG_variable, DW_AT_name("$O$U153")
     657                            .dwattr $C$DW$126, DW_AT_TI_symbol_name("$O$U153")
     658                            .dwattr $C$DW$126, DW_AT_type(*$C$DW$T$103)
     659                            .dwattr $C$DW$126, DW_AT_location[DW_OP_reg15]
     660                    $C$DW$127       .dwtag  DW_TAG_variable, DW_AT_name("$O$U138")
TMS320C6x Assembler PC v7.4.2 Thu Mar 19 12:43:41 2015

Tools Copyright (c) 1996-2012 Texas Instruments Incorporated
package/lib/Regression/regress_d_c/./../packages/ti/vlib/src/VLIB_normalFlow_16/VLIB_normalFlow_16_d.se66 PAGE   13

     661                            .dwattr $C$DW$127, DW_AT_TI_symbol_name("$O$U138")
     662                            .dwattr $C$DW$127, DW_AT_type(*$C$DW$T$11)
     663                            .dwattr $C$DW$127, DW_AT_location[DW_OP_reg10]
     664                    $C$DW$128       .dwtag  DW_TAG_variable, DW_AT_name("$O$K172")
     665                            .dwattr $C$DW$128, DW_AT_TI_symbol_name("$O$K172")
     666                            .dwattr $C$DW$128, DW_AT_type(*$C$DW$T$154)
     667                            .dwattr $C$DW$128, DW_AT_location[DW_OP_reg3]
     668                    $C$DW$129       .dwtag  DW_TAG_variable, DW_AT_name("$O$U188")
     669                            .dwattr $C$DW$129, DW_AT_TI_symbol_name("$O$U188")
     670                            .dwattr $C$DW$129, DW_AT_type(*$C$DW$T$103)
     671                            .dwattr $C$DW$129, DW_AT_location[DW_OP_reg0]
     672                    $C$DW$130       .dwtag  DW_TAG_variable, DW_AT_name("$O$U112")
     673                            .dwattr $C$DW$130, DW_AT_TI_symbol_name("$O$U112")
     674                            .dwattr $C$DW$130, DW_AT_type(*$C$DW$T$41)
     675                            .dwattr $C$DW$130, DW_AT_location[DW_OP_reg20]
     676                    $C$DW$131       .dwtag  DW_TAG_variable, DW_AT_name("$O$K204")
     677                            .dwattr $C$DW$131, DW_AT_TI_symbol_name("$O$K204")
     678                            .dwattr $C$DW$131, DW_AT_type(*$C$DW$T$88)
     679                            .dwattr $C$DW$131, DW_AT_location[DW_OP_reg8]
     680                    $C$DW$132       .dwtag  DW_TAG_variable, DW_AT_name("$O$L4")
     681                            .dwattr $C$DW$132, DW_AT_TI_symbol_name("$O$L4")
     682                            .dwattr $C$DW$132, DW_AT_type(*$C$DW$T$10)
     683                            .dwattr $C$DW$132, DW_AT_location[DW_OP_breg31 32]
     684                    $C$DW$133       .dwtag  DW_TAG_variable, DW_AT_name("tpi")
     685                            .dwattr $C$DW$133, DW_AT_TI_symbol_name("tpi")
     686                            .dwattr $C$DW$133, DW_AT_type(*$C$DW$T$29)
     687                            .dwattr $C$DW$133, DW_AT_location[DW_OP_reg13]
     688                    $C$DW$134       .dwtag  DW_TAG_variable, DW_AT_name("prm")
     689                            .dwattr $C$DW$134, DW_AT_TI_symbol_name("prm")
     690                            .dwattr $C$DW$134, DW_AT_type(*$C$DW$T$44)
     691                            .dwattr $C$DW$134, DW_AT_location[DW_OP_breg31 28]
     692                    $C$DW$135       .dwtag  DW_TAG_variable, DW_AT_name("status_nat_vs_int")
     693                            .dwattr $C$DW$135, DW_AT_TI_symbol_name("status_nat_vs_int")
     694                            .dwattr $C$DW$135, DW_AT_type(*$C$DW$T$29)
     695                            .dwattr $C$DW$135, DW_AT_location[DW_OP_reg29]
     696                    $C$DW$136       .dwtag  DW_TAG_variable, DW_AT_name("status_nat_vs_ref")
     697                            .dwattr $C$DW$136, DW_AT_TI_symbol_name("status_nat_vs_ref")
     698                            .dwattr $C$DW$136, DW_AT_type(*$C$DW$T$29)
     699                            .dwattr $C$DW$136, DW_AT_location[DW_OP_reg28]
     700                    $C$DW$137       .dwtag  DW_TAG_variable, DW_AT_name("inp_size")
     701                            .dwattr $C$DW$137, DW_AT_TI_symbol_name("inp_size")
     702                            .dwattr $C$DW$137, DW_AT_type(*$C$DW$T$69)
     703                            .dwattr $C$DW$137, DW_AT_location[DW_OP_reg4]
     704                    $C$DW$138       .dwtag  DW_TAG_variable, DW_AT_name("out_size")
     705                            .dwattr $C$DW$138, DW_AT_TI_symbol_name("out_size")
     706                            .dwattr $C$DW$138, DW_AT_type(*$C$DW$T$69)
     707                            .dwattr $C$DW$138, DW_AT_location[DW_OP_breg31 36]
     708                    $C$DW$139       .dwtag  DW_TAG_variable, DW_AT_name("pIn")
     709                            .dwattr $C$DW$139, DW_AT_TI_symbol_name("pIn")
     710                            .dwattr $C$DW$139, DW_AT_type(*$C$DW$T$100)
     711                            .dwattr $C$DW$139, DW_AT_location[DW_OP_breg31 40]
     712                    $C$DW$140       .dwtag  DW_TAG_variable, DW_AT_name("pInold")
     713                            .dwattr $C$DW$140, DW_AT_TI_symbol_name("pInold")
     714                            .dwattr $C$DW$140, DW_AT_type(*$C$DW$T$100)
     715                            .dwattr $C$DW$140, DW_AT_location[DW_OP_breg31 44]
TMS320C6x Assembler PC v7.4.2 Thu Mar 19 12:43:41 2015

Tools Copyright (c) 1996-2012 Texas Instruments Incorporated
package/lib/Regression/regress_d_c/./../packages/ti/vlib/src/VLIB_normalFlow_16/VLIB_normalFlow_16_d.se66 PAGE   14

     716                    $C$DW$141       .dwtag  DW_TAG_variable, DW_AT_name("imDiff")
     717                            .dwattr $C$DW$141, DW_AT_TI_symbol_name("imDiff")
     718                            .dwattr $C$DW$141, DW_AT_type(*$C$DW$T$21)
     719                            .dwattr $C$DW$141, DW_AT_location[DW_OP_breg31 48]
     720                    $C$DW$142       .dwtag  DW_TAG_variable, DW_AT_name("Emag")
     721                            .dwattr $C$DW$142, DW_AT_TI_symbol_name("Emag")
     722                            .dwattr $C$DW$142, DW_AT_type(*$C$DW$T$21)
     723                            .dwattr $C$DW$142, DW_AT_location[DW_OP_breg31 52]
     724                    $C$DW$143       .dwtag  DW_TAG_variable, DW_AT_name("Ex")
     725                            .dwattr $C$DW$143, DW_AT_TI_symbol_name("Ex")
     726                            .dwattr $C$DW$143, DW_AT_type(*$C$DW$T$21)
     727                            .dwattr $C$DW$143, DW_AT_location[DW_OP_breg31 56]
     728                    $C$DW$144       .dwtag  DW_TAG_variable, DW_AT_name("Ey")
     729                            .dwattr $C$DW$144, DW_AT_TI_symbol_name("Ey")
     730                            .dwattr $C$DW$144, DW_AT_type(*$C$DW$T$21)
     731                            .dwattr $C$DW$144, DW_AT_location[DW_OP_breg31 60]
     732                    $C$DW$145       .dwtag  DW_TAG_variable, DW_AT_name("LUT")
     733                            .dwattr $C$DW$145, DW_AT_TI_symbol_name("LUT")
     734                            .dwattr $C$DW$145, DW_AT_type(*$C$DW$T$21)
     735                            .dwattr $C$DW$145, DW_AT_location[DW_OP_breg31 64]
     736                    $C$DW$146       .dwtag  DW_TAG_variable, DW_AT_name("normalFlowU")
     737                            .dwattr $C$DW$146, DW_AT_TI_symbol_name("normalFlowU")
     738                            .dwattr $C$DW$146, DW_AT_type(*$C$DW$T$21)
     739                            .dwattr $C$DW$146, DW_AT_location[DW_OP_breg31 68]
     740                    $C$DW$147       .dwtag  DW_TAG_variable, DW_AT_name("normalFlowV")
     741                            .dwattr $C$DW$147, DW_AT_TI_symbol_name("normalFlowV")
     742                            .dwattr $C$DW$147, DW_AT_type(*$C$DW$T$21)
     743                            .dwattr $C$DW$147, DW_AT_location[DW_OP_breg31 72]
     744                    $C$DW$148       .dwtag  DW_TAG_variable, DW_AT_name("normalFlowU_cn")
     745                            .dwattr $C$DW$148, DW_AT_TI_symbol_name("normalFlowU_cn")
     746                            .dwattr $C$DW$148, DW_AT_type(*$C$DW$T$21)
     747                            .dwattr $C$DW$148, DW_AT_location[DW_OP_breg31 76]
     748                    $C$DW$149       .dwtag  DW_TAG_variable, DW_AT_name("normalFlowV_cn")
     749                            .dwattr $C$DW$149, DW_AT_TI_symbol_name("normalFlowV_cn")
     750                            .dwattr $C$DW$149, DW_AT_type(*$C$DW$T$21)
     751                            .dwattr $C$DW$149, DW_AT_location[DW_OP_breg31 80]
     752                    $C$DW$150       .dwtag  DW_TAG_variable, DW_AT_name("maxMag")
     753                            .dwattr $C$DW$150, DW_AT_TI_symbol_name("maxMag")
     754                            .dwattr $C$DW$150, DW_AT_type(*$C$DW$T$29)
     755                            .dwattr $C$DW$150, DW_AT_location[DW_OP_reg15]
     756                    $C$DW$151       .dwtag  DW_TAG_variable, DW_AT_name("$O$U77")
     757                            .dwattr $C$DW$151, DW_AT_TI_symbol_name("$O$U77")
     758                            .dwattr $C$DW$151, DW_AT_type(*$C$DW$T$24)
     759                            .dwattr $C$DW$151, DW_AT_location[DW_OP_reg5]
     760                    $C$DW$152       .dwtag  DW_TAG_variable, DW_AT_name("$O$U77")
     761                            .dwattr $C$DW$152, DW_AT_TI_symbol_name("$O$U77")
     762                            .dwattr $C$DW$152, DW_AT_type(*$C$DW$T$24)
     763                            .dwattr $C$DW$152, DW_AT_location[DW_OP_reg5]
     764                    $C$DW$153       .dwtag  DW_TAG_variable, DW_AT_name("$O$U75")
     765                            .dwattr $C$DW$153, DW_AT_TI_symbol_name("$O$U75")
     766                            .dwattr $C$DW$153, DW_AT_type(*$C$DW$T$24)
     767                            .dwattr $C$DW$153, DW_AT_location[DW_OP_reg21]
     768                    $C$DW$154       .dwtag  DW_TAG_variable, DW_AT_name("$O$U75")
     769                            .dwattr $C$DW$154, DW_AT_TI_symbol_name("$O$U75")
     770                            .dwattr $C$DW$154, DW_AT_type(*$C$DW$T$24)
TMS320C6x Assembler PC v7.4.2 Thu Mar 19 12:43:41 2015

Tools Copyright (c) 1996-2012 Texas Instruments Incorporated
package/lib/Regression/regress_d_c/./../packages/ti/vlib/src/VLIB_normalFlow_16/VLIB_normalFlow_16_d.se66 PAGE   15

     771                            .dwattr $C$DW$154, DW_AT_location[DW_OP_reg21]
     772                    $C$DW$155       .dwtag  DW_TAG_variable, DW_AT_name("$O$U81")
     773                            .dwattr $C$DW$155, DW_AT_TI_symbol_name("$O$U81")
     774                            .dwattr $C$DW$155, DW_AT_type(*$C$DW$T$103)
     775                            .dwattr $C$DW$155, DW_AT_location[DW_OP_reg4]
     776                    $C$DW$156       .dwtag  DW_TAG_variable, DW_AT_name("$O$U81")
     777                            .dwattr $C$DW$156, DW_AT_TI_symbol_name("$O$U81")
     778                            .dwattr $C$DW$156, DW_AT_type(*$C$DW$T$103)
     779                            .dwattr $C$DW$156, DW_AT_location[DW_OP_reg4]
     780                    $C$DW$157       .dwtag  DW_TAG_variable, DW_AT_name("i")
     781                            .dwattr $C$DW$157, DW_AT_TI_symbol_name("i")
     782                            .dwattr $C$DW$157, DW_AT_type(*$C$DW$T$29)
     783                            .dwattr $C$DW$157, DW_AT_location[DW_OP_reg26]
     784                    $C$DW$158       .dwtag  DW_TAG_variable, DW_AT_name("statusU")
     785                            .dwattr $C$DW$158, DW_AT_TI_symbol_name("statusU")
     786                            .dwattr $C$DW$158, DW_AT_type(*$C$DW$T$29)
     787                            .dwattr $C$DW$158, DW_AT_location[DW_OP_reg10]
     788                    $C$DW$159       .dwtag  DW_TAG_variable, DW_AT_name("statusU")
     789                            .dwattr $C$DW$159, DW_AT_TI_symbol_name("statusU")
     790                            .dwattr $C$DW$159, DW_AT_type(*$C$DW$T$29)
     791                            .dwattr $C$DW$159, DW_AT_location[DW_OP_breg31 84]
     792                    $C$DW$160       .dwtag  DW_TAG_variable, DW_AT_name("statusV")
     793                            .dwattr $C$DW$160, DW_AT_TI_symbol_name("statusV")
     794                            .dwattr $C$DW$160, DW_AT_type(*$C$DW$T$29)
     795                            .dwattr $C$DW$160, DW_AT_location[DW_OP_reg4]
     796                    $C$DW$161       .dwtag  DW_TAG_variable, DW_AT_name("statusV")
     797                            .dwattr $C$DW$161, DW_AT_TI_symbol_name("statusV")
     798                            .dwattr $C$DW$161, DW_AT_type(*$C$DW$T$29)
     799                            .dwattr $C$DW$161, DW_AT_location[DW_OP_reg14]
     800                    $C$DW$162       .dwtag  DW_TAG_variable, DW_AT_name("$O$v1")
     801                            .dwattr $C$DW$162, DW_AT_TI_symbol_name("$O$v1")
     802                            .dwattr $C$DW$162, DW_AT_type(*$C$DW$T$44)
     803                            .dwattr $C$DW$162, DW_AT_location[DW_OP_reg20]
     804                    $C$DW$163       .dwtag  DW_TAG_variable, DW_AT_name("$O$v1")
     805                            .dwattr $C$DW$163, DW_AT_TI_symbol_name("$O$v1")
     806                            .dwattr $C$DW$163, DW_AT_type(*$C$DW$T$44)
     807                            .dwattr $C$DW$163, DW_AT_location[DW_OP_reg20]
     808                    $C$DW$164       .dwtag  DW_TAG_variable, DW_AT_name("$O$v1")
     809                            .dwattr $C$DW$164, DW_AT_TI_symbol_name("$O$v1")
     810                            .dwattr $C$DW$164, DW_AT_type(*$C$DW$T$44)
     811                            .dwattr $C$DW$164, DW_AT_location[DW_OP_reg20]
     812                    $C$DW$165       .dwtag  DW_TAG_variable, DW_AT_name("$O$v2")
     813                            .dwattr $C$DW$165, DW_AT_TI_symbol_name("$O$v2")
     814                            .dwattr $C$DW$165, DW_AT_type(*$C$DW$T$155)
     815                            .dwattr $C$DW$165, DW_AT_location[DW_OP_reg22]
     816                    $C$DW$166       .dwtag  DW_TAG_variable, DW_AT_name("$O$v2")
     817                            .dwattr $C$DW$166, DW_AT_TI_symbol_name("$O$v2")
     818                            .dwattr $C$DW$166, DW_AT_type(*$C$DW$T$155)
     819                            .dwattr $C$DW$166, DW_AT_location[DW_OP_reg22]
     820 00000010 0200002a!            MVKL    .S2     test_cases,B4
     821 00000014 0200006a!            MVKH    .S2     test_cases,B4
     822                    $C$DW$167       .dwtag  DW_TAG_TI_branch
     823                            .dwattr $C$DW$167, DW_AT_low_pc(0x00)
     824                            .dwattr $C$DW$167, DW_AT_name("normalFlow_16_getTestParams")
     825                            .dwattr $C$DW$167, DW_AT_TI_call
TMS320C6x Assembler PC v7.4.2 Thu Mar 19 12:43:41 2015

Tools Copyright (c) 1996-2012 Texas Instruments Incorporated
package/lib/Regression/regress_d_c/./../packages/ti/vlib/src/VLIB_normalFlow_16/VLIB_normalFlow_16_d.se66 PAGE   16

     826                    
     827 00000018 10000013!            CALLP   .S2     normalFlow_16_getTestParams,B3
     828 00000020 120007fc  ||         ADDAW   .D1X    SP,7,A4           ; |47| 
     829                    
     830                            .dwpsn  file "./../packages/ti/vlib/src/VLIB_normalFlow_16/VLIB_normalFlow_16_d.c",line 47,col
     831                    ;----------------------------------------------------------------------
     832                    ;  47 | normalFlow_16_getTestParams(&prm, &test_cases);                        
     833                    ;----------------------------------------------------------------------
     834 00000024           $C$RL0:    ; CALL OCCURS {normalFlow_16_getTestParams} {0}  ; |47| 
     835                    ;** --------------------------------------------------------------------------*
     836                    ;          EXCLUSIVE CPU CYCLES: 8
     837 00000024 0200002a!            MVKL    .S2     $C$SL1+0,B4
     838 00000028 0200006a!            MVKH    .S2     $C$SL1+0,B4
     839                    $C$DW$168       .dwtag  DW_TAG_TI_branch
     840                            .dwattr $C$DW$168, DW_AT_low_pc(0x00)
     841                            .dwattr $C$DW$168, DW_AT_name("VLIB_profile_init")
     842                            .dwattr $C$DW$168, DW_AT_TI_call
     843                    
     844 0000002c 10000013!            CALLP   .S2     VLIB_profile_init,B3
     845 00000030 0208a358  ||         MVK     .L1     0x2,A4            ; |50| 
     846                    
     847                            .dwpsn  file "./../packages/ti/vlib/src/VLIB_normalFlow_16/VLIB_normalFlow_16_d.c",line 50,col
     848                    ;----------------------------------------------------------------------
     849                    ;  50 | VLIB_profile_init(2, "VLIB_normalFlow_16");                            
     850                    ;----------------------------------------------------------------------
     851 00000034           $C$RL1:    ; CALL OCCURS {VLIB_profile_init} {0}  ; |50| 
     852                    ;** --------------------------------------------------------------------------*
     853                    ;          EXCLUSIVE CPU CYCLES: 14
     854                    ;**     -----------------------    K$204 = &desc[0];
     855                    ;**     -----------------------    U$12 = prm;
     856                    ;**     -----------------------    U$11 = 0;
     857                    ;** 53  -----------------------    tpi = 0;
     858                    ;**     -----------------------    #pragma LOOP_FLAGS(5120u)
     859 00000034 01800028!            MVKL    .S1     test_cases,A3
     860 00000038 01800068!            MVKH    .S1     test_cases,A3
     861                            .dwpsn  file "./../packages/ti/vlib/src/VLIB_normalFlow_16/VLIB_normalFlow_16_d.c",line 53,col
     862                    ;----------------------------------------------------------------------
     863                    ;  53 | for( tpi=0; tpi < test_cases; tpi++ ) {                                
     864                    ;----------------------------------------------------------------------
     865 0000003c 020c0264             LDW     .D1T1   *A3,A4            ; |53| 
     866 00000040 05bce2e4             LDW     .D2T1   *+SP(28),A11
     867                            .dwpsn  file "./../packages/ti/vlib/src/VLIB_normalFlow_16/VLIB_normalFlow_16_d.c",line 53,col
     868                    ;----------------------------------------------------------------------
     869                    ;  56 | int32_t    status_nat_vs_int = vlib_KERNEL_PASS; /* Test status : Natur
     870                    ;     | al c vs. Optimized */                                                  
     871                    ;  57 | int32_t    status_nat_vs_ref = vlib_KERNEL_PASS; /* Test status : Natur
     872                    ;     | al c vs. Static Reference */                                           
     873                    ;----------------------------------------------------------------------
     874 00000044 0580a35a             ZERO    .L2     B11               ; |53| 
     875 00000048 0680a358             ZERO    .L1     A13               ; |53| 
     876 0000004c     0c6e             NOP             1
     877                            .dwpsn  file "./../packages/ti/vlib/src/VLIB_normalFlow_16/VLIB_normalFlow_16_d.c",line 53,col
     878 0000004e     1226             CMPGT   .L1     A4,0,A0           ; |53| 
     879                    
     880 00000050 d4bc6121     [!A0]   BNOP    .S1     $C$L27,3          ; |53| 
TMS320C6x Assembler PC v7.4.2 Thu Mar 19 12:43:41 2015

Tools Copyright (c) 1996-2012 Texas Instruments Incorporated
package/lib/Regression/regress_d_c/./../packages/ti/vlib/src/VLIB_normalFlow_16/VLIB_normalFlow_16_d.se66 PAGE   17

     881 00000054 c1ae4204  || [ A0]   LDHU    .D1T1   *+A11(36),A3      ; |63| 
     882                    
     883                            .dwpsn  file "./../packages/ti/vlib/src/VLIB_normalFlow_16/VLIB_normalFlow_16_d.c",line 63,col
     884                    ;----------------------------------------------------------------------
     885                    ;  63 | uint32_t    inp_size =   prm[tpi].width * prm[tpi].height + 1;         
     886                    ;  64 | uint32_t    out_size =   prm[tpi].width * prm[tpi].height;             
     887                    ;----------------------------------------------------------------------
     888 00000058 c22e2204     [ A0]   LDHU    .D1T1   *+A11(34),A4      ; |63| 
     889 00000060 00000000             NOP             1
     890                            .dwpsn  file "./../packages/ti/vlib/src/VLIB_normalFlow_16/VLIB_normalFlow_16_d.c",line 53,col
     891                               ; BRANCHCC OCCURS {$C$L27}        ; |53| 
     892                    ;** --------------------------------------------------------------------------*
     893                    ;**   BEGIN LOOP $C$L1
     894                    ;** --------------------------------------------------------------------------*
     895 00000064           $C$L1:    
     896                            .dwpsn  file "./../packages/ti/vlib/src/VLIB_normalFlow_16/VLIB_normalFlow_16_d.c",line 53,col
     897 00000064           $C$DW$L$VLIB_normalFlow_16_d$4$B:
     898                    ;          EXCLUSIVE CPU CYCLES: 6
     899                    ;**     -----------------------g3:
     900                    ;** 63  -----------------------    C$25 = _mpyu((*U$12).width, (*U$12).height);
     901                    ;** 63  -----------------------    inp_size = C$25+1u;
     902                    ;** 64  -----------------------    out_size = C$25;
     903                    ;** 67  -----------------------    pIn = VLIB_malloc(out_size+1u);
     904                    ;** 68  -----------------------    pInold = VLIB_malloc(inp_size);
     905                    ;** 69  -----------------------    C$24 = out_size*2u;
     906                    ;** 69  -----------------------    imDiff = VLIB_malloc(C$24);
     907                    ;** 70  -----------------------    Emag = VLIB_malloc(C$24);
     908                    ;** 71  -----------------------    Ex = VLIB_malloc(C$24);
     909                    ;** 72  -----------------------    Ey = VLIB_malloc(C$24);
     910                    ;** 74  -----------------------    normalFlowU = VLIB_malloc(C$24);
     911                    ;** 75  -----------------------    normalFlowV = VLIB_malloc(C$24);
     912                    ;** 76  -----------------------    normalFlowU_cn = malloc(C$24);
     913                    ;** 77  -----------------------    normalFlowV_cn = malloc(C$24);
     914                    ;** 80  -----------------------    if ( !((pIn != NULL)&(pInold != NULL)&(imDiff != NULL)&(Emag != NUL
     915                            .dwpsn  file "./../packages/ti/vlib/src/VLIB_normalFlow_16/VLIB_normalFlow_16_d.c",line 67,col
     916                    ;----------------------------------------------------------------------
     917                    ;  67 | uint8_t   *pIn            =  (uint8_t *) VLIB_malloc(inp_size);        
     918                    ;----------------------------------------------------------------------
     919                    $C$DW$169       .dwtag  DW_TAG_TI_branch
     920                            .dwattr $C$DW$169, DW_AT_low_pc(0x00)
     921                            .dwattr $C$DW$169, DW_AT_name("VLIB_malloc")
     922                            .dwattr $C$DW$169, DW_AT_TI_call
     923 00000064 00000010!            CALL    .S1     VLIB_malloc       ; |67| 
     924 00000068 01882162             ADDKPC  .S2     $C$RL2,B3,1       ; |67| 
     925                            .dwpsn  file "./../packages/ti/vlib/src/VLIB_normalFlow_16/VLIB_normalFlow_16_d.c",line 63,col
     926 0000006c 060c8f80             MPYU    .M1     A4,A3,A12         ; |63| 
     927 00000070 00000000             NOP             1
     928                            .dwpsn  file "./../packages/ti/vlib/src/VLIB_normalFlow_16/VLIB_normalFlow_16_d.c",line 67,col
     929 00000074 02302059             ADD     .L1     1,A12,A4          ; |67| 
     930                    $C$RL2:    ; CALL OCCURS {VLIB_malloc} {0}   ; |67| 
     931                    $C$DW$L$VLIB_normalFlow_16_d$4$E:
     932                    ;** --------------------------------------------------------------------------*
     933                    $C$DW$L$VLIB_normalFlow_16_d$5$B:
     934                    ;          EXCLUSIVE CPU CYCLES: 54
     935                    $C$DW$170       .dwtag  DW_TAG_TI_branch
TMS320C6x Assembler PC v7.4.2 Thu Mar 19 12:43:41 2015

Tools Copyright (c) 1996-2012 Texas Instruments Incorporated
package/lib/Regression/regress_d_c/./../packages/ti/vlib/src/VLIB_normalFlow_16/VLIB_normalFlow_16_d.se66 PAGE   18

     936                            .dwattr $C$DW$170, DW_AT_low_pc(0x00)
     937                            .dwattr $C$DW$170, DW_AT_name("VLIB_malloc")
     938                            .dwattr $C$DW$170, DW_AT_TI_call
     939                    
     940 00000080 10000013!            CALLP   .S2     VLIB_malloc,B3
     941 00000084 023d42f5  ||         STW     .D2T1   A4,*+SP(40)       ; |67| 
     942 00000088 02302058  ||         ADD     .L1     1,A12,A4          ; |63| 
     943                    
     944                            .dwpsn  file "./../packages/ti/vlib/src/VLIB_normalFlow_16/VLIB_normalFlow_16_d.c",line 68,col
     945                    ;----------------------------------------------------------------------
     946                    ;  68 | uint8_t   *pInold         =  (uint8_t *) VLIB_malloc(inp_size);        
     947                    ;----------------------------------------------------------------------
     948                    $C$RL3:    ; CALL OCCURS {VLIB_malloc} {0}   ; |68| 
     949                    $C$DW$171       .dwtag  DW_TAG_TI_branch
     950                            .dwattr $C$DW$171, DW_AT_low_pc(0x00)
     951                            .dwattr $C$DW$171, DW_AT_name("VLIB_malloc")
     952                            .dwattr $C$DW$171, DW_AT_TI_call
     953                    
     954 0000008c 10000013!            CALLP   .S2     VLIB_malloc,B3
     955 00000090 05318079  ||         ADD     .L1     A12,A12,A10       ; |69| 
     956 00000094 023d62f5  ||         STW     .D2T1   A4,*+SP(44)       ; |68| 
     957 00000098 023181e1  ||         ADD     .S1     A12,A12,A4        ; |69| 
     958                    
     959                            .dwpsn  file "./../packages/ti/vlib/src/VLIB_normalFlow_16/VLIB_normalFlow_16_d.c",line 69,col
     960                    ;----------------------------------------------------------------------
     961                    ;  69 | int16_t   *imDiff         =  (int16_t *) VLIB_malloc(out_size * sizeof(
     962                    ;     | int16_t));                                                             
     963                    ;----------------------------------------------------------------------
     964                    $C$RL4:    ; CALL OCCURS {VLIB_malloc} {0}   ; |69| 
     965                    $C$DW$172       .dwtag  DW_TAG_TI_branch
     966                            .dwattr $C$DW$172, DW_AT_low_pc(0x00)
     967                            .dwattr $C$DW$172, DW_AT_name("VLIB_malloc")
     968                            .dwattr $C$DW$172, DW_AT_TI_call
     969                    
     970 000000a0 10000013!            CALLP   .S2     VLIB_malloc,B3
     971 000000a4 023d82f5  ||         STW     .D2T1   A4,*+SP(48)       ; |69| 
     972 000000a8 02280fd8  ||         MV      .L1     A10,A4            ; |70| 
     973                    
     974                            .dwpsn  file "./../packages/ti/vlib/src/VLIB_normalFlow_16/VLIB_normalFlow_16_d.c",line 70,col
     975                    ;----------------------------------------------------------------------
     976                    ;  70 | int16_t   *Emag           =  (int16_t *) VLIB_malloc(out_size * sizeof(
     977                    ;     | int16_t));                                                             
     978                    ;----------------------------------------------------------------------
     979                    $C$RL5:    ; CALL OCCURS {VLIB_malloc} {0}   ; |70| 
     980                    $C$DW$173       .dwtag  DW_TAG_TI_branch
     981                            .dwattr $C$DW$173, DW_AT_low_pc(0x00)
     982                            .dwattr $C$DW$173, DW_AT_name("VLIB_malloc")
     983                            .dwattr $C$DW$173, DW_AT_TI_call
     984                    
     985 000000ac 10000013!            CALLP   .S2     VLIB_malloc,B3
     986 000000b0 023da2f5  ||         STW     .D2T1   A4,*+SP(52)       ; |70| 
     987 000000b4 02280fd9  ||         MV      .L1     A10,A4            ; |71| 
     988                    
     989                            .dwpsn  file "./../packages/ti/vlib/src/VLIB_normalFlow_16/VLIB_normalFlow_16_d.c",line 71,col
     990                    ;----------------------------------------------------------------------
TMS320C6x Assembler PC v7.4.2 Thu Mar 19 12:43:41 2015

Tools Copyright (c) 1996-2012 Texas Instruments Incorporated
package/lib/Regression/regress_d_c/./../packages/ti/vlib/src/VLIB_normalFlow_16/VLIB_normalFlow_16_d.se66 PAGE   19

     991                    ;  71 | int16_t   *Ex             =  (int16_t *) VLIB_malloc(out_size * sizeof(
     992                    ;     | int16_t));                                                             
     993                    ;----------------------------------------------------------------------
     994                    $C$RL6:    ; CALL OCCURS {VLIB_malloc} {0}   ; |71| 
     995                    $C$DW$174       .dwtag  DW_TAG_TI_branch
     996                            .dwattr $C$DW$174, DW_AT_low_pc(0x00)
     997                            .dwattr $C$DW$174, DW_AT_name("VLIB_malloc")
     998                            .dwattr $C$DW$174, DW_AT_TI_call
     999                    
    1000 000000c0 10000013!            CALLP   .S2     VLIB_malloc,B3
    1001 000000c4 023dc2f5  ||         STW     .D2T1   A4,*+SP(56)       ; |71| 
    1002 000000c8 02280fd8  ||         MV      .L1     A10,A4            ; |72| 
    1003                    
    1004                            .dwpsn  file "./../packages/ti/vlib/src/VLIB_normalFlow_16/VLIB_normalFlow_16_d.c",line 72,col
    1005                    ;----------------------------------------------------------------------
    1006                    ;  72 | int16_t   *Ey             =  (int16_t *) VLIB_malloc(out_size * sizeof(
    1007                    ;     | int16_t));                                                             
    1008                    ;  73 | int16_t   *LUT;                                                        
    1009                    ;----------------------------------------------------------------------
    1010                    $C$RL7:    ; CALL OCCURS {VLIB_malloc} {0}   ; |72| 
    1011                    $C$DW$175       .dwtag  DW_TAG_TI_branch
    1012                            .dwattr $C$DW$175, DW_AT_low_pc(0x00)
    1013                            .dwattr $C$DW$175, DW_AT_name("VLIB_malloc")
    1014                            .dwattr $C$DW$175, DW_AT_TI_call
    1015                    
    1016 000000cc 10000013!            CALLP   .S2     VLIB_malloc,B3
    1017 000000d0 023de2f5  ||         STW     .D2T1   A4,*+SP(60)       ; |72| 
    1018 000000d4 02280fd9  ||         MV      .L1     A10,A4            ; |74| 
    1019                    
    1020                            .dwpsn  file "./../packages/ti/vlib/src/VLIB_normalFlow_16/VLIB_normalFlow_16_d.c",line 74,col
    1021                    ;----------------------------------------------------------------------
    1022                    ;  74 | int16_t   *normalFlowU    =  (int16_t *) VLIB_malloc(out_size * sizeof(
    1023                    ;     | int16_t));                                                             
    1024                    ;----------------------------------------------------------------------
    1025                    $C$RL8:    ; CALL OCCURS {VLIB_malloc} {0}   ; |74| 
    1026                    $C$DW$176       .dwtag  DW_TAG_TI_branch
    1027                            .dwattr $C$DW$176, DW_AT_low_pc(0x00)
    1028                            .dwattr $C$DW$176, DW_AT_name("VLIB_malloc")
    1029                            .dwattr $C$DW$176, DW_AT_TI_call
    1030                    
    1031 000000e0 10000013!            CALLP   .S2     VLIB_malloc,B3
    1032 000000e4 023e22f5  ||         STW     .D2T1   A4,*+SP(68)       ; |74| 
    1033 000000e8 02280fd8  ||         MV      .L1     A10,A4            ; |75| 
    1034                    
    1035                            .dwpsn  file "./../packages/ti/vlib/src/VLIB_normalFlow_16/VLIB_normalFlow_16_d.c",line 75,col
    1036                    ;----------------------------------------------------------------------
    1037                    ;  75 | int16_t   *normalFlowV    =  (int16_t *) VLIB_malloc(out_size * sizeof(
    1038                    ;     | int16_t));                                                             
    1039                    ;----------------------------------------------------------------------
    1040                    $C$RL9:    ; CALL OCCURS {VLIB_malloc} {0}   ; |75| 
    1041                    $C$DW$177       .dwtag  DW_TAG_TI_branch
    1042                            .dwattr $C$DW$177, DW_AT_low_pc(0x00)
    1043                            .dwattr $C$DW$177, DW_AT_name("malloc")
    1044                            .dwattr $C$DW$177, DW_AT_TI_call
    1045                    
TMS320C6x Assembler PC v7.4.2 Thu Mar 19 12:43:41 2015

Tools Copyright (c) 1996-2012 Texas Instruments Incorporated
package/lib/Regression/regress_d_c/./../packages/ti/vlib/src/VLIB_normalFlow_16/VLIB_normalFlow_16_d.se66 PAGE   20

    1046 000000ec 10000013!            CALLP   .S2     malloc,B3
    1047 000000f0 023e42f5  ||         STW     .D2T1   A4,*+SP(72)       ; |75| 
    1048 000000f4 02280fd9  ||         MV      .L1     A10,A4            ; |76| 
    1049                    
    1050                            .dwpsn  file "./../packages/ti/vlib/src/VLIB_normalFlow_16/VLIB_normalFlow_16_d.c",line 76,col
    1051                    ;----------------------------------------------------------------------
    1052                    ;  76 | int16_t   *normalFlowU_cn =  (int16_t *) malloc(out_size * sizeof(int16
    1053                    ;     | _t));                                                                  
    1054                    ;----------------------------------------------------------------------
    1055                    $C$RL10:   ; CALL OCCURS {malloc} {0}        ; |76| 
    1056                    $C$DW$178       .dwtag  DW_TAG_TI_branch
    1057                            .dwattr $C$DW$178, DW_AT_low_pc(0x00)
    1058                            .dwattr $C$DW$178, DW_AT_name("malloc")
    1059                            .dwattr $C$DW$178, DW_AT_TI_call
    1060                    
    1061 00000100 10000013!            CALLP   .S2     malloc,B3
    1062 00000104     ee45  ||         STW     .D2T1   A4,*+SP(76)       ; |76| 
    1063 00000106     8506  ||         MV      .L1     A10,A4            ; |77| 
    1064                    
    1065                            .dwpsn  file "./../packages/ti/vlib/src/VLIB_normalFlow_16/VLIB_normalFlow_16_d.c",line 77,col
    1066                    ;----------------------------------------------------------------------
    1067                    ;  77 | int16_t   *normalFlowV_cn =  (int16_t *) malloc(out_size * sizeof(int16
    1068                    ;     | _t));                                                                  
    1069                    ;----------------------------------------------------------------------
    1070 00000108           $C$RL11:   ; CALL OCCURS {malloc} {0}        ; |77| 
    1071 00000108           $C$DW$L$VLIB_normalFlow_16_d$5$E:
    1072                    ;** --------------------------------------------------------------------------*
    1073 00000108           $C$DW$L$VLIB_normalFlow_16_d$6$B:
    1074                    ;          EXCLUSIVE CPU CYCLES: 25
    1075                    
    1076 00000108     cd0d             LDW     .D2T1   *+SP(40),A0       ; |80| 
    1077 0000010a     06a7  ||         ZERO    .L2     B5                ; |80| 
    1078 0000010c     05a6  ||         ZERO    .L1     A3                ; |80| 
    1079 0000010e     0213  ||         ZERO    .S2     B4                ; |80| 
    1080                    
    1081                            .dwpsn  file "./../packages/ti/vlib/src/VLIB_normalFlow_16/VLIB_normalFlow_16_d.c",line 80,col
    1082                    ;----------------------------------------------------------------------
    1083                    ;  80 | if( pIn && pInold && imDiff && Emag && Ex && Ey && normalFlowU && norma
    1084                    ;     | lFlowV && normalFlowU_cn && normalFlowV_cn ) {                         
    1085                    ;  82 |     int32_t    fail, i, maxMag=0;                                      
    1086                    ;  85 |     if( prm[tpi].testPattern == STATIC ) {                             
    1087                    ;  86 |         VLIB_fillBuffer(prm[tpi].testPattern,                          
    1088                    ;  87 |                         (int16_t)255,                                  
    1089                    ;  88 |                         imDiff, prm[tpi].staticImDiff,                 
    1090                    ;  89 |                         prm[tpi].width, prm[tpi].height, prm[tpi].width
    1091                    ;     |  * sizeof(imDiff[0]),                                                  
    1092                    ;  90 |                         sizeof(imDiff[0]), testPatternString);         
    1093                    ;  92 |         VLIB_fillBuffer(prm[tpi].testPattern,                          
    1094                    ;  93 |                         (int16_t)255,                                  
    1095                    ;  94 |                         Emag, prm[tpi].staticEmag,                     
    1096                    ;  95 |                         prm[tpi].width, prm[tpi].height, prm[tpi].width
    1097                    ;     |  * sizeof(Emag[0]),                                                    
    1098                    ;  96 |                         sizeof(Emag[0]), testPatternString);           
    1099                    ;  98 |         VLIB_fillBuffer(prm[tpi].testPattern,                          
    1100                    ;  99 |                         (int16_t)255,                                  
TMS320C6x Assembler PC v7.4.2 Thu Mar 19 12:43:41 2015

Tools Copyright (c) 1996-2012 Texas Instruments Incorporated
package/lib/Regression/regress_d_c/./../packages/ti/vlib/src/VLIB_normalFlow_16/VLIB_normalFlow_16_d.se66 PAGE   21

    1101                    ; 100 |                         Ex, prm[tpi].staticEx,                         
    1102                    ; 101 |                         prm[tpi].width, prm[tpi].height, prm[tpi].width
    1103                    ;     |  * sizeof(Ex[0]),                                                      
    1104                    ; 102 |                         sizeof(Ex[0]), testPatternString);             
    1105                    ; 104 |         VLIB_fillBuffer(prm[tpi].testPattern,                          
    1106                    ; 105 |                         (int16_t)255,                                  
    1107                    ; 106 |                         Ey, prm[tpi].staticEy,                         
    1108                    ; 107 |                         prm[tpi].width, prm[tpi].height, prm[tpi].width
    1109                    ;     |  * sizeof(Ey[0]),                                                      
    1110                    ; 108 |                         sizeof(Ey[0]), testPatternString);             
    1111                    ; 110 |     } else {                                                           
    1112                    ; 114 |         VLIB_fillBuffer(RANDOM,                                        
    1113                    ; 115 |                         (uint8_t)255,                                  
    1114                    ; 116 |                         pInold, NULL,                                  
    1115                    ; 117 |                         prm[tpi].width, prm[tpi].height, prm[tpi].width
    1116                    ;     |  * sizeof(pInold[0]),                                                  
    1117                    ; 118 |                         sizeof(pInold[0]), testPatternString);         
    1118                    ; 120 |         VLIB_fillBuffer(prm[tpi].testPattern,                          
    1119                    ; 121 |                         (uint8_t)255,                                  
    1120                    ; 122 |                         pIn, NULL,                                     
    1121                    ; 123 |                         prm[tpi].width, prm[tpi].height, prm[tpi].width
    1122                    ;     |  * sizeof(pIn[0]),                                                     
    1123                    ; 124 |                         sizeof(pIn[0]), testPatternString);            
    1124                    ; 126 |         for( i=0; i < out_size; i++ ) {                                
    1125                    ; 127 |             imDiff[i] = pIn[i] - pInold[i];                            
    1126                    ; 132 |         memset(Ex, 0, (prm[tpi].width + 1) * sizeof(Ex[0]));           
    1127                    ; 133 |         memset(&Ex[prm[tpi].width * (prm[tpi].height - 1) - 1], 0, (prm
    1128                    ;     | [tpi].width + 1) * sizeof(Ex[0]));                                     
    1129                    ; 134 |         memset(Ey, 0, (prm[tpi].width + 1) * sizeof(Ey[0]));           
    1130                    ; 135 |         memset(&Ey[prm[tpi].width * (prm[tpi].height - 1) - 1], 0, (prm
    1131                    ;     | [tpi].width + 1) * sizeof(Ey[0]));                                     
    1132                    ; 136 |         memset(Emag, 0, (prm[tpi].width + 1) * sizeof(Emag[0]));       
    1133                    ; 137 |         memset(&Emag[prm[tpi].width * (prm[tpi].height - 1) - 1], 0, (p
    1134                    ;     | rm[tpi].width + 1) * sizeof(Emag[0]));                                 
    1135                    ; 140 |         VLIB_xyGradientsAndMagnitude_cn(pIn, &Ex[prm[tpi].width + 1], &
    1136                    ;     | Ey[prm[tpi].width + 1], &Emag[prm[tpi].width + 1],                     
    1137                    ; 141 |                                         prm[tpi].width, prm[tpi].height
    1138                    ;     | );                                                                     
    1139                    ; 148 |     for( i=0; i < out_size; i++ ) {                                    
    1140                    ; 149 |         if( maxMag < Emag[i] ) {                                       
    1141                    ; 150 |             maxMag = Emag[i];                                          
    1142                    ; 154 |     LUT = (int16_t *) VLIB_malloc((maxMag + 1) * sizeof(int16_t));     
    1143                    ; 157 |     if( LUT ) {                                                        
    1144                    ; 159 |         int32_t    statusU, statusV;                                   
    1145                    ; 161 |         if( prm[tpi].testPattern == STATIC ) {                         
    1146                    ; 162 |             VLIB_fillBuffer(prm[tpi].testPattern,                      
    1147                    ; 163 |                             (int16_t)255,                              
    1148                    ; 164 |                             LUT, prm[tpi].staticLUT,                   
    1149                    ; 165 |                             (maxMag + 1), 1, (maxMag + 1) * sizeof(LUT[
    1150                    ;     | 0]),                                                                   
    1151                    ; 166 |                             sizeof(LUT[0]), testPatternString);        
    1152                    ; 167 |         } else {                                                       
    1153                    ; 169 |             LUT[0] = 0;                                                
    1154                    ; 171 |             for( i=1; i < (maxMag + 1); i++ ) {                        
    1155                    ; 172 |                 LUT[i] = (int16_t)((float)32767 / i + 0.5f);           
TMS320C6x Assembler PC v7.4.2 Thu Mar 19 12:43:41 2015

Tools Copyright (c) 1996-2012 Texas Instruments Incorporated
package/lib/Regression/regress_d_c/./../packages/ti/vlib/src/VLIB_normalFlow_16/VLIB_normalFlow_16_d.se66 PAGE   22

    1156                    ; 177 |         VLIB_profile_start(vlib_KERNEL_OPT);                           
    1157                    ; 178 |         VLIB_normalFlow_16(imDiff, Emag, Ex, Ey, LUT, prm[tpi].T,      
    1158                    ; 179 |                            prm[tpi].width * prm[tpi].height,           
    1159                    ; 180 |                            normalFlowU, normalFlowV);                  
    1160                    ; 181 |         VLIB_profile_stop();                                           
    1161                    ; 185 |         VLIB_profile_start(vlib_KERNEL_CN);                            
    1162                    ; 186 |         VLIB_normalFlow_16_cn(imDiff, Emag, Ex, Ey, LUT, prm[tpi].T,   
    1163                    ; 187 |                               prm[tpi].width * prm[tpi].height,        
    1164                    ; 188 |                               normalFlowU_cn, normalFlowV_cn);         
    1165                    ; 189 |         VLIB_profile_stop();                                           
    1166                    ; 192 |         statusU = VLIB_compare_mem((void *) normalFlowU, (void *)normal
    1167                    ;     | FlowU_cn, prm[tpi].width * prm[tpi].height * sizeof(normalFlowU_cn[0]))
    1168                    ;     | ;                                                                      
    1169                    ; 193 |         statusV = VLIB_compare_mem((void *) normalFlowV, (void *)normal
    1170                    ;     | FlowV_cn, prm[tpi].width * prm[tpi].height * sizeof(normalFlowV_cn[0]))
    1171                    ;     | ;                                                                      
    1172                    ; 194 |         if( statusU == vlib_KERNEL_FAIL || statusV == vlib_KERNEL_FAIL
    1173                    ;     | ) {                                                                    
    1174                    ; 195 |             status_nat_vs_int = vlib_KERNEL_FAIL;                      
    1175                    ; 199 |         statusU = statusV = vlib_KERNEL_PASS;                          
    1176                    ; 200 |         if( prm[tpi].staticOutU != NULL ) {                            
    1177                    ; 201 |             statusU = VLIB_compare_mem((void *) prm[tpi].staticOutU, (v
    1178                    ;     | oid *)normalFlowU_cn, prm[tpi].width * prm[tpi].height * sizeof(normalF
    1179                    ;     | lowU_cn[0]));                                                          
    1180                    ; 203 |         if( prm[tpi].staticOutU != NULL ) {                            
    1181                    ; 204 |             statusV = VLIB_compare_mem((void *) prm[tpi].staticOutV, (v
    1182                    ;     | oid *)normalFlowV_cn, prm[tpi].width * prm[tpi].height * sizeof(normalF
    1183                    ;     | lowV_cn[0]));                                                          
    1184                    ; 206 |         if( statusU == vlib_KERNEL_FAIL || statusV == vlib_KERNEL_FAIL
    1185                    ;     | ) {                                                                    
    1186                    ; 207 |             status_nat_vs_ref = vlib_KERNEL_FAIL;                      
    1187                    ; 211 |         fail = ((status_nat_vs_int == vlib_KERNEL_FAIL) || (status_nat_
    1188                    ;     | vs_ref == vlib_KERNEL_FAIL)) ? 1 : 0;                                  
    1189                    ; 213 |         est_test=1;                                                    
    1190                    ; 216 |         sprintf(desc, "%s generated input | Opt results compared to Nat
    1191                    ;     | C results | width=%d, height=%d, numEls=%d",                           
    1192                    ; 217 |                 testPatternString, prm[tpi].width, prm[tpi].height, out
    1193                    ;     | _size);                                                                
    1194                    ; 218 |         VLIB_formula_add_test(out_size, NULL, NULL, fail, desc, NULL); 
    1195                    ; 219 |     } else {                                                           
    1196                    ; 221 |         sprintf(desc, "width=%d, height=%d, numEls=%d",                
    1197                    ; 222 |                 prm[tpi].width, prm[tpi].height, out_size);            
    1198                    ; 223 |         VLIB_skip_test(desc);                                          
    1199                    ; 225 | } else {                                                               
    1200                    ;----------------------------------------------------------------------
    1201 00000110     fd0d             LDW     .D2T2   *+SP(44),B0       ; |80| 
    1202 00000112     8d9d             LDW     .D2T1   *+SP(48),A1       ; |80| 
    1203 00000114     adad             LDW     .D2T1   *+SP(52),A2       ; |80| 
    1204 00000116     ddad             LDW     .D2T2   *+SP(56),B2       ; |80| 
    1205                    
    1206 00000118     2ae7     [ A0]   MVK     .L2     0x1,B5            ; |80| 
    1207 0000011a     ed8d  ||         LDW     .D2T1   *+SP(60),A0       ; |80| 
    1208                    
    1209 00000120     aa67     [ B0]   MVK     .L2     0x1,B4            ; |80| 
    1210 00000122     be1d  ||         LDW     .D2T2   *+SP(68),B1       ; |80| 
TMS320C6x Assembler PC v7.4.2 Thu Mar 19 12:43:41 2015

Tools Copyright (c) 1996-2012 Texas Instruments Incorporated
package/lib/Regression/regress_d_c/./../packages/ti/vlib/src/VLIB_normalFlow_16/VLIB_normalFlow_16_d.se66 PAGE   23

    1211                    
    1212 00000124 8184a359     [ A1]   MVK     .L1     0x1,A3            ; |80| 
    1213 00000128 02948f7b  ||         AND     .L2     B4,B5,B5          ; |80| 
    1214 0000012c     0213  ||         ZERO    .S2     B4                ; |80| 
    1215 0000012e     8ec5  ||         STW     .D2T1   A4,*+SP(80)       ; |77| 
    1216 00000130     0212  ||         ZERO    .S1     A4                ; |80| 
    1217                    
    1218 00000134 a204a35a     [ A2]   MVK     .L2     0x1,B4            ; |80| 
    1219 00000132     ce2d  ||         LDW     .D2T1   *+SP(72),A2       ; |80| 
    1220                    
    1221 00000138 028cbf7b             AND     .L2X    A3,B5,B5          ; |80| 
    1222 00000140 6204a359  || [ B2]   MVK     .L1     0x1,A4            ; |80| 
    1223 00000144     9ead  ||         LDW     .D2T2   *+SP(80),B2       ; |80| 
    1224 00000146     0192  ||         ZERO    .S1     A3                ; |80| 
    1225                    
    1226 00000148 02948f7b             AND     .L2     B4,B5,B5          ; |80| 
    1227 00000150     0213  ||         ZERO    .S2     B4                ; |80| 
    1228 0000014c 063d22f5  ||         STW     .D2T1   A12,*+SP(36)      ; |64| 
    1229                    
    1230 00000152     2a67     [ A0]   MVK     .L2     0x1,B4            ; |80| 
    1231 00000154     ee0d  ||         LDW     .D2T1   *+SP(76),A0       ; |80| 
    1232 00000158 0290b7e3  ||         AND     .S2X    A4,B5,B5          ; |80| 
    1233 00000156     0626  ||         ZERO    .L1     A4                ; |80| 
    1234 00000160 418000a8  || [ B1]   MVK     .S1     0x1,A3            ; |80| 
    1235                    
    1236 00000164 02148f7a             AND     .L2     B4,B5,B4          ; |80| 
    1237                    
    1238 00000168 a204a359     [ A2]   MVK     .L1     0x1,A4            ; |80| 
    1239 0000016c 028c9f7b  ||         AND     .L2X    A3,B4,B5          ; |80| 
    1240 00000170     0192  ||         ZERO    .S1     A3                ; |80| 
    1241 00000172     0213  ||         ZERO    .S2     B4                ; |80| 
    1242                    
    1243 00000174 6184a358     [ B2]   MVK     .L1     0x1,A3            ; |80| 
    1244 00000178 0290bf7a             AND     .L2X    A4,B5,B5          ; |80| 
    1245 00000180 c204a35a     [ A0]   MVK     .L2     0x1,B4            ; |80| 
    1246 00000184 02148f7a             AND     .L2     B4,B5,B4          ; |80| 
    1247 00000188 000c9f7a             AND     .L2X    A3,B4,B0          ; |80| 
    1248                    
    1249 0000018c 31dd6121     [!B0]   BNOP    .S1     $C$L24,3          ; |80| 
    1250 00000190 21ac0215  || [ B0]   LDBU    .D1T1   *A11,A3           ; |85| 
    1251 00000194 3200002a! || [!B0]   MVKL    .S2     $C$SL3+0,B4
    1252                    
    1253                            .dwpsn  file "./../packages/ti/vlib/src/VLIB_normalFlow_16/VLIB_normalFlow_16_d.c",line 227,co
    1254                    ;----------------------------------------------------------------------
    1255                    ; 227 | sprintf(desc, "width=%d, height=%d, numEls=%d",                        
    1256                    ; 228 |         prm[tpi].width, prm[tpi].height, out_size);                    
    1257                    ; 229 | VLIB_skip_test(desc);                                                  
    1258                    ;----------------------------------------------------------------------
    1259 00000198 322e2204     [!B0]   LDHU    .D1T1   *+A11(34),A4      ; |227| 
    1260                    $C$DW$179       .dwtag  DW_TAG_TI_branch
    1261                            .dwattr $C$DW$179, DW_AT_low_pc(0x00)
    1262                            .dwattr $C$DW$179, DW_AT_name("sprintf")
    1263                            .dwattr $C$DW$179, DW_AT_TI_call
    1264                    
    1265 0000019c 30000011!    [!B0]   CALL    .S1     sprintf           ; |227| 
TMS320C6x Assembler PC v7.4.2 Thu Mar 19 12:43:41 2015

Tools Copyright (c) 1996-2012 Texas Instruments Incorporated
package/lib/Regression/regress_d_c/./../packages/ti/vlib/src/VLIB_normalFlow_16/VLIB_normalFlow_16_d.se66 PAGE   24

    1266 000001a4     81a6  ||         CMPEQ   .L1     A3,4,A0           ; |85| 
    1267 000001a0 31ae4205  || [!B0]   LDHU    .D1T1   *+A11(36),A3      ; |227| 
    1268                    
    1269                            .dwpsn  file "./../packages/ti/vlib/src/VLIB_normalFlow_16/VLIB_normalFlow_16_d.c",line 80,col
    1270                               ; BRANCHCC OCCURS {$C$L24}        ; |80| 
    1271 000001a6           $C$DW$L$VLIB_normalFlow_16_d$6$E:
    1272                    ;** --------------------------------------------------------------------------*
    1273 000001a6           $C$DW$L$VLIB_normalFlow_16_d$7$B:
    1274                    ;          EXCLUSIVE CPU CYCLES: 6
    1275                    ;** 85  -----------------------    v$1 = prm;
    1276                    ;**     -----------------------    K$64 = 255;
    1277                    ;**     -----------------------    K$63 = &testPatternString[0];
    1278                    ;** 56  -----------------------    status_nat_vs_int = 1;
    1279                    ;** 57  -----------------------    status_nat_vs_ref = 1;
    1280                    ;** 82  -----------------------    maxMag = 0;
    1281                    ;** 85  -----------------------    if ( (*U$12).testPattern == 4 ) goto g12;
    1282                    
    1283 000001a6     fccd             LDW     .D2T2   *+SP(28),B4       ; |85| 
    1284 000001a8 c0004593  || [ A0]   B       .S2     $C$L11            ; |85| 
    1285 000001ac d42e2205  || [!A0]   LDHU    .D1T1   *+A11(34),A8      ; |114| 
    1286 000001b0 0604a35b  ||         MVK     .L2     0x1,B12           ; |57| 
    1287 000001b4 d1807fa9  || [!A0]   MVK     .S1     0xff,A3
    1288 000001b8 0780a358  ||         ZERO    .L1     A15               ; |82| 
    1289                    
    1290 000001c0 d42e4207     [!A0]   LDHU    .D1T2   *+A11(36),B8      ; |114| 
    1291 000001c4 d28f1809  || [!A0]   EXTU    .S1     A3,24,24,A5       ; |114| 
    1292 000001c8 06b00fda  ||         MV      .L2     B12,B13           ; |57| 
    1293                    
    1294                            .dwpsn  file "./../packages/ti/vlib/src/VLIB_normalFlow_16/VLIB_normalFlow_16_d.c",line 114,co
    1295                    $C$DW$180       .dwtag  DW_TAG_TI_branch
    1296                            .dwattr $C$DW$180, DW_AT_low_pc(0x00)
    1297                            .dwattr $C$DW$180, DW_AT_name("VLIB_fillBuffer")
    1298                            .dwattr $C$DW$180, DW_AT_TI_call
    1299 000001cc d0000010!    [!A0]   CALL    .S1     VLIB_fillBuffer   ; |114| 
    1300 000001d0 d33d62e4     [!A0]   LDW     .D2T1   *+SP(44),A6       ; |114| 
    1301 000001d4 d6000028!    [!A0]   MVKL    .S1     testPatternString,A12
    1302                            .dwpsn  file "./../packages/ti/vlib/src/VLIB_normalFlow_16/VLIB_normalFlow_16_d.c",line 86,col
    1303 000001d8 c22c807a     [ A0]   ADD     .L2     B4,B11,B4         ; |86| 
    1304                            .dwpsn  file "./../packages/ti/vlib/src/VLIB_normalFlow_16/VLIB_normalFlow_16_d.c",line 85,col
    1305                               ; BRANCHCC OCCURS {$C$L11}        ; |85| 
    1306 000001dc           $C$DW$L$VLIB_normalFlow_16_d$7$E:
    1307                    ;** --------------------------------------------------------------------------*
    1308 000001dc           $C$DW$L$VLIB_normalFlow_16_d$8$B:
    1309                    ;          EXCLUSIVE CPU CYCLES: 2
    1310                    ;** 114 -----------------------    C$23 = (*U$12).width;
    1311                    ;** 114 -----------------------    VLIB_fillBuffer(3u, (unsigned char)K$64, (void *)pInold, NULL, C$23
    1312                    ;** 120 -----------------------    C$22 = (*U$12).width;
    1313                    ;** 120 -----------------------    VLIB_fillBuffer((*U$12).testPattern, (unsigned char)K$64, (void *)p
    1314                    ;** 126 -----------------------    if ( !out_size ) goto g11;
    1315                            .dwpsn  file "./../packages/ti/vlib/src/VLIB_normalFlow_16/VLIB_normalFlow_16_d.c",line 114,co
    1316 000001dc 02141fda             MV      .L2X    A5,B4             ; |114| 
    1317                    
    1318 000001e0     6626             MVK     .L1     0x3,A4            ; |114| 
    1319 000001e2     d787  ||         MV      .L2X    A15,B6            ; |114| 
    1320 000001e4 053408f3  ||         MV      .D2     B13,B10           ; |114| 
TMS320C6x Assembler PC v7.4.2 Thu Mar 19 12:43:41 2015

Tools Copyright (c) 1996-2012 Texas Instruments Incorporated
package/lib/Regression/regress_d_c/./../packages/ti/vlib/src/VLIB_normalFlow_16/VLIB_normalFlow_16_d.se66 PAGE   25

    1321 000001e8 01850163  ||         ADDKPC  .S2     $C$RL12,B3,0      ; |114| 
    1322 000001ec 06000069! ||         MVKH    .S1     testPatternString,A12
    1323 000001f0 052008f0  ||         MV      .D1     A8,A10            ; |114| 
    1324                    
    1325 000001f4           $C$RL12:   ; CALL OCCURS {VLIB_fillBuffer} {0}  ; |114| 
    1326 000001f4           $C$DW$L$VLIB_normalFlow_16_d$8$E:
    1327                    ;** --------------------------------------------------------------------------*
    1328 000001f4           $C$DW$L$VLIB_normalFlow_16_d$9$B:
    1329                    ;          EXCLUSIVE CPU CYCLES: 11
    1330                            .dwpsn  file "./../packages/ti/vlib/src/VLIB_normalFlow_16/VLIB_normalFlow_16_d.c",line 120,co
    1331 000001f4 042e2204             LDHU    .D1T1   *+A11(34),A8      ; |120| 
    1332 000001f8     fe72             MVK     .S1     0xff,A4
    1333 000001fa     ba62             EXTU    .S1     A4,24,24,A5       ; |120| 
    1334 00000200     cd6d             LDW     .D2T1   *+SP(40),A6       ; |120| 
    1335                    
    1336 00000204 042e4206             LDHU    .D1T2   *+A11(36),B8      ; |120| 
    1337 00000202     d787  ||         MV      .L2X    A15,B6            ; |120| 
    1338                    
    1339                    $C$DW$181       .dwtag  DW_TAG_TI_branch
    1340                            .dwattr $C$DW$181, DW_AT_low_pc(0x00)
    1341                            .dwattr $C$DW$181, DW_AT_name("VLIB_fillBuffer")
    1342                            .dwattr $C$DW$181, DW_AT_TI_call
    1343                    
    1344 00000208 10000013!            CALLP   .S2     VLIB_fillBuffer,B3
    1345 0000020c 022c0215  ||         LDBU    .D1T1   *A11,A4           ; |120| 
    1346 00000210 05200fd9  ||         MV      .L1     A8,A10            ; |120| 
    1347 00000214     92c7  ||         MV      .L2X    A5,B4             ; |120| 
    1348                    
    1349 00000216           $C$RL13:   ; CALL OCCURS {VLIB_fillBuffer} {0}  ; |120| 
    1350 00000216           $C$DW$L$VLIB_normalFlow_16_d$9$E:
    1351                    ;** --------------------------------------------------------------------------*
    1352 00000216           $C$DW$L$VLIB_normalFlow_16_d$10$B:
    1353                    ;          EXCLUSIVE CPU CYCLES: 11
    1354 00000216     ad0d             LDW     .D2T1   *+SP(36),A0       ; |120| 
    1355 00000218     ed4d             LDW     .D2T1   *+SP(44),A4
    1356 0000021a     8dbd             LDW     .D2T1   *+SP(48),A3
    1357                            .dwpsn  file "./../packages/ti/vlib/src/VLIB_normalFlow_16/VLIB_normalFlow_16_d.c",line 127,co
    1358 00000220 0fbd42e4             LDW     .D2T1   *+SP(40),A31      ; |127| 
    1359 00000224     0c6e             NOP             1
    1360                    
    1361 00000228 d0502121     [!A0]   BNOP    .S1     $C$L10,1          ; |126| 
    1362 00000226     4046  ||         MV      .L1     A0,A2             ; guard predicate rewrite
    1363 0000022c     1047  ||         MV      .L2X    A0,B0             ; branch predicate copy
    1364                    
    1365 0000022e     8dc8             CMPLTU  .L1     A4,A3,A0          ; |127| 
    1366 00000230 a23c06a0  || [ A2]   MV      .S1     A15,A4            ; |127| 
    1367                    
    1368 00000234 a08febf9     [ A2]   CMPLTU  .L1     A31,A3,A1         ; |127| 
    1369 00000238 a1bc06a0  || [ A2]   MV      .S1     A15,A3            ; |127| 
    1370                    
    1371 00000240 92301fd8     [!A1]   MV      .L1X    B12,A4            ; |127| 
    1372                    
    1373 00000244 d1b01fd9     [!A0]   MV      .L1X    B12,A3            ; |127| 
    1374 00000248 31ae2204  || [!B0]   LDHU    .D1T1   *+A11(34),A3      ; |132| 
    1375                    
TMS320C6x Assembler PC v7.4.2 Thu Mar 19 12:43:41 2015

Tools Copyright (c) 1996-2012 Texas Instruments Incorporated
package/lib/Regression/regress_d_c/./../packages/ti/vlib/src/VLIB_normalFlow_16/VLIB_normalFlow_16_d.se66 PAGE   26

    1376                            .dwpsn  file "./../packages/ti/vlib/src/VLIB_normalFlow_16/VLIB_normalFlow_16_d.c",line 126,co
    1377                               ; BRANCHCC OCCURS {$C$L10}        ; |126| 
    1378 0000024c           $C$DW$L$VLIB_normalFlow_16_d$10$E:
    1379                    ;** --------------------------------------------------------------------------*
    1380 0000024c           $C$DW$L$VLIB_normalFlow_16_d$11$B:
    1381                    ;          EXCLUSIVE CPU CYCLES: 7
    1382                    ;** 127 -----------------------    if ( !((pIn >= imDiff)|(pInold >= imDiff)) ) goto g9;
    1383                    
    1384 0000024c     bd6d             LDW     .D2T2   *+SP(36),B6
    1385 0000024e     6628  ||         OR      .L1     A3,A4,A0          ; |127| 
    1386                    
    1387 00000250 d02a2121     [!A0]   BNOP    .S1     $C$L5,1           ; |127| 
    1388 00000254 c2bd42e6  || [ A0]   LDW     .D2T2   *+SP(40),B5
    1389                    
    1390 00000258 c2bd62e4     [ A0]   LDW     .D2T1   *+SP(44),A5
    1391 00000260 d2bd62e4     [!A0]   LDW     .D2T1   *+SP(44),A5
    1392                    
    1393 00000268 031be05a             SUB     .L2     B6,1,B6
    1394 00000264 d33d22e7  || [!A0]   LDW     .D2T2   *+SP(36),B6
    1395                    
    1396 0000026c d2bd42e6     [!A0]   LDW     .D2T2   *+SP(40),B5
    1397                            .dwpsn  file "./../packages/ti/vlib/src/VLIB_normalFlow_16/VLIB_normalFlow_16_d.c",line 127,co
    1398                               ; BRANCHCC OCCURS {$C$L5}         ; |127| 
    1399 00000270           $C$DW$L$VLIB_normalFlow_16_d$11$E:
    1400                    ;** --------------------------------------------------------------------------*
    1401 00000270           $C$DW$L$VLIB_normalFlow_16_d$12$B:
    1402                    ;**     -----------------------    U$75 = pIn;
    1403                    ;**     -----------------------    U$77 = pInold;
    1404                    ;**     -----------------------    U$81 = imDiff;
    1405                    ;**     -----------------------    L$1 = out_size;
    1406                    ;**     -----------------------    #pragma MUST_ITERATE(1, 2147483647, 1)
    1407                    ;**     -----------------------    #pragma LOOP_FLAGS(4104u)
    1408                    ;**     -----------------------g8:
    1409                    ;** 127 -----------------------    *U$81++ = *U$75++-*U$77++;
    1410                    ;** 126 -----------------------    if ( L$1 = L$1-1 ) goto g8;
    1411 00000270           $C$DW$L$VLIB_normalFlow_16_d$12$E:
    1412                    ;*----------------------------------------------------------------------------*
    1413                    ;*   SOFTWARE PIPELINE INFORMATION
    1414                    ;*
    1415                    ;*      Loop found in file               : ./../packages/ti/vlib/src/VLIB_normalFlow_16/VLIB_normalFlo
    1416                    ;*      Loop source line                 : 126
    1417                    ;*      Loop opening brace source line   : 126
    1418                    ;*      Loop closing brace source line   : 128
    1419                    ;*      Known Minimum Trip Count         : 1                    
    1420                    ;*      Known Max Trip Count Factor      : 1
    1421                    ;*      Loop Carried Dependency Bound(^) : 7
    1422                    ;*      Unpartitioned Resource Bound     : 2
    1423                    ;*      Partitioned Resource Bound(*)    : 2
    1424                    ;*      Resource Partition:
    1425                    ;*                                A-side   B-side
    1426                    ;*      .L units                     0        0     
    1427                    ;*      .S units                     0        0     
    1428                    ;*      .D units                     2*       1     
    1429                    ;*      .M units                     0        0     
    1430                    ;*      .X cross paths               1        0     
TMS320C6x Assembler PC v7.4.2 Thu Mar 19 12:43:41 2015

Tools Copyright (c) 1996-2012 Texas Instruments Incorporated
package/lib/Regression/regress_d_c/./../packages/ti/vlib/src/VLIB_normalFlow_16/VLIB_normalFlow_16_d.se66 PAGE   27

    1431                    ;*      .T address paths             2*       1     
    1432                    ;*      Long read paths              0        0     
    1433                    ;*      Long write paths             0        0     
    1434                    ;*      Logical  ops (.LS)           1        0     (.L or .S unit)
    1435                    ;*      Addition ops (.LSD)          0        0     (.L or .S or .D unit)
    1436                    ;*      Bound(.L .S .LS)             1        0     
    1437                    ;*      Bound(.L .S .D .LS .LSD)     1        1     
    1438                    ;*
    1439                    ;*      Searching for software pipeline schedule at ...
    1440                    ;*         ii = 7  Schedule found with 2 iterations in parallel
    1441                    ;*
    1442                    ;*      Register Usage Table:
    1443                    ;*          +-----------------------------------------------------------------+
    1444                    ;*          |AAAAAAAAAAAAAAAAAAAAAAAAAAAAAAAA|BBBBBBBBBBBBBBBBBBBBBBBBBBBBBBBB|
    1445                    ;*          |00000000001111111111222222222233|00000000001111111111222222222233|
    1446                    ;*          |01234567890123456789012345678901|01234567890123456789012345678901|
    1447                    ;*          |--------------------------------+--------------------------------|
    1448                    ;*       0: |    **                          |     *                          |
    1449                    ;*       1: |    **                          |     *                          |
    1450                    ;*       2: |    **                          |     *                          |
    1451                    ;*       3: |    **                          |     *                          |
    1452                    ;*       4: |    **                          |     *                          |
    1453                    ;*       5: |   ***                          |    **                          |
    1454                    ;*       6: |   ***                          |     *                          |
    1455                    ;*          +-----------------------------------------------------------------+
    1456                    ;*
    1457                    ;*      Done
    1458                    ;*
    1459                    ;*      Loop will be splooped
    1460                    ;*      Collapsed epilog stages       : 0
    1461                    ;*      Collapsed prolog stages       : 0
    1462                    ;*      Minimum required memory pad   : 0 bytes
    1463                    ;*
    1464                    ;*      Minimum safe trip count       : 1
    1465                    ;*      Min. prof. trip count  (est.) : 8
    1466                    ;*
    1467                    ;*      Mem bank conflicts/iter(est.) : { min 0.000, est 0.125, max 1.000 }
    1468                    ;*      Mem bank perf. penalty (est.) : 1.8%
    1469                    ;*
    1470                    ;*      Effective ii                : { min 7.00, est 7.13, max 8.00 }
    1471                    ;*
    1472                    ;*
    1473                    ;*      Total cycles (est.)         : 7 + trip_cnt * 7        
    1474                    ;*----------------------------------------------------------------------------*
    1475                    ;*        SINGLE SCHEDULED ITERATION
    1476                    ;*
    1477                    ;*        $C$C120:
    1478                    ;*   0              LDBU    .D1T1   *A5++,A3          ; |127|  ^ 
    1479                    ;*     ||           LDBU    .D2T2   *B5++,B4          ; |127|  ^ 
    1480                    ;*   1              NOP             4
    1481                    ;*   5              SUB     .L1X    B4,A3,A3          ; |127|  ^ 
    1482                    ;*   6              STH     .D1T1   A3,*A4++          ; |127|  ^ 
    1483                    ;*     ||           SPBR            $C$C120
    1484                    ;*   7              NOP             7
    1485                    ;*  14              ; BRANCHCC OCCURS {$C$C120}       ; |126| 
TMS320C6x Assembler PC v7.4.2 Thu Mar 19 12:43:41 2015

Tools Copyright (c) 1996-2012 Texas Instruments Incorporated
package/lib/Regression/regress_d_c/./../packages/ti/vlib/src/VLIB_normalFlow_16/VLIB_normalFlow_16_d.se66 PAGE   28

    1486                    ;*----------------------------------------------------------------------------*
    1487 00000270           $C$L2:    ; PIPED LOOP PROLOG
    1488                    ;          EXCLUSIVE CPU CYCLES: 8
    1489                    
    1490 00000270     0f67             SPLOOPD 7       ;14               ; (P) 
    1491 00000272     db6f  ||         MVC     .S2     B6,ILC
    1492                    
    1493                    ;** --------------------------------------------------------------------------*
    1494 00000274           $C$L3:    ; PIPED LOOP KERNEL
    1495 00000274           $C$DW$L$VLIB_normalFlow_16_d$14$B:
    1496                    ;          EXCLUSIVE CPU CYCLES: 7
    1497                    
    1498 00000274     0ebc             LDBU    .D1T1   *A5++,A3          ; |127| (P) <0,0>  ^ 
    1499 00000276     1ecd  ||         LDBU    .D2T2   *B5++,B4          ; |127| (P) <0,0>  ^ 
    1500                    
    1501 00000278     ac66             SPMASK          D2
    1502 0000027a     8dcd  ||         LDW     .D2T1   *+SP(48),A4
    1503                    
    1504 00000280 00004000             NOP             3
    1505 00000284 018c92f8             SUB     .L1X    B4,A3,A3          ; |127| (P) <0,5>  ^ 
    1506 00000288     0e34             STH     .D1T1   A3,*A4++          ; |127| (P) <0,6>  ^ 
    1507 0000028a     1c66             SPKERNEL 0,0
    1508 0000028c           $C$DW$L$VLIB_normalFlow_16_d$14$E:
    1509                    ;** --------------------------------------------------------------------------*
    1510 0000028c           $C$L4:    ; PIPED LOOP EPILOG
    1511                    ;          EXCLUSIVE CPU CYCLES: 6
    1512                    ;** 126 -----------------------    goto g11;
    1513                            .dwpsn  file "./../packages/ti/vlib/src/VLIB_normalFlow_16/VLIB_normalFlow_16_d.c",line 126,co
    1514 0000028c     a70b             BNOP    .S2     $C$L9,5           ; |126| 
    1515                               ; BRANCH OCCURS {$C$L9}           ; |126| 
    1516                    ;** --------------------------------------------------------------------------*
    1517 0000028e           $C$DW$L$VLIB_normalFlow_16_d$16$B:
    1518                    ;          EXCLUSIVE CPU CYCLES: 3
    1519 0000028e     ed5d             LDW     .D2T1   *+SP(44),A5
    1520 00000290     bd6d             LDW     .D2T2   *+SP(36),B6
    1521 00000292     dd5d             LDW     .D2T2   *+SP(40),B5
    1522 00000294           $C$DW$L$VLIB_normalFlow_16_d$16$E:
    1523                    ;** --------------------------------------------------------------------------*
    1524 00000294           $C$L5:    
    1525 00000294           $C$DW$L$VLIB_normalFlow_16_d$17$B:
    1526                    ;          EXCLUSIVE CPU CYCLES: 4
    1527                    ;**     -----------------------g9:
    1528                    ;**     -----------------------    U$75 = pIn;
    1529                    ;**     -----------------------    U$77 = pInold;
    1530                    ;**     -----------------------    U$81 = imDiff;
    1531                    ;**     -----------------------    L$2 = out_size;
    1532                    ;**     -----------------------    #pragma[60] (pInold <= imDiff;)
    1533                    ;**     -----------------------    #pragma[60] (pIn <= imDiff;)
    1534                    ;**     -----------------------    #pragma MUST_ITERATE(1, 2147483647, 1)
    1535                    ;**     -----------------------    #pragma LOOP_FLAGS(4160u)
    1536                    ;**     -----------------------g10:
    1537                    ;** 127 -----------------------    *U$81++ = *U$75++-*U$77++;
    1538                    ;** 126 -----------------------    if ( L$2 = L$2-1 ) goto g10;
    1539 00000294     4c6e             NOP             3
    1540 00000296     ef61             SUB     .L2     B6,1,B6
TMS320C6x Assembler PC v7.4.2 Thu Mar 19 12:43:41 2015

Tools Copyright (c) 1996-2012 Texas Instruments Incorporated
package/lib/Regression/regress_d_c/./../packages/ti/vlib/src/VLIB_normalFlow_16/VLIB_normalFlow_16_d.se66 PAGE   29

    1541 00000298           $C$DW$L$VLIB_normalFlow_16_d$17$E:
    1542                    ;*----------------------------------------------------------------------------*
    1543                    ;*   SOFTWARE PIPELINE INFORMATION
    1544                    ;*
    1545                    ;*      Loop found in file               : ./../packages/ti/vlib/src/VLIB_normalFlow_16/VLIB_normalFlo
    1546                    ;*      Loop source line                 : 126
    1547                    ;*      Loop opening brace source line   : 126
    1548                    ;*      Loop closing brace source line   : 128
    1549                    ;*      Known Minimum Trip Count         : 1                    
    1550                    ;*      Known Max Trip Count Factor      : 1
    1551                    ;*      Loop Carried Dependency Bound(^) : 7
    1552                    ;*      Unpartitioned Resource Bound     : 2
    1553                    ;*      Partitioned Resource Bound(*)    : 2
    1554                    ;*      Resource Partition:
    1555                    ;*                                A-side   B-side
    1556                    ;*      .L units                     0        0     
    1557                    ;*      .S units                     0        0     
    1558                    ;*      .D units                     2*       1     
    1559                    ;*      .M units                     0        0     
    1560                    ;*      .X cross paths               1        0     
    1561                    ;*      .T address paths             2*       1     
    1562                    ;*      Long read paths              0        0     
    1563                    ;*      Long write paths             0        0     
    1564                    ;*      Logical  ops (.LS)           1        0     (.L or .S unit)
    1565                    ;*      Addition ops (.LSD)          0        0     (.L or .S or .D unit)
    1566                    ;*      Bound(.L .S .LS)             1        0     
    1567                    ;*      Bound(.L .S .D .LS .LSD)     1        1     
    1568                    ;*
    1569                    ;*      Searching for software pipeline schedule at ...
    1570                    ;*         ii = 7  Schedule found with 2 iterations in parallel
    1571                    ;*
    1572                    ;*      Register Usage Table:
    1573                    ;*          +-----------------------------------------------------------------+
    1574                    ;*          |AAAAAAAAAAAAAAAAAAAAAAAAAAAAAAAA|BBBBBBBBBBBBBBBBBBBBBBBBBBBBBBBB|
    1575                    ;*          |00000000001111111111222222222233|00000000001111111111222222222233|
    1576                    ;*          |01234567890123456789012345678901|01234567890123456789012345678901|
    1577                    ;*          |--------------------------------+--------------------------------|
    1578                    ;*       0: |    **                          |     *                          |
    1579                    ;*       1: |    **                          |     *                          |
    1580                    ;*       2: |    **                          |     *                          |
    1581                    ;*       3: |    **                          |     *                          |
    1582                    ;*       4: |    **                          |     *                          |
    1583                    ;*       5: |   ***                          |    **                          |
    1584                    ;*       6: |   ***                          |     *                          |
    1585                    ;*          +-----------------------------------------------------------------+
    1586                    ;*
    1587                    ;*      Done
    1588                    ;*
    1589                    ;*      Loop will be splooped
    1590                    ;*      Collapsed epilog stages       : 0
    1591                    ;*      Collapsed prolog stages       : 0
    1592                    ;*      Minimum required memory pad   : 0 bytes
    1593                    ;*
    1594                    ;*      Minimum safe trip count       : 1
    1595                    ;*      Min. prof. trip count  (est.) : 8
TMS320C6x Assembler PC v7.4.2 Thu Mar 19 12:43:41 2015

Tools Copyright (c) 1996-2012 Texas Instruments Incorporated
package/lib/Regression/regress_d_c/./../packages/ti/vlib/src/VLIB_normalFlow_16/VLIB_normalFlow_16_d.se66 PAGE   30

    1596                    ;*
    1597                    ;*      Mem bank conflicts/iter(est.) : { min 0.000, est 0.125, max 1.000 }
    1598                    ;*      Mem bank perf. penalty (est.) : 1.8%
    1599                    ;*
    1600                    ;*      Effective ii                : { min 7.00, est 7.13, max 8.00 }
    1601                    ;*
    1602                    ;*
    1603                    ;*      Total cycles (est.)         : 7 + trip_cnt * 7        
    1604                    ;*----------------------------------------------------------------------------*
    1605                    ;*        SINGLE SCHEDULED ITERATION
    1606                    ;*
    1607                    ;*        $C$C153:
    1608                    ;*   0              LDBU    .D1T1   *A5++,A3          ; |127|  ^ 
    1609                    ;*     ||           LDBU    .D2T2   *B5++,B4          ; |127|  ^ 
    1610                    ;*   1              NOP             4
    1611                    ;*   5              SUB     .L1X    B4,A3,A3          ; |127|  ^ 
    1612                    ;*   6              STH     .D1T1   A3,*A4++          ; |127|  ^ 
    1613                    ;*     ||           SPBR            $C$C153
    1614                    ;*   7              NOP             7
    1615                    ;*  14              ; BRANCHCC OCCURS {$C$C153}       ; |126| 
    1616                    ;*----------------------------------------------------------------------------*
    1617 00000298           $C$L6:    ; PIPED LOOP PROLOG
    1618                    ;          EXCLUSIVE CPU CYCLES: 8
    1619                    
    1620 00000298     0f67             SPLOOPD 7       ;14               ; (P) 
    1621 0000029a     db6f  ||         MVC     .S2     B6,ILC
    1622                    
    1623                    ;** --------------------------------------------------------------------------*
    1624 000002a0           $C$L7:    ; PIPED LOOP KERNEL
    1625 000002a0           $C$DW$L$VLIB_normalFlow_16_d$19$B:
    1626                    ;          EXCLUSIVE CPU CYCLES: 7
    1627                    
    1628 000002a0     0ebc             LDBU    .D1T1   *A5++,A3          ; |127| (P) <0,0>  ^ 
    1629 000002a2     1ecd  ||         LDBU    .D2T2   *B5++,B4          ; |127| (P) <0,0>  ^ 
    1630                    
    1631 000002a4     ac66             SPMASK          D2
    1632 000002a6     8dcd  ||         LDW     .D2T1   *+SP(48),A4
    1633                    
    1634 000002a8 00004000             NOP             3
    1635                            .dwpsn  file "./../packages/ti/vlib/src/VLIB_normalFlow_16/VLIB_normalFlow_16_d.c",line 127,co
    1636 000002ac 018c92f8             SUB     .L1X    B4,A3,A3          ; |127| (P) <0,5>  ^ 
    1637 000002b0 01903654             STH     .D1T1   A3,*A4++          ; |127| (P) <0,6>  ^ 
    1638 000002b4     1c66             SPKERNEL 0,0
    1639 000002b6           $C$DW$L$VLIB_normalFlow_16_d$19$E:
    1640                    ;** --------------------------------------------------------------------------*
    1641 000002b6           $C$L8:    ; PIPED LOOP EPILOG
    1642                    ;          EXCLUSIVE CPU CYCLES: 1
    1643 000002b6     0c6e             NOP             1
    1644                    ;** --------------------------------------------------------------------------*
    1645 000002b8           $C$L9:    
    1646 000002b8           $C$DW$L$VLIB_normalFlow_16_d$21$B:
    1647                    ;          EXCLUSIVE CPU CYCLES: 1
    1648                            .dwpsn  file "./../packages/ti/vlib/src/VLIB_normalFlow_16/VLIB_normalFlow_16_d.c",line 132,co
    1649 000002b8 01ae2204             LDHU    .D1T1   *+A11(34),A3      ; |132| 
    1650 000002c0           $C$DW$L$VLIB_normalFlow_16_d$21$E:
TMS320C6x Assembler PC v7.4.2 Thu Mar 19 12:43:41 2015

Tools Copyright (c) 1996-2012 Texas Instruments Incorporated
package/lib/Regression/regress_d_c/./../packages/ti/vlib/src/VLIB_normalFlow_16/VLIB_normalFlow_16_d.se66 PAGE   31

    1651                    ;** --------------------------------------------------------------------------*
    1652 000002c0           $C$L10:    
    1653                            .dwpsn  file "./../packages/ti/vlib/src/VLIB_normalFlow_16/VLIB_normalFlow_16_d.c",line 126,co
    1654 000002c0           $C$DW$L$VLIB_normalFlow_16_d$22$B:
    1655                    ;          EXCLUSIVE CPU CYCLES: 6
    1656                    ;**     -----------------------g11:
    1657                    ;** 132 -----------------------    memset((void *)Ex, 0, ((unsigned)(*U$12).width+1u)*2u);
    1658                    ;** 133 -----------------------    C$21 = (*U$12).width;
    1659                    ;** 133 -----------------------    memset(((*U$12).height-1)*C$21*2+Ex-2, 0, ((unsigned)C$21+1u)*2u);
    1660                    ;** 134 -----------------------    memset((void *)Ey, 0, ((unsigned)(*U$12).width+1u)*2u);
    1661                    ;** 135 -----------------------    C$20 = (*U$12).width;
    1662                    ;** 135 -----------------------    memset(((*U$12).height-1)*C$20*2+Ey-2, 0, ((unsigned)C$20+1u)*2u);
    1663                    ;** 136 -----------------------    memset((void *)Emag, 0, ((unsigned)(*U$12).width+1u)*2u);
    1664                    ;** 137 -----------------------    C$19 = (*U$12).width;
    1665                    ;** 137 -----------------------    memset(((*U$12).height-1)*C$19*2+Emag-2, 0, ((unsigned)C$19+1u)*2u)
    1666                    ;** 140 -----------------------    C$18 = (*U$12).width;
    1667                    ;** 140 -----------------------    C$17 = C$18*2;
    1668                    ;** 140 -----------------------    VLIB_xyGradientsAndMagnitude_cn(pIn, C$17+Ex+2, C$17+Ey+2, C$17+Ema
    1669                    ;** 140 -----------------------    goto g13;
    1670                            .dwpsn  file "./../packages/ti/vlib/src/VLIB_normalFlow_16/VLIB_normalFlow_16_d.c",line 132,co
    1671                    $C$DW$182       .dwtag  DW_TAG_TI_branch
    1672                            .dwattr $C$DW$182, DW_AT_low_pc(0x00)
    1673                            .dwattr $C$DW$182, DW_AT_name("memset")
    1674                            .dwattr $C$DW$182, DW_AT_TI_call
    1675 000002c0 00000010!            CALL    .S1     memset            ; |132| 
    1676 000002c4 023dc2e4             LDW     .D2T1   *+SP(56),A4       ; |132| 
    1677 000002c8 01852162             ADDKPC  .S2     $C$RL14,B3,1      ; |132| 
    1678 000002cc     25b0             ADD     .L1     1,A3,A3           ; |132| 
    1679                    
    1680 000002ce     0627             ZERO    .L2     B4                ; |132| 
    1681 000002d0 030c6078  ||         ADD     .L1     A3,A3,A6          ; |132| 
    1682                    
    1683 000002d4           $C$RL14:   ; CALL OCCURS {memset} {0}        ; |132| 
    1684 000002d4           $C$DW$L$VLIB_normalFlow_16_d$22$E:
    1685                    ;** --------------------------------------------------------------------------*
    1686 000002d4           $C$DW$L$VLIB_normalFlow_16_d$23$B:
    1687                    ;          EXCLUSIVE CPU CYCLES: 95
    1688                            .dwpsn  file "./../packages/ti/vlib/src/VLIB_normalFlow_16/VLIB_normalFlow_16_d.c",line 133,co
    1689 000002d4 022e4204             LDHU    .D1T1   *+A11(36),A4      ; |133| 
    1690 000002d8 01ae2204             LDHU    .D1T1   *+A11(34),A3      ; |133| 
    1691 000002e0     cddd             LDW     .D2T1   *+SP(56),A5
    1692 000002e2     0627             ZERO    .L2     B4                ; |133| 
    1693 000002e4     0c6e             NOP             1
    1694 000002e6     ee40             SUB     .L1     A4,1,A4           ; |133| 
    1695 000002e8 02106800             MPY32   .M1     A3,A4,A4          ; |133| 
    1696 000002ec     25b0             ADD     .L1     1,A3,A3           ; |133| 
    1697 000002ee     61e0             ADD     .L1     A3,A3,A6          ; |133| 
    1698 000002f0 00000000             NOP             1
    1699 000002f4 02149a40             ADDAH   .D1     A5,A4,A4          ; |133| 
    1700                    $C$DW$183       .dwtag  DW_TAG_TI_branch
    1701                            .dwattr $C$DW$183, DW_AT_low_pc(0x00)
    1702                            .dwattr $C$DW$183, DW_AT_name("memset")
    1703                            .dwattr $C$DW$183, DW_AT_TI_call
    1704                    
    1705 000002f8 10000013!            CALLP   .S2     memset,B3
TMS320C6x Assembler PC v7.4.2 Thu Mar 19 12:43:41 2015

Tools Copyright (c) 1996-2012 Texas Instruments Incorporated
package/lib/Regression/regress_d_c/./../packages/ti/vlib/src/VLIB_normalFlow_16/VLIB_normalFlow_16_d.se66 PAGE   32

    1706 00000300 0213c058  ||         SUB     .L1     A4,2,A4           ; |133| 
    1707                    
    1708 00000304           $C$RL15:   ; CALL OCCURS {memset} {0}        ; |133| 
    1709                            .dwpsn  file "./../packages/ti/vlib/src/VLIB_normalFlow_16/VLIB_normalFlow_16_d.c",line 134,co
    1710 00000304 01ae2204             LDHU    .D1T1   *+A11(34),A3      ; |134| 
    1711 00000308     edcd             LDW     .D2T1   *+SP(60),A4       ; |134| 
    1712 0000030a     4c6e             NOP             3
    1713 0000030c     35c1             ADD     .L2X    1,A3,B4           ; |134| 
    1714 0000030e     8251             ADD     .L2     B4,B4,B5          ; |134| 
    1715 00000310     0627             ZERO    .L2     B4                ; |134| 
    1716                    $C$DW$184       .dwtag  DW_TAG_TI_branch
    1717                            .dwattr $C$DW$184, DW_AT_low_pc(0x00)
    1718                            .dwattr $C$DW$184, DW_AT_name("memset")
    1719                            .dwattr $C$DW$184, DW_AT_TI_call
    1720                    
    1721 00000314 10000012!            CALLP   .S2     memset,B3
    1722 00000312     d2c6  ||         MV      .L1X    B5,A6             ; |134| 
    1723                    
    1724 00000318           $C$RL16:   ; CALL OCCURS {memset} {0}        ; |134| 
    1725                            .dwpsn  file "./../packages/ti/vlib/src/VLIB_normalFlow_16/VLIB_normalFlow_16_d.c",line 135,co
    1726 00000318 022e4204             LDHU    .D1T1   *+A11(36),A4      ; |135| 
    1727 00000320 01ae2204             LDHU    .D1T1   *+A11(34),A3      ; |135| 
    1728 00000324     eddd             LDW     .D2T1   *+SP(60),A5
    1729 00000326     0627             ZERO    .L2     B4                ; |135| 
    1730 00000328     0c6e             NOP             1
    1731 0000032a     ee40             SUB     .L1     A4,1,A4           ; |135| 
    1732 0000032c 02106800             MPY32   .M1     A3,A4,A4          ; |135| 
    1733 00000330     25b0             ADD     .L1     1,A3,A3           ; |135| 
    1734 00000332     61e0             ADD     .L1     A3,A3,A6          ; |135| 
    1735 00000334 00000000             NOP             1
    1736 00000338 02149a40             ADDAH   .D1     A5,A4,A4          ; |135| 
    1737                    $C$DW$185       .dwtag  DW_TAG_TI_branch
    1738                            .dwattr $C$DW$185, DW_AT_low_pc(0x00)
    1739                            .dwattr $C$DW$185, DW_AT_name("memset")
    1740                            .dwattr $C$DW$185, DW_AT_TI_call
    1741                    
    1742 00000340 10000013!            CALLP   .S2     memset,B3
    1743 00000344 0213c058  ||         SUB     .L1     A4,2,A4           ; |135| 
    1744                    
    1745 00000348           $C$RL17:   ; CALL OCCURS {memset} {0}        ; |135| 
    1746                            .dwpsn  file "./../packages/ti/vlib/src/VLIB_normalFlow_16/VLIB_normalFlow_16_d.c",line 136,co
    1747 00000348 01ae2204             LDHU    .D1T1   *+A11(34),A3      ; |136| 
    1748 0000034c     adcd             LDW     .D2T1   *+SP(52),A4       ; |136| 
    1749 0000034e     4c6e             NOP             3
    1750 00000350     35c1             ADD     .L2X    1,A3,B4           ; |136| 
    1751 00000352     8251             ADD     .L2     B4,B4,B5          ; |136| 
    1752 00000354     0627             ZERO    .L2     B4                ; |136| 
    1753                    $C$DW$186       .dwtag  DW_TAG_TI_branch
    1754                            .dwattr $C$DW$186, DW_AT_low_pc(0x00)
    1755                            .dwattr $C$DW$186, DW_AT_name("memset")
    1756                            .dwattr $C$DW$186, DW_AT_TI_call
    1757                    
    1758 00000358 10000012!            CALLP   .S2     memset,B3
    1759 00000356     d2c6  ||         MV      .L1X    B5,A6             ; |136| 
    1760                    
TMS320C6x Assembler PC v7.4.2 Thu Mar 19 12:43:41 2015

Tools Copyright (c) 1996-2012 Texas Instruments Incorporated
package/lib/Regression/regress_d_c/./../packages/ti/vlib/src/VLIB_normalFlow_16/VLIB_normalFlow_16_d.se66 PAGE   33

    1761 00000360           $C$RL18:   ; CALL OCCURS {memset} {0}        ; |136| 
    1762                            .dwpsn  file "./../packages/ti/vlib/src/VLIB_normalFlow_16/VLIB_normalFlow_16_d.c",line 137,co
    1763 00000360 022e4204             LDHU    .D1T1   *+A11(36),A4      ; |137| 
    1764 00000364 01ae2204             LDHU    .D1T1   *+A11(34),A3      ; |137| 
    1765 00000368     addd             LDW     .D2T1   *+SP(52),A5
    1766 0000036a     0627             ZERO    .L2     B4                ; |137| 
    1767 0000036c     0c6e             NOP             1
    1768 0000036e     ee40             SUB     .L1     A4,1,A4           ; |137| 
    1769 00000370 02106800             MPY32   .M1     A3,A4,A4          ; |137| 
    1770 00000374     25b0             ADD     .L1     1,A3,A3           ; |137| 
    1771 00000376     61e0             ADD     .L1     A3,A3,A6          ; |137| 
    1772 00000378 00000000             NOP             1
    1773 00000380 02149a40             ADDAH   .D1     A5,A4,A4          ; |137| 
    1774                    $C$DW$187       .dwtag  DW_TAG_TI_branch
    1775                            .dwattr $C$DW$187, DW_AT_low_pc(0x00)
    1776                            .dwattr $C$DW$187, DW_AT_name("memset")
    1777                            .dwattr $C$DW$187, DW_AT_TI_call
    1778                    
    1779 00000384 10000013!            CALLP   .S2     memset,B3
    1780 00000388     ce40  ||         SUB     .L1     A4,2,A4           ; |137| 
    1781                    
    1782 0000038a           $C$RL19:   ; CALL OCCURS {memset} {0}        ; |137| 
    1783                            .dwpsn  file "./../packages/ti/vlib/src/VLIB_normalFlow_16/VLIB_normalFlow_16_d.c",line 140,co
    1784 0000038a     edcd             LDW     .D2T1   *+SP(60),A4       ; |140| 
    1785 0000038c 042e2204             LDHU    .D1T1   *+A11(34),A8      ; |140| 
    1786 00000390 0fbdc2e4             LDW     .D2T1   *+SP(56),A31      ; |140| 
    1787 00000394 02bda2e4             LDW     .D2T1   *+SP(52),A5       ; |140| 
    1788 00000398 042e4206             LDHU    .D1T2   *+A11(36),B8      ; |140| 
    1789 000003a0 00000000             NOP             1
    1790 000003a4 01a10078             ADD     .L1     A8,A8,A3          ; |140| 
    1791                    
    1792 000003ac     81e0             ADD     .L1     A4,A3,A6          ; |140| 
    1793 000003a8 020fe1e1  ||         ADD     .S1     A31,A3,A4         ; |140| 
    1794                    
    1795 000003ae     a1b0             ADD     .L1     A5,A3,A3          ; |140| 
    1796 000003b0     5641             ADD     .L2X    2,A4,B4           ; |140| 
    1797                    $C$DW$188       .dwtag  DW_TAG_TI_branch
    1798                            .dwattr $C$DW$188, DW_AT_low_pc(0x08)
    1799                            .dwattr $C$DW$188, DW_AT_name("VLIB_xyGradientsAndMagnitude_cn")
    1800                            .dwattr $C$DW$188, DW_AT_TI_call
    1801                    
    1802 000003b2     55e1             ADD     .L2X    2,A3,B6           ; |140| 
    1803 000003b4     4760  ||         ADD     .L1     2,A6,A6           ; |140| 
    1804 000003b8 10000012! ||         CALLP   .S2     VLIB_xyGradientsAndMagnitude_cn,B3
    1805 000003b6     cd4d  ||         LDW     .D2T1   *+SP(40),A4       ; |140| 
    1806                    
    1807 000003c0           $C$RL20:   ; CALL OCCURS {VLIB_xyGradientsAndMagnitude_cn} {0}  ; |140| 
    1808 000003c0           $C$DW$L$VLIB_normalFlow_16_d$23$E:
    1809                    ;** --------------------------------------------------------------------------*
    1810 000003c0           $C$DW$L$VLIB_normalFlow_16_d$24$B:
    1811                    ;          EXCLUSIVE CPU CYCLES: 6
    1812                    
    1813 000003c0 00648121             BNOP    .S1     $C$L12,4          ; |140| 
    1814 000003c4 003d22e4  ||         LDW     .D2T1   *+SP(36),A0
    1815                    
TMS320C6x Assembler PC v7.4.2 Thu Mar 19 12:43:41 2015

Tools Copyright (c) 1996-2012 Texas Instruments Incorporated
package/lib/Regression/regress_d_c/./../packages/ti/vlib/src/VLIB_normalFlow_16/VLIB_normalFlow_16_d.se66 PAGE   34

    1816                            .dwpsn  file "./../packages/ti/vlib/src/VLIB_normalFlow_16/VLIB_normalFlow_16_d.c",line 148,co
    1817 000003c8 d0001d90     [!A0]   B       .S1     $C$L16            ; |148| 
    1818                            .dwpsn  file "./../packages/ti/vlib/src/VLIB_normalFlow_16/VLIB_normalFlow_16_d.c",line 140,co
    1819                               ; BRANCH OCCURS {$C$L12}          ; |140| 
    1820 000003cc           $C$DW$L$VLIB_normalFlow_16_d$24$E:
    1821                    ;** --------------------------------------------------------------------------*
    1822 000003cc           $C$L11:    
    1823                            .dwpsn  file "./../packages/ti/vlib/src/VLIB_normalFlow_16/VLIB_normalFlow_16_d.c",line 85,col
    1824 000003cc           $C$DW$L$VLIB_normalFlow_16_d$25$B:
    1825                    ;          EXCLUSIVE CPU CYCLES: 8
    1826                    ;**     -----------------------g12:
    1827                    ;** 86  -----------------------    C$15 = U$11+v$1;
    1828                    ;** 86  -----------------------    C$16 = (*C$15).width;
    1829                    ;** 86  -----------------------    VLIB_fillBuffer((*C$15).testPattern, (unsigned char)K$64, (void *)i
    1830                    ;** 92  -----------------------    C$14 = (*U$12).width;
    1831                    ;** 92  -----------------------    VLIB_fillBuffer((*U$12).testPattern, (unsigned char)K$64, (void *)E
    1832                    ;** 98  -----------------------    C$13 = (*U$12).width;
    1833                    ;** 98  -----------------------    VLIB_fillBuffer((*U$12).testPattern, (unsigned char)K$64, (void *)E
    1834                    ;** 104 -----------------------    C$12 = (*U$12).width;
    1835                    ;** 104 -----------------------    VLIB_fillBuffer((*U$12).testPattern, (unsigned char)K$64, (void *)E
    1836                    
    1837 000003cc 02922287             LDHU    .D2T2   *+B4(34),B5       ; |86| 
    1838 000003d0     fdf2  ||         MVK     .S1     0xff,A3
    1839                    
    1840 000003d2     024d             LDBU    .D2T1   *B4,A4            ; |86| 
    1841 000003d4     79e2  ||         EXTU    .S1     A3,24,24,A3       ; |86| 
    1842                    
    1843                    $C$DW$189       .dwtag  DW_TAG_TI_branch
    1844                            .dwattr $C$DW$189, DW_AT_low_pc(0x00)
    1845                            .dwattr $C$DW$189, DW_AT_name("VLIB_fillBuffer")
    1846                            .dwattr $C$DW$189, DW_AT_TI_call
    1847                    
    1848 000003d8 00000013!            CALL    .S2     VLIB_fillBuffer   ; |86| 
    1849 000003d6     306d  ||         LDW     .D2T2   *+B4(4),B6        ; |86| 
    1850 000003e0 06000028! ||         MVKL    .S1     testPatternString,A12
    1851                    
    1852 000003e4 06000069!            MVKH    .S1     testPatternString,A12
    1853 000003e8 04124286  ||         LDHU    .D2T2   *+B4(36),B8       ; |86| 
    1854                    
    1855                            .dwpsn  file "./../packages/ti/vlib/src/VLIB_normalFlow_16/VLIB_normalFlow_16_d.c",line 86,col
    1856 000003ec 020c1fda             MV      .L2X    A3,B4             ; |86| 
    1857 000003f0 0396300a             EXTU    .S2     B5,17,16,B7       ; |86| 
    1858 000003f4     16c6             MV      .L1X    B5,A8             ; |86| 
    1859                    
    1860 000003f6     57c6             MV      .L1X    B7,A10            ; |86| 
    1861 000003f8 018a0163  ||         ADDKPC  .S2     $C$RL21,B3,0      ; |86| 
    1862 00000400 030406a1  ||         MV      .S1     A1,A6             ; |86| 
    1863 00000404 0508a35a  ||         MVK     .L2     0x2,B10           ; |86| 
    1864                    
    1865 00000408           $C$RL21:   ; CALL OCCURS {VLIB_fillBuffer} {0}  ; |86| 
    1866 00000408           $C$DW$L$VLIB_normalFlow_16_d$25$E:
    1867                    ;** --------------------------------------------------------------------------*
    1868 00000408           $C$DW$L$VLIB_normalFlow_16_d$26$B:
    1869                    ;          EXCLUSIVE CPU CYCLES: 39
    1870                            .dwpsn  file "./../packages/ti/vlib/src/VLIB_normalFlow_16/VLIB_normalFlow_16_d.c",line 92,col
TMS320C6x Assembler PC v7.4.2 Thu Mar 19 12:43:41 2015

Tools Copyright (c) 1996-2012 Texas Instruments Incorporated
package/lib/Regression/regress_d_c/./../packages/ti/vlib/src/VLIB_normalFlow_16/VLIB_normalFlow_16_d.se66 PAGE   35

    1871 00000408 042e2204             LDHU    .D1T1   *+A11(34),A8      ; |92| 
    1872 0000040c 01807fa8             MVK     .S1     0xff,A3
    1873 00000410 032c4266             LDW     .D1T2   *+A11(8),B6       ; |92| 
    1874 00000414 038f1808             EXTU    .S1     A3,24,24,A7       ; |92| 
    1875 00000418 022c0214             LDBU    .D1T1   *A11,A4           ; |92| 
    1876                    $C$DW$190       .dwtag  DW_TAG_TI_branch
    1877                            .dwattr $C$DW$190, DW_AT_low_pc(0x00)
    1878                            .dwattr $C$DW$190, DW_AT_name("VLIB_fillBuffer")
    1879                            .dwattr $C$DW$190, DW_AT_TI_call
    1880                    
    1881 0000041c 10000013!            CALLP   .S2     VLIB_fillBuffer,B3
    1882 00000420     aded  ||         LDW     .D2T1   *+SP(52),A6       ; |92| 
    1883 00000428 042e4206  ||         LDHU    .D1T2   *+A11(36),B8      ; |92| 
    1884 00000424 05223009  ||         EXTU    .S1     A8,17,16,A10      ; |92| 
    1885 00000422     93c7  ||         MV      .L2X    A7,B4             ; |92| 
    1886                    
    1887 0000042c           $C$RL22:   ; CALL OCCURS {VLIB_fillBuffer} {0}  ; |92| 
    1888                            .dwpsn  file "./../packages/ti/vlib/src/VLIB_normalFlow_16/VLIB_normalFlow_16_d.c",line 98,col
    1889 0000042c 042e2204             LDHU    .D1T1   *+A11(34),A8      ; |98| 
    1890 00000430 01807fa8             MVK     .S1     0xff,A3
    1891 00000434 032c6266             LDW     .D1T2   *+A11(12),B6      ; |98| 
    1892 00000438 038f1808             EXTU    .S1     A3,24,24,A7       ; |98| 
    1893 00000440 022c0214             LDBU    .D1T1   *A11,A4           ; |98| 
    1894                    $C$DW$191       .dwtag  DW_TAG_TI_branch
    1895                            .dwattr $C$DW$191, DW_AT_low_pc(0x00)
    1896                            .dwattr $C$DW$191, DW_AT_name("VLIB_fillBuffer")
    1897                            .dwattr $C$DW$191, DW_AT_TI_call
    1898                    
    1899 00000444 10000013!            CALLP   .S2     VLIB_fillBuffer,B3
    1900 00000448     cded  ||         LDW     .D2T1   *+SP(56),A6       ; |98| 
    1901 00000450 042e4206  ||         LDHU    .D1T2   *+A11(36),B8      ; |98| 
    1902 0000044c 05223009  ||         EXTU    .S1     A8,17,16,A10      ; |98| 
    1903 0000044a     93c7  ||         MV      .L2X    A7,B4             ; |98| 
    1904                    
    1905 00000454           $C$RL23:   ; CALL OCCURS {VLIB_fillBuffer} {0}  ; |98| 
    1906                            .dwpsn  file "./../packages/ti/vlib/src/VLIB_normalFlow_16/VLIB_normalFlow_16_d.c",line 104,co
    1907 00000454 042e2204             LDHU    .D1T1   *+A11(34),A8      ; |104| 
    1908 00000458 01807fa8             MVK     .S1     0xff,A3
    1909 00000460 032c8266             LDW     .D1T2   *+A11(16),B6      ; |104| 
    1910 00000464 028f1808             EXTU    .S1     A3,24,24,A5       ; |104| 
    1911 00000468 022c0214             LDBU    .D1T1   *A11,A4           ; |104| 
    1912                    $C$DW$192       .dwtag  DW_TAG_TI_branch
    1913                            .dwattr $C$DW$192, DW_AT_low_pc(0x00)
    1914                            .dwattr $C$DW$192, DW_AT_name("VLIB_fillBuffer")
    1915                            .dwattr $C$DW$192, DW_AT_TI_call
    1916                    
    1917 0000046c 10000013!            CALLP   .S2     VLIB_fillBuffer,B3
    1918 00000470     eded  ||         LDW     .D2T1   *+SP(60),A6       ; |104| 
    1919 00000478 042e4206  ||         LDHU    .D1T2   *+A11(36),B8      ; |104| 
    1920 00000474 05223009  ||         EXTU    .S1     A8,17,16,A10      ; |104| 
    1921 00000472     92c7  ||         MV      .L2X    A5,B4             ; |104| 
    1922                    
    1923 00000480           $C$RL24:   ; CALL OCCURS {VLIB_fillBuffer} {0}  ; |104| 
    1924 00000480     ad0d             LDW     .D2T1   *+SP(36),A0
    1925 00000482     6c6e             NOP             4
TMS320C6x Assembler PC v7.4.2 Thu Mar 19 12:43:41 2015

Tools Copyright (c) 1996-2012 Texas Instruments Incorporated
package/lib/Regression/regress_d_c/./../packages/ti/vlib/src/VLIB_normalFlow_16/VLIB_normalFlow_16_d.se66 PAGE   36

    1926                            .dwpsn  file "./../packages/ti/vlib/src/VLIB_normalFlow_16/VLIB_normalFlow_16_d.c",line 148,co
    1927 00000484 d0000590     [!A0]   B       .S1     $C$L16            ; |148| 
    1928 00000488           $C$DW$L$VLIB_normalFlow_16_d$26$E:
    1929                    ;** --------------------------------------------------------------------------*
    1930 00000488           $C$L12:    
    1931                            .dwpsn  file "./../packages/ti/vlib/src/VLIB_normalFlow_16/VLIB_normalFlow_16_d.c",line 140,co
    1932 00000488           $C$DW$L$VLIB_normalFlow_16_d$27$B:
    1933                    ;          EXCLUSIVE CPU CYCLES: 5
    1934                    ;**     -----------------------g13:
    1935                    ;** 148 -----------------------    if ( !out_size ) goto g16;
    1936 00000488 c68013a2     [ A0]   MVC     .S2X    A0,ILC
    1937                            .dwpsn  file "./../packages/ti/vlib/src/VLIB_normalFlow_16/VLIB_normalFlow_16_d.c",line 149,co
    1938 0000048c c2bda2e4     [ A0]   LDW     .D2T1   *+SP(52),A5       ; |149| 
    1939 00000490     4c6e             NOP             3
    1940                            .dwpsn  file "./../packages/ti/vlib/src/VLIB_normalFlow_16/VLIB_normalFlow_16_d.c",line 148,co
    1941                               ; BRANCHCC OCCURS {$C$L16}        ; |148| 
    1942 00000492           $C$DW$L$VLIB_normalFlow_16_d$27$E:
    1943                    ;** --------------------------------------------------------------------------*
    1944                            .dwpsn  file "./../packages/ti/vlib/src/VLIB_normalFlow_16/VLIB_normalFlow_16_d.c",line 149,co
    1945 00000492           $C$DW$L$VLIB_normalFlow_16_d$28$B:
    1946                    ;**     -----------------------    U$129 = Emag;
    1947                    ;** 149 -----------------------    L$3 = out_size;
    1948                    ;**     -----------------------    #pragma MUST_ITERATE(1, 2147483647, 1)
    1949                    ;**     -----------------------    #pragma LOOP_FLAGS(4096u)
    1950                    ;**     -----------------------g15:
    1951                    ;** 150 -----------------------    C$11 = *U$129++;
    1952                    ;** 150 -----------------------    (maxMag > C$11) ? maxMag : (maxMag = C$11);
    1953                    ;** 148 -----------------------    if ( L$3 = L$3-1 ) goto g15;
    1954 00000492           $C$DW$L$VLIB_normalFlow_16_d$28$E:
    1955                    ;*----------------------------------------------------------------------------*
    1956                    ;*   SOFTWARE PIPELINE INFORMATION
    1957                    ;*
    1958                    ;*      Loop found in file               : ./../packages/ti/vlib/src/VLIB_normalFlow_16/VLIB_normalFlo
    1959                    ;*      Loop source line                 : 148
    1960                    ;*      Loop opening brace source line   : 148
    1961                    ;*      Loop closing brace source line   : 152
    1962                    ;*      Known Minimum Trip Count         : 1                    
    1963                    ;*      Known Max Trip Count Factor      : 1
    1964                    ;*      Loop Carried Dependency Bound(^) : 2
    1965                    ;*      Unpartitioned Resource Bound     : 1
    1966                    ;*      Partitioned Resource Bound(*)    : 1
    1967                    ;*      Resource Partition:
    1968                    ;*                                A-side   B-side
    1969                    ;*      .L units                     1*       0     
    1970                    ;*      .S units                     0        0     
    1971                    ;*      .D units                     1*       0     
    1972                    ;*      .M units                     0        0     
    1973                    ;*      .X cross paths               0        0     
    1974                    ;*      .T address paths             1*       0     
    1975                    ;*      Long read paths              0        0     
    1976                    ;*      Long write paths             0        0     
    1977                    ;*      Logical  ops (.LS)           0        0     (.L or .S unit)
    1978                    ;*      Addition ops (.LSD)          1        0     (.L or .S or .D unit)
    1979                    ;*      Bound(.L .S .LS)             1*       0     
    1980                    ;*      Bound(.L .S .D .LS .LSD)     1*       0     
TMS320C6x Assembler PC v7.4.2 Thu Mar 19 12:43:41 2015

Tools Copyright (c) 1996-2012 Texas Instruments Incorporated
package/lib/Regression/regress_d_c/./../packages/ti/vlib/src/VLIB_normalFlow_16/VLIB_normalFlow_16_d.se66 PAGE   37

    1981                    ;*
    1982                    ;*      Searching for software pipeline schedule at ...
    1983                    ;*         ii = 2  Schedule found with 4 iterations in parallel
    1984                    ;*
    1985                    ;*      Register Usage Table:
    1986                    ;*          +-----------------------------------------------------------------+
    1987                    ;*          |AAAAAAAAAAAAAAAAAAAAAAAAAAAAAAAA|BBBBBBBBBBBBBBBBBBBBBBBBBBBBBBBB|
    1988                    ;*          |00000000001111111111222222222233|00000000001111111111222222222233|
    1989                    ;*          |01234567890123456789012345678901|01234567890123456789012345678901|
    1990                    ;*          |--------------------------------+--------------------------------|
    1991                    ;*       0: |*  ***                          |                                |
    1992                    ;*       1: |   ***                          |                                |
    1993                    ;*          +-----------------------------------------------------------------+
    1994                    ;*
    1995                    ;*      Done
    1996                    ;*
    1997                    ;*      Loop will be splooped
    1998                    ;*      Collapsed epilog stages       : 0
    1999                    ;*      Collapsed prolog stages       : 0
    2000                    ;*      Minimum required memory pad   : 0 bytes
    2001                    ;*
    2002                    ;*      Minimum safe trip count       : 1
    2003                    ;*      Min. prof. trip count  (est.) : 2
    2004                    ;*
    2005                    ;*      Mem bank conflicts/iter(est.) : { min 0.000, est 0.000, max 0.000 }
    2006                    ;*      Mem bank perf. penalty (est.) : 0.0%
    2007                    ;*
    2008                    ;*
    2009                    ;*      Total cycles (est.)         : 6 + trip_cnt * 2        
    2010                    ;*----------------------------------------------------------------------------*
    2011                    ;*        SINGLE SCHEDULED ITERATION
    2012                    ;*
    2013                    ;*        $C$C84:
    2014                    ;*   0              LDH     .D1T1   *A5++,A3          ; |150| 
    2015                    ;*   1              NOP             4
    2016                    ;*   5              CMPGT   .L1     A4,A3,A0          ; |150|  ^ 
    2017                    ;*   6      [!A0]   MV      .L1     A3,A4             ; |150|  ^ 
    2018                    ;*     ||           SPBR            $C$C84
    2019                    ;*   7              NOP             1
    2020                    ;*   8              ; BRANCHCC OCCURS {$C$C84}        ; |148| 
    2021                    ;*----------------------------------------------------------------------------*
    2022 00000492           $C$L13:    ; PIPED LOOP PROLOG
    2023                    ;          EXCLUSIVE CPU CYCLES: 7
    2024 00000492     0ce6             SPLOOP  2       ;8                ; (P) 
    2025                    ;** --------------------------------------------------------------------------*
    2026 00000494           $C$L14:    ; PIPED LOOP KERNEL
    2027 00000494           $C$DW$L$VLIB_normalFlow_16_d$30$B:
    2028                    ;          EXCLUSIVE CPU CYCLES: 2
    2029                            .dwpsn  file "./../packages/ti/vlib/src/VLIB_normalFlow_16/VLIB_normalFlow_16_d.c",line 150,co
    2030 00000494     0ebc             LDH     .D1T1   *A5++,A3          ; |150| (P) <0,0> 
    2031 00000496     4c6e             NOP             3
    2032                    
    2033 00000498     2c67             SPMASK          L1
    2034 0000049a     8786  ||         MV      .L1     A15,A4
    2035                    
TMS320C6x Assembler PC v7.4.2 Thu Mar 19 12:43:41 2015

Tools Copyright (c) 1996-2012 Texas Instruments Incorporated
package/lib/Regression/regress_d_c/./../packages/ti/vlib/src/VLIB_normalFlow_16/VLIB_normalFlow_16_d.se66 PAGE   38

    2036 000004a0     8da8             CMPGT   .L1     A4,A3,A0          ; |150| (P) <0,5>  ^ 
    2037                    
    2038 000004a2     9c66             SPKERNEL 2,0
    2039 000004a4 d20c0fd8  || [!A0]   MV      .L1     A3,A4             ; |150| <0,6>  ^ 
    2040                    
    2041 000004a8           $C$DW$L$VLIB_normalFlow_16_d$30$E:
    2042                    ;** --------------------------------------------------------------------------*
    2043 000004a8           $C$L15:    ; PIPED LOOP EPILOG
    2044                    ;          EXCLUSIVE CPU CYCLES: 5
    2045 000004a8     0c6e             NOP             1
    2046                    ;** --------------------------------------------------------------------------*
    2047 000004aa           $C$DW$L$VLIB_normalFlow_16_d$32$B:
    2048                    ;          EXCLUSIVE CPU CYCLES: 1
    2049 000004aa     e646             MV      .L1     A4,A15
    2050 000004ac           $C$DW$L$VLIB_normalFlow_16_d$32$E:
    2051                    ;** --------------------------------------------------------------------------*
    2052 000004ac           $C$L16:    
    2053                            .dwpsn  file "./../packages/ti/vlib/src/VLIB_normalFlow_16/VLIB_normalFlow_16_d.c",line 148,co
    2054 000004ac           $C$DW$L$VLIB_normalFlow_16_d$33$B:
    2055                    ;          EXCLUSIVE CPU CYCLES: 8
    2056                    ;**     -----------------------g16:
    2057                    ;** 154 -----------------------    U$138 = (unsigned)(maxMag*2)+2u;
    2058                    ;** 154 -----------------------    LUT = VLIB_malloc(U$138);
    2059                    ;** 157 -----------------------    v$1 = prm;
    2060                    ;** 157 -----------------------    if ( LUT == NULL ) goto g33;
    2061                            .dwpsn  file "./../packages/ti/vlib/src/VLIB_normalFlow_16/VLIB_normalFlow_16_d.c",line 154,co
    2062 000004ac 0188a358             MVK     .L1     2,A3              ; |154| 
    2063 000004b0 050dfa40             ADDAH   .D1     A3,A15,A10        ; |154| 
    2064                    $C$DW$193       .dwtag  DW_TAG_TI_branch
    2065                            .dwattr $C$DW$193, DW_AT_low_pc(0x00)
    2066                            .dwattr $C$DW$193, DW_AT_name("VLIB_malloc")
    2067                            .dwattr $C$DW$193, DW_AT_TI_call
    2068                    
    2069 000004b4 10000013!            CALLP   .S2     VLIB_malloc,B3
    2070 000004b8     8506  ||         MV      .L1     A10,A4            ; |154| 
    2071                    
    2072 000004c0           $C$RL25:   ; CALL OCCURS {VLIB_malloc} {0}   ; |154| 
    2073 000004c0           $C$DW$L$VLIB_normalFlow_16_d$33$E:
    2074                    ;** --------------------------------------------------------------------------*
    2075 000004c0           $C$DW$L$VLIB_normalFlow_16_d$34$B:
    2076                    ;          EXCLUSIVE CPU CYCLES: 7
    2077                    
    2078 000004c0     0246             MV      .L1     A4,A0             ; |157| 
    2079 000004c2     8e45  ||         STW     .D2T1   A4,*+SP(64)       ; |154| 
    2080                    
    2081 000004c4 d1f48121     [!A0]   BNOP    .S1     $C$L23,4          ; |157| 
    2082 000004cc 023ce2e6  ||         LDW     .D2T2   *+SP(28),B4       ; |157| 
    2083 000004c8 c22c0215  || [ A0]   LDBU    .D1T1   *A11,A4           ; |161| 
    2084                    
    2085                            .dwpsn  file "./../packages/ti/vlib/src/VLIB_normalFlow_16/VLIB_normalFlow_16_d.c",line 221,co
    2086 000004d0 d22c807a     [!A0]   ADD     .L2     B4,B11,B4         ; |221| 
    2087                            .dwpsn  file "./../packages/ti/vlib/src/VLIB_normalFlow_16/VLIB_normalFlow_16_d.c",line 157,co
    2088                               ; BRANCHCC OCCURS {$C$L23}        ; |157| 
    2089 000004d4           $C$DW$L$VLIB_normalFlow_16_d$34$E:
    2090                    ;** --------------------------------------------------------------------------*
TMS320C6x Assembler PC v7.4.2 Thu Mar 19 12:43:41 2015

Tools Copyright (c) 1996-2012 Texas Instruments Incorporated
package/lib/Regression/regress_d_c/./../packages/ti/vlib/src/VLIB_normalFlow_16/VLIB_normalFlow_16_d.se66 PAGE   39

    2091 000004d4           $C$DW$L$VLIB_normalFlow_16_d$35$B:
    2092                    ;          EXCLUSIVE CPU CYCLES: 7
    2093                    ;**     -----------------------    K$172 = &cycles[0];
    2094                    ;** 161 -----------------------    if ( (*U$12).testPattern == 4 ) goto g21;
    2095                    
    2096 000004d4     8226             CMPEQ   .L1     A4,4,A0           ; |161| 
    2097 000004d6     8e3d  ||         LDW     .D2T1   *+SP(64),A3       ; |169| 
    2098                    
    2099 000004d8 c0001591     [ A0]   B       .S1     $C$L18            ; |161| 
    2100 000004e0     2046  ||         MV      .L1     A0,A1             ; |161| branch predicate copy
    2101 000004e2     4a76  || [!A0]   ZERO    .D1     A4                ; |169| 
    2102                    
    2103                            .dwpsn  file "./../packages/ti/vlib/src/VLIB_normalFlow_16/VLIB_normalFlow_16_d.c",line 162,co
    2104 000004e4 822c807a     [ A1]   ADD     .L2     B4,B11,B4         ; |162| 
    2105 000004e8 823c2058     [ A1]   ADD     .L1     1,A15,A4          ; |162| 
    2106 000004ec 84121008     [ A1]   EXTU    .S1     A4,16,16,A8       ; |162| 
    2107                    
    2108 000004f0 d20c0255     [!A0]   STH     .D1T1   A4,*A3            ; |169| 
    2109 000004f4 003c0ad8  ||         CMPGT   .L1     A15,0,A0          ; |171| 
    2110                    
    2111 000004f8 82100294     [ A1]   LDBU    .D2T1   *B4,A4            ; |162| 
    2112                            .dwpsn  file "./../packages/ti/vlib/src/VLIB_normalFlow_16/VLIB_normalFlow_16_d.c",line 161,co
    2113                               ; BRANCHCC OCCURS {$C$L18}        ; |161| 
    2114 00000500           $C$DW$L$VLIB_normalFlow_16_d$35$E:
    2115                    ;** --------------------------------------------------------------------------*
    2116 00000500           $C$DW$L$VLIB_normalFlow_16_d$36$B:
    2117                    ;          EXCLUSIVE CPU CYCLES: 6
    2118                    ;** 169 -----------------------    *LUT = 0;
    2119                    ;** 171 -----------------------    if ( maxMag <= 0 ) goto g22;
    2120                    
    2121 00000500 d0262123     [!A0]   BNOP    .S2     $C$L19,1          ; |171| 
    2122 00000504 c200a35b  || [ A0]   ZERO    .L2     B4
    2123 00000508 c57f0029  || [ A0]   MVKL    .S1     0x46fffe00,A10
    2124 0000050c c7bd02f5  || [ A0]   STW     .D2T1   A15,*+SP(32)      ; |172| 
    2125 00000510 c78c4058  || [ A0]   ADD     .L1     2,A3,A15
    2126                    
    2127 00000514 c2131d8a     [ A0]   SET     .S2     B4,0x18,0x1d,B4
    2128                            .dwpsn  file "./../packages/ti/vlib/src/VLIB_normalFlow_16/VLIB_normalFlow_16_d.c",line 171,co
    2129 00000518 c504a35a     [ A0]   MVK     .L2     0x1,B10           ; |171| 
    2130 0000051c c5237fe8     [ A0]   MVKH    .S1     0x46fffe00,A10
    2131 00000520 c6101fd8     [ A0]   MV      .L1X    B4,A12
    2132                            .dwpsn  file "./../packages/ti/vlib/src/VLIB_normalFlow_16/VLIB_normalFlow_16_d.c",line 171,co
    2133                               ; BRANCHCC OCCURS {$C$L19}        ; |171| 
    2134 00000524           $C$DW$L$VLIB_normalFlow_16_d$36$E:
    2135                    ;** --------------------------------------------------------------------------*
    2136 00000524           $C$DW$L$VLIB_normalFlow_16_d$37$B:
    2137                    ;**     -----------------------    U$153 = &LUT[1];
    2138                    ;** 172 -----------------------    L$4 = maxMag;
    2139                    ;**     -----------------------    K$150 = 0.5F;
    2140                    ;**     -----------------------    K$147 = 32767.0F;
    2141                    ;** 171 -----------------------    i = 1;
    2142                    ;**     -----------------------    #pragma MUST_ITERATE(1, 18446744073709551615, 1)
    2143                    ;**     -----------------------    #pragma LOOP_FLAGS(4096u)
    2144 00000524           $C$DW$L$VLIB_normalFlow_16_d$37$E:
    2145                    ;*----------------------------------------------------------------------------*
TMS320C6x Assembler PC v7.4.2 Thu Mar 19 12:43:41 2015

Tools Copyright (c) 1996-2012 Texas Instruments Incorporated
package/lib/Regression/regress_d_c/./../packages/ti/vlib/src/VLIB_normalFlow_16/VLIB_normalFlow_16_d.se66 PAGE   40

    2146                    ;*   SOFTWARE PIPELINE INFORMATION
    2147                    ;*      Disqualified loop: Loop contains a call
    2148                    ;*      Disqualified loop: Loop contains non-pipelinable instructions
    2149                    ;*----------------------------------------------------------------------------*
    2150 00000524           $C$L17:    
    2151                            .dwpsn  file "./../packages/ti/vlib/src/VLIB_normalFlow_16/VLIB_normalFlow_16_d.c",line 171,co
    2152 00000524           $C$DW$L$VLIB_normalFlow_16_d$38$B:
    2153                    ;          EXCLUSIVE CPU CYCLES: 6
    2154                    ;**     -----------------------g20:
    2155                    ;** 172 -----------------------    *U$153++ = (short)(K$147/(float)i+K$150);
    2156                    ;** 171 -----------------------    ++i;
    2157                    ;** 171 -----------------------    if ( L$4 = L$4-1 ) goto g20;
    2158                            .dwpsn  file "./../packages/ti/vlib/src/VLIB_normalFlow_16/VLIB_normalFlow_16_d.c",line 172,co
    2159                    $C$DW$194       .dwtag  DW_TAG_TI_branch
    2160                            .dwattr $C$DW$194, DW_AT_low_pc(0x00)
    2161                            .dwattr $C$DW$194, DW_AT_name("__c6xabi_divf")
    2162                            .dwattr $C$DW$194, DW_AT_TI_call
    2163 00000524 00000010!            CALL    .S1     __c6xabi_divf     ; |172| 
    2164 00000528 0228095a             INTSP   .L2     B10,B4            ; |172| 
    2165 0000052c 01854162             ADDKPC  .S2     $C$RL26,B3,2      ; |172| 
    2166 00000530 02280fd8             MV      .L1     A10,A4            ; |172| 
    2167 00000534           $C$RL26:   ; CALL OCCURS {__c6xabi_divf} {0}  ; |172| 
    2168 00000534           $C$DW$L$VLIB_normalFlow_16_d$38$E:
    2169                    ;** --------------------------------------------------------------------------*
    2170 00000534           $C$DW$L$VLIB_normalFlow_16_d$39$B:
    2171                    ;          EXCLUSIVE CPU CYCLES: 12
    2172 00000534 023d02e6             LDW     .D2T2   *+SP(32),B4
    2173 00000538 01918798             FADDSP  .L1     A12,A4,A3         ; |172| 
    2174                            .dwpsn  file "./../packages/ti/vlib/src/VLIB_normalFlow_16/VLIB_normalFlow_16_d.c",line 171,co
    2175 0000053c 0528205a             ADD     .L2     1,B10,B10         ; |171| 
    2176 00000540 00000000             NOP             1
    2177                            .dwpsn  file "./../packages/ti/vlib/src/VLIB_normalFlow_16/VLIB_normalFlow_16_d.c",line 172,co
    2178 00000544 018c0178             SPTRUNC .L1     A3,A3             ; |172| 
    2179                    
    2180 00000548     fe00             SUB     .L1X    B4,1,A0           ; |171| 
    2181 0000054a     ee41  ||         SUB     .L2     B4,1,B4           ; |171| 
    2182                    
    2183                            .dwpsn  file "./../packages/ti/vlib/src/VLIB_normalFlow_16/VLIB_normalFlow_16_d.c",line 171,co
    2184 0000054c cff26120     [ A0]   BNOP    .S1     $C$L17,3          ; |171| 
    2185                            .dwpsn  file "./../packages/ti/vlib/src/VLIB_normalFlow_16/VLIB_normalFlow_16_d.c",line 172,co
    2186 00000550 01bc3654             STH     .D1T1   A3,*A15++         ; |172| 
    2187 00000554     9d45             STW     .D2T2   B4,*+SP(32)       ; |172| 
    2188                            .dwpsn  file "./../packages/ti/vlib/src/VLIB_normalFlow_16/VLIB_normalFlow_16_d.c",line 171,co
    2189                               ; BRANCHCC OCCURS {$C$L17}        ; |171| 
    2190 00000556           $C$DW$L$VLIB_normalFlow_16_d$39$E:
    2191                    ;** --------------------------------------------------------------------------*
    2192 00000556           $C$DW$L$VLIB_normalFlow_16_d$40$B:
    2193                    ;          EXCLUSIVE CPU CYCLES: 6
    2194                    ;** 171 -----------------------    goto g22;
    2195 00000556     0d0a             B       .S1     $C$L20            ; |171| 
    2196                            .dwpsn  file ".\..\packages\ti\vlib\src\VLIB_normalFlow_16\..\common\VLIB_profile.h",line 140,
    2197                    $C$DW$195       .dwtag  DW_TAG_TI_branch
    2198                            .dwattr $C$DW$195, DW_AT_low_pc(0x00)
    2199                            .dwattr $C$DW$195, DW_AT_name("VLIB_cache_inval")
    2200                            .dwattr $C$DW$195, DW_AT_TI_call
TMS320C6x Assembler PC v7.4.2 Thu Mar 19 12:43:41 2015

Tools Copyright (c) 1996-2012 Texas Instruments Incorporated
package/lib/Regression/regress_d_c/./../packages/ti/vlib/src/VLIB_normalFlow_16/VLIB_normalFlow_16_d.se66 PAGE   41

    2201 00000558 00000010!            CALL    .S1     VLIB_cache_inval  ; |140| 
    2202 00000560 07800028!            MVKL    .S1     act_kernel,A15
    2203 00000564 07800068!            MVKH    .S1     act_kernel,A15
    2204                            .dwpsn  file ".\..\packages\ti\vlib\src\VLIB_normalFlow_16\..\common\VLIB_profile.h",line 137,
    2205 00000568     0627             ZERO    .L2     B4                ; |137| 
    2206 0000056a     0c6e             NOP             1
    2207                            .dwpsn  file "./../packages/ti/vlib/src/VLIB_normalFlow_16/VLIB_normalFlow_16_d.c",line 171,co
    2208                               ; BRANCH OCCURS {$C$L20}          ; |171| 
    2209 0000056c           $C$DW$L$VLIB_normalFlow_16_d$40$E:
    2210                    ;** --------------------------------------------------------------------------*
    2211 0000056c           $C$L18:    
    2212                            .dwpsn  file "./../packages/ti/vlib/src/VLIB_normalFlow_16/VLIB_normalFlow_16_d.c",line 161,co
    2213                    $C$DW$L$VLIB_normalFlow_16_d$41$B:
    2214                    ;          EXCLUSIVE CPU CYCLES: 6
    2215                    ;**     -----------------------g21:
    2216                    ;** 162 -----------------------    C$10 = U$11+v$1;
    2217                    ;** 162 -----------------------    VLIB_fillBuffer((*C$10).testPattern, (unsigned char)K$64, (void *)L
    2218                    $C$DW$196       .dwtag  DW_TAG_TI_branch
    2219                            .dwattr $C$DW$196, DW_AT_low_pc(0x00)
    2220                            .dwattr $C$DW$196, DW_AT_name("VLIB_fillBuffer")
    2221                            .dwattr $C$DW$196, DW_AT_TI_call
    2222                    
    2223 0000056c 00000013!            CALL    .S2     VLIB_fillBuffer   ; |162| 
    2224 00000570     b06d  ||         LDW     .D2T2   *+B4(20),B6       ; |162| 
    2225 00000572     fdf2  ||         MVK     .S1     0xff,A3
    2226                    
    2227 00000574     8e6d             LDW     .D2T1   *+SP(64),A6       ; |162| 
    2228 00000576     79e2  ||         EXTU    .S1     A3,24,24,A3       ; |162| 
    2229                    
    2230 00000578 06000028!            MVKL    .S1     testPatternString,A12
    2231 00000580 06000068!            MVKH    .S1     testPatternString,A12
    2232                            .dwpsn  file "./../packages/ti/vlib/src/VLIB_normalFlow_16/VLIB_normalFlow_16_d.c",line 162,co
    2233 00000584 020c1fda             MV      .L2X    A3,B4             ; |162| 
    2234                    
    2235 00000588 01860163             ADDKPC  .S2     $C$RL27,B3,0      ; |162| 
    2236 0000058c 0508a35b  ||         MVK     .L2     0x2,B10           ; |162| 
    2237 00000590 04002043  ||         MVK     .D2     0x1,B8            ; |162| 
    2238 00000594 052a1008  ||         EXTU    .S1     A10,16,16,A10     ; |162| 
    2239                    
    2240 00000598           $C$RL27:   ; CALL OCCURS {VLIB_fillBuffer} {0}  ; |162| 
    2241 00000598           $C$DW$L$VLIB_normalFlow_16_d$41$E:
    2242                    ;** --------------------------------------------------------------------------*
    2243 00000598           $C$L19:    
    2244 00000598           $C$DW$L$VLIB_normalFlow_16_d$42$B:
    2245                    ;          EXCLUSIVE CPU CYCLES: 5
    2246                            .dwpsn  file ".\..\packages\ti\vlib\src\VLIB_normalFlow_16\..\common\VLIB_profile.h",line 140,
    2247                    $C$DW$197       .dwtag  DW_TAG_TI_branch
    2248                            .dwattr $C$DW$197, DW_AT_low_pc(0x00)
    2249                            .dwattr $C$DW$197, DW_AT_name("VLIB_cache_inval")
    2250                            .dwattr $C$DW$197, DW_AT_TI_call
    2251 00000598 00000010!            CALL    .S1     VLIB_cache_inval  ; |140| 
    2252 0000059c 07800028!            MVKL    .S1     act_kernel,A15
    2253 000005a0 07800068!            MVKH    .S1     act_kernel,A15
    2254                            .dwpsn  file ".\..\packages\ti\vlib\src\VLIB_normalFlow_16\..\common\VLIB_profile.h",line 137,
    2255 000005a4     0627             ZERO    .L2     B4                ; |137| 
TMS320C6x Assembler PC v7.4.2 Thu Mar 19 12:43:41 2015

Tools Copyright (c) 1996-2012 Texas Instruments Incorporated
package/lib/Regression/regress_d_c/./../packages/ti/vlib/src/VLIB_normalFlow_16/VLIB_normalFlow_16_d.se66 PAGE   42

    2256 000005a6     0c6e             NOP             1
    2257 000005a8           $C$DW$L$VLIB_normalFlow_16_d$42$E:
    2258                    ;** --------------------------------------------------------------------------*
    2259 000005a8           $C$L20:    
    2260                            .dwpsn  file "./../packages/ti/vlib/src/VLIB_normalFlow_16/VLIB_normalFlow_16_d.c",line 171,co
    2261 000005a8           $C$DW$L$VLIB_normalFlow_16_d$43$B:
    2262                    ;          EXCLUSIVE CPU CYCLES: 1
    2263                    ;**     -----------------------g22:
    2264                    ;** 137 -----------------------    act_kernel = 0;  // [15]
    2265                    ;** 140 -----------------------    VLIB_cache_inval();  // [15]
    2266                    ;** 143 -----------------------    initStack(getSP());  // [15]
    2267                    ;** 146 -----------------------    beg_count = _itoll(TSCH, TSCL);  // [15]
    2268                    ;** 178 -----------------------    VLIB_normalFlow_16(imDiff, Emag, Ex, Ey, LUT, (*U$12).T, (int)_mpyu
    2269                    ;** 153 -----------------------    v$2 = _itoll(TSCH, TSCL);  // [16]
    2270                    ;** 153 -----------------------    end_count = v$2;  // [16]
    2271                    ;** 156 -----------------------    C$9 = act_kernel;  // [16]
    2272                    ;** 156 -----------------------    *((C$9<<3)+K$172) = *((C$9<<3)+K$172)+(v$2-(beg_count+overhead));  
    2273                    ;** 159 -----------------------    setStackDepth();  // [16]
    2274                    ;** 137 -----------------------    act_kernel = 1;  // [15]
    2275                    ;** 140 -----------------------    VLIB_cache_inval();  // [15]
    2276                    ;** 143 -----------------------    initStack(getSP());  // [15]
    2277                    ;** 146 -----------------------    beg_count = _itoll(TSCH, TSCL);  // [15]
    2278                    ;** 186 -----------------------    VLIB_normalFlow_16_cn(imDiff, Emag, Ex, Ey, LUT, (*U$12).T, (int)_m
    2279                    ;** 153 -----------------------    v$2 = _itoll(TSCH, TSCL);  // [16]
    2280                    ;** 153 -----------------------    end_count = v$2;  // [16]
    2281                    ;** 156 -----------------------    C$8 = act_kernel;  // [16]
    2282                    ;** 156 -----------------------    *((C$8<<3)+K$172) = *((C$8<<3)+K$172)+(v$2-(beg_count+overhead));  
    2283                    ;** 159 -----------------------    setStackDepth();  // [16]
    2284                    ;** 192 -----------------------    statusU = VLIB_compare_mem((void *)normalFlowU, (void *)normalFlowU
    2285                    
    2286 000005a8 01840163             ADDKPC  .S2     $C$RL28,B3,0      ; |140| 
    2287 000005ac 023c0276  ||         STW     .D1T2   B4,*A15           ; |137| 
    2288                    
    2289                            .dwpsn  file ".\..\packages\ti\vlib\src\VLIB_normalFlow_16\..\common\VLIB_profile.h",line 140,
    2290                    $C$RL28:   ; CALL OCCURS {VLIB_cache_inval} {0}  ; |140| 
    2291                    $C$DW$L$VLIB_normalFlow_16_d$43$E:
    2292                    ;** --------------------------------------------------------------------------*
    2293                    $C$DW$L$VLIB_normalFlow_16_d$44$B:
    2294                    ;          EXCLUSIVE CPU CYCLES: 123
    2295                    $C$DW$198       .dwtag  DW_TAG_TI_branch
    2296                            .dwattr $C$DW$198, DW_AT_low_pc(0x00)
    2297                            .dwattr $C$DW$198, DW_AT_name("getSP")
    2298                            .dwattr $C$DW$198, DW_AT_TI_call
    2299 000005b0 10000012!            CALLP   .S2     getSP,B3
    2300                            .dwpsn  file ".\..\packages\ti\vlib\src\VLIB_normalFlow_16\..\common\VLIB_profile.h",line 143,
    2301                    $C$RL29:   ; CALL OCCURS {getSP} {0}         ; |143| 
    2302                    $C$DW$199       .dwtag  DW_TAG_TI_branch
    2303                            .dwattr $C$DW$199, DW_AT_low_pc(0x00)
    2304                            .dwattr $C$DW$199, DW_AT_name("initStack")
    2305                            .dwattr $C$DW$199, DW_AT_TI_call
    2306 000005b4 10000012!            CALLP   .S2     initStack,B3
    2307 000005b8           $C$RL30:   ; CALL OCCURS {initStack} {0}     ; |143| 
    2308                            .dwpsn  file ".\..\packages\ti\vlib\src\VLIB_normalFlow_16\..\common\VLIB_profile.h",line 146,
    2309 000005b8 022803e2             MVC     .S2     TSCL,B4           ; |146| 
    2310 000005c0 02ac03e2             MVC     .S2     TSCH,B5           ; |146| 
TMS320C6x Assembler PC v7.4.2 Thu Mar 19 12:43:41 2015

Tools Copyright (c) 1996-2012 Texas Instruments Incorporated
package/lib/Regression/regress_d_c/./../packages/ti/vlib/src/VLIB_normalFlow_16/VLIB_normalFlow_16_d.se66 PAGE   43

    2311                            .dwpsn  file "./../packages/ti/vlib/src/VLIB_normalFlow_16/VLIB_normalFlow_16_d.c",line 178,co
    2312 000005c4 022e4204             LDHU    .D1T1   *+A11(36),A4      ; |178| 
    2313                    
    2314 000005c8 032e2205             LDHU    .D1T1   *+A11(34),A6      ; |178| 
    2315 000005cc 053e22e6  ||         LDW     .D2T2   *+SP(68),B10      ; |178| 
    2316                    
    2317 000005d0 01800029!            MVKL    .S1     beg_count,A3
    2318 000005d4 033de2e6  ||         LDW     .D2T2   *+SP(60),B6       ; |178| 
    2319                    
    2320 000005d8 01800069!            MVKH    .S1     beg_count,A3
    2321 000005dc 063e42e4  ||         LDW     .D2T1   *+SP(72),A12      ; |178| 
    2322                    
    2323 000005e0 020c0347             STDW    .D1T2   B5:B4,*A3         ; |146| 
    2324 000005e4 043e02e4  ||         LDW     .D2T1   *+SP(64),A8       ; |178| 
    2325                    
    2326 000005e8     bdcd             LDW     .D2T2   *+SP(52),B4       ; |178| 
    2327                    
    2328 000005ec 0510cf80             MPYU    .M1     A6,A4,A10         ; |178| 
    2329 000005ea     cded  ||         LDW     .D2T1   *+SP(56),A6       ; |178| 
    2330                    
    2331                    $C$DW$200       .dwtag  DW_TAG_TI_branch
    2332                            .dwattr $C$DW$200, DW_AT_low_pc(0x00)
    2333                            .dwattr $C$DW$200, DW_AT_name("VLIB_normalFlow_16")
    2334                            .dwattr $C$DW$200, DW_AT_TI_call
    2335                    
    2336 000005f0 10000013!            CALLP   .S2     VLIB_normalFlow_16,B3
    2337 000005f8 023d82e4  ||         LDW     .D2T1   *+SP(48),A4       ; |178| 
    2338 000005f4 042e0247  ||         LDH     .D1T2   *+A11(32),B8      ; |178| 
    2339                    
    2340 00000600           $C$RL31:   ; CALL OCCURS {VLIB_normalFlow_16} {0}  ; |178| 
    2341                            .dwpsn  file ".\..\packages\ti\vlib\src\VLIB_normalFlow_16\..\common\VLIB_profile.h",line 153,
    2342 00000600 032803e2             MVC     .S2     TSCL,B6           ; |153| 
    2343 00000604 03ac03e2             MVC     .S2     TSCH,B7           ; |153| 
    2344                    
    2345 00000608 05000029!            MVKL    .S1     beg_count,A10
    2346 0000060c 0200002a! ||         MVKL    .S2     overhead,B4
    2347                    
    2348 00000610 0200006b!            MVKH    .S2     overhead,B4
    2349 00000614 05000069! ||         MVKH    .S1     beg_count,A10
    2350 00000618 01bc0264  ||         LDW     .D1T1   *A15,A3           ; |156| 
    2351                    
    2352 0000061c 03280365             LDDW    .D1T1   *A10,A7:A6        ; |156| 
    2353 00000620 021003e6  ||         LDDW    .D2T2   *B4,B5:B4         ; |156| 
    2354                    
    2355 00000624 02000028!            MVKL    .S1     cycles,A4
    2356 00000628 02000068!            MVKH    .S1     cycles,A4
    2357 0000062c 00002000             NOP             2
    2358                    
    2359 00000630 04106b65             LDDW    .D1T1   *+A4[A3],A9:A8    ; |156| 
    2360 00000634 0210d578  ||         ADDU    .L1X    B4,A6,A5:A4       ; |156| 
    2361                    
    2362                            .dwpsn  file ".\..\packages\ti\vlib\src\VLIB_normalFlow_16\..\common\VLIB_profile.h",line 156,
    2363 00000638     b2d0             ADD     .L1X    A5,B5,A5          ; |156| 
    2364 0000063a     a3e0             ADD     .L1     A5,A7,A6          ; |156| 
    2365 00000640 0210d7f8             SUBU    .L1X    B6,A4,A5:A4       ; |156| 
TMS320C6x Assembler PC v7.4.2 Thu Mar 19 12:43:41 2015

Tools Copyright (c) 1996-2012 Texas Instruments Incorporated
package/lib/Regression/regress_d_c/./../packages/ti/vlib/src/VLIB_normalFlow_16/VLIB_normalFlow_16_d.se66 PAGE   44

    2366 00000644 0218f0fa             SUB     .L2X    B7,A6,B4          ; |156| 
    2367                    
    2368 00000648 0f971849             EXT     .S1     A5,24,24,A31      ; |156| 
    2369 0000064c 02110578  ||         ADDU    .L1     A8,A4,A5:A4       ; |156| 
    2370                    
    2371 00000650 0313f079             ADD     .L1X    B4,A31,A6         ; |156| 
    2372 00000654 02a4a1e0  ||         ADD     .S1     A5,A9,A5          ; |156| 
    2373                    
    2374 00000658 0298a079             ADD     .L1     A5,A6,A5          ; |156| 
    2375 0000065c 03000029! ||         MVKL    .S1     cycles,A6
    2376 00000660 0200002a! ||         MVKL    .S2     end_count,B4
    2377                    
    2378 00000664 03000069!            MVKH    .S1     cycles,A6
    2379 00000668 0200006a! ||         MVKH    .S2     end_count,B4
    2380                    
    2381                    $C$DW$201       .dwtag  DW_TAG_TI_branch
    2382                            .dwattr $C$DW$201, DW_AT_low_pc(0x00)
    2383                            .dwattr $C$DW$201, DW_AT_name("setStackDepth")
    2384                            .dwattr $C$DW$201, DW_AT_TI_call
    2385                    
    2386 0000066c 10000013!            CALLP   .S2     setStackDepth,B3
    2387 00000670     6544  ||         STDW    .D1T1   A5:A4,*+A6[A3]    ; |156| 
    2388 00000672     1065  ||         STDW    .D2T2   B7:B6,*B4         ; |153| 
    2389                    
    2390                            .dwpsn  file ".\..\packages\ti\vlib\src\VLIB_normalFlow_16\..\common\VLIB_profile.h",line 159,
    2391 00000674           $C$RL32:   ; CALL OCCURS {setStackDepth} {0}  ; |159| 
    2392                    
    2393 00000674     2627             MVK     .L2     1,B4              ; |137| 
    2394 00000676     6786  ||         MV      .L1     A15,A3            ; |137| 
    2395                    
    2396                    $C$DW$202       .dwtag  DW_TAG_TI_branch
    2397                            .dwattr $C$DW$202, DW_AT_low_pc(0x00)
    2398                            .dwattr $C$DW$202, DW_AT_name("VLIB_cache_inval")
    2399                            .dwattr $C$DW$202, DW_AT_TI_call
    2400                    
    2401 00000678 10000013!            CALLP   .S2     VLIB_cache_inval,B3
    2402 00000680 020c0276  ||         STW     .D1T2   B4,*A3            ; |137| 
    2403                    
    2404                            .dwpsn  file ".\..\packages\ti\vlib\src\VLIB_normalFlow_16\..\common\VLIB_profile.h",line 140,
    2405                    $C$RL33:   ; CALL OCCURS {VLIB_cache_inval} {0}  ; |140| 
    2406                    $C$DW$203       .dwtag  DW_TAG_TI_branch
    2407                            .dwattr $C$DW$203, DW_AT_low_pc(0x00)
    2408                            .dwattr $C$DW$203, DW_AT_name("getSP")
    2409                            .dwattr $C$DW$203, DW_AT_TI_call
    2410 00000684 10000012!            CALLP   .S2     getSP,B3
    2411                            .dwpsn  file ".\..\packages\ti\vlib\src\VLIB_normalFlow_16\..\common\VLIB_profile.h",line 143,
    2412                    $C$RL34:   ; CALL OCCURS {getSP} {0}         ; |143| 
    2413                    $C$DW$204       .dwtag  DW_TAG_TI_branch
    2414                            .dwattr $C$DW$204, DW_AT_low_pc(0x00)
    2415                            .dwattr $C$DW$204, DW_AT_name("initStack")
    2416                            .dwattr $C$DW$204, DW_AT_TI_call
    2417 00000688 10000012!            CALLP   .S2     initStack,B3
    2418 0000068c           $C$RL35:   ; CALL OCCURS {initStack} {0}     ; |143| 
    2419                            .dwpsn  file ".\..\packages\ti\vlib\src\VLIB_normalFlow_16\..\common\VLIB_profile.h",line 146,
    2420 0000068c 022803e2             MVC     .S2     TSCL,B4           ; |146| 
TMS320C6x Assembler PC v7.4.2 Thu Mar 19 12:43:41 2015

Tools Copyright (c) 1996-2012 Texas Instruments Incorporated
package/lib/Regression/regress_d_c/./../packages/ti/vlib/src/VLIB_normalFlow_16/VLIB_normalFlow_16_d.se66 PAGE   45

    2421 00000690 02ac03e2             MVC     .S2     TSCH,B5           ; |146| 
    2422                            .dwpsn  file "./../packages/ti/vlib/src/VLIB_normalFlow_16/VLIB_normalFlow_16_d.c",line 186,co
    2423 00000694 022e4204             LDHU    .D1T1   *+A11(36),A4      ; |186| 
    2424 00000698 02ae2204             LDHU    .D1T1   *+A11(34),A5      ; |186| 
    2425 0000069c 043e02e4             LDW     .D2T1   *+SP(64),A8       ; |186| 
    2426 000006a0     cded             LDW     .D2T1   *+SP(56),A6       ; |186| 
    2427 000006a2     fded             LDW     .D2T2   *+SP(60),B6       ; |186| 
    2428                    
    2429 000006a4 07a80fd9             MV      .L1     A10,A15           ; |146| 
    2430 000006a8 053e62e6  ||         LDW     .D2T2   *+SP(76),B10      ; |186| 
    2431                    
    2432 000006ac 023c0347             STDW    .D1T2   B5:B4,*A15        ; |146| 
    2433 000006b0 063e82e4  ||         LDW     .D2T1   *+SP(80),A12      ; |186| 
    2434                    
    2435 000006b4     bdcd             LDW     .D2T2   *+SP(52),B4       ; |186| 
    2436                    $C$DW$205       .dwtag  DW_TAG_TI_branch
    2437                            .dwattr $C$DW$205, DW_AT_low_pc(0x00)
    2438                            .dwattr $C$DW$205, DW_AT_name("VLIB_normalFlow_16_cn")
    2439                            .dwattr $C$DW$205, DW_AT_TI_call
    2440                    
    2441 000006c0 10000013!            CALLP   .S2     VLIB_normalFlow_16_cn,B3
    2442 000006b8 0510af81  ||         MPYU    .M1     A5,A4,A10         ; |186| 
    2443 000006b6     8dcd  ||         LDW     .D2T1   *+SP(48),A4       ; |186| 
    2444 000006c4 042e0246  ||         LDH     .D1T2   *+A11(32),B8      ; |186| 
    2445                    
    2446 000006c8           $C$RL36:   ; CALL OCCURS {VLIB_normalFlow_16_cn} {0}  ; |186| 
    2447                            .dwpsn  file ".\..\packages\ti\vlib\src\VLIB_normalFlow_16\..\common\VLIB_profile.h",line 153,
    2448 000006c8 032803e2             MVC     .S2     TSCL,B6           ; |153| 
    2449 000006cc 03ac03e2             MVC     .S2     TSCH,B7           ; |153| 
    2450 000006d0 01800028!            MVKL    .S1     act_kernel,A3
    2451 000006d4 01800068!            MVKH    .S1     act_kernel,A3
    2452                    
    2453 000006d8 040c0265             LDW     .D1T1   *A3,A8            ; |156| 
    2454 000006dc 0200002a! ||         MVKL    .S2     overhead,B4
    2455                    
    2456 000006e0 0200006a!            MVKH    .S2     overhead,B4
    2457                    
    2458 000006e4 041003e7             LDDW    .D2T2   *B4,B9:B8         ; |156| 
    2459 000006e8 023c0364  ||         LDDW    .D1T1   *A15,A5:A4        ; |156| 
    2460                    
    2461 000006ec 0f800028!            MVKL    .S1     cycles,A31
    2462 000006f0 0f800068!            MVKH    .S1     cycles,A31
    2463                    
    2464 000006f4 037d0b65             LDDW    .D1T1   *+A31[A8],A7:A6   ; |156| 
    2465 000006f8 01800028! ||         MVKL    .S1     end_count,A3
    2466                    
    2467 000006fc 01800068!            MVKH    .S1     end_count,A3
    2468                            .dwpsn  file ".\..\packages\ti\vlib\src\VLIB_normalFlow_16\..\common\VLIB_profile.h",line 156,
    2469 00000700 0211157a             ADDU    .L2X    B8,A4,B5:B4       ; |156| 
    2470                    
    2471 00000704 0424a07b             ADD     .L2     B5,B9,B8          ; |156| 
    2472 00000708 080c16a2  ||         MV      .S2X    A3,B16
    2473                    
    2474 0000070c 041511e3             ADD     .S2X    B8,A5,B8          ; |156| 
    2475 00000710 0210c5fa  ||         SUBU    .L2     B6,B4,B5:B4       ; |156| 
TMS320C6x Assembler PC v7.4.2 Thu Mar 19 12:43:41 2015

Tools Copyright (c) 1996-2012 Texas Instruments Incorporated
package/lib/Regression/regress_d_c/./../packages/ti/vlib/src/VLIB_normalFlow_16/VLIB_normalFlow_16_d.se66 PAGE   46

    2476                    
    2477 00000714 0497184b             EXT     .S2     B5,24,24,B9       ; |156| 
    2478 00000718 0218957b  ||         ADDU    .L2X    A6,B4,B5:B4       ; |156| 
    2479 0000071c 041d08c2  ||         SUB     .D2     B7,B8,B8          ; |156| 
    2480                    
    2481 00000720 029cb07b             ADD     .L2X    B5,A7,B5          ; |156| 
    2482 00000724 042501e3  ||         ADD     .S2     B8,B9,B8          ; |156| 
    2483 00000728 01800028! ||         MVKL    .S1     cycles,A3
    2484                    
    2485 0000072c 02a0a07b             ADD     .L2     B5,B8,B5          ; |156| 
    2486 00000730 01800069! ||         MVKH    .S1     cycles,A3
    2487 00000734 034003c6  ||         STDW    .D2T2   B7:B6,*B16        ; |153| 
    2488                    
    2489                    $C$DW$206       .dwtag  DW_TAG_TI_branch
    2490                            .dwattr $C$DW$206, DW_AT_low_pc(0x00)
    2491                            .dwattr $C$DW$206, DW_AT_name("setStackDepth")
    2492                            .dwattr $C$DW$206, DW_AT_TI_call
    2493                    
    2494 00000738 10000013!            CALLP   .S2     setStackDepth,B3
    2495 0000073c 020d0b46  ||         STDW    .D1T2   B5:B4,*+A3[A8]    ; |156| 
    2496                    
    2497                            .dwpsn  file ".\..\packages\ti\vlib\src\VLIB_normalFlow_16\..\common\VLIB_profile.h",line 159,
    2498 00000740           $C$RL37:   ; CALL OCCURS {setStackDepth} {0}  ; |159| 
    2499                            .dwpsn  file "./../packages/ti/vlib/src/VLIB_normalFlow_16/VLIB_normalFlow_16_d.c",line 192,co
    2500 00000740 01ae4204             LDHU    .D1T1   *+A11(36),A3      ; |192| 
    2501 00000744 022e2204             LDHU    .D1T1   *+A11(34),A4      ; |192| 
    2502 00000748     8507             MV      .L2     B10,B4            ; |192| 
    2503 0000074a     4c6e             NOP             3
    2504 0000074c 018c8f80             MPYU    .M1     A4,A3,A3          ; |192| 
    2505 00000750     ae4d             LDW     .D2T1   *+SP(68),A4       ; |192| 
    2506                    $C$DW$207       .dwtag  DW_TAG_TI_branch
    2507                            .dwattr $C$DW$207, DW_AT_low_pc(0x04)
    2508                            .dwattr $C$DW$207, DW_AT_name("VLIB_compare_mem")
    2509                            .dwattr $C$DW$207, DW_AT_TI_call
    2510                    
    2511 00000752     61e0             ADD     .L1     A3,A3,A6          ; |192| 
    2512 00000754 10000012! ||         CALLP   .S2     VLIB_compare_mem,B3
    2513                    
    2514 00000758           $C$RL38:   ; CALL OCCURS {VLIB_compare_mem} {0}  ; |192| 
    2515 00000758           $C$DW$L$VLIB_normalFlow_16_d$44$E:
    2516                    ;** --------------------------------------------------------------------------*
    2517 00000758           $C$DW$L$VLIB_normalFlow_16_d$45$B:
    2518                    ;          EXCLUSIVE CPU CYCLES: 14
    2519                    ;** 193 -----------------------    statusV = VLIB_compare_mem((void *)normalFlowV, (void *)normalFlowV
    2520                    ;** 194 -----------------------    if ( !((statusU == 0)|(statusV == 0)) ) goto g24;
    2521                    ;** 195 -----------------------    status_nat_vs_int = 0;
    2522                    ;**     -----------------------g24:
    2523                    ;** 200 -----------------------    v$1 = prm;
    2524                    ;** 200 -----------------------    U$188 = (*U$12).staticOutU;
    2525                    ;** 200 -----------------------    if ( U$188 ) goto g26;
    2526                    ;** 199 -----------------------    statusU = 1;
    2527                    ;**     -----------------------    goto g27;
    2528                            .dwpsn  file "./../packages/ti/vlib/src/VLIB_normalFlow_16/VLIB_normalFlow_16_d.c",line 193,co
    2529 00000758 01ae4204             LDHU    .D1T1   *+A11(36),A3      ; |193| 
    2530                    
TMS320C6x Assembler PC v7.4.2 Thu Mar 19 12:43:41 2015

Tools Copyright (c) 1996-2012 Texas Instruments Incorporated
package/lib/Regression/regress_d_c/./../packages/ti/vlib/src/VLIB_normalFlow_16/VLIB_normalFlow_16_d.se66 PAGE   47

    2531 00000764     4646             MV      .L1     A4,A10            ; |192| 
    2532 00000760 022e2205  ||         LDHU    .D1T1   *+A11(34),A4      ; |193| 
    2533                    
    2534 00000766     9607             MV      .L2X    A12,B4            ; |193| 
    2535 00000768 00004000             NOP             3
    2536 0000076c 018c8f80             MPYU    .M1     A4,A3,A3          ; |193| 
    2537 00000770     ce4d             LDW     .D2T1   *+SP(72),A4       ; |193| 
    2538                    $C$DW$208       .dwtag  DW_TAG_TI_branch
    2539                            .dwattr $C$DW$208, DW_AT_low_pc(0x04)
    2540                            .dwattr $C$DW$208, DW_AT_name("VLIB_compare_mem")
    2541                            .dwattr $C$DW$208, DW_AT_TI_call
    2542                    
    2543 00000772     61e0             ADD     .L1     A3,A3,A6          ; |193| 
    2544 00000774 10000012! ||         CALLP   .S2     VLIB_compare_mem,B3
    2545                    
    2546 00000778           $C$RL39:   ; CALL OCCURS {VLIB_compare_mem} {0}  ; |193| 
    2547 00000778           $C$DW$L$VLIB_normalFlow_16_d$45$E:
    2548                    ;** --------------------------------------------------------------------------*
    2549 00000778           $C$DW$L$VLIB_normalFlow_16_d$46$B:
    2550                    ;          EXCLUSIVE CPU CYCLES: 11
    2551                            .dwpsn  file "./../packages/ti/vlib/src/VLIB_normalFlow_16/VLIB_normalFlow_16_d.c",line 200,co
    2552 00000778 002cc264             LDW     .D1T1   *+A11(24),A0      ; |200| 
    2553 00000780 023ce2e6             LDW     .D2T2   *+SP(28),B4       ; |200| 
    2554                            .dwpsn  file "./../packages/ti/vlib/src/VLIB_normalFlow_16/VLIB_normalFlow_16_d.c",line 194,co
    2555 00000784 02100a58             CMPEQ   .L1     A4,0,A4           ; |194| 
    2556 00000788 01a80a58             CMPEQ   .L1     A10,0,A3          ; |194| 
    2557 0000078c     85b8             OR      .L1     A4,A3,A1          ; |194| 
    2558                    
    2559 0000078e     093a     [!A0]   B       .S1     $C$L21
    2560 00000790 c22e2204  || [ A0]   LDHU    .D1T1   *+A11(34),A4      ; |201| 
    2561                    
    2562                            .dwpsn  file "./../packages/ti/vlib/src/VLIB_normalFlow_16/VLIB_normalFlow_16_d.c",line 201,co
    2563 00000794 c1ae4204     [ A0]   LDHU    .D1T1   *+A11(36),A3      ; |201| 
    2564                            .dwpsn  file "./../packages/ti/vlib/src/VLIB_normalFlow_16/VLIB_normalFlow_16_d.c",line 195,co
    2565 00000798 8680a35a     [ A1]   ZERO    .L2     B13               ; |195| 
    2566                            .dwpsn  file "./../packages/ti/vlib/src/VLIB_normalFlow_16/VLIB_normalFlow_16_d.c",line 201,co
    2567                    $C$DW$209       .dwtag  DW_TAG_TI_branch
    2568                            .dwattr $C$DW$209, DW_AT_low_pc(0x00)
    2569                            .dwattr $C$DW$209, DW_AT_name("VLIB_compare_mem")
    2570                            .dwattr $C$DW$209, DW_AT_TI_call
    2571 000007a0 c0000010!    [ A0]   CALL    .S1     VLIB_compare_mem  ; |201| 
    2572                            .dwpsn  file "./../packages/ti/vlib/src/VLIB_normalFlow_16/VLIB_normalFlow_16_d.c",line 199,co
    2573 000007a4 d184a358     [!A0]   MVK     .L1     0x1,A3            ; |199| 
    2574                            .dwpsn  file "./../packages/ti/vlib/src/VLIB_normalFlow_16/VLIB_normalFlow_16_d.c",line 195,co
    2575 000007a8 d1bea2f4     [!A0]   STW     .D2T1   A3,*+SP(84)       ; |195| 
    2576                               ; BRANCHCC OCCURS {$C$L21}  
    2577 000007ac           $C$DW$L$VLIB_normalFlow_16_d$46$E:
    2578                    ;** --------------------------------------------------------------------------*
    2579                            .dwpsn  file "./../packages/ti/vlib/src/VLIB_normalFlow_16/VLIB_normalFlow_16_d.c",line 200,co
    2580 000007ac           $C$DW$L$VLIB_normalFlow_16_d$47$B:
    2581                    ;          EXCLUSIVE CPU CYCLES: 3
    2582                    ;**     -----------------------g26:
    2583                    ;** 201 -----------------------    statusU = VLIB_compare_mem((void *)U$188, (void *)normalFlowU_cn, (
    2584                    ;** 201 -----------------------    v$1 = prm;
    2585                            .dwpsn  file "./../packages/ti/vlib/src/VLIB_normalFlow_16/VLIB_normalFlow_16_d.c",line 201,co
TMS320C6x Assembler PC v7.4.2 Thu Mar 19 12:43:41 2015

Tools Copyright (c) 1996-2012 Texas Instruments Incorporated
package/lib/Regression/regress_d_c/./../packages/ti/vlib/src/VLIB_normalFlow_16/VLIB_normalFlow_16_d.se66 PAGE   48

    2586 000007ac 018c8f80             MPYU    .M1     A4,A3,A3          ; |201| 
    2587 000007b0     8507             MV      .L2     B10,B4            ; |201| 
    2588                    
    2589 000007b4 01880163             ADDKPC  .S2     $C$RL40,B3,0      ; |201| 
    2590 000007b2     8046  ||         MV      .L1     A0,A4             ; |201| 
    2591 000007b8 030c61e0  ||         ADD     .S1     A3,A3,A6          ; |201| 
    2592                    
    2593 000007c0           $C$RL40:   ; CALL OCCURS {VLIB_compare_mem} {0}  ; |201| 
    2594 000007c0           $C$DW$L$VLIB_normalFlow_16_d$47$E:
    2595                    ;** --------------------------------------------------------------------------*
    2596 000007c0           $C$DW$L$VLIB_normalFlow_16_d$48$B:
    2597                    ;          EXCLUSIVE CPU CYCLES: 5
    2598 000007c0     fccd             LDW     .D2T2   *+SP(28),B4       ; |201| 
    2599 000007c2     aec5             STW     .D2T1   A4,*+SP(84)       ; |201| 
    2600 000007c4 00004000             NOP             3
    2601 000007c8           $C$DW$L$VLIB_normalFlow_16_d$48$E:
    2602                    ;** --------------------------------------------------------------------------*
    2603 000007c8           $C$L21:    
    2604 000007c8           $C$DW$L$VLIB_normalFlow_16_d$49$B:
    2605                    ;          EXCLUSIVE CPU CYCLES: 12
    2606                    ;**     -----------------------g27:
    2607                    ;** 203 -----------------------    U$112 = U$11+v$1;
    2608                    ;** 203 -----------------------    if ( (*U$112).staticOutU ) goto g29;
    2609                    ;** 199 -----------------------    statusV = 1;
    2610                    ;**     -----------------------    goto g30;
    2611                            .dwpsn  file "./../packages/ti/vlib/src/VLIB_normalFlow_16/VLIB_normalFlow_16_d.c",line 203,co
    2612 000007c8 022c807a             ADD     .L2     B4,B11,B4         ; |203| 
    2613 000007cc     d00d             LDW     .D2T2   *+B4(24),B0       ; |203| 
    2614 000007ce     6c6e             NOP             4
    2615                    
    2616 000007d0 30000e91     [!B0]   B       .S1     $C$L22
    2617 000007d4 23124287  || [ B0]   LDHU    .D2T2   *+B4(36),B6       ; |204| 
    2618 000007d8 3704a358  || [!B0]   MVK     .L1     0x1,A14           ; |199| 
    2619                    
    2620                            .dwpsn  file "./../packages/ti/vlib/src/VLIB_normalFlow_16/VLIB_normalFlow_16_d.c",line 204,co
    2621 000007e0 23922286     [ B0]   LDHU    .D2T2   *+B4(34),B7       ; |204| 
    2622                            .dwpsn  file "./../packages/ti/vlib/src/VLIB_normalFlow_16/VLIB_normalFlow_16_d.c",line 216,co
    2623 000007e4 33922286     [!B0]   LDHU    .D2T2   *+B4(34),B7       ; |216| 
    2624                    
    2625 000007e8 32924287     [!B0]   LDHU    .D2T2   *+B4(36),B5       ; |216| 
    2626 000007ec 3200002a! || [!B0]   MVKL    .S2     testPatternString,B4
    2627                    
    2628 000007f0 3200006b!    [!B0]   MVKH    .S2     testPatternString,B4
    2629 000007f4 2210e2e4  || [ B0]   LDW     .D2T1   *+B4(28),A4       ; |204| 
    2630                    
    2631                    $C$DW$210       .dwtag  DW_TAG_TI_branch
    2632                            .dwattr $C$DW$210, DW_AT_low_pc(0x00)
    2633                            .dwattr $C$DW$210, DW_AT_name("VLIB_compare_mem")
    2634                            .dwattr $C$DW$210, DW_AT_TI_call
    2635                    
    2636 000007f8 20000011!    [ B0]   CALL    .S1     VLIB_compare_mem  ; |204| 
    2637 000007fc 323c42f6  || [!B0]   STW     .D2T2   B4,*+SP(8)        ; |216| 
    2638                    
    2639                               ; BRANCHCC OCCURS {$C$L22}  
    2640 00000800           $C$DW$L$VLIB_normalFlow_16_d$49$E:
TMS320C6x Assembler PC v7.4.2 Thu Mar 19 12:43:41 2015

Tools Copyright (c) 1996-2012 Texas Instruments Incorporated
package/lib/Regression/regress_d_c/./../packages/ti/vlib/src/VLIB_normalFlow_16/VLIB_normalFlow_16_d.se66 PAGE   49

    2641                    ;** --------------------------------------------------------------------------*
    2642                            .dwpsn  file "./../packages/ti/vlib/src/VLIB_normalFlow_16/VLIB_normalFlow_16_d.c",line 203,co
    2643 00000800           $C$DW$L$VLIB_normalFlow_16_d$50$B:
    2644                    ;          EXCLUSIVE CPU CYCLES: 5
    2645                    ;**     -----------------------g29:
    2646                    ;** 204 -----------------------    statusV = VLIB_compare_mem((*U$112).staticOutV, (void *)normalFlowV
    2647                    ;**     -----------------------    U$112 = prm+U$11;
    2648                            .dwpsn  file "./../packages/ti/vlib/src/VLIB_normalFlow_16/VLIB_normalFlow_16_d.c",line 204,co
    2649 00000800 0218ef82             MPYU    .M2     B7,B6,B4          ; |204| 
    2650 00000804 01840162             ADDKPC  .S2     $C$RL41,B3,0      ; |204| 
    2651 00000808     8261             ADD     .L2     B4,B4,B6          ; |204| 
    2652 0000080a     9607             MV      .L2X    A12,B4            ; |204| 
    2653 0000080c 03181fd8             MV      .L1X    B6,A6             ; |204| 
    2654 00000810           $C$RL41:   ; CALL OCCURS {VLIB_compare_mem} {0}  ; |204| 
    2655 00000810           $C$DW$L$VLIB_normalFlow_16_d$50$E:
    2656                    ;** --------------------------------------------------------------------------*
    2657 00000810           $C$DW$L$VLIB_normalFlow_16_d$51$B:
    2658                    ;          EXCLUSIVE CPU CYCLES: 10
    2659 00000810     fccd             LDW     .D2T2   *+SP(28),B4
    2660 00000812     c646             MV      .L1     A4,A14            ; |204| 
    2661 00000814 00004000             NOP             3
    2662 00000818 0211607a             ADD     .L2     B11,B4,B4
    2663                            .dwpsn  file "./../packages/ti/vlib/src/VLIB_normalFlow_16/VLIB_normalFlow_16_d.c",line 216,co
    2664 00000820 03922286             LDHU    .D2T2   *+B4(34),B7       ; |216| 
    2665                    
    2666 00000824 02924287             LDHU    .D2T2   *+B4(36),B5       ; |216| 
    2667 00000828 0200002a! ||         MVKL    .S2     testPatternString,B4
    2668                    
    2669 0000082c 0200006a!            MVKH    .S2     testPatternString,B4
    2670 00000830 023c42f6             STW     .D2T2   B4,*+SP(8)        ; |216| 
    2671                    $C$DW$L$VLIB_normalFlow_16_d$51$E:
    2672                    ;** --------------------------------------------------------------------------*
    2673                    $C$L22:    
    2674                    $C$DW$L$VLIB_normalFlow_16_d$52$B:
    2675                    ;          EXCLUSIVE CPU CYCLES: 6
    2676                    ;**     -----------------------g30:
    2677                    ;** 206 -----------------------    if ( !((statusU == 0)|(statusV == 0)) ) goto g32;
    2678                    ;** 207 -----------------------    status_nat_vs_ref = 0;
    2679                    ;**     -----------------------g32:
    2680                    ;** 213 -----------------------    est_test = 1;
    2681                    ;** 216 -----------------------    sprintf(K$204, (const char *)"%s generated input | Opt results comp
    2682                    ;** 218 -----------------------    VLIB_formula_add_test((int)out_size, 0, 0, (status_nat_vs_int == 0)
    2683                    ;** 219 -----------------------    goto g35;
    2684                    $C$DW$211       .dwtag  DW_TAG_TI_branch
    2685                            .dwattr $C$DW$211, DW_AT_low_pc(0x04)
    2686                            .dwattr $C$DW$211, DW_AT_name("sprintf")
    2687                            .dwattr $C$DW$211, DW_AT_TI_call
    2688                    
    2689 00000834 023d22e7             LDW     .D2T2   *+SP(36),B4       ; |216| 
    2690 00000838 00000013! ||         CALL    .S2     sprintf           ; |216| 
    2691 0000083c 01800028! ||         MVKL    .S1     $C$SL2+0,A3
    2692                    
    2693 00000840 01800069!            MVKH    .S1     $C$SL2+0,A3
    2694 00000844 0300002b! ||         MVKL    .S2     est_test,B6
    2695 00000848     fc75  ||         STW     .D2T2   B7,*+SP(12)       ; |216| 
TMS320C6x Assembler PC v7.4.2 Thu Mar 19 12:43:41 2015

Tools Copyright (c) 1996-2012 Texas Instruments Incorporated
package/lib/Regression/regress_d_c/./../packages/ti/vlib/src/VLIB_normalFlow_16/VLIB_normalFlow_16_d.se66 PAGE   50

    2696                    
    2697 0000084a     ac35             STW     .D2T1   A3,*+SP(4)        ; |216| 
    2698 00000854     25a6  ||         MVK     .L1     1,A3              ; |213| 
    2699 00000850 0300006b! ||         MVKH    .S2     est_test,B6
    2700 0000084c 02000029! ||         MVKL    .S1     desc,A4
    2701                    
    2702 00000856     0135             STW     .D2T1   A3,*B6            ; |213| 
    2703 00000858 02000068! ||         MVKH    .S1     desc,A4
    2704                    
    2705 00000860     9cd5             STW     .D2T2   B5,*+SP(16)       ; |216| 
    2706                    
    2707 00000862     bcc5             STW     .D2T2   B4,*+SP(20)       ; |216| 
    2708 00000864 01820162  ||         ADDKPC  .S2     $C$RL42,B3,0      ; |216| 
    2709                    
    2710 00000868           $C$RL42:   ; CALL OCCURS {sprintf} {0}       ; |216| 
    2711 00000868           $C$DW$L$VLIB_normalFlow_16_d$52$E:
    2712                    ;** --------------------------------------------------------------------------*
    2713 00000868           $C$DW$L$VLIB_normalFlow_16_d$53$B:
    2714                    ;          EXCLUSIVE CPU CYCLES: 15
    2715 00000868 01bea2e4             LDW     .D2T1   *+SP(84),A3       ; |216| 
    2716                            .dwpsn  file "./../packages/ti/vlib/src/VLIB_normalFlow_16/VLIB_normalFlow_16_d.c",line 206,co
    2717 0000086c 02380a58             CMPEQ   .L1     A14,0,A4          ; |206| 
    2718                            .dwpsn  file "./../packages/ti/vlib/src/VLIB_normalFlow_16/VLIB_normalFlow_16_d.c",line 218,co
    2719 00000870 02340a5a             CMPEQ   .L2     B13,0,B4          ; |218| 
    2720 00000874 04000028!            MVKL    .S1     desc,A8
    2721 00000878 0400a35a             ZERO    .L2     B8                ; |218| 
    2722                            .dwpsn  file "./../packages/ti/vlib/src/VLIB_normalFlow_16/VLIB_normalFlow_16_d.c",line 206,co
    2723 00000880 018c0a58             CMPEQ   .L1     A3,0,A3           ; |206| 
    2724 00000884 000c8ff8             OR      .L1     A4,A3,A0          ; |206| 
    2725                            .dwpsn  file "./../packages/ti/vlib/src/VLIB_normalFlow_16/VLIB_normalFlow_16_d.c",line 207,co
    2726 00000888 c600a35a     [ A0]   ZERO    .L2     B12               ; |207| 
    2727                    
    2728 00000890     ad4d             LDW     .D2T1   *+SP(36),A4       ; |206| 
    2729 0000088c 02b00a5b  ||         CMPEQ   .L2     B12,0,B5          ; |218| 
    2730                    
    2731                    $C$DW$212       .dwtag  DW_TAG_TI_branch
    2732                            .dwattr $C$DW$212, DW_AT_low_pc(0x00)
    2733                            .dwattr $C$DW$212, DW_AT_name("VLIB_formula_add_test")
    2734                            .dwattr $C$DW$212, DW_AT_TI_call
    2735                    
    2736 00000898 10000013!            CALLP   .S2     VLIB_formula_add_test,B3
    2737 00000894 0310affb  ||         OR      .L2     B5,B4,B6          ; |218| 
    2738 00000892     1a77  ||         ZERO    .D2     B4                ; |218| 
    2739 000008a0 04000069! ||         MVKH    .S1     desc,A8
    2740 000008a4     0726  ||         ZERO    .L1     A6                ; |218| 
    2741                    
    2742                            .dwpsn  file "./../packages/ti/vlib/src/VLIB_normalFlow_16/VLIB_normalFlow_16_d.c",line 218,co
    2743 000008a6           $C$RL43:   ; CALL OCCURS {VLIB_formula_add_test} {0}  ; |218| 
    2744 000008a6           $C$DW$L$VLIB_normalFlow_16_d$53$E:
    2745                    ;** --------------------------------------------------------------------------*
    2746 000008a6           $C$DW$L$VLIB_normalFlow_16_d$54$B:
    2747                    ;          EXCLUSIVE CPU CYCLES: 6
    2748                            .dwpsn  file "./../packages/ti/vlib/src/VLIB_normalFlow_16/VLIB_normalFlow_16_d.c",line 219,co
    2749 000008a6     d10a             BNOP    .S1     $C$L25,5          ; |219| 
    2750                               ; BRANCH OCCURS {$C$L25}          ; |219| 
TMS320C6x Assembler PC v7.4.2 Thu Mar 19 12:43:41 2015

Tools Copyright (c) 1996-2012 Texas Instruments Incorporated
package/lib/Regression/regress_d_c/./../packages/ti/vlib/src/VLIB_normalFlow_16/VLIB_normalFlow_16_d.se66 PAGE   51

    2751 000008a8           $C$DW$L$VLIB_normalFlow_16_d$54$E:
    2752                    ;** --------------------------------------------------------------------------*
    2753 000008a8           $C$L23:    
    2754                            .dwpsn  file "./../packages/ti/vlib/src/VLIB_normalFlow_16/VLIB_normalFlow_16_d.c",line 157,co
    2755 000008a8           $C$DW$L$VLIB_normalFlow_16_d$55$B:
    2756                    ;          EXCLUSIVE CPU CYCLES: 8
    2757                    ;**     -----------------------g33:
    2758                    ;** 221 -----------------------    C$7 = U$11+v$1;
    2759                    ;** 221 -----------------------    sprintf(K$204, (const char *)"width=%d, height=%d, numEls=%d", (int
    2760                    ;** 223 -----------------------    VLIB_skip_test(K$204);
    2761                    ;** 223 -----------------------    goto g35;
    2762                    
    2763 000008a8 03124287             LDHU    .D2T2   *+B4(36),B6       ; |221| 
    2764 000008ac 0280002b! ||         MVKL    .S2     $C$SL3+0,B5
    2765 000008b0 02000028! ||         MVKL    .S1     desc,A4
    2766                    
    2767 000008b4 02000069!            MVKH    .S1     desc,A4
    2768 000008b8 03922286  ||         LDHU    .D2T2   *+B4(34),B7       ; |221| 
    2769                    
    2770                    $C$DW$213       .dwtag  DW_TAG_TI_branch
    2771                            .dwattr $C$DW$213, DW_AT_low_pc(0x00)
    2772                            .dwattr $C$DW$213, DW_AT_name("sprintf")
    2773                            .dwattr $C$DW$213, DW_AT_TI_call
    2774                    
    2775 000008c0 00000011!            CALL    .S1     sprintf           ; |221| 
    2776 000008c4 023d22e6  ||         LDW     .D2T2   *+SP(36),B4       ; |221| 
    2777                    
    2778 000008c8 0280006a!            MVKH    .S2     $C$SL3+0,B5
    2779                            .dwpsn  file "./../packages/ti/vlib/src/VLIB_normalFlow_16/VLIB_normalFlow_16_d.c",line 221,co
    2780 000008cc     bc55             STW     .D2T2   B5,*+SP(4)        ; |221| 
    2781 000008ce     fc65             STW     .D2T2   B6,*+SP(12)       ; |221| 
    2782 000008d0     dc75             STW     .D2T2   B7,*+SP(8)        ; |221| 
    2783                    
    2784 000008d2     9cc5             STW     .D2T2   B4,*+SP(16)       ; |221| 
    2785 000008d4 01860162  ||         ADDKPC  .S2     $C$RL44,B3,0      ; |221| 
    2786                    
    2787 000008d8           $C$RL44:   ; CALL OCCURS {sprintf} {0}       ; |221| 
    2788 000008d8           $C$DW$L$VLIB_normalFlow_16_d$55$E:
    2789                    ;** --------------------------------------------------------------------------*
    2790 000008d8           $C$DW$L$VLIB_normalFlow_16_d$56$B:
    2791                    ;          EXCLUSIVE CPU CYCLES: 7
    2792 000008d8 02000028!            MVKL    .S1     desc,A4
    2793                    $C$DW$214       .dwtag  DW_TAG_TI_branch
    2794                            .dwattr $C$DW$214, DW_AT_low_pc(0x00)
    2795                            .dwattr $C$DW$214, DW_AT_name("VLIB_skip_test")
    2796                            .dwattr $C$DW$214, DW_AT_TI_call
    2797                    
    2798 000008e0 10000013!            CALLP   .S2     VLIB_skip_test,B3
    2799 000008e4 02000068! ||         MVKH    .S1     desc,A4
    2800                    
    2801                            .dwpsn  file "./../packages/ti/vlib/src/VLIB_normalFlow_16/VLIB_normalFlow_16_d.c",line 223,co
    2802 000008e8           $C$RL45:   ; CALL OCCURS {VLIB_skip_test} {0}  ; |223| 
    2803 000008e8           $C$DW$L$VLIB_normalFlow_16_d$56$E:
    2804                    ;** --------------------------------------------------------------------------*
    2805 000008e8           $C$DW$L$VLIB_normalFlow_16_d$57$B:
TMS320C6x Assembler PC v7.4.2 Thu Mar 19 12:43:41 2015

Tools Copyright (c) 1996-2012 Texas Instruments Incorporated
package/lib/Regression/regress_d_c/./../packages/ti/vlib/src/VLIB_normalFlow_16/VLIB_normalFlow_16_d.se66 PAGE   52

    2806                    ;          EXCLUSIVE CPU CYCLES: 6
    2807 000008e8 00000a10             B       .S1     $C$L26            ; |223| 
    2808                            .dwpsn  file "./../packages/ti/vlib/src/VLIB_normalFlow_16/VLIB_normalFlow_16_d.c",line 233,co
    2809                    ;----------------------------------------------------------------------
    2810                    ; 233 | free(normalFlowV_cn);                                                  
    2811                    ;----------------------------------------------------------------------
    2812                    $C$DW$215       .dwtag  DW_TAG_TI_branch
    2813                            .dwattr $C$DW$215, DW_AT_low_pc(0x00)
    2814                            .dwattr $C$DW$215, DW_AT_name("free")
    2815                            .dwattr $C$DW$215, DW_AT_TI_call
    2816 000008ec 00000010!            CALL    .S1     free              ; |233| 
    2817 000008f0     8ecd             LDW     .D2T1   *+SP(80),A4       ; |233| 
    2818 000008f2     4c6e             NOP             3
    2819                            .dwpsn  file "./../packages/ti/vlib/src/VLIB_normalFlow_16/VLIB_normalFlow_16_d.c",line 223,co
    2820                               ; BRANCH OCCURS {$C$L26}          ; |223| 
    2821 000008f4           $C$DW$L$VLIB_normalFlow_16_d$57$E:
    2822                    ;** --------------------------------------------------------------------------*
    2823 000008f4           $C$L24:    
    2824                            .dwpsn  file "./../packages/ti/vlib/src/VLIB_normalFlow_16/VLIB_normalFlow_16_d.c",line 80,col
    2825 000008f4           $C$DW$L$VLIB_normalFlow_16_d$58$B:
    2826                    ;          EXCLUSIVE CPU CYCLES: 5
    2827                    ;**     -----------------------g34:
    2828                    ;** 227 -----------------------    sprintf(K$204, (const char *)"width=%d, height=%d, numEls=%d", (int
    2829                    ;** 229 -----------------------    VLIB_skip_test(K$204);
    2830 000008f4 0200006a!            MVKH    .S2     $C$SL3+0,B4
    2831                    
    2832 000008f8     b607             MV      .L2X    A12,B5            ; |227| 
    2833 000008fa     bc45  ||         STW     .D2T2   B4,*+SP(4)        ; |227| 
    2834                    
    2835                            .dwpsn  file "./../packages/ti/vlib/src/VLIB_normalFlow_16/VLIB_normalFlow_16_d.c",line 227,co
    2836 00000900 02bc82f6             STW     .D2T2   B5,*+SP(16)       ; |227| 
    2837                    
    2838 00000904 023c42f5             STW     .D2T1   A4,*+SP(8)        ; |227| 
    2839 00000908 02000028! ||         MVKL    .S1     desc,A4
    2840                    
    2841 00000914 01bc62f4             STW     .D2T1   A3,*+SP(12)       ; |227| 
    2842 00000910 02000069! ||         MVKH    .S1     desc,A4
    2843 0000090c 01860163  ||         ADDKPC  .S2     $C$RL46,B3,0      ; |227| 
    2844                    
    2845 00000918           $C$RL46:   ; CALL OCCURS {sprintf} {0}       ; |227| 
    2846 00000918           $C$DW$L$VLIB_normalFlow_16_d$58$E:
    2847                    ;** --------------------------------------------------------------------------*
    2848 00000918           $C$DW$L$VLIB_normalFlow_16_d$59$B:
    2849                    ;          EXCLUSIVE CPU CYCLES: 7
    2850 00000918 02000029!            MVKL    .S1     desc,A4
    2851                    $C$DW$216       .dwtag  DW_TAG_TI_branch
    2852                            .dwattr $C$DW$216, DW_AT_low_pc(0x00)
    2853                            .dwattr $C$DW$216, DW_AT_name("VLIB_skip_test")
    2854                            .dwattr $C$DW$216, DW_AT_TI_call
    2855                    
    2856 00000920 10000013!            CALLP   .S2     VLIB_skip_test,B3
    2857 00000924 02000068! ||         MVKH    .S1     desc,A4
    2858                    
    2859                            .dwpsn  file "./../packages/ti/vlib/src/VLIB_normalFlow_16/VLIB_normalFlow_16_d.c",line 229,co
    2860 00000928           $C$RL47:   ; CALL OCCURS {VLIB_skip_test} {0}  ; |229| 
TMS320C6x Assembler PC v7.4.2 Thu Mar 19 12:43:41 2015

Tools Copyright (c) 1996-2012 Texas Instruments Incorporated
package/lib/Regression/regress_d_c/./../packages/ti/vlib/src/VLIB_normalFlow_16/VLIB_normalFlow_16_d.se66 PAGE   53

    2861 00000928           $C$DW$L$VLIB_normalFlow_16_d$59$E:
    2862                    ;** --------------------------------------------------------------------------*
    2863 00000928           $C$L25:    
    2864 00000928           $C$DW$L$VLIB_normalFlow_16_d$60$B:
    2865                    ;          EXCLUSIVE CPU CYCLES: 5
    2866                            .dwpsn  file "./../packages/ti/vlib/src/VLIB_normalFlow_16/VLIB_normalFlow_16_d.c",line 233,co
    2867                    $C$DW$217       .dwtag  DW_TAG_TI_branch
    2868                            .dwattr $C$DW$217, DW_AT_low_pc(0x00)
    2869                            .dwattr $C$DW$217, DW_AT_name("free")
    2870                            .dwattr $C$DW$217, DW_AT_TI_call
    2871 00000928 00000010!            CALL    .S1     free              ; |233| 
    2872 0000092c     8ecd             LDW     .D2T1   *+SP(80),A4       ; |233| 
    2873 0000092e     4c6e             NOP             3
    2874 00000930           $C$DW$L$VLIB_normalFlow_16_d$60$E:
    2875                    ;** --------------------------------------------------------------------------*
    2876 00000930           $C$L26:    
    2877                            .dwpsn  file "./../packages/ti/vlib/src/VLIB_normalFlow_16/VLIB_normalFlow_16_d.c",line 219,co
    2878 00000930           $C$DW$L$VLIB_normalFlow_16_d$61$B:
    2879                    ;          EXCLUSIVE CPU CYCLES: 1
    2880                    ;**     -----------------------g35:
    2881                    ;** 233 -----------------------    free((void *)normalFlowV_cn);
    2882                    ;** 234 -----------------------    free((void *)normalFlowU_cn);
    2883                    ;** 235 -----------------------    VLIB_free((void *)normalFlowV);
    2884                    ;** 236 -----------------------    VLIB_free((void *)normalFlowU);
    2885                    ;** 237 -----------------------    VLIB_free((void *)LUT);
    2886                    ;** 238 -----------------------    VLIB_free((void *)Ey);
    2887                    ;** 239 -----------------------    VLIB_free((void *)Ex);
    2888                    ;** 240 -----------------------    VLIB_free((void *)Emag);
    2889                    ;** 241 -----------------------    VLIB_free((void *)imDiff);
    2890                    ;** 242 -----------------------    VLIB_free((void *)pInold);
    2891                    ;** 243 -----------------------    VLIB_free((void *)pIn);
    2892                            .dwpsn  file "./../packages/ti/vlib/src/VLIB_normalFlow_16/VLIB_normalFlow_16_d.c",line 233,co
    2893 00000930 01850162             ADDKPC  .S2     $C$RL48,B3,0      ; |233| 
    2894                    $C$RL48:   ; CALL OCCURS {free} {0}          ; |233| 
    2895                    $C$DW$L$VLIB_normalFlow_16_d$61$E:
    2896                    ;** --------------------------------------------------------------------------*
    2897                    $C$DW$L$VLIB_normalFlow_16_d$62$B:
    2898                    ;          EXCLUSIVE CPU CYCLES: 60
    2899                    $C$DW$218       .dwtag  DW_TAG_TI_branch
    2900                            .dwattr $C$DW$218, DW_AT_low_pc(0x00)
    2901                            .dwattr $C$DW$218, DW_AT_name("free")
    2902                            .dwattr $C$DW$218, DW_AT_TI_call
    2903                    
    2904 00000934 10000013!            CALLP   .S2     free,B3
    2905 00000938 023e62e4  ||         LDW     .D2T1   *+SP(76),A4       ; |234| 
    2906                    
    2907                            .dwpsn  file "./../packages/ti/vlib/src/VLIB_normalFlow_16/VLIB_normalFlow_16_d.c",line 234,co
    2908                    ;----------------------------------------------------------------------
    2909                    ; 234 | free(normalFlowU_cn);                                                  
    2910                    ;----------------------------------------------------------------------
    2911                    $C$RL49:   ; CALL OCCURS {free} {0}          ; |234| 
    2912                    $C$DW$219       .dwtag  DW_TAG_TI_branch
    2913                            .dwattr $C$DW$219, DW_AT_low_pc(0x00)
    2914                            .dwattr $C$DW$219, DW_AT_name("VLIB_free")
    2915                            .dwattr $C$DW$219, DW_AT_TI_call
TMS320C6x Assembler PC v7.4.2 Thu Mar 19 12:43:41 2015

Tools Copyright (c) 1996-2012 Texas Instruments Incorporated
package/lib/Regression/regress_d_c/./../packages/ti/vlib/src/VLIB_normalFlow_16/VLIB_normalFlow_16_d.se66 PAGE   54

    2916                    
    2917 00000940 10000013!            CALLP   .S2     VLIB_free,B3
    2918 00000944 023e42e4  ||         LDW     .D2T1   *+SP(72),A4       ; |235| 
    2919                    
    2920                            .dwpsn  file "./../packages/ti/vlib/src/VLIB_normalFlow_16/VLIB_normalFlow_16_d.c",line 235,co
    2921                    ;----------------------------------------------------------------------
    2922                    ; 235 | VLIB_free(normalFlowV);                                                
    2923                    ;----------------------------------------------------------------------
    2924                    $C$RL50:   ; CALL OCCURS {VLIB_free} {0}     ; |235| 
    2925                    $C$DW$220       .dwtag  DW_TAG_TI_branch
    2926                            .dwattr $C$DW$220, DW_AT_low_pc(0x00)
    2927                            .dwattr $C$DW$220, DW_AT_name("VLIB_free")
    2928                            .dwattr $C$DW$220, DW_AT_TI_call
    2929                    
    2930 00000948 10000013!            CALLP   .S2     VLIB_free,B3
    2931 0000094c 023e22e4  ||         LDW     .D2T1   *+SP(68),A4       ; |236| 
    2932                    
    2933                            .dwpsn  file "./../packages/ti/vlib/src/VLIB_normalFlow_16/VLIB_normalFlow_16_d.c",line 236,co
    2934                    ;----------------------------------------------------------------------
    2935                    ; 236 | VLIB_free(normalFlowU);                                                
    2936                    ;----------------------------------------------------------------------
    2937                    $C$RL51:   ; CALL OCCURS {VLIB_free} {0}     ; |236| 
    2938                    $C$DW$221       .dwtag  DW_TAG_TI_branch
    2939                            .dwattr $C$DW$221, DW_AT_low_pc(0x00)
    2940                            .dwattr $C$DW$221, DW_AT_name("VLIB_free")
    2941                            .dwattr $C$DW$221, DW_AT_TI_call
    2942                    
    2943 00000950 10000013!            CALLP   .S2     VLIB_free,B3
    2944 00000954 023e02e4  ||         LDW     .D2T1   *+SP(64),A4       ; |237| 
    2945                    
    2946                            .dwpsn  file "./../packages/ti/vlib/src/VLIB_normalFlow_16/VLIB_normalFlow_16_d.c",line 237,co
    2947                    ;----------------------------------------------------------------------
    2948                    ; 237 | VLIB_free(LUT);                                                        
    2949                    ;----------------------------------------------------------------------
    2950                    $C$RL52:   ; CALL OCCURS {VLIB_free} {0}     ; |237| 
    2951                    $C$DW$222       .dwtag  DW_TAG_TI_branch
    2952                            .dwattr $C$DW$222, DW_AT_low_pc(0x00)
    2953                            .dwattr $C$DW$222, DW_AT_name("VLIB_free")
    2954                            .dwattr $C$DW$222, DW_AT_TI_call
    2955                    
    2956 00000958 10000013!            CALLP   .S2     VLIB_free,B3
    2957 0000095c 023de2e4  ||         LDW     .D2T1   *+SP(60),A4       ; |238| 
